	.text
	.syntax unified
	.eabi_attribute	67, "2.09"	@ Tag_conformance
	.cpu	cortex-m4
	.eabi_attribute	6, 13	@ Tag_CPU_arch
	.eabi_attribute	7, 77	@ Tag_CPU_arch_profile
	.eabi_attribute	8, 0	@ Tag_ARM_ISA_use
	.eabi_attribute	9, 2	@ Tag_THUMB_ISA_use
	.fpu	fpv4-sp-d16
	.eabi_attribute	27, 1	@ Tag_ABI_HardFP_use
	.eabi_attribute	36, 1	@ Tag_FP_HP_extension
	.eabi_attribute	34, 1	@ Tag_CPU_unaligned_access
	.eabi_attribute	17, 1	@ Tag_ABI_PCS_GOT_use
	.eabi_attribute	20, 2	@ Tag_ABI_FP_denormal
	.eabi_attribute	21, 0	@ Tag_ABI_FP_exceptions
	.eabi_attribute	23, 1	@ Tag_ABI_FP_number_model
	.eabi_attribute	24, 1	@ Tag_ABI_align_needed
	.eabi_attribute	25, 1	@ Tag_ABI_align_preserved
	.eabi_attribute	28, 1	@ Tag_ABI_VFP_args
	.eabi_attribute	38, 1	@ Tag_ABI_FP_16bit_format
	.eabi_attribute	18, 2	@ Tag_ABI_PCS_wchar_t
	.eabi_attribute	26, 1	@ Tag_ABI_enum_size
	.eabi_attribute	14, 0	@ Tag_ABI_PCS_R9_use
	.file	"Communi.c"
	.file	1 "C:\\Users\\Hyacincher\\Desktop\\HyTelectrl\\Code\\Project" "../Application/Communi.h"
	.file	2 "C:\\Users\\Hyacincher\\Desktop\\HyTelectrl\\Code\\Project" "../User\\includes.h"
	.file	3 "C:\\Users\\Hyacincher\\Desktop\\HyTelectrl\\Code\\Project" "../Application/Communi.c"
	.section	.text.CommnuniInit,"ax",%progbits
	.hidden	CommnuniInit                    @ -- Begin function CommnuniInit
	.globl	CommnuniInit
	.p2align	1
	.type	CommnuniInit,%function
	.code	16                              @ @CommnuniInit
	.thumb_func
CommnuniInit:
.Lfunc_begin0:
	.loc	3 13 0                          @ ../Application/Communi.c:13:0
	.fnstart
	.cfi_sections .debug_frame
	.cfi_startproc
@ %bb.0:
	.loc	3 14 5 prologue_end             @ ../Application/Communi.c:14:5
	movw	r0, :lower16:g_CommuniCtrlMsg
	movt	r0, :upper16:g_CommuniCtrlMsg
	movs	r1, #0
	strd	r1, r1, [r0]
.Ltmp0:
	.loc	3 16 5                          @ ../Application/Communi.c:16:5
	b	NRFInit
.Ltmp1:
.Lfunc_end0:
	.size	CommnuniInit, .Lfunc_end0-CommnuniInit
	.cfi_endproc
	.file	4 "C:\\Users\\Hyacincher\\Desktop\\HyTelectrl\\Code\\Project" "../Driver\\NRF24L01.h"
	.cantunwind
	.fnend
                                        @ -- End function
	.section	.text.CommnuniTask,"ax",%progbits
	.hidden	CommnuniTask                    @ -- Begin function CommnuniTask
	.globl	CommnuniTask
	.p2align	1
	.type	CommnuniTask,%function
	.code	16                              @ @CommnuniTask
	.thumb_func
CommnuniTask:
.Lfunc_begin1:
	.loc	3 20 0                          @ ../Application/Communi.c:20:0
	.fnstart
	.cfi_startproc
@ %bb.0:
	.save	{r4, r5, r7, lr}
	push	{r4, r5, r7, lr}
	.cfi_def_cfa_offset 16
	.cfi_offset lr, -4
	.cfi_offset r7, -8
	.cfi_offset r5, -12
	.cfi_offset r4, -16
.Ltmp2:
	.loc	3 21 29 prologue_end            @ ../Application/Communi.c:21:29
	movw	r4, :lower16:g_CommuniCtrlMsg
	movt	r4, :upper16:g_CommuniCtrlMsg
	ldrb	r0, [r4]
	.loc	3 21 5 is_stmt 0                @ ../Application/Communi.c:21:5
	cmp	r0, #2
	beq	.LBB1_4
@ %bb.1:
	cmp	r0, #1
	beq	.LBB1_5
@ %bb.2:
	cbnz	r0, .LBB1_11
@ %bb.3:
.Ltmp3:
	.loc	3 24 41 is_stmt 1               @ ../Application/Communi.c:24:41
	movw	r0, :lower16:g_SystemTime
	movt	r0, :upper16:g_SystemTime
	ldr	r0, [r0]
	.loc	3 24 39 is_stmt 0               @ ../Application/Communi.c:24:39
	str	r0, [r4, #4]
	b	.LBB1_9
.LBB1_4:
	.loc	3 0 39                          @ ../Application/Communi.c:0:39
	movs	r0, #0
	b	.LBB1_10
.LBB1_5:
.Ltmp4:
	.loc	3 28 17 is_stmt 1               @ ../Application/Communi.c:28:17
	movw	r0, :lower16:g_SystemTime
	movt	r0, :upper16:g_SystemTime
	ldr	r0, [r0]
	.loc	3 28 49 is_stmt 0               @ ../Application/Communi.c:28:49
	ldr	r1, [r4, #4]
	.loc	3 28 30                         @ ../Application/Communi.c:28:30
	subs	r0, r0, r1
.Ltmp5:
	.loc	3 28 16                         @ ../Application/Communi.c:28:16
	cmp	r0, #2
.Ltmp6:
	.loc	3 45 1 is_stmt 1                @ ../Application/Communi.c:45:1
	it	lo
	poplo	{r4, r5, r7, pc}
.LBB1_6:
.Ltmp7:
	.loc	3 49 40                         @ ../Application/Communi.c:49:40
	movw	r5, :lower16:g_NRFCtrlMsg
	movt	r5, :upper16:g_NRFCtrlMsg
	movs	r1, #85
	movs	r0, #170
	.loc	3 50 40                         @ ../Application/Communi.c:50:40
	strb.w	r1, [r5, #32]
	movs	r1, #0
	movs	r2, #2
	@DEBUG_VALUE: CalSum:Buff <- [DW_OP_plus_uconst 1, DW_OP_stack_value] $r5
	@DEBUG_VALUE: CalSum:ii <- 1
	@DEBUG_VALUE: CalSum:Sum <- 170
	@DEBUG_VALUE: CalSum:Lenth <- 30
	.loc	3 49 40                         @ ../Application/Communi.c:49:40
	strb	r0, [r5, #1]
	.p2align	2
.LBB1_7:                                @ =>This Inner Loop Header: Depth=1
.Ltmp8:
	@DEBUG_VALUE: CalSum:Buff <- [DW_OP_plus_uconst 1, DW_OP_stack_value] $r5
	@DEBUG_VALUE: CalSum:Lenth <- 30
	.loc	3 77 16                         @ ../Application/Communi.c:77:16
	ldrb	r3, [r5, r2]
.Ltmp9:
	@DEBUG_VALUE: CalSum:Sum <- [DW_OP_LLVM_fragment 32 32] $r1
	@DEBUG_VALUE: CalSum:Sum <- [DW_OP_LLVM_fragment 0 32] $r0
	@DEBUG_VALUE: CalSum:ii <- [DW_OP_constu 1, DW_OP_minus, DW_OP_stack_value] $r2
	.loc	3 75 21                         @ ../Application/Communi.c:75:21
	adds	r2, #1
.Ltmp10:
	.loc	3 77 13                         @ ../Application/Communi.c:77:13
	adds	r0, r0, r3
.Ltmp11:
	@DEBUG_VALUE: CalSum:Sum <- [DW_OP_LLVM_fragment 0 32] $r0
	adc	r1, r1, #0
.Ltmp12:
	@DEBUG_VALUE: CalSum:Sum <- [DW_OP_LLVM_fragment 32 32] $r1
	@DEBUG_VALUE: CalSum:ii <- $r2
	.loc	3 75 5                          @ ../Application/Communi.c:75:5
	cmp	r2, #31
	bne	.LBB1_7
.Ltmp13:
@ %bb.8:
	@DEBUG_VALUE: TransmitRocker:Sum <- $r0
	.loc	3 53 39                         @ ../Application/Communi.c:53:39
	strb	r0, [r5, #31]
	.loc	3 55 5                          @ ../Application/Communi.c:55:5
	bl	NRFTransmitData
.Ltmp14:
	.loc	3 0 5 is_stmt 0                 @ ../Application/Communi.c:0:5
	movs	r0, #0
.Ltmp15:
	.loc	3 139 43 is_stmt 1              @ ../Application/Communi.c:139:43
	strh	r0, [r5, #28]
	.loc	3 141 43                        @ ../Application/Communi.c:141:43
	strb	r0, [r5, #30]
.Ltmp16:
.LBB1_9:
	.loc	3 0 0 is_stmt 0                 @ ../Application/Communi.c:0:0
	ldrb	r0, [r4]
	adds	r0, #1
.LBB1_10:
	strb	r0, [r4]
.Ltmp17:
	.loc	3 45 1 is_stmt 1                @ ../Application/Communi.c:45:1
	pop	{r4, r5, r7, pc}
.LBB1_11:
	.loc	3 0 1 is_stmt 0                 @ ../Application/Communi.c:0:1
	movs	r0, #0
.Ltmp18:
	.loc	3 41 40 is_stmt 1               @ ../Application/Communi.c:41:40
	strb	r0, [r4]
	.loc	3 42 41                         @ ../Application/Communi.c:42:41
	movw	r0, :lower16:g_SystemTime
	movt	r0, :upper16:g_SystemTime
	ldr	r0, [r0]
	.loc	3 42 39 is_stmt 0               @ ../Application/Communi.c:42:39
	str	r0, [r4, #4]
.Ltmp19:
	.loc	3 45 1 is_stmt 1                @ ../Application/Communi.c:45:1
	pop	{r4, r5, r7, pc}
.Ltmp20:
.Lfunc_end1:
	.size	CommnuniTask, .Lfunc_end1-CommnuniTask
	.cfi_endproc
	.cantunwind
	.fnend
                                        @ -- End function
	.section	.text.SetMotorUnLock,"ax",%progbits
	.hidden	SetMotorUnLock                  @ -- Begin function SetMotorUnLock
	.globl	SetMotorUnLock
	.p2align	1
	.type	SetMotorUnLock,%function
	.code	16                              @ @SetMotorUnLock
	.thumb_func
SetMotorUnLock:
.Lfunc_begin2:
	.loc	3 59 0                          @ ../Application/Communi.c:59:0
	.fnstart
	.cfi_startproc
@ %bb.0:
	@DEBUG_VALUE: SetMotorUnLock:UnLock <- $r0
	@DEBUG_VALUE: UpdateAuxLevelTrans:Binary <- $r0
	.loc	3 116 15 prologue_end           @ ../Application/Communi.c:116:15
	movw	r1, :lower16:g_NRFCtrlMsg
	movt	r1, :upper16:g_NRFCtrlMsg
	ldrb	r2, [r1, #25]
.Ltmp21:
	@DEBUG_VALUE: UpdateAuxLevelTrans:Shift <- 0
	@DEBUG_VALUE: UpdateAuxLevelTrans:Aux <- 0
	@DEBUG_VALUE: UpdateAuxLevelTrans:AuxTemp <- $r2
	@DEBUG_VALUE: UpdateAuxLevelTrans:Binary <- $r0
	@DEBUG_VALUE: SetMotorUnLock:UnLock <- $r0
	.loc	3 118 20                        @ ../Application/Communi.c:118:20
	and	r0, r0, #1
.Ltmp22:
	@DEBUG_VALUE: SetMotorUnLock:UnLock <- [DW_OP_LLVM_entry_value 1] $r0
	.loc	3 117 13                        @ ../Application/Communi.c:117:13
	and	r2, r2, #254
.Ltmp23:
	@DEBUG_VALUE: UpdateAuxLevelTrans:AuxTemp <- $r2
	.loc	3 118 13                        @ ../Application/Communi.c:118:13
	add	r0, r2
.Ltmp24:
	@DEBUG_VALUE: UpdateAuxLevelTrans:AuxTemp <- $r0
	.loc	3 119 47                        @ ../Application/Communi.c:119:47
	strb	r0, [r1, #25]
.Ltmp25:
	.loc	3 61 1                          @ ../Application/Communi.c:61:1
	bx	lr
.Ltmp26:
.Lfunc_end2:
	.size	SetMotorUnLock, .Lfunc_end2-SetMotorUnLock
	.cfi_endproc
	.cantunwind
	.fnend
                                        @ -- End function
	.section	.text.SetAutoTakeoff,"ax",%progbits
	.hidden	SetAutoTakeoff                  @ -- Begin function SetAutoTakeoff
	.globl	SetAutoTakeoff
	.p2align	1
	.type	SetAutoTakeoff,%function
	.code	16                              @ @SetAutoTakeoff
	.thumb_func
SetAutoTakeoff:
.Lfunc_begin3:
	.loc	3 64 0                          @ ../Application/Communi.c:64:0
	.fnstart
	.cfi_startproc
@ %bb.0:
	@DEBUG_VALUE: SetAutoTakeoff:Takeoff <- $r0
	@DEBUG_VALUE: UpdateAuxTriggerTrans:Binary <- $r0
	.loc	3 131 15 prologue_end           @ ../Application/Communi.c:131:15
	movw	r1, :lower16:g_NRFCtrlMsg
	movt	r1, :upper16:g_NRFCtrlMsg
	ldrb	r2, [r1, #28]
.Ltmp27:
	@DEBUG_VALUE: UpdateAuxTriggerTrans:Shift <- 0
	@DEBUG_VALUE: UpdateAuxTriggerTrans:Aux <- 0
	@DEBUG_VALUE: UpdateAuxTriggerTrans:AuxTemp <- $r2
	@DEBUG_VALUE: UpdateAuxTriggerTrans:Binary <- $r0
	@DEBUG_VALUE: SetAutoTakeoff:Takeoff <- $r0
	.loc	3 133 20                        @ ../Application/Communi.c:133:20
	and	r0, r0, #1
.Ltmp28:
	@DEBUG_VALUE: SetAutoTakeoff:Takeoff <- [DW_OP_LLVM_entry_value 1] $r0
	.loc	3 132 13                        @ ../Application/Communi.c:132:13
	and	r2, r2, #254
.Ltmp29:
	@DEBUG_VALUE: UpdateAuxTriggerTrans:AuxTemp <- $r2
	.loc	3 133 13                        @ ../Application/Communi.c:133:13
	add	r0, r2
.Ltmp30:
	@DEBUG_VALUE: UpdateAuxTriggerTrans:AuxTemp <- $r0
	.loc	3 134 49                        @ ../Application/Communi.c:134:49
	strb	r0, [r1, #28]
.Ltmp31:
	.loc	3 66 1                          @ ../Application/Communi.c:66:1
	bx	lr
.Ltmp32:
.Lfunc_end3:
	.size	SetAutoTakeoff, .Lfunc_end3-SetAutoTakeoff
	.cfi_endproc
	.cantunwind
	.fnend
                                        @ -- End function
	.section	.text.UpdateRockerTrans,"ax",%progbits
	.hidden	UpdateRockerTrans               @ -- Begin function UpdateRockerTrans
	.globl	UpdateRockerTrans
	.p2align	1
	.type	UpdateRockerTrans,%function
	.code	16                              @ @UpdateRockerTrans
	.thumb_func
UpdateRockerTrans:
.Lfunc_begin4:
	.loc	3 84 0                          @ ../Application/Communi.c:84:0
	.fnstart
	.cfi_startproc
@ %bb.0:
	@DEBUG_VALUE: UpdateRockerTrans:Throttle <- $r0
	@DEBUG_VALUE: UpdateRockerTrans:Throttle <- $r0
	@DEBUG_VALUE: UpdateRockerTrans:Yaw <- $r1
	@DEBUG_VALUE: UpdateRockerTrans:Yaw <- $r1
	@DEBUG_VALUE: UpdateRockerTrans:Picth <- $r2
	@DEBUG_VALUE: UpdateRockerTrans:Picth <- $r2
	@DEBUG_VALUE: UpdateRockerTrans:Roll <- $r3
	@DEBUG_VALUE: UpdateRockerTrans:Roll <- $r3
	.save	{r7, lr}
	push	{r7, lr}
	.cfi_def_cfa_offset 8
	.cfi_offset lr, -4
	.cfi_offset r7, -8
.Ltmp33:
	.loc	3 85 43 prologue_end            @ ../Application/Communi.c:85:43
	movw	lr, :lower16:g_NRFCtrlMsg
	movt	lr, :upper16:g_NRFCtrlMsg
	.loc	3 85 63 is_stmt 0               @ ../Application/Communi.c:85:63
	lsr.w	r12, r0, #8
	.loc	3 86 43 is_stmt 1               @ ../Application/Communi.c:86:43
	strb.w	r0, [lr, #10]
	.loc	3 88 57                         @ ../Application/Communi.c:88:57
	lsrs	r0, r1, #8
.Ltmp34:
	@DEBUG_VALUE: UpdateRockerTrans:Throttle <- [DW_OP_LLVM_entry_value 1] $r0
	.loc	3 88 42 is_stmt 0               @ ../Application/Communi.c:88:42
	strb.w	r0, [lr, #11]
	.loc	3 91 61 is_stmt 1               @ ../Application/Communi.c:91:61
	lsrs	r0, r2, #8
	.loc	3 91 44 is_stmt 0               @ ../Application/Communi.c:91:44
	strb.w	r0, [lr, #13]
	.loc	3 94 59 is_stmt 1               @ ../Application/Communi.c:94:59
	lsrs	r0, r3, #8
	.loc	3 85 43                         @ ../Application/Communi.c:85:43
	strb.w	r12, [lr, #9]
	.loc	3 89 42                         @ ../Application/Communi.c:89:42
	strb.w	r1, [lr, #12]
	.loc	3 92 44                         @ ../Application/Communi.c:92:44
	strb.w	r2, [lr, #14]
	.loc	3 94 43                         @ ../Application/Communi.c:94:43
	strb.w	r0, [lr, #15]
	.loc	3 95 43                         @ ../Application/Communi.c:95:43
	strb.w	r3, [lr, #16]
	.loc	3 96 1                          @ ../Application/Communi.c:96:1
	pop	{r7, pc}
.Ltmp35:
.Lfunc_end4:
	.size	UpdateRockerTrans, .Lfunc_end4-UpdateRockerTrans
	.cfi_endproc
	.cantunwind
	.fnend
                                        @ -- End function
	.section	.text.UpdateModeTrans,"ax",%progbits
	.hidden	UpdateModeTrans                 @ -- Begin function UpdateModeTrans
	.globl	UpdateModeTrans
	.p2align	1
	.type	UpdateModeTrans,%function
	.code	16                              @ @UpdateModeTrans
	.thumb_func
UpdateModeTrans:
.Lfunc_begin5:
	.loc	3 99 0                          @ ../Application/Communi.c:99:0
	.fnstart
	.cfi_startproc
@ %bb.0:
	@DEBUG_VALUE: UpdateModeTrans:Index <- $r0
	@DEBUG_VALUE: UpdateModeTrans:Index <- $r0
	@DEBUG_VALUE: UpdateModeTrans:Mode <- $r1
	@DEBUG_VALUE: UpdateModeTrans:Mode <- undef
	.loc	3 100 8 prologue_end            @ ../Application/Communi.c:100:8
	cmp	r0, #5
.Ltmp36:
	@DEBUG_VALUE: UpdateModeTrans:Mode <- $r1
	.loc	3 105 1                         @ ../Application/Communi.c:105:1
	it	hi
	bxhi	lr
.Ltmp37:
.LBB5_1:
	@DEBUG_VALUE: UpdateModeTrans:Mode <- $r1
	@DEBUG_VALUE: UpdateModeTrans:Index <- $r0
	@DEBUG_VALUE: UpdateModeTrans:Mode <- $r1
	.loc	3 104 5                         @ ../Application/Communi.c:104:5
	movw	r2, :lower16:g_NRFCtrlMsg
	movt	r2, :upper16:g_NRFCtrlMsg
	.loc	3 104 40 is_stmt 0              @ ../Application/Communi.c:104:40
	add	r0, r2
.Ltmp38:
	@DEBUG_VALUE: UpdateModeTrans:Index <- [DW_OP_LLVM_entry_value 1] $r0
	.loc	3 104 49                        @ ../Application/Communi.c:104:49
	strb	r1, [r0, #3]
	.loc	3 105 1 is_stmt 1               @ ../Application/Communi.c:105:1
	bx	lr
.Ltmp39:
.Lfunc_end5:
	.size	UpdateModeTrans, .Lfunc_end5-UpdateModeTrans
	.cfi_endproc
	.cantunwind
	.fnend
                                        @ -- End function
	.hidden	g_CommuniCtrlMsg                @ @g_CommuniCtrlMsg
	.type	g_CommuniCtrlMsg,%object
	.section	.bss.g_CommuniCtrlMsg,"aw",%nobits
	.globl	g_CommuniCtrlMsg
	.p2align	3
g_CommuniCtrlMsg:
	.zero	8
	.size	g_CommuniCtrlMsg, 8

	.section	".note.GNU-stack","",%progbits
	.eabi_attribute	30, 3	@ Tag_ABI_optimization_goals
	.ARM_attribute	16, 1	@ Tag_AV_eba