	.text
	.syntax unified
	.eabi_attribute	67, "2.09"	@ Tag_conformance
	.cpu	cortex-m4
	.eabi_attribute	6, 13	@ Tag_CPU_arch
	.eabi_attribute	7, 77	@ Tag_CPU_arch_profile
	.eabi_attribute	8, 0	@ Tag_ARM_ISA_use
	.eabi_attribute	9, 2	@ Tag_THUMB_ISA_use
	.fpu	fpv4-sp-d16
	.eabi_attribute	27, 1	@ Tag_ABI_HardFP_use
	.eabi_attribute	36, 1	@ Tag_FP_HP_extension
	.eabi_attribute	34, 1	@ Tag_CPU_unaligned_access
	.eabi_attribute	17, 1	@ Tag_ABI_PCS_GOT_use
	.eabi_attribute	20, 2	@ Tag_ABI_FP_denormal
	.eabi_attribute	21, 0	@ Tag_ABI_FP_exceptions
	.eabi_attribute	23, 1	@ Tag_ABI_FP_number_model
	.eabi_attribute	24, 1	@ Tag_ABI_align_needed
	.eabi_attribute	25, 1	@ Tag_ABI_align_preserved
	.eabi_attribute	28, 1	@ Tag_ABI_VFP_args
	.eabi_attribute	38, 1	@ Tag_ABI_FP_16bit_format
	.eabi_attribute	18, 2	@ Tag_ABI_PCS_wchar_t
	.eabi_attribute	26, 1	@ Tag_ABI_enum_size
	.eabi_attribute	14, 0	@ Tag_ABI_PCS_R9_use
	.file	"cpu.c"
	.file	1 "C:\\Users\\Hyacincher\\Desktop\\HyTelectrl\\Code\\Project" "../User\\includes.h"
	.file	2 "C:\\Users\\Hyacincher\\Desktop\\HyTelectrl\\Code\\Project" "../User/cpu.c"
	.file	3 "D:\\Keil MDK\\ARM\\ARMCLANG\\Bin\\..\\include" "stdint.h"
	.file	4 "C:\\Users\\Hyacincher\\Desktop\\HyTelectrl\\Code\\Project" "../Library/CMSIS/stm32f429xx.h"
	.file	5 "C:\\Users\\Hyacincher\\Desktop\\HyTelectrl\\Code\\Project" "../Library/STM32F4xx_HAL_Driver/Inc\\stm32f4xx_hal_adc.h"
	.file	6 "C:\\Users\\Hyacincher\\Desktop\\HyTelectrl\\Code\\Project" "../Library/CMSIS\\stm32f4xx.h"
	.file	7 "C:\\Users\\Hyacincher\\Desktop\\HyTelectrl\\Code\\Project" "../Library/STM32F4xx_HAL_Driver/Inc\\stm32f4xx_hal_dma.h"
	.file	8 "C:\\Users\\Hyacincher\\Desktop\\HyTelectrl\\Code\\Project" "../Library/STM32F4xx_HAL_Driver/Inc/stm32f4xx_hal_def.h"
	.file	9 "C:\\Users\\Hyacincher\\Desktop\\HyTelectrl\\Code\\Project" "../Library/STM32F4xx_HAL_Driver/Inc\\stm32f4xx_hal_spi.h"
	.file	10 "C:\\Users\\Hyacincher\\Desktop\\HyTelectrl\\Code\\Project" "../Library/STM32F4xx_HAL_Driver/Inc\\stm32f4xx_hal_tim.h"
	.file	11 "C:\\Users\\Hyacincher\\Desktop\\HyTelectrl\\Code\\Project" "../Library/STM32F4xx_HAL_Driver/Inc\\stm32f4xx_hal_uart.h"
	.file	12 "C:\\Users\\Hyacincher\\Desktop\\HyTelectrl\\Code\\Project" "../User/cpu.h"
	.file	13 "C:\\Users\\Hyacincher\\Desktop\\HyTelectrl\\Code\\Project" "../Library/STM32F4xx_HAL_Driver/Inc\\stm32f4xx_hal_gpio.h"
	.section	.text.HardwareInit,"ax",%progbits
	.hidden	HardwareInit                    @ -- Begin function HardwareInit
	.globl	HardwareInit
	.p2align	1
	.type	HardwareInit,%function
	.code	16                              @ @HardwareInit
	.thumb_func
HardwareInit:
.Lfunc_begin0:
	.loc	2 38 0                          @ ../User/cpu.c:38:0
	.fnstart
	.cfi_sections .debug_frame
	.cfi_startproc
@ %bb.0:
	.save	{r4, r5, r6, r7, r8, r9, r10, r11, lr}
	push.w	{r4, r5, r6, r7, r8, r9, r10, r11, lr}
	.cfi_def_cfa_offset 36
	.cfi_offset lr, -4
	.cfi_offset r11, -8
	.cfi_offset r10, -12
	.cfi_offset r9, -16
	.cfi_offset r8, -20
	.cfi_offset r7, -24
	.cfi_offset r6, -28
	.cfi_offset r5, -32
	.cfi_offset r4, -36
	.pad	#60
	sub	sp, #60
	.cfi_def_cfa_offset 96
	movw	r5, #8448
	movt	r5, #16385
.Ltmp0:
	.loc	2 39 5 prologue_end             @ ../User/cpu.c:39:5
	bl	HAL_Init
.Ltmp1:
	.loc	2 40 5                          @ ../User/cpu.c:40:5
	bl	SystemClock_Config
.Ltmp2:
	.loc	2 0 5 is_stmt 0                 @ ../User/cpu.c:0:5
	movs	r4, #0
	movw	r9, #14384
.Ltmp3:
	.loc	2 712 20 is_stmt 1              @ ../User/cpu.c:712:20
	strd	r4, r4, [sp, #16]
.Ltmp4:
	.loc	2 715 3                         @ ../User/cpu.c:715:3
	str	r4, [sp, #44]
	movt	r9, #16386
	ldr.w	r0, [r9]
.Ltmp5:
	.loc	2 725 3                         @ ../User/cpu.c:725:3
	add.w	r8, r5, #58112
.Ltmp6:
	.loc	2 715 3                         @ ../User/cpu.c:715:3
	orr	r0, r0, #16
	str.w	r0, [r9]
	ldr.w	r0, [r9]
.Ltmp7:
	.loc	2 725 3                         @ ../User/cpu.c:725:3
	mov.w	r1, #4096
.Ltmp8:
	.loc	2 715 3                         @ ../User/cpu.c:715:3
	and	r0, r0, #16
	str	r0, [sp, #44]
	ldr	r0, [sp, #44]
.Ltmp9:
	.loc	2 716 3                         @ ../User/cpu.c:716:3
	str	r4, [sp, #44]
	ldr.w	r0, [r9]
.Ltmp10:
	.loc	2 725 3                         @ ../User/cpu.c:725:3
	movs	r2, #1
.Ltmp11:
	.loc	2 716 3                         @ ../User/cpu.c:716:3
	orr	r0, r0, #4
	str.w	r0, [r9]
	ldr.w	r0, [r9]
	mov.w	r10, #1
	and	r0, r0, #4
	str	r0, [sp, #44]
	ldr	r0, [sp, #44]
.Ltmp12:
	.loc	2 717 3                         @ ../User/cpu.c:717:3
	str	r4, [sp, #44]
	ldr.w	r0, [r9]
	orr	r0, r0, #256
	str.w	r0, [r9]
	ldr.w	r0, [r9]
	and	r0, r0, #256
	str	r0, [sp, #44]
	ldr	r0, [sp, #44]
.Ltmp13:
	.loc	2 718 3                         @ ../User/cpu.c:718:3
	str	r4, [sp, #44]
	ldr.w	r0, [r9]
	orr	r0, r0, #128
	str.w	r0, [r9]
	ldr.w	r0, [r9]
	and	r0, r0, #128
	str	r0, [sp, #44]
	ldr	r0, [sp, #44]
.Ltmp14:
	.loc	2 719 3                         @ ../User/cpu.c:719:3
	str	r4, [sp, #44]
	ldr.w	r0, [r9]
	orr	r0, r0, #1
	str.w	r0, [r9]
	ldr.w	r0, [r9]
	and	r0, r0, #1
	str	r0, [sp, #44]
	ldr	r0, [sp, #44]
.Ltmp15:
	.loc	2 720 3                         @ ../User/cpu.c:720:3
	str	r4, [sp, #44]
	ldr.w	r0, [r9]
	orr	r0, r0, #2
	str.w	r0, [r9]
	ldr.w	r0, [r9]
	and	r0, r0, #2
	str	r0, [sp, #44]
	ldr	r0, [sp, #44]
.Ltmp16:
	.loc	2 721 3                         @ ../User/cpu.c:721:3
	str	r4, [sp, #44]
	ldr.w	r0, [r9]
	orr	r0, r0, #8
	str.w	r0, [r9]
	ldr.w	r0, [r9]
	and	r0, r0, #8
	str	r0, [sp, #44]
	ldr	r0, [sp, #44]
.Ltmp17:
	.loc	2 722 3                         @ ../User/cpu.c:722:3
	str	r4, [sp, #44]
	ldr.w	r0, [r9]
	orr	r0, r0, #64
	str.w	r0, [r9]
	ldr.w	r0, [r9]
	and	r0, r0, #64
	str	r0, [sp, #44]
	ldr	r0, [sp, #44]
.Ltmp18:
	.loc	2 725 3                         @ ../User/cpu.c:725:3
	mov	r0, r8
	bl	HAL_GPIO_WritePin
.Ltmp19:
	.loc	2 728 3                         @ ../User/cpu.c:728:3
	add.w	r11, r5, #60160
	mov	r0, r11
	mov.w	r1, #8192
	movs	r2, #1
	bl	HAL_GPIO_WritePin
.Ltmp20:
	.loc	2 731 3                         @ ../User/cpu.c:731:3
	add.w	r6, r5, #59136
	mov	r0, r6
	mov.w	r1, #768
	movs	r2, #0
	bl	HAL_GPIO_WritePin
.Ltmp21:
	.loc	2 0 3 is_stmt 0                 @ ../User/cpu.c:0:3
	movs	r0, #4
	.loc	2 734 23 is_stmt 1              @ ../User/cpu.c:734:23
	add	r1, sp, #4
	.loc	2 737 3                         @ ../User/cpu.c:737:3
	add.w	r7, r5, #61184
	add	r5, sp, #4
	.loc	2 734 23                        @ ../User/cpu.c:734:23
	stm.w	r1, {r0, r4, r10}
	.loc	2 737 3                         @ ../User/cpu.c:737:3
	mov	r0, r7
	mov	r1, r5
	bl	HAL_GPIO_Init
.Ltmp22:
	.loc	2 0 3 is_stmt 0                 @ ../User/cpu.c:0:3
	movs	r0, #24
	.loc	2 740 23 is_stmt 1              @ ../User/cpu.c:740:23
	strd	r0, r4, [sp, #4]
	.loc	2 743 3                         @ ../User/cpu.c:743:3
	mov	r0, r7
	mov	r1, r5
	.loc	2 742 24                        @ ../User/cpu.c:742:24
	str	r4, [sp, #12]
	.loc	2 743 3                         @ ../User/cpu.c:743:3
	bl	HAL_GPIO_Init
.Ltmp23:
	.loc	2 746 23                        @ ../User/cpu.c:746:23
	mov.w	r0, #8192
	add	r1, sp, #4
	stm.w	r1, {r0, r4, r10}
	.loc	2 749 3                         @ ../User/cpu.c:749:3
	mov	r0, r6
	mov	r1, r5
	bl	HAL_GPIO_Init
.Ltmp24:
	.loc	2 0 3 is_stmt 0                 @ ../User/cpu.c:0:3
	movw	r7, #8448
	mov.w	r0, #2048
	movt	r7, #16385
	.loc	2 752 23 is_stmt 1              @ ../User/cpu.c:752:23
	strd	r0, r4, [sp, #4]
	.loc	2 755 3                         @ ../User/cpu.c:755:3
	add.w	r0, r7, #65280
	mov	r1, r5
	.loc	2 754 24                        @ ../User/cpu.c:754:24
	str	r4, [sp, #12]
	.loc	2 755 3                         @ ../User/cpu.c:755:3
	bl	HAL_GPIO_Init
.Ltmp25:
	.loc	2 0 3 is_stmt 0                 @ ../User/cpu.c:0:3
	movs	r0, #12
	.loc	2 761 3 is_stmt 1               @ ../User/cpu.c:761:3
	add.w	r7, r7, #64256
	.loc	2 758 23                        @ ../User/cpu.c:758:23
	strd	r0, r4, [sp, #4]
	.loc	2 761 3                         @ ../User/cpu.c:761:3
	mov	r0, r7
	mov	r1, r5
	.loc	2 760 24                        @ ../User/cpu.c:760:24
	str	r4, [sp, #12]
	.loc	2 761 3                         @ ../User/cpu.c:761:3
	bl	HAL_GPIO_Init
.Ltmp26:
	.loc	2 0 3 is_stmt 0                 @ ../User/cpu.c:0:3
	movw	r0, #7216
	.loc	2 765 23 is_stmt 1              @ ../User/cpu.c:765:23
	strd	r0, r4, [sp, #4]
	.loc	2 769 3                         @ ../User/cpu.c:769:3
	mov	r0, r6
	mov	r1, r5
	.loc	2 768 24                        @ ../User/cpu.c:768:24
	str	r4, [sp, #12]
	.loc	2 769 3                         @ ../User/cpu.c:769:3
	bl	HAL_GPIO_Init
.Ltmp27:
	.loc	2 0 3 is_stmt 0                 @ ../User/cpu.c:0:3
	mov.w	r0, #256
	.loc	2 772 23 is_stmt 1              @ ../User/cpu.c:772:23
	str	r0, [sp, #4]
	mov.w	r0, #1114112
	.loc	2 773 24                        @ ../User/cpu.c:773:24
	str	r0, [sp, #8]
	movs	r0, #2
	.loc	2 774 24                        @ ../User/cpu.c:774:24
	str	r0, [sp, #12]
	.loc	2 775 3                         @ ../User/cpu.c:775:3
	mov	r0, r7
	mov	r1, r5
	bl	HAL_GPIO_Init
.Ltmp28:
	.loc	2 778 23                        @ ../User/cpu.c:778:23
	mov.w	r0, #4096
	str	r0, [sp, #4]
	movs	r0, #1
	.loc	2 779 24                        @ ../User/cpu.c:779:24
	strd	r0, r0, [sp, #8]
	mov.w	r10, #3
	.loc	2 782 3                         @ ../User/cpu.c:782:3
	mov	r0, r8
	movw	r8, #1024
	mov	r1, r5
	movs	r7, #1
	.loc	2 781 25                        @ ../User/cpu.c:781:25
	str.w	r10, [sp, #16]
	movt	r8, #16384
	.loc	2 782 3                         @ ../User/cpu.c:782:3
	bl	HAL_GPIO_Init
.Ltmp29:
	.loc	2 785 23                        @ ../User/cpu.c:785:23
	mov.w	r0, #8192
	strd	r0, r7, [sp, #4]
	.loc	2 789 3                         @ ../User/cpu.c:789:3
	mov	r0, r11
	mov	r1, r5
	.loc	2 787 24                        @ ../User/cpu.c:787:24
	strd	r4, r4, [sp, #12]
	.loc	2 789 3                         @ ../User/cpu.c:789:3
	bl	HAL_GPIO_Init
.Ltmp30:
	.loc	2 792 23                        @ ../User/cpu.c:792:23
	mov.w	r0, #768
	strd	r0, r7, [sp, #4]
	.loc	2 796 3                         @ ../User/cpu.c:796:3
	mov	r0, r6
	mov	r1, r5
	.loc	2 794 24                        @ ../User/cpu.c:794:24
	strd	r4, r10, [sp, #12]
	.loc	2 796 3                         @ ../User/cpu.c:796:3
	bl	HAL_GPIO_Init
.Ltmp31:
	.loc	2 0 3 is_stmt 0                 @ ../User/cpu.c:0:3
	movs	r0, #140
	.loc	2 799 23 is_stmt 1              @ ../User/cpu.c:799:23
	strd	r0, r4, [sp, #4]
	.loc	2 802 3                         @ ../User/cpu.c:802:3
	mov	r0, r11
	movw	r11, #8448
	mov	r1, r5
	.loc	2 801 24                        @ ../User/cpu.c:801:24
	str	r4, [sp, #12]
	movt	r11, #16385
	.loc	2 802 3                         @ ../User/cpu.c:802:3
	bl	HAL_GPIO_Init
.Ltmp32:
	.loc	2 0 3 is_stmt 0                 @ ../User/cpu.c:0:3
	mov.w	r0, #25600
	.loc	2 805 23 is_stmt 1              @ ../User/cpu.c:805:23
	strd	r0, r4, [sp, #4]
	.loc	2 808 3                         @ ../User/cpu.c:808:3
	add.w	r0, r11, #63232
	mov	r1, r5
	.loc	2 807 24                        @ ../User/cpu.c:807:24
	str	r4, [sp, #12]
	movs	r5, #1
	.loc	2 808 3                         @ ../User/cpu.c:808:3
	bl	HAL_GPIO_Init
.Ltmp33:
	.loc	2 691 3                         @ ../User/cpu.c:691:3
	str	r4, [sp, #4]
	ldr.w	r0, [r9]
.Ltmp34:
	.loc	2 695 3                         @ ../User/cpu.c:695:3
	movs	r1, #0
.Ltmp35:
	.loc	2 691 3                         @ ../User/cpu.c:691:3
	orr	r0, r0, #4194304
	str.w	r0, [r9]
	ldr.w	r0, [r9]
.Ltmp36:
	.loc	2 695 3                         @ ../User/cpu.c:695:3
	movs	r2, #0
.Ltmp37:
	.loc	2 691 3                         @ ../User/cpu.c:691:3
	and	r0, r0, #4194304
	str	r0, [sp, #4]
	ldr	r0, [sp, #4]
.Ltmp38:
	.loc	2 695 3                         @ ../User/cpu.c:695:3
	movs	r0, #56
	bl	HAL_NVIC_SetPriority
.Ltmp39:
	.loc	2 696 3                         @ ../User/cpu.c:696:3
	movs	r0, #56
	bl	HAL_NVIC_EnableIRQ
.Ltmp40:
	.loc	2 698 3                         @ ../User/cpu.c:698:3
	movs	r0, #58
	movs	r1, #0
	movs	r2, #0
	bl	HAL_NVIC_SetPriority
.Ltmp41:
	.loc	2 699 3                         @ ../User/cpu.c:699:3
	movs	r0, #58
	bl	HAL_NVIC_EnableIRQ
.Ltmp42:
	.loc	2 701 3                         @ ../User/cpu.c:701:3
	movs	r0, #90
	movs	r1, #0
	movs	r2, #1
	bl	HAL_NVIC_SetPriority
.Ltmp43:
	.loc	2 702 3                         @ ../User/cpu.c:702:3
	movs	r0, #90
	bl	HAL_NVIC_EnableIRQ
.Ltmp44:
	.loc	2 134 18                        @ ../User/cpu.c:134:18
	movw	r0, :lower16:hadc1
	movt	r0, :upper16:hadc1
	mov.w	r3, #268435456
	mov.w	r6, #167772160
	add.w	r1, r8, #72704
	.loc	2 141 31                        @ ../User/cpu.c:141:31
	strd	r6, r3, [r0, #40]
	movs	r3, #5
	.loc	2 127 26                        @ ../User/cpu.c:127:26
	str	r4, [sp, #16]
	mov.w	r2, #65536
	.loc	2 138 33                        @ ../User/cpu.c:138:33
	strb	r4, [r0, #24]
	.loc	2 139 36                        @ ../User/cpu.c:139:36
	strb.w	r4, [r0, #32]
	.loc	2 143 30                        @ ../User/cpu.c:143:30
	str	r3, [r0, #28]
	.loc	2 144 36                        @ ../User/cpu.c:144:36
	strb.w	r5, [r0, #48]
	.loc	2 134 18                        @ ../User/cpu.c:134:18
	stm.w	r0, {r1, r2, r4}
	.loc	2 142 24                        @ ../User/cpu.c:142:24
	strd	r4, r5, [r0, #12]
	.loc	2 145 27                        @ ../User/cpu.c:145:27
	str	r5, [r0, #20]
.Ltmp45:
	.loc	2 146 7                         @ ../User/cpu.c:146:7
	bl	HAL_ADC_Init
.Ltmp46:
	.loc	2 146 7 is_stmt 0               @ ../User/cpu.c:146:7
	cbz	r0, .LBB0_3
@ %bb.1:
.Ltmp47:
	.loc	2 819 3 is_stmt 1               @ ../User/cpu.c:819:3
	@APP
	mrs	r0, primask
	cpsid i

	@NO_APP
	.p2align	2
.LBB0_2:                                @ =>This Inner Loop Header: Depth=1
	.loc	2 820 3                         @ ../User/cpu.c:820:3
	b	.LBB0_2
.Ltmp48:
.LBB0_3:
	.loc	2 155 7                         @ ../User/cpu.c:155:7
	movw	r0, :lower16:hadc1
	movt	r0, :upper16:hadc1
	add	r1, sp, #4
.Ltmp49:
	.loc	2 152 19                        @ ../User/cpu.c:152:19
	strd	r10, r5, [sp, #4]
	.loc	2 154 24                        @ ../User/cpu.c:154:24
	str	r4, [sp, #12]
.Ltmp50:
	.loc	2 155 7                         @ ../User/cpu.c:155:7
	bl	HAL_ADC_ConfigChannel
.Ltmp51:
	.loc	2 155 7 is_stmt 0               @ ../User/cpu.c:155:7
	cbz	r0, .LBB0_6
@ %bb.4:
.Ltmp52:
	.loc	2 819 3 is_stmt 1               @ ../User/cpu.c:819:3
	@APP
	mrs	r0, primask
	cpsid i

	@NO_APP
	.p2align	2
.LBB0_5:                                @ =>This Inner Loop Header: Depth=1
	.loc	2 820 3                         @ ../User/cpu.c:820:3
	b	.LBB0_5
.Ltmp53:
.LBB0_6:
	.loc	2 0 3 is_stmt 0                 @ ../User/cpu.c:0:3
	movs	r0, #4
	.loc	2 161 19 is_stmt 1              @ ../User/cpu.c:161:19
	str	r0, [sp, #4]
	movs	r0, #2
	.loc	2 162 16                        @ ../User/cpu.c:162:16
	str	r0, [sp, #8]
.Ltmp54:
	.loc	2 163 7                         @ ../User/cpu.c:163:7
	movw	r0, :lower16:hadc1
	movt	r0, :upper16:hadc1
	add	r1, sp, #4
	bl	HAL_ADC_ConfigChannel
.Ltmp55:
	.loc	2 163 7 is_stmt 0               @ ../User/cpu.c:163:7
	cbz	r0, .LBB0_9
@ %bb.7:
.Ltmp56:
	.loc	2 819 3 is_stmt 1               @ ../User/cpu.c:819:3
	@APP
	mrs	r0, primask
	cpsid i

	@NO_APP
	.p2align	2
.LBB0_8:                                @ =>This Inner Loop Header: Depth=1
	.loc	2 820 3                         @ ../User/cpu.c:820:3
	b	.LBB0_8
.Ltmp57:
.LBB0_9:
	.loc	2 0 3 is_stmt 0                 @ ../User/cpu.c:0:3
	movs	r0, #5
	.loc	2 169 19 is_stmt 1              @ ../User/cpu.c:169:19
	str	r0, [sp, #4]
	movs	r0, #3
	.loc	2 170 16                        @ ../User/cpu.c:170:16
	str	r0, [sp, #8]
.Ltmp58:
	.loc	2 171 7                         @ ../User/cpu.c:171:7
	movw	r0, :lower16:hadc1
	movt	r0, :upper16:hadc1
	add	r1, sp, #4
	bl	HAL_ADC_ConfigChannel
.Ltmp59:
	.loc	2 171 7 is_stmt 0               @ ../User/cpu.c:171:7
	cbz	r0, .LBB0_12
@ %bb.10:
.Ltmp60:
	.loc	2 819 3 is_stmt 1               @ ../User/cpu.c:819:3
	@APP
	mrs	r0, primask
	cpsid i

	@NO_APP
	.p2align	2
.LBB0_11:                               @ =>This Inner Loop Header: Depth=1
	.loc	2 820 3                         @ ../User/cpu.c:820:3
	b	.LBB0_11
.Ltmp61:
.LBB0_12:
	.loc	2 0 3 is_stmt 0                 @ ../User/cpu.c:0:3
	movs	r0, #6
	.loc	2 177 19 is_stmt 1              @ ../User/cpu.c:177:19
	str	r0, [sp, #4]
	movs	r0, #4
	.loc	2 178 16                        @ ../User/cpu.c:178:16
	str	r0, [sp, #8]
.Ltmp62:
	.loc	2 179 7                         @ ../User/cpu.c:179:7
	movw	r0, :lower16:hadc1
	movt	r0, :upper16:hadc1
	add	r1, sp, #4
	bl	HAL_ADC_ConfigChannel
.Ltmp63:
	.loc	2 179 7 is_stmt 0               @ ../User/cpu.c:179:7
	cbz	r0, .LBB0_15
@ %bb.13:
.Ltmp64:
	.loc	2 819 3 is_stmt 1               @ ../User/cpu.c:819:3
	@APP
	mrs	r0, primask
	cpsid i

	@NO_APP
	.p2align	2
.LBB0_14:                               @ =>This Inner Loop Header: Depth=1
	.loc	2 820 3                         @ ../User/cpu.c:820:3
	b	.LBB0_14
.Ltmp65:
.LBB0_15:
	.loc	2 0 3 is_stmt 0                 @ ../User/cpu.c:0:3
	movs	r0, #7
	.loc	2 185 19 is_stmt 1              @ ../User/cpu.c:185:19
	str	r0, [sp, #4]
.Ltmp66:
	.loc	2 187 7                         @ ../User/cpu.c:187:7
	movw	r0, :lower16:hadc1
	movs	r5, #5
	movt	r0, :upper16:hadc1
	add	r1, sp, #4
.Ltmp67:
	.loc	2 186 16                        @ ../User/cpu.c:186:16
	str	r5, [sp, #8]
.Ltmp68:
	.loc	2 187 7                         @ ../User/cpu.c:187:7
	bl	HAL_ADC_ConfigChannel
.Ltmp69:
	.loc	2 187 7 is_stmt 0               @ ../User/cpu.c:187:7
	cbz	r0, .LBB0_18
@ %bb.16:
.Ltmp70:
	.loc	2 819 3 is_stmt 1               @ ../User/cpu.c:819:3
	@APP
	mrs	r0, primask
	cpsid i

	@NO_APP
	.p2align	2
.LBB0_17:                               @ =>This Inner Loop Header: Depth=1
	.loc	2 820 3                         @ ../User/cpu.c:820:3
	b	.LBB0_17
.Ltmp71:
.LBB0_18:
	.loc	2 216 18                        @ ../User/cpu.c:216:18
	movw	r0, :lower16:hadc2
	movs	r4, #0
	movt	r0, :upper16:hadc2
	mov.w	r1, #65536
	movs	r6, #1
	mov.w	r2, #268435456
	mov.w	r3, #167772160
	.loc	2 209 26                        @ ../User/cpu.c:209:26
	str	r4, [sp, #16]
	.loc	2 220 33                        @ ../User/cpu.c:220:33
	strb	r4, [r0, #24]
	.loc	2 221 36                        @ ../User/cpu.c:221:36
	strb.w	r4, [r0, #32]
	.loc	2 223 31                        @ ../User/cpu.c:223:31
	strd	r3, r2, [r0, #40]
	.loc	2 225 30                        @ ../User/cpu.c:225:30
	str	r5, [r0, #28]
	.loc	2 226 36                        @ ../User/cpu.c:226:36
	strb.w	r6, [r0, #48]
	.loc	2 216 18                        @ ../User/cpu.c:216:18
	strd	r11, r1, [r0]
	.loc	2 218 25                        @ ../User/cpu.c:218:25
	strd	r4, r4, [r0, #8]
	.loc	2 219 27                        @ ../User/cpu.c:219:27
	strd	r6, r6, [r0, #16]
.Ltmp72:
	.loc	2 228 7                         @ ../User/cpu.c:228:7
	bl	HAL_ADC_Init
.Ltmp73:
	.loc	2 228 7 is_stmt 0               @ ../User/cpu.c:228:7
	cbz	r0, .LBB0_21
@ %bb.19:
.Ltmp74:
	.loc	2 819 3 is_stmt 1               @ ../User/cpu.c:819:3
	@APP
	mrs	r0, primask
	cpsid i

	@NO_APP
	.p2align	2
.LBB0_20:                               @ =>This Inner Loop Header: Depth=1
	.loc	2 820 3                         @ ../User/cpu.c:820:3
	b	.LBB0_20
.Ltmp75:
.LBB0_21:
	.loc	2 237 7                         @ ../User/cpu.c:237:7
	movw	r0, :lower16:hadc2
	movt	r0, :upper16:hadc2
	add	r1, sp, #4
.Ltmp76:
	.loc	2 234 19                        @ ../User/cpu.c:234:19
	strd	r6, r6, [sp, #4]
	.loc	2 236 24                        @ ../User/cpu.c:236:24
	str	r4, [sp, #12]
.Ltmp77:
	.loc	2 237 7                         @ ../User/cpu.c:237:7
	bl	HAL_ADC_ConfigChannel
.Ltmp78:
	.loc	2 237 7 is_stmt 0               @ ../User/cpu.c:237:7
	cbz	r0, .LBB0_24
@ %bb.22:
.Ltmp79:
	.loc	2 819 3 is_stmt 1               @ ../User/cpu.c:819:3
	@APP
	mrs	r0, primask
	cpsid i

	@NO_APP
	.p2align	2
.LBB0_23:                               @ =>This Inner Loop Header: Depth=1
	.loc	2 820 3                         @ ../User/cpu.c:820:3
	b	.LBB0_23
.Ltmp80:
.LBB0_24:
	.loc	2 0 3 is_stmt 0                 @ ../User/cpu.c:0:3
	movs	r0, #2
	.loc	2 243 19 is_stmt 1              @ ../User/cpu.c:243:19
	strd	r0, r0, [sp, #4]
.Ltmp81:
	.loc	2 245 7                         @ ../User/cpu.c:245:7
	movw	r0, :lower16:hadc2
	movt	r0, :upper16:hadc2
	add	r1, sp, #4
	bl	HAL_ADC_ConfigChannel
.Ltmp82:
	.loc	2 245 7 is_stmt 0               @ ../User/cpu.c:245:7
	cbz	r0, .LBB0_27
@ %bb.25:
.Ltmp83:
	.loc	2 819 3 is_stmt 1               @ ../User/cpu.c:819:3
	@APP
	mrs	r0, primask
	cpsid i

	@NO_APP
	.p2align	2
.LBB0_26:                               @ =>This Inner Loop Header: Depth=1
	.loc	2 820 3                         @ ../User/cpu.c:820:3
	b	.LBB0_26
.Ltmp84:
.LBB0_27:
	.loc	2 0 3 is_stmt 0                 @ ../User/cpu.c:0:3
	movs	r0, #8
	.loc	2 251 19 is_stmt 1              @ ../User/cpu.c:251:19
	str	r0, [sp, #4]
	movs	r0, #3
	.loc	2 252 16                        @ ../User/cpu.c:252:16
	str	r0, [sp, #8]
.Ltmp85:
	.loc	2 253 7                         @ ../User/cpu.c:253:7
	movw	r0, :lower16:hadc2
	movt	r0, :upper16:hadc2
	add	r1, sp, #4
	bl	HAL_ADC_ConfigChannel
.Ltmp86:
	.loc	2 253 7 is_stmt 0               @ ../User/cpu.c:253:7
	cbz	r0, .LBB0_30
@ %bb.28:
.Ltmp87:
	.loc	2 819 3 is_stmt 1               @ ../User/cpu.c:819:3
	@APP
	mrs	r0, primask
	cpsid i

	@NO_APP
	.p2align	2
.LBB0_29:                               @ =>This Inner Loop Header: Depth=1
	.loc	2 820 3                         @ ../User/cpu.c:820:3
	b	.LBB0_29
.Ltmp88:
.LBB0_30:
	.loc	2 0 3 is_stmt 0                 @ ../User/cpu.c:0:3
	movs	r0, #9
	.loc	2 259 19 is_stmt 1              @ ../User/cpu.c:259:19
	str	r0, [sp, #4]
	movs	r0, #4
	.loc	2 260 16                        @ ../User/cpu.c:260:16
	str	r0, [sp, #8]
.Ltmp89:
	.loc	2 261 7                         @ ../User/cpu.c:261:7
	movw	r0, :lower16:hadc2
	movt	r0, :upper16:hadc2
	add	r1, sp, #4
	mov	r5, r11
	mov	r6, r8
	bl	HAL_ADC_ConfigChannel
.Ltmp90:
	.loc	2 261 7 is_stmt 0               @ ../User/cpu.c:261:7
	cbz	r0, .LBB0_33
@ %bb.31:
.Ltmp91:
	.loc	2 819 3 is_stmt 1               @ ../User/cpu.c:819:3
	@APP
	mrs	r0, primask
	cpsid i

	@NO_APP
.LBB0_32:                               @ =>This Inner Loop Header: Depth=1
	.loc	2 820 3                         @ ../User/cpu.c:820:3
	b	.LBB0_32
.Ltmp92:
.LBB0_33:
	.loc	2 0 3 is_stmt 0                 @ ../User/cpu.c:0:3
	movs	r0, #11
	.loc	2 267 19 is_stmt 1              @ ../User/cpu.c:267:19
	str	r0, [sp, #4]
	movs	r0, #5
	.loc	2 268 16                        @ ../User/cpu.c:268:16
	str	r0, [sp, #8]
.Ltmp93:
	.loc	2 269 7                         @ ../User/cpu.c:269:7
	movw	r0, :lower16:hadc2
	movt	r0, :upper16:hadc2
	add	r1, sp, #4
	bl	HAL_ADC_ConfigChannel
.Ltmp94:
	.loc	2 269 7 is_stmt 0               @ ../User/cpu.c:269:7
	cbz	r0, .LBB0_36
@ %bb.34:
.Ltmp95:
	.loc	2 819 3 is_stmt 1               @ ../User/cpu.c:819:3
	@APP
	mrs	r0, primask
	cpsid i

	@NO_APP
.LBB0_35:                               @ =>This Inner Loop Header: Depth=1
	.loc	2 820 3                         @ ../User/cpu.c:820:3
	b	.LBB0_35
.Ltmp96:
.LBB0_36:
	.loc	2 295 18                        @ ../User/cpu.c:295:18
	movw	r0, :lower16:hspi2
	add.w	r1, r6, #13312
	movt	r0, :upper16:hspi2
	mov.w	r2, #260
	movs	r4, #0
	mov.w	r3, #512
	movs	r7, #8
	stm.w	r0, {r1, r2, r4}
	movs	r1, #10
	.loc	2 298 23                        @ ../User/cpu.c:298:23
	strd	r4, r4, [r0, #12]
	strd	r4, r3, [r0, #20]
	.loc	2 302 32                        @ ../User/cpu.c:302:32
	str	r7, [r0, #28]
	.loc	2 303 23                        @ ../User/cpu.c:303:23
	strd	r4, r4, [r0, #32]
	.loc	2 305 29                        @ ../User/cpu.c:305:29
	strd	r4, r1, [r0, #40]
.Ltmp97:
	.loc	2 307 7                         @ ../User/cpu.c:307:7
	bl	HAL_SPI_Init
.Ltmp98:
	.loc	2 307 7 is_stmt 0               @ ../User/cpu.c:307:7
	cbz	r0, .LBB0_39
@ %bb.37:
.Ltmp99:
	.loc	2 819 3 is_stmt 1               @ ../User/cpu.c:819:3
	@APP
	mrs	r0, primask
	cpsid i

	@NO_APP
.LBB0_38:                               @ =>This Inner Loop Header: Depth=1
	.loc	2 820 3                         @ ../User/cpu.c:820:3
	b	.LBB0_38
.Ltmp100:
.LBB0_39:
	.loc	2 0 3 is_stmt 0                 @ ../User/cpu.c:0:3
	add	r0, sp, #4
.Ltmp101:
	.loc	2 331 22 is_stmt 1              @ ../User/cpu.c:331:22
	movs	r1, #28
	.loc	2 329 26                        @ ../User/cpu.c:329:26
	str	r4, [sp, #56]
	strd	r4, r4, [sp, #48]
	.loc	2 330 27                        @ ../User/cpu.c:330:27
	strd	r4, r4, [sp, #32]
	.loc	2 331 22                        @ ../User/cpu.c:331:22
	bl	__aeabi_memclr4
.Ltmp102:
	.loc	2 336 18                        @ ../User/cpu.c:336:18
	movw	r0, :lower16:htim2
	movt	r0, :upper16:htim2
	mov.w	r1, #1073741824
	mov.w	r2, #-1
	strd	r1, r4, [r0]
	.loc	2 338 26                        @ ../User/cpu.c:338:26
	strd	r4, r2, [r0, #8]
	.loc	2 340 28                        @ ../User/cpu.c:340:28
	str	r4, [r0, #16]
	.loc	2 341 32                        @ ../User/cpu.c:341:32
	str	r4, [r0, #24]
.Ltmp103:
	.loc	2 342 7                         @ ../User/cpu.c:342:7
	bl	HAL_TIM_Base_Init
.Ltmp104:
	.loc	2 342 7 is_stmt 0               @ ../User/cpu.c:342:7
	cbz	r0, .LBB0_42
@ %bb.40:
.Ltmp105:
	.loc	2 819 3 is_stmt 1               @ ../User/cpu.c:819:3
	@APP
	mrs	r0, primask
	cpsid i

	@NO_APP
.LBB0_41:                               @ =>This Inner Loop Header: Depth=1
	.loc	2 820 3                         @ ../User/cpu.c:820:3
	b	.LBB0_41
.Ltmp106:
.LBB0_42:
	.loc	2 0 3 is_stmt 0                 @ ../User/cpu.c:0:3
	mov.w	r0, #4096
	.loc	2 346 34 is_stmt 1              @ ../User/cpu.c:346:34
	str	r0, [sp, #44]
.Ltmp107:
	.loc	2 347 7                         @ ../User/cpu.c:347:7
	movw	r0, :lower16:htim2
	movt	r0, :upper16:htim2
	add	r1, sp, #44
	bl	HAL_TIM_ConfigClockSource
.Ltmp108:
	.loc	2 347 7 is_stmt 0               @ ../User/cpu.c:347:7
	cbz	r0, .LBB0_45
@ %bb.43:
.Ltmp109:
	.loc	2 819 3 is_stmt 1               @ ../User/cpu.c:819:3
	@APP
	mrs	r0, primask
	cpsid i

	@NO_APP
.LBB0_44:                               @ =>This Inner Loop Header: Depth=1
	.loc	2 820 3                         @ ../User/cpu.c:820:3
	b	.LBB0_44
.Ltmp110:
.LBB0_45:
	.loc	2 351 7                         @ ../User/cpu.c:351:7
	movw	r0, :lower16:htim2
	movt	r0, :upper16:htim2
	bl	HAL_TIM_PWM_Init
.Ltmp111:
	.loc	2 351 7 is_stmt 0               @ ../User/cpu.c:351:7
	cbz	r0, .LBB0_48
@ %bb.46:
.Ltmp112:
	.loc	2 819 3 is_stmt 1               @ ../User/cpu.c:819:3
	@APP
	mrs	r0, primask
	cpsid i

	@NO_APP
.LBB0_47:                               @ =>This Inner Loop Header: Depth=1
	.loc	2 820 3                         @ ../User/cpu.c:820:3
	b	.LBB0_47
.Ltmp113:
.LBB0_48:
	.loc	2 357 7                         @ ../User/cpu.c:357:7
	movw	r0, :lower16:htim2
	movs	r4, #0
	movt	r0, :upper16:htim2
	add	r1, sp, #32
.Ltmp114:
	.loc	2 355 37                        @ ../User/cpu.c:355:37
	strd	r4, r4, [sp, #32]
.Ltmp115:
	.loc	2 357 7                         @ ../User/cpu.c:357:7
	bl	HAL_TIMEx_MasterConfigSynchronization
.Ltmp116:
	.loc	2 357 7 is_stmt 0               @ ../User/cpu.c:357:7
	cbz	r0, .LBB0_51
@ %bb.49:
.Ltmp117:
	.loc	2 819 3 is_stmt 1               @ ../User/cpu.c:819:3
	@APP
	mrs	r0, primask
	cpsid i

	@NO_APP
.LBB0_50:                               @ =>This Inner Loop Header: Depth=1
	.loc	2 820 3                         @ ../User/cpu.c:820:3
	b	.LBB0_50
.Ltmp118:
.LBB0_51:
	.loc	2 0 3 is_stmt 0                 @ ../User/cpu.c:0:3
	movs	r0, #96
	.loc	2 361 20 is_stmt 1              @ ../User/cpu.c:361:20
	strd	r0, r4, [sp, #4]
.Ltmp119:
	.loc	2 365 7                         @ ../User/cpu.c:365:7
	movw	r0, :lower16:htim2
	movt	r0, :upper16:htim2
	add	r1, sp, #4
	movs	r2, #0
.Ltmp120:
	.loc	2 363 24                        @ ../User/cpu.c:363:24
	str	r4, [sp, #12]
	.loc	2 364 24                        @ ../User/cpu.c:364:24
	str	r4, [sp, #20]
.Ltmp121:
	.loc	2 365 7                         @ ../User/cpu.c:365:7
	bl	HAL_TIM_PWM_ConfigChannel
.Ltmp122:
	.loc	2 365 7 is_stmt 0               @ ../User/cpu.c:365:7
	cbz	r0, .LBB0_54
@ %bb.52:
.Ltmp123:
	.loc	2 819 3 is_stmt 1               @ ../User/cpu.c:819:3
	@APP
	mrs	r0, primask
	cpsid i

	@NO_APP
.LBB0_53:                               @ =>This Inner Loop Header: Depth=1
	.loc	2 820 3                         @ ../User/cpu.c:820:3
	b	.LBB0_53
.Ltmp124:
.LBB0_54:
	.loc	2 369 7                         @ ../User/cpu.c:369:7
	movw	r0, :lower16:htim2
	movt	r0, :upper16:htim2
	add	r1, sp, #4
	movs	r2, #4
	bl	HAL_TIM_PWM_ConfigChannel
.Ltmp125:
	.loc	2 369 7 is_stmt 0               @ ../User/cpu.c:369:7
	cbz	r0, .LBB0_57
@ %bb.55:
.Ltmp126:
	.loc	2 819 3 is_stmt 1               @ ../User/cpu.c:819:3
	@APP
	mrs	r0, primask
	cpsid i

	@NO_APP
.LBB0_56:                               @ =>This Inner Loop Header: Depth=1
	.loc	2 820 3                         @ ../User/cpu.c:820:3
	b	.LBB0_56
.Ltmp127:
.LBB0_57:
	.loc	2 373 7                         @ ../User/cpu.c:373:7
	movw	r0, :lower16:htim2
	movt	r0, :upper16:htim2
	add	r1, sp, #4
	movs	r2, #8
	bl	HAL_TIM_PWM_ConfigChannel
.Ltmp128:
	.loc	2 373 7 is_stmt 0               @ ../User/cpu.c:373:7
	cbz	r0, .LBB0_60
@ %bb.58:
.Ltmp129:
	.loc	2 819 3 is_stmt 1               @ ../User/cpu.c:819:3
	@APP
	mrs	r0, primask
	cpsid i

	@NO_APP
.LBB0_59:                               @ =>This Inner Loop Header: Depth=1
	.loc	2 820 3                         @ ../User/cpu.c:820:3
	b	.LBB0_59
.Ltmp130:
.LBB0_60:
	.loc	2 377 7                         @ ../User/cpu.c:377:7
	movw	r0, :lower16:htim2
	movt	r0, :upper16:htim2
	add	r1, sp, #4
	movs	r2, #12
	bl	HAL_TIM_PWM_ConfigChannel
.Ltmp131:
	.loc	2 377 7 is_stmt 0               @ ../User/cpu.c:377:7
	cbz	r0, .LBB0_63
@ %bb.61:
.Ltmp132:
	.loc	2 819 3 is_stmt 1               @ ../User/cpu.c:819:3
	@APP
	mrs	r0, primask
	cpsid i

	@NO_APP
.LBB0_62:                               @ =>This Inner Loop Header: Depth=1
	.loc	2 820 3                         @ ../User/cpu.c:820:3
	b	.LBB0_62
.Ltmp133:
.LBB0_63:
	.loc	2 0 3 is_stmt 0                 @ ../User/cpu.c:0:3
	movs	r4, #0
	add	r0, sp, #4
.Ltmp134:
	.loc	2 401 22 is_stmt 1              @ ../User/cpu.c:401:22
	movs	r1, #28
	.loc	2 399 26                        @ ../User/cpu.c:399:26
	str	r4, [sp, #56]
	strd	r4, r4, [sp, #48]
	.loc	2 400 27                        @ ../User/cpu.c:400:27
	strd	r4, r4, [sp, #32]
	.loc	2 401 22                        @ ../User/cpu.c:401:22
	bl	__aeabi_memclr4
.Ltmp135:
	.loc	2 406 18                        @ ../User/cpu.c:406:18
	movw	r0, :lower16:htim3
	movt	r0, :upper16:htim3
	movw	r1, #65535
	strd	r6, r4, [r0]
	.loc	2 408 26                        @ ../User/cpu.c:408:26
	strd	r4, r1, [r0, #8]
	.loc	2 410 28                        @ ../User/cpu.c:410:28
	str	r4, [r0, #16]
	.loc	2 411 32                        @ ../User/cpu.c:411:32
	str	r4, [r0, #24]
.Ltmp136:
	.loc	2 412 7                         @ ../User/cpu.c:412:7
	bl	HAL_TIM_Base_Init
.Ltmp137:
	.loc	2 412 7 is_stmt 0               @ ../User/cpu.c:412:7
	cbz	r0, .LBB0_66
@ %bb.64:
.Ltmp138:
	.loc	2 819 3 is_stmt 1               @ ../User/cpu.c:819:3
	@APP
	mrs	r0, primask
	cpsid i

	@NO_APP
.LBB0_65:                               @ =>This Inner Loop Header: Depth=1
	.loc	2 820 3                         @ ../User/cpu.c:820:3
	b	.LBB0_65
.Ltmp139:
.LBB0_66:
	.loc	2 0 3 is_stmt 0                 @ ../User/cpu.c:0:3
	mov.w	r0, #4096
	.loc	2 416 34 is_stmt 1              @ ../User/cpu.c:416:34
	str	r0, [sp, #44]
.Ltmp140:
	.loc	2 417 7                         @ ../User/cpu.c:417:7
	movw	r0, :lower16:htim3
	movt	r0, :upper16:htim3
	add	r1, sp, #44
	bl	HAL_TIM_ConfigClockSource
.Ltmp141:
	.loc	2 417 7 is_stmt 0               @ ../User/cpu.c:417:7
	cbz	r0, .LBB0_69
@ %bb.67:
.Ltmp142:
	.loc	2 819 3 is_stmt 1               @ ../User/cpu.c:819:3
	@APP
	mrs	r0, primask
	cpsid i

	@NO_APP
.LBB0_68:                               @ =>This Inner Loop Header: Depth=1
	.loc	2 820 3                         @ ../User/cpu.c:820:3
	b	.LBB0_68
.Ltmp143:
.LBB0_69:
	.loc	2 421 7                         @ ../User/cpu.c:421:7
	movw	r0, :lower16:htim3
	movt	r0, :upper16:htim3
	bl	HAL_TIM_PWM_Init
.Ltmp144:
	.loc	2 421 7 is_stmt 0               @ ../User/cpu.c:421:7
	cbz	r0, .LBB0_72
@ %bb.70:
.Ltmp145:
	.loc	2 819 3 is_stmt 1               @ ../User/cpu.c:819:3
	@APP
	mrs	r0, primask
	cpsid i

	@NO_APP
.LBB0_71:                               @ =>This Inner Loop Header: Depth=1
	.loc	2 820 3                         @ ../User/cpu.c:820:3
	b	.LBB0_71
.Ltmp146:
.LBB0_72:
	.loc	2 427 7                         @ ../User/cpu.c:427:7
	movw	r0, :lower16:htim3
	movs	r4, #0
	movt	r0, :upper16:htim3
	add	r1, sp, #32
.Ltmp147:
	.loc	2 425 37                        @ ../User/cpu.c:425:37
	strd	r4, r4, [sp, #32]
.Ltmp148:
	.loc	2 427 7                         @ ../User/cpu.c:427:7
	bl	HAL_TIMEx_MasterConfigSynchronization
.Ltmp149:
	.loc	2 427 7 is_stmt 0               @ ../User/cpu.c:427:7
	cbz	r0, .LBB0_75
@ %bb.73:
.Ltmp150:
	.loc	2 819 3 is_stmt 1               @ ../User/cpu.c:819:3
	@APP
	mrs	r0, primask
	cpsid i

	@NO_APP
.LBB0_74:                               @ =>This Inner Loop Header: Depth=1
	.loc	2 820 3                         @ ../User/cpu.c:820:3
	b	.LBB0_74
.Ltmp151:
.LBB0_75:
	.loc	2 0 3 is_stmt 0                 @ ../User/cpu.c:0:3
	movs	r0, #96
	.loc	2 431 20 is_stmt 1              @ ../User/cpu.c:431:20
	strd	r0, r4, [sp, #4]
.Ltmp152:
	.loc	2 435 7                         @ ../User/cpu.c:435:7
	movw	r0, :lower16:htim3
	movt	r0, :upper16:htim3
	add	r1, sp, #4
	movs	r2, #0
.Ltmp153:
	.loc	2 433 24                        @ ../User/cpu.c:433:24
	str	r4, [sp, #12]
	.loc	2 434 24                        @ ../User/cpu.c:434:24
	str	r4, [sp, #20]
.Ltmp154:
	.loc	2 435 7                         @ ../User/cpu.c:435:7
	bl	HAL_TIM_PWM_ConfigChannel
.Ltmp155:
	.loc	2 435 7 is_stmt 0               @ ../User/cpu.c:435:7
	cbz	r0, .LBB0_78
@ %bb.76:
.Ltmp156:
	.loc	2 819 3 is_stmt 1               @ ../User/cpu.c:819:3
	@APP
	mrs	r0, primask
	cpsid i

	@NO_APP
.LBB0_77:                               @ =>This Inner Loop Header: Depth=1
	.loc	2 820 3                         @ ../User/cpu.c:820:3
	b	.LBB0_77
.Ltmp157:
.LBB0_78:
	.loc	2 0 3 is_stmt 0                 @ ../User/cpu.c:0:3
	movs	r4, #0
	add	r0, sp, #4
.Ltmp158:
	.loc	2 459 22 is_stmt 1              @ ../User/cpu.c:459:22
	movs	r1, #28
	.loc	2 457 26                        @ ../User/cpu.c:457:26
	str	r4, [sp, #56]
	strd	r4, r4, [sp, #48]
	.loc	2 458 27                        @ ../User/cpu.c:458:27
	strd	r4, r4, [sp, #32]
	.loc	2 459 22                        @ ../User/cpu.c:459:22
	bl	__aeabi_memclr4
.Ltmp159:
	.loc	2 464 18                        @ ../User/cpu.c:464:18
	movw	r0, :lower16:htim4
	add.w	r1, r6, #1024
	movt	r0, :upper16:htim4
	movw	r2, #65535
	strd	r1, r4, [r0]
	.loc	2 466 26                        @ ../User/cpu.c:466:26
	strd	r4, r2, [r0, #8]
	.loc	2 468 28                        @ ../User/cpu.c:468:28
	str	r4, [r0, #16]
	.loc	2 469 32                        @ ../User/cpu.c:469:32
	str	r4, [r0, #24]
.Ltmp160:
	.loc	2 470 7                         @ ../User/cpu.c:470:7
	bl	HAL_TIM_Base_Init
.Ltmp161:
	.loc	2 470 7 is_stmt 0               @ ../User/cpu.c:470:7
	cbz	r0, .LBB0_81
@ %bb.79:
.Ltmp162:
	.loc	2 819 3 is_stmt 1               @ ../User/cpu.c:819:3
	@APP
	mrs	r0, primask
	cpsid i

	@NO_APP
.LBB0_80:                               @ =>This Inner Loop Header: Depth=1
	.loc	2 820 3                         @ ../User/cpu.c:820:3
	b	.LBB0_80
.Ltmp163:
.LBB0_81:
	.loc	2 0 3 is_stmt 0                 @ ../User/cpu.c:0:3
	mov.w	r0, #4096
	.loc	2 474 34 is_stmt 1              @ ../User/cpu.c:474:34
	str	r0, [sp, #44]
.Ltmp164:
	.loc	2 475 7                         @ ../User/cpu.c:475:7
	movw	r0, :lower16:htim4
	movt	r0, :upper16:htim4
	add	r1, sp, #44
	bl	HAL_TIM_ConfigClockSource
.Ltmp165:
	.loc	2 475 7 is_stmt 0               @ ../User/cpu.c:475:7
	cbz	r0, .LBB0_84
@ %bb.82:
.Ltmp166:
	.loc	2 819 3 is_stmt 1               @ ../User/cpu.c:819:3
	@APP
	mrs	r0, primask
	cpsid i

	@NO_APP
.LBB0_83:                               @ =>This Inner Loop Header: Depth=1
	.loc	2 820 3                         @ ../User/cpu.c:820:3
	b	.LBB0_83
.Ltmp167:
.LBB0_84:
	.loc	2 479 7                         @ ../User/cpu.c:479:7
	movw	r0, :lower16:htim4
	movt	r0, :upper16:htim4
	bl	HAL_TIM_PWM_Init
.Ltmp168:
	.loc	2 479 7 is_stmt 0               @ ../User/cpu.c:479:7
	cbz	r0, .LBB0_87
@ %bb.85:
.Ltmp169:
	.loc	2 819 3 is_stmt 1               @ ../User/cpu.c:819:3
	@APP
	mrs	r0, primask
	cpsid i

	@NO_APP
.LBB0_86:                               @ =>This Inner Loop Header: Depth=1
	.loc	2 820 3                         @ ../User/cpu.c:820:3
	b	.LBB0_86
.Ltmp170:
.LBB0_87:
	.loc	2 485 7                         @ ../User/cpu.c:485:7
	movw	r0, :lower16:htim4
	movs	r4, #0
	movt	r0, :upper16:htim4
	add	r1, sp, #32
.Ltmp171:
	.loc	2 483 37                        @ ../User/cpu.c:483:37
	strd	r4, r4, [sp, #32]
.Ltmp172:
	.loc	2 485 7                         @ ../User/cpu.c:485:7
	bl	HAL_TIMEx_MasterConfigSynchronization
.Ltmp173:
	.loc	2 485 7 is_stmt 0               @ ../User/cpu.c:485:7
	cbz	r0, .LBB0_90
@ %bb.88:
.Ltmp174:
	.loc	2 819 3 is_stmt 1               @ ../User/cpu.c:819:3
	@APP
	mrs	r0, primask
	cpsid i

	@NO_APP
.LBB0_89:                               @ =>This Inner Loop Header: Depth=1
	.loc	2 820 3                         @ ../User/cpu.c:820:3
	b	.LBB0_89
.Ltmp175:
.LBB0_90:
	.loc	2 0 3 is_stmt 0                 @ ../User/cpu.c:0:3
	movs	r0, #96
	.loc	2 489 20 is_stmt 1              @ ../User/cpu.c:489:20
	strd	r0, r4, [sp, #4]
.Ltmp176:
	.loc	2 493 7                         @ ../User/cpu.c:493:7
	movw	r0, :lower16:htim4
	movt	r0, :upper16:htim4
	add	r1, sp, #4
	movs	r2, #0
.Ltmp177:
	.loc	2 491 24                        @ ../User/cpu.c:491:24
	str	r4, [sp, #12]
	.loc	2 492 24                        @ ../User/cpu.c:492:24
	str	r4, [sp, #20]
.Ltmp178:
	.loc	2 493 7                         @ ../User/cpu.c:493:7
	bl	HAL_TIM_PWM_ConfigChannel
.Ltmp179:
	.loc	2 493 7 is_stmt 0               @ ../User/cpu.c:493:7
	cbz	r0, .LBB0_93
@ %bb.91:
.Ltmp180:
	.loc	2 819 3 is_stmt 1               @ ../User/cpu.c:819:3
	@APP
	mrs	r0, primask
	cpsid i

	@NO_APP
.LBB0_92:                               @ =>This Inner Loop Header: Depth=1
	.loc	2 820 3                         @ ../User/cpu.c:820:3
	b	.LBB0_92
.Ltmp181:
.LBB0_93:
	.loc	2 497 7                         @ ../User/cpu.c:497:7
	movw	r0, :lower16:htim4
	movt	r0, :upper16:htim4
	add	r1, sp, #4
	movs	r2, #4
	bl	HAL_TIM_PWM_ConfigChannel
.Ltmp182:
	.loc	2 497 7 is_stmt 0               @ ../User/cpu.c:497:7
	cbz	r0, .LBB0_96
@ %bb.94:
.Ltmp183:
	.loc	2 819 3 is_stmt 1               @ ../User/cpu.c:819:3
	@APP
	mrs	r0, primask
	cpsid i

	@NO_APP
.LBB0_95:                               @ =>This Inner Loop Header: Depth=1
	.loc	2 820 3                         @ ../User/cpu.c:820:3
	b	.LBB0_95
.Ltmp184:
.LBB0_96:
	.loc	2 501 7                         @ ../User/cpu.c:501:7
	movw	r0, :lower16:htim4
	movt	r0, :upper16:htim4
	add	r1, sp, #4
	movs	r2, #8
	bl	HAL_TIM_PWM_ConfigChannel
.Ltmp185:
	.loc	2 501 7 is_stmt 0               @ ../User/cpu.c:501:7
	cbz	r0, .LBB0_99
@ %bb.97:
.Ltmp186:
	.loc	2 819 3 is_stmt 1               @ ../User/cpu.c:819:3
	@APP
	mrs	r0, primask
	cpsid i

	@NO_APP
.LBB0_98:                               @ =>This Inner Loop Header: Depth=1
	.loc	2 820 3                         @ ../User/cpu.c:820:3
	b	.LBB0_98
.Ltmp187:
.LBB0_99:
	.loc	2 505 7                         @ ../User/cpu.c:505:7
	movw	r0, :lower16:htim4
	movt	r0, :upper16:htim4
	add	r1, sp, #4
	movs	r2, #12
	bl	HAL_TIM_PWM_ConfigChannel
.Ltmp188:
	.loc	2 505 7 is_stmt 0               @ ../User/cpu.c:505:7
	cbz	r0, .LBB0_102
@ %bb.100:
.Ltmp189:
	.loc	2 819 3 is_stmt 1               @ ../User/cpu.c:819:3
	@APP
	mrs	r0, primask
	cpsid i

	@NO_APP
.LBB0_101:                              @ =>This Inner Loop Header: Depth=1
	.loc	2 820 3                         @ ../User/cpu.c:820:3
	b	.LBB0_101
.Ltmp190:
.LBB0_102:
	.loc	2 590 18                        @ ../User/cpu.c:590:18
	movw	r0, :lower16:htim9
	movs	r4, #0
	add.w	r1, r5, #7936
	movt	r0, :upper16:htim9
	movw	r2, #65535
	.loc	2 585 22                        @ ../User/cpu.c:585:22
	strd	r4, r4, [sp, #24]
	strd	r4, r4, [sp, #16]
	.loc	2 590 18                        @ ../User/cpu.c:590:18
	strd	r1, r4, [r0]
	.loc	2 592 26                        @ ../User/cpu.c:592:26
	strd	r4, r2, [r0, #8]
	.loc	2 594 28                        @ ../User/cpu.c:594:28
	str	r4, [r0, #16]
	.loc	2 595 32                        @ ../User/cpu.c:595:32
	str	r4, [r0, #24]
.Ltmp191:
	.loc	2 596 7                         @ ../User/cpu.c:596:7
	bl	HAL_TIM_PWM_Init
.Ltmp192:
	.loc	2 596 7 is_stmt 0               @ ../User/cpu.c:596:7
	cbz	r0, .LBB0_105
@ %bb.103:
.Ltmp193:
	.loc	2 819 3 is_stmt 1               @ ../User/cpu.c:819:3
	@APP
	mrs	r0, primask
	cpsid i

	@NO_APP
.LBB0_104:                              @ =>This Inner Loop Header: Depth=1
	.loc	2 820 3                         @ ../User/cpu.c:820:3
	b	.LBB0_104
.Ltmp194:
.LBB0_105:
	.loc	2 0 3 is_stmt 0                 @ ../User/cpu.c:0:3
	movs	r0, #96
	.loc	2 600 20 is_stmt 1              @ ../User/cpu.c:600:20
	strd	r0, r4, [sp, #4]
.Ltmp195:
	.loc	2 604 7                         @ ../User/cpu.c:604:7
	movw	r0, :lower16:htim9
	movt	r0, :upper16:htim9
	add	r1, sp, #4
	movs	r2, #0
.Ltmp196:
	.loc	2 602 24                        @ ../User/cpu.c:602:24
	str	r4, [sp, #12]
	.loc	2 603 24                        @ ../User/cpu.c:603:24
	str	r4, [sp, #20]
.Ltmp197:
	.loc	2 604 7                         @ ../User/cpu.c:604:7
	bl	HAL_TIM_PWM_ConfigChannel
.Ltmp198:
	.loc	2 604 7 is_stmt 0               @ ../User/cpu.c:604:7
	cbz	r0, .LBB0_108
@ %bb.106:
.Ltmp199:
	.loc	2 819 3 is_stmt 1               @ ../User/cpu.c:819:3
	@APP
	mrs	r0, primask
	cpsid i

	@NO_APP
.LBB0_107:                              @ =>This Inner Loop Header: Depth=1
	.loc	2 820 3                         @ ../User/cpu.c:820:3
	b	.LBB0_107
.Ltmp200:
.LBB0_108:
	.loc	2 608 7                         @ ../User/cpu.c:608:7
	movw	r0, :lower16:htim9
	movt	r0, :upper16:htim9
	add	r1, sp, #4
	movs	r2, #4
	bl	HAL_TIM_PWM_ConfigChannel
.Ltmp201:
	.loc	2 608 7 is_stmt 0               @ ../User/cpu.c:608:7
	cbz	r0, .LBB0_111
@ %bb.109:
.Ltmp202:
	.loc	2 819 3 is_stmt 1               @ ../User/cpu.c:819:3
	@APP
	mrs	r0, primask
	cpsid i

	@NO_APP
.LBB0_110:                              @ =>This Inner Loop Header: Depth=1
	.loc	2 820 3                         @ ../User/cpu.c:820:3
	b	.LBB0_110
.Ltmp203:
.LBB0_111:
	.loc	2 633 19                        @ ../User/cpu.c:633:19
	movw	r0, :lower16:huart1
	add.w	r1, r6, #68608
	movt	r0, :upper16:huart1
	movs	r4, #0
	movs	r5, #12
	mov.w	r2, #256000
	stm.w	r0, {r1, r2, r4}
	.loc	2 636 24                        @ ../User/cpu.c:636:24
	strd	r4, r4, [r0, #12]
	.loc	2 638 20                        @ ../User/cpu.c:638:20
	strd	r5, r4, [r0, #20]
	.loc	2 640 28                        @ ../User/cpu.c:640:28
	str	r4, [r0, #28]
.Ltmp204:
	.loc	2 641 7                         @ ../User/cpu.c:641:7
	bl	HAL_UART_Init
.Ltmp205:
	.loc	2 641 7 is_stmt 0               @ ../User/cpu.c:641:7
	cbz	r0, .LBB0_114
@ %bb.112:
.Ltmp206:
	.loc	2 819 3 is_stmt 1               @ ../User/cpu.c:819:3
	@APP
	mrs	r0, primask
	cpsid i

	@NO_APP
.LBB0_113:                              @ =>This Inner Loop Header: Depth=1
	.loc	2 820 3                         @ ../User/cpu.c:820:3
	b	.LBB0_113
.Ltmp207:
.LBB0_114:
	.loc	2 666 19                        @ ../User/cpu.c:666:19
	movw	r0, :lower16:huart6
	add.w	r1, r6, #69632
	movt	r0, :upper16:huart6
	mov.w	r2, #115200
	stm.w	r0, {r1, r2, r4}
	.loc	2 669 24                        @ ../User/cpu.c:669:24
	strd	r4, r4, [r0, #12]
	.loc	2 671 20                        @ ../User/cpu.c:671:20
	strd	r5, r4, [r0, #20]
	.loc	2 673 28                        @ ../User/cpu.c:673:28
	str	r4, [r0, #28]
.Ltmp208:
	.loc	2 674 7                         @ ../User/cpu.c:674:7
	bl	HAL_UART_Init
.Ltmp209:
	.loc	2 674 7 is_stmt 0               @ ../User/cpu.c:674:7
	cbz	r0, .LBB0_117
@ %bb.115:
.Ltmp210:
	.loc	2 819 3 is_stmt 1               @ ../User/cpu.c:819:3
	@APP
	mrs	r0, primask
	cpsid i

	@NO_APP
.LBB0_116:                              @ =>This Inner Loop Header: Depth=1
	.loc	2 820 3                         @ ../User/cpu.c:820:3
	b	.LBB0_116
.Ltmp211:
.LBB0_117:
	.loc	2 0 3 is_stmt 0                 @ ../User/cpu.c:0:3
	movs	r4, #0
	add	r0, sp, #4
.Ltmp212:
	.loc	2 529 22 is_stmt 1              @ ../User/cpu.c:529:22
	movs	r1, #28
	.loc	2 527 26                        @ ../User/cpu.c:527:26
	str	r4, [sp, #56]
	strd	r4, r4, [sp, #48]
	.loc	2 528 27                        @ ../User/cpu.c:528:27
	strd	r4, r4, [sp, #32]
	.loc	2 529 22                        @ ../User/cpu.c:529:22
	bl	__aeabi_memclr4
.Ltmp213:
	.loc	2 534 18                        @ ../User/cpu.c:534:18
	movw	r0, :lower16:htim5
	add.w	r1, r6, #2048
	movt	r0, :upper16:htim5
	movs	r2, #79
	movs	r3, #49
	stm.w	r0, {r1, r2, r4}
	movs	r1, #128
	.loc	2 537 21                        @ ../User/cpu.c:537:21
	strd	r3, r4, [r0, #12]
	.loc	2 539 32                        @ ../User/cpu.c:539:32
	str	r1, [r0, #24]
.Ltmp214:
	.loc	2 540 7                         @ ../User/cpu.c:540:7
	bl	HAL_TIM_Base_Init
.Ltmp215:
	.loc	2 540 7 is_stmt 0               @ ../User/cpu.c:540:7
	cbz	r0, .LBB0_120
@ %bb.118:
.Ltmp216:
	.loc	2 819 3 is_stmt 1               @ ../User/cpu.c:819:3
	@APP
	mrs	r0, primask
	cpsid i

	@NO_APP
.LBB0_119:                              @ =>This Inner Loop Header: Depth=1
	.loc	2 820 3                         @ ../User/cpu.c:820:3
	b	.LBB0_119
.Ltmp217:
.LBB0_120:
	.loc	2 0 3 is_stmt 0                 @ ../User/cpu.c:0:3
	mov.w	r0, #4096
	.loc	2 544 34 is_stmt 1              @ ../User/cpu.c:544:34
	str	r0, [sp, #44]
.Ltmp218:
	.loc	2 545 7                         @ ../User/cpu.c:545:7
	movw	r0, :lower16:htim5
	movt	r0, :upper16:htim5
	add	r1, sp, #44
	bl	HAL_TIM_ConfigClockSource
.Ltmp219:
	.loc	2 545 7 is_stmt 0               @ ../User/cpu.c:545:7
	cbz	r0, .LBB0_123
@ %bb.121:
.Ltmp220:
	.loc	2 819 3 is_stmt 1               @ ../User/cpu.c:819:3
	@APP
	mrs	r0, primask
	cpsid i

	@NO_APP
.LBB0_122:                              @ =>This Inner Loop Header: Depth=1
	.loc	2 820 3                         @ ../User/cpu.c:820:3
	b	.LBB0_122
.Ltmp221:
.LBB0_123:
	.loc	2 549 7                         @ ../User/cpu.c:549:7
	movw	r0, :lower16:htim5
	movt	r0, :upper16:htim5
	bl	HAL_TIM_PWM_Init
.Ltmp222:
	.loc	2 549 7 is_stmt 0               @ ../User/cpu.c:549:7
	cbz	r0, .LBB0_126
@ %bb.124:
.Ltmp223:
	.loc	2 819 3 is_stmt 1               @ ../User/cpu.c:819:3
	@APP
	mrs	r0, primask
	cpsid i

	@NO_APP
.LBB0_125:                              @ =>This Inner Loop Header: Depth=1
	.loc	2 820 3                         @ ../User/cpu.c:820:3
	b	.LBB0_125
.Ltmp224:
.LBB0_126:
	.loc	2 0 3 is_stmt 0                 @ ../User/cpu.c:0:3
	movs	r0, #64
	.loc	2 553 37 is_stmt 1              @ ../User/cpu.c:553:37
	str	r0, [sp, #32]
.Ltmp225:
	.loc	2 555 7                         @ ../User/cpu.c:555:7
	movw	r0, :lower16:htim5
	movs	r4, #0
	movt	r0, :upper16:htim5
	add	r1, sp, #32
.Ltmp226:
	.loc	2 554 33                        @ ../User/cpu.c:554:33
	str	r4, [sp, #36]
.Ltmp227:
	.loc	2 555 7                         @ ../User/cpu.c:555:7
	bl	HAL_TIMEx_MasterConfigSynchronization
.Ltmp228:
	.loc	2 555 7 is_stmt 0               @ ../User/cpu.c:555:7
	cbz	r0, .LBB0_129
@ %bb.127:
.Ltmp229:
	.loc	2 819 3 is_stmt 1               @ ../User/cpu.c:819:3
	@APP
	mrs	r0, primask
	cpsid i

	@NO_APP
.LBB0_128:                              @ =>This Inner Loop Header: Depth=1
	.loc	2 820 3                         @ ../User/cpu.c:820:3
	b	.LBB0_128
.Ltmp230:
.LBB0_129:
	.loc	2 0 3 is_stmt 0                 @ ../User/cpu.c:0:3
	movs	r0, #96
	.loc	2 559 20 is_stmt 1              @ ../User/cpu.c:559:20
	str	r0, [sp, #4]
	movs	r0, #25
	.loc	2 560 19                        @ ../User/cpu.c:560:19
	strd	r0, r4, [sp, #8]
.Ltmp231:
	.loc	2 563 7                         @ ../User/cpu.c:563:7
	movw	r0, :lower16:htim5
	movt	r0, :upper16:htim5
	add	r1, sp, #4
	movs	r2, #0
.Ltmp232:
	.loc	2 562 24                        @ ../User/cpu.c:562:24
	str	r4, [sp, #20]
.Ltmp233:
	.loc	2 563 7                         @ ../User/cpu.c:563:7
	bl	HAL_TIM_PWM_ConfigChannel
.Ltmp234:
	.loc	2 563 7 is_stmt 0               @ ../User/cpu.c:563:7
	cbz	r0, .LBB0_132
@ %bb.130:
.Ltmp235:
	.loc	2 819 3 is_stmt 1               @ ../User/cpu.c:819:3
	@APP
	mrs	r0, primask
	cpsid i

	@NO_APP
.LBB0_131:                              @ =>This Inner Loop Header: Depth=1
	.loc	2 820 3                         @ ../User/cpu.c:820:3
	b	.LBB0_131
.Ltmp236:
.LBB0_132:
	.loc	2 55 5                          @ ../User/cpu.c:55:5
	bl	SDRAM_Init
.Ltmp237:
	.loc	2 57 5                          @ ../User/cpu.c:57:5
	bl	LTDC_Init
.Ltmp238:
	.loc	2 59 5                          @ ../User/cpu.c:59:5
	movw	r0, :lower16:hadc1
	movw	r1, :lower16:g_ADC1_Buff
	movt	r0, :upper16:hadc1
	movt	r1, :upper16:g_ADC1_Buff
	movs	r2, #100
	bl	HAL_ADC_Start_DMA
.Ltmp239:
	.loc	2 60 5                          @ ../User/cpu.c:60:5
	movw	r0, :lower16:hadc2
	movw	r1, :lower16:g_ADC2_Buff
	movt	r0, :upper16:hadc2
	movt	r1, :upper16:g_ADC2_Buff
	movs	r2, #100
	bl	HAL_ADC_Start_DMA
.Ltmp240:
	.loc	2 62 5                          @ ../User/cpu.c:62:5
	movw	r4, :lower16:htim5
	movt	r4, :upper16:htim5
	mov	r0, r4
	bl	HAL_TIM_Base_Start
.Ltmp241:
	.loc	2 63 5                          @ ../User/cpu.c:63:5
	mov	r0, r4
	movs	r1, #0
	bl	HAL_TIM_PWM_Start
.Ltmp242:
	.loc	2 65 1                          @ ../User/cpu.c:65:1
	add	sp, #60
	pop.w	{r4, r5, r6, r7, r8, r9, r10, r11, pc}
.Ltmp243:
.Lfunc_end0:
	.size	HardwareInit, .Lfunc_end0-HardwareInit
	.cfi_endproc
	.cantunwind
	.fnend
                                        @ -- End function
	.section	.text.SystemClock_Config,"ax",%progbits
	.hidden	SystemClock_Config              @ -- Begin function SystemClock_Config
	.globl	SystemClock_Config
	.p2align	1
	.type	SystemClock_Config,%function
	.code	16                              @ @SystemClock_Config
	.thumb_func
SystemClock_Config:
.Lfunc_begin1:
	.loc	2 77 0                          @ ../User/cpu.c:77:0
	.fnstart
	.cfi_startproc
@ %bb.0:
	.save	{r4, r5, r7, lr}
	push	{r4, r5, r7, lr}
	.cfi_def_cfa_offset 16
	.cfi_offset lr, -4
	.cfi_offset r7, -8
	.cfi_offset r5, -12
	.cfi_offset r4, -16
	.pad	#72
	sub	sp, #72
	.cfi_def_cfa_offset 88
	movs	r4, #0
	add	r0, sp, #4
.Ltmp244:
	.loc	2 79 22 prologue_end            @ ../User/cpu.c:79:22
	movs	r1, #20
	.loc	2 78 22                         @ ../User/cpu.c:78:22
	strd	r4, r4, [sp, #40]
	strd	r4, r4, [sp, #32]
	.loc	2 79 22                         @ ../User/cpu.c:79:22
	bl	__aeabi_memclr4
.Ltmp245:
	.loc	2 0 22 is_stmt 0                @ ../User/cpu.c:0:22
	movw	r0, #14400
.Ltmp246:
	.loc	2 83 3 is_stmt 1                @ ../User/cpu.c:83:3
	str	r4, [sp]
	movt	r0, #16386
	ldr	r1, [r0]
	movs	r5, #2
	orr	r1, r1, #268435456
	str	r1, [r0]
	ldr	r0, [r0]
	and	r0, r0, #268435456
	str	r0, [sp]
	ldr	r0, [sp]
	movw	r0, #28672
.Ltmp247:
	.loc	2 84 3                          @ ../User/cpu.c:84:3
	str	r4, [sp]
	movt	r0, #16384
	ldr	r1, [r0]
	orr	r1, r1, #49152
	str	r1, [r0]
	ldr	r0, [r0]
	and	r0, r0, #49152
	str	r0, [sp]
	ldr	r0, [sp]
	movs	r0, #1
.Ltmp248:
	.loc	2 88 36                         @ ../User/cpu.c:88:36
	str	r0, [sp, #24]
	mov.w	r0, #65536
	.loc	2 89 30                         @ ../User/cpu.c:89:30
	str	r0, [sp, #28]
	mov.w	r0, #4194304
	.loc	2 91 35                         @ ../User/cpu.c:91:35
	str	r0, [sp, #52]
	movs	r0, #25
	.loc	2 92 30                         @ ../User/cpu.c:92:30
	str	r0, [sp, #56]
	mov.w	r0, #320
	.loc	2 93 30                         @ ../User/cpu.c:93:30
	strd	r0, r5, [sp, #60]
	movs	r0, #4
	.loc	2 95 30                         @ ../User/cpu.c:95:30
	str	r0, [sp, #68]
	add	r0, sp, #24
	.loc	2 90 34                         @ ../User/cpu.c:90:34
	str	r5, [sp, #48]
.Ltmp249:
	.loc	2 96 7                          @ ../User/cpu.c:96:7
	bl	HAL_RCC_OscConfig
.Ltmp250:
	.loc	2 96 7 is_stmt 0                @ ../User/cpu.c:96:7
	cbz	r0, .LBB1_3
@ %bb.1:
.Ltmp251:
	.loc	2 819 3 is_stmt 1               @ ../User/cpu.c:819:3
	@APP
	mrs	r0, primask
	cpsid i

	@NO_APP
	.p2align	2
.LBB1_2:                                @ =>This Inner Loop Header: Depth=1
	.loc	2 820 3                         @ ../User/cpu.c:820:3
	b	.LBB1_2
.Ltmp252:
.LBB1_3:
	.loc	2 0 3 is_stmt 0                 @ ../User/cpu.c:0:3
	movs	r0, #15
	.loc	2 102 31 is_stmt 1              @ ../User/cpu.c:102:31
	strd	r0, r5, [sp, #4]
	mov.w	r0, #5120
	.loc	2 106 36                        @ ../User/cpu.c:106:36
	str	r0, [sp, #16]
	mov.w	r0, #4096
	.loc	2 107 36                        @ ../User/cpu.c:107:36
	str	r0, [sp, #20]
	add	r0, sp, #4
.Ltmp253:
	.loc	2 109 7                         @ ../User/cpu.c:109:7
	movs	r1, #5
.Ltmp254:
	.loc	2 105 35                        @ ../User/cpu.c:105:35
	str	r4, [sp, #12]
.Ltmp255:
	.loc	2 109 7                         @ ../User/cpu.c:109:7
	bl	HAL_RCC_ClockConfig
.Ltmp256:
	.loc	2 109 7 is_stmt 0               @ ../User/cpu.c:109:7
	cbz	r0, .LBB1_6
@ %bb.4:
.Ltmp257:
	.loc	2 819 3 is_stmt 1               @ ../User/cpu.c:819:3
	@APP
	mrs	r0, primask
	cpsid i

	@NO_APP
	.p2align	2
.LBB1_5:                                @ =>This Inner Loop Header: Depth=1
	.loc	2 820 3                         @ ../User/cpu.c:820:3
	b	.LBB1_5
.Ltmp258:
.LBB1_6:
	.loc	2 113 1                         @ ../User/cpu.c:113:1
	add	sp, #72
	pop	{r4, r5, r7, pc}
.Ltmp259:
.Lfunc_end1:
	.size	SystemClock_Config, .Lfunc_end1-SystemClock_Config
	.cfi_endproc
	.cantunwind
	.fnend
                                        @ -- End function
	.section	.text.SysTickISR,"ax",%progbits
	.hidden	SysTickISR                      @ -- Begin function SysTickISR
	.globl	SysTickISR
	.p2align	1
	.type	SysTickISR,%function
	.code	16                              @ @SysTickISR
	.thumb_func
SysTickISR:
.Lfunc_begin2:
	.loc	2 68 0                          @ ../User/cpu.c:68:0
	.fnstart
	.cfi_startproc
@ %bb.0:
	.loc	2 69 17 prologue_end            @ ../User/cpu.c:69:17
	movw	r0, :lower16:g_SystemTime
	movt	r0, :upper16:g_SystemTime
	ldr	r1, [r0]
	adds	r1, #1
	str	r1, [r0]
	.loc	2 70 1                          @ ../User/cpu.c:70:1
	bx	lr
.Ltmp260:
.Lfunc_end2:
	.size	SysTickISR, .Lfunc_end2-SysTickISR
	.cfi_endproc
	.cantunwind
	.fnend
                                        @ -- End function
	.section	.text.Error_Handler,"ax",%progbits
	.hidden	Error_Handler                   @ -- Begin function Error_Handler
	.globl	Error_Handler
	.p2align	1
	.type	Error_Handler,%function
	.code	16                              @ @Error_Handler
	.thumb_func
Error_Handler:
.Lfunc_begin3:
	.loc	2 816 0                         @ ../User/cpu.c:816:0
	.fnstart
	.cfi_startproc
@ %bb.0:
	.loc	2 819 3 prologue_end            @ ../User/cpu.c:819:3
	@APP
	mrs	r0, primask
	cpsid i

	@NO_APP
	.p2align	2
.LBB3_1:                                @ =>This Inner Loop Header: Depth=1
	.loc	2 820 3                         @ ../User/cpu.c:820:3
	b	.LBB3_1
.Ltmp261:
.Lfunc_end3:
	.size	Error_Handler, .Lfunc_end3-Error_Handler
	.cfi_endproc
	.cantunwind
	.fnend
                                        @ -- End function
	.hidden	g_SystemTime                    @ @g_SystemTime
	.type	g_SystemTime,%object
	.section	.bss.g_SystemTime,"aw",%nobits
	.globl	g_SystemTime
	.p2align	2
g_SystemTime:
	.long	0                               @ 0x0
	.size	g_SystemTime, 4

	.hidden	hadc1                           @ @hadc1
	.type	hadc1,%object
	.section	.bss.hadc1,"aw",%nobits
	.globl	hadc1
	.p2align	2
hadc1:
	.zero	72
	.size	hadc1, 72

	.hidden	g_ADC1_Buff                     @ @g_ADC1_Buff
	.type	g_ADC1_Buff,%object
	.section	.bss.g_ADC1_Buff,"aw",%nobits
	.globl	g_ADC1_Buff
	.p2align	1
g_ADC1_Buff:
	.zero	200
	.size	g_ADC1_Buff, 200

	.hidden	hadc2                           @ @hadc2
	.type	hadc2,%object
	.section	.bss.hadc2,"aw",%nobits
	.globl	hadc2
	.p2align	2
hadc2:
	.zero	72
	.size	hadc2, 72

	.hidden	g_ADC2_Buff                     @ @g_ADC2_Buff
	.type	g_ADC2_Buff,%object
	.section	.bss.g_ADC2_Buff,"aw",%nobits
	.globl	g_ADC2_Buff
	.p2align	1
g_ADC2_Buff:
	.zero	200
	.size	g_ADC2_Buff, 200

	.hidden	htim5                           @ @htim5
	.type	htim5,%object
	.section	.bss.htim5,"aw",%nobits
	.globl	htim5
	.p2align	2
htim5:
	.zero	72
	.size	htim5, 72

	.hidden	hdma_adc1                       @ @hdma_adc1
	.type	hdma_adc1,%object
	.section	.bss.hdma_adc1,"aw",%nobits
	.globl	hdma_adc1
	.p2align	2
hdma_adc1:
	.zero	96
	.size	hdma_adc1, 96

	.hidden	hdma_adc2                       @ @hdma_adc2
	.type	hdma_adc2,%object
	.section	.bss.hdma_adc2,"aw",%nobits
	.globl	hdma_adc2
	.p2align	2
hdma_adc2:
	.zero	96
	.size	hdma_adc2, 96

	.hidden	hspi2                           @ @hspi2
	.type	hspi2,%object
	.section	.bss.hspi2,"aw",%nobits
	.globl	hspi2
	.p2align	2
hspi2:
	.zero	88
	.size	hspi2, 88

	.hidden	htim2                           @ @htim2
	.type	htim2,%object
	.section	.bss.htim2,"aw",%nobits
	.globl	htim2
	.p2align	2
htim2:
	.zero	72
	.size	htim2, 72

	.hidden	htim3                           @ @htim3
	.type	htim3,%object
	.section	.bss.htim3,"aw",%nobits
	.globl	htim3
	.p2align	2
htim3:
	.zero	72
	.size	htim3, 72

	.hidden	htim4                           @ @htim4
	.type	htim4,%object
	.section	.bss.htim4,"aw",%nobits
	.globl	htim4
	.p2align	2
htim4:
	.zero	72
	.size	htim4, 72

	.hidden	htim9                           @ @htim9
	.type	htim9,%object
	.section	.bss.htim9,"aw",%nobits
	.globl	htim9
	.p2align	2
htim9:
	.zero	72
	.size	htim9, 72

	.hidden	huart1                          @ @huart1
	.type	huart1,%object
	.section	.bss.huart1,"aw",%nobits
	.globl	huart1
	.p2align	2
huart1:
	.zero	68
	.size	huart1, 68

	.hidden	huart6                          @ @huart6
	.type	huart6,%object
	.section	.bss.huart6,"aw",%nobits
	.globl	huart6
	.p2align	2
huart6:
	.zero	68
	.size	huart6, 68

	.file	14 "C:\\Users\\Hyacincher\\Desktop\\HyTelectrl\\Code\\Project" "../Library/STM32F4xx_HAL_Driver/Inc\\stm32f4xx_hal_rcc.h"
	.file	15 "C:\\Users\\Hyacincher\\Desktop\\HyTelectrl\\Code\\Project" "../Library/STM32F4xx_HAL_Driver/Inc/stm32f4xx_hal_rcc_ex.h"
	.section	".note.GNU-stack","",%progbits
	.eabi_attribute	30, 3	@ Tag_ABI_optimization_goals
	.ARM_attribute	16, 1	@ Tag_AV_eba