	.text
	.syntax unified
	.eabi_attribute	67, "2.09"	@ Tag_conformance
	.cpu	cortex-m4
	.eabi_attribute	6, 13	@ Tag_CPU_arch
	.eabi_attribute	7, 77	@ Tag_CPU_arch_profile
	.eabi_attribute	8, 0	@ Tag_ARM_ISA_use
	.eabi_attribute	9, 2	@ Tag_THUMB_ISA_use
	.fpu	fpv4-sp-d16
	.eabi_attribute	27, 1	@ Tag_ABI_HardFP_use
	.eabi_attribute	36, 1	@ Tag_FP_HP_extension
	.eabi_attribute	34, 1	@ Tag_CPU_unaligned_access
	.eabi_attribute	17, 1	@ Tag_ABI_PCS_GOT_use
	.eabi_attribute	20, 2	@ Tag_ABI_FP_denormal
	.eabi_attribute	21, 0	@ Tag_ABI_FP_exceptions
	.eabi_attribute	23, 1	@ Tag_ABI_FP_number_model
	.eabi_attribute	24, 1	@ Tag_ABI_align_needed
	.eabi_attribute	25, 1	@ Tag_ABI_align_preserved
	.eabi_attribute	28, 1	@ Tag_ABI_VFP_args
	.eabi_attribute	38, 1	@ Tag_ABI_FP_16bit_format
	.eabi_attribute	18, 2	@ Tag_ABI_PCS_wchar_t
	.eabi_attribute	26, 1	@ Tag_ABI_enum_size
	.eabi_attribute	14, 0	@ Tag_ABI_PCS_R9_use
	.file	"GUI_Main.c"
	.file	1 "C:\\Users\\Hyacincher\\Desktop\\HyTelectrl\\Code\\Project" "../GUILib/src/core/lv_obj_class.h"
	.file	2 "C:\\Users\\Hyacincher\\Desktop\\HyTelectrl\\Code\\Project" "../GUILib/src/core/lv_event.h"
	.file	3 "D:\\Keil MDK\\ARM\\ARMCLANG\\Bin\\..\\include" "stdint.h"
	.file	4 "C:\\Users\\Hyacincher\\Desktop\\HyTelectrl\\Code\\Project" "../GUILib/src/core/../misc/lv_area.h"
	.file	5 "C:\\Users\\Hyacincher\\Desktop\\HyTelectrl\\Code\\Project" "../GUILib/src/extra/others/snapshot/../../../core/lv_obj.h"
	.file	6 "C:\\Users\\Hyacincher\\Desktop\\HyTelectrl\\Code\\Project" "../GUILib/src/core/../misc/lv_ll.h"
	.file	7 "C:\\Users\\Hyacincher\\Desktop\\HyTelectrl\\Code\\Project" "../GUILib/src/core/lv_group.h"
	.file	8 "C:\\Users\\Hyacincher\\Desktop\\HyTelectrl\\Code\\Project" "../GUILib/src/core/lv_obj_scroll.h"
	.file	9 "C:\\Users\\Hyacincher\\Desktop\\HyTelectrl\\Code\\Project" "../GUILib/src/hal/../draw/../misc/lv_style.h"
	.file	10 "C:\\Users\\Hyacincher\\Desktop\\HyTelectrl\\Code\\Project" "../GUILib/src/core/../misc/lv_color.h"
	.file	11 "C:\\Users\\Hyacincher\\Desktop\\HyTelectrl\\Code\\Project" "../GUILib/src/core/lv_obj_style.h"
	.file	12 "C:\\Users\\Hyacincher\\Desktop\\HyTelectrl\\Code\\Project" "../GUIApp/GUI_Main.c"
	.file	13 "C:\\Users\\Hyacincher\\Desktop\\HyTelectrl\\Code\\Project" "../GUILib/src/extra/widgets/meter/lv_meter.h"
	.section	.text.LVGLDemoInit,"ax",%progbits
	.hidden	LVGLDemoInit                    @ -- Begin function LVGLDemoInit
	.globl	LVGLDemoInit
	.p2align	1
	.type	LVGLDemoInit,%function
	.code	16                              @ @LVGLDemoInit
	.thumb_func
LVGLDemoInit:
.Lfunc_begin0:
	.loc	12 8 0                          @ ../GUIApp/GUI_Main.c:8:0
	.fnstart
	.cfi_sections .debug_frame
	.cfi_startproc
@ %bb.0:
	.save	{r4, r5, r6, r7, r8, r9, lr}
	push.w	{r4, r5, r6, r7, r8, r9, lr}
	.cfi_def_cfa_offset 28
	.cfi_offset lr, -4
	.cfi_offset r9, -8
	.cfi_offset r8, -12
	.cfi_offset r7, -16
	.cfi_offset r6, -20
	.cfi_offset r5, -24
	.cfi_offset r4, -28
	.pad	#12
	sub	sp, #12
	.cfi_def_cfa_offset 40
.Ltmp0:
	.file	14 "C:\\Users\\Hyacincher\\Desktop\\HyTelectrl\\Code\\Project" "../GUILib/src/core/lv_disp.h"
	.loc	14 164 32 prologue_end          @ ../GUILib/src/core/lv_disp.h:164:32
	bl	lv_disp_get_default
.Ltmp1:
	.loc	14 164 12 is_stmt 0             @ ../GUILib/src/core/lv_disp.h:164:12
	bl	lv_disp_get_scr_act
.Ltmp2:
	.loc	12 9 17 is_stmt 1               @ ../GUIApp/GUI_Main.c:9:17
	bl	lv_obj_create
.Ltmp3:
	.loc	12 9 15 is_stmt 0               @ ../GUIApp/GUI_Main.c:9:15
	movw	r4, :lower16:g_MainObj
	movt	r4, :upper16:g_MainObj
	.loc	12 10 5 is_stmt 1               @ ../GUIApp/GUI_Main.c:10:5
	movs	r1, #0
	movs	r2, #0
	.loc	12 9 15                         @ ../GUIApp/GUI_Main.c:9:15
	str	r0, [r4]
	mov.w	r8, #0
	.loc	12 10 5                         @ ../GUIApp/GUI_Main.c:10:5
	bl	lv_obj_set_pos
.Ltmp4:
	.loc	12 11 21                        @ ../GUIApp/GUI_Main.c:11:21
	ldr	r0, [r4]
	.loc	12 11 5 is_stmt 0               @ ../GUIApp/GUI_Main.c:11:5
	mov.w	r1, #800
	mov.w	r2, #480
	bl	lv_obj_set_size
.Ltmp5:
	.loc	12 13 29 is_stmt 1              @ ../GUIApp/GUI_Main.c:13:29
	ldr	r0, [r4]
	.loc	12 13 13 is_stmt 0              @ ../GUIApp/GUI_Main.c:13:13
	bl	lv_meter_create
.Ltmp6:
	.loc	12 13 11                        @ ../GUIApp/GUI_Main.c:13:11
	movw	r7, :lower16:meter
	movt	r7, :upper16:meter
	.loc	12 14 5 is_stmt 1               @ ../GUIApp/GUI_Main.c:14:5
	movs	r1, #200
	movs	r2, #200
	.loc	12 13 11                        @ ../GUIApp/GUI_Main.c:13:11
	str	r0, [r7]
	.loc	12 14 5                         @ ../GUIApp/GUI_Main.c:14:5
	bl	lv_obj_set_size
.Ltmp7:
	.loc	12 15 20                        @ ../GUIApp/GUI_Main.c:15:20
	ldr	r0, [r7]
	.loc	12 15 5 is_stmt 0               @ ../GUIApp/GUI_Main.c:15:5
	movs	r1, #0
	movs	r2, #0
	bl	lv_obj_set_pos
.Ltmp8:
	.loc	12 18 51 is_stmt 1              @ ../GUIApp/GUI_Main.c:18:51
	ldr	r0, [r7]
	.loc	12 18 32 is_stmt 0              @ ../GUIApp/GUI_Main.c:18:32
	bl	lv_meter_add_scale
.Ltmp9:
	.loc	12 19 30 is_stmt 1              @ ../GUIApp/GUI_Main.c:19:30
	ldr	r1, [r7]
	.loc	12 18 32                        @ ../GUIApp/GUI_Main.c:18:32
	mov	r4, r0
.Ltmp10:
	@DEBUG_VALUE: LVGLDemoInit:scale <- $r4
	.loc	12 0 32 is_stmt 0               @ ../GUIApp/GUI_Main.c:0:32
	mov.w	r0, #270
	movs	r6, #135
	.loc	12 19 5 is_stmt 1               @ ../GUIApp/GUI_Main.c:19:5
	str	r0, [sp]
	mov	r0, r1
	mov	r1, r4
	movw	r2, #10500
	movw	r3, #12600
	str	r6, [sp, #4]
	bl	lv_meter_set_scale_range
.Ltmp11:
	.loc	12 20 30                        @ ../GUIApp/GUI_Main.c:20:30
	ldr	r5, [r7]
	.loc	12 20 55 is_stmt 0              @ ../GUIApp/GUI_Main.c:20:55
	movs	r0, #18
	bl	lv_palette_main
.Ltmp12:
	.loc	12 20 5                         @ ../GUIApp/GUI_Main.c:20:5
	uxth	r6, r0
	mov.w	r9, #10
	mov	r0, r5
	mov	r1, r4
	movs	r2, #43
	movs	r3, #2
	str.w	r9, [sp]
	str	r6, [sp, #4]
	bl	lv_meter_set_scale_ticks
.Ltmp13:
	.loc	12 21 36 is_stmt 1              @ ../GUIApp/GUI_Main.c:21:36
	ldr	r0, [r7]
	movs	r1, #15
	.loc	12 21 5 is_stmt 0               @ ../GUIApp/GUI_Main.c:21:5
	str	r1, [sp]
	mov	r1, r4
	movs	r2, #6
	movs	r3, #4
	str.w	r9, [sp, #8]
	str.w	r8, [sp, #4]
	bl	lv_meter_set_scale_major_ticks
.Ltmp14:
	.loc	12 24 30 is_stmt 1              @ ../GUIApp/GUI_Main.c:24:30
	ldr	r5, [r7]
	.loc	12 24 47 is_stmt 0              @ ../GUIApp/GUI_Main.c:24:47
	movs	r0, #5
	bl	lv_palette_main
.Ltmp15:
	.loc	12 24 13                        @ ../GUIApp/GUI_Main.c:24:13
	uxth	r3, r0
	mov	r0, r5
	mov	r1, r4
	movs	r2, #3
	str.w	r8, [sp]
	bl	lv_meter_add_arc
.Ltmp16:
	mov	r1, r0
	.loc	12 24 11                        @ ../GUIApp/GUI_Main.c:24:11
	movw	r9, :lower16:indic
	.loc	12 25 40 is_stmt 1              @ ../GUIApp/GUI_Main.c:25:40
	ldr	r0, [r7]
	.loc	12 24 11                        @ ../GUIApp/GUI_Main.c:24:11
	movt	r9, :upper16:indic
	.loc	12 25 5                         @ ../GUIApp/GUI_Main.c:25:5
	movw	r2, #10500
	.loc	12 24 11                        @ ../GUIApp/GUI_Main.c:24:11
	str.w	r1, [r9]
	.loc	12 25 5                         @ ../GUIApp/GUI_Main.c:25:5
	bl	lv_meter_set_indicator_start_value
.Ltmp17:
	.loc	12 26 38                        @ ../GUIApp/GUI_Main.c:26:38
	ldr	r0, [r7]
	.loc	12 26 45 is_stmt 0              @ ../GUIApp/GUI_Main.c:26:45
	ldr.w	r1, [r9]
	.loc	12 26 5                         @ ../GUIApp/GUI_Main.c:26:5
	mov.w	r2, #11200
	bl	lv_meter_set_indicator_end_value
.Ltmp18:
	.loc	12 29 38 is_stmt 1              @ ../GUIApp/GUI_Main.c:29:38
	ldr	r5, [r7]
	.loc	12 29 52 is_stmt 0              @ ../GUIApp/GUI_Main.c:29:52
	movs	r0, #5
	bl	lv_palette_main
.Ltmp19:
	mov	r6, r0
	.loc	12 29 86                        @ ../GUIApp/GUI_Main.c:29:86
	movs	r0, #5
	bl	lv_palette_main
.Ltmp20:
	.loc	12 29 13                        @ ../GUIApp/GUI_Main.c:29:13
	uxth	r2, r6
	uxth	r3, r0
	mov	r0, r5
	mov	r1, r4
	str.w	r8, [sp]
	str.w	r8, [sp, #4]
	bl	lv_meter_add_scale_lines
.Ltmp21:
	mov	r1, r0
	.loc	12 30 40 is_stmt 1              @ ../GUIApp/GUI_Main.c:30:40
	ldr	r0, [r7]
	.loc	12 30 5 is_stmt 0               @ ../GUIApp/GUI_Main.c:30:5
	movw	r2, #10500
	.loc	12 29 11 is_stmt 1              @ ../GUIApp/GUI_Main.c:29:11
	str.w	r1, [r9]
	.loc	12 30 5                         @ ../GUIApp/GUI_Main.c:30:5
	bl	lv_meter_set_indicator_start_value
.Ltmp22:
	.loc	12 31 38                        @ ../GUIApp/GUI_Main.c:31:38
	ldr	r0, [r7]
	.loc	12 31 45 is_stmt 0              @ ../GUIApp/GUI_Main.c:31:45
	ldr.w	r1, [r9]
	.loc	12 31 5                         @ ../GUIApp/GUI_Main.c:31:5
	mov.w	r2, #11200
	bl	lv_meter_set_indicator_end_value
.Ltmp23:
	.loc	12 34 30 is_stmt 1              @ ../GUIApp/GUI_Main.c:34:30
	ldr	r5, [r7]
	.loc	12 34 47 is_stmt 0              @ ../GUIApp/GUI_Main.c:34:47
	movs	r0, #0
	bl	lv_palette_main
.Ltmp24:
	.loc	12 34 13                        @ ../GUIApp/GUI_Main.c:34:13
	uxth	r3, r0
	mov	r0, r5
	mov	r1, r4
	movs	r2, #3
	str.w	r8, [sp]
	bl	lv_meter_add_arc
.Ltmp25:
	mov	r1, r0
	.loc	12 35 40 is_stmt 1              @ ../GUIApp/GUI_Main.c:35:40
	ldr	r0, [r7]
	.loc	12 35 5 is_stmt 0               @ ../GUIApp/GUI_Main.c:35:5
	movw	r2, #11900
	.loc	12 34 11 is_stmt 1              @ ../GUIApp/GUI_Main.c:34:11
	str.w	r1, [r9]
	.loc	12 35 5                         @ ../GUIApp/GUI_Main.c:35:5
	bl	lv_meter_set_indicator_start_value
.Ltmp26:
	.loc	12 36 38                        @ ../GUIApp/GUI_Main.c:36:38
	ldr	r0, [r7]
	.loc	12 36 45 is_stmt 0              @ ../GUIApp/GUI_Main.c:36:45
	ldr.w	r1, [r9]
	.loc	12 36 5                         @ ../GUIApp/GUI_Main.c:36:5
	movw	r2, #12600
	bl	lv_meter_set_indicator_end_value
.Ltmp27:
	.loc	12 39 38 is_stmt 1              @ ../GUIApp/GUI_Main.c:39:38
	ldr	r5, [r7]
	.loc	12 39 52 is_stmt 0              @ ../GUIApp/GUI_Main.c:39:52
	movs	r0, #0
	bl	lv_palette_main
.Ltmp28:
	mov	r6, r0
	.loc	12 39 85                        @ ../GUIApp/GUI_Main.c:39:85
	movs	r0, #0
	bl	lv_palette_main
.Ltmp29:
	.loc	12 39 13                        @ ../GUIApp/GUI_Main.c:39:13
	uxth	r2, r6
	uxth	r3, r0
	mov	r0, r5
	mov	r1, r4
	str.w	r8, [sp]
	str.w	r8, [sp, #4]
	bl	lv_meter_add_scale_lines
.Ltmp30:
	mov	r1, r0
	.loc	12 40 40 is_stmt 1              @ ../GUIApp/GUI_Main.c:40:40
	ldr	r0, [r7]
	.loc	12 40 5 is_stmt 0               @ ../GUIApp/GUI_Main.c:40:5
	movw	r2, #11900
	.loc	12 39 11 is_stmt 1              @ ../GUIApp/GUI_Main.c:39:11
	str.w	r1, [r9]
	.loc	12 40 5                         @ ../GUIApp/GUI_Main.c:40:5
	bl	lv_meter_set_indicator_start_value
.Ltmp31:
	.loc	12 41 38                        @ ../GUIApp/GUI_Main.c:41:38
	ldr	r0, [r7]
	.loc	12 41 45 is_stmt 0              @ ../GUIApp/GUI_Main.c:41:45
	ldr.w	r1, [r9]
	.loc	12 41 5                         @ ../GUIApp/GUI_Main.c:41:5
	movw	r2, #12600
	bl	lv_meter_set_indicator_end_value
.Ltmp32:
	.loc	12 44 38 is_stmt 1              @ ../GUIApp/GUI_Main.c:44:38
	ldr	r5, [r7]
	.loc	12 44 55 is_stmt 0              @ ../GUIApp/GUI_Main.c:44:55
	movs	r0, #18
	bl	lv_palette_main
.Ltmp33:
	.loc	12 44 13                        @ ../GUIApp/GUI_Main.c:44:13
	uxth	r3, r0
	mvn	r7, #9
	mov	r0, r5
	mov	r1, r4
	movs	r2, #4
	str	r7, [sp]
	bl	lv_meter_add_needle_line
.Ltmp34:
	.loc	12 44 11                        @ ../GUIApp/GUI_Main.c:44:11
	str.w	r0, [r9]
	.loc	12 58 1 is_stmt 1               @ ../GUIApp/GUI_Main.c:58:1
	add	sp, #12
	pop.w	{r4, r5, r6, r7, r8, r9, pc}
.Ltmp35:
.Lfunc_end0:
	.size	LVGLDemoInit, .Lfunc_end0-LVGLDemoInit
	.cfi_endproc
	.cantunwind
	.fnend
                                        @ -- End function
	.section	.text.SetPowerValue,"ax",%progbits
	.hidden	SetPowerValue                   @ -- Begin function SetPowerValue
	.globl	SetPowerValue
	.p2align	1
	.type	SetPowerValue,%function
	.code	16                              @ @SetPowerValue
	.thumb_func
SetPowerValue:
.Lfunc_begin1:
	.loc	12 61 0                         @ ../GUIApp/GUI_Main.c:61:0
	.fnstart
	.cfi_startproc
@ %bb.0:
	@DEBUG_VALUE: SetPowerValue:Value <- $r0
	mov	r2, r0
.Ltmp36:
	@DEBUG_VALUE: SetPowerValue:Value <- $r2
	.loc	12 62 34 prologue_end           @ ../GUIApp/GUI_Main.c:62:34
	movw	r0, :lower16:meter
	.loc	12 62 41 is_stmt 0              @ ../GUIApp/GUI_Main.c:62:41
	movw	r1, :lower16:indic
	.loc	12 62 34                        @ ../GUIApp/GUI_Main.c:62:34
	movt	r0, :upper16:meter
	.loc	12 62 41                        @ ../GUIApp/GUI_Main.c:62:41
	movt	r1, :upper16:indic
	.loc	12 62 34                        @ ../GUIApp/GUI_Main.c:62:34
	ldr	r0, [r0]
	.loc	12 62 41                        @ ../GUIApp/GUI_Main.c:62:41
	ldr	r1, [r1]
	@DEBUG_VALUE: SetPowerValue:Value <- $r2
.Ltmp37:
	.loc	12 62 5                         @ ../GUIApp/GUI_Main.c:62:5
	b	lv_meter_set_indicator_value
.Ltmp38:
.Lfunc_end1:
	.size	SetPowerValue, .Lfunc_end1-SetPowerValue
	.cfi_endproc
	.cantunwind
	.fnend
                                        @ -- End function
	.hidden	g_MainObj                       @ @g_MainObj
	.type	g_MainObj,%object
	.section	.bss.g_MainObj,"aw",%nobits
	.globl	g_MainObj
	.p2align	2
g_MainObj:
	.long	0
	.size	g_MainObj, 4

	.hidden	meter                           @ @meter
	.type	meter,%object
	.section	.bss.meter,"aw",%nobits
	.globl	meter
	.p2align	2
meter:
	.long	0
	.size	meter, 4

	.hidden	indic                           @ @indic
	.type	indic,%object
	.section	.bss.indic,"aw",%nobits
	.globl	indic
	.p2align	2
indic:
	.long	0
	.size	indic, 4

	.file	15 "C:\\Users\\Hyacincher\\Desktop\\HyTelectrl\\Code\\Project" "../User\\includes.h"
	.section	".note.GNU-stack","",%progbits
	.eabi_attribute	30, 3	@ Tag_ABI_optimization_goals
	.ARM_attribute	16, 1	@ Tag_AV_eba