	.text
	.syntax unified
	.eabi_attribute	67, "2.09"	@ Tag_conformance
	.cpu	cortex-m4
	.eabi_attribute	6, 13	@ Tag_CPU_arch
	.eabi_attribute	7, 77	@ Tag_CPU_arch_profile
	.eabi_attribute	8, 0	@ Tag_ARM_ISA_use
	.eabi_attribute	9, 2	@ Tag_THUMB_ISA_use
	.fpu	fpv4-sp-d16
	.eabi_attribute	27, 1	@ Tag_ABI_HardFP_use
	.eabi_attribute	36, 1	@ Tag_FP_HP_extension
	.eabi_attribute	34, 1	@ Tag_CPU_unaligned_access
	.eabi_attribute	17, 1	@ Tag_ABI_PCS_GOT_use
	.eabi_attribute	20, 2	@ Tag_ABI_FP_denormal
	.eabi_attribute	21, 0	@ Tag_ABI_FP_exceptions
	.eabi_attribute	23, 1	@ Tag_ABI_FP_number_model
	.eabi_attribute	24, 1	@ Tag_ABI_align_needed
	.eabi_attribute	25, 1	@ Tag_ABI_align_preserved
	.eabi_attribute	28, 1	@ Tag_ABI_VFP_args
	.eabi_attribute	38, 1	@ Tag_ABI_FP_16bit_format
	.eabi_attribute	18, 2	@ Tag_ABI_PCS_wchar_t
	.eabi_attribute	26, 1	@ Tag_ABI_enum_size
	.eabi_attribute	14, 0	@ Tag_ABI_PCS_R9_use
	.file	"ltdc.c"
	.file	1 "D:\\Keil MDK\\ARM\\ARMCLANG\\Bin\\..\\include" "stdint.h"
	.file	2 "C:\\Users\\Hyacincher\\Desktop\\HyTelectrl\\Code\\Project" "../Library/CMSIS/stm32f429xx.h"
	.file	3 "C:\\Users\\Hyacincher\\Desktop\\HyTelectrl\\Code\\Project" "../Library/STM32F4xx_HAL_Driver/Inc\\stm32f4xx_hal_ltdc.h"
	.file	4 "C:\\Users\\Hyacincher\\Desktop\\HyTelectrl\\Code\\Project" "../Library/STM32F4xx_HAL_Driver/Inc/stm32f4xx_hal_def.h"
	.file	5 "C:\\Users\\Hyacincher\\Desktop\\HyTelectrl\\Code\\Project" "../Driver/ltdc.c"
	.file	6 "C:\\Users\\Hyacincher\\Desktop\\HyTelectrl\\Code\\Project" "../Library/STM32F4xx_HAL_Driver/Inc\\stm32f4xx_hal_dma2d.h"
	.file	7 "C:\\Users\\Hyacincher\\Desktop\\HyTelectrl\\Code\\Project" "../User\\includes.h"
	.file	8 "C:\\Users\\Hyacincher\\Desktop\\HyTelectrl\\Code\\Project" "../Driver/ltdc.h"
	.file	9 "C:\\Users\\Hyacincher\\Desktop\\HyTelectrl\\Code\\Project" "../Library/STM32F4xx_HAL_Driver/Inc\\stm32f4xx_hal_gpio.h"
	.section	.text.LTDC_Switch,"ax",%progbits
	.hidden	LTDC_Switch                     @ -- Begin function LTDC_Switch
	.globl	LTDC_Switch
	.p2align	2
	.type	LTDC_Switch,%function
	.code	16                              @ @LTDC_Switch
	.thumb_func
LTDC_Switch:
.Lfunc_begin0:
	.loc	5 16 0                          @ ../Driver/ltdc.c:16:0
	.fnstart
	.cfi_sections .debug_frame
	.cfi_startproc
@ %bb.0:
	.pad	#4
	sub	sp, #4
	.cfi_def_cfa_offset 4
                                        @ kill: def $r1 killed $r0
	strb.w	r0, [sp, #3]
.Ltmp0:
	.loc	5 17 5 prologue_end             @ ../Driver/ltdc.c:17:5
	ldrb.w	r0, [sp, #3]
.Ltmp1:
	.loc	5 17 5 is_stmt 0                @ ../Driver/ltdc.c:17:5
	cmp	r0, #1
	bne	.LBB0_2
	b	.LBB0_1
.LBB0_1:
.Ltmp2:
	.loc	5 17 12                         @ ../Driver/ltdc.c:17:12
	movw	r0, :lower16:LTDC_Handler
	movt	r0, :upper16:LTDC_Handler
	ldr	r1, [r0]
	ldr	r0, [r1, #24]
	orr	r0, r0, #1
	str	r0, [r1, #24]
	b	.LBB0_5
.LBB0_2:
.Ltmp3:
	.loc	5 18 10 is_stmt 1               @ ../Driver/ltdc.c:18:10
	ldrb.w	r0, [sp, #3]
.Ltmp4:
	.loc	5 18 10 is_stmt 0               @ ../Driver/ltdc.c:18:10
	cbnz	r0, .LBB0_4
	b	.LBB0_3
.LBB0_3:
.Ltmp5:
	.loc	5 18 16                         @ ../Driver/ltdc.c:18:16
	movw	r0, :lower16:LTDC_Handler
	movt	r0, :upper16:LTDC_Handler
	ldr	r1, [r0]
	ldr	r0, [r1, #24]
	bic	r0, r0, #1
	str	r0, [r1, #24]
	b	.LBB0_4
.Ltmp6:
.LBB0_4:
	.loc	5 0 16                          @ ../Driver/ltdc.c:0:16
	b	.LBB0_5
.LBB0_5:
	.loc	5 19 1 is_stmt 1                @ ../Driver/ltdc.c:19:1
	add	sp, #4
	bx	lr
.Ltmp7:
.Lfunc_end0:
	.size	LTDC_Switch, .Lfunc_end0-LTDC_Switch
	.cfi_endproc
	.cantunwind
	.fnend
                                        @ -- End function
	.section	.text.LTDC_Layer_Switch,"ax",%progbits
	.hidden	LTDC_Layer_Switch               @ -- Begin function LTDC_Layer_Switch
	.globl	LTDC_Layer_Switch
	.p2align	2
	.type	LTDC_Layer_Switch,%function
	.code	16                              @ @LTDC_Layer_Switch
	.thumb_func
LTDC_Layer_Switch:
.Lfunc_begin1:
	.loc	5 25 0                          @ ../Driver/ltdc.c:25:0
	.fnstart
	.cfi_startproc
@ %bb.0:
	.pad	#4
	sub	sp, #4
	.cfi_def_cfa_offset 4
                                        @ kill: def $r2 killed $r1
                                        @ kill: def $r2 killed $r0
	strb.w	r0, [sp, #3]
	strb.w	r1, [sp, #2]
.Ltmp8:
	.loc	5 26 5 prologue_end             @ ../Driver/ltdc.c:26:5
	ldrb.w	r0, [sp, #2]
.Ltmp9:
	.loc	5 26 5 is_stmt 0                @ ../Driver/ltdc.c:26:5
	cmp	r0, #1
	bne	.LBB1_2
	b	.LBB1_1
.LBB1_1:
.Ltmp10:
	.loc	5 26 12                         @ ../Driver/ltdc.c:26:12
	movw	r0, :lower16:LTDC_Handler
	movt	r0, :upper16:LTDC_Handler
	ldr	r0, [r0]
	ldrb.w	r1, [sp, #3]
	add.w	r1, r0, r1, lsl #7
	ldr.w	r0, [r1, #132]
	orr	r0, r0, #1
	str.w	r0, [r1, #132]
	b	.LBB1_5
.LBB1_2:
.Ltmp11:
	.loc	5 27 10 is_stmt 1               @ ../Driver/ltdc.c:27:10
	ldrb.w	r0, [sp, #2]
.Ltmp12:
	.loc	5 27 10 is_stmt 0               @ ../Driver/ltdc.c:27:10
	cbnz	r0, .LBB1_4
	b	.LBB1_3
.LBB1_3:
.Ltmp13:
	.loc	5 27 17                         @ ../Driver/ltdc.c:27:17
	movw	r0, :lower16:LTDC_Handler
	movt	r0, :upper16:LTDC_Handler
	ldr	r0, [r0]
	ldrb.w	r1, [sp, #3]
	add.w	r1, r0, r1, lsl #7
	ldr.w	r0, [r1, #132]
	bic	r0, r0, #1
	str.w	r0, [r1, #132]
	b	.LBB1_4
.Ltmp14:
.LBB1_4:
	.loc	5 0 17                          @ ../Driver/ltdc.c:0:17
	b	.LBB1_5
.LBB1_5:
	.loc	5 28 2 is_stmt 1                @ ../Driver/ltdc.c:28:2
	movw	r0, :lower16:LTDC_Handler
	movt	r0, :upper16:LTDC_Handler
	ldr	r1, [r0]
	ldr	r0, [r1, #36]
	orr	r0, r0, #1
	str	r0, [r1, #36]
	.loc	5 29 1                          @ ../Driver/ltdc.c:29:1
	add	sp, #4
	bx	lr
.Ltmp15:
.Lfunc_end1:
	.size	LTDC_Layer_Switch, .Lfunc_end1-LTDC_Layer_Switch
	.cfi_endproc
	.cantunwind
	.fnend
                                        @ -- End function
	.section	.text.LTDC_Select_Layer,"ax",%progbits
	.hidden	LTDC_Select_Layer               @ -- Begin function LTDC_Select_Layer
	.globl	LTDC_Select_Layer
	.p2align	2
	.type	LTDC_Select_Layer,%function
	.code	16                              @ @LTDC_Select_Layer
	.thumb_func
LTDC_Select_Layer:
.Lfunc_begin2:
	.loc	5 34 0                          @ ../Driver/ltdc.c:34:0
	.fnstart
	.cfi_startproc
@ %bb.0:
	.pad	#4
	sub	sp, #4
	.cfi_def_cfa_offset 4
                                        @ kill: def $r1 killed $r0
	strb.w	r0, [sp, #3]
.Ltmp16:
	.loc	5 35 27 prologue_end            @ ../Driver/ltdc.c:35:27
	ldrb.w	r0, [sp, #3]
	.loc	5 35 26 is_stmt 0               @ ../Driver/ltdc.c:35:26
	movw	r1, :lower16:g_LCDCtrlMsg
	movt	r1, :upper16:g_LCDCtrlMsg
	strb	r0, [r1, #20]
	.loc	5 36 1 is_stmt 1                @ ../Driver/ltdc.c:36:1
	add	sp, #4
	bx	lr
.Ltmp17:
.Lfunc_end2:
	.size	LTDC_Select_Layer, .Lfunc_end2-LTDC_Select_Layer
	.cfi_endproc
	.cantunwind
	.fnend
                                        @ -- End function
	.section	.text.LTDC_Display_Dir,"ax",%progbits
	.hidden	LTDC_Display_Dir                @ -- Begin function LTDC_Display_Dir
	.globl	LTDC_Display_Dir
	.p2align	2
	.type	LTDC_Display_Dir,%function
	.code	16                              @ @LTDC_Display_Dir
	.thumb_func
LTDC_Display_Dir:
.Lfunc_begin3:
	.loc	5 41 0                          @ ../Driver/ltdc.c:41:0
	.fnstart
	.cfi_startproc
@ %bb.0:
	.pad	#4
	sub	sp, #4
	.cfi_def_cfa_offset 4
                                        @ kill: def $r1 killed $r0
	strb.w	r0, [sp, #3]
.Ltmp18:
	.loc	5 42 22 prologue_end            @ ../Driver/ltdc.c:42:22
	ldrb.w	r0, [sp, #3]
	.loc	5 42 21 is_stmt 0               @ ../Driver/ltdc.c:42:21
	movw	r1, :lower16:g_LCDCtrlMsg
	movt	r1, :upper16:g_LCDCtrlMsg
	strb	r0, [r1, #21]
.Ltmp19:
	.loc	5 43 5 is_stmt 1                @ ../Driver/ltdc.c:43:5
	ldrb.w	r0, [sp, #3]
.Ltmp20:
	.loc	5 43 5 is_stmt 0                @ ../Driver/ltdc.c:43:5
	cbnz	r0, .LBB3_2
	b	.LBB3_1
.LBB3_1:
.Ltmp21:
	.loc	5 45 35 is_stmt 1               @ ../Driver/ltdc.c:45:35
	movw	r1, :lower16:g_LCDCtrlMsg
	movt	r1, :upper16:g_LCDCtrlMsg
	ldr	r0, [r1, #4]
	.loc	5 45 21 is_stmt 0               @ ../Driver/ltdc.c:45:21
	strh	r0, [r1, #22]
	.loc	5 46 36 is_stmt 1               @ ../Driver/ltdc.c:46:36
	ldr	r0, [r1]
	.loc	5 46 22 is_stmt 0               @ ../Driver/ltdc.c:46:22
	strh	r0, [r1, #24]
	.loc	5 47 2 is_stmt 1                @ ../Driver/ltdc.c:47:2
	b	.LBB3_5
.Ltmp22:
.LBB3_2:
	.loc	5 47 11 is_stmt 0               @ ../Driver/ltdc.c:47:11
	ldrb.w	r0, [sp, #3]
.Ltmp23:
	.loc	5 47 11                         @ ../Driver/ltdc.c:47:11
	cmp	r0, #1
	bne	.LBB3_4
	b	.LBB3_3
.LBB3_3:
.Ltmp24:
	.loc	5 49 35 is_stmt 1               @ ../Driver/ltdc.c:49:35
	movw	r1, :lower16:g_LCDCtrlMsg
	movt	r1, :upper16:g_LCDCtrlMsg
	ldr	r0, [r1]
	.loc	5 49 21 is_stmt 0               @ ../Driver/ltdc.c:49:21
	strh	r0, [r1, #22]
	.loc	5 50 36 is_stmt 1               @ ../Driver/ltdc.c:50:36
	ldr	r0, [r1, #4]
	.loc	5 50 22 is_stmt 0               @ ../Driver/ltdc.c:50:22
	strh	r0, [r1, #24]
	.loc	5 51 2 is_stmt 1                @ ../Driver/ltdc.c:51:2
	b	.LBB3_4
.Ltmp25:
.LBB3_4:
	.loc	5 0 2 is_stmt 0                 @ ../Driver/ltdc.c:0:2
	b	.LBB3_5
.LBB3_5:
	.loc	5 52 1 is_stmt 1                @ ../Driver/ltdc.c:52:1
	add	sp, #4
	bx	lr
.Ltmp26:
.Lfunc_end3:
	.size	LTDC_Display_Dir, .Lfunc_end3-LTDC_Display_Dir
	.cfi_endproc
	.cantunwind
	.fnend
                                        @ -- End function
	.section	.text.LTDC_Draw_Point,"ax",%progbits
	.hidden	LTDC_Draw_Point                 @ -- Begin function LTDC_Draw_Point
	.globl	LTDC_Draw_Point
	.p2align	2
	.type	LTDC_Draw_Point,%function
	.code	16                              @ @LTDC_Draw_Point
	.thumb_func
LTDC_Draw_Point:
.Lfunc_begin4:
	.loc	5 58 0                          @ ../Driver/ltdc.c:58:0
	.fnstart
	.cfi_startproc
@ %bb.0:
	.save	{r7, lr}
	push	{r7, lr}
	.cfi_def_cfa_offset 8
	.cfi_offset lr, -4
	.cfi_offset r7, -8
	.pad	#8
	sub	sp, #8
	.cfi_def_cfa_offset 16
                                        @ kill: def $r3 killed $r1
                                        @ kill: def $r3 killed $r0
	strh.w	r0, [sp, #6]
	strh.w	r1, [sp, #4]
	str	r2, [sp]
.Ltmp27:
	.loc	5 59 18 prologue_end            @ ../Driver/ltdc.c:59:18
	movw	r0, :lower16:g_LCDCtrlMsg
	movt	r0, :upper16:g_LCDCtrlMsg
	ldrb	r0, [r0, #21]
.Ltmp28:
	.loc	5 59 5 is_stmt 0                @ ../Driver/ltdc.c:59:5
	cbz	r0, .LBB4_2
	b	.LBB4_1
.LBB4_1:
.Ltmp29:
	.loc	5 61 118 is_stmt 1              @ ../Driver/ltdc.c:61:118
	ldr	r0, [sp]
	.loc	5 61 57 is_stmt 0               @ ../Driver/ltdc.c:61:57
	movw	r3, :lower16:g_LCDCtrlMsg
	movt	r3, :upper16:g_LCDCtrlMsg
	ldrb	r2, [r3, #20]
	.loc	5 61 28                         @ ../Driver/ltdc.c:61:28
	movw	r1, :lower16:g_LCD_FrameBuff
	movt	r1, :upper16:g_LCD_FrameBuff
	ldr.w	r1, [r1, r2, lsl #2]
	.loc	5 61 83                         @ ../Driver/ltdc.c:61:83
	ldr	r2, [r3, #28]
	.loc	5 61 105                        @ ../Driver/ltdc.c:61:105
	ldr	r3, [r3]
	.loc	5 61 112                        @ ../Driver/ltdc.c:61:112
	ldrh.w	r12, [sp, #4]
	.loc	5 61 114                        @ ../Driver/ltdc.c:61:114
	ldrh.w	lr, [sp, #6]
	.loc	5 61 113                        @ ../Driver/ltdc.c:61:113
	mla	r3, r3, r12, lr
	.loc	5 61 90                         @ ../Driver/ltdc.c:61:90
	muls	r2, r3, r2
	.loc	5 61 117                        @ ../Driver/ltdc.c:61:117
	strh	r0, [r1, r2]
	.loc	5 62 2 is_stmt 1                @ ../Driver/ltdc.c:62:2
	b	.LBB4_3
.Ltmp30:
.LBB4_2:
	.loc	5 64 143                        @ ../Driver/ltdc.c:64:143
	ldr	r0, [sp]
	.loc	5 64 57 is_stmt 0               @ ../Driver/ltdc.c:64:57
	movw	r12, :lower16:g_LCDCtrlMsg
	movt	r12, :upper16:g_LCDCtrlMsg
	ldrb.w	r2, [r12, #20]
	.loc	5 64 28                         @ ../Driver/ltdc.c:64:28
	movw	r1, :lower16:g_LCD_FrameBuff
	movt	r1, :upper16:g_LCD_FrameBuff
	ldr.w	r1, [r1, r2, lsl #2]
	.loc	5 64 83                         @ ../Driver/ltdc.c:64:83
	ldr.w	r2, [r12, #28]
	.loc	5 64 105                        @ ../Driver/ltdc.c:64:105
	ldr.w	r3, [r12]
	.loc	5 64 126                        @ ../Driver/ltdc.c:64:126
	ldr.w	lr, [r12, #4]
	.loc	5 64 134                        @ ../Driver/ltdc.c:64:134
	ldrh.w	r12, [sp, #6]
	.loc	5 64 135                        @ ../Driver/ltdc.c:64:135
	mvn.w	r12, r12
	add	r12, lr
	.loc	5 64 139                        @ ../Driver/ltdc.c:64:139
	ldrh.w	lr, [sp, #4]
	.loc	5 64 138                        @ ../Driver/ltdc.c:64:138
	mla	r3, r3, r12, lr
	.loc	5 64 90                         @ ../Driver/ltdc.c:64:90
	muls	r2, r3, r2
	.loc	5 64 142                        @ ../Driver/ltdc.c:64:142
	strh	r0, [r1, r2]
	b	.LBB4_3
.Ltmp31:
.LBB4_3:
	.loc	5 66 1 is_stmt 1                @ ../Driver/ltdc.c:66:1
	add	sp, #8
	pop	{r7, pc}
.Ltmp32:
.Lfunc_end4:
	.size	LTDC_Draw_Point, .Lfunc_end4-LTDC_Draw_Point
	.cfi_endproc
	.cantunwind
	.fnend
                                        @ -- End function
	.section	.text.LTDC_Read_Point,"ax",%progbits
	.hidden	LTDC_Read_Point                 @ -- Begin function LTDC_Read_Point
	.globl	LTDC_Read_Point
	.p2align	2
	.type	LTDC_Read_Point,%function
	.code	16                              @ @LTDC_Read_Point
	.thumb_func
LTDC_Read_Point:
.Lfunc_begin5:
	.loc	5 72 0                          @ ../Driver/ltdc.c:72:0
	.fnstart
	.cfi_startproc
@ %bb.0:
	.pad	#8
	sub	sp, #8
	.cfi_def_cfa_offset 8
                                        @ kill: def $r2 killed $r1
                                        @ kill: def $r2 killed $r0
	strh.w	r0, [sp, #2]
	strh.w	r1, [sp]
.Ltmp33:
	.loc	5 73 18 prologue_end            @ ../Driver/ltdc.c:73:18
	movw	r0, :lower16:g_LCDCtrlMsg
	movt	r0, :upper16:g_LCDCtrlMsg
	ldrb	r0, [r0, #21]
.Ltmp34:
	.loc	5 73 5 is_stmt 0                @ ../Driver/ltdc.c:73:5
	cbz	r0, .LBB5_2
	b	.LBB5_1
.LBB5_1:
.Ltmp35:
	.loc	5 75 58 is_stmt 1               @ ../Driver/ltdc.c:75:58
	movw	r2, :lower16:g_LCDCtrlMsg
	movt	r2, :upper16:g_LCDCtrlMsg
	ldrb	r1, [r2, #20]
	.loc	5 75 29 is_stmt 0               @ ../Driver/ltdc.c:75:29
	movw	r0, :lower16:g_LCD_FrameBuff
	movt	r0, :upper16:g_LCD_FrameBuff
	ldr.w	r0, [r0, r1, lsl #2]
	.loc	5 75 84                         @ ../Driver/ltdc.c:75:84
	ldr	r1, [r2, #28]
	.loc	5 75 106                        @ ../Driver/ltdc.c:75:106
	ldr	r2, [r2]
	.loc	5 75 113                        @ ../Driver/ltdc.c:75:113
	ldrh.w	r3, [sp]
	.loc	5 75 115                        @ ../Driver/ltdc.c:75:115
	ldrh.w	r12, [sp, #2]
	.loc	5 75 114                        @ ../Driver/ltdc.c:75:114
	mla	r2, r2, r3, r12
	.loc	5 75 91                         @ ../Driver/ltdc.c:75:91
	muls	r1, r2, r1
	.loc	5 75 10                         @ ../Driver/ltdc.c:75:10
	ldrh	r0, [r0, r1]
	.loc	5 75 3                          @ ../Driver/ltdc.c:75:3
	str	r0, [sp, #4]
	b	.LBB5_3
.Ltmp36:
.LBB5_2:
	.loc	5 78 58 is_stmt 1               @ ../Driver/ltdc.c:78:58
	movw	r3, :lower16:g_LCDCtrlMsg
	movt	r3, :upper16:g_LCDCtrlMsg
	ldrb	r1, [r3, #20]
	.loc	5 78 29 is_stmt 0               @ ../Driver/ltdc.c:78:29
	movw	r0, :lower16:g_LCD_FrameBuff
	movt	r0, :upper16:g_LCD_FrameBuff
	ldr.w	r0, [r0, r1, lsl #2]
	.loc	5 78 84                         @ ../Driver/ltdc.c:78:84
	ldr	r1, [r3, #28]
	.loc	5 78 106                        @ ../Driver/ltdc.c:78:106
	ldr	r2, [r3]
	.loc	5 78 127                        @ ../Driver/ltdc.c:78:127
	ldr.w	r12, [r3, #4]
	.loc	5 78 135                        @ ../Driver/ltdc.c:78:135
	ldrh.w	r3, [sp, #2]
	.loc	5 78 136                        @ ../Driver/ltdc.c:78:136
	mvns	r3, r3
	add	r3, r12
	.loc	5 78 140                        @ ../Driver/ltdc.c:78:140
	ldrh.w	r12, [sp]
	.loc	5 78 139                        @ ../Driver/ltdc.c:78:139
	mla	r2, r2, r3, r12
	.loc	5 78 91                         @ ../Driver/ltdc.c:78:91
	muls	r1, r2, r1
	.loc	5 78 10                         @ ../Driver/ltdc.c:78:10
	ldrh	r0, [r0, r1]
	.loc	5 78 3                          @ ../Driver/ltdc.c:78:3
	str	r0, [sp, #4]
	b	.LBB5_3
.Ltmp37:
.LBB5_3:
	.loc	5 80 1 is_stmt 1                @ ../Driver/ltdc.c:80:1
	ldr	r0, [sp, #4]
	add	sp, #8
	bx	lr
.Ltmp38:
.Lfunc_end5:
	.size	LTDC_Read_Point, .Lfunc_end5-LTDC_Read_Point
	.cfi_endproc
	.cantunwind
	.fnend
                                        @ -- End function
	.section	.text.LTDC_Fill,"ax",%progbits
	.hidden	LTDC_Fill                       @ -- Begin function LTDC_Fill
	.globl	LTDC_Fill
	.p2align	2
	.type	LTDC_Fill,%function
	.code	16                              @ @LTDC_Fill
	.thumb_func
LTDC_Fill:
.Lfunc_begin6:
	.loc	5 88 0                          @ ../Driver/ltdc.c:88:0
	.fnstart
	.cfi_startproc
@ %bb.0:
	.pad	#40
	sub	sp, #40
	.cfi_def_cfa_offset 40
	ldr.w	r12, [sp, #40]
                                        @ kill: def $r12 killed $r3
                                        @ kill: def $r12 killed $r2
                                        @ kill: def $r12 killed $r1
                                        @ kill: def $r12 killed $r0
	strh.w	r0, [sp, #38]
	strh.w	r1, [sp, #36]
	strh.w	r2, [sp, #34]
	strh.w	r3, [sp, #32]
	movs	r0, #0
.Ltmp39:
	.loc	5 90 9 prologue_end             @ ../Driver/ltdc.c:90:9
	str	r0, [sp, #12]
.Ltmp40:
	.loc	5 94 18                         @ ../Driver/ltdc.c:94:18
	movw	r0, :lower16:g_LCDCtrlMsg
	movt	r0, :upper16:g_LCDCtrlMsg
	ldrb	r0, [r0, #21]
.Ltmp41:
	.loc	5 94 5 is_stmt 0                @ ../Driver/ltdc.c:94:5
	cbz	r0, .LBB6_2
	b	.LBB6_1
.LBB6_1:
.Ltmp42:
	.loc	5 96 7 is_stmt 1                @ ../Driver/ltdc.c:96:7
	ldrh.w	r0, [sp, #38]
	.loc	5 96 6 is_stmt 0                @ ../Driver/ltdc.c:96:6
	str	r0, [sp, #28]
	.loc	5 96 14                         @ ../Driver/ltdc.c:96:14
	ldrh.w	r0, [sp, #36]
	.loc	5 96 13                         @ ../Driver/ltdc.c:96:13
	str	r0, [sp, #24]
	.loc	5 97 7 is_stmt 1                @ ../Driver/ltdc.c:97:7
	ldrh.w	r0, [sp, #34]
	.loc	5 97 6 is_stmt 0                @ ../Driver/ltdc.c:97:6
	str	r0, [sp, #20]
	.loc	5 97 14                         @ ../Driver/ltdc.c:97:14
	ldrh.w	r0, [sp, #32]
	.loc	5 97 13                         @ ../Driver/ltdc.c:97:13
	str	r0, [sp, #16]
	.loc	5 98 2 is_stmt 1                @ ../Driver/ltdc.c:98:2
	b	.LBB6_3
.Ltmp43:
.LBB6_2:
	.loc	5 100 7                         @ ../Driver/ltdc.c:100:7
	ldrh.w	r0, [sp, #36]
	.loc	5 100 6 is_stmt 0               @ ../Driver/ltdc.c:100:6
	str	r0, [sp, #28]
	.loc	5 100 27                        @ ../Driver/ltdc.c:100:27
	movw	r0, :lower16:g_LCDCtrlMsg
	movt	r0, :upper16:g_LCDCtrlMsg
	ldr	r2, [r0, #4]
	.loc	5 100 35                        @ ../Driver/ltdc.c:100:35
	ldrh.w	r1, [sp, #34]
	.loc	5 100 37                        @ ../Driver/ltdc.c:100:37
	mvns	r1, r1
	add	r1, r2
	.loc	5 100 13                        @ ../Driver/ltdc.c:100:13
	str	r1, [sp, #24]
	.loc	5 101 7 is_stmt 1               @ ../Driver/ltdc.c:101:7
	ldrh.w	r1, [sp, #32]
	.loc	5 101 6 is_stmt 0               @ ../Driver/ltdc.c:101:6
	str	r1, [sp, #20]
	.loc	5 101 27                        @ ../Driver/ltdc.c:101:27
	ldr	r1, [r0, #4]
	.loc	5 101 35                        @ ../Driver/ltdc.c:101:35
	ldrh.w	r0, [sp, #38]
	.loc	5 101 37                        @ ../Driver/ltdc.c:101:37
	mvns	r0, r0
	add	r0, r1
	.loc	5 101 13                        @ ../Driver/ltdc.c:101:13
	str	r0, [sp, #16]
	b	.LBB6_3
.Ltmp44:
.LBB6_3:
	.loc	5 104 23 is_stmt 1              @ ../Driver/ltdc.c:104:23
	movw	r1, :lower16:g_LCDCtrlMsg
	movt	r1, :upper16:g_LCDCtrlMsg
	ldr	r2, [r1]
	.loc	5 104 31 is_stmt 0              @ ../Driver/ltdc.c:104:31
	ldr	r0, [sp, #20]
	.loc	5 104 35                        @ ../Driver/ltdc.c:104:35
	ldr	r3, [sp, #28]
	.loc	5 104 34                        @ ../Driver/ltdc.c:104:34
	subs	r0, r0, r3
	.loc	5 104 29                        @ ../Driver/ltdc.c:104:29
	mvns	r0, r0
	add	r0, r2
	.loc	5 104 9                         @ ../Driver/ltdc.c:104:9
	strh.w	r0, [sp, #10]
	.loc	5 105 45 is_stmt 1              @ ../Driver/ltdc.c:105:45
	ldrb	r2, [r1, #20]
	.loc	5 105 16 is_stmt 0              @ ../Driver/ltdc.c:105:16
	movw	r0, :lower16:g_LCD_FrameBuff
	movt	r0, :upper16:g_LCD_FrameBuff
	ldr.w	r2, [r0, r2, lsl #2]
	.loc	5 105 71                        @ ../Driver/ltdc.c:105:71
	ldr	r0, [r1, #28]
	.loc	5 105 93                        @ ../Driver/ltdc.c:105:93
	ldr	r1, [r1]
	.loc	5 105 100                       @ ../Driver/ltdc.c:105:100
	ldr	r3, [sp, #24]
	.loc	5 105 104                       @ ../Driver/ltdc.c:105:104
	ldr.w	r12, [sp, #28]
	.loc	5 105 103                       @ ../Driver/ltdc.c:105:103
	mla	r1, r1, r3, r12
	.loc	5 105 57                        @ ../Driver/ltdc.c:105:57
	mla	r0, r0, r1, r2
	.loc	5 105 6                         @ ../Driver/ltdc.c:105:6
	str	r0, [sp, #4]
	.loc	5 106 2 is_stmt 1               @ ../Driver/ltdc.c:106:2
	b	.LBB6_4
.LBB6_4:
	.loc	5 0 2 is_stmt 0                 @ ../Driver/ltdc.c:0:2
	movs	r0, #0
.Ltmp45:
	.loc	5 106 2                         @ ../Driver/ltdc.c:106:2
	str	r0, [sp]
	movw	r0, #14384
	movt	r0, #16386
	ldr	r1, [r0]
	orr	r1, r1, #8388608
	str	r1, [r0]
	ldr	r0, [r0]
	and	r0, r0, #8388608
	str	r0, [sp]
	ldr	r0, [sp]
	b	.LBB6_5
.Ltmp46:
.LBB6_5:
	.loc	5 0 2                           @ ../Driver/ltdc.c:0:2
	movw	r1, #45056
	movt	r1, #16386
	.loc	5 107 11 is_stmt 1              @ ../Driver/ltdc.c:107:11
	ldr	r0, [r1]
	bic	r0, r0, #1
	str	r0, [r1]
	mov.w	r0, #196608
	.loc	5 108 11                        @ ../Driver/ltdc.c:108:11
	str	r0, [r1]
	movw	r2, #45108
	movt	r2, #16386
	movs	r0, #2
	.loc	5 109 15                        @ ../Driver/ltdc.c:109:15
	str	r0, [r2]
	.loc	5 110 13                        @ ../Driver/ltdc.c:110:13
	ldrh.w	r0, [sp, #10]
	movw	r2, #45120
	movt	r2, #16386
	.loc	5 110 12 is_stmt 0              @ ../Driver/ltdc.c:110:12
	str	r0, [r2]
	.loc	5 112 14 is_stmt 1              @ ../Driver/ltdc.c:112:14
	ldr	r0, [sp, #4]
	movw	r2, #45116
	movt	r2, #16386
	.loc	5 112 13 is_stmt 0              @ ../Driver/ltdc.c:112:13
	str	r0, [r2]
	.loc	5 113 14 is_stmt 1              @ ../Driver/ltdc.c:113:14
	ldr	r0, [sp, #16]
	.loc	5 113 18 is_stmt 0              @ ../Driver/ltdc.c:113:18
	ldr	r2, [sp, #24]
	.loc	5 113 17                        @ ../Driver/ltdc.c:113:17
	subs	r0, r0, r2
	.loc	5 113 21                        @ ../Driver/ltdc.c:113:21
	adds	r0, #1
	.loc	5 113 27                        @ ../Driver/ltdc.c:113:27
	ldr	r2, [sp, #20]
	.loc	5 113 31                        @ ../Driver/ltdc.c:113:31
	ldr	r3, [sp, #28]
	.loc	5 113 30                        @ ../Driver/ltdc.c:113:30
	subs	r2, r2, r3
	.loc	5 113 37                        @ ../Driver/ltdc.c:113:37
	adds	r2, #1
	.loc	5 113 24                        @ ../Driver/ltdc.c:113:24
	orr.w	r0, r0, r2, lsl #16
	movw	r2, #45124
	movt	r2, #16386
	.loc	5 113 12                        @ ../Driver/ltdc.c:113:12
	str	r0, [r2]
	.loc	5 114 15 is_stmt 1              @ ../Driver/ltdc.c:114:15
	ldr	r0, [sp, #40]
	movw	r2, #45112
	movt	r2, #16386
	.loc	5 114 14 is_stmt 0              @ ../Driver/ltdc.c:114:14
	str	r0, [r2]
	.loc	5 115 11 is_stmt 1              @ ../Driver/ltdc.c:115:11
	ldr	r0, [r1]
	orr	r0, r0, #1
	str	r0, [r1]
	.loc	5 116 2                         @ ../Driver/ltdc.c:116:2
	b	.LBB6_6
.LBB6_6:                                @ =>This Inner Loop Header: Depth=1
	.loc	5 0 2 is_stmt 0                 @ ../Driver/ltdc.c:0:2
	movw	r0, #45060
	movt	r0, #16386
	.loc	5 116 16                        @ ../Driver/ltdc.c:116:16
	ldr	r0, [r0]
	.loc	5 116 2                         @ ../Driver/ltdc.c:116:2
	lsls	r0, r0, #30
	cmp	r0, #0
	bmi	.LBB6_10
	b	.LBB6_7
.LBB6_7:                                @   in Loop: Header=BB6_6 Depth=1
.Ltmp47:
	.loc	5 118 10 is_stmt 1              @ ../Driver/ltdc.c:118:10
	ldr	r0, [sp, #12]
	adds	r0, #1
	str	r0, [sp, #12]
.Ltmp48:
	.loc	5 119 6                         @ ../Driver/ltdc.c:119:6
	ldr	r0, [sp, #12]
.Ltmp49:
	.loc	5 119 6 is_stmt 0               @ ../Driver/ltdc.c:119:6
	cmp.w	r0, #2097152
	blo	.LBB6_9
	b	.LBB6_8
.LBB6_8:
.Ltmp50:
	.loc	5 119 23                        @ ../Driver/ltdc.c:119:23
	b	.LBB6_10
.Ltmp51:
.LBB6_9:                                @   in Loop: Header=BB6_6 Depth=1
	.loc	5 116 2 is_stmt 1               @ ../Driver/ltdc.c:116:2
	b	.LBB6_6
.LBB6_10:
	.loc	5 0 2 is_stmt 0                 @ ../Driver/ltdc.c:0:2
	movw	r1, #45064
	movt	r1, #16386
	.loc	5 121 13 is_stmt 1              @ ../Driver/ltdc.c:121:13
	ldr	r0, [r1]
	orr	r0, r0, #2
	str	r0, [r1]
	.loc	5 122 1                         @ ../Driver/ltdc.c:122:1
	add	sp, #40
	bx	lr
.Ltmp52:
.Lfunc_end6:
	.size	LTDC_Fill, .Lfunc_end6-LTDC_Fill
	.cfi_endproc
	.cantunwind
	.fnend
                                        @ -- End function
	.section	.text.LTDC_Color_Fill,"ax",%progbits
	.hidden	LTDC_Color_Fill                 @ -- Begin function LTDC_Color_Fill
	.globl	LTDC_Color_Fill
	.p2align	2
	.type	LTDC_Color_Fill,%function
	.code	16                              @ @LTDC_Color_Fill
	.thumb_func
LTDC_Color_Fill:
.Lfunc_begin7:
	.loc	5 130 0                         @ ../Driver/ltdc.c:130:0
	.fnstart
	.cfi_startproc
@ %bb.0:
	.pad	#40
	sub	sp, #40
	.cfi_def_cfa_offset 40
	ldr.w	r12, [sp, #40]
                                        @ kill: def $r12 killed $r3
                                        @ kill: def $r12 killed $r2
                                        @ kill: def $r12 killed $r1
                                        @ kill: def $r12 killed $r0
	strh.w	r0, [sp, #38]
	strh.w	r1, [sp, #36]
	strh.w	r2, [sp, #34]
	strh.w	r3, [sp, #32]
	movs	r0, #0
.Ltmp53:
	.loc	5 132 9 prologue_end            @ ../Driver/ltdc.c:132:9
	str	r0, [sp, #12]
.Ltmp54:
	.loc	5 136 18                        @ ../Driver/ltdc.c:136:18
	movw	r0, :lower16:g_LCDCtrlMsg
	movt	r0, :upper16:g_LCDCtrlMsg
	ldrb	r0, [r0, #21]
.Ltmp55:
	.loc	5 136 5 is_stmt 0               @ ../Driver/ltdc.c:136:5
	cbz	r0, .LBB7_2
	b	.LBB7_1
.LBB7_1:
.Ltmp56:
	.loc	5 138 7 is_stmt 1               @ ../Driver/ltdc.c:138:7
	ldrh.w	r0, [sp, #38]
	.loc	5 138 6 is_stmt 0               @ ../Driver/ltdc.c:138:6
	str	r0, [sp, #28]
	.loc	5 138 14                        @ ../Driver/ltdc.c:138:14
	ldrh.w	r0, [sp, #36]
	.loc	5 138 13                        @ ../Driver/ltdc.c:138:13
	str	r0, [sp, #24]
	.loc	5 139 7 is_stmt 1               @ ../Driver/ltdc.c:139:7
	ldrh.w	r0, [sp, #34]
	.loc	5 139 6 is_stmt 0               @ ../Driver/ltdc.c:139:6
	str	r0, [sp, #20]
	.loc	5 139 14                        @ ../Driver/ltdc.c:139:14
	ldrh.w	r0, [sp, #32]
	.loc	5 139 13                        @ ../Driver/ltdc.c:139:13
	str	r0, [sp, #16]
	.loc	5 140 2 is_stmt 1               @ ../Driver/ltdc.c:140:2
	b	.LBB7_3
.Ltmp57:
.LBB7_2:
	.loc	5 142 7                         @ ../Driver/ltdc.c:142:7
	ldrh.w	r0, [sp, #36]
	.loc	5 142 6 is_stmt 0               @ ../Driver/ltdc.c:142:6
	str	r0, [sp, #28]
	.loc	5 142 27                        @ ../Driver/ltdc.c:142:27
	movw	r0, :lower16:g_LCDCtrlMsg
	movt	r0, :upper16:g_LCDCtrlMsg
	ldr	r2, [r0, #4]
	.loc	5 142 35                        @ ../Driver/ltdc.c:142:35
	ldrh.w	r1, [sp, #34]
	.loc	5 142 37                        @ ../Driver/ltdc.c:142:37
	mvns	r1, r1
	add	r1, r2
	.loc	5 142 13                        @ ../Driver/ltdc.c:142:13
	str	r1, [sp, #24]
	.loc	5 143 7 is_stmt 1               @ ../Driver/ltdc.c:143:7
	ldrh.w	r1, [sp, #32]
	.loc	5 143 6 is_stmt 0               @ ../Driver/ltdc.c:143:6
	str	r1, [sp, #20]
	.loc	5 143 27                        @ ../Driver/ltdc.c:143:27
	ldr	r1, [r0, #4]
	.loc	5 143 35                        @ ../Driver/ltdc.c:143:35
	ldrh.w	r0, [sp, #38]
	.loc	5 143 37                        @ ../Driver/ltdc.c:143:37
	mvns	r0, r0
	add	r0, r1
	.loc	5 143 13                        @ ../Driver/ltdc.c:143:13
	str	r0, [sp, #16]
	b	.LBB7_3
.Ltmp58:
.LBB7_3:
	.loc	5 145 23 is_stmt 1              @ ../Driver/ltdc.c:145:23
	movw	r1, :lower16:g_LCDCtrlMsg
	movt	r1, :upper16:g_LCDCtrlMsg
	ldr	r2, [r1]
	.loc	5 145 31 is_stmt 0              @ ../Driver/ltdc.c:145:31
	ldr	r0, [sp, #20]
	.loc	5 145 35                        @ ../Driver/ltdc.c:145:35
	ldr	r3, [sp, #28]
	.loc	5 145 34                        @ ../Driver/ltdc.c:145:34
	subs	r0, r0, r3
	.loc	5 145 29                        @ ../Driver/ltdc.c:145:29
	mvns	r0, r0
	add	r0, r2
	.loc	5 145 9                         @ ../Driver/ltdc.c:145:9
	strh.w	r0, [sp, #10]
	.loc	5 146 45 is_stmt 1              @ ../Driver/ltdc.c:146:45
	ldrb	r2, [r1, #20]
	.loc	5 146 16 is_stmt 0              @ ../Driver/ltdc.c:146:16
	movw	r0, :lower16:g_LCD_FrameBuff
	movt	r0, :upper16:g_LCD_FrameBuff
	ldr.w	r2, [r0, r2, lsl #2]
	.loc	5 146 71                        @ ../Driver/ltdc.c:146:71
	ldr	r0, [r1, #28]
	.loc	5 146 93                        @ ../Driver/ltdc.c:146:93
	ldr	r1, [r1]
	.loc	5 146 100                       @ ../Driver/ltdc.c:146:100
	ldr	r3, [sp, #24]
	.loc	5 146 104                       @ ../Driver/ltdc.c:146:104
	ldr.w	r12, [sp, #28]
	.loc	5 146 103                       @ ../Driver/ltdc.c:146:103
	mla	r1, r1, r3, r12
	.loc	5 146 57                        @ ../Driver/ltdc.c:146:57
	mla	r0, r0, r1, r2
	.loc	5 146 6                         @ ../Driver/ltdc.c:146:6
	str	r0, [sp, #4]
	.loc	5 147 2 is_stmt 1               @ ../Driver/ltdc.c:147:2
	b	.LBB7_4
.LBB7_4:
	.loc	5 0 2 is_stmt 0                 @ ../Driver/ltdc.c:0:2
	movs	r0, #0
.Ltmp59:
	.loc	5 147 2                         @ ../Driver/ltdc.c:147:2
	str	r0, [sp]
	movw	r0, #14384
	movt	r0, #16386
	ldr	r1, [r0]
	orr	r1, r1, #8388608
	str	r1, [r0]
	ldr	r0, [r0]
	and	r0, r0, #8388608
	str	r0, [sp]
	ldr	r0, [sp]
	b	.LBB7_5
.Ltmp60:
.LBB7_5:
	.loc	5 0 2                           @ ../Driver/ltdc.c:0:2
	movw	r1, #45056
	movt	r1, #16386
	.loc	5 148 11 is_stmt 1              @ ../Driver/ltdc.c:148:11
	ldr	r0, [r1]
	bic	r0, r0, #1
	str	r0, [r1]
	movs	r0, #0
	.loc	5 149 11                        @ ../Driver/ltdc.c:149:11
	str	r0, [r1]
	movw	r3, #45084
	movt	r3, #16386
	movs	r2, #2
	.loc	5 150 16                        @ ../Driver/ltdc.c:150:16
	str	r2, [r3]
	movw	r2, #45072
	movt	r2, #16386
	.loc	5 151 13                        @ ../Driver/ltdc.c:151:13
	str	r0, [r2]
	.loc	5 152 13                        @ ../Driver/ltdc.c:152:13
	ldrh.w	r0, [sp, #10]
	movw	r2, #45120
	movt	r2, #16386
	.loc	5 152 12 is_stmt 0              @ ../Driver/ltdc.c:152:12
	str	r0, [r2]
	.loc	5 154 23 is_stmt 1              @ ../Driver/ltdc.c:154:23
	ldr	r0, [sp, #40]
	movw	r2, #45068
	movt	r2, #16386
	.loc	5 154 14 is_stmt 0              @ ../Driver/ltdc.c:154:14
	str	r0, [r2]
	.loc	5 155 14 is_stmt 1              @ ../Driver/ltdc.c:155:14
	ldr	r0, [sp, #4]
	movw	r2, #45116
	movt	r2, #16386
	.loc	5 155 13 is_stmt 0              @ ../Driver/ltdc.c:155:13
	str	r0, [r2]
	.loc	5 156 14 is_stmt 1              @ ../Driver/ltdc.c:156:14
	ldr	r0, [sp, #16]
	.loc	5 156 18 is_stmt 0              @ ../Driver/ltdc.c:156:18
	ldr	r2, [sp, #24]
	.loc	5 156 17                        @ ../Driver/ltdc.c:156:17
	subs	r0, r0, r2
	.loc	5 156 21                        @ ../Driver/ltdc.c:156:21
	adds	r0, #1
	.loc	5 156 27                        @ ../Driver/ltdc.c:156:27
	ldr	r2, [sp, #20]
	.loc	5 156 31                        @ ../Driver/ltdc.c:156:31
	ldr	r3, [sp, #28]
	.loc	5 156 30                        @ ../Driver/ltdc.c:156:30
	subs	r2, r2, r3
	.loc	5 156 37                        @ ../Driver/ltdc.c:156:37
	adds	r2, #1
	.loc	5 156 24                        @ ../Driver/ltdc.c:156:24
	orr.w	r0, r0, r2, lsl #16
	movw	r2, #45124
	movt	r2, #16386
	.loc	5 156 12                        @ ../Driver/ltdc.c:156:12
	str	r0, [r2]
	.loc	5 157 11 is_stmt 1              @ ../Driver/ltdc.c:157:11
	ldr	r0, [r1]
	orr	r0, r0, #1
	str	r0, [r1]
	.loc	5 158 2                         @ ../Driver/ltdc.c:158:2
	b	.LBB7_6
.LBB7_6:                                @ =>This Inner Loop Header: Depth=1
	.loc	5 0 2 is_stmt 0                 @ ../Driver/ltdc.c:0:2
	movw	r0, #45060
	movt	r0, #16386
	.loc	5 158 16                        @ ../Driver/ltdc.c:158:16
	ldr	r0, [r0]
	.loc	5 158 2                         @ ../Driver/ltdc.c:158:2
	lsls	r0, r0, #30
	cmp	r0, #0
	bmi	.LBB7_10
	b	.LBB7_7
.LBB7_7:                                @   in Loop: Header=BB7_6 Depth=1
.Ltmp61:
	.loc	5 160 10 is_stmt 1              @ ../Driver/ltdc.c:160:10
	ldr	r0, [sp, #12]
	adds	r0, #1
	str	r0, [sp, #12]
.Ltmp62:
	.loc	5 161 6                         @ ../Driver/ltdc.c:161:6
	ldr	r0, [sp, #12]
.Ltmp63:
	.loc	5 161 6 is_stmt 0               @ ../Driver/ltdc.c:161:6
	cmp.w	r0, #2097152
	blo	.LBB7_9
	b	.LBB7_8
.LBB7_8:
.Ltmp64:
	.loc	5 161 23                        @ ../Driver/ltdc.c:161:23
	b	.LBB7_10
.Ltmp65:
.LBB7_9:                                @   in Loop: Header=BB7_6 Depth=1
	.loc	5 158 2 is_stmt 1               @ ../Driver/ltdc.c:158:2
	b	.LBB7_6
.LBB7_10:
	.loc	5 0 2 is_stmt 0                 @ ../Driver/ltdc.c:0:2
	movw	r1, #45064
	movt	r1, #16386
	.loc	5 163 13 is_stmt 1              @ ../Driver/ltdc.c:163:13
	ldr	r0, [r1]
	orr	r0, r0, #2
	str	r0, [r1]
	.loc	5 164 1                         @ ../Driver/ltdc.c:164:1
	add	sp, #40
	bx	lr
.Ltmp66:
.Lfunc_end7:
	.size	LTDC_Color_Fill, .Lfunc_end7-LTDC_Color_Fill
	.cfi_endproc
	.cantunwind
	.fnend
                                        @ -- End function
	.section	.text.LTDC_Clear,"ax",%progbits
	.hidden	LTDC_Clear                      @ -- Begin function LTDC_Clear
	.globl	LTDC_Clear
	.p2align	2
	.type	LTDC_Clear,%function
	.code	16                              @ @LTDC_Clear
	.thumb_func
LTDC_Clear:
.Lfunc_begin8:
	.loc	5 169 0                         @ ../Driver/ltdc.c:169:0
	.fnstart
	.cfi_startproc
@ %bb.0:
	.save	{r7, lr}
	push	{r7, lr}
	.cfi_def_cfa_offset 8
	.cfi_offset lr, -4
	.cfi_offset r7, -8
	.pad	#8
	sub	sp, #8
	.cfi_def_cfa_offset 16
	str	r0, [sp, #4]
.Ltmp67:
	.loc	5 170 29 prologue_end           @ ../Driver/ltdc.c:170:29
	movw	r0, :lower16:g_LCDCtrlMsg
	movt	r0, :upper16:g_LCDCtrlMsg
	.loc	5 170 16 is_stmt 0              @ ../Driver/ltdc.c:170:16
	ldrh	r1, [r0, #22]
	.loc	5 170 34                        @ ../Driver/ltdc.c:170:34
	subs	r1, #1
	.loc	5 170 37                        @ ../Driver/ltdc.c:170:37
	ldrh	r0, [r0, #24]
	.loc	5 170 56                        @ ../Driver/ltdc.c:170:56
	subs	r0, #1
	.loc	5 170 59                        @ ../Driver/ltdc.c:170:59
	ldr	r2, [sp, #4]
	.loc	5 170 2                         @ ../Driver/ltdc.c:170:2
	mov	r3, sp
	str	r2, [r3]
	uxth	r2, r1
	uxth	r3, r0
	movs	r1, #0
	mov	r0, r1
	bl	LTDC_Fill
	.loc	5 171 1 is_stmt 1               @ ../Driver/ltdc.c:171:1
	add	sp, #8
	pop	{r7, pc}
.Ltmp68:
.Lfunc_end8:
	.size	LTDC_Clear, .Lfunc_end8-LTDC_Clear
	.cfi_endproc
	.cantunwind
	.fnend
                                        @ -- End function
	.section	.text.LTDC_Clk_Set,"ax",%progbits
	.hidden	LTDC_Clk_Set                    @ -- Begin function LTDC_Clk_Set
	.globl	LTDC_Clk_Set
	.p2align	2
	.type	LTDC_Clk_Set,%function
	.code	16                              @ @LTDC_Clk_Set
	.thumb_func
LTDC_Clk_Set:
.Lfunc_begin9:
	.loc	5 187 0                         @ ../Driver/ltdc.c:187:0
	.fnstart
	.cfi_startproc
@ %bb.0:
	.save	{r7, lr}
	push	{r7, lr}
	.cfi_def_cfa_offset 8
	.cfi_offset lr, -4
	.cfi_offset r7, -8
	.pad	#64
	sub	sp, #64
	.cfi_def_cfa_offset 72
	str	r0, [sp, #56]
	str	r1, [sp, #52]
	str	r2, [sp, #48]
	movs	r0, #8
.Ltmp69:
	.loc	5 191 42 prologue_end           @ ../Driver/ltdc.c:191:42
	str	r0, [sp]
	.loc	5 192 34                        @ ../Driver/ltdc.c:192:34
	ldr	r0, [sp, #56]
	.loc	5 192 33 is_stmt 0              @ ../Driver/ltdc.c:192:33
	str	r0, [sp, #16]
	.loc	5 193 34 is_stmt 1              @ ../Driver/ltdc.c:193:34
	ldr	r0, [sp, #52]
	.loc	5 193 33 is_stmt 0              @ ../Driver/ltdc.c:193:33
	str	r0, [sp, #24]
	.loc	5 194 30 is_stmt 1              @ ../Driver/ltdc.c:194:30
	ldr	r0, [sp, #48]
	.loc	5 194 29 is_stmt 0              @ ../Driver/ltdc.c:194:29
	str	r0, [sp, #36]
	mov	r0, sp
.Ltmp70:
	.loc	5 195 5 is_stmt 1               @ ../Driver/ltdc.c:195:5
	bl	HAL_RCCEx_PeriphCLKConfig
.Ltmp71:
	.loc	5 195 5 is_stmt 0               @ ../Driver/ltdc.c:195:5
	cbnz	r0, .LBB9_2
	b	.LBB9_1
.LBB9_1:
	.loc	5 0 5                           @ ../Driver/ltdc.c:0:5
	movs	r0, #0
.Ltmp72:
	.loc	5 197 9 is_stmt 1               @ ../Driver/ltdc.c:197:9
	strb.w	r0, [sp, #63]
	b	.LBB9_3
.Ltmp73:
.LBB9_2:
	.loc	5 0 9 is_stmt 0                 @ ../Driver/ltdc.c:0:9
	movs	r0, #1
	.loc	5 199 10 is_stmt 1              @ ../Driver/ltdc.c:199:10
	strb.w	r0, [sp, #63]
	b	.LBB9_3
.Ltmp74:
.LBB9_3:
	.loc	5 200 1                         @ ../Driver/ltdc.c:200:1
	ldrb.w	r0, [sp, #63]
	add	sp, #64
	pop	{r7, pc}
.Ltmp75:
.Lfunc_end9:
	.size	LTDC_Clk_Set, .Lfunc_end9-LTDC_Clk_Set
	.cfi_endproc
	.cantunwind
	.fnend
                                        @ -- End function
	.section	.text.LTDC_Layer_Window_Config,"ax",%progbits
	.hidden	LTDC_Layer_Window_Config        @ -- Begin function LTDC_Layer_Window_Config
	.globl	LTDC_Layer_Window_Config
	.p2align	2
	.type	LTDC_Layer_Window_Config,%function
	.code	16                              @ @LTDC_Layer_Window_Config
	.thumb_func
LTDC_Layer_Window_Config:
.Lfunc_begin10:
	.loc	5 208 0                         @ ../Driver/ltdc.c:208:0
	.fnstart
	.cfi_startproc
@ %bb.0:
	.save	{r7, lr}
	push	{r7, lr}
	.cfi_def_cfa_offset 8
	.cfi_offset lr, -4
	.cfi_offset r7, -8
	.pad	#16
	sub	sp, #16
	.cfi_def_cfa_offset 24
	mov	r12, r0
	ldr	r0, [sp, #24]
                                        @ kill: def $lr killed $r3
                                        @ kill: def $lr killed $r2
                                        @ kill: def $lr killed $r1
                                        @ kill: def $lr killed $r12
	strb.w	r12, [sp, #15]
	strh.w	r1, [sp, #12]
	strh.w	r2, [sp, #10]
	strh.w	r3, [sp, #8]
	strh.w	r0, [sp, #6]
.Ltmp76:
	.loc	5 209 46 prologue_end           @ ../Driver/ltdc.c:209:46
	ldrh.w	r1, [sp, #12]
	.loc	5 209 49 is_stmt 0              @ ../Driver/ltdc.c:209:49
	ldrh.w	r2, [sp, #10]
	.loc	5 209 52                        @ ../Driver/ltdc.c:209:52
	ldrb.w	r3, [sp, #15]
	.loc	5 209 5                         @ ../Driver/ltdc.c:209:5
	movw	r0, :lower16:LTDC_Handler
	movt	r0, :upper16:LTDC_Handler
	str	r0, [sp]                        @ 4-byte Spill
	bl	HAL_LTDC_SetWindowPosition
                                        @ kill: def $r1 killed $r0
	.loc	5 210 42 is_stmt 1              @ ../Driver/ltdc.c:210:42
	ldr	r0, [sp]                        @ 4-byte Reload
	ldrh.w	r1, [sp, #8]
	.loc	5 210 48 is_stmt 0              @ ../Driver/ltdc.c:210:48
	ldrh.w	r2, [sp, #6]
	.loc	5 210 55                        @ ../Driver/ltdc.c:210:55
	ldrb.w	r3, [sp, #15]
	.loc	5 210 5                         @ ../Driver/ltdc.c:210:5
	bl	HAL_LTDC_SetWindowSize
	.loc	5 211 1 is_stmt 1               @ ../Driver/ltdc.c:211:1
	add	sp, #16
	pop	{r7, pc}
.Ltmp77:
.Lfunc_end10:
	.size	LTDC_Layer_Window_Config, .Lfunc_end10-LTDC_Layer_Window_Config
	.cfi_endproc
	.cantunwind
	.fnend
                                        @ -- End function
	.section	.text.LTDC_Layer_Parameter_Config,"ax",%progbits
	.hidden	LTDC_Layer_Parameter_Config     @ -- Begin function LTDC_Layer_Parameter_Config
	.globl	LTDC_Layer_Parameter_Config
	.p2align	2
	.type	LTDC_Layer_Parameter_Config,%function
	.code	16                              @ @LTDC_Layer_Parameter_Config
	.thumb_func
LTDC_Layer_Parameter_Config:
.Lfunc_begin11:
	.loc	5 225 0                         @ ../Driver/ltdc.c:225:0
	.fnstart
	.cfi_startproc
@ %bb.0:
	.save	{r4, r5, r7, lr}
	push	{r4, r5, r7, lr}
	.cfi_def_cfa_offset 16
	.cfi_offset lr, -4
	.cfi_offset r7, -8
	.cfi_offset r5, -12
	.cfi_offset r4, -16
	.pad	#72
	sub	sp, #72
	.cfi_def_cfa_offset 88
	mov	r12, r2
	mov	lr, r1
	mov	r4, r0
	ldr	r0, [sp, #100]
	ldr	r0, [sp, #96]
	ldr	r1, [sp, #92]
	ldr	r2, [sp, #88]
                                        @ kill: def $r5 killed $r3
                                        @ kill: def $r5 killed $r12
                                        @ kill: def $r5 killed $r4
	strb.w	r4, [sp, #71]
	str.w	lr, [sp, #64]
	strb.w	r12, [sp, #63]
	strb.w	r3, [sp, #62]
	strb.w	r2, [sp, #61]
	strb.w	r1, [sp, #60]
	strb.w	r0, [sp, #59]
	movs	r0, #0
.Ltmp78:
	.loc	5 228 20 prologue_end           @ ../Driver/ltdc.c:228:20
	str	r0, [sp, #4]
	.loc	5 229 20                        @ ../Driver/ltdc.c:229:20
	str	r0, [sp, #12]
	.loc	5 230 34                        @ ../Driver/ltdc.c:230:34
	movw	r1, :lower16:g_LCDCtrlMsg
	movt	r1, :upper16:g_LCDCtrlMsg
	ldr	r2, [r1]
	.loc	5 230 20 is_stmt 0              @ ../Driver/ltdc.c:230:20
	str	r2, [sp, #8]
	.loc	5 231 34 is_stmt 1              @ ../Driver/ltdc.c:231:34
	ldr	r2, [r1, #4]
	.loc	5 231 20 is_stmt 0              @ ../Driver/ltdc.c:231:20
	str	r2, [sp, #16]
	.loc	5 232 24 is_stmt 1              @ ../Driver/ltdc.c:232:24
	ldrb.w	r2, [sp, #63]
	.loc	5 232 23 is_stmt 0              @ ../Driver/ltdc.c:232:23
	str	r2, [sp, #20]
	.loc	5 233 18 is_stmt 1              @ ../Driver/ltdc.c:233:18
	ldrb.w	r2, [sp, #62]
	.loc	5 233 17 is_stmt 0              @ ../Driver/ltdc.c:233:17
	str	r2, [sp, #24]
	.loc	5 234 19 is_stmt 1              @ ../Driver/ltdc.c:234:19
	ldrb.w	r2, [sp, #61]
	.loc	5 234 18 is_stmt 0              @ ../Driver/ltdc.c:234:18
	str	r2, [sp, #28]
	.loc	5 235 36 is_stmt 1              @ ../Driver/ltdc.c:235:36
	ldrb.w	r2, [sp, #60]
	.loc	5 235 41 is_stmt 0              @ ../Driver/ltdc.c:235:41
	lsls	r2, r2, #8
	.loc	5 235 27                        @ ../Driver/ltdc.c:235:27
	str	r2, [sp, #32]
	.loc	5 236 36 is_stmt 1              @ ../Driver/ltdc.c:236:36
	ldrb.w	r2, [sp, #59]
	.loc	5 236 41 is_stmt 0              @ ../Driver/ltdc.c:236:41
	lsls	r2, r2, #8
	.loc	5 236 27                        @ ../Driver/ltdc.c:236:27
	str	r2, [sp, #36]
	.loc	5 237 26 is_stmt 1              @ ../Driver/ltdc.c:237:26
	ldr	r2, [sp, #64]
	.loc	5 237 25 is_stmt 0              @ ../Driver/ltdc.c:237:25
	str	r2, [sp, #40]
	.loc	5 238 36 is_stmt 1              @ ../Driver/ltdc.c:238:36
	ldr	r2, [r1]
	.loc	5 238 22 is_stmt 0              @ ../Driver/ltdc.c:238:22
	str	r2, [sp, #44]
	.loc	5 239 37 is_stmt 1              @ ../Driver/ltdc.c:239:37
	ldr	r1, [r1, #4]
	.loc	5 239 23 is_stmt 0              @ ../Driver/ltdc.c:239:23
	str	r1, [sp, #48]
	.loc	5 240 25 is_stmt 1              @ ../Driver/ltdc.c:240:25
	strb.w	r0, [sp, #54]
	.loc	5 241 27                        @ ../Driver/ltdc.c:241:27
	strb.w	r0, [sp, #53]
	.loc	5 242 34                        @ ../Driver/ltdc.c:242:34
	ldr	r0, [sp, #100]
	.loc	5 242 26 is_stmt 0              @ ../Driver/ltdc.c:242:26
	strb.w	r0, [sp, #52]
	.loc	5 243 48 is_stmt 1              @ ../Driver/ltdc.c:243:48
	ldrb.w	r2, [sp, #71]
	.loc	5 243 2 is_stmt 0               @ ../Driver/ltdc.c:243:2
	movw	r0, :lower16:LTDC_Handler
	movt	r0, :upper16:LTDC_Handler
	add	r1, sp, #4
	bl	HAL_LTDC_ConfigLayer
	.loc	5 244 1 is_stmt 1               @ ../Driver/ltdc.c:244:1
	add	sp, #72
	pop	{r4, r5, r7, pc}
.Ltmp79:
.Lfunc_end11:
	.size	LTDC_Layer_Parameter_Config, .Lfunc_end11-LTDC_Layer_Parameter_Config
	.cfi_endproc
	.cantunwind
	.fnend
                                        @ -- End function
	.section	.text.LTDC_Init,"ax",%progbits
	.hidden	LTDC_Init                       @ -- Begin function LTDC_Init
	.globl	LTDC_Init
	.p2align	2
	.type	LTDC_Init,%function
	.code	16                              @ @LTDC_Init
	.thumb_func
LTDC_Init:
.Lfunc_begin12:
	.loc	5 248 0                         @ ../Driver/ltdc.c:248:0
	.fnstart
	.cfi_startproc
@ %bb.0:
	.save	{r7, lr}
	push	{r7, lr}
	.cfi_def_cfa_offset 8
	.cfi_offset lr, -4
	.cfi_offset r7, -8
	.pad	#40
	sub	sp, #40
	.cfi_def_cfa_offset 48
	movs	r0, #100
	movs	r1, #2
	str	r1, [sp, #24]                   @ 4-byte Spill
	movs	r2, #0
.Ltmp80:
	.loc	5 249 5 prologue_end            @ ../Driver/ltdc.c:249:5
	str	r2, [sp, #32]                   @ 4-byte Spill
	bl	LTDC_Clk_Set
	ldr	r1, [sp, #32]                   @ 4-byte Reload
                                        @ kill: def $r2 killed $r0
	.loc	5 251 24                        @ ../Driver/ltdc.c:251:24
	ldr	r0, [sp, #24]                   @ 4-byte Reload
	movw	r3, :lower16:g_LCDCtrlMsg
	movt	r3, :upper16:g_LCDCtrlMsg
	str	r3, [sp, #28]                   @ 4-byte Spill
	mov.w	r2, #480
	str	r2, [r3]
	mov.w	r2, #800
	.loc	5 252 25                        @ ../Driver/ltdc.c:252:25
	str	r2, [r3, #4]
	.loc	5 253 21                        @ ../Driver/ltdc.c:253:21
	strh	r0, [r3, #8]
	movs	r2, #7
	.loc	5 254 21                        @ ../Driver/ltdc.c:254:21
	str	r2, [sp, #20]                   @ 4-byte Spill
	strh	r2, [r3, #10]
	.loc	5 255 21                        @ ../Driver/ltdc.c:255:21
	strh	r0, [r3, #12]
	.loc	5 256 21                        @ ../Driver/ltdc.c:256:21
	strh	r0, [r3, #14]
	movs	r2, #18
	.loc	5 257 21                        @ ../Driver/ltdc.c:257:21
	strh	r2, [r3, #16]
	movs	r2, #8
	.loc	5 258 21                        @ ../Driver/ltdc.c:258:21
	strh	r2, [r3, #18]
	.loc	5 259 25                        @ ../Driver/ltdc.c:259:25
	str	r0, [r3, #28]
	.loc	5 260 20                        @ ../Driver/ltdc.c:260:20
	movw	r2, :lower16:g_LCD_FrameBuff
	movt	r2, :upper16:g_LCD_FrameBuff
	str	r2, [sp, #16]                   @ 4-byte Spill
	movw	r0, :lower16:g_LCD_Cache
	movt	r0, :upper16:g_LCD_Cache
	str	r0, [r2]
	.loc	5 263 26                        @ ../Driver/ltdc.c:263:26
	movw	r0, :lower16:LTDC_Handler
	movt	r0, :upper16:LTDC_Handler
	movw	r2, #26624
	movt	r2, #16385
	str	r2, [r0]
	.loc	5 264 33                        @ ../Driver/ltdc.c:264:33
	str	r1, [r0, #4]
	.loc	5 265 33                        @ ../Driver/ltdc.c:265:33
	str	r1, [r0, #8]
	.loc	5 266 33                        @ ../Driver/ltdc.c:266:33
	str	r1, [r0, #12]
	.loc	5 267 30                        @ ../Driver/ltdc.c:267:30
	str	r1, [r0, #16]
	.loc	5 268 51                        @ ../Driver/ltdc.c:268:51
	ldrh	r2, [r3, #8]
	.loc	5 268 54 is_stmt 0              @ ../Driver/ltdc.c:268:54
	subs	r2, #1
	.loc	5 268 37                        @ ../Driver/ltdc.c:268:37
	str	r2, [r0, #20]
	.loc	5 269 49 is_stmt 1              @ ../Driver/ltdc.c:269:49
	ldrh	r2, [r3, #10]
	.loc	5 269 52 is_stmt 0              @ ../Driver/ltdc.c:269:52
	subs	r2, #1
	.loc	5 269 35                        @ ../Driver/ltdc.c:269:35
	str	r2, [r0, #24]
	.loc	5 270 51 is_stmt 1              @ ../Driver/ltdc.c:270:51
	ldrh	r2, [r3, #8]
	.loc	5 270 68 is_stmt 0              @ ../Driver/ltdc.c:270:68
	ldrh.w	r12, [r3, #12]
	.loc	5 270 54                        @ ../Driver/ltdc.c:270:54
	add	r2, r12
	.loc	5 270 71                        @ ../Driver/ltdc.c:270:71
	subs	r2, #1
	.loc	5 270 37                        @ ../Driver/ltdc.c:270:37
	str	r2, [r0, #28]
	.loc	5 271 51 is_stmt 1              @ ../Driver/ltdc.c:271:51
	ldrh	r2, [r3, #10]
	.loc	5 271 68 is_stmt 0              @ ../Driver/ltdc.c:271:68
	ldrh.w	r12, [r3, #14]
	.loc	5 271 54                        @ ../Driver/ltdc.c:271:54
	add	r2, r12
	.loc	5 271 71                        @ ../Driver/ltdc.c:271:71
	subs	r2, #1
	.loc	5 271 37                        @ ../Driver/ltdc.c:271:37
	str	r2, [r0, #32]
	.loc	5 272 55 is_stmt 1              @ ../Driver/ltdc.c:272:55
	ldrh	r2, [r3, #8]
	.loc	5 272 72 is_stmt 0              @ ../Driver/ltdc.c:272:72
	ldrh.w	r12, [r3, #12]
	.loc	5 272 58                        @ ../Driver/ltdc.c:272:58
	add	r2, r12
	.loc	5 272 89                        @ ../Driver/ltdc.c:272:89
	ldr.w	r12, [r3]
	.loc	5 272 75                        @ ../Driver/ltdc.c:272:75
	add	r2, r12
	.loc	5 272 95                        @ ../Driver/ltdc.c:272:95
	subs	r2, #1
	.loc	5 272 41                        @ ../Driver/ltdc.c:272:41
	str	r2, [r0, #36]
	.loc	5 273 55 is_stmt 1              @ ../Driver/ltdc.c:273:55
	ldrh	r2, [r3, #10]
	.loc	5 273 72 is_stmt 0              @ ../Driver/ltdc.c:273:72
	ldrh.w	r12, [r3, #14]
	.loc	5 273 58                        @ ../Driver/ltdc.c:273:58
	add	r2, r12
	.loc	5 273 89                        @ ../Driver/ltdc.c:273:89
	ldr.w	r12, [r3, #4]
	.loc	5 273 75                        @ ../Driver/ltdc.c:273:75
	add	r2, r12
	.loc	5 273 96                        @ ../Driver/ltdc.c:273:96
	subs	r2, #1
	.loc	5 273 41                        @ ../Driver/ltdc.c:273:41
	str	r2, [r0, #40]
	.loc	5 274 47 is_stmt 1              @ ../Driver/ltdc.c:274:47
	ldrh	r2, [r3, #8]
	.loc	5 274 64 is_stmt 0              @ ../Driver/ltdc.c:274:64
	ldrh.w	r12, [r3, #12]
	.loc	5 274 50                        @ ../Driver/ltdc.c:274:50
	add	r2, r12
	.loc	5 274 81                        @ ../Driver/ltdc.c:274:81
	ldr.w	r12, [r3]
	.loc	5 274 67                        @ ../Driver/ltdc.c:274:67
	add	r2, r12
	.loc	5 274 101                       @ ../Driver/ltdc.c:274:101
	ldrh.w	r12, [r3, #16]
	.loc	5 274 87                        @ ../Driver/ltdc.c:274:87
	add	r2, r12
	.loc	5 274 104                       @ ../Driver/ltdc.c:274:104
	subs	r2, #1
	.loc	5 274 33                        @ ../Driver/ltdc.c:274:33
	str	r2, [r0, #44]
	.loc	5 275 47 is_stmt 1              @ ../Driver/ltdc.c:275:47
	ldrh	r2, [r3, #10]
	.loc	5 275 64 is_stmt 0              @ ../Driver/ltdc.c:275:64
	ldrh.w	r12, [r3, #14]
	.loc	5 275 50                        @ ../Driver/ltdc.c:275:50
	add	r2, r12
	.loc	5 275 81                        @ ../Driver/ltdc.c:275:81
	ldr.w	r12, [r3, #4]
	.loc	5 275 67                        @ ../Driver/ltdc.c:275:67
	add	r2, r12
	.loc	5 275 102                       @ ../Driver/ltdc.c:275:102
	ldrh	r3, [r3, #18]
	.loc	5 275 88                        @ ../Driver/ltdc.c:275:88
	add	r2, r3
	.loc	5 275 105                       @ ../Driver/ltdc.c:275:105
	subs	r2, #1
	.loc	5 275 33                        @ ../Driver/ltdc.c:275:33
	str	r2, [r0, #48]
	.loc	5 276 36 is_stmt 1              @ ../Driver/ltdc.c:276:36
	strb.w	r1, [r0, #54]
	.loc	5 277 38                        @ ../Driver/ltdc.c:277:38
	strb.w	r1, [r0, #53]
	.loc	5 278 37                        @ ../Driver/ltdc.c:278:37
	strb.w	r1, [r0, #52]
	.loc	5 279 5                         @ ../Driver/ltdc.c:279:5
	bl	HAL_LTDC_Init
	ldr	r1, [sp, #16]                   @ 4-byte Reload
	ldr.w	r12, [sp, #20]                  @ 4-byte Reload
	ldr	r2, [sp, #24]                   @ 4-byte Reload
                                        @ kill: def $r3 killed $r0
	.loc	5 282 40                        @ ../Driver/ltdc.c:282:40
	ldr	r0, [sp, #32]                   @ 4-byte Reload
	ldr	r1, [r1]
	.loc	5 282 2 is_stmt 0               @ ../Driver/ltdc.c:282:2
	mov	r3, sp
	str	r0, [r3, #12]
	str.w	r12, [r3, #8]
	mov.w	r12, #6
	str.w	r12, [r3, #4]
	str	r0, [r3]
	movs	r3, #255
	bl	LTDC_Layer_Parameter_Config
	ldr	r0, [sp, #28]                   @ 4-byte Reload
	ldr	r2, [sp, #32]                   @ 4-byte Reload
	.loc	5 283 46 is_stmt 1              @ ../Driver/ltdc.c:283:46
	ldrh	r3, [r0]
	.loc	5 283 66 is_stmt 0              @ ../Driver/ltdc.c:283:66
	ldrh	r0, [r0, #4]
	.loc	5 283 2                         @ ../Driver/ltdc.c:283:2
	mov	r1, sp
	str	r0, [r1]
	mov	r0, r2
	mov	r1, r2
	bl	LTDC_Layer_Window_Config
	movs	r0, #1
	.loc	5 285 3 is_stmt 1               @ ../Driver/ltdc.c:285:3
	str	r0, [sp, #36]                   @ 4-byte Spill
	bl	LTDC_Display_Dir
	ldr	r0, [sp, #32]                   @ 4-byte Reload
	.loc	5 286 2                         @ ../Driver/ltdc.c:286:2
	bl	LTDC_Select_Layer
	ldr	r2, [sp, #36]                   @ 4-byte Reload
	movw	r0, #1024
	movt	r0, #16386
	movs	r1, #32
	.loc	5 287 5                         @ ../Driver/ltdc.c:287:5
	bl	HAL_GPIO_WritePin
	mov.w	r0, #-1
	.loc	5 288 5                         @ ../Driver/ltdc.c:288:5
	bl	LTDC_Clear
	.loc	5 289 5                         @ ../Driver/ltdc.c:289:5
	bl	LTDC_Para_Init
	.loc	5 290 1                         @ ../Driver/ltdc.c:290:1
	add	sp, #40
	pop	{r7, pc}
.Ltmp81:
.Lfunc_end12:
	.size	LTDC_Init, .Lfunc_end12-LTDC_Init
	.cfi_endproc
	.cantunwind
	.fnend
                                        @ -- End function
	.section	.text.LTDC_Para_Init,"ax",%progbits
	.p2align	2                               @ -- Begin function LTDC_Para_Init
	.type	LTDC_Para_Init,%function
	.code	16                              @ @LTDC_Para_Init
	.thumb_func
LTDC_Para_Init:
.Lfunc_begin13:
	.loc	5 389 0                         @ ../Driver/ltdc.c:389:0
	.fnstart
	.cfi_startproc
@ %bb.0:
	.save	{r7, lr}
	push	{r7, lr}
	.cfi_def_cfa_offset 8
	.cfi_offset lr, -4
	.cfi_offset r7, -8
	.pad	#80
	sub	sp, #80
	.cfi_def_cfa_offset 88
	movw	r0, #7168
	movt	r0, #16386
	str	r0, [sp, #4]                    @ 4-byte Spill
	movs	r1, #128
	str	r1, [sp, #8]                    @ 4-byte Spill
	movs	r2, #1
.Ltmp82:
	.loc	5 390 5 prologue_end            @ ../Driver/ltdc.c:390:5
	str	r2, [sp, #36]                   @ 4-byte Spill
	bl	HAL_GPIO_WritePin
	movs	r0, #20
	.loc	5 391 5                         @ ../Driver/ltdc.c:391:5
	str	r0, [sp, #56]                   @ 4-byte Spill
	bl	HAL_Delay
	ldr	r0, [sp, #4]                    @ 4-byte Reload
	ldr	r1, [sp, #8]                    @ 4-byte Reload
	movs	r2, #0
	.loc	5 392 5                         @ ../Driver/ltdc.c:392:5
	str	r2, [sp, #28]                   @ 4-byte Spill
	bl	HAL_GPIO_WritePin
	movs	r0, #32
	.loc	5 394 5                         @ ../Driver/ltdc.c:394:5
	bl	SPI_WriteComm
	movs	r0, #41
	.loc	5 395 2                         @ ../Driver/ltdc.c:395:2
	bl	SPI_WriteComm
	movs	r0, #58
	.loc	5 396 2                         @ ../Driver/ltdc.c:396:2
	str	r0, [sp, #68]                   @ 4-byte Spill
	bl	SPI_WriteComm
	movs	r0, #119
	.loc	5 397 2                         @ ../Driver/ltdc.c:397:2
	str	r0, [sp, #72]                   @ 4-byte Spill
	bl	SPI_WriteData
	movs	r0, #177
	.loc	5 399 2                         @ ../Driver/ltdc.c:399:2
	bl	SPI_WriteComm
	ldr	r0, [sp, #28]                   @ 4-byte Reload
	.loc	5 400 2                         @ ../Driver/ltdc.c:400:2
	bl	SPI_WriteData
	ldr	r0, [sp, #56]                   @ 4-byte Reload
	.loc	5 401 2                         @ ../Driver/ltdc.c:401:2
	bl	SPI_WriteData
	movs	r0, #6
	.loc	5 402 2                         @ ../Driver/ltdc.c:402:2
	bl	SPI_WriteData
	movs	r0, #178
	.loc	5 404 2                         @ ../Driver/ltdc.c:404:2
	bl	SPI_WriteComm
	movs	r0, #16
	.loc	5 405 2                         @ ../Driver/ltdc.c:405:2
	str	r0, [sp, #16]                   @ 4-byte Spill
	bl	SPI_WriteData
	movs	r0, #200
	.loc	5 406 2                         @ ../Driver/ltdc.c:406:2
	bl	SPI_WriteData
	movs	r0, #179
	.loc	5 408 2                         @ ../Driver/ltdc.c:408:2
	bl	SPI_WriteComm
	ldr	r0, [sp, #28]                   @ 4-byte Reload
	.loc	5 411 2                         @ ../Driver/ltdc.c:411:2
	bl	SPI_WriteData
	movs	r0, #180
	.loc	5 413 2                         @ ../Driver/ltdc.c:413:2
	bl	SPI_WriteComm
	movs	r0, #4
	.loc	5 414 2                         @ ../Driver/ltdc.c:414:2
	str	r0, [sp, #24]                   @ 4-byte Spill
	bl	SPI_WriteData
	movs	r0, #181
	.loc	5 416 2                         @ ../Driver/ltdc.c:416:2
	bl	SPI_WriteComm
	ldr	r0, [sp, #16]                   @ 4-byte Reload
	.loc	5 417 2                         @ ../Driver/ltdc.c:417:2
	bl	SPI_WriteData
	movs	r0, #48
	.loc	5 418 2                         @ ../Driver/ltdc.c:418:2
	str	r0, [sp, #12]                   @ 4-byte Spill
	bl	SPI_WriteData
	ldr	r0, [sp, #12]                   @ 4-byte Reload
	.loc	5 419 2                         @ ../Driver/ltdc.c:419:2
	bl	SPI_WriteData
	ldr	r0, [sp, #28]                   @ 4-byte Reload
	.loc	5 420 2                         @ ../Driver/ltdc.c:420:2
	bl	SPI_WriteData
	ldr	r0, [sp, #28]                   @ 4-byte Reload
	.loc	5 421 2                         @ ../Driver/ltdc.c:421:2
	bl	SPI_WriteData
	movs	r0, #182
	.loc	5 423 2                         @ ../Driver/ltdc.c:423:2
	bl	SPI_WriteComm
	ldr	r0, [sp, #36]                   @ 4-byte Reload
	.loc	5 424 2                         @ ../Driver/ltdc.c:424:2
	bl	SPI_WriteData
	movs	r0, #24
	.loc	5 425 2                         @ ../Driver/ltdc.c:425:2
	str	r0, [sp, #20]                   @ 4-byte Spill
	bl	SPI_WriteData
	movs	r0, #2
	.loc	5 426 2                         @ ../Driver/ltdc.c:426:2
	str	r0, [sp, #48]                   @ 4-byte Spill
	bl	SPI_WriteData
	movs	r0, #64
	.loc	5 427 2                         @ ../Driver/ltdc.c:427:2
	bl	SPI_WriteData
	ldr	r0, [sp, #16]                   @ 4-byte Reload
	.loc	5 428 2                         @ ../Driver/ltdc.c:428:2
	bl	SPI_WriteData
	ldr	r0, [sp, #28]                   @ 4-byte Reload
	.loc	5 429 2                         @ ../Driver/ltdc.c:429:2
	bl	SPI_WriteData
	movs	r0, #192
	.loc	5 431 2                         @ ../Driver/ltdc.c:431:2
	bl	SPI_WriteComm
	ldr	r0, [sp, #36]                   @ 4-byte Reload
	.loc	5 432 2                         @ ../Driver/ltdc.c:432:2
	bl	SPI_WriteData
	ldr	r0, [sp, #20]                   @ 4-byte Reload
	.loc	5 433 2                         @ ../Driver/ltdc.c:433:2
	bl	SPI_WriteData
	movs	r0, #195
	.loc	5 436 2                         @ ../Driver/ltdc.c:436:2
	bl	SPI_WriteComm
	movs	r0, #3
	.loc	5 437 2                         @ ../Driver/ltdc.c:437:2
	str	r0, [sp, #60]                   @ 4-byte Spill
	bl	SPI_WriteData
	ldr	r0, [sp, #24]                   @ 4-byte Reload
	.loc	5 438 2                         @ ../Driver/ltdc.c:438:2
	bl	SPI_WriteData
	ldr	r0, [sp, #60]                   @ 4-byte Reload
	.loc	5 439 2                         @ ../Driver/ltdc.c:439:2
	bl	SPI_WriteData
	ldr	r0, [sp, #60]                   @ 4-byte Reload
	.loc	5 440 2                         @ ../Driver/ltdc.c:440:2
	bl	SPI_WriteData
	ldr	r0, [sp, #60]                   @ 4-byte Reload
	.loc	5 441 2                         @ ../Driver/ltdc.c:441:2
	bl	SPI_WriteData
	movs	r0, #40
	.loc	5 443 2                         @ ../Driver/ltdc.c:443:2
	bl	HAL_Delay
	movs	r0, #196
	.loc	5 445 2                         @ ../Driver/ltdc.c:445:2
	bl	SPI_WriteComm
	ldr	r0, [sp, #48]                   @ 4-byte Reload
	.loc	5 446 2                         @ ../Driver/ltdc.c:446:2
	bl	SPI_WriteData
	movs	r0, #35
	.loc	5 447 2                         @ ../Driver/ltdc.c:447:2
	bl	SPI_WriteData
	movs	r0, #17
	.loc	5 448 2                         @ ../Driver/ltdc.c:448:2
	str	r0, [sp, #64]                   @ 4-byte Spill
	bl	SPI_WriteData
	movs	r0, #18
	.loc	5 449 2                         @ ../Driver/ltdc.c:449:2
	bl	SPI_WriteData
	ldr	r0, [sp, #48]                   @ 4-byte Reload
	.loc	5 450 2                         @ ../Driver/ltdc.c:450:2
	bl	SPI_WriteData
	ldr	r0, [sp, #72]                   @ 4-byte Reload
	.loc	5 451 2                         @ ../Driver/ltdc.c:451:2
	bl	SPI_WriteData
	ldr	r0, [sp, #56]                   @ 4-byte Reload
	.loc	5 452 2                         @ ../Driver/ltdc.c:452:2
	bl	HAL_Delay
	movs	r0, #197
	.loc	5 454 2                         @ ../Driver/ltdc.c:454:2
	bl	SPI_WriteComm
	movs	r0, #115
	.loc	5 455 2                         @ ../Driver/ltdc.c:455:2
	bl	SPI_WriteData
	movs	r0, #10
	.loc	5 456 2                         @ ../Driver/ltdc.c:456:2
	str	r0, [sp, #76]                   @ 4-byte Spill
	bl	HAL_Delay
	movs	r0, #198
	.loc	5 458 2                         @ ../Driver/ltdc.c:458:2
	bl	SPI_WriteComm
	movs	r0, #36
	.loc	5 459 2                         @ ../Driver/ltdc.c:459:2
	bl	SPI_WriteData
	movs	r0, #96
	.loc	5 460 2                         @ ../Driver/ltdc.c:460:2
	bl	SPI_WriteData
	ldr	r0, [sp, #28]                   @ 4-byte Reload
	.loc	5 461 2                         @ ../Driver/ltdc.c:461:2
	bl	SPI_WriteData
	ldr	r0, [sp, #76]                   @ 4-byte Reload
	.loc	5 462 2                         @ ../Driver/ltdc.c:462:2
	bl	HAL_Delay
	movs	r0, #208
	.loc	5 464 2                         @ ../Driver/ltdc.c:464:2
	bl	SPI_WriteComm
	ldr	r0, [sp, #56]                   @ 4-byte Reload
	.loc	5 465 2                         @ ../Driver/ltdc.c:465:2
	bl	SPI_WriteData
	ldr	r0, [sp, #36]                   @ 4-byte Reload
	.loc	5 466 2                         @ ../Driver/ltdc.c:466:2
	bl	SPI_WriteData
	movs	r0, #83
	.loc	5 467 2                         @ ../Driver/ltdc.c:467:2
	str	r0, [sp, #40]                   @ 4-byte Spill
	bl	SPI_WriteData
	movs	r0, #37
	.loc	5 468 2                         @ ../Driver/ltdc.c:468:2
	str	r0, [sp, #32]                   @ 4-byte Spill
	bl	SPI_WriteData
	ldr	r0, [sp, #48]                   @ 4-byte Reload
	.loc	5 469 2                         @ ../Driver/ltdc.c:469:2
	bl	SPI_WriteData
	ldr	r0, [sp, #48]                   @ 4-byte Reload
	.loc	5 470 2                         @ ../Driver/ltdc.c:470:2
	bl	SPI_WriteData
	movs	r0, #102
	.loc	5 471 2                         @ ../Driver/ltdc.c:471:2
	str	r0, [sp, #52]                   @ 4-byte Spill
	bl	SPI_WriteData
	ldr	r0, [sp, #56]                   @ 4-byte Reload
	.loc	5 472 2                         @ ../Driver/ltdc.c:472:2
	bl	SPI_WriteData
	ldr	r0, [sp, #60]                   @ 4-byte Reload
	.loc	5 473 2                         @ ../Driver/ltdc.c:473:2
	bl	SPI_WriteData
	movs	r0, #209
	.loc	5 475 2                         @ ../Driver/ltdc.c:475:2
	bl	SPI_WriteComm
	ldr	r0, [sp, #56]                   @ 4-byte Reload
	.loc	5 476 2                         @ ../Driver/ltdc.c:476:2
	bl	SPI_WriteData
	ldr	r0, [sp, #36]                   @ 4-byte Reload
	.loc	5 477 2                         @ ../Driver/ltdc.c:477:2
	bl	SPI_WriteData
	ldr	r0, [sp, #40]                   @ 4-byte Reload
	.loc	5 478 2                         @ ../Driver/ltdc.c:478:2
	bl	SPI_WriteData
	movs	r0, #7
	.loc	5 479 2                         @ ../Driver/ltdc.c:479:2
	str	r0, [sp, #44]                   @ 4-byte Spill
	bl	SPI_WriteData
	ldr	r0, [sp, #48]                   @ 4-byte Reload
	.loc	5 480 2                         @ ../Driver/ltdc.c:480:2
	bl	SPI_WriteData
	ldr	r0, [sp, #48]                   @ 4-byte Reload
	.loc	5 481 2                         @ ../Driver/ltdc.c:481:2
	bl	SPI_WriteData
	ldr	r0, [sp, #52]                   @ 4-byte Reload
	.loc	5 482 2                         @ ../Driver/ltdc.c:482:2
	bl	SPI_WriteData
	ldr	r0, [sp, #56]                   @ 4-byte Reload
	.loc	5 483 2                         @ ../Driver/ltdc.c:483:2
	bl	SPI_WriteData
	ldr	r0, [sp, #60]                   @ 4-byte Reload
	.loc	5 484 2                         @ ../Driver/ltdc.c:484:2
	bl	SPI_WriteData
	movs	r0, #210
	.loc	5 488 2                         @ ../Driver/ltdc.c:488:2
	bl	SPI_WriteComm
	ldr	r0, [sp, #56]                   @ 4-byte Reload
	.loc	5 489 2                         @ ../Driver/ltdc.c:489:2
	bl	SPI_WriteData
	ldr	r0, [sp, #36]                   @ 4-byte Reload
	.loc	5 490 2                         @ ../Driver/ltdc.c:490:2
	bl	SPI_WriteData
	ldr	r0, [sp, #40]                   @ 4-byte Reload
	.loc	5 491 2                         @ ../Driver/ltdc.c:491:2
	bl	SPI_WriteData
	ldr	r0, [sp, #32]                   @ 4-byte Reload
	.loc	5 492 2                         @ ../Driver/ltdc.c:492:2
	bl	SPI_WriteData
	ldr	r0, [sp, #48]                   @ 4-byte Reload
	.loc	5 493 2                         @ ../Driver/ltdc.c:493:2
	bl	SPI_WriteData
	ldr	r0, [sp, #48]                   @ 4-byte Reload
	.loc	5 494 2                         @ ../Driver/ltdc.c:494:2
	bl	SPI_WriteData
	ldr	r0, [sp, #52]                   @ 4-byte Reload
	.loc	5 495 2                         @ ../Driver/ltdc.c:495:2
	bl	SPI_WriteData
	ldr	r0, [sp, #56]                   @ 4-byte Reload
	.loc	5 496 2                         @ ../Driver/ltdc.c:496:2
	bl	SPI_WriteData
	ldr	r0, [sp, #60]                   @ 4-byte Reload
	.loc	5 497 2                         @ ../Driver/ltdc.c:497:2
	bl	SPI_WriteData
	movs	r0, #211
	.loc	5 499 2                         @ ../Driver/ltdc.c:499:2
	bl	SPI_WriteComm
	ldr	r0, [sp, #56]                   @ 4-byte Reload
	.loc	5 500 2                         @ ../Driver/ltdc.c:500:2
	bl	SPI_WriteData
	ldr	r0, [sp, #36]                   @ 4-byte Reload
	.loc	5 501 2                         @ ../Driver/ltdc.c:501:2
	bl	SPI_WriteData
	ldr	r0, [sp, #40]                   @ 4-byte Reload
	.loc	5 502 2                         @ ../Driver/ltdc.c:502:2
	bl	SPI_WriteData
	ldr	r0, [sp, #44]                   @ 4-byte Reload
	.loc	5 503 2                         @ ../Driver/ltdc.c:503:2
	bl	SPI_WriteData
	ldr	r0, [sp, #48]                   @ 4-byte Reload
	.loc	5 504 2                         @ ../Driver/ltdc.c:504:2
	bl	SPI_WriteData
	ldr	r0, [sp, #48]                   @ 4-byte Reload
	.loc	5 505 2                         @ ../Driver/ltdc.c:505:2
	bl	SPI_WriteData
	ldr	r0, [sp, #52]                   @ 4-byte Reload
	.loc	5 506 2                         @ ../Driver/ltdc.c:506:2
	bl	SPI_WriteData
	ldr	r0, [sp, #56]                   @ 4-byte Reload
	.loc	5 507 2                         @ ../Driver/ltdc.c:507:2
	bl	SPI_WriteData
	ldr	r0, [sp, #60]                   @ 4-byte Reload
	.loc	5 508 2                         @ ../Driver/ltdc.c:508:2
	bl	SPI_WriteData
	movs	r0, #212
	.loc	5 511 2                         @ ../Driver/ltdc.c:511:2
	bl	SPI_WriteComm
	ldr	r0, [sp, #56]                   @ 4-byte Reload
	.loc	5 512 2                         @ ../Driver/ltdc.c:512:2
	bl	SPI_WriteData
	ldr	r0, [sp, #36]                   @ 4-byte Reload
	.loc	5 513 2                         @ ../Driver/ltdc.c:513:2
	bl	SPI_WriteData
	ldr	r0, [sp, #40]                   @ 4-byte Reload
	.loc	5 514 2                         @ ../Driver/ltdc.c:514:2
	bl	SPI_WriteData
	ldr	r0, [sp, #32]                   @ 4-byte Reload
	.loc	5 515 2                         @ ../Driver/ltdc.c:515:2
	bl	SPI_WriteData
	ldr	r0, [sp, #48]                   @ 4-byte Reload
	.loc	5 516 2                         @ ../Driver/ltdc.c:516:2
	bl	SPI_WriteData
	ldr	r0, [sp, #48]                   @ 4-byte Reload
	.loc	5 517 2                         @ ../Driver/ltdc.c:517:2
	bl	SPI_WriteData
	ldr	r0, [sp, #52]                   @ 4-byte Reload
	.loc	5 518 2                         @ ../Driver/ltdc.c:518:2
	bl	SPI_WriteData
	ldr	r0, [sp, #56]                   @ 4-byte Reload
	.loc	5 519 2                         @ ../Driver/ltdc.c:519:2
	bl	SPI_WriteData
	ldr	r0, [sp, #60]                   @ 4-byte Reload
	.loc	5 520 2                         @ ../Driver/ltdc.c:520:2
	bl	SPI_WriteData
	movs	r0, #213
	.loc	5 522 2                         @ ../Driver/ltdc.c:522:2
	bl	SPI_WriteComm
	ldr	r0, [sp, #56]                   @ 4-byte Reload
	.loc	5 523 2                         @ ../Driver/ltdc.c:523:2
	bl	SPI_WriteData
	ldr	r0, [sp, #36]                   @ 4-byte Reload
	.loc	5 524 2                         @ ../Driver/ltdc.c:524:2
	bl	SPI_WriteData
	ldr	r0, [sp, #40]                   @ 4-byte Reload
	.loc	5 525 2                         @ ../Driver/ltdc.c:525:2
	bl	SPI_WriteData
	ldr	r0, [sp, #44]                   @ 4-byte Reload
	.loc	5 526 2                         @ ../Driver/ltdc.c:526:2
	bl	SPI_WriteData
	ldr	r0, [sp, #48]                   @ 4-byte Reload
	.loc	5 527 2                         @ ../Driver/ltdc.c:527:2
	bl	SPI_WriteData
	ldr	r0, [sp, #48]                   @ 4-byte Reload
	.loc	5 528 2                         @ ../Driver/ltdc.c:528:2
	bl	SPI_WriteData
	ldr	r0, [sp, #52]                   @ 4-byte Reload
	.loc	5 529 2                         @ ../Driver/ltdc.c:529:2
	bl	SPI_WriteData
	ldr	r0, [sp, #56]                   @ 4-byte Reload
	.loc	5 530 2                         @ ../Driver/ltdc.c:530:2
	bl	SPI_WriteData
	ldr	r0, [sp, #60]                   @ 4-byte Reload
	.loc	5 531 2                         @ ../Driver/ltdc.c:531:2
	bl	SPI_WriteData
	ldr	r0, [sp, #64]                   @ 4-byte Reload
	.loc	5 534 2                         @ ../Driver/ltdc.c:534:2
	bl	SPI_WriteComm
	ldr	r0, [sp, #76]                   @ 4-byte Reload
	.loc	5 535 2                         @ ../Driver/ltdc.c:535:2
	bl	HAL_Delay
	ldr	r0, [sp, #68]                   @ 4-byte Reload
	.loc	5 537 2                         @ ../Driver/ltdc.c:537:2
	bl	SPI_WriteComm
	ldr	r0, [sp, #72]                   @ 4-byte Reload
	.loc	5 537 23 is_stmt 0              @ ../Driver/ltdc.c:537:23
	bl	SPI_WriteData
	movs	r0, #54
	.loc	5 538 2 is_stmt 1               @ ../Driver/ltdc.c:538:2
	bl	SPI_WriteComm
	ldr	r0, [sp, #76]                   @ 4-byte Reload
	.loc	5 538 23 is_stmt 0              @ ../Driver/ltdc.c:538:23
	bl	SPI_WriteData
	.loc	5 539 1 is_stmt 1               @ ../Driver/ltdc.c:539:1
	add	sp, #80
	pop	{r7, pc}
.Ltmp83:
.Lfunc_end13:
	.size	LTDC_Para_Init, .Lfunc_end13-LTDC_Para_Init
	.cfi_endproc
	.cantunwind
	.fnend
                                        @ -- End function
	.section	.text.HAL_LTDC_MspInit,"ax",%progbits
	.hidden	HAL_LTDC_MspInit                @ -- Begin function HAL_LTDC_MspInit
	.globl	HAL_LTDC_MspInit
	.p2align	2
	.type	HAL_LTDC_MspInit,%function
	.code	16                              @ @HAL_LTDC_MspInit
	.thumb_func
HAL_LTDC_MspInit:
.Lfunc_begin14:
	.loc	5 296 0                         @ ../Driver/ltdc.c:296:0
	.fnstart
	.cfi_startproc
@ %bb.0:
	.save	{r7, lr}
	push	{r7, lr}
	.cfi_def_cfa_offset 8
	.cfi_offset lr, -4
	.cfi_offset r7, -8
	.pad	#88
	sub	sp, #88
	.cfi_def_cfa_offset 96
	str	r0, [sp, #84]
.Ltmp84:
	.loc	5 299 5 prologue_end            @ ../Driver/ltdc.c:299:5
	b	.LBB14_1
.LBB14_1:
	.loc	5 0 5 is_stmt 0                 @ ../Driver/ltdc.c:0:5
	movs	r0, #0
.Ltmp85:
	.loc	5 299 5                         @ ../Driver/ltdc.c:299:5
	str	r0, [sp, #60]
	movw	r0, #14404
	movt	r0, #16386
	ldr	r1, [r0]
	orr	r1, r1, #67108864
	str	r1, [r0]
	ldr	r0, [r0]
	and	r0, r0, #67108864
	str	r0, [sp, #60]
	ldr	r0, [sp, #60]
	b	.LBB14_2
.Ltmp86:
.LBB14_2:
	.loc	5 300 5 is_stmt 1               @ ../Driver/ltdc.c:300:5
	b	.LBB14_3
.LBB14_3:
	.loc	5 0 5 is_stmt 0                 @ ../Driver/ltdc.c:0:5
	movs	r0, #0
.Ltmp87:
	.loc	5 300 5                         @ ../Driver/ltdc.c:300:5
	str	r0, [sp, #56]
	movw	r0, #14384
	movt	r0, #16386
	ldr	r1, [r0]
	orr	r1, r1, #8388608
	str	r1, [r0]
	ldr	r0, [r0]
	and	r0, r0, #8388608
	str	r0, [sp, #56]
	ldr	r0, [sp, #56]
	b	.LBB14_4
.Ltmp88:
.LBB14_4:
	.loc	5 301 5 is_stmt 1               @ ../Driver/ltdc.c:301:5
	b	.LBB14_5
.LBB14_5:
	.loc	5 0 5 is_stmt 0                 @ ../Driver/ltdc.c:0:5
	movs	r0, #0
.Ltmp89:
	.loc	5 301 5                         @ ../Driver/ltdc.c:301:5
	str	r0, [sp, #52]
	movw	r0, #14384
	movt	r0, #16386
	ldr	r1, [r0]
	orr	r1, r1, #2
	str	r1, [r0]
	ldr	r0, [r0]
	and	r0, r0, #2
	str	r0, [sp, #52]
	ldr	r0, [sp, #52]
	b	.LBB14_6
.Ltmp90:
.LBB14_6:
	.loc	5 302 5 is_stmt 1               @ ../Driver/ltdc.c:302:5
	b	.LBB14_7
.LBB14_7:
	.loc	5 0 5 is_stmt 0                 @ ../Driver/ltdc.c:0:5
	movs	r0, #0
.Ltmp91:
	.loc	5 302 5                         @ ../Driver/ltdc.c:302:5
	str	r0, [sp, #48]
	movw	r0, #14384
	movt	r0, #16386
	ldr	r1, [r0]
	orr	r1, r1, #32
	str	r1, [r0]
	ldr	r0, [r0]
	and	r0, r0, #32
	str	r0, [sp, #48]
	ldr	r0, [sp, #48]
	b	.LBB14_8
.Ltmp92:
.LBB14_8:
	.loc	5 303 5 is_stmt 1               @ ../Driver/ltdc.c:303:5
	b	.LBB14_9
.LBB14_9:
	.loc	5 0 5 is_stmt 0                 @ ../Driver/ltdc.c:0:5
	movs	r0, #0
.Ltmp93:
	.loc	5 303 5                         @ ../Driver/ltdc.c:303:5
	str	r0, [sp, #44]
	movw	r0, #14384
	movt	r0, #16386
	ldr	r1, [r0]
	orr	r1, r1, #64
	str	r1, [r0]
	ldr	r0, [r0]
	and	r0, r0, #64
	str	r0, [sp, #44]
	ldr	r0, [sp, #44]
	b	.LBB14_10
.Ltmp94:
.LBB14_10:
	.loc	5 304 5 is_stmt 1               @ ../Driver/ltdc.c:304:5
	b	.LBB14_11
.LBB14_11:
	.loc	5 0 5 is_stmt 0                 @ ../Driver/ltdc.c:0:5
	movs	r0, #0
.Ltmp95:
	.loc	5 304 5                         @ ../Driver/ltdc.c:304:5
	str	r0, [sp, #40]
	movw	r0, #14384
	movt	r0, #16386
	ldr	r1, [r0]
	orr	r1, r1, #128
	str	r1, [r0]
	ldr	r0, [r0]
	and	r0, r0, #128
	str	r0, [sp, #40]
	ldr	r0, [sp, #40]
	b	.LBB14_12
.Ltmp96:
.LBB14_12:
	.loc	5 305 5 is_stmt 1               @ ../Driver/ltdc.c:305:5
	b	.LBB14_13
.LBB14_13:
	.loc	5 0 5 is_stmt 0                 @ ../Driver/ltdc.c:0:5
	movs	r0, #0
.Ltmp97:
	.loc	5 305 5                         @ ../Driver/ltdc.c:305:5
	str	r0, [sp, #36]
	movw	r0, #14384
	movt	r0, #16386
	ldr	r1, [r0]
	orr	r1, r1, #256
	str	r1, [r0]
	ldr	r0, [r0]
	and	r0, r0, #256
	str	r0, [sp, #36]
	ldr	r0, [sp, #36]
	b	.LBB14_14
.Ltmp98:
.LBB14_14:
	.loc	5 0 5                           @ ../Driver/ltdc.c:0:5
	movw	r0, #1024
	movt	r0, #16386
	str	r0, [sp, #4]                    @ 4-byte Spill
	movs	r1, #32
	str	r1, [sp]                        @ 4-byte Spill
	movs	r2, #0
	.loc	5 308 5 is_stmt 1               @ ../Driver/ltdc.c:308:5
	str	r2, [sp, #16]                   @ 4-byte Spill
	bl	HAL_GPIO_WritePin
	ldr	r2, [sp]                        @ 4-byte Reload
	ldr	r0, [sp, #4]                    @ 4-byte Reload
	ldr	r1, [sp, #16]                   @ 4-byte Reload
	.loc	5 309 21                        @ ../Driver/ltdc.c:309:21
	str	r2, [sp, #64]
	movs	r2, #1
	.loc	5 310 22                        @ ../Driver/ltdc.c:310:22
	str	r2, [sp, #8]                    @ 4-byte Spill
	str	r2, [sp, #68]
	.loc	5 311 22                        @ ../Driver/ltdc.c:311:22
	str	r1, [sp, #72]
	movs	r1, #3
	.loc	5 312 23                        @ ../Driver/ltdc.c:312:23
	str	r1, [sp, #20]                   @ 4-byte Spill
	str	r1, [sp, #76]
	add	r1, sp, #64
	.loc	5 313 5                         @ ../Driver/ltdc.c:313:5
	str	r1, [sp, #32]                   @ 4-byte Spill
	bl	HAL_GPIO_Init
	ldr	r2, [sp, #8]                    @ 4-byte Reload
	movw	r0, #8192
	movt	r0, #16386
	str	r0, [sp, #28]                   @ 4-byte Spill
	mov.w	r1, #256
	.loc	5 316 5                         @ ../Driver/ltdc.c:316:5
	bl	HAL_GPIO_WritePin
	ldr	r2, [sp, #8]                    @ 4-byte Reload
	ldr	r0, [sp, #28]                   @ 4-byte Reload
	movs	r1, #8
	.loc	5 317 5                         @ ../Driver/ltdc.c:317:5
	bl	HAL_GPIO_WritePin
	ldr	r2, [sp, #8]                    @ 4-byte Reload
	movw	r0, #7168
	movt	r0, #16386
	str	r0, [sp, #24]                   @ 4-byte Spill
	movs	r1, #128
	.loc	5 318 5                         @ ../Driver/ltdc.c:318:5
	str	r1, [sp, #12]                   @ 4-byte Spill
	bl	HAL_GPIO_WritePin
	ldr	r3, [sp, #8]                    @ 4-byte Reload
	ldr	r2, [sp, #16]                   @ 4-byte Reload
	ldr	r0, [sp, #28]                   @ 4-byte Reload
	ldr	r1, [sp, #32]                   @ 4-byte Reload
	mov.w	r12, #264
	.loc	5 319 21                        @ ../Driver/ltdc.c:319:21
	str.w	r12, [sp, #64]
	.loc	5 320 22                        @ ../Driver/ltdc.c:320:22
	str	r3, [sp, #68]
	.loc	5 321 22                        @ ../Driver/ltdc.c:321:22
	str	r2, [sp, #72]
	.loc	5 322 23                        @ ../Driver/ltdc.c:322:23
	str	r2, [sp, #76]
	.loc	5 323 5                         @ ../Driver/ltdc.c:323:5
	bl	HAL_GPIO_Init
	ldr	r2, [sp, #12]                   @ 4-byte Reload
	ldr	r0, [sp, #24]                   @ 4-byte Reload
	ldr	r1, [sp, #32]                   @ 4-byte Reload
	.loc	5 325 22                        @ ../Driver/ltdc.c:325:22
	str	r2, [sp, #64]
	.loc	5 326 5                         @ ../Driver/ltdc.c:326:5
	bl	HAL_GPIO_Init
	ldr	r2, [sp, #16]                   @ 4-byte Reload
	ldr	r0, [sp, #20]                   @ 4-byte Reload
	ldr	r1, [sp, #32]                   @ 4-byte Reload
	mov.w	r3, #1024
	.loc	5 329 21                        @ ../Driver/ltdc.c:329:21
	str	r3, [sp, #64]
	movs	r3, #2
	.loc	5 330 22                        @ ../Driver/ltdc.c:330:22
	str	r3, [sp, #68]
	.loc	5 331 22                        @ ../Driver/ltdc.c:331:22
	str	r2, [sp, #72]
	.loc	5 332 23                        @ ../Driver/ltdc.c:332:23
	str	r0, [sp, #76]
	movs	r0, #14
	.loc	5 333 27                        @ ../Driver/ltdc.c:333:27
	str	r0, [sp, #80]
	movw	r0, #5120
	movt	r0, #16386
	.loc	5 334 5                         @ ../Driver/ltdc.c:334:5
	bl	HAL_GPIO_Init
	ldr	r1, [sp, #32]                   @ 4-byte Reload
	mov.w	r0, #2240
	.loc	5 337 21                        @ ../Driver/ltdc.c:337:21
	str	r0, [sp, #64]
	movw	r0, #6144
	movt	r0, #16386
	.loc	5 338 5                         @ ../Driver/ltdc.c:338:5
	bl	HAL_GPIO_Init
	ldr	r0, [sp, #24]                   @ 4-byte Reload
	ldr	r1, [sp, #32]                   @ 4-byte Reload
	mov.w	r2, #65024
	.loc	5 341 21                        @ ../Driver/ltdc.c:341:21
	str	r2, [sp, #64]
	.loc	5 343 5                         @ ../Driver/ltdc.c:343:5
	bl	HAL_GPIO_Init
	ldr	r0, [sp, #28]                   @ 4-byte Reload
	ldr	r1, [sp, #32]                   @ 4-byte Reload
	movw	r2, #1783
	.loc	5 346 21                        @ ../Driver/ltdc.c:346:21
	str	r2, [sp, #64]
	.loc	5 348 5                         @ ../Driver/ltdc.c:348:5
	bl	HAL_GPIO_Init
	.loc	5 349 1                         @ ../Driver/ltdc.c:349:1
	add	sp, #88
	pop	{r7, pc}
.Ltmp99:
.Lfunc_end14:
	.size	HAL_LTDC_MspInit, .Lfunc_end14-HAL_LTDC_MspInit
	.cfi_endproc
	.cantunwind
	.fnend
                                        @ -- End function
	.section	.text.SPI_WriteComm,"ax",%progbits
	.p2align	2                               @ -- Begin function SPI_WriteComm
	.type	SPI_WriteComm,%function
	.code	16                              @ @SPI_WriteComm
	.thumb_func
SPI_WriteComm:
.Lfunc_begin15:
	.loc	5 373 0                         @ ../Driver/ltdc.c:373:0
	.fnstart
	.cfi_startproc
@ %bb.0:
	.save	{r7, lr}
	push	{r7, lr}
	.cfi_def_cfa_offset 8
	.cfi_offset lr, -4
	.cfi_offset r7, -8
	.pad	#16
	sub	sp, #16
	.cfi_def_cfa_offset 24
                                        @ kill: def $r1 killed $r0
	strh.w	r0, [sp, #14]
	movw	r0, #7168
	movt	r0, #16386
	str	r0, [sp, #4]                    @ 4-byte Spill
	movs	r1, #128
	str	r1, [sp, #8]                    @ 4-byte Spill
	movs	r2, #0
.Ltmp100:
	.loc	5 374 2 prologue_end            @ ../Driver/ltdc.c:374:2
	bl	HAL_GPIO_WritePin
	movs	r0, #112
	.loc	5 375 2                         @ ../Driver/ltdc.c:375:2
	bl	LCD_WriteByteSPI
	.loc	5 376 19                        @ ../Driver/ltdc.c:376:19
	ldrb.w	r0, [sp, #14]
	.loc	5 376 2 is_stmt 0               @ ../Driver/ltdc.c:376:2
	bl	LCD_WriteByteSPI
	ldr	r0, [sp, #4]                    @ 4-byte Reload
	ldr	r1, [sp, #8]                    @ 4-byte Reload
	movs	r2, #1
	.loc	5 377 2 is_stmt 1               @ ../Driver/ltdc.c:377:2
	bl	HAL_GPIO_WritePin
	.loc	5 378 1                         @ ../Driver/ltdc.c:378:1
	add	sp, #16
	pop	{r7, pc}
.Ltmp101:
.Lfunc_end15:
	.size	SPI_WriteComm, .Lfunc_end15-SPI_WriteComm
	.cfi_endproc
	.cantunwind
	.fnend
                                        @ -- End function
	.section	.text.SPI_WriteData,"ax",%progbits
	.p2align	2                               @ -- Begin function SPI_WriteData
	.type	SPI_WriteData,%function
	.code	16                              @ @SPI_WriteData
	.thumb_func
SPI_WriteData:
.Lfunc_begin16:
	.loc	5 381 0                         @ ../Driver/ltdc.c:381:0
	.fnstart
	.cfi_startproc
@ %bb.0:
	.save	{r7, lr}
	push	{r7, lr}
	.cfi_def_cfa_offset 8
	.cfi_offset lr, -4
	.cfi_offset r7, -8
	.pad	#16
	sub	sp, #16
	.cfi_def_cfa_offset 24
                                        @ kill: def $r1 killed $r0
	strh.w	r0, [sp, #14]
	movw	r0, #7168
	movt	r0, #16386
	str	r0, [sp, #4]                    @ 4-byte Spill
	movs	r1, #128
	str	r1, [sp, #8]                    @ 4-byte Spill
	movs	r2, #0
.Ltmp102:
	.loc	5 382 2 prologue_end            @ ../Driver/ltdc.c:382:2
	bl	HAL_GPIO_WritePin
	movs	r0, #114
	.loc	5 383 2                         @ ../Driver/ltdc.c:383:2
	bl	LCD_WriteByteSPI
	.loc	5 384 19                        @ ../Driver/ltdc.c:384:19
	ldrb.w	r0, [sp, #14]
	.loc	5 384 2 is_stmt 0               @ ../Driver/ltdc.c:384:2
	bl	LCD_WriteByteSPI
	ldr	r0, [sp, #4]                    @ 4-byte Reload
	ldr	r1, [sp, #8]                    @ 4-byte Reload
	movs	r2, #1
	.loc	5 385 2 is_stmt 1               @ ../Driver/ltdc.c:385:2
	bl	HAL_GPIO_WritePin
	.loc	5 386 1                         @ ../Driver/ltdc.c:386:1
	add	sp, #16
	pop	{r7, pc}
.Ltmp103:
.Lfunc_end16:
	.size	SPI_WriteData, .Lfunc_end16-SPI_WriteData
	.cfi_endproc
	.cantunwind
	.fnend
                                        @ -- End function
	.section	.text.LCD_WriteByteSPI,"ax",%progbits
	.p2align	2                               @ -- Begin function LCD_WriteByteSPI
	.type	LCD_WriteByteSPI,%function
	.code	16                              @ @LCD_WriteByteSPI
	.thumb_func
LCD_WriteByteSPI:
.Lfunc_begin17:
	.loc	5 352 0                         @ ../Driver/ltdc.c:352:0
	.fnstart
	.cfi_startproc
@ %bb.0:
	.save	{r7, lr}
	push	{r7, lr}
	.cfi_def_cfa_offset 8
	.cfi_offset lr, -4
	.cfi_offset r7, -8
	.pad	#16
	sub	sp, #16
	.cfi_def_cfa_offset 24
                                        @ kill: def $r1 killed $r0
	strb.w	r0, [sp, #15]
	movs	r0, #0
.Ltmp104:
	.loc	5 355 10 prologue_end           @ ../Driver/ltdc.c:355:10
	strb.w	r0, [sp, #14]
	.loc	5 355 9 is_stmt 0               @ ../Driver/ltdc.c:355:9
	b	.LBB17_1
.LBB17_1:                               @ =>This Inner Loop Header: Depth=1
.Ltmp105:
	.loc	5 355 14                        @ ../Driver/ltdc.c:355:14
	ldrb.w	r0, [sp, #14]
.Ltmp106:
	.loc	5 355 5                         @ ../Driver/ltdc.c:355:5
	cmp	r0, #7
	bgt	.LBB17_7
	b	.LBB17_2
.LBB17_2:                               @   in Loop: Header=BB17_1 Depth=1
.Ltmp107:
	.loc	5 357 12 is_stmt 1              @ ../Driver/ltdc.c:357:12
	ldrb.w	r0, [sp, #15]
.Ltmp108:
	.loc	5 357 12 is_stmt 0              @ ../Driver/ltdc.c:357:12
	lsls	r0, r0, #24
	cmp	r0, #0
	bpl	.LBB17_4
	b	.LBB17_3
.LBB17_3:                               @   in Loop: Header=BB17_1 Depth=1
	.loc	5 0 12                          @ ../Driver/ltdc.c:0:12
	movw	r0, #8192
	movt	r0, #16386
	movs	r1, #8
	movs	r2, #1
.Ltmp109:
	.loc	5 359 13 is_stmt 1              @ ../Driver/ltdc.c:359:13
	bl	HAL_GPIO_WritePin
	.loc	5 360 9                         @ ../Driver/ltdc.c:360:9
	b	.LBB17_5
.Ltmp110:
.LBB17_4:                               @   in Loop: Header=BB17_1 Depth=1
	.loc	5 0 9 is_stmt 0                 @ ../Driver/ltdc.c:0:9
	movw	r0, #8192
	movt	r0, #16386
	movs	r1, #8
	movs	r2, #0
.Ltmp111:
	.loc	5 363 13 is_stmt 1              @ ../Driver/ltdc.c:363:13
	bl	HAL_GPIO_WritePin
	b	.LBB17_5
.Ltmp112:
.LBB17_5:                               @   in Loop: Header=BB17_1 Depth=1
	.loc	5 365 13                        @ ../Driver/ltdc.c:365:13
	ldrb.w	r0, [sp, #15]
	lsls	r0, r0, #1
	strb.w	r0, [sp, #15]
	movw	r0, #8192
	movt	r0, #16386
	str	r0, [sp, #4]                    @ 4-byte Spill
	mov.w	r1, #256
	str	r1, [sp, #8]                    @ 4-byte Spill
	movs	r2, #0
	.loc	5 367 9                         @ ../Driver/ltdc.c:367:9
	bl	HAL_GPIO_WritePin
	ldr	r0, [sp, #4]                    @ 4-byte Reload
	ldr	r1, [sp, #8]                    @ 4-byte Reload
	movs	r2, #1
	.loc	5 368 9                         @ ../Driver/ltdc.c:368:9
	bl	HAL_GPIO_WritePin
	.loc	5 369 5                         @ ../Driver/ltdc.c:369:5
	b	.LBB17_6
.Ltmp113:
.LBB17_6:                               @   in Loop: Header=BB17_1 Depth=1
	.loc	5 355 20                        @ ../Driver/ltdc.c:355:20
	ldrb.w	r0, [sp, #14]
	adds	r0, #1
	strb.w	r0, [sp, #14]
	.loc	5 355 5 is_stmt 0               @ ../Driver/ltdc.c:355:5
	b	.LBB17_1
.Ltmp114:
.LBB17_7:
	.loc	5 370 1 is_stmt 1               @ ../Driver/ltdc.c:370:1
	add	sp, #16
	pop	{r7, pc}
.Ltmp115:
.Lfunc_end17:
	.size	LCD_WriteByteSPI, .Lfunc_end17-LCD_WriteByteSPI
	.cfi_endproc
	.cantunwind
	.fnend
                                        @ -- End function
	.hidden	LTDC_Handler                    @ @LTDC_Handler
	.type	LTDC_Handler,%object
	.section	.bss.LTDC_Handler,"aw",%nobits
	.globl	LTDC_Handler
	.p2align	2
LTDC_Handler:
	.zero	168
	.size	LTDC_Handler, 168

	.hidden	g_LCDCtrlMsg                    @ @g_LCDCtrlMsg
	.type	g_LCDCtrlMsg,%object
	.section	.bss.g_LCDCtrlMsg,"aw",%nobits
	.globl	g_LCDCtrlMsg
	.p2align	2
g_LCDCtrlMsg:
	.zero	32
	.size	g_LCDCtrlMsg, 32

	.hidden	g_LCD_FrameBuff                 @ @g_LCD_FrameBuff
	.type	g_LCD_FrameBuff,%object
	.section	.bss.g_LCD_FrameBuff,"aw",%nobits
	.globl	g_LCD_FrameBuff
	.p2align	2
g_LCD_FrameBuff:
	.zero	8
	.size	g_LCD_FrameBuff, 8

	.hidden	g_LCD_Cache                     @ @g_LCD_Cache
	.type	g_LCD_Cache,%object
	.section	.ARM.__at_0xC0000000,"aw",%progbits
	.globl	g_LCD_Cache
	.p2align	1
g_LCD_Cache:
	.zero	768000
	.size	g_LCD_Cache, 768000

	.hidden	DMA2D_Handler                   @ @DMA2D_Handler
	.type	DMA2D_Handler,%object
	.section	.bss.DMA2D_Handler,"aw",%nobits
	.globl	DMA2D_Handler
	.p2align	2
DMA2D_Handler:
	.zero	64
	.size	DMA2D_Handler, 64

	.file	10 "C:\\Users\\Hyacincher\\Desktop\\HyTelectrl\\Code\\Project" "../Library/STM32F4xx_HAL_Driver/Inc/stm32f4xx_hal_rcc_ex.h"
	.section	".note.GNU-stack","",%progbits
	.eabi_attribute	30, 6	@ Tag_ABI_optimization_goals
	.ARM_attribute	16, 1	@ Tag_AV_eba