	.text
	.syntax unified
	.eabi_attribute	67, "2.09"	@ Tag_conformance
	.cpu	cortex-m4
	.eabi_attribute	6, 13	@ Tag_CPU_arch
	.eabi_attribute	7, 77	@ Tag_CPU_arch_profile
	.eabi_attribute	8, 0	@ Tag_ARM_ISA_use
	.eabi_attribute	9, 2	@ Tag_THUMB_ISA_use
	.fpu	fpv4-sp-d16
	.eabi_attribute	27, 1	@ Tag_ABI_HardFP_use
	.eabi_attribute	36, 1	@ Tag_FP_HP_extension
	.eabi_attribute	34, 1	@ Tag_CPU_unaligned_access
	.eabi_attribute	17, 1	@ Tag_ABI_PCS_GOT_use
	.eabi_attribute	20, 2	@ Tag_ABI_FP_denormal
	.eabi_attribute	21, 0	@ Tag_ABI_FP_exceptions
	.eabi_attribute	23, 1	@ Tag_ABI_FP_number_model
	.eabi_attribute	24, 1	@ Tag_ABI_align_needed
	.eabi_attribute	25, 1	@ Tag_ABI_align_preserved
	.eabi_attribute	28, 1	@ Tag_ABI_VFP_args
	.eabi_attribute	38, 1	@ Tag_ABI_FP_16bit_format
	.eabi_attribute	18, 2	@ Tag_ABI_PCS_wchar_t
	.eabi_attribute	26, 1	@ Tag_ABI_enum_size
	.eabi_attribute	14, 0	@ Tag_ABI_PCS_R9_use
	.file	"lv_anim_timeline.c"
	.file	1 "C:\\Users\\Hyacincher\\Desktop\\HyTelectrl\\Code\\Project" "../GUILib/src/misc/lv_anim.h"
	.file	2 "D:\\Keil MDK\\ARM\\ARMCLANG\\Bin\\..\\include" "stdint.h"
	.file	3 "C:\\Users\\Hyacincher\\Desktop\\HyTelectrl\\Code\\Project" "../GUILib/src/misc/lv_anim_timeline.c"
	.file	4 "C:\\Users\\Hyacincher\\Desktop\\HyTelectrl\\Code\\Project" "../GUILib/src/misc/lv_anim_timeline.h"
	.section	.text.lv_anim_timeline_create,"ax",%progbits
	.hidden	lv_anim_timeline_create         @ -- Begin function lv_anim_timeline_create
	.globl	lv_anim_timeline_create
	.p2align	1
	.type	lv_anim_timeline_create,%function
	.code	16                              @ @lv_anim_timeline_create
	.thumb_func
lv_anim_timeline_create:
.Lfunc_begin0:
	.loc	3 52 0                          @ ../GUILib/src/misc/lv_anim_timeline.c:52:0
	.fnstart
	.cfi_sections .debug_frame
	.cfi_startproc
@ %bb.0:
	.save	{r4, lr}
	push	{r4, lr}
	.cfi_def_cfa_offset 8
	.cfi_offset lr, -4
	.cfi_offset r4, -8
.Ltmp0:
	.loc	3 53 53 prologue_end            @ ../GUILib/src/misc/lv_anim_timeline.c:53:53
	movs	r0, #12
	bl	lv_mem_alloc
.Ltmp1:
	@DEBUG_VALUE: lv_anim_timeline_create:at <- $r0
	.loc	3 55 5                          @ ../GUILib/src/misc/lv_anim_timeline.c:55:5
	cbz	r0, .LBB0_2
.Ltmp2:
@ %bb.1:
	@DEBUG_VALUE: lv_anim_timeline_create:at <- $r0
	.loc	3 57 12                         @ ../GUILib/src/misc/lv_anim_timeline.c:57:12
	movs	r1, #12
.Ltmp3:
	.loc	3 0 0 is_stmt 0                 @ ../GUILib/src/misc/lv_anim_timeline.c:0:0
	mov	r4, r0
.Ltmp4:
	@DEBUG_VALUE: lv_anim_timeline_create:at <- $r4
	@DEBUG_VALUE: lv_anim_timeline_create:at <- $r4
	.loc	3 57 12                         @ ../GUILib/src/misc/lv_anim_timeline.c:57:12
	bl	lv_memset_00
.Ltmp5:
	.loc	3 59 5 is_stmt 1                @ ../GUILib/src/misc/lv_anim_timeline.c:59:5
	mov	r0, r4
	pop	{r4, pc}
.Ltmp6:
	.p2align	2
.LBB0_2:                                @ =>This Inner Loop Header: Depth=1
	@DEBUG_VALUE: lv_anim_timeline_create:at <- $r0
	.loc	3 55 5                          @ ../GUILib/src/misc/lv_anim_timeline.c:55:5
	b	.LBB0_2
.Ltmp7:
.Lfunc_end0:
	.size	lv_anim_timeline_create, .Lfunc_end0-lv_anim_timeline_create
	.cfi_endproc
	.cantunwind
	.fnend
                                        @ -- End function
	.section	.text.lv_anim_timeline_del,"ax",%progbits
	.hidden	lv_anim_timeline_del            @ -- Begin function lv_anim_timeline_del
	.globl	lv_anim_timeline_del
	.p2align	1
	.type	lv_anim_timeline_del,%function
	.code	16                              @ @lv_anim_timeline_del
	.thumb_func
lv_anim_timeline_del:
.Lfunc_begin1:
	.loc	3 63 0                          @ ../GUILib/src/misc/lv_anim_timeline.c:63:0
	.fnstart
	.cfi_startproc
@ %bb.0:
	@DEBUG_VALUE: lv_anim_timeline_del:at <- $r0
	@DEBUG_VALUE: lv_anim_timeline_del:at <- $r0
	.loc	3 64 5 prologue_end             @ ../GUILib/src/misc/lv_anim_timeline.c:64:5
	cbz	r0, .LBB1_2
.Ltmp8:
@ %bb.1:
	@DEBUG_VALUE: lv_anim_timeline_del:at <- $r0
	.save	{r4, lr}
	push	{r4, lr}
	.cfi_def_cfa_offset 8
	.cfi_offset lr, -4
	.cfi_offset r4, -8
	mov	r4, r0
.Ltmp9:
	@DEBUG_VALUE: lv_anim_timeline_del:at <- $r4
	.loc	3 66 5                          @ ../GUILib/src/misc/lv_anim_timeline.c:66:5
	bl	lv_anim_timeline_stop
.Ltmp10:
	.loc	3 68 21                         @ ../GUILib/src/misc/lv_anim_timeline.c:68:21
	ldr	r0, [r4]
	.loc	3 68 5 is_stmt 0                @ ../GUILib/src/misc/lv_anim_timeline.c:68:5
	bl	lv_mem_free
.Ltmp11:
	.loc	3 69 5 is_stmt 1                @ ../GUILib/src/misc/lv_anim_timeline.c:69:5
	mov	r0, r4
	pop.w	{r4, lr}
.Ltmp12:
	@DEBUG_VALUE: lv_anim_timeline_del:at <- [DW_OP_LLVM_entry_value 1] $r0
	b	lv_mem_free
.Ltmp13:
	.p2align	2
.LBB1_2:                                @ =>This Inner Loop Header: Depth=1
	@DEBUG_VALUE: lv_anim_timeline_del:at <- $r0
	.loc	3 64 5                          @ ../GUILib/src/misc/lv_anim_timeline.c:64:5
	b	.LBB1_2
.Ltmp14:
.Lfunc_end1:
	.size	lv_anim_timeline_del, .Lfunc_end1-lv_anim_timeline_del
	.cfi_endproc
	.file	5 "C:\\Users\\Hyacincher\\Desktop\\HyTelectrl\\Code\\Project" "../GUILib/src/misc/lv_mem.h"
	.cantunwind
	.fnend
                                        @ -- End function
	.section	.text.lv_anim_timeline_stop,"ax",%progbits
	.hidden	lv_anim_timeline_stop           @ -- Begin function lv_anim_timeline_stop
	.globl	lv_anim_timeline_stop
	.p2align	1
	.type	lv_anim_timeline_stop,%function
	.code	16                              @ @lv_anim_timeline_stop
	.thumb_func
lv_anim_timeline_stop:
.Lfunc_begin2:
	.loc	3 119 0                         @ ../GUILib/src/misc/lv_anim_timeline.c:119:0
	.fnstart
	.cfi_startproc
@ %bb.0:
	@DEBUG_VALUE: lv_anim_timeline_stop:at <- $r0
	@DEBUG_VALUE: lv_anim_timeline_stop:at <- $r0
	.loc	3 120 5 prologue_end            @ ../GUILib/src/misc/lv_anim_timeline.c:120:5
	cbz	r0, .LBB2_5
.Ltmp15:
@ %bb.1:
	@DEBUG_VALUE: lv_anim_timeline_stop:at <- $r0
	.save	{r4, r5, r6, lr}
	push	{r4, r5, r6, lr}
	.cfi_def_cfa_offset 16
	.cfi_offset lr, -4
	.cfi_offset r6, -8
	.cfi_offset r5, -12
	.cfi_offset r4, -16
	mov	r4, r0
.Ltmp16:
	@DEBUG_VALUE: lv_anim_timeline_stop:at <- $r4
	@DEBUG_VALUE: i <- 0
	.loc	3 122 33                        @ ../GUILib/src/misc/lv_anim_timeline.c:122:33
	ldr	r0, [r0, #4]
.Ltmp17:
	.loc	3 122 5 is_stmt 0               @ ../GUILib/src/misc/lv_anim_timeline.c:122:5
	cbz	r0, .LBB2_4
.Ltmp18:
@ %bb.2:
	@DEBUG_VALUE: lv_anim_timeline_stop:at <- $r4
	@DEBUG_VALUE: i <- 0
	.loc	3 0 5                           @ ../GUILib/src/misc/lv_anim_timeline.c:0:5
	movs	r5, #0
	movs	r6, #0
.Ltmp19:
	.p2align	2
.LBB2_3:                                @ =>This Inner Loop Header: Depth=1
	@DEBUG_VALUE: lv_anim_timeline_stop:at <- $r4
	@DEBUG_VALUE: i <- $r6
	.loc	3 123 31 is_stmt 1              @ ../GUILib/src/misc/lv_anim_timeline.c:123:31
	ldr	r0, [r4]
.Ltmp20:
	@DEBUG_VALUE: a <- undef
	.loc	3 124 24                        @ ../GUILib/src/misc/lv_anim_timeline.c:124:24
	adds	r1, r0, r5
	ldr	r0, [r0, r5]
	.loc	3 124 32 is_stmt 0              @ ../GUILib/src/misc/lv_anim_timeline.c:124:32
	ldr	r1, [r1, #4]
	.loc	3 124 9                         @ ../GUILib/src/misc/lv_anim_timeline.c:124:9
	bl	lv_anim_del
.Ltmp21:
	.loc	3 122 33 is_stmt 1              @ ../GUILib/src/misc/lv_anim_timeline.c:122:33
	ldr	r0, [r4, #4]
	.loc	3 122 48 is_stmt 0              @ ../GUILib/src/misc/lv_anim_timeline.c:122:48
	adds	r6, #1
.Ltmp22:
	@DEBUG_VALUE: i <- $r6
	.loc	3 122 5                         @ ../GUILib/src/misc/lv_anim_timeline.c:122:5
	cmp	r6, r0
.Ltmp23:
	.loc	3 122 27                        @ ../GUILib/src/misc/lv_anim_timeline.c:122:27
	add.w	r5, r5, #68
	blo	.LBB2_3
.Ltmp24:
.LBB2_4:
	@DEBUG_VALUE: lv_anim_timeline_stop:at <- $r4
	.loc	3 126 1 is_stmt 1               @ ../GUILib/src/misc/lv_anim_timeline.c:126:1
	pop	{r4, r5, r6, pc}
.Ltmp25:
	.p2align	2
.LBB2_5:                                @ =>This Inner Loop Header: Depth=1
	@DEBUG_VALUE: lv_anim_timeline_stop:at <- $r0
	.loc	3 120 5                         @ ../GUILib/src/misc/lv_anim_timeline.c:120:5
	b	.LBB2_5
.Ltmp26:
.Lfunc_end2:
	.size	lv_anim_timeline_stop, .Lfunc_end2-lv_anim_timeline_stop
	.cfi_endproc
	.cantunwind
	.fnend
                                        @ -- End function
	.section	.text.lv_anim_timeline_add,"ax",%progbits
	.hidden	lv_anim_timeline_add            @ -- Begin function lv_anim_timeline_add
	.globl	lv_anim_timeline_add
	.p2align	1
	.type	lv_anim_timeline_add,%function
	.code	16                              @ @lv_anim_timeline_add
	.thumb_func
lv_anim_timeline_add:
.Lfunc_begin3:
	.loc	3 73 0                          @ ../GUILib/src/misc/lv_anim_timeline.c:73:0
	.fnstart
	.cfi_startproc
@ %bb.0:
	@DEBUG_VALUE: lv_anim_timeline_add:at <- $r0
	@DEBUG_VALUE: lv_anim_timeline_add:start_time <- $r1
	@DEBUG_VALUE: lv_anim_timeline_add:a <- $r2
	@DEBUG_VALUE: lv_anim_timeline_add:a <- $r2
	@DEBUG_VALUE: lv_anim_timeline_add:at <- $r0
	.save	{r4, r5, r6, r7, r8, lr}
	push.w	{r4, r5, r6, r7, r8, lr}
	.cfi_def_cfa_offset 24
	.cfi_offset lr, -4
	.cfi_offset r8, -8
	.cfi_offset r7, -12
	.cfi_offset r6, -16
	.cfi_offset r5, -20
	.cfi_offset r4, -24
.Ltmp27:
	.loc	3 74 5 prologue_end             @ ../GUILib/src/misc/lv_anim_timeline.c:74:5
	cmp	r0, #0
	@DEBUG_VALUE: lv_anim_timeline_add:start_time <- $r1
	beq	.LBB3_4
.Ltmp28:
@ %bb.1:
	@DEBUG_VALUE: lv_anim_timeline_add:a <- $r2
	@DEBUG_VALUE: lv_anim_timeline_add:start_time <- $r1
	@DEBUG_VALUE: lv_anim_timeline_add:at <- $r0
	.loc	3 0 5 is_stmt 0                 @ ../GUILib/src/misc/lv_anim_timeline.c:0:5
	mov	r4, r0
.Ltmp29:
	@DEBUG_VALUE: lv_anim_timeline_add:at <- $r4
	mov	r8, r1
.Ltmp30:
	@DEBUG_VALUE: lv_anim_timeline_add:start_time <- $r8
	@DEBUG_VALUE: lv_anim_timeline_add:start_time <- $r8
	.loc	3 77 39 is_stmt 1               @ ../GUILib/src/misc/lv_anim_timeline.c:77:39
	ldrd	r0, r1, [r0]
	mov	r5, r2
.Ltmp31:
	@DEBUG_VALUE: lv_anim_timeline_add:a <- $r5
	@DEBUG_VALUE: lv_anim_timeline_add:a <- $r5
	.loc	3 76 21                         @ ../GUILib/src/misc/lv_anim_timeline.c:76:21
	adds	r1, #1
	str	r1, [r4, #4]
	.loc	3 77 66                         @ ../GUILib/src/misc/lv_anim_timeline.c:77:66
	add.w	r1, r1, r1, lsl #4
	lsls	r1, r1, #2
	.loc	3 77 20 is_stmt 0               @ ../GUILib/src/misc/lv_anim_timeline.c:77:20
	bl	lv_mem_realloc
.Ltmp32:
	.loc	3 77 18                         @ ../GUILib/src/misc/lv_anim_timeline.c:77:18
	str	r0, [r4]
.Ltmp33:
	.loc	3 79 5 is_stmt 1                @ ../GUILib/src/misc/lv_anim_timeline.c:79:5
	cbz	r0, .LBB3_5
.Ltmp34:
@ %bb.2:
	@DEBUG_VALUE: lv_anim_timeline_add:start_time <- $r8
	@DEBUG_VALUE: lv_anim_timeline_add:a <- $r5
	@DEBUG_VALUE: lv_anim_timeline_add:at <- $r4
	.loc	3 81 22                         @ ../GUILib/src/misc/lv_anim_timeline.c:81:22
	ldr	r1, [r4, #4]
	.loc	3 81 47 is_stmt 0               @ ../GUILib/src/misc/lv_anim_timeline.c:81:47
	ldrd	r12, r2, [r5]
	.loc	3 81 35                         @ ../GUILib/src/misc/lv_anim_timeline.c:81:35
	add.w	r1, r1, r1, lsl #4
	.loc	3 81 40                         @ ../GUILib/src/misc/lv_anim_timeline.c:81:40
	add.w	r0, r0, r1, lsl #2
	.loc	3 81 47                         @ ../GUILib/src/misc/lv_anim_timeline.c:81:47
	ldrd	r3, r6, [r5, #8]
	ldrd	r1, r7, [r5, #16]
	strd	r3, r6, [r0, #-60]
	strd	r1, r7, [r0, #-52]
	strd	r12, r2, [r0, #-68]
	ldrd	r12, r2, [r5, #24]
	ldrd	r3, r7, [r5, #32]
	ldrd	r1, r6, [r5, #40]
	strd	r3, r7, [r0, #-36]
	strd	r1, r6, [r0, #-28]
	strd	r12, r2, [r0, #-44]
	ldr	r3, [r5, #60]
	add.w	r7, r5, #48
	ldm	r7, {r1, r2, r7}
	str	r3, [r0, #-8]
	subs	r0, #20
	stm	r0!, {r1, r2, r7}
	.loc	3 82 9 is_stmt 1                @ ../GUILib/src/misc/lv_anim_timeline.c:82:9
	ldrd	r0, r1, [r4]
.Ltmp35:
	.loc	3 85 11                         @ ../GUILib/src/misc/lv_anim_timeline.c:85:11
	ldr	r3, [r5]
.Ltmp36:
	.loc	3 82 35                         @ ../GUILib/src/misc/lv_anim_timeline.c:82:35
	subs	r1, #1
	.loc	3 82 40 is_stmt 0               @ ../GUILib/src/misc/lv_anim_timeline.c:82:40
	add.w	r1, r1, r1, lsl #4
	add.w	r2, r0, r1, lsl #2
	.loc	3 82 51                         @ ../GUILib/src/misc/lv_anim_timeline.c:82:51
	str.w	r8, [r2, #64]
.Ltmp37:
	.loc	3 85 23 is_stmt 1               @ ../GUILib/src/misc/lv_anim_timeline.c:85:23
	cbz	r3, .LBB3_6
.Ltmp38:
.LBB3_3:
	@DEBUG_VALUE: lv_anim_timeline_add:start_time <- $r8
	@DEBUG_VALUE: lv_anim_timeline_add:a <- $r5
	@DEBUG_VALUE: lv_anim_timeline_add:at <- $r4
	.loc	3 89 1                          @ ../GUILib/src/misc/lv_anim_timeline.c:89:1
	pop.w	{r4, r5, r6, r7, r8, pc}
.Ltmp39:
	.p2align	2
.LBB3_4:                                @ =>This Inner Loop Header: Depth=1
	@DEBUG_VALUE: lv_anim_timeline_add:a <- $r2
	@DEBUG_VALUE: lv_anim_timeline_add:start_time <- $r1
	@DEBUG_VALUE: lv_anim_timeline_add:at <- $r0
	.loc	3 74 5                          @ ../GUILib/src/misc/lv_anim_timeline.c:74:5
	b	.LBB3_4
.Ltmp40:
	.p2align	2
.LBB3_5:                                @ =>This Inner Loop Header: Depth=1
	@DEBUG_VALUE: lv_anim_timeline_add:start_time <- $r8
	@DEBUG_VALUE: lv_anim_timeline_add:a <- $r5
	@DEBUG_VALUE: lv_anim_timeline_add:at <- $r4
	.loc	3 79 5                          @ ../GUILib/src/misc/lv_anim_timeline.c:79:5
	b	.LBB3_5
.Ltmp41:
.LBB3_6:
	@DEBUG_VALUE: lv_anim_timeline_add:start_time <- $r8
	@DEBUG_VALUE: lv_anim_timeline_add:a <- $r5
	@DEBUG_VALUE: lv_anim_timeline_add:at <- $r4
	.loc	3 85 29                         @ ../GUILib/src/misc/lv_anim_timeline.c:85:29
	ldr	r3, [r5, #4]
.Ltmp42:
	.loc	3 85 8 is_stmt 0                @ ../GUILib/src/misc/lv_anim_timeline.c:85:8
	cmp	r3, #0
	bne	.LBB3_3
.Ltmp43:
@ %bb.7:
	@DEBUG_VALUE: lv_anim_timeline_add:start_time <- $r8
	@DEBUG_VALUE: lv_anim_timeline_add:a <- $r5
	@DEBUG_VALUE: lv_anim_timeline_add:at <- $r4
	.loc	3 86 53 is_stmt 1               @ ../GUILib/src/misc/lv_anim_timeline.c:86:53
	str.w	r4, [r0, r1, lsl #2]
	.loc	3 87 57                         @ ../GUILib/src/misc/lv_anim_timeline.c:87:57
	movw	r0, :lower16:lv_anim_timeline_virtual_exec_cb
	movt	r0, :upper16:lv_anim_timeline_virtual_exec_cb
	str	r0, [r2, #4]
.Ltmp44:
	.loc	3 89 1                          @ ../GUILib/src/misc/lv_anim_timeline.c:89:1
	pop.w	{r4, r5, r6, r7, r8, pc}
.Ltmp45:
.Lfunc_end3:
	.size	lv_anim_timeline_add, .Lfunc_end3-lv_anim_timeline_add
	.cfi_endproc
	.cantunwind
	.fnend
                                        @ -- End function
	.section	.text.lv_anim_timeline_virtual_exec_cb,"ax",%progbits
	.p2align	1                               @ -- Begin function lv_anim_timeline_virtual_exec_cb
	.type	lv_anim_timeline_virtual_exec_cb,%function
	.code	16                              @ @lv_anim_timeline_virtual_exec_cb
	.thumb_func
lv_anim_timeline_virtual_exec_cb:
.Lfunc_begin4:
	.loc	3 195 0                         @ ../GUILib/src/misc/lv_anim_timeline.c:195:0
	.fnstart
	.cfi_startproc
@ %bb.0:
	@DEBUG_VALUE: lv_anim_timeline_virtual_exec_cb:var <- $r0
	@DEBUG_VALUE: lv_anim_timeline_virtual_exec_cb:v <- $r1
	.loc	3 198 1 prologue_end            @ ../GUILib/src/misc/lv_anim_timeline.c:198:1
	bx	lr
.Ltmp46:
.Lfunc_end4:
	.size	lv_anim_timeline_virtual_exec_cb, .Lfunc_end4-lv_anim_timeline_virtual_exec_cb
	.cfi_endproc
	.cantunwind
	.fnend
                                        @ -- End function
	.section	.text.lv_anim_timeline_start,"ax",%progbits
	.hidden	lv_anim_timeline_start          @ -- Begin function lv_anim_timeline_start
	.globl	lv_anim_timeline_start
	.p2align	1
	.type	lv_anim_timeline_start,%function
	.code	16                              @ @lv_anim_timeline_start
	.thumb_func
lv_anim_timeline_start:
.Lfunc_begin5:
	.loc	3 92 0                          @ ../GUILib/src/misc/lv_anim_timeline.c:92:0
	.fnstart
	.cfi_startproc
@ %bb.0:
	@DEBUG_VALUE: lv_anim_timeline_start:at <- $r0
	@DEBUG_VALUE: lv_anim_timeline_start:at <- $r0
	.loc	3 93 5 prologue_end             @ ../GUILib/src/misc/lv_anim_timeline.c:93:5
	cmp	r0, #0
	beq	.LBB5_8
.Ltmp47:
@ %bb.1:
	@DEBUG_VALUE: lv_anim_timeline_start:at <- $r0
	.save	{r4, r5, r6, r7, r8, r9, r10, r11, lr}
	push.w	{r4, r5, r6, r7, r8, r9, r10, r11, lr}
	.cfi_def_cfa_offset 36
	.cfi_offset lr, -4
	.cfi_offset r11, -8
	.cfi_offset r10, -12
	.cfi_offset r9, -16
	.cfi_offset r8, -20
	.cfi_offset r7, -24
	.cfi_offset r6, -28
	.cfi_offset r5, -32
	.cfi_offset r4, -36
	.pad	#68
	sub	sp, #68
	.cfi_def_cfa_offset 104
	mov	r11, r0
.Ltmp48:
	@DEBUG_VALUE: lv_anim_timeline_start:at <- $r11
	.loc	3 95 31                         @ ../GUILib/src/misc/lv_anim_timeline.c:95:31
	bl	lv_anim_timeline_get_playtime
.Ltmp49:
	.loc	3 98 33                         @ ../GUILib/src/misc/lv_anim_timeline.c:98:33
	ldr.w	r1, [r11, #4]
.Ltmp50:
	.loc	3 95 31                         @ ../GUILib/src/misc/lv_anim_timeline.c:95:31
	mov	r9, r0
.Ltmp51:
	@DEBUG_VALUE: i <- 0
	@DEBUG_VALUE: lv_anim_timeline_start:reverse <- [DW_OP_LLVM_convert 1 7, DW_OP_LLVM_convert 8 7, DW_OP_stack_value] undef
	@DEBUG_VALUE: lv_anim_timeline_start:playtime <- $r9
	.loc	3 98 5                          @ ../GUILib/src/misc/lv_anim_timeline.c:98:5
	cmp	r1, #0
	beq	.LBB5_7
.Ltmp52:
@ %bb.2:
	@DEBUG_VALUE: lv_anim_timeline_start:at <- $r11
	@DEBUG_VALUE: lv_anim_timeline_start:playtime <- $r9
	@DEBUG_VALUE: i <- 0
	.loc	3 0 5 is_stmt 0                 @ ../GUILib/src/misc/lv_anim_timeline.c:0:5
	ldrb.w	r10, [r11, #8]
	movs	r6, #0
	add.w	r8, sp, #4
	movs	r5, #0
.Ltmp53:
	.p2align	2
.LBB5_3:                                @ =>This Inner Loop Header: Depth=1
	@DEBUG_VALUE: lv_anim_timeline_start:at <- $r11
	@DEBUG_VALUE: lv_anim_timeline_start:playtime <- $r9
	@DEBUG_VALUE: i <- $r5
	.loc	3 99 27 is_stmt 1               @ ../GUILib/src/misc/lv_anim_timeline.c:99:27
	ldr.w	r1, [r11]
	.loc	3 102 12                        @ ../GUILib/src/misc/lv_anim_timeline.c:102:12
	cmp.w	r10, #0
	.loc	3 99 39                         @ ../GUILib/src/misc/lv_anim_timeline.c:99:39
	add.w	r0, r1, r6
	ldrd	r12, r3, [r0, #4]
	ldrd	r7, r4, [r0, #12]
	ldr	r1, [r1, r6]
	ldr	r2, [r0, #20]
	strd	r3, r7, [sp, #12]
	strd	r4, r2, [sp, #20]
	strd	r1, r12, [sp, #4]
	ldrd	r12, r2, [r0, #24]
	ldrd	r3, r7, [r0, #32]
	ldrd	r1, r4, [r0, #40]
	strd	r3, r7, [sp, #36]
	strd	r1, r4, [sp, #44]
	strd	r12, r2, [sp, #28]
	ldr	r3, [r0, #60]
	add.w	r7, r0, #48
	ldm	r7, {r1, r2, r7}
	str	r3, [sp, #64]
	add	r3, sp, #52
	stm	r3!, {r1, r2, r7}
	.loc	3 100 47                        @ ../GUILib/src/misc/lv_anim_timeline.c:100:47
	ldr	r0, [r0, #64]
.Ltmp54:
	@DEBUG_VALUE: start_time <- $r0
	.loc	3 102 12                        @ ../GUILib/src/misc/lv_anim_timeline.c:102:12
	beq	.LBB5_5
.Ltmp55:
@ %bb.4:                                @   in Loop: Header=BB5_3 Depth=1
	@DEBUG_VALUE: lv_anim_timeline_start:at <- $r11
	@DEBUG_VALUE: lv_anim_timeline_start:playtime <- $r9
	@DEBUG_VALUE: i <- $r5
	@DEBUG_VALUE: start_time <- $r0
	.loc	3 103 30                        @ ../GUILib/src/misc/lv_anim_timeline.c:103:30
	ldr	r1, [sp, #32]
.Ltmp56:
	@DEBUG_VALUE: temp <- $r1
	.loc	3 104 31                        @ ../GUILib/src/misc/lv_anim_timeline.c:104:31
	ldrd	r2, r3, [sp, #40]
	.loc	3 106 58                        @ ../GUILib/src/misc/lv_anim_timeline.c:106:58
	sub.w	r0, r0, r9
.Ltmp57:
	.loc	3 104 27                        @ ../GUILib/src/misc/lv_anim_timeline.c:104:27
	str	r2, [sp, #32]
	.loc	3 105 25                        @ ../GUILib/src/misc/lv_anim_timeline.c:105:25
	str	r1, [sp, #40]
	.loc	3 106 44                        @ ../GUILib/src/misc/lv_anim_timeline.c:106:44
	add	r0, r3
.Ltmp58:
	@DEBUG_VALUE: lv_anim_set_delay:delay <- undef
	@DEBUG_VALUE: lv_anim_set_delay:a <- [DW_OP_plus_uconst 4, DW_OP_stack_value] $sp
	.loc	3 0 44 is_stmt 0                @ ../GUILib/src/misc/lv_anim_timeline.c:0:44
	b	.LBB5_6
.Ltmp59:
	.p2align	2
.LBB5_5:                                @   in Loop: Header=BB5_3 Depth=1
	@DEBUG_VALUE: lv_anim_timeline_start:at <- $r11
	@DEBUG_VALUE: lv_anim_timeline_start:playtime <- $r9
	@DEBUG_VALUE: i <- $r5
	@DEBUG_VALUE: start_time <- $r0
	@DEBUG_VALUE: lv_anim_set_delay:a <- [DW_OP_plus_uconst 4, DW_OP_stack_value] $sp
	@DEBUG_VALUE: lv_anim_set_delay:delay <- $r0
	.loc	1 155 19 is_stmt 1              @ ../GUILib/src/misc/lv_anim.h:155:19
	rsbs	r0, r0, #0
.Ltmp60:
.LBB5_6:                                @   in Loop: Header=BB5_3 Depth=1
	@DEBUG_VALUE: lv_anim_timeline_start:at <- $r11
	@DEBUG_VALUE: lv_anim_timeline_start:playtime <- $r9
	@DEBUG_VALUE: i <- $r5
	.loc	3 0 0 is_stmt 0                 @ ../GUILib/src/misc/lv_anim_timeline.c:0:0
	str	r0, [sp, #48]
.Ltmp61:
	.loc	3 112 9 is_stmt 1               @ ../GUILib/src/misc/lv_anim_timeline.c:112:9
	mov	r0, r8
	bl	lv_anim_start
.Ltmp62:
	.loc	3 98 33                         @ ../GUILib/src/misc/lv_anim_timeline.c:98:33
	ldr.w	r0, [r11, #4]
	.loc	3 98 48 is_stmt 0               @ ../GUILib/src/misc/lv_anim_timeline.c:98:48
	adds	r5, #1
.Ltmp63:
	@DEBUG_VALUE: i <- $r5
	.loc	3 98 5                          @ ../GUILib/src/misc/lv_anim_timeline.c:98:5
	cmp	r5, r0
.Ltmp64:
	.loc	3 98 27                         @ ../GUILib/src/misc/lv_anim_timeline.c:98:27
	add.w	r6, r6, #68
.Ltmp65:
	.loc	3 98 5                          @ ../GUILib/src/misc/lv_anim_timeline.c:98:5
	blo	.LBB5_3
.Ltmp66:
.LBB5_7:
	@DEBUG_VALUE: lv_anim_timeline_start:at <- $r11
	@DEBUG_VALUE: lv_anim_timeline_start:playtime <- $r9
	.loc	3 115 5 is_stmt 1               @ ../GUILib/src/misc/lv_anim_timeline.c:115:5
	mov	r0, r9
	add	sp, #68
	pop.w	{r4, r5, r6, r7, r8, r9, r10, r11, pc}
.Ltmp67:
	.p2align	2
.LBB5_8:                                @ =>This Inner Loop Header: Depth=1
	@DEBUG_VALUE: lv_anim_timeline_start:at <- $r0
	.loc	3 93 5                          @ ../GUILib/src/misc/lv_anim_timeline.c:93:5
	b	.LBB5_8
.Ltmp68:
.Lfunc_end5:
	.size	lv_anim_timeline_start, .Lfunc_end5-lv_anim_timeline_start
	.cfi_endproc
	.cantunwind
	.fnend
                                        @ -- End function
	.section	.text.lv_anim_timeline_get_playtime,"ax",%progbits
	.hidden	lv_anim_timeline_get_playtime   @ -- Begin function lv_anim_timeline_get_playtime
	.globl	lv_anim_timeline_get_playtime
	.p2align	1
	.type	lv_anim_timeline_get_playtime,%function
	.code	16                              @ @lv_anim_timeline_get_playtime
	.thumb_func
lv_anim_timeline_get_playtime:
.Lfunc_begin6:
	.loc	3 167 0                         @ ../GUILib/src/misc/lv_anim_timeline.c:167:0
	.fnstart
	.cfi_startproc
@ %bb.0:
	@DEBUG_VALUE: lv_anim_timeline_get_playtime:at <- $r0
	@DEBUG_VALUE: lv_anim_timeline_get_playtime:at <- $r0
	.loc	3 168 5 prologue_end            @ ../GUILib/src/misc/lv_anim_timeline.c:168:5
	cbz	r0, .LBB6_5
.Ltmp69:
@ %bb.1:
	@DEBUG_VALUE: lv_anim_timeline_get_playtime:at <- $r0
	.save	{r4, r5, r6, r7, lr}
	push	{r4, r5, r6, r7, lr}
	.cfi_def_cfa_offset 20
	.cfi_offset lr, -4
	.cfi_offset r7, -8
	.cfi_offset r6, -12
	.cfi_offset r5, -16
	.cfi_offset r4, -20
	.pad	#4
	sub	sp, #4
	.cfi_def_cfa_offset 24
	mov	r4, r0
.Ltmp70:
	@DEBUG_VALUE: lv_anim_timeline_get_playtime:at <- $r4
	@DEBUG_VALUE: i <- 0
	@DEBUG_VALUE: lv_anim_timeline_get_playtime:playtime <- 0
	.loc	3 171 33                        @ ../GUILib/src/misc/lv_anim_timeline.c:171:33
	ldr	r0, [r0, #4]
.Ltmp71:
	.loc	3 171 5 is_stmt 0               @ ../GUILib/src/misc/lv_anim_timeline.c:171:5
	cbz	r0, .LBB6_6
.Ltmp72:
@ %bb.2:
	@DEBUG_VALUE: lv_anim_timeline_get_playtime:at <- $r4
	@DEBUG_VALUE: lv_anim_timeline_get_playtime:playtime <- 0
	@DEBUG_VALUE: i <- 0
	.loc	3 172 50 is_stmt 1              @ ../GUILib/src/misc/lv_anim_timeline.c:172:50
	ldr	r1, [r4]
	movs	r6, #0
	movs	r7, #0
	movs	r5, #0
.Ltmp73:
	.p2align	2
.LBB6_3:                                @ =>This Inner Loop Header: Depth=1
	@DEBUG_VALUE: lv_anim_timeline_get_playtime:at <- $r4
	@DEBUG_VALUE: i <- $r7
	@DEBUG_VALUE: lv_anim_timeline_get_playtime:playtime <- $r5
	.loc	3 172 24 is_stmt 0              @ ../GUILib/src/misc/lv_anim_timeline.c:172:24
	adds	r0, r1, r6
	bl	lv_anim_get_playtime
.Ltmp74:
	@DEBUG_VALUE: end <- $r0
	.loc	3 173 13 is_stmt 1              @ ../GUILib/src/misc/lv_anim_timeline.c:173:13
	adds	r1, r0, #1
	beq	.LBB6_7
.Ltmp75:
@ %bb.4:                                @   in Loop: Header=BB6_3 Depth=1
	@DEBUG_VALUE: i <- $r7
	@DEBUG_VALUE: lv_anim_timeline_get_playtime:playtime <- $r5
	@DEBUG_VALUE: lv_anim_timeline_get_playtime:at <- $r4
	@DEBUG_VALUE: end <- $r0
	.loc	3 175 20                        @ ../GUILib/src/misc/lv_anim_timeline.c:175:20
	ldr	r1, [r4]
.Ltmp76:
	.loc	3 171 33                        @ ../GUILib/src/misc/lv_anim_timeline.c:171:33
	ldr	r3, [r4, #4]
.Ltmp77:
	.loc	3 175 32                        @ ../GUILib/src/misc/lv_anim_timeline.c:175:32
	adds	r2, r1, r6
	ldr	r2, [r2, #64]
.Ltmp78:
	.loc	3 171 48                        @ ../GUILib/src/misc/lv_anim_timeline.c:171:48
	adds	r7, #1
.Ltmp79:
	@DEBUG_VALUE: i <- $r7
	.loc	3 175 13                        @ ../GUILib/src/misc/lv_anim_timeline.c:175:13
	add	r0, r2
.Ltmp80:
	@DEBUG_VALUE: end <- $r0
	.loc	3 176 12                        @ ../GUILib/src/misc/lv_anim_timeline.c:176:12
	cmp	r0, r5
	it	hi
	movhi	r5, r0
.Ltmp81:
	@DEBUG_VALUE: end <- $r5
	@DEBUG_VALUE: lv_anim_timeline_get_playtime:playtime <- $r5
	.loc	3 171 5                         @ ../GUILib/src/misc/lv_anim_timeline.c:171:5
	cmp	r7, r3
.Ltmp82:
	.loc	3 171 27 is_stmt 0              @ ../GUILib/src/misc/lv_anim_timeline.c:171:27
	add.w	r6, r6, #68
.Ltmp83:
	.loc	3 171 5                         @ ../GUILib/src/misc/lv_anim_timeline.c:171:5
	blo	.LBB6_3
	b	.LBB6_8
.Ltmp84:
	.p2align	2
.LBB6_5:                                @ =>This Inner Loop Header: Depth=1
	@DEBUG_VALUE: lv_anim_timeline_get_playtime:at <- $r0
	.loc	3 168 5 is_stmt 1               @ ../GUILib/src/misc/lv_anim_timeline.c:168:5
	b	.LBB6_5
.Ltmp85:
.LBB6_6:
	@DEBUG_VALUE: lv_anim_timeline_get_playtime:at <- $r4
	@DEBUG_VALUE: lv_anim_timeline_get_playtime:playtime <- 0
	@DEBUG_VALUE: i <- 0
	.loc	3 0 5 is_stmt 0                 @ ../GUILib/src/misc/lv_anim_timeline.c:0:5
	movs	r5, #0
	b	.LBB6_8
.Ltmp86:
.LBB6_7:
	@DEBUG_VALUE: i <- $r7
	@DEBUG_VALUE: lv_anim_timeline_get_playtime:playtime <- $r5
	@DEBUG_VALUE: lv_anim_timeline_get_playtime:at <- $r4
	@DEBUG_VALUE: end <- $r0
	mov.w	r5, #-1
.Ltmp87:
.LBB6_8:
	@DEBUG_VALUE: lv_anim_timeline_get_playtime:at <- $r4
	@DEBUG_VALUE: lv_anim_timeline_get_playtime:playtime <- undef
	.loc	3 182 1 is_stmt 1               @ ../GUILib/src/misc/lv_anim_timeline.c:182:1
	mov	r0, r5
	add	sp, #4
	pop	{r4, r5, r6, r7, pc}
.Ltmp88:
.Lfunc_end6:
	.size	lv_anim_timeline_get_playtime, .Lfunc_end6-lv_anim_timeline_get_playtime
	.cfi_endproc
	.cantunwind
	.fnend
                                        @ -- End function
	.section	.text.lv_anim_timeline_set_reverse,"ax",%progbits
	.hidden	lv_anim_timeline_set_reverse    @ -- Begin function lv_anim_timeline_set_reverse
	.globl	lv_anim_timeline_set_reverse
	.p2align	1
	.type	lv_anim_timeline_set_reverse,%function
	.code	16                              @ @lv_anim_timeline_set_reverse
	.thumb_func
lv_anim_timeline_set_reverse:
.Lfunc_begin7:
	.loc	3 129 0                         @ ../GUILib/src/misc/lv_anim_timeline.c:129:0
	.fnstart
	.cfi_startproc
@ %bb.0:
	@DEBUG_VALUE: lv_anim_timeline_set_reverse:at <- $r0
	@DEBUG_VALUE: lv_anim_timeline_set_reverse:at <- $r0
	@DEBUG_VALUE: lv_anim_timeline_set_reverse:reverse <- [DW_OP_LLVM_convert 1 7, DW_OP_LLVM_convert 8 7, DW_OP_stack_value] $r1
	@DEBUG_VALUE: lv_anim_timeline_set_reverse:reverse <- [DW_OP_LLVM_convert 1 7, DW_OP_LLVM_convert 8 7, DW_OP_stack_value] undef
	@DEBUG_VALUE: lv_anim_timeline_set_reverse:reverse <- [DW_OP_LLVM_convert 1 7, DW_OP_LLVM_convert 8 7, DW_OP_stack_value] $r1
	.loc	3 130 5 prologue_end            @ ../GUILib/src/misc/lv_anim_timeline.c:130:5
	cbz	r0, .LBB7_2
.Ltmp89:
@ %bb.1:
	@DEBUG_VALUE: lv_anim_timeline_set_reverse:reverse <- [DW_OP_LLVM_convert 1 7, DW_OP_LLVM_convert 8 7, DW_OP_stack_value] $r1
	@DEBUG_VALUE: lv_anim_timeline_set_reverse:at <- $r0
	@DEBUG_VALUE: lv_anim_timeline_set_reverse:reverse <- undef
	.loc	3 131 17                        @ ../GUILib/src/misc/lv_anim_timeline.c:131:17
	strb	r1, [r0, #8]
	.loc	3 132 1                         @ ../GUILib/src/misc/lv_anim_timeline.c:132:1
	bx	lr
.Ltmp90:
	.p2align	2
.LBB7_2:                                @ =>This Inner Loop Header: Depth=1
	@DEBUG_VALUE: lv_anim_timeline_set_reverse:reverse <- [DW_OP_LLVM_convert 1 7, DW_OP_LLVM_convert 8 7, DW_OP_stack_value] $r1
	@DEBUG_VALUE: lv_anim_timeline_set_reverse:at <- $r0
	.loc	3 130 5                         @ ../GUILib/src/misc/lv_anim_timeline.c:130:5
	b	.LBB7_2
.Ltmp91:
.Lfunc_end7:
	.size	lv_anim_timeline_set_reverse, .Lfunc_end7-lv_anim_timeline_set_reverse
	.cfi_endproc
	.cantunwind
	.fnend
                                        @ -- End function
	.section	.text.lv_anim_timeline_set_progress,"ax",%progbits
	.hidden	lv_anim_timeline_set_progress   @ -- Begin function lv_anim_timeline_set_progress
	.globl	lv_anim_timeline_set_progress
	.p2align	1
	.type	lv_anim_timeline_set_progress,%function
	.code	16                              @ @lv_anim_timeline_set_progress
	.thumb_func
lv_anim_timeline_set_progress:
.Lfunc_begin8:
	.loc	3 135 0                         @ ../GUILib/src/misc/lv_anim_timeline.c:135:0
	.fnstart
	.cfi_startproc
@ %bb.0:
	@DEBUG_VALUE: lv_anim_timeline_set_progress:at <- $r0
	@DEBUG_VALUE: lv_anim_timeline_set_progress:progress <- $r1
	@DEBUG_VALUE: lv_anim_timeline_set_progress:progress <- undef
	@DEBUG_VALUE: lv_anim_timeline_set_progress:at <- $r0
	.loc	3 136 5 prologue_end            @ ../GUILib/src/misc/lv_anim_timeline.c:136:5
	cmp	r0, #0
.Ltmp92:
	@DEBUG_VALUE: lv_anim_timeline_set_progress:progress <- $r1
	beq	.LBB8_12
.Ltmp93:
@ %bb.1:
	@DEBUG_VALUE: lv_anim_timeline_set_progress:progress <- $r1
	@DEBUG_VALUE: lv_anim_timeline_set_progress:at <- $r0
	.save	{r4, r5, r6, r7, r8, lr}
	push.w	{r4, r5, r6, r7, r8, lr}
	.cfi_def_cfa_offset 24
	.cfi_offset lr, -4
	.cfi_offset r8, -8
	.cfi_offset r7, -12
	.cfi_offset r6, -16
	.cfi_offset r5, -20
	.cfi_offset r4, -24
	mov	r4, r0
.Ltmp94:
	@DEBUG_VALUE: lv_anim_timeline_set_progress:at <- $r4
	.loc	3 0 5 is_stmt 0                 @ ../GUILib/src/misc/lv_anim_timeline.c:0:5
	mov	r5, r1
.Ltmp95:
	@DEBUG_VALUE: lv_anim_timeline_set_progress:progress <- $r5
	@DEBUG_VALUE: lv_anim_timeline_set_progress:progress <- $r5
	.loc	3 138 31 is_stmt 1              @ ../GUILib/src/misc/lv_anim_timeline.c:138:31
	bl	lv_anim_timeline_get_playtime
.Ltmp96:
	.loc	3 141 33                        @ ../GUILib/src/misc/lv_anim_timeline.c:141:33
	ldr	r1, [r4, #4]
.Ltmp97:
	@DEBUG_VALUE: i <- 0
	@DEBUG_VALUE: lv_anim_timeline_set_progress:act_time <- undef
	@DEBUG_VALUE: lv_anim_timeline_set_progress:playtime <- $r0
	.loc	3 141 5 is_stmt 0               @ ../GUILib/src/misc/lv_anim_timeline.c:141:5
	cbz	r1, .LBB8_11
.Ltmp98:
@ %bb.2:
	@DEBUG_VALUE: lv_anim_timeline_set_progress:progress <- $r5
	@DEBUG_VALUE: lv_anim_timeline_set_progress:at <- $r4
	@DEBUG_VALUE: lv_anim_timeline_set_progress:playtime <- $r0
	@DEBUG_VALUE: i <- 0
	.loc	3 0 5                           @ ../GUILib/src/misc/lv_anim_timeline.c:0:5
	movw	r2, #32769
	muls	r0, r5, r0
.Ltmp99:
	movt	r2, #32768
	umull	r0, r2, r0, r2
	lsr.w	r8, r2, #15
.Ltmp100:
	@DEBUG_VALUE: lv_anim_timeline_set_progress:act_time <- $r8
	movs	r6, #0
	movs	r7, #64
.Ltmp101:
	.p2align	2
.LBB8_3:                                @ =>This Inner Loop Header: Depth=1
	@DEBUG_VALUE: lv_anim_timeline_set_progress:act_time <- $r8
	@DEBUG_VALUE: lv_anim_timeline_set_progress:at <- $r4
	@DEBUG_VALUE: i <- $r6
	.loc	3 142 31 is_stmt 1              @ ../GUILib/src/misc/lv_anim_timeline.c:142:31
	ldr	r0, [r4]
.Ltmp102:
	@DEBUG_VALUE: a <- undef
	.loc	3 144 15                        @ ../GUILib/src/misc/lv_anim_timeline.c:144:15
	adds	r5, r0, r7
	ldr	r2, [r5, #-60]
.Ltmp103:
	.loc	3 144 12 is_stmt 0              @ ../GUILib/src/misc/lv_anim_timeline.c:144:12
	cbz	r2, .LBB8_10
.Ltmp104:
@ %bb.4:                                @   in Loop: Header=BB8_3 Depth=1
	@DEBUG_VALUE: lv_anim_timeline_set_progress:act_time <- $r8
	@DEBUG_VALUE: i <- $r6
	@DEBUG_VALUE: lv_anim_timeline_set_progress:at <- $r4
	.loc	3 148 47 is_stmt 1              @ ../GUILib/src/misc/lv_anim_timeline.c:148:47
	ldr	r1, [r0, r7]
.Ltmp105:
	@DEBUG_VALUE: value <- 0
	@DEBUG_VALUE: start_time <- $r1
	.loc	3 151 12                        @ ../GUILib/src/misc/lv_anim_timeline.c:151:12
	cmp	r8, r1
	bhs	.LBB8_6
.Ltmp106:
@ %bb.5:                                @   in Loop: Header=BB8_3 Depth=1
	@DEBUG_VALUE: lv_anim_timeline_set_progress:act_time <- $r8
	@DEBUG_VALUE: i <- $r6
	@DEBUG_VALUE: lv_anim_timeline_set_progress:at <- $r4
	@DEBUG_VALUE: start_time <- $r1
	@DEBUG_VALUE: value <- 0
	.loc	3 152 24                        @ ../GUILib/src/misc/lv_anim_timeline.c:152:24
	ldr	r1, [r5, #-36]
.Ltmp107:
	@DEBUG_VALUE: value <- $r1
	.loc	3 0 24 is_stmt 0                @ ../GUILib/src/misc/lv_anim_timeline.c:0:24
	b	.LBB8_9
.Ltmp108:
	.p2align	2
.LBB8_6:                                @   in Loop: Header=BB8_3 Depth=1
	@DEBUG_VALUE: lv_anim_timeline_set_progress:act_time <- $r8
	@DEBUG_VALUE: i <- $r6
	@DEBUG_VALUE: lv_anim_timeline_set_progress:at <- $r4
	@DEBUG_VALUE: start_time <- $r1
	@DEBUG_VALUE: value <- 0
	.loc	3 154 45 is_stmt 1              @ ../GUILib/src/misc/lv_anim_timeline.c:154:45
	ldr	r0, [r5, #-24]
	.loc	3 154 40 is_stmt 0              @ ../GUILib/src/misc/lv_anim_timeline.c:154:40
	add	r0, r1
.Ltmp109:
	.loc	3 154 17                        @ ../GUILib/src/misc/lv_anim_timeline.c:154:17
	cmp	r8, r0
	bhs	.LBB8_8
.Ltmp110:
@ %bb.7:                                @   in Loop: Header=BB8_3 Depth=1
	@DEBUG_VALUE: lv_anim_timeline_set_progress:act_time <- $r8
	@DEBUG_VALUE: i <- $r6
	@DEBUG_VALUE: lv_anim_timeline_set_progress:at <- $r4
	@DEBUG_VALUE: start_time <- $r1
	@DEBUG_VALUE: value <- 0
	.loc	3 156 24 is_stmt 1              @ ../GUILib/src/misc/lv_anim_timeline.c:156:24
	ldr	r2, [r5, #-40]
.Ltmp111:
	.loc	3 0 0 is_stmt 0                 @ ../GUILib/src/misc/lv_anim_timeline.c:0:0
	sub.w	r0, r5, #64
.Ltmp112:
	.loc	3 155 36 is_stmt 1              @ ../GUILib/src/misc/lv_anim_timeline.c:155:36
	sub.w	r1, r8, r1
.Ltmp113:
	.loc	3 155 25 is_stmt 0              @ ../GUILib/src/misc/lv_anim_timeline.c:155:25
	str	r1, [r5, #-20]
	.loc	3 156 21 is_stmt 1              @ ../GUILib/src/misc/lv_anim_timeline.c:156:21
	blx	r2
.Ltmp114:
	.loc	3 162 12                        @ ../GUILib/src/misc/lv_anim_timeline.c:162:12
	ldr	r2, [r5, #-60]
.Ltmp115:
	.loc	3 156 21                        @ ../GUILib/src/misc/lv_anim_timeline.c:156:21
	mov	r1, r0
.Ltmp116:
	@DEBUG_VALUE: value <- $r1
	.loc	3 0 21 is_stmt 0                @ ../GUILib/src/misc/lv_anim_timeline.c:0:21
	b	.LBB8_9
.Ltmp117:
.LBB8_8:                                @   in Loop: Header=BB8_3 Depth=1
	@DEBUG_VALUE: lv_anim_timeline_set_progress:act_time <- $r8
	@DEBUG_VALUE: i <- $r6
	@DEBUG_VALUE: lv_anim_timeline_set_progress:at <- $r4
	@DEBUG_VALUE: start_time <- $r1
	@DEBUG_VALUE: value <- 0
	.loc	3 159 24 is_stmt 1              @ ../GUILib/src/misc/lv_anim_timeline.c:159:24
	ldr	r1, [r5, #-28]
.Ltmp118:
	@DEBUG_VALUE: value <- $r1
.LBB8_9:                                @   in Loop: Header=BB8_3 Depth=1
	@DEBUG_VALUE: lv_anim_timeline_set_progress:act_time <- $r8
	@DEBUG_VALUE: i <- $r6
	@DEBUG_VALUE: lv_anim_timeline_set_progress:at <- $r4
	@DEBUG_VALUE: value <- $r1
	@DEBUG_VALUE: value <- $r1
	.loc	3 162 23                        @ ../GUILib/src/misc/lv_anim_timeline.c:162:23
	ldr	r0, [r5, #-64]
	.loc	3 162 9 is_stmt 0               @ ../GUILib/src/misc/lv_anim_timeline.c:162:9
	blx	r2
.Ltmp119:
	.loc	3 141 33 is_stmt 1              @ ../GUILib/src/misc/lv_anim_timeline.c:141:33
	ldr	r1, [r4, #4]
.Ltmp120:
.LBB8_10:                               @   in Loop: Header=BB8_3 Depth=1
	@DEBUG_VALUE: lv_anim_timeline_set_progress:act_time <- $r8
	@DEBUG_VALUE: i <- $r6
	@DEBUG_VALUE: lv_anim_timeline_set_progress:at <- $r4
	.loc	3 141 48 is_stmt 0              @ ../GUILib/src/misc/lv_anim_timeline.c:141:48
	adds	r6, #1
.Ltmp121:
	@DEBUG_VALUE: i <- $r6
	.loc	3 141 5                         @ ../GUILib/src/misc/lv_anim_timeline.c:141:5
	cmp	r6, r1
.Ltmp122:
	.loc	3 141 27                        @ ../GUILib/src/misc/lv_anim_timeline.c:141:27
	add.w	r7, r7, #68
.Ltmp123:
	.loc	3 141 5                         @ ../GUILib/src/misc/lv_anim_timeline.c:141:5
	blo	.LBB8_3
.Ltmp124:
.LBB8_11:
	@DEBUG_VALUE: lv_anim_timeline_set_progress:at <- $r4
	.loc	3 164 1 is_stmt 1               @ ../GUILib/src/misc/lv_anim_timeline.c:164:1
	pop.w	{r4, r5, r6, r7, r8, pc}
.Ltmp125:
	.p2align	2
.LBB8_12:                               @ =>This Inner Loop Header: Depth=1
	@DEBUG_VALUE: lv_anim_timeline_set_progress:progress <- $r1
	@DEBUG_VALUE: lv_anim_timeline_set_progress:at <- $r0
	.loc	3 136 5                         @ ../GUILib/src/misc/lv_anim_timeline.c:136:5
	b	.LBB8_12
.Ltmp126:
.Lfunc_end8:
	.size	lv_anim_timeline_set_progress, .Lfunc_end8-lv_anim_timeline_set_progress
	.cfi_endproc
	.cantunwind
	.fnend
                                        @ -- End function
	.section	.text.lv_anim_timeline_get_reverse,"ax",%progbits
	.hidden	lv_anim_timeline_get_reverse    @ -- Begin function lv_anim_timeline_get_reverse
	.globl	lv_anim_timeline_get_reverse
	.p2align	1
	.type	lv_anim_timeline_get_reverse,%function
	.code	16                              @ @lv_anim_timeline_get_reverse
	.thumb_func
lv_anim_timeline_get_reverse:
.Lfunc_begin9:
	.loc	3 185 0                         @ ../GUILib/src/misc/lv_anim_timeline.c:185:0
	.fnstart
	.cfi_startproc
@ %bb.0:
	@DEBUG_VALUE: lv_anim_timeline_get_reverse:at <- $r0
	@DEBUG_VALUE: lv_anim_timeline_get_reverse:at <- $r0
	.loc	3 186 5 prologue_end            @ ../GUILib/src/misc/lv_anim_timeline.c:186:5
	cbz	r0, .LBB9_2
.Ltmp127:
@ %bb.1:
	@DEBUG_VALUE: lv_anim_timeline_get_reverse:at <- $r0
	.loc	3 187 16                        @ ../GUILib/src/misc/lv_anim_timeline.c:187:16
	ldrb	r0, [r0, #8]
.Ltmp128:
	@DEBUG_VALUE: lv_anim_timeline_get_reverse:at <- [DW_OP_LLVM_entry_value 1] $r0
	.loc	3 187 5 is_stmt 0               @ ../GUILib/src/misc/lv_anim_timeline.c:187:5
	bx	lr
.Ltmp129:
	.p2align	2
.LBB9_2:                                @ =>This Inner Loop Header: Depth=1
	@DEBUG_VALUE: lv_anim_timeline_get_reverse:at <- $r0
	.loc	3 186 5 is_stmt 1               @ ../GUILib/src/misc/lv_anim_timeline.c:186:5
	b	.LBB9_2
.Ltmp130:
.Lfunc_end9:
	.size	lv_anim_timeline_get_reverse, .Lfunc_end9-lv_anim_timeline_get_reverse
	.cfi_endproc
	.cantunwind
	.fnend
                                        @ -- End function
	.section	".note.GNU-stack","",%progbits
	.eabi_attribute	30, 3	@ Tag_ABI_optimization_goals
	.ARM_attribute	16, 1	@ Tag_AV_eba