	.text
	.syntax unified
	.eabi_attribute	67, "2.09"	@ Tag_conformance
	.cpu	cortex-m4
	.eabi_attribute	6, 13	@ Tag_CPU_arch
	.eabi_attribute	7, 77	@ Tag_CPU_arch_profile
	.eabi_attribute	8, 0	@ Tag_ARM_ISA_use
	.eabi_attribute	9, 2	@ Tag_THUMB_ISA_use
	.fpu	fpv4-sp-d16
	.eabi_attribute	27, 1	@ Tag_ABI_HardFP_use
	.eabi_attribute	36, 1	@ Tag_FP_HP_extension
	.eabi_attribute	34, 1	@ Tag_CPU_unaligned_access
	.eabi_attribute	17, 1	@ Tag_ABI_PCS_GOT_use
	.eabi_attribute	20, 2	@ Tag_ABI_FP_denormal
	.eabi_attribute	21, 0	@ Tag_ABI_FP_exceptions
	.eabi_attribute	23, 1	@ Tag_ABI_FP_number_model
	.eabi_attribute	24, 1	@ Tag_ABI_align_needed
	.eabi_attribute	25, 1	@ Tag_ABI_align_preserved
	.eabi_attribute	28, 1	@ Tag_ABI_VFP_args
	.eabi_attribute	38, 1	@ Tag_ABI_FP_16bit_format
	.eabi_attribute	18, 2	@ Tag_ABI_PCS_wchar_t
	.eabi_attribute	26, 1	@ Tag_ABI_enum_size
	.eabi_attribute	14, 0	@ Tag_ABI_PCS_R9_use
	.file	"lv_btnmatrix.c"
	.file	1 "C:\\Users\\Hyacincher\\Desktop\\HyTelectrl\\Code\\Project" "../GUILib/src/widgets/../core/lv_obj_class.h"
	.file	2 "C:\\Users\\Hyacincher\\Desktop\\HyTelectrl\\Code\\Project" "../GUILib/src/widgets/../core/lv_obj.h"
	.file	3 "D:\\Keil MDK\\ARM\\ARMCLANG\\Bin\\..\\include" "stdint.h"
	.file	4 "C:\\Users\\Hyacincher\\Desktop\\HyTelectrl\\Code\\Project" "../GUILib/src/widgets/../core/../misc/lv_ll.h"
	.file	5 "C:\\Users\\Hyacincher\\Desktop\\HyTelectrl\\Code\\Project" "../GUILib/src/widgets/../core/lv_group.h"
	.file	6 "C:\\Users\\Hyacincher\\Desktop\\HyTelectrl\\Code\\Project" "../GUILib/src/hal/../misc/lv_area.h"
	.file	7 "C:\\Users\\Hyacincher\\Desktop\\HyTelectrl\\Code\\Project" "../GUILib/src/widgets/../core/lv_obj_scroll.h"
	.file	8 "C:\\Users\\Hyacincher\\Desktop\\HyTelectrl\\Code\\Project" "../GUILib/src/hal/../draw/../misc/lv_style.h"
	.file	9 "C:\\Users\\Hyacincher\\Desktop\\HyTelectrl\\Code\\Project" "../GUILib/src/hal/../misc/lv_color.h"
	.file	10 "C:\\Users\\Hyacincher\\Desktop\\HyTelectrl\\Code\\Project" "../GUILib/src/widgets/../core/lv_obj_style.h"
	.file	11 "C:\\Users\\Hyacincher\\Desktop\\HyTelectrl\\Code\\Project" "../GUILib/src/widgets/../core/lv_event.h"
	.file	12 "C:\\Users\\Hyacincher\\Desktop\\HyTelectrl\\Code\\Project" "../GUILib/src/widgets/lv_btnmatrix.c"
	.file	13 "C:\\Users\\Hyacincher\\Desktop\\HyTelectrl\\Code\\Project" "../GUILib/src/hal/../draw/../misc/lv_bidi.h"
	.file	14 "C:\\Users\\Hyacincher\\Desktop\\HyTelectrl\\Code\\Project" "../GUILib/src/widgets/lv_btnmatrix.h"
	.file	15 "C:\\Users\\Hyacincher\\Desktop\\HyTelectrl\\Code\\Project" "../GUILib/src/hal/../draw/../misc/lv_types.h"
	.file	16 "C:\\Users\\Hyacincher\\Desktop\\HyTelectrl\\Code\\Project" "../GUILib/src/widgets/../core/../hal/lv_hal_indev.h"
	.file	17 "C:\\Users\\Hyacincher\\Desktop\\HyTelectrl\\Code\\Project" "../GUILib/src/widgets/../misc/lv_txt.h"
	.section	.text.lv_btnmatrix_constructor,"ax",%progbits
	.p2align	1                               @ -- Begin function lv_btnmatrix_constructor
	.type	lv_btnmatrix_constructor,%function
	.code	16                              @ @lv_btnmatrix_constructor
	.thumb_func
lv_btnmatrix_constructor:
.Lfunc_begin0:
	.loc	12 357 0                        @ ../GUILib/src/widgets/lv_btnmatrix.c:357:0
	.fnstart
	.cfi_sections .debug_frame
	.cfi_startproc
@ %bb.0:
	@DEBUG_VALUE: lv_btnmatrix_constructor:class_p <- $r0
	@DEBUG_VALUE: lv_btnmatrix_constructor:obj <- $r1
	mov	r0, r1
.Ltmp0:
	@DEBUG_VALUE: lv_btnmatrix_constructor:class_p <- [DW_OP_LLVM_entry_value 1] $r0
	movw	r2, #65535
.Ltmp1:
	@DEBUG_VALUE: lv_btnmatrix_constructor:btnm <- $r0
	@DEBUG_VALUE: lv_btnmatrix_constructor:obj <- $r0
	movs	r1, #0
.Ltmp2:
	.loc	12 363 26 prologue_end          @ ../GUILib/src/widgets/lv_btnmatrix.c:363:26
	strh	r2, [r0, #52]
	.loc	12 367 26                       @ ../GUILib/src/widgets/lv_btnmatrix.c:367:26
	ldrb.w	r2, [r0, #54]
	.loc	12 366 26                       @ ../GUILib/src/widgets/lv_btnmatrix.c:366:26
	strd	r1, r1, [r0, #36]
	.loc	12 365 26                       @ ../GUILib/src/widgets/lv_btnmatrix.c:365:26
	str	r1, [r0, #44]
	.loc	12 361 26                       @ ../GUILib/src/widgets/lv_btnmatrix.c:361:26
	str	r1, [r0, #48]
	.loc	12 369 5                        @ ../GUILib/src/widgets/lv_btnmatrix.c:369:5
	movw	r1, :lower16:lv_btnmatrix_def_map
	.loc	12 367 26                       @ ../GUILib/src/widgets/lv_btnmatrix.c:367:26
	and	r2, r2, #254
	.loc	12 369 5                        @ ../GUILib/src/widgets/lv_btnmatrix.c:369:5
	movt	r1, :upper16:lv_btnmatrix_def_map
	.loc	12 367 26                       @ ../GUILib/src/widgets/lv_btnmatrix.c:367:26
	strb.w	r2, [r0, #54]
.Ltmp3:
	.loc	12 369 5                        @ ../GUILib/src/widgets/lv_btnmatrix.c:369:5
	b	lv_btnmatrix_set_map
.Ltmp4:
.Lfunc_end0:
	.size	lv_btnmatrix_constructor, .Lfunc_end0-lv_btnmatrix_constructor
	.cfi_endproc
	.cantunwind
	.fnend
                                        @ -- End function
	.section	.text.lv_btnmatrix_destructor,"ax",%progbits
	.p2align	1                               @ -- Begin function lv_btnmatrix_destructor
	.type	lv_btnmatrix_destructor,%function
	.code	16                              @ @lv_btnmatrix_destructor
	.thumb_func
lv_btnmatrix_destructor:
.Lfunc_begin1:
	.loc	12 375 0                        @ ../GUILib/src/widgets/lv_btnmatrix.c:375:0
	.fnstart
	.cfi_startproc
@ %bb.0:
	@DEBUG_VALUE: lv_btnmatrix_destructor:class_p <- $r0
	@DEBUG_VALUE: lv_btnmatrix_destructor:obj <- $r1
	.save	{r4, lr}
	push	{r4, lr}
	.cfi_def_cfa_offset 8
	.cfi_offset lr, -4
	.cfi_offset r4, -8
.Ltmp5:
	@DEBUG_VALUE: lv_btnmatrix_destructor:btnm <- $r1
	.loc	12 379 23 prologue_end          @ ../GUILib/src/widgets/lv_btnmatrix.c:379:23
	ldr	r0, [r1, #40]
.Ltmp6:
	@DEBUG_VALUE: lv_btnmatrix_destructor:class_p <- [DW_OP_LLVM_entry_value 1] $r0
	.loc	12 0 23 is_stmt 0               @ ../GUILib/src/widgets/lv_btnmatrix.c:0:23
	mov	r4, r1
.Ltmp7:
	@DEBUG_VALUE: lv_btnmatrix_destructor:obj <- $r4
	@DEBUG_VALUE: lv_btnmatrix_destructor:btnm <- $r4
	@DEBUG_VALUE: lv_btnmatrix_destructor:obj <- $r4
	.loc	12 379 5                        @ ../GUILib/src/widgets/lv_btnmatrix.c:379:5
	bl	lv_mem_free
.Ltmp8:
	.loc	12 380 23 is_stmt 1             @ ../GUILib/src/widgets/lv_btnmatrix.c:380:23
	ldr	r0, [r4, #44]
	.loc	12 380 5 is_stmt 0              @ ../GUILib/src/widgets/lv_btnmatrix.c:380:5
	bl	lv_mem_free
.Ltmp9:
	.loc	12 0 5                          @ ../GUILib/src/widgets/lv_btnmatrix.c:0:5
	movs	r0, #0
	.loc	12 381 24 is_stmt 1             @ ../GUILib/src/widgets/lv_btnmatrix.c:381:24
	strd	r0, r0, [r4, #40]
	.loc	12 384 1                        @ ../GUILib/src/widgets/lv_btnmatrix.c:384:1
	pop	{r4, pc}
.Ltmp10:
.Lfunc_end1:
	.size	lv_btnmatrix_destructor, .Lfunc_end1-lv_btnmatrix_destructor
	.cfi_endproc
	.cantunwind
	.fnend
                                        @ -- End function
	.section	.text.lv_btnmatrix_event,"ax",%progbits
	.p2align	2                               @ -- Begin function lv_btnmatrix_event
	.type	lv_btnmatrix_event,%function
	.code	16                              @ @lv_btnmatrix_event
	.thumb_func
lv_btnmatrix_event:
.Lfunc_begin2:
	.loc	12 387 0                        @ ../GUILib/src/widgets/lv_btnmatrix.c:387:0
	.fnstart
	.cfi_startproc
@ %bb.0:
	@DEBUG_VALUE: lv_btnmatrix_event:class_p <- $r0
	@DEBUG_VALUE: lv_btnmatrix_event:e <- $r1
	.save	{r4, r5, r6, r7, r8, r9, r10, r11, lr}
	push.w	{r4, r5, r6, r7, r8, r9, r10, r11, lr}
	.cfi_def_cfa_offset 36
	.cfi_offset lr, -4
	.cfi_offset r11, -8
	.cfi_offset r10, -12
	.cfi_offset r9, -16
	.cfi_offset r8, -20
	.cfi_offset r7, -24
	.cfi_offset r6, -28
	.cfi_offset r5, -32
	.cfi_offset r4, -36
	.pad	#308
	sub	sp, #308
	.cfi_def_cfa_offset 344
.Ltmp11:
	.loc	12 393 11 prologue_end          @ ../GUILib/src/widgets/lv_btnmatrix.c:393:11
	movw	r6, :lower16:lv_btnmatrix_class
	movt	r6, :upper16:lv_btnmatrix_class
	mov	r0, r6
.Ltmp12:
	@DEBUG_VALUE: lv_btnmatrix_event:class_p <- [DW_OP_LLVM_entry_value 1] $r0
	.loc	12 0 11 is_stmt 0               @ ../GUILib/src/widgets/lv_btnmatrix.c:0:11
	mov	r5, r1
.Ltmp13:
	@DEBUG_VALUE: lv_btnmatrix_event:e <- $r5
	.loc	12 393 11                       @ ../GUILib/src/widgets/lv_btnmatrix.c:393:11
	bl	lv_obj_event_base
.Ltmp14:
	@DEBUG_VALUE: lv_btnmatrix_event:res <- $r0
	.loc	12 394 8 is_stmt 1              @ ../GUILib/src/widgets/lv_btnmatrix.c:394:8
	cmp	r0, #1
	bne.w	.LBB2_132
.Ltmp15:
@ %bb.1:
	@DEBUG_VALUE: lv_btnmatrix_event:e <- $r5
	@DEBUG_VALUE: lv_btnmatrix_event:res <- $r0
	@DEBUG_VALUE: lv_btnmatrix_event:class_p <- [DW_OP_LLVM_entry_value 1] $r0
	.loc	12 396 28                       @ ../GUILib/src/widgets/lv_btnmatrix.c:396:28
	mov	r0, r5
.Ltmp16:
	bl	lv_event_get_code
.Ltmp17:
	mov	r7, r0
.Ltmp18:
	@DEBUG_VALUE: lv_btnmatrix_event:code <- undef
	.loc	12 397 22                       @ ../GUILib/src/widgets/lv_btnmatrix.c:397:22
	mov	r0, r5
	bl	lv_event_get_target
.Ltmp19:
	.loc	12 401 8                        @ ../GUILib/src/widgets/lv_btnmatrix.c:401:8
	subs	r1, r7, #1
	cmp	r1, #20
	.loc	12 397 22                       @ ../GUILib/src/widgets/lv_btnmatrix.c:397:22
	mov	r4, r0
.Ltmp20:
	@DEBUG_VALUE: lv_btnmatrix_event:btnm <- $r4
	@DEBUG_VALUE: lv_btnmatrix_event:obj <- $r4
	.loc	12 401 8                        @ ../GUILib/src/widgets/lv_btnmatrix.c:401:8
	bhi	.LBB2_7
.Ltmp21:
@ %bb.2:
	@DEBUG_VALUE: lv_btnmatrix_event:e <- $r5
	@DEBUG_VALUE: lv_btnmatrix_event:obj <- $r4
	@DEBUG_VALUE: lv_btnmatrix_event:btnm <- $r4
	@DEBUG_VALUE: lv_btnmatrix_event:class_p <- [DW_OP_LLVM_entry_value 1] $r0
	.loc	12 0 8 is_stmt 0                @ ../GUILib/src/widgets/lv_btnmatrix.c:0:8
.LCPI2_0:
	tbh	[pc, r1, lsl #1]
.Ltmp22:
@ %bb.3:
.LJTI2_0:
	.short	(.LBB2_10-(.LCPI2_0+4))/2
	.short	(.LBB2_18-(.LCPI2_0+4))/2
	.short	(.LBB2_28-(.LCPI2_0+4))/2
	.short	(.LBB2_132-(.LCPI2_0+4))/2
	.short	(.LBB2_132-(.LCPI2_0+4))/2
	.short	(.LBB2_30-(.LCPI2_0+4))/2
	.short	(.LBB2_132-(.LCPI2_0+4))/2
	.short	(.LBB2_34-(.LCPI2_0+4))/2
	.short	(.LBB2_132-(.LCPI2_0+4))/2
	.short	(.LBB2_132-(.LCPI2_0+4))/2
	.short	(.LBB2_132-(.LCPI2_0+4))/2
	.short	(.LBB2_132-(.LCPI2_0+4))/2
	.short	(.LBB2_39-(.LCPI2_0+4))/2
	.short	(.LBB2_50-(.LCPI2_0+4))/2
	.short	(.LBB2_4-(.LCPI2_0+4))/2
	.short	(.LBB2_4-(.LCPI2_0+4))/2
	.short	(.LBB2_132-(.LCPI2_0+4))/2
	.short	(.LBB2_132-(.LCPI2_0+4))/2
	.short	(.LBB2_59-(.LCPI2_0+4))/2
	.short	(.LBB2_132-(.LCPI2_0+4))/2
	.short	(.LBB2_68-(.LCPI2_0+4))/2
	.p2align	1
.LBB2_4:
.Ltmp23:
	@DEBUG_VALUE: lv_btnmatrix_event:e <- $r5
	@DEBUG_VALUE: lv_btnmatrix_event:obj <- $r4
	@DEBUG_VALUE: lv_btnmatrix_event:btnm <- $r4
	@DEBUG_VALUE: lv_btnmatrix_event:class_p <- [DW_OP_LLVM_entry_value 1] $r0
	.loc	12 559 18 is_stmt 1             @ ../GUILib/src/widgets/lv_btnmatrix.c:559:18
	ldrh	r1, [r4, #52]
	movw	r5, #65535
.Ltmp24:
	@DEBUG_VALUE: lv_btnmatrix_event:e <- [DW_OP_LLVM_entry_value 1] $r1
	.loc	12 559 12 is_stmt 0             @ ../GUILib/src/widgets/lv_btnmatrix.c:559:12
	cmp	r1, r5
	beq	.LBB2_6
.Ltmp25:
@ %bb.5:
	@DEBUG_VALUE: lv_btnmatrix_event:obj <- $r4
	@DEBUG_VALUE: lv_btnmatrix_event:btnm <- $r4
	@DEBUG_VALUE: lv_btnmatrix_event:e <- [DW_OP_LLVM_entry_value 1] $r1
	@DEBUG_VALUE: lv_btnmatrix_event:class_p <- [DW_OP_LLVM_entry_value 1] $r0
	.loc	12 559 55                       @ ../GUILib/src/widgets/lv_btnmatrix.c:559:55
	mov	r0, r4
	bl	invalidate_button_area
.Ltmp26:
.LBB2_6:
	@DEBUG_VALUE: lv_btnmatrix_event:obj <- $r4
	@DEBUG_VALUE: lv_btnmatrix_event:btnm <- $r4
	@DEBUG_VALUE: lv_btnmatrix_event:e <- [DW_OP_LLVM_entry_value 1] $r1
	@DEBUG_VALUE: lv_btnmatrix_event:class_p <- [DW_OP_LLVM_entry_value 1] $r0
	.loc	12 0 0                          @ ../GUILib/src/widgets/lv_btnmatrix.c:0:0
	strh	r5, [r4, #52]
	b.w	.LBB2_132
.Ltmp27:
.LBB2_7:
	@DEBUG_VALUE: lv_btnmatrix_event:e <- $r5
	@DEBUG_VALUE: lv_btnmatrix_event:obj <- $r4
	@DEBUG_VALUE: lv_btnmatrix_event:btnm <- $r4
	@DEBUG_VALUE: lv_btnmatrix_event:class_p <- [DW_OP_LLVM_entry_value 1] $r0
	.loc	12 401 8 is_stmt 1              @ ../GUILib/src/widgets/lv_btnmatrix.c:401:8
	cmp	r7, #41
	beq	.LBB2_9
.Ltmp28:
@ %bb.8:
	@DEBUG_VALUE: lv_btnmatrix_event:e <- $r5
	@DEBUG_VALUE: lv_btnmatrix_event:obj <- $r4
	@DEBUG_VALUE: lv_btnmatrix_event:btnm <- $r4
	@DEBUG_VALUE: lv_btnmatrix_event:class_p <- [DW_OP_LLVM_entry_value 1] $r0
	cmp	r7, #42
	bne.w	.LBB2_132
.Ltmp29:
.LBB2_9:
	@DEBUG_VALUE: lv_btnmatrix_event:e <- $r5
	@DEBUG_VALUE: lv_btnmatrix_event:obj <- $r4
	@DEBUG_VALUE: lv_btnmatrix_event:btnm <- $r4
	@DEBUG_VALUE: lv_btnmatrix_event:class_p <- [DW_OP_LLVM_entry_value 1] $r0
	.loc	12 0 0 is_stmt 0                @ ../GUILib/src/widgets/lv_btnmatrix.c:0:0
	ldr	r1, [r4, #36]
	mov	r0, r4
	bl	lv_btnmatrix_set_map
.Ltmp30:
	b.w	.LBB2_132
.Ltmp31:
.LBB2_10:
	@DEBUG_VALUE: lv_btnmatrix_event:e <- $r5
	@DEBUG_VALUE: lv_btnmatrix_event:obj <- $r4
	@DEBUG_VALUE: lv_btnmatrix_event:btnm <- $r4
	@DEBUG_VALUE: lv_btnmatrix_event:class_p <- [DW_OP_LLVM_entry_value 1] $r0
	.loc	12 417 24 is_stmt 1             @ ../GUILib/src/widgets/lv_btnmatrix.c:417:24
	mov	r0, r5
	movw	r7, #65535
	bl	lv_event_get_param
.Ltmp32:
	.loc	12 418 43                       @ ../GUILib/src/widgets/lv_btnmatrix.c:418:43
	ldrh	r1, [r4, #52]
	.loc	12 417 24                       @ ../GUILib/src/widgets/lv_btnmatrix.c:417:24
	mov	r5, r0
.Ltmp33:
	@DEBUG_VALUE: lv_btnmatrix_event:e <- [DW_OP_LLVM_entry_value 1] $r1
	@DEBUG_VALUE: param <- $r5
	.loc	12 418 9                        @ ../GUILib/src/widgets/lv_btnmatrix.c:418:9
	mov	r0, r4
	bl	invalidate_button_area
.Ltmp34:
	.loc	12 420 56                       @ ../GUILib/src/widgets/lv_btnmatrix.c:420:56
	bl	lv_indev_get_act
.Ltmp35:
	.loc	12 420 38 is_stmt 0             @ ../GUILib/src/widgets/lv_btnmatrix.c:420:38
	bl	lv_indev_get_type
.Ltmp36:
	@DEBUG_VALUE: indev_type <- undef
	.loc	12 421 48 is_stmt 1             @ ../GUILib/src/widgets/lv_btnmatrix.c:421:48
	orr	r0, r0, #2
	cmp	r0, #3
	bne	.LBB2_14
.Ltmp37:
@ %bb.11:
	@DEBUG_VALUE: param <- $r5
	@DEBUG_VALUE: lv_btnmatrix_event:obj <- $r4
	@DEBUG_VALUE: lv_btnmatrix_event:btnm <- $r4
	@DEBUG_VALUE: lv_btnmatrix_event:e <- [DW_OP_LLVM_entry_value 1] $r1
	@DEBUG_VALUE: lv_btnmatrix_event:class_p <- [DW_OP_LLVM_entry_value 1] $r0
	.loc	12 0 48 is_stmt 0               @ ../GUILib/src/widgets/lv_btnmatrix.c:0:48
	add	r6, sp, #52
.Ltmp38:
	.loc	12 424 13 is_stmt 1             @ ../GUILib/src/widgets/lv_btnmatrix.c:424:13
	mov	r0, r5
	mov	r1, r6
	bl	lv_indev_get_point
.Ltmp39:
	.loc	12 425 22                       @ ../GUILib/src/widgets/lv_btnmatrix.c:425:22
	mov	r0, r4
	mov	r1, r6
	bl	get_button_from_point
.Ltmp40:
	@DEBUG_VALUE: btn_pr <- $r0
	.loc	12 427 16                       @ ../GUILib/src/widgets/lv_btnmatrix.c:427:16
	cmp	r0, r7
	beq	.LBB2_14
.Ltmp41:
@ %bb.12:
	@DEBUG_VALUE: param <- $r5
	@DEBUG_VALUE: lv_btnmatrix_event:obj <- $r4
	@DEBUG_VALUE: lv_btnmatrix_event:btnm <- $r4
	@DEBUG_VALUE: btn_pr <- $r0
	@DEBUG_VALUE: lv_btnmatrix_event:e <- [DW_OP_LLVM_entry_value 1] $r1
	@DEBUG_VALUE: lv_btnmatrix_event:class_p <- [DW_OP_LLVM_entry_value 1] $r0
	.loc	12 0 0 is_stmt 0                @ ../GUILib/src/widgets/lv_btnmatrix.c:0:0
	mov	r1, r0
.Ltmp42:
	@DEBUG_VALUE: btn_pr <- $r1
	.loc	12 428 45 is_stmt 1             @ ../GUILib/src/widgets/lv_btnmatrix.c:428:45
	ldr	r0, [r4, #44]
	.loc	12 428 39 is_stmt 0             @ ../GUILib/src/widgets/lv_btnmatrix.c:428:39
	ldrh.w	r0, [r0, r1, lsl #1]
.Ltmp43:
	@DEBUG_VALUE: button_is_hidden:ctrl_bits <- undef
	@DEBUG_VALUE: button_is_inactive:ctrl_bits <- undef
	.loc	12 428 73                       @ ../GUILib/src/widgets/lv_btnmatrix.c:428:73
	tst.w	r0, #40
	bne	.LBB2_14
.Ltmp44:
@ %bb.13:
	@DEBUG_VALUE: param <- $r5
	@DEBUG_VALUE: lv_btnmatrix_event:obj <- $r4
	@DEBUG_VALUE: lv_btnmatrix_event:btnm <- $r4
	@DEBUG_VALUE: btn_pr <- $r1
	@DEBUG_VALUE: lv_btnmatrix_event:e <- [DW_OP_LLVM_entry_value 1] $r1
	@DEBUG_VALUE: lv_btnmatrix_event:class_p <- [DW_OP_LLVM_entry_value 1] $r0
	.loc	12 431 21 is_stmt 1             @ ../GUILib/src/widgets/lv_btnmatrix.c:431:21
	mov	r0, r4
	.loc	12 430 38                       @ ../GUILib/src/widgets/lv_btnmatrix.c:430:38
	strh	r1, [r4, #52]
	.loc	12 431 21                       @ ../GUILib/src/widgets/lv_btnmatrix.c:431:21
	bl	invalidate_button_area
.Ltmp45:
.LBB2_14:
	@DEBUG_VALUE: param <- $r5
	@DEBUG_VALUE: lv_btnmatrix_event:obj <- $r4
	@DEBUG_VALUE: lv_btnmatrix_event:btnm <- $r4
	@DEBUG_VALUE: lv_btnmatrix_event:e <- [DW_OP_LLVM_entry_value 1] $r1
	@DEBUG_VALUE: lv_btnmatrix_event:class_p <- [DW_OP_LLVM_entry_value 1] $r0
	.loc	12 436 18                       @ ../GUILib/src/widgets/lv_btnmatrix.c:436:18
	ldrh	r0, [r4, #52]
.Ltmp46:
	.loc	12 436 12 is_stmt 0             @ ../GUILib/src/widgets/lv_btnmatrix.c:436:12
	cmp	r0, r7
	beq.w	.LBB2_132
.Ltmp47:
@ %bb.15:
	@DEBUG_VALUE: param <- $r5
	@DEBUG_VALUE: lv_btnmatrix_event:obj <- $r4
	@DEBUG_VALUE: lv_btnmatrix_event:btnm <- $r4
	@DEBUG_VALUE: lv_btnmatrix_event:e <- [DW_OP_LLVM_entry_value 1] $r1
	@DEBUG_VALUE: lv_btnmatrix_event:class_p <- [DW_OP_LLVM_entry_value 1] $r0
	.loc	12 437 43 is_stmt 1             @ ../GUILib/src/widgets/lv_btnmatrix.c:437:43
	ldr	r1, [r4, #44]
	.loc	12 437 37 is_stmt 0             @ ../GUILib/src/widgets/lv_btnmatrix.c:437:37
	ldrh.w	r1, [r1, r0, lsl #1]
.Ltmp48:
	@DEBUG_VALUE: button_is_hidden:ctrl_bits <- undef
	@DEBUG_VALUE: button_is_inactive:ctrl_bits <- undef
	@DEBUG_VALUE: button_is_popover:ctrl_bits <- undef
	@DEBUG_VALUE: button_is_click_trig:ctrl_bits <- undef
	.loc	12 437 81                       @ ../GUILib/src/widgets/lv_btnmatrix.c:437:81
	tst.w	r1, #808
	bne.w	.LBB2_132
.Ltmp49:
@ %bb.16:
	@DEBUG_VALUE: param <- $r5
	@DEBUG_VALUE: lv_btnmatrix_event:obj <- $r4
	@DEBUG_VALUE: lv_btnmatrix_event:btnm <- $r4
	@DEBUG_VALUE: lv_btnmatrix_event:e <- [DW_OP_LLVM_entry_value 1] $r1
	@DEBUG_VALUE: lv_btnmatrix_event:class_p <- [DW_OP_LLVM_entry_value 1] $r0
	@DEBUG_VALUE: b <- $r0
	.loc	12 441 26 is_stmt 1             @ ../GUILib/src/widgets/lv_btnmatrix.c:441:26
	str	r0, [sp, #240]
.Ltmp50:
	@DEBUG_VALUE: b <- [DW_OP_plus_uconst 240, DW_OP_deref] $sp
.LBB2_17:
	@DEBUG_VALUE: lv_btnmatrix_event:obj <- $r4
	@DEBUG_VALUE: lv_btnmatrix_event:btnm <- $r4
	@DEBUG_VALUE: lv_btnmatrix_event:e <- [DW_OP_LLVM_entry_value 1] $r1
	@DEBUG_VALUE: lv_btnmatrix_event:class_p <- [DW_OP_LLVM_entry_value 1] $r0
	.loc	12 0 26 is_stmt 0               @ ../GUILib/src/widgets/lv_btnmatrix.c:0:26
	add	r2, sp, #240
	b	.LBB2_33
.Ltmp51:
.LBB2_18:
	@DEBUG_VALUE: lv_btnmatrix_event:e <- $r5
	@DEBUG_VALUE: lv_btnmatrix_event:obj <- $r4
	@DEBUG_VALUE: lv_btnmatrix_event:btnm <- $r4
	@DEBUG_VALUE: lv_btnmatrix_event:class_p <- [DW_OP_LLVM_entry_value 1] $r0
	.loc	12 448 24 is_stmt 1             @ ../GUILib/src/widgets/lv_btnmatrix.c:448:24
	mov	r0, r5
	bl	lv_event_get_param
.Ltmp52:
	mov	r5, r0
.Ltmp53:
	@DEBUG_VALUE: lv_btnmatrix_event:e <- [DW_OP_LLVM_entry_value 1] $r1
	@DEBUG_VALUE: btn_pr <- -1
	@DEBUG_VALUE: param <- $r5
	.loc	12 451 30                       @ ../GUILib/src/widgets/lv_btnmatrix.c:451:30
	bl	lv_indev_get_act
.Ltmp54:
	mov	r6, r0
.Ltmp55:
	@DEBUG_VALUE: indev <- $r6
	.loc	12 452 38                       @ ../GUILib/src/widgets/lv_btnmatrix.c:452:38
	bl	lv_indev_get_type
.Ltmp56:
	@DEBUG_VALUE: indev_type <- $r0
	.loc	12 453 48                       @ ../GUILib/src/widgets/lv_btnmatrix.c:453:48
	cmp	r0, #2
	beq.w	.LBB2_132
.Ltmp57:
@ %bb.19:
	@DEBUG_VALUE: indev <- $r6
	@DEBUG_VALUE: param <- $r5
	@DEBUG_VALUE: lv_btnmatrix_event:obj <- $r4
	@DEBUG_VALUE: lv_btnmatrix_event:btnm <- $r4
	@DEBUG_VALUE: indev_type <- $r0
	@DEBUG_VALUE: btn_pr <- -1
	@DEBUG_VALUE: lv_btnmatrix_event:e <- [DW_OP_LLVM_entry_value 1] $r1
	@DEBUG_VALUE: lv_btnmatrix_event:class_p <- [DW_OP_LLVM_entry_value 1] $r0
	cmp	r0, #4
	beq.w	.LBB2_132
.Ltmp58:
@ %bb.20:
	@DEBUG_VALUE: indev <- $r6
	@DEBUG_VALUE: param <- $r5
	@DEBUG_VALUE: lv_btnmatrix_event:obj <- $r4
	@DEBUG_VALUE: lv_btnmatrix_event:btnm <- $r4
	@DEBUG_VALUE: indev_type <- $r0
	@DEBUG_VALUE: btn_pr <- -1
	@DEBUG_VALUE: lv_btnmatrix_event:e <- [DW_OP_LLVM_entry_value 1] $r1
	@DEBUG_VALUE: lv_btnmatrix_event:class_p <- [DW_OP_LLVM_entry_value 1] $r0
	.loc	12 0 48 is_stmt 0               @ ../GUILib/src/widgets/lv_btnmatrix.c:0:48
	add	r7, sp, #52
	.loc	12 455 9 is_stmt 1              @ ../GUILib/src/widgets/lv_btnmatrix.c:455:9
	mov	r0, r6
.Ltmp59:
	mov	r1, r7
	bl	lv_indev_get_point
.Ltmp60:
	.loc	12 456 18                       @ ../GUILib/src/widgets/lv_btnmatrix.c:456:18
	mov	r0, r4
	mov	r1, r7
	bl	get_button_from_point
.Ltmp61:
	.loc	12 458 28                       @ ../GUILib/src/widgets/lv_btnmatrix.c:458:28
	ldrh	r1, [r4, #52]
.Ltmp62:
	@DEBUG_VALUE: btn_pr <- $r0
	.loc	12 458 12 is_stmt 0             @ ../GUILib/src/widgets/lv_btnmatrix.c:458:12
	cmp	r0, r1
	beq.w	.LBB2_132
.Ltmp63:
@ %bb.21:
	@DEBUG_VALUE: indev <- $r6
	@DEBUG_VALUE: param <- $r5
	@DEBUG_VALUE: lv_btnmatrix_event:obj <- $r4
	@DEBUG_VALUE: lv_btnmatrix_event:btnm <- $r4
	@DEBUG_VALUE: btn_pr <- $r0
	@DEBUG_VALUE: lv_btnmatrix_event:e <- [DW_OP_LLVM_entry_value 1] $r1
	@DEBUG_VALUE: lv_btnmatrix_event:class_p <- [DW_OP_LLVM_entry_value 1] $r0
	.loc	12 0 12                         @ ../GUILib/src/widgets/lv_btnmatrix.c:0:12
	movw	r7, #65535
	mov	r6, r0
.Ltmp64:
	@DEBUG_VALUE: btn_pr <- $r6
	@DEBUG_VALUE: btn_pr <- $r6
	.loc	12 459 16 is_stmt 1             @ ../GUILib/src/widgets/lv_btnmatrix.c:459:16
	cmp	r1, r7
	beq	.LBB2_23
.Ltmp65:
@ %bb.22:
	@DEBUG_VALUE: btn_pr <- $r6
	@DEBUG_VALUE: param <- $r5
	@DEBUG_VALUE: lv_btnmatrix_event:obj <- $r4
	@DEBUG_VALUE: lv_btnmatrix_event:btnm <- $r4
	@DEBUG_VALUE: lv_btnmatrix_event:e <- [DW_OP_LLVM_entry_value 1] $r1
	@DEBUG_VALUE: lv_btnmatrix_event:class_p <- [DW_OP_LLVM_entry_value 1] $r0
	.loc	12 460 17                       @ ../GUILib/src/widgets/lv_btnmatrix.c:460:17
	mov	r0, r4
	bl	invalidate_button_area
.Ltmp66:
.LBB2_23:
	@DEBUG_VALUE: btn_pr <- $r6
	@DEBUG_VALUE: param <- $r5
	@DEBUG_VALUE: lv_btnmatrix_event:obj <- $r4
	@DEBUG_VALUE: lv_btnmatrix_event:btnm <- $r4
	@DEBUG_VALUE: lv_btnmatrix_event:e <- [DW_OP_LLVM_entry_value 1] $r1
	@DEBUG_VALUE: lv_btnmatrix_event:class_p <- [DW_OP_LLVM_entry_value 1] $r0
	.loc	12 465 13                       @ ../GUILib/src/widgets/lv_btnmatrix.c:465:13
	mov	r0, r5
	.loc	12 463 30                       @ ../GUILib/src/widgets/lv_btnmatrix.c:463:30
	strh	r6, [r4, #52]
	.loc	12 465 13                       @ ../GUILib/src/widgets/lv_btnmatrix.c:465:13
	bl	lv_indev_reset_long_press
.Ltmp67:
	.loc	12 466 48                       @ ../GUILib/src/widgets/lv_btnmatrix.c:466:48
	cmp	r6, r7
	beq.w	.LBB2_132
.Ltmp68:
@ %bb.24:
	@DEBUG_VALUE: btn_pr <- $r6
	@DEBUG_VALUE: param <- $r5
	@DEBUG_VALUE: lv_btnmatrix_event:obj <- $r4
	@DEBUG_VALUE: lv_btnmatrix_event:btnm <- $r4
	@DEBUG_VALUE: lv_btnmatrix_event:e <- [DW_OP_LLVM_entry_value 1] $r1
	@DEBUG_VALUE: lv_btnmatrix_event:class_p <- [DW_OP_LLVM_entry_value 1] $r0
	.loc	12 467 41                       @ ../GUILib/src/widgets/lv_btnmatrix.c:467:41
	ldr	r0, [r4, #44]
	.loc	12 467 35 is_stmt 0             @ ../GUILib/src/widgets/lv_btnmatrix.c:467:35
	ldrh.w	r0, [r0, r6, lsl #1]
.Ltmp69:
	@DEBUG_VALUE: button_is_hidden:ctrl_bits <- undef
	@DEBUG_VALUE: button_is_inactive:ctrl_bits <- undef
	.loc	12 467 69                       @ ../GUILib/src/widgets/lv_btnmatrix.c:467:69
	tst.w	r0, #40
	bne.w	.LBB2_132
.Ltmp70:
@ %bb.25:
	@DEBUG_VALUE: btn_pr <- $r6
	@DEBUG_VALUE: param <- $r5
	@DEBUG_VALUE: lv_btnmatrix_event:obj <- $r4
	@DEBUG_VALUE: lv_btnmatrix_event:btnm <- $r4
	@DEBUG_VALUE: lv_btnmatrix_event:e <- [DW_OP_LLVM_entry_value 1] $r1
	@DEBUG_VALUE: lv_btnmatrix_event:class_p <- [DW_OP_LLVM_entry_value 1] $r0
	.loc	12 469 17 is_stmt 1             @ ../GUILib/src/widgets/lv_btnmatrix.c:469:17
	mov	r0, r4
	mov	r1, r6
	bl	invalidate_button_area
.Ltmp71:
	.loc	12 471 47                       @ ../GUILib/src/widgets/lv_btnmatrix.c:471:47
	ldr	r0, [r4, #44]
	.loc	12 471 41 is_stmt 0             @ ../GUILib/src/widgets/lv_btnmatrix.c:471:41
	ldrh.w	r1, [r0, r6, lsl #1]
.Ltmp72:
	@DEBUG_VALUE: button_is_click_trig:ctrl_bits <- undef
	.loc	12 471 75                       @ ../GUILib/src/widgets/lv_btnmatrix.c:471:75
	lsls	r1, r1, #23
	bmi.w	.LBB2_132
.Ltmp73:
@ %bb.26:
	@DEBUG_VALUE: btn_pr <- $r6
	@DEBUG_VALUE: param <- $r5
	@DEBUG_VALUE: lv_btnmatrix_event:obj <- $r4
	@DEBUG_VALUE: lv_btnmatrix_event:btnm <- $r4
	@DEBUG_VALUE: lv_btnmatrix_event:e <- [DW_OP_LLVM_entry_value 1] $r1
	@DEBUG_VALUE: lv_btnmatrix_event:class_p <- [DW_OP_LLVM_entry_value 1] $r0
	.loc	12 472 60 is_stmt 1             @ ../GUILib/src/widgets/lv_btnmatrix.c:472:60
	ldrh	r1, [r4, #52]
	.loc	12 472 38 is_stmt 0             @ ../GUILib/src/widgets/lv_btnmatrix.c:472:38
	ldrh.w	r0, [r0, r1, lsl #1]
.Ltmp74:
	@DEBUG_VALUE: button_is_popover:ctrl_bits <- undef
	.loc	12 471 20 is_stmt 1             @ ../GUILib/src/widgets/lv_btnmatrix.c:471:20
	lsls	r0, r0, #22
	bmi.w	.LBB2_132
.Ltmp75:
@ %bb.27:
	@DEBUG_VALUE: btn_pr <- $r6
	@DEBUG_VALUE: param <- $r5
	@DEBUG_VALUE: lv_btnmatrix_event:obj <- $r4
	@DEBUG_VALUE: lv_btnmatrix_event:btnm <- $r4
	@DEBUG_VALUE: lv_btnmatrix_event:e <- [DW_OP_LLVM_entry_value 1] $r1
	@DEBUG_VALUE: lv_btnmatrix_event:class_p <- [DW_OP_LLVM_entry_value 1] $r0
	@DEBUG_VALUE: b <- $r6
	.loc	12 473 30                       @ ../GUILib/src/widgets/lv_btnmatrix.c:473:30
	str	r6, [sp, #240]
.Ltmp76:
	@DEBUG_VALUE: b <- [DW_OP_plus_uconst 240, DW_OP_deref] $sp
	.loc	12 0 30 is_stmt 0               @ ../GUILib/src/widgets/lv_btnmatrix.c:0:30
	b	.LBB2_17
.Ltmp77:
.LBB2_28:
	@DEBUG_VALUE: lv_btnmatrix_event:e <- $r5
	@DEBUG_VALUE: lv_btnmatrix_event:obj <- $r4
	@DEBUG_VALUE: lv_btnmatrix_event:btnm <- $r4
	@DEBUG_VALUE: lv_btnmatrix_event:class_p <- [DW_OP_LLVM_entry_value 1] $r0
	.loc	12 525 43 is_stmt 1             @ ../GUILib/src/widgets/lv_btnmatrix.c:525:43
	ldrh	r1, [r4, #52]
	.loc	12 525 9 is_stmt 0              @ ../GUILib/src/widgets/lv_btnmatrix.c:525:9
	mov	r0, r4
	bl	invalidate_button_area
.Ltmp78:
	.loc	12 0 9                          @ ../GUILib/src/widgets/lv_btnmatrix.c:0:9
	mov.w	r0, #-1
.Ltmp79:
.LBB2_29:
	@DEBUG_VALUE: lv_btnmatrix_event:obj <- $r4
	@DEBUG_VALUE: lv_btnmatrix_event:btnm <- $r4
	@DEBUG_VALUE: lv_btnmatrix_event:class_p <- [DW_OP_LLVM_entry_value 1] $r0
	@DEBUG_VALUE: b <- $r0
	strh	r0, [r4, #52]
	b	.LBB2_132
.Ltmp80:
.LBB2_30:
	@DEBUG_VALUE: lv_btnmatrix_event:e <- $r5
	@DEBUG_VALUE: lv_btnmatrix_event:obj <- $r4
	@DEBUG_VALUE: lv_btnmatrix_event:btnm <- $r4
	@DEBUG_VALUE: lv_btnmatrix_event:class_p <- [DW_OP_LLVM_entry_value 1] $r0
	.loc	12 514 18 is_stmt 1             @ ../GUILib/src/widgets/lv_btnmatrix.c:514:18
	ldrh	r0, [r4, #52]
	movw	r1, #65535
.Ltmp81:
	.loc	12 514 12 is_stmt 0             @ ../GUILib/src/widgets/lv_btnmatrix.c:514:12
	cmp	r0, r1
	beq.w	.LBB2_132
.Ltmp82:
@ %bb.31:
	@DEBUG_VALUE: lv_btnmatrix_event:e <- $r5
	@DEBUG_VALUE: lv_btnmatrix_event:obj <- $r4
	@DEBUG_VALUE: lv_btnmatrix_event:btnm <- $r4
	@DEBUG_VALUE: lv_btnmatrix_event:class_p <- [DW_OP_LLVM_entry_value 1] $r0
	.loc	12 515 48 is_stmt 1             @ ../GUILib/src/widgets/lv_btnmatrix.c:515:48
	ldr	r1, [r4, #44]
	.loc	12 515 42 is_stmt 0             @ ../GUILib/src/widgets/lv_btnmatrix.c:515:42
	ldrh.w	r1, [r1, r0, lsl #1]
.Ltmp83:
	@DEBUG_VALUE: button_is_hidden:ctrl_bits <- undef
	@DEBUG_VALUE: button_is_inactive:ctrl_bits <- undef
	.loc	12 515 86                       @ ../GUILib/src/widgets/lv_btnmatrix.c:515:86
	tst.w	r1, #56
	bne.w	.LBB2_132
.Ltmp84:
@ %bb.32:
	@DEBUG_VALUE: lv_btnmatrix_event:e <- $r5
	@DEBUG_VALUE: lv_btnmatrix_event:obj <- $r4
	@DEBUG_VALUE: lv_btnmatrix_event:btnm <- $r4
	@DEBUG_VALUE: lv_btnmatrix_event:class_p <- [DW_OP_LLVM_entry_value 1] $r0
	@DEBUG_VALUE: b <- $r0
	.loc	12 518 26 is_stmt 1             @ ../GUILib/src/widgets/lv_btnmatrix.c:518:26
	str	r0, [sp, #52]
.Ltmp85:
	@DEBUG_VALUE: b <- [DW_OP_plus_uconst 52, DW_OP_deref] $sp
	.loc	12 0 26 is_stmt 0               @ ../GUILib/src/widgets/lv_btnmatrix.c:0:26
	add	r2, sp, #52
.Ltmp86:
.LBB2_33:
	@DEBUG_VALUE: lv_btnmatrix_event:obj <- $r4
	@DEBUG_VALUE: lv_btnmatrix_event:btnm <- $r4
	@DEBUG_VALUE: lv_btnmatrix_event:class_p <- [DW_OP_LLVM_entry_value 1] $r0
	mov	r0, r4
	movs	r1, #28
	bl	lv_event_send
.Ltmp87:
	@DEBUG_VALUE: lv_btnmatrix_event:res <- undef
	b	.LBB2_132
.Ltmp88:
.LBB2_34:
	@DEBUG_VALUE: lv_btnmatrix_event:e <- $r5
	@DEBUG_VALUE: lv_btnmatrix_event:obj <- $r4
	@DEBUG_VALUE: lv_btnmatrix_event:btnm <- $r4
	@DEBUG_VALUE: lv_btnmatrix_event:class_p <- [DW_OP_LLVM_entry_value 1] $r0
	.loc	12 481 18 is_stmt 1             @ ../GUILib/src/widgets/lv_btnmatrix.c:481:18
	ldrh	r2, [r4, #52]
	movw	r5, #65535
.Ltmp89:
	@DEBUG_VALUE: lv_btnmatrix_event:e <- [DW_OP_LLVM_entry_value 1] $r1
	.loc	12 481 12 is_stmt 0             @ ../GUILib/src/widgets/lv_btnmatrix.c:481:12
	cmp	r2, r5
	.loc	12 506 43 is_stmt 1             @ ../GUILib/src/widgets/lv_btnmatrix.c:506:43
	movw	r1, #65535
	.loc	12 481 12                       @ ../GUILib/src/widgets/lv_btnmatrix.c:481:12
	beq.w	.LBB2_98
.Ltmp90:
@ %bb.35:
	@DEBUG_VALUE: lv_btnmatrix_event:obj <- $r4
	@DEBUG_VALUE: lv_btnmatrix_event:btnm <- $r4
	@DEBUG_VALUE: lv_btnmatrix_event:e <- [DW_OP_LLVM_entry_value 1] $r1
	@DEBUG_VALUE: lv_btnmatrix_event:class_p <- [DW_OP_LLVM_entry_value 1] $r0
	.loc	12 483 42                       @ ../GUILib/src/widgets/lv_btnmatrix.c:483:42
	ldr	r0, [r4, #44]
	.loc	12 483 36 is_stmt 0             @ ../GUILib/src/widgets/lv_btnmatrix.c:483:36
	ldrh.w	r1, [r0, r2, lsl #1]
	.loc	12 483 71                       @ ../GUILib/src/widgets/lv_btnmatrix.c:483:71
	and	r3, r1, #96
.Ltmp91:
	@DEBUG_VALUE: button_is_inactive:ctrl_bits <- undef
	cmp	r3, #64
	bne.w	.LBB2_94
.Ltmp92:
@ %bb.36:
	@DEBUG_VALUE: lv_btnmatrix_event:obj <- $r4
	@DEBUG_VALUE: lv_btnmatrix_event:btnm <- $r4
	@DEBUG_VALUE: lv_btnmatrix_event:e <- [DW_OP_LLVM_entry_value 1] $r1
	@DEBUG_VALUE: lv_btnmatrix_event:class_p <- [DW_OP_LLVM_entry_value 1] $r0
	.loc	12 485 74 is_stmt 1             @ ../GUILib/src/widgets/lv_btnmatrix.c:485:74
	lsls	r3, r1, #24
.Ltmp93:
	@DEBUG_VALUE: button_get_checked:ctrl_bits <- undef
	bpl.w	.LBB2_91
.Ltmp94:
@ %bb.37:
	@DEBUG_VALUE: lv_btnmatrix_event:obj <- $r4
	@DEBUG_VALUE: lv_btnmatrix_event:btnm <- $r4
	@DEBUG_VALUE: lv_btnmatrix_event:e <- [DW_OP_LLVM_entry_value 1] $r1
	@DEBUG_VALUE: lv_btnmatrix_event:class_p <- [DW_OP_LLVM_entry_value 1] $r0
	.loc	12 485 84 is_stmt 0             @ ../GUILib/src/widgets/lv_btnmatrix.c:485:84
	ldrb.w	r3, [r4, #54]
.Ltmp95:
	.loc	12 485 20                       @ ../GUILib/src/widgets/lv_btnmatrix.c:485:20
	lsls	r3, r3, #31
	bne.w	.LBB2_91
.Ltmp96:
@ %bb.38:
	@DEBUG_VALUE: lv_btnmatrix_event:obj <- $r4
	@DEBUG_VALUE: lv_btnmatrix_event:btnm <- $r4
	@DEBUG_VALUE: lv_btnmatrix_event:e <- [DW_OP_LLVM_entry_value 1] $r1
	@DEBUG_VALUE: lv_btnmatrix_event:class_p <- [DW_OP_LLVM_entry_value 1] $r0
	.loc	12 486 55 is_stmt 1             @ ../GUILib/src/widgets/lv_btnmatrix.c:486:55
	bic	r1, r1, #128
	b	.LBB2_92
.Ltmp97:
.LBB2_39:
	@DEBUG_VALUE: lv_btnmatrix_event:e <- $r5
	@DEBUG_VALUE: lv_btnmatrix_event:obj <- $r4
	@DEBUG_VALUE: lv_btnmatrix_event:btnm <- $r4
	@DEBUG_VALUE: lv_btnmatrix_event:class_p <- [DW_OP_LLVM_entry_value 1] $r0
	.loc	12 564 43                       @ ../GUILib/src/widgets/lv_btnmatrix.c:564:43
	ldrh	r1, [r4, #52]
	.loc	12 564 9 is_stmt 0              @ ../GUILib/src/widgets/lv_btnmatrix.c:564:9
	mov	r0, r4
	bl	invalidate_button_area
.Ltmp98:
	.loc	12 566 28 is_stmt 1             @ ../GUILib/src/widgets/lv_btnmatrix.c:566:28
	mov	r0, r5
	bl	lv_event_get_param
.Ltmp99:
	.loc	12 566 18 is_stmt 0             @ ../GUILib/src/widgets/lv_btnmatrix.c:566:18
	ldrb	r0, [r0]
.Ltmp100:
	@DEBUG_VALUE: c <- undef
	.loc	12 567 12 is_stmt 1             @ ../GUILib/src/widgets/lv_btnmatrix.c:567:12
	subs	r0, #17
	cmp	r0, #3
	bhi.w	.LBB2_99
.Ltmp101:
@ %bb.40:
	@DEBUG_VALUE: lv_btnmatrix_event:e <- $r5
	@DEBUG_VALUE: lv_btnmatrix_event:obj <- $r4
	@DEBUG_VALUE: lv_btnmatrix_event:btnm <- $r4
	@DEBUG_VALUE: lv_btnmatrix_event:class_p <- [DW_OP_LLVM_entry_value 1] $r0
	.loc	12 0 12 is_stmt 0               @ ../GUILib/src/widgets/lv_btnmatrix.c:0:12
.LCPI2_1:
	tbh	[pc, r0, lsl #1]
.Ltmp102:
@ %bb.41:
.LJTI2_1:
	.short	(.LBB2_42-(.LCPI2_1+4))/2
	.short	(.LBB2_100-(.LCPI2_1+4))/2
	.short	(.LBB2_109-(.LCPI2_1+4))/2
	.short	(.LBB2_112-(.LCPI2_1+4))/2
	.p2align	1
.LBB2_42:
.Ltmp103:
	@DEBUG_VALUE: lv_btnmatrix_event:e <- $r5
	@DEBUG_VALUE: lv_btnmatrix_event:obj <- $r4
	@DEBUG_VALUE: lv_btnmatrix_event:btnm <- $r4
	@DEBUG_VALUE: lv_btnmatrix_event:class_p <- [DW_OP_LLVM_entry_value 1] $r0
	@DEBUG_VALUE: lv_obj_get_style_pad_column:obj <- $r4
	@DEBUG_VALUE: lv_obj_get_style_pad_column:part <- 0
	.file	18 "C:\\Users\\Hyacincher\\Desktop\\HyTelectrl\\Code\\Project" "../GUILib/src/widgets/../core/lv_obj_style_gen.h"
	.loc	18 123 26 is_stmt 1             @ ../GUILib/src/widgets/../core/lv_obj_style_gen.h:123:26
	mov	r0, r4
	movs	r1, #0
	movw	r2, #6165
	movs	r5, #0
.Ltmp104:
	@DEBUG_VALUE: lv_btnmatrix_event:e <- [DW_OP_LLVM_entry_value 1] $r1
	bl	lv_obj_get_style_prop
.Ltmp105:
	.loc	12 619 22                       @ ../GUILib/src/widgets/lv_btnmatrix.c:619:22
	ldrsh.w	r1, [r4, #52]
	movw	r3, #65535
	uxth	r2, r1
.Ltmp106:
	.loc	12 619 16 is_stmt 0             @ ../GUILib/src/widgets/lv_btnmatrix.c:619:16
	cmp	r2, r3
.Ltmp107:
	@DEBUG_VALUE: col_gap <- [DW_OP_LLVM_convert 32 7, DW_OP_LLVM_convert 16 7, DW_OP_stack_value] $r0
	@DEBUG_VALUE: lv_obj_get_style_pad_column:v <- $r0
	@DEBUG_VALUE: lv_obj_get_style_pad_column:part <- 0
	@DEBUG_VALUE: lv_obj_get_style_pad_column:obj <- $r4
	beq.w	.LBB2_124
.Ltmp108:
@ %bb.43:
	@DEBUG_VALUE: lv_btnmatrix_event:obj <- $r4
	@DEBUG_VALUE: lv_btnmatrix_event:btnm <- $r4
	@DEBUG_VALUE: col_gap <- [DW_OP_LLVM_convert 32 7, DW_OP_LLVM_convert 16 7, DW_OP_stack_value] $r0
	@DEBUG_VALUE: lv_btnmatrix_event:e <- [DW_OP_LLVM_entry_value 1] $r1
	@DEBUG_VALUE: lv_btnmatrix_event:class_p <- [DW_OP_LLVM_entry_value 1] $r0
	.loc	12 0 16                         @ ../GUILib/src/widgets/lv_btnmatrix.c:0:16
	mov.w	r3, #-1
.Ltmp109:
	@DEBUG_VALUE: area_above <- $r1
	@DEBUG_VALUE: pr_center <- undef
	@DEBUG_VALUE: lv_area_get_width:area_p <- undef
	.loc	12 631 17 is_stmt 1             @ ../GUILib/src/widgets/lv_btnmatrix.c:631:17
	cmp	r1, r3
	ble.w	.LBB2_131
.Ltmp110:
@ %bb.44:
	@DEBUG_VALUE: lv_btnmatrix_event:obj <- $r4
	@DEBUG_VALUE: lv_btnmatrix_event:btnm <- $r4
	@DEBUG_VALUE: area_above <- $r1
	@DEBUG_VALUE: col_gap <- [DW_OP_LLVM_convert 32 7, DW_OP_LLVM_convert 16 7, DW_OP_stack_value] $r0
	@DEBUG_VALUE: lv_btnmatrix_event:e <- [DW_OP_LLVM_entry_value 1] $r1
	@DEBUG_VALUE: lv_btnmatrix_event:class_p <- [DW_OP_LLVM_entry_value 1] $r0
	.loc	12 0 17 is_stmt 0               @ ../GUILib/src/widgets/lv_btnmatrix.c:0:17
	ldr	r6, [r4, #40]
	sxth.w	r12, r0
	add.w	r5, r6, r2, lsl #3
	ldrh.w	r3, [r6, r2, lsl #3]
	ldrh	r7, [r5, #4]
	.loc	12 631 17                       @ ../GUILib/src/widgets/lv_btnmatrix.c:631:17
	adds	r6, #2
	subs	r7, r7, r3
	adds	r7, #1
	sxth	r7, r7
	add.w	r3, r3, r7, lsr #1
.Ltmp111:
	@DEBUG_VALUE: pr_center <- $r3
	.loc	12 0 17                         @ ../GUILib/src/widgets/lv_btnmatrix.c:0:17
	ldrsh.w	r7, [r5, #2]
	sxth	r3, r3
.Ltmp112:
	.loc	12 631 17                       @ ../GUILib/src/widgets/lv_btnmatrix.c:631:17
	adds	r5, #4
.Ltmp113:
.LBB2_45:                               @ =>This Inner Loop Header: Depth=1
	@DEBUG_VALUE: lv_btnmatrix_event:obj <- $r4
	@DEBUG_VALUE: lv_btnmatrix_event:btnm <- $r4
	@DEBUG_VALUE: lv_btnmatrix_event:e <- [DW_OP_LLVM_entry_value 1] $r1
	@DEBUG_VALUE: lv_btnmatrix_event:class_p <- [DW_OP_LLVM_entry_value 1] $r0
	@DEBUG_VALUE: area_above <- $r2
	.loc	12 632 55 is_stmt 1             @ ../GUILib/src/widgets/lv_btnmatrix.c:632:55
	ldrsh.w	r0, [r6, r2, lsl #3]
	.loc	12 632 100 is_stmt 0            @ ../GUILib/src/widgets/lv_btnmatrix.c:632:100
	cmp	r0, r7
	bge	.LBB2_49
.Ltmp114:
@ %bb.46:                               @   in Loop: Header=BB2_45 Depth=1
	@DEBUG_VALUE: lv_btnmatrix_event:obj <- $r4
	@DEBUG_VALUE: lv_btnmatrix_event:btnm <- $r4
	@DEBUG_VALUE: area_above <- $r2
	@DEBUG_VALUE: lv_btnmatrix_event:e <- [DW_OP_LLVM_entry_value 1] $r1
	@DEBUG_VALUE: lv_btnmatrix_event:class_p <- [DW_OP_LLVM_entry_value 1] $r0
	.loc	12 633 68 is_stmt 1             @ ../GUILib/src/widgets/lv_btnmatrix.c:633:68
	ldrsh	r0, [r5, #-4]
	.loc	12 633 71 is_stmt 0             @ ../GUILib/src/widgets/lv_btnmatrix.c:633:71
	sub.w	r0, r0, r12
	.loc	12 633 81                       @ ../GUILib/src/widgets/lv_btnmatrix.c:633:81
	cmp	r0, r3
	bgt	.LBB2_49
.Ltmp115:
@ %bb.47:                               @   in Loop: Header=BB2_45 Depth=1
	@DEBUG_VALUE: lv_btnmatrix_event:obj <- $r4
	@DEBUG_VALUE: lv_btnmatrix_event:btnm <- $r4
	@DEBUG_VALUE: area_above <- $r2
	@DEBUG_VALUE: lv_btnmatrix_event:e <- [DW_OP_LLVM_entry_value 1] $r1
	@DEBUG_VALUE: lv_btnmatrix_event:class_p <- [DW_OP_LLVM_entry_value 1] $r0
	.loc	12 634 68 is_stmt 1             @ ../GUILib/src/widgets/lv_btnmatrix.c:634:68
	ldrsh.w	r0, [r5]
	.loc	12 634 71 is_stmt 0             @ ../GUILib/src/widgets/lv_btnmatrix.c:634:71
	cmp	r3, r0
	bgt	.LBB2_49
.Ltmp116:
@ %bb.48:                               @   in Loop: Header=BB2_45 Depth=1
	@DEBUG_VALUE: lv_btnmatrix_event:obj <- $r4
	@DEBUG_VALUE: lv_btnmatrix_event:btnm <- $r4
	@DEBUG_VALUE: area_above <- $r2
	@DEBUG_VALUE: lv_btnmatrix_event:e <- [DW_OP_LLVM_entry_value 1] $r1
	@DEBUG_VALUE: lv_btnmatrix_event:class_p <- [DW_OP_LLVM_entry_value 1] $r0
	.loc	12 635 49 is_stmt 1             @ ../GUILib/src/widgets/lv_btnmatrix.c:635:49
	ldr	r0, [r4, #44]
	.loc	12 635 43 is_stmt 0             @ ../GUILib/src/widgets/lv_btnmatrix.c:635:43
	ldrh.w	r0, [r0, r2, lsl #1]
.Ltmp117:
	@DEBUG_VALUE: button_is_hidden:ctrl_bits <- undef
	@DEBUG_VALUE: button_is_inactive:ctrl_bits <- undef
	.loc	12 635 81                       @ ../GUILib/src/widgets/lv_btnmatrix.c:635:81
	tst.w	r0, #40
	beq.w	.LBB2_133
.Ltmp118:
.LBB2_49:                               @   in Loop: Header=BB2_45 Depth=1
	@DEBUG_VALUE: lv_btnmatrix_event:obj <- $r4
	@DEBUG_VALUE: lv_btnmatrix_event:btnm <- $r4
	@DEBUG_VALUE: area_above <- $r2
	@DEBUG_VALUE: lv_btnmatrix_event:e <- [DW_OP_LLVM_entry_value 1] $r1
	@DEBUG_VALUE: lv_btnmatrix_event:class_p <- [DW_OP_LLVM_entry_value 1] $r0
	.loc	12 631 17 is_stmt 1             @ ../GUILib/src/widgets/lv_btnmatrix.c:631:17
	cmp	r2, #0
.Ltmp119:
	.loc	12 631 79 is_stmt 0             @ ../GUILib/src/widgets/lv_btnmatrix.c:631:79
	sub.w	r2, r2, #1
.Ltmp120:
	@DEBUG_VALUE: area_above <- $r2
	.loc	12 631 63                       @ ../GUILib/src/widgets/lv_btnmatrix.c:631:63
	sub.w	r5, r5, #8
.Ltmp121:
	@DEBUG_VALUE: area_above <- $r2
	.loc	12 631 17                       @ ../GUILib/src/widgets/lv_btnmatrix.c:631:17
	bgt	.LBB2_45
	b	.LBB2_131
.Ltmp122:
.LBB2_50:
	@DEBUG_VALUE: lv_btnmatrix_event:e <- $r5
	@DEBUG_VALUE: lv_btnmatrix_event:obj <- $r4
	@DEBUG_VALUE: lv_btnmatrix_event:btnm <- $r4
	@DEBUG_VALUE: lv_btnmatrix_event:class_p <- [DW_OP_LLVM_entry_value 1] $r0
	.loc	12 529 30 is_stmt 1             @ ../GUILib/src/widgets/lv_btnmatrix.c:529:30
	mov	r0, r5
	bl	lv_event_get_param
.Ltmp123:
	mov	r5, r0
.Ltmp124:
	@DEBUG_VALUE: lv_btnmatrix_event:e <- [DW_OP_LLVM_entry_value 1] $r1
	@DEBUG_VALUE: indev <- $r5
	.loc	12 530 38                       @ ../GUILib/src/widgets/lv_btnmatrix.c:530:38
	bl	lv_indev_get_type
.Ltmp125:
	@DEBUG_VALUE: indev_type <- undef
	.loc	12 533 12                       @ ../GUILib/src/widgets/lv_btnmatrix.c:533:12
	cbnz	r5, .LBB2_52
.Ltmp126:
@ %bb.51:
	@DEBUG_VALUE: indev <- $r5
	@DEBUG_VALUE: lv_btnmatrix_event:obj <- $r4
	@DEBUG_VALUE: lv_btnmatrix_event:btnm <- $r4
	@DEBUG_VALUE: lv_btnmatrix_event:e <- [DW_OP_LLVM_entry_value 1] $r1
	@DEBUG_VALUE: lv_btnmatrix_event:class_p <- [DW_OP_LLVM_entry_value 1] $r0
	.loc	12 534 21                       @ ../GUILib/src/widgets/lv_btnmatrix.c:534:21
	movs	r0, #0
	bl	lv_indev_get_next
.Ltmp127:
	@DEBUG_VALUE: indev <- $r0
	.loc	12 535 26                       @ ../GUILib/src/widgets/lv_btnmatrix.c:535:26
	bl	lv_indev_get_type
.Ltmp128:
.LBB2_52:
	@DEBUG_VALUE: lv_btnmatrix_event:obj <- $r4
	@DEBUG_VALUE: lv_btnmatrix_event:btnm <- $r4
	@DEBUG_VALUE: lv_btnmatrix_event:e <- [DW_OP_LLVM_entry_value 1] $r1
	@DEBUG_VALUE: lv_btnmatrix_event:class_p <- [DW_OP_LLVM_entry_value 1] $r0
	.loc	12 0 26 is_stmt 0               @ ../GUILib/src/widgets/lv_btnmatrix.c:0:26
	mov	r5, r0
.Ltmp129:
	@DEBUG_VALUE: indev_type <- undef
	.loc	12 538 45 is_stmt 1             @ ../GUILib/src/widgets/lv_btnmatrix.c:538:45
	mov	r0, r4
	movw	r6, #65535
.Ltmp130:
	@DEBUG_VALUE: indev_type <- $r5
	bl	lv_obj_get_group
.Ltmp131:
	.loc	12 538 24 is_stmt 0             @ ../GUILib/src/widgets/lv_btnmatrix.c:538:24
	bl	lv_group_get_editing
.Ltmp132:
	.loc	12 540 18 is_stmt 1             @ ../GUILib/src/widgets/lv_btnmatrix.c:540:18
	ldrh	r1, [r4, #52]
.Ltmp133:
	.loc	12 540 12 is_stmt 0             @ ../GUILib/src/widgets/lv_btnmatrix.c:540:12
	cmp	r1, r6
.Ltmp134:
	@DEBUG_VALUE: editing <- [DW_OP_LLVM_convert 1 7, DW_OP_LLVM_convert 8 7, DW_OP_stack_value] undef
	bne.w	.LBB2_132
.Ltmp135:
@ %bb.53:
	@DEBUG_VALUE: indev_type <- $r5
	@DEBUG_VALUE: lv_btnmatrix_event:obj <- $r4
	@DEBUG_VALUE: lv_btnmatrix_event:btnm <- $r4
	@DEBUG_VALUE: lv_btnmatrix_event:e <- [DW_OP_LLVM_entry_value 1] $r1
	@DEBUG_VALUE: lv_btnmatrix_event:class_p <- [DW_OP_LLVM_entry_value 1] $r0
	.loc	12 541 51 is_stmt 1             @ ../GUILib/src/widgets/lv_btnmatrix.c:541:51
	cmp	r5, #2
	beq	.LBB2_56
.Ltmp136:
@ %bb.54:
	@DEBUG_VALUE: indev_type <- $r5
	@DEBUG_VALUE: lv_btnmatrix_event:obj <- $r4
	@DEBUG_VALUE: lv_btnmatrix_event:btnm <- $r4
	@DEBUG_VALUE: lv_btnmatrix_event:e <- [DW_OP_LLVM_entry_value 1] $r1
	@DEBUG_VALUE: lv_btnmatrix_event:class_p <- [DW_OP_LLVM_entry_value 1] $r0
	cmp	r5, #4
	bne.w	.LBB2_119
.Ltmp137:
@ %bb.55:
	@DEBUG_VALUE: indev_type <- $r5
	@DEBUG_VALUE: lv_btnmatrix_event:obj <- $r4
	@DEBUG_VALUE: lv_btnmatrix_event:btnm <- $r4
	@DEBUG_VALUE: lv_btnmatrix_event:e <- [DW_OP_LLVM_entry_value 1] $r1
	@DEBUG_VALUE: lv_btnmatrix_event:class_p <- [DW_OP_LLVM_entry_value 1] $r0
	.loc	12 541 16 is_stmt 0             @ ../GUILib/src/widgets/lv_btnmatrix.c:541:16
	cmp	r0, #0
	beq.w	.LBB2_119
.Ltmp138:
.LBB2_56:
	@DEBUG_VALUE: indev_type <- $r5
	@DEBUG_VALUE: lv_btnmatrix_event:obj <- $r4
	@DEBUG_VALUE: lv_btnmatrix_event:btnm <- $r4
	@DEBUG_VALUE: lv_btnmatrix_event:e <- [DW_OP_LLVM_entry_value 1] $r1
	@DEBUG_VALUE: lv_btnmatrix_event:class_p <- [DW_OP_LLVM_entry_value 1] $r0
	@DEBUG_VALUE: b <- 0
	.loc	12 543 26 is_stmt 1             @ ../GUILib/src/widgets/lv_btnmatrix.c:543:26
	ldrb.w	r1, [r4, #54]
	ldr	r0, [r4, #44]
.Ltmp139:
	.loc	12 543 20 is_stmt 0             @ ../GUILib/src/widgets/lv_btnmatrix.c:543:20
	lsls	r1, r1, #31
	bne.w	.LBB2_121
.Ltmp140:
@ %bb.57:
	@DEBUG_VALUE: indev_type <- $r5
	@DEBUG_VALUE: lv_btnmatrix_event:obj <- $r4
	@DEBUG_VALUE: lv_btnmatrix_event:btnm <- $r4
	@DEBUG_VALUE: b <- 0
	@DEBUG_VALUE: lv_btnmatrix_event:e <- [DW_OP_LLVM_entry_value 1] $r1
	@DEBUG_VALUE: lv_btnmatrix_event:class_p <- [DW_OP_LLVM_entry_value 1] $r0
	.loc	12 0 20                         @ ../GUILib/src/widgets/lv_btnmatrix.c:0:20
	movs	r1, #0
.Ltmp141:
.LBB2_58:                               @ =>This Inner Loop Header: Depth=1
	@DEBUG_VALUE: indev_type <- $r5
	@DEBUG_VALUE: lv_btnmatrix_event:obj <- $r4
	@DEBUG_VALUE: lv_btnmatrix_event:btnm <- $r4
	@DEBUG_VALUE: lv_btnmatrix_event:e <- [DW_OP_LLVM_entry_value 1] $r1
	@DEBUG_VALUE: lv_btnmatrix_event:class_p <- [DW_OP_LLVM_entry_value 1] $r0
	@DEBUG_VALUE: b <- $r1
	.loc	12 548 44 is_stmt 1             @ ../GUILib/src/widgets/lv_btnmatrix.c:548:44
	ldrh.w	r2, [r0, r1, lsl #1]
.Ltmp142:
	@DEBUG_VALUE: button_is_inactive:ctrl_bits <- undef
	@DEBUG_VALUE: button_is_hidden:ctrl_bits <- undef
	.loc	12 548 108 is_stmt 0            @ ../GUILib/src/widgets/lv_btnmatrix.c:548:108
	adds	r1, #1
.Ltmp143:
	@DEBUG_VALUE: b <- $r1
	.loc	12 548 64                       @ ../GUILib/src/widgets/lv_btnmatrix.c:548:64
	tst.w	r2, #40
	bne	.LBB2_58
	b	.LBB2_123
.Ltmp144:
.LBB2_59:
	@DEBUG_VALUE: lv_btnmatrix_event:e <- $r5
	@DEBUG_VALUE: lv_btnmatrix_event:obj <- $r4
	@DEBUG_VALUE: lv_btnmatrix_event:btnm <- $r4
	@DEBUG_VALUE: lv_btnmatrix_event:class_p <- [DW_OP_LLVM_entry_value 1] $r0
	.loc	12 402 26 is_stmt 1             @ ../GUILib/src/widgets/lv_btnmatrix.c:402:26
	mov	r0, r5
	bl	lv_event_get_param
.Ltmp145:
	.loc	12 1034 15                      @ ../GUILib/src/widgets/lv_btnmatrix.c:1034:15
	ldrh	r1, [r4, #50]
.Ltmp146:
	.loc	12 402 26                       @ ../GUILib/src/widgets/lv_btnmatrix.c:402:26
	mov	r8, r0
.Ltmp147:
	@DEBUG_VALUE: has_popovers_in_top_row:btnm <- $r4
	@DEBUG_VALUE: has_popovers_in_top_row:obj <- $r4
	@DEBUG_VALUE: s <- $r8
	.loc	12 1034 9                       @ ../GUILib/src/widgets/lv_btnmatrix.c:1034:9
	cbz	r1, .LBB2_66
.Ltmp148:
@ %bb.60:
	@DEBUG_VALUE: s <- $r8
	@DEBUG_VALUE: lv_btnmatrix_event:e <- $r5
	@DEBUG_VALUE: has_popovers_in_top_row:obj <- $r4
	@DEBUG_VALUE: has_popovers_in_top_row:btnm <- $r4
	@DEBUG_VALUE: lv_btnmatrix_event:obj <- $r4
	@DEBUG_VALUE: lv_btnmatrix_event:btnm <- $r4
	@DEBUG_VALUE: lv_btnmatrix_event:class_p <- [DW_OP_LLVM_entry_value 1] $r0
	.loc	12 1038 35                      @ ../GUILib/src/widgets/lv_btnmatrix.c:1038:35
	ldr.w	r10, [r4, #36]
.Ltmp149:
	@DEBUG_VALUE: has_popovers_in_top_row:btn_cnt <- 0
	@DEBUG_VALUE: has_popovers_in_top_row:map_row <- $r10
	.loc	12 1041 12                      @ ../GUILib/src/widgets/lv_btnmatrix.c:1041:12
	ldr.w	r7, [r10]
	.loc	12 1041 29 is_stmt 0            @ ../GUILib/src/widgets/lv_btnmatrix.c:1041:29
	cbz	r7, .LBB2_66
.Ltmp150:
@ %bb.61:
	@DEBUG_VALUE: has_popovers_in_top_row:map_row <- $r10
	@DEBUG_VALUE: s <- $r8
	@DEBUG_VALUE: lv_btnmatrix_event:e <- $r5
	@DEBUG_VALUE: has_popovers_in_top_row:obj <- $r4
	@DEBUG_VALUE: has_popovers_in_top_row:btnm <- $r4
	@DEBUG_VALUE: lv_btnmatrix_event:obj <- $r4
	@DEBUG_VALUE: lv_btnmatrix_event:btnm <- $r4
	@DEBUG_VALUE: has_popovers_in_top_row:btn_cnt <- 0
	@DEBUG_VALUE: lv_btnmatrix_event:class_p <- [DW_OP_LLVM_entry_value 1] $r0
	.loc	12 0 29                         @ ../GUILib/src/widgets/lv_btnmatrix.c:0:29
	movw	r9, :lower16:.L.str
	movs	r5, #0
.Ltmp151:
	@DEBUG_VALUE: lv_btnmatrix_event:e <- [DW_OP_LLVM_entry_value 1] $r1
	movt	r9, :upper16:.L.str
	movs	r6, #0
.Ltmp152:
.LBB2_62:                               @ =>This Inner Loop Header: Depth=1
	@DEBUG_VALUE: has_popovers_in_top_row:map_row <- $r10
	@DEBUG_VALUE: s <- $r8
	@DEBUG_VALUE: has_popovers_in_top_row:obj <- $r4
	@DEBUG_VALUE: has_popovers_in_top_row:btnm <- $r4
	@DEBUG_VALUE: lv_btnmatrix_event:obj <- $r4
	@DEBUG_VALUE: lv_btnmatrix_event:btnm <- $r4
	@DEBUG_VALUE: lv_btnmatrix_event:e <- [DW_OP_LLVM_entry_value 1] $r1
	@DEBUG_VALUE: lv_btnmatrix_event:class_p <- [DW_OP_LLVM_entry_value 1] $r0
	@DEBUG_VALUE: has_popovers_in_top_row:btn_cnt <- $r6
	.loc	12 1041 32                      @ ../GUILib/src/widgets/lv_btnmatrix.c:1041:32
	mov	r0, r7
	mov	r1, r9
	bl	strcmp
.Ltmp153:
	.loc	12 0 32                         @ ../GUILib/src/widgets/lv_btnmatrix.c:0:32
	cbz	r0, .LBB2_66
.Ltmp154:
@ %bb.63:                               @   in Loop: Header=BB2_62 Depth=1
	@DEBUG_VALUE: has_popovers_in_top_row:map_row <- $r10
	@DEBUG_VALUE: s <- $r8
	@DEBUG_VALUE: has_popovers_in_top_row:btn_cnt <- $r6
	@DEBUG_VALUE: has_popovers_in_top_row:obj <- $r4
	@DEBUG_VALUE: has_popovers_in_top_row:btnm <- $r4
	@DEBUG_VALUE: lv_btnmatrix_event:obj <- $r4
	@DEBUG_VALUE: lv_btnmatrix_event:btnm <- $r4
	@DEBUG_VALUE: lv_btnmatrix_event:e <- [DW_OP_LLVM_entry_value 1] $r1
	@DEBUG_VALUE: lv_btnmatrix_event:class_p <- [DW_OP_LLVM_entry_value 1] $r0
	.loc	12 1041 71                      @ ../GUILib/src/widgets/lv_btnmatrix.c:1041:71
	ldrb	r0, [r7]
	cbz	r0, .LBB2_66
.Ltmp155:
@ %bb.64:                               @   in Loop: Header=BB2_62 Depth=1
	@DEBUG_VALUE: has_popovers_in_top_row:map_row <- $r10
	@DEBUG_VALUE: s <- $r8
	@DEBUG_VALUE: has_popovers_in_top_row:btn_cnt <- $r6
	@DEBUG_VALUE: has_popovers_in_top_row:obj <- $r4
	@DEBUG_VALUE: has_popovers_in_top_row:btnm <- $r4
	@DEBUG_VALUE: lv_btnmatrix_event:obj <- $r4
	@DEBUG_VALUE: lv_btnmatrix_event:btnm <- $r4
	@DEBUG_VALUE: lv_btnmatrix_event:e <- [DW_OP_LLVM_entry_value 1] $r1
	@DEBUG_VALUE: lv_btnmatrix_event:class_p <- [DW_OP_LLVM_entry_value 1] $r0
	.loc	12 1042 37 is_stmt 1            @ ../GUILib/src/widgets/lv_btnmatrix.c:1042:37
	ldr	r0, [r4, #44]
	.loc	12 1042 31 is_stmt 0            @ ../GUILib/src/widgets/lv_btnmatrix.c:1042:31
	ldrh.w	r0, [r0, r5, lsl #1]
.Ltmp156:
	@DEBUG_VALUE: button_is_popover:ctrl_bits <- undef
	@DEBUG_VALUE: has_popovers_in_top_row:btn_cnt <- undef
	.loc	12 1042 13                      @ ../GUILib/src/widgets/lv_btnmatrix.c:1042:13
	lsls	r0, r0, #22
	bmi.w	.LBB2_120
.Ltmp157:
@ %bb.65:                               @   in Loop: Header=BB2_62 Depth=1
	@DEBUG_VALUE: has_popovers_in_top_row:map_row <- $r10
	@DEBUG_VALUE: s <- $r8
	@DEBUG_VALUE: has_popovers_in_top_row:obj <- $r4
	@DEBUG_VALUE: has_popovers_in_top_row:btnm <- $r4
	@DEBUG_VALUE: lv_btnmatrix_event:obj <- $r4
	@DEBUG_VALUE: lv_btnmatrix_event:btnm <- $r4
	@DEBUG_VALUE: lv_btnmatrix_event:e <- [DW_OP_LLVM_entry_value 1] $r1
	@DEBUG_VALUE: lv_btnmatrix_event:class_p <- [DW_OP_LLVM_entry_value 1] $r0
	.loc	12 0 0                          @ ../GUILib/src/widgets/lv_btnmatrix.c:0:0
	adds	r6, #1
.Ltmp158:
	@DEBUG_VALUE: has_popovers_in_top_row:btn_cnt <- $r6
	.loc	12 1041 12 is_stmt 1            @ ../GUILib/src/widgets/lv_btnmatrix.c:1041:12
	uxth	r5, r6
	ldr.w	r7, [r10, r5, lsl #2]
	.loc	12 1041 29 is_stmt 0            @ ../GUILib/src/widgets/lv_btnmatrix.c:1041:29
	cmp	r7, #0
	bne	.LBB2_62
.Ltmp159:
.LBB2_66:
	@DEBUG_VALUE: s <- $r8
	@DEBUG_VALUE: has_popovers_in_top_row:obj <- $r4
	@DEBUG_VALUE: has_popovers_in_top_row:btnm <- $r4
	@DEBUG_VALUE: lv_btnmatrix_event:obj <- $r4
	@DEBUG_VALUE: lv_btnmatrix_event:btnm <- $r4
	@DEBUG_VALUE: lv_btnmatrix_event:class_p <- [DW_OP_LLVM_entry_value 1] $r0
	.loc	12 0 29                         @ ../GUILib/src/widgets/lv_btnmatrix.c:0:29
	movs	r0, #0
.Ltmp160:
.LBB2_67:
	@DEBUG_VALUE: s <- $r8
	@DEBUG_VALUE: lv_btnmatrix_event:obj <- $r4
	@DEBUG_VALUE: lv_btnmatrix_event:btnm <- $r4
	@DEBUG_VALUE: lv_btnmatrix_event:class_p <- [DW_OP_LLVM_entry_value 1] $r0
	strh.w	r0, [r8]
	b	.LBB2_132
.Ltmp161:
.LBB2_68:
	@DEBUG_VALUE: lv_btnmatrix_event:e <- $r5
	@DEBUG_VALUE: lv_btnmatrix_event:obj <- $r4
	@DEBUG_VALUE: lv_btnmatrix_event:btnm <- $r4
	@DEBUG_VALUE: lv_btnmatrix_event:class_p <- [DW_OP_LLVM_entry_value 1] $r0
	@DEBUG_VALUE: draw_main:e <- $r5
	.loc	12 654 22 is_stmt 1             @ ../GUILib/src/widgets/lv_btnmatrix.c:654:22
	mov	r0, r5
	bl	lv_event_get_target
.Ltmp162:
	mov	r11, r0
.Ltmp163:
	@DEBUG_VALUE: draw_main:btnm <- $r11
	@DEBUG_VALUE: draw_main:obj <- $r11
	.loc	12 656 14                       @ ../GUILib/src/widgets/lv_btnmatrix.c:656:14
	ldrh	r0, [r0, #48]
.Ltmp164:
	.loc	12 656 8 is_stmt 0              @ ../GUILib/src/widgets/lv_btnmatrix.c:656:8
	cmp	r0, #0
	beq.w	.LBB2_132
.Ltmp165:
@ %bb.69:
	@DEBUG_VALUE: draw_main:obj <- $r11
	@DEBUG_VALUE: draw_main:btnm <- $r11
	@DEBUG_VALUE: draw_main:e <- $r5
	@DEBUG_VALUE: lv_btnmatrix_event:e <- $r5
	@DEBUG_VALUE: lv_btnmatrix_event:obj <- $r4
	@DEBUG_VALUE: lv_btnmatrix_event:btnm <- $r4
	@DEBUG_VALUE: lv_btnmatrix_event:class_p <- [DW_OP_LLVM_entry_value 1] $r0
	.loc	12 658 35 is_stmt 1             @ ../GUILib/src/widgets/lv_btnmatrix.c:658:35
	mov	r0, r5
	bl	lv_event_get_param
.Ltmp166:
	.loc	12 659 21                       @ ../GUILib/src/widgets/lv_btnmatrix.c:659:21
	ldrh.w	r1, [r11, #34]
	.loc	12 658 35                       @ ../GUILib/src/widgets/lv_btnmatrix.c:658:35
	mov	r4, r0
.Ltmp167:
	@DEBUG_VALUE: draw_main:clip_area <- $r4
	.loc	12 659 21                       @ ../GUILib/src/widgets/lv_btnmatrix.c:659:21
	orr	r0, r1, #4
	strh.w	r0, [r11, #34]
	add	r1, sp, #300
	.loc	12 662 5                        @ ../GUILib/src/widgets/lv_btnmatrix.c:662:5
	mov	r0, r11
	bl	lv_obj_get_coords
.Ltmp168:
	@DEBUG_VALUE: draw_main:txt_i <- 0
	@DEBUG_VALUE: draw_main:btn_i <- 0
	.loc	12 677 21                       @ ../GUILib/src/widgets/lv_btnmatrix.c:677:21
	ldrh.w	r0, [r11, #34]
	add	r7, sp, #156
	orr	r0, r0, #4
	.loc	12 675 33                       @ ../GUILib/src/widgets/lv_btnmatrix.c:675:33
	ldrh.w	r5, [r11, #32]
.Ltmp169:
	@DEBUG_VALUE: lv_btnmatrix_event:e <- [DW_OP_LLVM_entry_value 1] $r1
	@DEBUG_VALUE: draw_main:state_ori <- $r5
	.loc	12 0 33 is_stmt 0               @ ../GUILib/src/widgets/lv_btnmatrix.c:0:33
	movs	r1, #0
	.loc	12 677 21 is_stmt 1             @ ../GUILib/src/widgets/lv_btnmatrix.c:677:21
	strh.w	r0, [r11, #34]
	.loc	12 678 5                        @ ../GUILib/src/widgets/lv_btnmatrix.c:678:5
	mov	r0, r7
	.loc	12 676 16                       @ ../GUILib/src/widgets/lv_btnmatrix.c:676:16
	strh.w	r1, [r11, #32]
	.loc	12 678 5                        @ ../GUILib/src/widgets/lv_btnmatrix.c:678:5
	bl	lv_draw_rect_dsc_init
.Ltmp170:
	.loc	12 0 5 is_stmt 0                @ ../GUILib/src/widgets/lv_btnmatrix.c:0:5
	add.w	r8, sp, #124
	.loc	12 679 5 is_stmt 1              @ ../GUILib/src/widgets/lv_btnmatrix.c:679:5
	mov	r0, r8
	bl	lv_draw_label_dsc_init
.Ltmp171:
	.loc	12 680 5                        @ ../GUILib/src/widgets/lv_btnmatrix.c:680:5
	mov	r0, r11
	mov.w	r1, #327680
	mov	r2, r7
	bl	lv_obj_init_draw_rect_dsc
.Ltmp172:
	.loc	12 681 5                        @ ../GUILib/src/widgets/lv_btnmatrix.c:681:5
	mov	r0, r11
	mov.w	r1, #327680
	mov	r2, r8
	bl	lv_obj_init_draw_label_dsc
.Ltmp173:
	.loc	12 682 21                       @ ../GUILib/src/widgets/lv_btnmatrix.c:682:21
	ldrh.w	r0, [r11, #34]
.Ltmp174:
	.loc	18 93 26                        @ ../GUILib/src/widgets/../core/lv_obj_style_gen.h:93:26
	movs	r1, #0
.Ltmp175:
	.loc	12 682 21                       @ ../GUILib/src/widgets/lv_btnmatrix.c:682:21
	bic	r0, r0, #4
	strh.w	r0, [r11, #34]
.Ltmp176:
	.loc	18 93 26                        @ ../GUILib/src/widgets/../core/lv_obj_style_gen.h:93:26
	mov	r0, r11
	movw	r2, #6160
	str	r5, [sp, #36]                   @ 4-byte Spill
.Ltmp177:
	@DEBUG_VALUE: draw_main:state_ori <- [DW_OP_plus_uconst 36] [$sp+0]
	.loc	12 683 16                       @ ../GUILib/src/widgets/lv_btnmatrix.c:683:16
	strh.w	r5, [r11, #32]
.Ltmp178:
	@DEBUG_VALUE: lv_obj_get_style_pad_top:part <- 0
	@DEBUG_VALUE: lv_obj_get_style_pad_top:obj <- $r11
	.loc	18 93 26                        @ ../GUILib/src/widgets/../core/lv_obj_style_gen.h:93:26
	bl	lv_obj_get_style_prop
.Ltmp179:
	mov	r8, r0
.Ltmp180:
	@DEBUG_VALUE: lv_obj_get_style_pad_bottom:part <- 0
	@DEBUG_VALUE: lv_obj_get_style_pad_bottom:obj <- $r11
	@DEBUG_VALUE: draw_main:ptop <- [DW_OP_LLVM_convert 32 7, DW_OP_LLVM_convert 16 7, DW_OP_stack_value] $r8
	@DEBUG_VALUE: lv_obj_get_style_pad_top:v <- $r8
	.loc	18 99 26                        @ ../GUILib/src/widgets/../core/lv_obj_style_gen.h:99:26
	mov	r0, r11
	movs	r1, #0
	movw	r2, #6161
	bl	lv_obj_get_style_prop
.Ltmp181:
	mov	r9, r0
.Ltmp182:
	@DEBUG_VALUE: lv_obj_get_style_pad_left:part <- 0
	@DEBUG_VALUE: lv_obj_get_style_pad_left:obj <- $r11
	@DEBUG_VALUE: draw_main:pbottom <- [DW_OP_LLVM_convert 32 7, DW_OP_LLVM_convert 16 7, DW_OP_stack_value] $r9
	@DEBUG_VALUE: lv_obj_get_style_pad_bottom:v <- $r9
	.loc	18 105 26                       @ ../GUILib/src/widgets/../core/lv_obj_style_gen.h:105:26
	mov	r0, r11
	movs	r1, #0
	movw	r2, #6162
	bl	lv_obj_get_style_prop
.Ltmp183:
	mov	r10, r0
.Ltmp184:
	@DEBUG_VALUE: lv_obj_get_style_pad_right:part <- 0
	@DEBUG_VALUE: lv_obj_get_style_pad_right:obj <- $r11
	@DEBUG_VALUE: draw_main:pleft <- [DW_OP_LLVM_convert 32 7, DW_OP_LLVM_convert 16 7, DW_OP_stack_value] $r10
	@DEBUG_VALUE: lv_obj_get_style_pad_left:v <- $r10
	.loc	18 111 26                       @ ../GUILib/src/widgets/../core/lv_obj_style_gen.h:111:26
	mov	r0, r11
	movs	r1, #0
	movw	r2, #6163
	bl	lv_obj_get_style_prop
.Ltmp185:
	mov	r7, r0
.Ltmp186:
	@DEBUG_VALUE: draw_main:pright <- [DW_OP_LLVM_convert 32 7, DW_OP_LLVM_convert 16 7, DW_OP_stack_value] $r7
	@DEBUG_VALUE: lv_obj_get_style_pad_right:v <- $r7
	.loc	18 0 26 is_stmt 0               @ ../GUILib/src/widgets/../core/lv_obj_style_gen.h:0:26
	add	r0, sp, #52
.Ltmp187:
	.loc	12 696 5 is_stmt 1              @ ../GUILib/src/widgets/lv_btnmatrix.c:696:5
	mov	r1, r4
	str	r4, [sp, #44]                   @ 4-byte Spill
.Ltmp188:
	@DEBUG_VALUE: draw_main:clip_area <- [DW_OP_plus_uconst 44] [$sp+0]
	@DEBUG_VALUE: draw_main:clip_area <- [DW_OP_plus_uconst 44] [$sp+0]
	bl	lv_obj_draw_dsc_init
.Ltmp189:
	.loc	12 697 24                       @ ../GUILib/src/widgets/lv_btnmatrix.c:697:24
	mov.w	r0, #327680
	str	r0, [sp, #104]
	.loc	12 699 24                       @ ../GUILib/src/widgets/lv_btnmatrix.c:699:24
	movs	r0, #0
.Ltmp190:
	.loc	12 703 34                       @ ../GUILib/src/widgets/lv_btnmatrix.c:703:34
	ldrh.w	r4, [r11, #48]
.Ltmp191:
	.loc	12 699 24                       @ ../GUILib/src/widgets/lv_btnmatrix.c:699:24
	str	r0, [sp, #60]
	add	r0, sp, #240
	.loc	12 700 28                       @ ../GUILib/src/widgets/lv_btnmatrix.c:700:28
	str	r0, [sp, #68]
	add	r0, sp, #208
.Ltmp192:
	.loc	12 703 5                        @ ../GUILib/src/widgets/lv_btnmatrix.c:703:5
	cmp	r4, #0
.Ltmp193:
	.loc	12 698 27                       @ ../GUILib/src/widgets/lv_btnmatrix.c:698:27
	str	r6, [sp, #56]
	.loc	12 701 29                       @ ../GUILib/src/widgets/lv_btnmatrix.c:701:29
	str	r0, [sp, #72]
.Ltmp194:
	.loc	12 703 5                        @ ../GUILib/src/widgets/lv_btnmatrix.c:703:5
	beq.w	.LBB2_90
.Ltmp195:
@ %bb.70:
	@DEBUG_VALUE: lv_obj_get_style_pad_right:obj <- $r11
	@DEBUG_VALUE: lv_obj_get_style_pad_left:obj <- $r11
	@DEBUG_VALUE: lv_obj_get_style_pad_bottom:obj <- $r11
	@DEBUG_VALUE: lv_obj_get_style_pad_top:obj <- $r11
	@DEBUG_VALUE: draw_main:obj <- $r11
	@DEBUG_VALUE: draw_main:btnm <- $r11
	@DEBUG_VALUE: lv_obj_get_style_pad_left:v <- $r10
	@DEBUG_VALUE: draw_main:pleft <- [DW_OP_LLVM_convert 32 7, DW_OP_LLVM_convert 16 7, DW_OP_stack_value] $r10
	@DEBUG_VALUE: lv_obj_get_style_pad_bottom:v <- $r9
	@DEBUG_VALUE: draw_main:pbottom <- [DW_OP_LLVM_convert 32 7, DW_OP_LLVM_convert 16 7, DW_OP_stack_value] $r9
	@DEBUG_VALUE: lv_obj_get_style_pad_top:v <- $r8
	@DEBUG_VALUE: draw_main:ptop <- [DW_OP_LLVM_convert 32 7, DW_OP_LLVM_convert 16 7, DW_OP_stack_value] $r8
	@DEBUG_VALUE: lv_obj_get_style_pad_right:v <- $r7
	@DEBUG_VALUE: draw_main:pright <- [DW_OP_LLVM_convert 32 7, DW_OP_LLVM_convert 16 7, DW_OP_stack_value] $r7
	@DEBUG_VALUE: draw_main:clip_area <- [DW_OP_plus_uconst 44] [$sp+0]
	@DEBUG_VALUE: draw_main:state_ori <- [DW_OP_plus_uconst 36] [$sp+0]
	@DEBUG_VALUE: lv_obj_get_style_pad_right:part <- 0
	@DEBUG_VALUE: lv_obj_get_style_pad_left:part <- 0
	@DEBUG_VALUE: lv_obj_get_style_pad_bottom:part <- 0
	@DEBUG_VALUE: lv_obj_get_style_pad_top:part <- 0
	@DEBUG_VALUE: lv_btnmatrix_event:e <- [DW_OP_LLVM_entry_value 1] $r1
	@DEBUG_VALUE: draw_main:btn_i <- 0
	@DEBUG_VALUE: draw_main:txt_i <- 0
	@DEBUG_VALUE: lv_btnmatrix_event:class_p <- [DW_OP_LLVM_entry_value 1] $r0
	.loc	12 0 5 is_stmt 0                @ ../GUILib/src/widgets/lv_btnmatrix.c:0:5
	ldr	r0, [sp, #36]                   @ 4-byte Reload
	movw	r6, :lower16:.L.str
	and	r0, r0, #46
	str	r0, [sp, #32]                   @ 4-byte Spill
	sxth.w	r0, r10
	str	r0, [sp, #28]                   @ 4-byte Spill
	sxth	r0, r7
	str	r0, [sp, #24]                   @ 4-byte Spill
	sxth.w	r0, r8
	str	r0, [sp, #20]                   @ 4-byte Spill
	sxth.w	r0, r9
	movt	r6, :upper16:.L.str
	mov.w	r8, #0
.Ltmp196:
	mov.w	r9, #0
.Ltmp197:
	str	r0, [sp, #16]                   @ 4-byte Spill
.Ltmp198:
	.p2align	2
.LBB2_71:                               @ =>This Loop Header: Depth=1
                                        @     Child Loop BB2_72 Depth 2
	@DEBUG_VALUE: draw_main:obj <- $r11
	@DEBUG_VALUE: draw_main:btnm <- $r11
	@DEBUG_VALUE: draw_main:clip_area <- [DW_OP_plus_uconst 44] [$sp+0]
	@DEBUG_VALUE: draw_main:state_ori <- [DW_OP_plus_uconst 36] [$sp+0]
	@DEBUG_VALUE: lv_btnmatrix_event:e <- [DW_OP_LLVM_entry_value 1] $r1
	@DEBUG_VALUE: lv_btnmatrix_event:class_p <- [DW_OP_LLVM_entry_value 1] $r0
	@DEBUG_VALUE: draw_main:btn_i <- $r8
	@DEBUG_VALUE: draw_main:txt_i <- $r9
	ldr.w	r5, [r11, #36]
.Ltmp199:
	.p2align	2
.LBB2_72:                               @   Parent Loop BB2_71 Depth=1
                                        @ =>  This Inner Loop Header: Depth=2
	@DEBUG_VALUE: draw_main:obj <- $r11
	@DEBUG_VALUE: draw_main:btnm <- $r11
	@DEBUG_VALUE: draw_main:txt_i <- $r9
	@DEBUG_VALUE: draw_main:btn_i <- $r8
	@DEBUG_VALUE: draw_main:clip_area <- [DW_OP_plus_uconst 44] [$sp+0]
	@DEBUG_VALUE: draw_main:state_ori <- [DW_OP_plus_uconst 36] [$sp+0]
	@DEBUG_VALUE: lv_btnmatrix_event:e <- [DW_OP_LLVM_entry_value 1] $r1
	@DEBUG_VALUE: lv_btnmatrix_event:class_p <- [DW_OP_LLVM_entry_value 1] $r0
	@DEBUG_VALUE: draw_main:txt_i <- $r9
	.loc	12 705 22 is_stmt 1             @ ../GUILib/src/widgets/lv_btnmatrix.c:705:22
	uxth.w	r7, r9
	ldr.w	r0, [r5, r7, lsl #2]
	.loc	12 705 15 is_stmt 0             @ ../GUILib/src/widgets/lv_btnmatrix.c:705:15
	mov	r1, r6
	bl	strcmp
.Ltmp200:
	.loc	12 705 9                        @ ../GUILib/src/widgets/lv_btnmatrix.c:705:9
	cmp	r0, #0
.Ltmp201:
	.loc	12 706 18 is_stmt 1             @ ../GUILib/src/widgets/lv_btnmatrix.c:706:18
	add.w	r9, r9, #1
.Ltmp202:
	@DEBUG_VALUE: draw_main:txt_i <- $r9
	.loc	12 705 9                        @ ../GUILib/src/widgets/lv_btnmatrix.c:705:9
	beq	.LBB2_72
.Ltmp203:
@ %bb.73:                               @   in Loop: Header=BB2_71 Depth=1
	@DEBUG_VALUE: draw_main:obj <- $r11
	@DEBUG_VALUE: draw_main:btnm <- $r11
	@DEBUG_VALUE: draw_main:txt_i <- $r9
	@DEBUG_VALUE: draw_main:btn_i <- $r8
	@DEBUG_VALUE: draw_main:clip_area <- [DW_OP_plus_uconst 44] [$sp+0]
	@DEBUG_VALUE: draw_main:state_ori <- [DW_OP_plus_uconst 36] [$sp+0]
	@DEBUG_VALUE: lv_btnmatrix_event:e <- [DW_OP_LLVM_entry_value 1] $r1
	@DEBUG_VALUE: lv_btnmatrix_event:class_p <- [DW_OP_LLVM_entry_value 1] $r0
	.loc	12 710 35                       @ ../GUILib/src/widgets/lv_btnmatrix.c:710:35
	ldr.w	r0, [r11, #44]
	.loc	12 710 29 is_stmt 0             @ ../GUILib/src/widgets/lv_btnmatrix.c:710:29
	ldrh.w	r0, [r0, r8, lsl #1]
.Ltmp204:
	@DEBUG_VALUE: button_is_hidden:ctrl_bits <- $r0
	.loc	12 710 12                       @ ../GUILib/src/widgets/lv_btnmatrix.c:710:12
	lsls	r1, r0, #28
	bmi.w	.LBB2_89
.Ltmp205:
@ %bb.74:                               @   in Loop: Header=BB2_71 Depth=1
	@DEBUG_VALUE: draw_main:obj <- $r11
	@DEBUG_VALUE: draw_main:btnm <- $r11
	@DEBUG_VALUE: draw_main:txt_i <- $r9
	@DEBUG_VALUE: draw_main:btn_i <- $r8
	@DEBUG_VALUE: draw_main:clip_area <- [DW_OP_plus_uconst 44] [$sp+0]
	@DEBUG_VALUE: draw_main:state_ori <- [DW_OP_plus_uconst 36] [$sp+0]
	@DEBUG_VALUE: lv_btnmatrix_event:e <- [DW_OP_LLVM_entry_value 1] $r1
	@DEBUG_VALUE: lv_btnmatrix_event:class_p <- [DW_OP_LLVM_entry_value 1] $r0
	@DEBUG_VALUE: btn_state <- 0
	.loc	12 716 12 is_stmt 1             @ ../GUILib/src/widgets/lv_btnmatrix.c:716:12
	lsls	r1, r0, #26
	.loc	12 714 12                       @ ../GUILib/src/widgets/lv_btnmatrix.c:714:12
	ubfx	r10, r0, #7, #1
.Ltmp206:
	@DEBUG_VALUE: button_is_inactive:ctrl_bits <- undef
	@DEBUG_VALUE: btn_state <- $r10
	.loc	12 716 12                       @ ../GUILib/src/widgets/lv_btnmatrix.c:716:12
	bmi	.LBB2_76
.Ltmp207:
@ %bb.75:                               @   in Loop: Header=BB2_71 Depth=1
	@DEBUG_VALUE: draw_main:obj <- $r11
	@DEBUG_VALUE: draw_main:btnm <- $r11
	@DEBUG_VALUE: btn_state <- $r10
	@DEBUG_VALUE: draw_main:txt_i <- $r9
	@DEBUG_VALUE: draw_main:btn_i <- $r8
	@DEBUG_VALUE: draw_main:clip_area <- [DW_OP_plus_uconst 44] [$sp+0]
	@DEBUG_VALUE: draw_main:state_ori <- [DW_OP_plus_uconst 36] [$sp+0]
	@DEBUG_VALUE: lv_btnmatrix_event:e <- [DW_OP_LLVM_entry_value 1] $r1
	@DEBUG_VALUE: lv_btnmatrix_event:class_p <- [DW_OP_LLVM_entry_value 1] $r0
	.loc	12 717 32                       @ ../GUILib/src/widgets/lv_btnmatrix.c:717:32
	ldrh.w	r0, [r11, #52]
.Ltmp208:
	.loc	12 717 17 is_stmt 0             @ ../GUILib/src/widgets/lv_btnmatrix.c:717:17
	cmp	r8, r0
	ldr	r0, [sp, #32]                   @ 4-byte Reload
	it	eq
	orreq.w	r10, r10, r0
.Ltmp209:
	.loc	12 0 17                         @ ../GUILib/src/widgets/lv_btnmatrix.c:0:17
	b	.LBB2_77
.Ltmp210:
.LBB2_76:                               @   in Loop: Header=BB2_71 Depth=1
	@DEBUG_VALUE: draw_main:obj <- $r11
	@DEBUG_VALUE: draw_main:btnm <- $r11
	@DEBUG_VALUE: btn_state <- $r10
	@DEBUG_VALUE: draw_main:txt_i <- $r9
	@DEBUG_VALUE: draw_main:btn_i <- $r8
	@DEBUG_VALUE: draw_main:clip_area <- [DW_OP_plus_uconst 44] [$sp+0]
	@DEBUG_VALUE: draw_main:state_ori <- [DW_OP_plus_uconst 36] [$sp+0]
	@DEBUG_VALUE: lv_btnmatrix_event:e <- [DW_OP_LLVM_entry_value 1] $r1
	@DEBUG_VALUE: lv_btnmatrix_event:class_p <- [DW_OP_LLVM_entry_value 1] $r0
	.loc	12 716 66 is_stmt 1             @ ../GUILib/src/widgets/lv_btnmatrix.c:716:66
	add.w	r10, r10, #128
.Ltmp211:
	@DEBUG_VALUE: btn_state <- $r10
.LBB2_77:                               @   in Loop: Header=BB2_71 Depth=1
	@DEBUG_VALUE: draw_main:obj <- $r11
	@DEBUG_VALUE: draw_main:btnm <- $r11
	@DEBUG_VALUE: draw_main:txt_i <- $r9
	@DEBUG_VALUE: draw_main:btn_i <- $r8
	@DEBUG_VALUE: draw_main:clip_area <- [DW_OP_plus_uconst 44] [$sp+0]
	@DEBUG_VALUE: draw_main:state_ori <- [DW_OP_plus_uconst 36] [$sp+0]
	@DEBUG_VALUE: lv_btnmatrix_event:e <- [DW_OP_LLVM_entry_value 1] $r1
	@DEBUG_VALUE: lv_btnmatrix_event:class_p <- [DW_OP_LLVM_entry_value 1] $r0
	@DEBUG_VALUE: btn_state <- $r10
	.loc	12 725 40                       @ ../GUILib/src/widgets/lv_btnmatrix.c:725:40
	ldr.w	r0, [r11, #40]
.Ltmp212:
	@DEBUG_VALUE: lv_area_copy:src <- undef
	@DEBUG_VALUE: lv_area_copy:dest <- [DW_OP_plus_uconst 292, DW_OP_stack_value] $sp
	.loc	12 726 33                       @ ../GUILib/src/widgets/lv_btnmatrix.c:726:33
	ldrh.w	r5, [sp, #300]
.Ltmp213:
	.loc	6 112 21                        @ ../GUILib/src/hal/../misc/lv_area.h:112:21
	add.w	r1, r0, r8, lsl #3
	ldrh.w	r0, [r0, r8, lsl #3]
	.loc	6 113 21                        @ ../GUILib/src/hal/../misc/lv_area.h:113:21
	ldrh	r2, [r1, #2]
.Ltmp214:
	.loc	12 727 33                       @ ../GUILib/src/widgets/lv_btnmatrix.c:727:33
	ldrh.w	r4, [sp, #302]
.Ltmp215:
	.loc	6 114 21                        @ ../GUILib/src/hal/../misc/lv_area.h:114:21
	ldrh	r3, [r1, #4]
.Ltmp216:
	.loc	12 726 21                       @ ../GUILib/src/widgets/lv_btnmatrix.c:726:21
	add	r0, r5
.Ltmp217:
	.loc	6 115 21                        @ ../GUILib/src/hal/../misc/lv_area.h:115:21
	ldrh	r1, [r1, #6]
.Ltmp218:
	@DEBUG_VALUE: lv_area_copy:dest <- [DW_OP_plus_uconst 292, DW_OP_stack_value] $sp
	.loc	12 726 21                       @ ../GUILib/src/widgets/lv_btnmatrix.c:726:21
	strh.w	r0, [sp, #292]
	.loc	12 727 21                       @ ../GUILib/src/widgets/lv_btnmatrix.c:727:21
	adds	r0, r4, r2
	strh.w	r0, [sp, #294]
	.loc	12 728 21                       @ ../GUILib/src/widgets/lv_btnmatrix.c:728:21
	adds	r0, r5, r3
	strh.w	r0, [sp, #296]
	.loc	12 729 21                       @ ../GUILib/src/widgets/lv_btnmatrix.c:729:21
	adds	r0, r4, r1
	.loc	12 732 12                       @ ../GUILib/src/widgets/lv_btnmatrix.c:732:12
	cmp.w	r10, #0
	.loc	12 729 21                       @ ../GUILib/src/widgets/lv_btnmatrix.c:729:21
	strh.w	r0, [sp, #298]
	.loc	12 732 12                       @ ../GUILib/src/widgets/lv_btnmatrix.c:732:12
	beq	.LBB2_79
.Ltmp219:
@ %bb.78:                               @   in Loop: Header=BB2_71 Depth=1
	@DEBUG_VALUE: draw_main:obj <- $r11
	@DEBUG_VALUE: draw_main:btnm <- $r11
	@DEBUG_VALUE: btn_state <- $r10
	@DEBUG_VALUE: draw_main:txt_i <- $r9
	@DEBUG_VALUE: draw_main:btn_i <- $r8
	@DEBUG_VALUE: draw_main:clip_area <- [DW_OP_plus_uconst 44] [$sp+0]
	@DEBUG_VALUE: draw_main:state_ori <- [DW_OP_plus_uconst 36] [$sp+0]
	@DEBUG_VALUE: lv_btnmatrix_event:e <- [DW_OP_LLVM_entry_value 1] $r1
	@DEBUG_VALUE: lv_btnmatrix_event:class_p <- [DW_OP_LLVM_entry_value 1] $r0
	.loc	12 739 29                       @ ../GUILib/src/widgets/lv_btnmatrix.c:739:29
	ldrh.w	r0, [r11, #34]
	add	r4, sp, #240
	orr	r0, r0, #4
	strh.w	r0, [r11, #34]
	.loc	12 740 13                       @ ../GUILib/src/widgets/lv_btnmatrix.c:740:13
	mov	r0, r4
	.loc	12 738 24                       @ ../GUILib/src/widgets/lv_btnmatrix.c:738:24
	strh.w	r10, [r11, #32]
	.loc	12 740 13                       @ ../GUILib/src/widgets/lv_btnmatrix.c:740:13
	bl	lv_draw_rect_dsc_init
.Ltmp220:
	.loc	12 0 13 is_stmt 0               @ ../GUILib/src/widgets/lv_btnmatrix.c:0:13
	add	r5, sp, #208
	.loc	12 741 13 is_stmt 1             @ ../GUILib/src/widgets/lv_btnmatrix.c:741:13
	mov	r0, r5
	bl	lv_draw_label_dsc_init
.Ltmp221:
	.loc	12 742 13                       @ ../GUILib/src/widgets/lv_btnmatrix.c:742:13
	mov	r0, r11
	mov.w	r1, #327680
	mov	r2, r4
	bl	lv_obj_init_draw_rect_dsc
.Ltmp222:
	.loc	12 743 13                       @ ../GUILib/src/widgets/lv_btnmatrix.c:743:13
	mov	r0, r11
	mov.w	r1, #327680
	mov	r2, r5
	bl	lv_obj_init_draw_label_dsc
.Ltmp223:
	.loc	12 745 29                       @ ../GUILib/src/widgets/lv_btnmatrix.c:745:29
	ldrh.w	r0, [r11, #34]
	.loc	12 744 24                       @ ../GUILib/src/widgets/lv_btnmatrix.c:744:24
	ldr	r1, [sp, #36]                   @ 4-byte Reload
	.loc	12 745 29                       @ ../GUILib/src/widgets/lv_btnmatrix.c:745:29
	bic	r0, r0, #4
	.loc	12 744 24                       @ ../GUILib/src/widgets/lv_btnmatrix.c:744:24
	strh.w	r1, [r11, #32]
	.loc	12 745 29                       @ ../GUILib/src/widgets/lv_btnmatrix.c:745:29
	strh.w	r0, [r11, #34]
	b	.LBB2_80
.Ltmp224:
.LBB2_79:                               @   in Loop: Header=BB2_71 Depth=1
	@DEBUG_VALUE: draw_main:obj <- $r11
	@DEBUG_VALUE: draw_main:btnm <- $r11
	@DEBUG_VALUE: btn_state <- $r10
	@DEBUG_VALUE: draw_main:txt_i <- $r9
	@DEBUG_VALUE: draw_main:btn_i <- $r8
	@DEBUG_VALUE: draw_main:clip_area <- [DW_OP_plus_uconst 44] [$sp+0]
	@DEBUG_VALUE: draw_main:state_ori <- [DW_OP_plus_uconst 36] [$sp+0]
	@DEBUG_VALUE: lv_btnmatrix_event:e <- [DW_OP_LLVM_entry_value 1] $r1
	@DEBUG_VALUE: lv_btnmatrix_event:class_p <- [DW_OP_LLVM_entry_value 1] $r0
	.loc	12 733 13                       @ ../GUILib/src/widgets/lv_btnmatrix.c:733:13
	add	r0, sp, #240
	add	r1, sp, #156
	movs	r2, #52
	bl	lv_memcpy
.Ltmp225:
	.loc	12 734 13                       @ ../GUILib/src/widgets/lv_btnmatrix.c:734:13
	add	r0, sp, #208
	add	r1, sp, #124
	movs	r2, #32
	bl	lv_memcpy
.Ltmp226:
.LBB2_80:                               @   in Loop: Header=BB2_71 Depth=1
	@DEBUG_VALUE: draw_main:obj <- $r11
	@DEBUG_VALUE: draw_main:btnm <- $r11
	@DEBUG_VALUE: btn_state <- $r10
	@DEBUG_VALUE: draw_main:txt_i <- $r9
	@DEBUG_VALUE: draw_main:btn_i <- $r8
	@DEBUG_VALUE: draw_main:clip_area <- [DW_OP_plus_uconst 44] [$sp+0]
	@DEBUG_VALUE: draw_main:state_ori <- [DW_OP_plus_uconst 36] [$sp+0]
	@DEBUG_VALUE: lv_btnmatrix_event:e <- [DW_OP_LLVM_entry_value 1] $r1
	@DEBUG_VALUE: lv_btnmatrix_event:class_p <- [DW_OP_LLVM_entry_value 1] $r0
	.loc	12 748 48                       @ ../GUILib/src/widgets/lv_btnmatrix.c:748:48
	ldr.w	r0, [r11, #44]
	.loc	12 749 12                       @ ../GUILib/src/widgets/lv_btnmatrix.c:749:12
	ldrb.w	r1, [sp, #237]
	.loc	12 748 42                       @ ../GUILib/src/widgets/lv_btnmatrix.c:748:42
	ldrh.w	r0, [r0, r8, lsl #1]
.Ltmp227:
	@DEBUG_VALUE: recolor <- [DW_OP_LLVM_convert 1 7, DW_OP_LLVM_convert 8 7, DW_OP_stack_value] undef
	.loc	12 749 12                       @ ../GUILib/src/widgets/lv_btnmatrix.c:749:12
	and	r1, r1, #254
	ubfx	r0, r0, #12, #1
	add	r0, r1
.Ltmp228:
	.loc	12 0 0 is_stmt 0                @ ../GUILib/src/widgets/lv_btnmatrix.c:0:0
	strb.w	r0, [sp, #237]
.Ltmp229:
	.loc	12 753 33 is_stmt 1             @ ../GUILib/src/widgets/lv_btnmatrix.c:753:33
	add	r0, sp, #292
	str	r0, [sp, #64]
	.loc	12 755 9                        @ ../GUILib/src/widgets/lv_btnmatrix.c:755:9
	mov	r0, r11
	movs	r1, #26
	add	r2, sp, #52
	.loc	12 754 26                       @ ../GUILib/src/widgets/lv_btnmatrix.c:754:26
	str.w	r8, [sp, #108]
	.loc	12 755 9                        @ ../GUILib/src/widgets/lv_btnmatrix.c:755:9
	bl	lv_event_send
.Ltmp230:
	.loc	12 758 30                       @ ../GUILib/src/widgets/lv_btnmatrix.c:758:30
	ldrb.w	r0, [sp, #271]
.Ltmp231:
	.loc	12 758 12 is_stmt 0             @ ../GUILib/src/widgets/lv_btnmatrix.c:758:12
	lsls	r1, r0, #26
	bmi	.LBB2_82
.Ltmp232:
@ %bb.81:                               @   in Loop: Header=BB2_71 Depth=1
	@DEBUG_VALUE: draw_main:obj <- $r11
	@DEBUG_VALUE: draw_main:btnm <- $r11
	@DEBUG_VALUE: btn_state <- $r10
	@DEBUG_VALUE: draw_main:txt_i <- $r9
	@DEBUG_VALUE: draw_main:btn_i <- $r8
	@DEBUG_VALUE: draw_main:clip_area <- [DW_OP_plus_uconst 44] [$sp+0]
	@DEBUG_VALUE: draw_main:state_ori <- [DW_OP_plus_uconst 36] [$sp+0]
	@DEBUG_VALUE: lv_btnmatrix_event:e <- [DW_OP_LLVM_entry_value 1] $r1
	@DEBUG_VALUE: lv_btnmatrix_event:class_p <- [DW_OP_LLVM_entry_value 1] $r0
	.loc	6 135 33 is_stmt 1              @ ../GUILib/src/hal/../misc/lv_area.h:135:33
	ldrh.w	r2, [sp, #298]
	.loc	6 135 46 is_stmt 0              @ ../GUILib/src/hal/../misc/lv_area.h:135:46
	ldrh.w	r1, [sp, #294]
	b	.LBB2_83
.Ltmp233:
.LBB2_82:                               @   in Loop: Header=BB2_71 Depth=1
	@DEBUG_VALUE: draw_main:obj <- $r11
	@DEBUG_VALUE: draw_main:btnm <- $r11
	@DEBUG_VALUE: btn_state <- $r10
	@DEBUG_VALUE: draw_main:txt_i <- $r9
	@DEBUG_VALUE: draw_main:btn_i <- $r8
	@DEBUG_VALUE: draw_main:clip_area <- [DW_OP_plus_uconst 44] [$sp+0]
	@DEBUG_VALUE: draw_main:state_ori <- [DW_OP_plus_uconst 36] [$sp+0]
	@DEBUG_VALUE: lv_btnmatrix_event:e <- [DW_OP_LLVM_entry_value 1] $r1
	@DEBUG_VALUE: lv_btnmatrix_event:class_p <- [DW_OP_LLVM_entry_value 1] $r0
	.loc	12 759 43 is_stmt 1             @ ../GUILib/src/widgets/lv_btnmatrix.c:759:43
	and	r1, r0, #193
	add.w	r0, r1, #30
	strb.w	r0, [sp, #271]
.Ltmp234:
	.loc	12 760 43                       @ ../GUILib/src/widgets/lv_btnmatrix.c:760:43
	ldrsh.w	r2, [r11, #20]
	.loc	12 760 46 is_stmt 0             @ ../GUILib/src/widgets/lv_btnmatrix.c:760:46
	ldr	r5, [sp, #28]                   @ 4-byte Reload
	.loc	12 760 25                       @ ../GUILib/src/widgets/lv_btnmatrix.c:760:25
	ldrsh.w	r3, [sp, #292]
	.loc	12 760 46                       @ ../GUILib/src/widgets/lv_btnmatrix.c:760:46
	add	r2, r5
.Ltmp235:
	.loc	12 760 16                       @ ../GUILib/src/widgets/lv_btnmatrix.c:760:16
	cmp	r2, r3
.Ltmp236:
	.loc	12 760 85                       @ ../GUILib/src/widgets/lv_btnmatrix.c:760:85
	itt	eq
	orreq	r0, r1, #22
	strbeq.w	r0, [sp, #271]
.Ltmp237:
	.loc	12 761 43 is_stmt 1             @ ../GUILib/src/widgets/lv_btnmatrix.c:761:43
	ldrsh.w	r1, [r11, #24]
	.loc	12 761 46 is_stmt 0             @ ../GUILib/src/widgets/lv_btnmatrix.c:761:46
	ldr	r3, [sp, #24]                   @ 4-byte Reload
	.loc	12 761 25                       @ ../GUILib/src/widgets/lv_btnmatrix.c:761:25
	ldrsh.w	r2, [sp, #296]
	.loc	12 761 46                       @ ../GUILib/src/widgets/lv_btnmatrix.c:761:46
	subs	r1, r1, r3
.Ltmp238:
	.loc	12 761 16                       @ ../GUILib/src/widgets/lv_btnmatrix.c:761:16
	cmp	r1, r2
.Ltmp239:
	.loc	12 761 86                       @ ../GUILib/src/widgets/lv_btnmatrix.c:761:86
	itt	eq
	andeq	r0, r0, #239
	strbeq.w	r0, [sp, #271]
.Ltmp240:
	.loc	12 762 43 is_stmt 1             @ ../GUILib/src/widgets/lv_btnmatrix.c:762:43
	ldrsh.w	r2, [r11, #22]
	.loc	12 762 46 is_stmt 0             @ ../GUILib/src/widgets/lv_btnmatrix.c:762:46
	ldr	r3, [sp, #20]                   @ 4-byte Reload
	.loc	12 762 16                       @ ../GUILib/src/widgets/lv_btnmatrix.c:762:16
	ldrsh.w	r1, [sp, #294]
	.loc	12 762 46                       @ ../GUILib/src/widgets/lv_btnmatrix.c:762:46
	add	r2, r3
.Ltmp241:
	.loc	12 762 16                       @ ../GUILib/src/widgets/lv_btnmatrix.c:762:16
	cmp	r2, r1
.Ltmp242:
	.loc	12 762 84                       @ ../GUILib/src/widgets/lv_btnmatrix.c:762:84
	itt	eq
	andeq	r0, r0, #251
	strbeq.w	r0, [sp, #271]
.Ltmp243:
	.loc	12 763 43 is_stmt 1             @ ../GUILib/src/widgets/lv_btnmatrix.c:763:43
	ldrsh.w	r2, [r11, #26]
	.loc	12 763 46 is_stmt 0             @ ../GUILib/src/widgets/lv_btnmatrix.c:763:46
	ldr	r5, [sp, #16]                   @ 4-byte Reload
	.loc	12 763 16                       @ ../GUILib/src/widgets/lv_btnmatrix.c:763:16
	ldrsh.w	r3, [sp, #298]
	.loc	12 763 46                       @ ../GUILib/src/widgets/lv_btnmatrix.c:763:46
	subs	r2, r2, r5
.Ltmp244:
	.loc	12 0 0                          @ ../GUILib/src/widgets/lv_btnmatrix.c:0:0
	uxth	r1, r1
	.loc	12 763 16                       @ ../GUILib/src/widgets/lv_btnmatrix.c:763:16
	cmp	r2, r3
.Ltmp245:
	.loc	12 763 25                       @ ../GUILib/src/widgets/lv_btnmatrix.c:763:25
	uxth	r2, r3
	.loc	12 763 87                       @ ../GUILib/src/widgets/lv_btnmatrix.c:763:87
	itt	eq
	andeq	r0, r0, #253
	strbeq.w	r0, [sp, #271]
.Ltmp246:
.LBB2_83:                               @   in Loop: Header=BB2_71 Depth=1
	@DEBUG_VALUE: draw_main:obj <- $r11
	@DEBUG_VALUE: draw_main:btnm <- $r11
	@DEBUG_VALUE: btn_state <- $r10
	@DEBUG_VALUE: draw_main:txt_i <- $r9
	@DEBUG_VALUE: draw_main:btn_i <- $r8
	@DEBUG_VALUE: draw_main:clip_area <- [DW_OP_plus_uconst 44] [$sp+0]
	@DEBUG_VALUE: draw_main:state_ori <- [DW_OP_plus_uconst 36] [$sp+0]
	@DEBUG_VALUE: lv_btnmatrix_event:e <- [DW_OP_LLVM_entry_value 1] $r1
	@DEBUG_VALUE: lv_btnmatrix_event:class_p <- [DW_OP_LLVM_entry_value 1] $r0
	@DEBUG_VALUE: lv_area_get_height:area_p <- [DW_OP_plus_uconst 292, DW_OP_stack_value] $sp
	.loc	6 135 49 is_stmt 1              @ ../GUILib/src/hal/../misc/lv_area.h:135:49
	subs	r0, r2, r1
.Ltmp247:
	.loc	12 768 24                       @ ../GUILib/src/widgets/lv_btnmatrix.c:768:24
	ands	r4, r10, #32
.Ltmp248:
	.loc	6 135 49                        @ ../GUILib/src/hal/../misc/lv_area.h:135:49
	add.w	r2, r0, #1
.Ltmp249:
	@DEBUG_VALUE: btn_height <- $r2
	@DEBUG_VALUE: lv_area_get_height:area_p <- [DW_OP_plus_uconst 292, DW_OP_stack_value] $sp
	.loc	12 768 44                       @ ../GUILib/src/widgets/lv_btnmatrix.c:768:44
	beq	.LBB2_85
.Ltmp250:
@ %bb.84:                               @   in Loop: Header=BB2_71 Depth=1
	@DEBUG_VALUE: draw_main:obj <- $r11
	@DEBUG_VALUE: draw_main:btnm <- $r11
	@DEBUG_VALUE: btn_state <- $r10
	@DEBUG_VALUE: draw_main:txt_i <- $r9
	@DEBUG_VALUE: draw_main:btn_i <- $r8
	@DEBUG_VALUE: btn_height <- $r2
	@DEBUG_VALUE: draw_main:clip_area <- [DW_OP_plus_uconst 44] [$sp+0]
	@DEBUG_VALUE: draw_main:state_ori <- [DW_OP_plus_uconst 36] [$sp+0]
	@DEBUG_VALUE: lv_btnmatrix_event:e <- [DW_OP_LLVM_entry_value 1] $r1
	@DEBUG_VALUE: lv_btnmatrix_event:class_p <- [DW_OP_LLVM_entry_value 1] $r0
	.loc	12 768 54 is_stmt 0             @ ../GUILib/src/widgets/lv_btnmatrix.c:768:54
	ldr.w	r0, [r11, #44]
	.loc	12 768 48                       @ ../GUILib/src/widgets/lv_btnmatrix.c:768:48
	ldrh.w	r0, [r0, r8, lsl #1]
.Ltmp251:
	.loc	12 768 13                       @ ../GUILib/src/widgets/lv_btnmatrix.c:768:13
	lsls	r0, r0, #22
.Ltmp252:
	.loc	12 770 25 is_stmt 1             @ ../GUILib/src/widgets/lv_btnmatrix.c:770:25
	itt	mi
	submi	r0, r1, r2
	strhmi.w	r0, [sp, #294]
.Ltmp253:
.LBB2_85:                               @   in Loop: Header=BB2_71 Depth=1
	@DEBUG_VALUE: draw_main:obj <- $r11
	@DEBUG_VALUE: draw_main:btnm <- $r11
	@DEBUG_VALUE: btn_state <- $r10
	@DEBUG_VALUE: draw_main:txt_i <- $r9
	@DEBUG_VALUE: draw_main:btn_i <- $r8
	@DEBUG_VALUE: btn_height <- $r2
	@DEBUG_VALUE: draw_main:clip_area <- [DW_OP_plus_uconst 44] [$sp+0]
	@DEBUG_VALUE: draw_main:state_ori <- [DW_OP_plus_uconst 36] [$sp+0]
	@DEBUG_VALUE: lv_btnmatrix_event:e <- [DW_OP_LLVM_entry_value 1] $r1
	@DEBUG_VALUE: lv_btnmatrix_event:class_p <- [DW_OP_LLVM_entry_value 1] $r0
	.loc	12 774 9                        @ ../GUILib/src/widgets/lv_btnmatrix.c:774:9
	ldr	r1, [sp, #44]                   @ 4-byte Reload
	str	r2, [sp, #40]                   @ 4-byte Spill
.Ltmp254:
	@DEBUG_VALUE: btn_height <- [DW_OP_plus_uconst 40] [$sp+0]
	add	r0, sp, #292
	add	r2, sp, #240
	bl	lv_draw_rect
.Ltmp255:
	.loc	12 780 34                       @ ../GUILib/src/widgets/lv_btnmatrix.c:780:34
	ldr.w	r0, [r11, #36]
.Ltmp256:
	.loc	6 125 46                        @ ../GUILib/src/hal/../misc/lv_area.h:125:46
	ldrh.w	r1, [sp, #300]
.Ltmp257:
	.loc	12 780 28                       @ ../GUILib/src/widgets/lv_btnmatrix.c:780:28
	ldr.w	r10, [r0, r7, lsl #2]
.Ltmp258:
	@DEBUG_VALUE: lv_area_get_width:area_p <- [DW_OP_plus_uconst 300, DW_OP_stack_value] $sp
	@DEBUG_VALUE: txt <- $r10
	.loc	6 125 33                        @ ../GUILib/src/hal/../misc/lv_area.h:125:33
	ldrh.w	r0, [sp, #304]
.Ltmp259:
	.loc	12 779 52                       @ ../GUILib/src/widgets/lv_btnmatrix.c:779:52
	ldrsh.w	r7, [sp, #226]
.Ltmp260:
	@DEBUG_VALUE: line_space <- undef
	.loc	6 125 49                        @ ../GUILib/src/hal/../misc/lv_area.h:125:49
	subs	r0, r0, r1
	@DEBUG_VALUE: lv_area_get_width:area_p <- [DW_OP_plus_uconst 300, DW_OP_stack_value] $sp
	adds	r0, #1
.Ltmp261:
	@DEBUG_VALUE: lv_area_get_width:area_p <- [DW_OP_plus_uconst 300, DW_OP_stack_value] $sp
	.loc	12 777 53                       @ ../GUILib/src/widgets/lv_btnmatrix.c:777:53
	ldr	r2, [sp, #208]
.Ltmp262:
	@DEBUG_VALUE: font <- $r2
	.loc	12 778 54                       @ ../GUILib/src/widgets/lv_btnmatrix.c:778:54
	ldrsh.w	r3, [sp, #228]
.Ltmp263:
	@DEBUG_VALUE: letter_space <- undef
	.loc	12 792 86                       @ ../GUILib/src/widgets/lv_btnmatrix.c:792:86
	ldrb.w	r5, [sp, #237]
	.loc	12 791 9                        @ ../GUILib/src/widgets/lv_btnmatrix.c:791:9
	sxth	r0, r0
	strd	r7, r0, [sp]
	add	r0, sp, #48
	mov	r1, r10
	str	r5, [sp, #8]
	bl	lv_txt_get_size
.Ltmp264:
	@DEBUG_VALUE: lv_area_get_width:area_p <- [DW_OP_plus_uconst 292, DW_OP_stack_value] $sp
	.loc	6 125 33                        @ ../GUILib/src/hal/../misc/lv_area.h:125:33
	ldrh.w	r0, [sp, #296]
	.loc	6 125 46 is_stmt 0              @ ../GUILib/src/hal/../misc/lv_area.h:125:46
	ldrh.w	r1, [sp, #292]
.Ltmp265:
	.loc	12 794 56 is_stmt 1             @ ../GUILib/src/widgets/lv_btnmatrix.c:794:56
	ldrsh.w	r2, [sp, #48]
.Ltmp266:
	.loc	6 125 49                        @ ../GUILib/src/hal/../misc/lv_area.h:125:49
	subs	r0, r0, r1
	adds	r0, #1
.Ltmp267:
	.loc	12 794 25                       @ ../GUILib/src/widgets/lv_btnmatrix.c:794:25
	sxth	r0, r0
	.loc	12 794 54 is_stmt 0             @ ../GUILib/src/widgets/lv_btnmatrix.c:794:54
	subs	r0, r0, r2
	.loc	12 794 68                       @ ../GUILib/src/widgets/lv_btnmatrix.c:794:68
	add.w	r0, r0, r0, lsr #31
	.loc	12 794 21                       @ ../GUILib/src/widgets/lv_btnmatrix.c:794:21
	add.w	r1, r1, r0, lsr #1
.Ltmp268:
	.loc	6 135 33 is_stmt 1              @ ../GUILib/src/hal/../misc/lv_area.h:135:33
	ldrh.w	r0, [sp, #298]
	.loc	6 135 46 is_stmt 0              @ ../GUILib/src/hal/../misc/lv_area.h:135:46
	ldrh.w	r7, [sp, #294]
.Ltmp269:
	.loc	12 795 57 is_stmt 1             @ ../GUILib/src/widgets/lv_btnmatrix.c:795:57
	ldrsh.w	r3, [sp, #50]
.Ltmp270:
	.loc	6 135 49                        @ ../GUILib/src/hal/../misc/lv_area.h:135:49
	subs	r0, r0, r7
	adds	r0, #1
.Ltmp271:
	.loc	12 795 25                       @ ../GUILib/src/widgets/lv_btnmatrix.c:795:25
	sxth	r0, r0
	.loc	12 795 55 is_stmt 0             @ ../GUILib/src/widgets/lv_btnmatrix.c:795:55
	subs	r0, r0, r3
	.loc	12 795 69                       @ ../GUILib/src/widgets/lv_btnmatrix.c:795:69
	add.w	r0, r0, r0, lsr #31
	.loc	12 794 21 is_stmt 1             @ ../GUILib/src/widgets/lv_btnmatrix.c:794:21
	strh.w	r1, [sp, #292]
	@DEBUG_VALUE: lv_area_get_height:area_p <- [DW_OP_plus_uconst 292, DW_OP_stack_value] $sp
	.loc	12 795 21                       @ ../GUILib/src/widgets/lv_btnmatrix.c:795:21
	add.w	r0, r7, r0, lsr #1
	.loc	12 796 35                       @ ../GUILib/src/widgets/lv_btnmatrix.c:796:35
	add	r1, r2
	.loc	12 796 21 is_stmt 0             @ ../GUILib/src/widgets/lv_btnmatrix.c:796:21
	strh.w	r1, [sp, #296]
	.loc	12 797 35 is_stmt 1             @ ../GUILib/src/widgets/lv_btnmatrix.c:797:35
	adds	r1, r0, r3
	.loc	12 795 21                       @ ../GUILib/src/widgets/lv_btnmatrix.c:795:21
	strh.w	r0, [sp, #294]
	.loc	12 797 21                       @ ../GUILib/src/widgets/lv_btnmatrix.c:797:21
	strh.w	r1, [sp, #298]
.Ltmp272:
	.loc	12 799 44                       @ ../GUILib/src/widgets/lv_btnmatrix.c:799:44
	cbz	r4, .LBB2_88
.Ltmp273:
@ %bb.86:                               @   in Loop: Header=BB2_71 Depth=1
	@DEBUG_VALUE: btn_height <- [DW_OP_plus_uconst 40] [$sp+0]
	@DEBUG_VALUE: draw_main:obj <- $r11
	@DEBUG_VALUE: draw_main:btnm <- $r11
	@DEBUG_VALUE: txt <- $r10
	@DEBUG_VALUE: draw_main:txt_i <- $r9
	@DEBUG_VALUE: draw_main:btn_i <- $r8
	@DEBUG_VALUE: draw_main:clip_area <- [DW_OP_plus_uconst 44] [$sp+0]
	@DEBUG_VALUE: draw_main:state_ori <- [DW_OP_plus_uconst 36] [$sp+0]
	@DEBUG_VALUE: lv_btnmatrix_event:e <- [DW_OP_LLVM_entry_value 1] $r1
	@DEBUG_VALUE: lv_btnmatrix_event:class_p <- [DW_OP_LLVM_entry_value 1] $r0
	.loc	12 799 54 is_stmt 0             @ ../GUILib/src/widgets/lv_btnmatrix.c:799:54
	ldr.w	r2, [r11, #44]
	.loc	12 799 48                       @ ../GUILib/src/widgets/lv_btnmatrix.c:799:48
	ldrh.w	r2, [r2, r8, lsl #1]
.Ltmp274:
	.loc	12 799 13                       @ ../GUILib/src/widgets/lv_btnmatrix.c:799:13
	lsls	r2, r2, #22
	bpl	.LBB2_88
.Ltmp275:
@ %bb.87:                               @   in Loop: Header=BB2_71 Depth=1
	@DEBUG_VALUE: btn_height <- [DW_OP_plus_uconst 40] [$sp+0]
	@DEBUG_VALUE: draw_main:obj <- $r11
	@DEBUG_VALUE: draw_main:btnm <- $r11
	@DEBUG_VALUE: txt <- $r10
	@DEBUG_VALUE: draw_main:txt_i <- $r9
	@DEBUG_VALUE: draw_main:btn_i <- $r8
	@DEBUG_VALUE: draw_main:clip_area <- [DW_OP_plus_uconst 44] [$sp+0]
	@DEBUG_VALUE: draw_main:state_ori <- [DW_OP_plus_uconst 36] [$sp+0]
	@DEBUG_VALUE: lv_btnmatrix_event:e <- [DW_OP_LLVM_entry_value 1] $r1
	@DEBUG_VALUE: lv_btnmatrix_event:class_p <- [DW_OP_LLVM_entry_value 1] $r0
	.loc	12 0 13                         @ ../GUILib/src/widgets/lv_btnmatrix.c:0:13
	ldr	r3, [sp, #40]                   @ 4-byte Reload
.Ltmp276:
	@DEBUG_VALUE: btn_height <- $r3
	.loc	12 801 39 is_stmt 1             @ ../GUILib/src/widgets/lv_btnmatrix.c:801:39
	uxth	r2, r3
	add.w	r2, r3, r2, lsr #15
	sxth	r2, r2
	.loc	12 801 25 is_stmt 0             @ ../GUILib/src/widgets/lv_btnmatrix.c:801:25
	sub.w	r0, r0, r2, asr #1
	strh.w	r0, [sp, #294]
	.loc	12 802 25 is_stmt 1             @ ../GUILib/src/widgets/lv_btnmatrix.c:802:25
	sub.w	r0, r1, r2, asr #1
	strh.w	r0, [sp, #298]
.Ltmp277:
.LBB2_88:                               @   in Loop: Header=BB2_71 Depth=1
	@DEBUG_VALUE: draw_main:obj <- $r11
	@DEBUG_VALUE: draw_main:btnm <- $r11
	@DEBUG_VALUE: txt <- $r10
	@DEBUG_VALUE: draw_main:txt_i <- $r9
	@DEBUG_VALUE: draw_main:btn_i <- $r8
	@DEBUG_VALUE: draw_main:clip_area <- [DW_OP_plus_uconst 44] [$sp+0]
	@DEBUG_VALUE: draw_main:state_ori <- [DW_OP_plus_uconst 36] [$sp+0]
	@DEBUG_VALUE: lv_btnmatrix_event:e <- [DW_OP_LLVM_entry_value 1] $r1
	@DEBUG_VALUE: lv_btnmatrix_event:class_p <- [DW_OP_LLVM_entry_value 1] $r0
	.loc	12 806 9                        @ ../GUILib/src/widgets/lv_btnmatrix.c:806:9
	ldr	r1, [sp, #44]                   @ 4-byte Reload
	add	r0, sp, #292
	add	r2, sp, #208
	mov	r3, r10
	movs	r7, #0
	str	r7, [sp]
	bl	lv_draw_label
.Ltmp278:
	.loc	12 808 9                        @ ../GUILib/src/widgets/lv_btnmatrix.c:808:9
	mov	r0, r11
	movs	r1, #27
	add	r2, sp, #52
	bl	lv_event_send
.Ltmp279:
	.loc	12 703 34                       @ ../GUILib/src/widgets/lv_btnmatrix.c:703:34
	ldrh.w	r4, [r11, #48]
.Ltmp280:
.LBB2_89:                               @   in Loop: Header=BB2_71 Depth=1
	@DEBUG_VALUE: draw_main:obj <- $r11
	@DEBUG_VALUE: draw_main:btnm <- $r11
	@DEBUG_VALUE: draw_main:txt_i <- $r9
	@DEBUG_VALUE: draw_main:btn_i <- $r8
	@DEBUG_VALUE: draw_main:clip_area <- [DW_OP_plus_uconst 44] [$sp+0]
	@DEBUG_VALUE: draw_main:state_ori <- [DW_OP_plus_uconst 36] [$sp+0]
	@DEBUG_VALUE: lv_btnmatrix_event:e <- [DW_OP_LLVM_entry_value 1] $r1
	@DEBUG_VALUE: lv_btnmatrix_event:class_p <- [DW_OP_LLVM_entry_value 1] $r0
	.loc	12 703 48 is_stmt 0             @ ../GUILib/src/widgets/lv_btnmatrix.c:703:48
	add.w	r8, r8, #1
.Ltmp281:
	@DEBUG_VALUE: draw_main:txt_i <- $r9
	@DEBUG_VALUE: draw_main:btn_i <- $r8
	.loc	12 703 5                        @ ../GUILib/src/widgets/lv_btnmatrix.c:703:5
	cmp	r8, r4
	blo.w	.LBB2_71
.Ltmp282:
.LBB2_90:
	@DEBUG_VALUE: draw_main:obj <- $r11
	@DEBUG_VALUE: draw_main:btnm <- $r11
	@DEBUG_VALUE: draw_main:clip_area <- [DW_OP_plus_uconst 44] [$sp+0]
	@DEBUG_VALUE: draw_main:state_ori <- [DW_OP_plus_uconst 36] [$sp+0]
	@DEBUG_VALUE: lv_btnmatrix_event:e <- [DW_OP_LLVM_entry_value 1] $r1
	@DEBUG_VALUE: lv_btnmatrix_event:class_p <- [DW_OP_LLVM_entry_value 1] $r0
	.loc	12 811 21 is_stmt 1             @ ../GUILib/src/widgets/lv_btnmatrix.c:811:21
	ldrh.w	r0, [r11, #34]
	bic	r0, r0, #4
	strh.w	r0, [r11, #34]
	b	.LBB2_132
.Ltmp283:
.LBB2_91:
	@DEBUG_VALUE: lv_btnmatrix_event:obj <- $r4
	@DEBUG_VALUE: lv_btnmatrix_event:btnm <- $r4
	@DEBUG_VALUE: lv_btnmatrix_event:e <- [DW_OP_LLVM_entry_value 1] $r1
	@DEBUG_VALUE: lv_btnmatrix_event:class_p <- [DW_OP_LLVM_entry_value 1] $r0
	.loc	12 489 55                       @ ../GUILib/src/widgets/lv_btnmatrix.c:489:55
	orr	r1, r1, #128
.Ltmp284:
.LBB2_92:
	@DEBUG_VALUE: lv_btnmatrix_event:obj <- $r4
	@DEBUG_VALUE: lv_btnmatrix_event:btnm <- $r4
	@DEBUG_VALUE: lv_btnmatrix_event:e <- [DW_OP_LLVM_entry_value 1] $r1
	@DEBUG_VALUE: lv_btnmatrix_event:class_p <- [DW_OP_LLVM_entry_value 1] $r0
	.loc	12 0 0 is_stmt 0                @ ../GUILib/src/widgets/lv_btnmatrix.c:0:0
	strh.w	r1, [r0, r2, lsl #1]
.Ltmp285:
	.loc	12 491 26 is_stmt 1             @ ../GUILib/src/widgets/lv_btnmatrix.c:491:26
	ldrb.w	r1, [r4, #54]
.Ltmp286:
	.loc	12 491 20 is_stmt 0             @ ../GUILib/src/widgets/lv_btnmatrix.c:491:20
	lsls	r1, r1, #31
	beq	.LBB2_94
.Ltmp287:
@ %bb.93:
	@DEBUG_VALUE: lv_btnmatrix_event:obj <- $r4
	@DEBUG_VALUE: lv_btnmatrix_event:btnm <- $r4
	@DEBUG_VALUE: lv_btnmatrix_event:e <- [DW_OP_LLVM_entry_value 1] $r1
	@DEBUG_VALUE: lv_btnmatrix_event:class_p <- [DW_OP_LLVM_entry_value 1] $r0
	.loc	12 491 72                       @ ../GUILib/src/widgets/lv_btnmatrix.c:491:72
	ldrh	r1, [r4, #52]
	.loc	12 491 37                       @ ../GUILib/src/widgets/lv_btnmatrix.c:491:37
	mov	r0, r4
	bl	make_one_button_checked
.Ltmp288:
	.loc	12 495 44 is_stmt 1             @ ../GUILib/src/widgets/lv_btnmatrix.c:495:44
	ldr	r0, [r4, #44]
.Ltmp289:
.LBB2_94:
	@DEBUG_VALUE: lv_btnmatrix_event:obj <- $r4
	@DEBUG_VALUE: lv_btnmatrix_event:btnm <- $r4
	@DEBUG_VALUE: lv_btnmatrix_event:e <- [DW_OP_LLVM_entry_value 1] $r1
	@DEBUG_VALUE: lv_btnmatrix_event:class_p <- [DW_OP_LLVM_entry_value 1] $r0
	.loc	12 495 60 is_stmt 0             @ ../GUILib/src/widgets/lv_btnmatrix.c:495:60
	ldrh	r1, [r4, #52]
	.loc	12 495 38                       @ ../GUILib/src/widgets/lv_btnmatrix.c:495:38
	ldrh.w	r0, [r0, r1, lsl #1]
.Ltmp290:
	@DEBUG_VALUE: button_is_hidden:ctrl_bits <- undef
	@DEBUG_VALUE: button_is_inactive:ctrl_bits <- undef
	@DEBUG_VALUE: button_is_popover:ctrl_bits <- undef
	@DEBUG_VALUE: button_is_click_trig:ctrl_bits <- undef
	.loc	12 495 81                       @ ../GUILib/src/widgets/lv_btnmatrix.c:495:81
	tst.w	r0, #40
	bne	.LBB2_98
.Ltmp291:
@ %bb.95:
	@DEBUG_VALUE: lv_btnmatrix_event:obj <- $r4
	@DEBUG_VALUE: lv_btnmatrix_event:btnm <- $r4
	@DEBUG_VALUE: lv_btnmatrix_event:e <- [DW_OP_LLVM_entry_value 1] $r1
	@DEBUG_VALUE: lv_btnmatrix_event:class_p <- [DW_OP_LLVM_entry_value 1] $r0
	ands	r0, r0, #768
	beq	.LBB2_98
.Ltmp292:
@ %bb.96:
	@DEBUG_VALUE: lv_btnmatrix_event:obj <- $r4
	@DEBUG_VALUE: lv_btnmatrix_event:btnm <- $r4
	@DEBUG_VALUE: lv_btnmatrix_event:e <- [DW_OP_LLVM_entry_value 1] $r1
	@DEBUG_VALUE: lv_btnmatrix_event:class_p <- [DW_OP_LLVM_entry_value 1] $r0
	@DEBUG_VALUE: b <- $r1
	.loc	12 499 26 is_stmt 1             @ ../GUILib/src/widgets/lv_btnmatrix.c:499:26
	str	r1, [sp, #52]
.Ltmp293:
	@DEBUG_VALUE: b <- [DW_OP_plus_uconst 52, DW_OP_deref] $sp
	.loc	12 0 26 is_stmt 0               @ ../GUILib/src/widgets/lv_btnmatrix.c:0:26
	add	r2, sp, #52
	.loc	12 500 30 is_stmt 1             @ ../GUILib/src/widgets/lv_btnmatrix.c:500:30
	mov	r0, r4
	movs	r1, #28
	bl	lv_event_send
.Ltmp294:
	@DEBUG_VALUE: lv_btnmatrix_event:res <- $r0
	.loc	12 0 30 is_stmt 0               @ ../GUILib/src/widgets/lv_btnmatrix.c:0:30
	cmp	r0, #1
	bne.w	.LBB2_132
.Ltmp295:
@ %bb.97:
	@DEBUG_VALUE: lv_btnmatrix_event:obj <- $r4
	@DEBUG_VALUE: lv_btnmatrix_event:btnm <- $r4
	@DEBUG_VALUE: lv_btnmatrix_event:res <- $r0
	@DEBUG_VALUE: lv_btnmatrix_event:e <- [DW_OP_LLVM_entry_value 1] $r1
	@DEBUG_VALUE: lv_btnmatrix_event:class_p <- [DW_OP_LLVM_entry_value 1] $r0
	.loc	12 506 43 is_stmt 1             @ ../GUILib/src/widgets/lv_btnmatrix.c:506:43
	ldrh	r1, [r4, #52]
.Ltmp296:
.LBB2_98:
	@DEBUG_VALUE: lv_btnmatrix_event:obj <- $r4
	@DEBUG_VALUE: lv_btnmatrix_event:btnm <- $r4
	@DEBUG_VALUE: lv_btnmatrix_event:e <- [DW_OP_LLVM_entry_value 1] $r1
	@DEBUG_VALUE: lv_btnmatrix_event:class_p <- [DW_OP_LLVM_entry_value 1] $r0
	.loc	12 506 9 is_stmt 0              @ ../GUILib/src/widgets/lv_btnmatrix.c:506:9
	mov	r0, r4
	bl	invalidate_button_area
.Ltmp297:
	.loc	12 508 56 is_stmt 1             @ ../GUILib/src/widgets/lv_btnmatrix.c:508:56
	bl	lv_indev_get_act
.Ltmp298:
	.loc	12 508 38 is_stmt 0             @ ../GUILib/src/widgets/lv_btnmatrix.c:508:38
	bl	lv_indev_get_type
.Ltmp299:
	@DEBUG_VALUE: indev_type <- undef
	.loc	12 509 48 is_stmt 1             @ ../GUILib/src/widgets/lv_btnmatrix.c:509:48
	orr	r0, r0, #2
	cmp	r0, #3
.Ltmp300:
	.loc	12 0 0 is_stmt 0                @ ../GUILib/src/widgets/lv_btnmatrix.c:0:0
	it	eq
	strheq	r5, [r4, #52]
	b	.LBB2_132
.Ltmp301:
.LBB2_99:
	@DEBUG_VALUE: lv_btnmatrix_event:e <- $r5
	@DEBUG_VALUE: lv_btnmatrix_event:obj <- $r4
	@DEBUG_VALUE: lv_btnmatrix_event:btnm <- $r4
	@DEBUG_VALUE: lv_btnmatrix_event:class_p <- [DW_OP_LLVM_entry_value 1] $r0
	.loc	12 644 43 is_stmt 1             @ ../GUILib/src/widgets/lv_btnmatrix.c:644:43
	ldrh	r1, [r4, #52]
	b	.LBB2_131
.Ltmp302:
.LBB2_100:
	@DEBUG_VALUE: lv_btnmatrix_event:e <- $r5
	@DEBUG_VALUE: lv_btnmatrix_event:obj <- $r4
	@DEBUG_VALUE: lv_btnmatrix_event:btnm <- $r4
	@DEBUG_VALUE: lv_btnmatrix_event:class_p <- [DW_OP_LLVM_entry_value 1] $r0
	@DEBUG_VALUE: lv_obj_get_style_pad_column:obj <- $r4
	@DEBUG_VALUE: lv_obj_get_style_pad_column:part <- 0
	.loc	18 123 26                       @ ../GUILib/src/widgets/../core/lv_obj_style_gen.h:123:26
	mov	r0, r4
	movs	r1, #0
	movw	r2, #6165
	movs	r5, #0
.Ltmp303:
	@DEBUG_VALUE: lv_btnmatrix_event:e <- [DW_OP_LLVM_entry_value 1] $r1
	bl	lv_obj_get_style_prop
.Ltmp304:
	.loc	12 591 22                       @ ../GUILib/src/widgets/lv_btnmatrix.c:591:22
	ldrh	r1, [r4, #52]
	movw	r2, #65535
.Ltmp305:
	.loc	12 591 16 is_stmt 0             @ ../GUILib/src/widgets/lv_btnmatrix.c:591:16
	cmp	r1, r2
.Ltmp306:
	@DEBUG_VALUE: col_gap <- [DW_OP_LLVM_convert 32 7, DW_OP_LLVM_convert 16 7, DW_OP_stack_value] $r0
	@DEBUG_VALUE: lv_obj_get_style_pad_column:v <- $r0
	@DEBUG_VALUE: lv_obj_get_style_pad_column:part <- 0
	@DEBUG_VALUE: lv_obj_get_style_pad_column:obj <- $r4
	beq.w	.LBB2_127
.Ltmp307:
@ %bb.101:
	@DEBUG_VALUE: lv_btnmatrix_event:obj <- $r4
	@DEBUG_VALUE: lv_btnmatrix_event:btnm <- $r4
	@DEBUG_VALUE: col_gap <- [DW_OP_LLVM_convert 32 7, DW_OP_LLVM_convert 16 7, DW_OP_stack_value] $r0
	@DEBUG_VALUE: lv_btnmatrix_event:e <- [DW_OP_LLVM_entry_value 1] $r1
	@DEBUG_VALUE: lv_btnmatrix_event:class_p <- [DW_OP_LLVM_entry_value 1] $r0
	@DEBUG_VALUE: lv_area_get_width:area_p <- undef
	@DEBUG_VALUE: pr_center <- undef
	@DEBUG_VALUE: area_below <- $r1
	.loc	12 603 71 is_stmt 1             @ ../GUILib/src/widgets/lv_btnmatrix.c:603:71
	ldrh	r2, [r4, #48]
.Ltmp308:
	.loc	12 603 17 is_stmt 0             @ ../GUILib/src/widgets/lv_btnmatrix.c:603:17
	cmp	r1, r2
	bhs.w	.LBB2_131
.Ltmp309:
@ %bb.102:
	@DEBUG_VALUE: lv_btnmatrix_event:obj <- $r4
	@DEBUG_VALUE: lv_btnmatrix_event:btnm <- $r4
	@DEBUG_VALUE: area_below <- $r1
	@DEBUG_VALUE: col_gap <- [DW_OP_LLVM_convert 32 7, DW_OP_LLVM_convert 16 7, DW_OP_stack_value] $r0
	@DEBUG_VALUE: lv_btnmatrix_event:e <- [DW_OP_LLVM_entry_value 1] $r1
	@DEBUG_VALUE: lv_btnmatrix_event:class_p <- [DW_OP_LLVM_entry_value 1] $r0
	.loc	12 0 17                         @ ../GUILib/src/widgets/lv_btnmatrix.c:0:17
	ldr	r7, [r4, #40]
	sxth.w	r12, r0
	add.w	r5, r7, r1, lsl #3
	ldrh.w	r3, [r7, r1, lsl #3]
	ldrh	r6, [r5, #4]
	.loc	12 603 17                       @ ../GUILib/src/widgets/lv_btnmatrix.c:603:17
	add.w	lr, r7, #4
	subs	r6, r6, r3
	adds	r6, #1
	sxth	r6, r6
	add.w	r3, r3, r6, lsr #1
.Ltmp310:
	@DEBUG_VALUE: pr_center <- $r3
	.loc	12 0 17                         @ ../GUILib/src/widgets/lv_btnmatrix.c:0:17
	ldrsh.w	r6, [r5, #2]
	sxth	r3, r3
.Ltmp311:
	.loc	12 603 17                       @ ../GUILib/src/widgets/lv_btnmatrix.c:603:17
	adds	r5, #10
.Ltmp312:
	.loc	12 604 55 is_stmt 1             @ ../GUILib/src/widgets/lv_btnmatrix.c:604:55
	mov	r7, r6
	mov	r0, r1
.Ltmp313:
.LBB2_103:                              @ =>This Inner Loop Header: Depth=1
	@DEBUG_VALUE: lv_btnmatrix_event:obj <- $r4
	@DEBUG_VALUE: lv_btnmatrix_event:btnm <- $r4
	@DEBUG_VALUE: lv_btnmatrix_event:e <- [DW_OP_LLVM_entry_value 1] $r1
	@DEBUG_VALUE: lv_btnmatrix_event:class_p <- [DW_OP_LLVM_entry_value 1] $r0
	@DEBUG_VALUE: area_below <- $r0
	.loc	12 604 58 is_stmt 0             @ ../GUILib/src/widgets/lv_btnmatrix.c:604:58
	sxth	r7, r7
	.loc	12 604 100                      @ ../GUILib/src/widgets/lv_btnmatrix.c:604:100
	cmp	r7, r6
	ble	.LBB2_107
.Ltmp314:
@ %bb.104:                              @   in Loop: Header=BB2_103 Depth=1
	@DEBUG_VALUE: lv_btnmatrix_event:obj <- $r4
	@DEBUG_VALUE: lv_btnmatrix_event:btnm <- $r4
	@DEBUG_VALUE: area_below <- $r0
	@DEBUG_VALUE: lv_btnmatrix_event:e <- [DW_OP_LLVM_entry_value 1] $r1
	@DEBUG_VALUE: lv_btnmatrix_event:class_p <- [DW_OP_LLVM_entry_value 1] $r0
	.loc	12 605 68 is_stmt 1             @ ../GUILib/src/widgets/lv_btnmatrix.c:605:68
	ldrsh	r7, [r5, #-10]
	.loc	12 605 71 is_stmt 0             @ ../GUILib/src/widgets/lv_btnmatrix.c:605:71
	cmp	r3, r7
	blt	.LBB2_107
.Ltmp315:
@ %bb.105:                              @   in Loop: Header=BB2_103 Depth=1
	@DEBUG_VALUE: lv_btnmatrix_event:obj <- $r4
	@DEBUG_VALUE: lv_btnmatrix_event:btnm <- $r4
	@DEBUG_VALUE: area_below <- $r0
	@DEBUG_VALUE: lv_btnmatrix_event:e <- [DW_OP_LLVM_entry_value 1] $r1
	@DEBUG_VALUE: lv_btnmatrix_event:class_p <- [DW_OP_LLVM_entry_value 1] $r0
	.loc	12 606 68 is_stmt 1             @ ../GUILib/src/widgets/lv_btnmatrix.c:606:68
	ldrsh.w	r7, [lr, r0, lsl #3]
	.loc	12 606 71 is_stmt 0             @ ../GUILib/src/widgets/lv_btnmatrix.c:606:71
	add	r7, r12
	.loc	12 606 81                       @ ../GUILib/src/widgets/lv_btnmatrix.c:606:81
	cmp	r7, r3
	blt	.LBB2_107
.Ltmp316:
@ %bb.106:                              @   in Loop: Header=BB2_103 Depth=1
	@DEBUG_VALUE: lv_btnmatrix_event:obj <- $r4
	@DEBUG_VALUE: lv_btnmatrix_event:btnm <- $r4
	@DEBUG_VALUE: area_below <- $r0
	@DEBUG_VALUE: lv_btnmatrix_event:e <- [DW_OP_LLVM_entry_value 1] $r1
	@DEBUG_VALUE: lv_btnmatrix_event:class_p <- [DW_OP_LLVM_entry_value 1] $r0
	.loc	12 607 49 is_stmt 1             @ ../GUILib/src/widgets/lv_btnmatrix.c:607:49
	ldr	r7, [r4, #44]
	.loc	12 607 43 is_stmt 0             @ ../GUILib/src/widgets/lv_btnmatrix.c:607:43
	ldrh.w	r7, [r7, r0, lsl #1]
.Ltmp317:
	@DEBUG_VALUE: button_is_hidden:ctrl_bits <- undef
	@DEBUG_VALUE: button_is_inactive:ctrl_bits <- undef
	.loc	12 607 81                       @ ../GUILib/src/widgets/lv_btnmatrix.c:607:81
	tst.w	r7, #40
	beq.w	.LBB2_134
.Ltmp318:
.LBB2_107:                              @   in Loop: Header=BB2_103 Depth=1
	@DEBUG_VALUE: lv_btnmatrix_event:obj <- $r4
	@DEBUG_VALUE: lv_btnmatrix_event:btnm <- $r4
	@DEBUG_VALUE: area_below <- $r0
	@DEBUG_VALUE: lv_btnmatrix_event:e <- [DW_OP_LLVM_entry_value 1] $r1
	@DEBUG_VALUE: lv_btnmatrix_event:class_p <- [DW_OP_LLVM_entry_value 1] $r0
	.loc	12 603 90 is_stmt 1             @ ../GUILib/src/widgets/lv_btnmatrix.c:603:90
	adds	r0, #1
.Ltmp319:
	@DEBUG_VALUE: area_below <- $r0
	.loc	12 603 17 is_stmt 0             @ ../GUILib/src/widgets/lv_btnmatrix.c:603:17
	cmp	r0, r2
	bhs	.LBB2_131
.Ltmp320:
@ %bb.108:                              @   in Loop: Header=BB2_103 Depth=1
	@DEBUG_VALUE: lv_btnmatrix_event:obj <- $r4
	@DEBUG_VALUE: lv_btnmatrix_event:btnm <- $r4
	@DEBUG_VALUE: area_below <- $r0
	@DEBUG_VALUE: lv_btnmatrix_event:e <- [DW_OP_LLVM_entry_value 1] $r1
	@DEBUG_VALUE: lv_btnmatrix_event:class_p <- [DW_OP_LLVM_entry_value 1] $r0
	.loc	12 604 55 is_stmt 1             @ ../GUILib/src/widgets/lv_btnmatrix.c:604:55
	ldrh	r7, [r5], #8
	b	.LBB2_103
.Ltmp321:
.LBB2_109:
	@DEBUG_VALUE: lv_btnmatrix_event:e <- $r5
	@DEBUG_VALUE: lv_btnmatrix_event:obj <- $r4
	@DEBUG_VALUE: lv_btnmatrix_event:btnm <- $r4
	@DEBUG_VALUE: lv_btnmatrix_event:class_p <- [DW_OP_LLVM_entry_value 1] $r0
	.loc	12 568 22                       @ ../GUILib/src/widgets/lv_btnmatrix.c:568:22
	ldrh	r0, [r4, #52]
	movs	r2, #0
.Ltmp322:
	.loc	12 568 16 is_stmt 0             @ ../GUILib/src/widgets/lv_btnmatrix.c:568:16
	adds	r1, r0, #1
.Ltmp323:
	.loc	12 570 42 is_stmt 1             @ ../GUILib/src/widgets/lv_btnmatrix.c:570:42
	ldrh	r0, [r4, #48]
.Ltmp324:
	.loc	12 568 16                       @ ../GUILib/src/widgets/lv_btnmatrix.c:568:16
	uxth	r3, r1
	.loc	12 570 16                       @ ../GUILib/src/widgets/lv_btnmatrix.c:570:16
	cmp	r3, r0
	it	hs
	movhs	r1, r2
	.loc	12 572 42                       @ ../GUILib/src/widgets/lv_btnmatrix.c:572:42
	ldr	r3, [r4, #44]
	.loc	12 0 0 is_stmt 0                @ ../GUILib/src/widgets/lv_btnmatrix.c:0:0
	strh	r1, [r4, #52]
	.loc	12 572 36                       @ ../GUILib/src/widgets/lv_btnmatrix.c:572:36
	uxth	r7, r1
.Ltmp325:
	@DEBUG_VALUE: button_is_inactive:ctrl_bits <- undef
	@DEBUG_VALUE: button_is_hidden:ctrl_bits <- undef
	.loc	12 572 71                       @ ../GUILib/src/widgets/lv_btnmatrix.c:572:71
	ldrb.w	r7, [r3, r7, lsl #1]
.Ltmp326:
.LBB2_110:                              @ =>This Inner Loop Header: Depth=1
	@DEBUG_VALUE: lv_btnmatrix_event:e <- $r5
	@DEBUG_VALUE: lv_btnmatrix_event:obj <- $r4
	@DEBUG_VALUE: lv_btnmatrix_event:btnm <- $r4
	@DEBUG_VALUE: lv_btnmatrix_event:class_p <- [DW_OP_LLVM_entry_value 1] $r0
	tst.w	r7, #40
	beq	.LBB2_131
.Ltmp327:
@ %bb.111:                              @   in Loop: Header=BB2_110 Depth=1
	@DEBUG_VALUE: lv_btnmatrix_event:e <- $r5
	@DEBUG_VALUE: lv_btnmatrix_event:obj <- $r4
	@DEBUG_VALUE: lv_btnmatrix_event:btnm <- $r4
	@DEBUG_VALUE: lv_btnmatrix_event:class_p <- [DW_OP_LLVM_entry_value 1] $r0
	.loc	12 573 33 is_stmt 1             @ ../GUILib/src/widgets/lv_btnmatrix.c:573:33
	adds	r1, #1
	uxth	r7, r1
	.loc	12 574 20                       @ ../GUILib/src/widgets/lv_btnmatrix.c:574:20
	cmp	r7, r0
	it	hs
	movhs	r1, r2
.Ltmp328:
	.loc	12 0 0 is_stmt 0                @ ../GUILib/src/widgets/lv_btnmatrix.c:0:0
	strh	r1, [r4, #52]
	.loc	12 572 36 is_stmt 1             @ ../GUILib/src/widgets/lv_btnmatrix.c:572:36
	uxth	r7, r1
	ldrh.w	r7, [r3, r7, lsl #1]
.Ltmp329:
	@DEBUG_VALUE: button_is_inactive:ctrl_bits <- undef
	@DEBUG_VALUE: button_is_hidden:ctrl_bits <- undef
	.loc	12 0 36 is_stmt 0               @ ../GUILib/src/widgets/lv_btnmatrix.c:0:36
	b	.LBB2_110
.Ltmp330:
.LBB2_112:
	@DEBUG_VALUE: lv_btnmatrix_event:e <- $r5
	@DEBUG_VALUE: lv_btnmatrix_event:obj <- $r4
	@DEBUG_VALUE: lv_btnmatrix_event:btnm <- $r4
	@DEBUG_VALUE: lv_btnmatrix_event:class_p <- [DW_OP_LLVM_entry_value 1] $r0
	.loc	12 578 22 is_stmt 1             @ ../GUILib/src/widgets/lv_btnmatrix.c:578:22
	ldrh	r0, [r4, #52]
.Ltmp331:
	.loc	12 578 16 is_stmt 0             @ ../GUILib/src/widgets/lv_btnmatrix.c:578:16
	cbz	r0, .LBB2_115
.Ltmp332:
@ %bb.113:
	@DEBUG_VALUE: lv_btnmatrix_event:e <- $r5
	@DEBUG_VALUE: lv_btnmatrix_event:obj <- $r4
	@DEBUG_VALUE: lv_btnmatrix_event:btnm <- $r4
	@DEBUG_VALUE: lv_btnmatrix_event:class_p <- [DW_OP_LLVM_entry_value 1] $r0
	.loc	12 0 16                         @ ../GUILib/src/widgets/lv_btnmatrix.c:0:16
	movw	r1, #65535
	.loc	12 578 16                       @ ../GUILib/src/widgets/lv_btnmatrix.c:578:16
	cmp	r0, r1
	bne	.LBB2_116
.Ltmp333:
@ %bb.114:
	@DEBUG_VALUE: lv_btnmatrix_event:e <- $r5
	@DEBUG_VALUE: lv_btnmatrix_event:obj <- $r4
	@DEBUG_VALUE: lv_btnmatrix_event:btnm <- $r4
	@DEBUG_VALUE: lv_btnmatrix_event:class_p <- [DW_OP_LLVM_entry_value 1] $r0
	.loc	12 0 16                         @ ../GUILib/src/widgets/lv_btnmatrix.c:0:16
	movs	r0, #0
.Ltmp334:
	.loc	12 578 76                       @ ../GUILib/src/widgets/lv_btnmatrix.c:578:76
	strh	r0, [r4, #52]
.Ltmp335:
.LBB2_115:
	@DEBUG_VALUE: lv_btnmatrix_event:e <- $r5
	@DEBUG_VALUE: lv_btnmatrix_event:obj <- $r4
	@DEBUG_VALUE: lv_btnmatrix_event:btnm <- $r4
	@DEBUG_VALUE: lv_btnmatrix_event:class_p <- [DW_OP_LLVM_entry_value 1] $r0
	.loc	12 580 64 is_stmt 1             @ ../GUILib/src/widgets/lv_btnmatrix.c:580:64
	ldrh	r0, [r4, #48]
.Ltmp336:
.LBB2_116:
	@DEBUG_VALUE: lv_btnmatrix_event:e <- $r5
	@DEBUG_VALUE: lv_btnmatrix_event:obj <- $r4
	@DEBUG_VALUE: lv_btnmatrix_event:btnm <- $r4
	@DEBUG_VALUE: lv_btnmatrix_event:class_p <- [DW_OP_LLVM_entry_value 1] $r0
	.loc	12 0 0 is_stmt 0                @ ../GUILib/src/widgets/lv_btnmatrix.c:0:0
	subs	r1, r0, #1
	.loc	12 583 42 is_stmt 1             @ ../GUILib/src/widgets/lv_btnmatrix.c:583:42
	ldr	r0, [r4, #44]
	.loc	12 0 0 is_stmt 0                @ ../GUILib/src/widgets/lv_btnmatrix.c:0:0
	strh	r1, [r4, #52]
.Ltmp337:
.LBB2_117:                              @ =>This Inner Loop Header: Depth=1
	@DEBUG_VALUE: lv_btnmatrix_event:e <- $r5
	@DEBUG_VALUE: lv_btnmatrix_event:obj <- $r4
	@DEBUG_VALUE: lv_btnmatrix_event:btnm <- $r4
	@DEBUG_VALUE: lv_btnmatrix_event:class_p <- [DW_OP_LLVM_entry_value 1] $r0
	.loc	12 583 36                       @ ../GUILib/src/widgets/lv_btnmatrix.c:583:36
	uxth	r2, r1
	ldrh.w	r2, [r0, r2, lsl #1]
.Ltmp338:
	@DEBUG_VALUE: button_is_inactive:ctrl_bits <- undef
	@DEBUG_VALUE: button_is_hidden:ctrl_bits <- undef
	.loc	12 583 71                       @ ../GUILib/src/widgets/lv_btnmatrix.c:583:71
	tst.w	r2, #40
	beq	.LBB2_131
.Ltmp339:
@ %bb.118:                              @   in Loop: Header=BB2_117 Depth=1
	@DEBUG_VALUE: lv_btnmatrix_event:e <- $r5
	@DEBUG_VALUE: lv_btnmatrix_event:obj <- $r4
	@DEBUG_VALUE: lv_btnmatrix_event:btnm <- $r4
	@DEBUG_VALUE: lv_btnmatrix_event:class_p <- [DW_OP_LLVM_entry_value 1] $r0
	.loc	12 584 20 is_stmt 1             @ ../GUILib/src/widgets/lv_btnmatrix.c:584:20
	lsls	r2, r1, #16
.Ltmp340:
	.loc	12 585 47                       @ ../GUILib/src/widgets/lv_btnmatrix.c:585:47
	it	eq
	ldrheq	r1, [r4, #48]
.Ltmp341:
	.loc	12 0 0 is_stmt 0                @ ../GUILib/src/widgets/lv_btnmatrix.c:0:0
	subs	r1, #1
	strh	r1, [r4, #52]
	b	.LBB2_117
.Ltmp342:
.LBB2_119:
	@DEBUG_VALUE: indev_type <- $r5
	@DEBUG_VALUE: lv_btnmatrix_event:obj <- $r4
	@DEBUG_VALUE: lv_btnmatrix_event:btnm <- $r4
	@DEBUG_VALUE: lv_btnmatrix_event:e <- [DW_OP_LLVM_entry_value 1] $r1
	@DEBUG_VALUE: lv_btnmatrix_event:class_p <- [DW_OP_LLVM_entry_value 1] $r0
	.loc	12 554 34 is_stmt 1             @ ../GUILib/src/widgets/lv_btnmatrix.c:554:34
	strh	r6, [r4, #52]
	b	.LBB2_132
.Ltmp343:
.LBB2_120:
	@DEBUG_VALUE: s <- $r8
	@DEBUG_VALUE: lv_btnmatrix_event:obj <- $r4
	@DEBUG_VALUE: lv_btnmatrix_event:btnm <- $r4
	@DEBUG_VALUE: lv_btnmatrix_event:e <- [DW_OP_LLVM_entry_value 1] $r1
	@DEBUG_VALUE: lv_btnmatrix_event:class_p <- [DW_OP_LLVM_entry_value 1] $r0
	.loc	12 405 38                       @ ../GUILib/src/widgets/lv_btnmatrix.c:405:38
	mov	r0, r4
	bl	lv_obj_get_content_height
.Ltmp344:
	.loc	12 405 77 is_stmt 0             @ ../GUILib/src/widgets/lv_btnmatrix.c:405:77
	ldrh	r1, [r4, #50]
	.loc	12 405 69                       @ ../GUILib/src/widgets/lv_btnmatrix.c:405:69
	sdiv	r0, r0, r1
	b	.LBB2_67
.Ltmp345:
.LBB2_121:
	@DEBUG_VALUE: indev_type <- $r5
	@DEBUG_VALUE: lv_btnmatrix_event:obj <- $r4
	@DEBUG_VALUE: lv_btnmatrix_event:btnm <- $r4
	@DEBUG_VALUE: b <- 0
	@DEBUG_VALUE: lv_btnmatrix_event:e <- [DW_OP_LLVM_entry_value 1] $r1
	@DEBUG_VALUE: lv_btnmatrix_event:class_p <- [DW_OP_LLVM_entry_value 1] $r0
	.loc	12 0 69                         @ ../GUILib/src/widgets/lv_btnmatrix.c:0:69
	movs	r1, #0
.Ltmp346:
.LBB2_122:                              @ =>This Inner Loop Header: Depth=1
	@DEBUG_VALUE: indev_type <- $r5
	@DEBUG_VALUE: lv_btnmatrix_event:obj <- $r4
	@DEBUG_VALUE: lv_btnmatrix_event:btnm <- $r4
	@DEBUG_VALUE: lv_btnmatrix_event:e <- [DW_OP_LLVM_entry_value 1] $r1
	@DEBUG_VALUE: lv_btnmatrix_event:class_p <- [DW_OP_LLVM_entry_value 1] $r0
	@DEBUG_VALUE: b <- $r1
	.loc	12 544 44 is_stmt 1             @ ../GUILib/src/widgets/lv_btnmatrix.c:544:44
	ldrh.w	r2, [r0, r1, lsl #1]
.Ltmp347:
	@DEBUG_VALUE: button_is_inactive:ctrl_bits <- undef
	@DEBUG_VALUE: button_is_hidden:ctrl_bits <- undef
	.loc	12 545 76                       @ ../GUILib/src/widgets/lv_btnmatrix.c:545:76
	adds	r1, #1
.Ltmp348:
	@DEBUG_VALUE: b <- $r1
	.loc	12 544 64                       @ ../GUILib/src/widgets/lv_btnmatrix.c:544:64
	and	r2, r2, #168
	cmp	r2, #128
	bne	.LBB2_122
.Ltmp349:
.LBB2_123:
	@DEBUG_VALUE: indev_type <- $r5
	@DEBUG_VALUE: lv_btnmatrix_event:obj <- $r4
	@DEBUG_VALUE: lv_btnmatrix_event:btnm <- $r4
	@DEBUG_VALUE: b <- $r1
	@DEBUG_VALUE: lv_btnmatrix_event:e <- [DW_OP_LLVM_entry_value 1] $r1
	@DEBUG_VALUE: lv_btnmatrix_event:class_p <- [DW_OP_LLVM_entry_value 1] $r0
	.loc	12 551 36                       @ ../GUILib/src/widgets/lv_btnmatrix.c:551:36
	subs	r0, r1, #1
	b	.LBB2_29
.Ltmp350:
.LBB2_124:
	@DEBUG_VALUE: lv_btnmatrix_event:obj <- $r4
	@DEBUG_VALUE: lv_btnmatrix_event:btnm <- $r4
	@DEBUG_VALUE: col_gap <- [DW_OP_LLVM_convert 32 7, DW_OP_LLVM_convert 16 7, DW_OP_stack_value] $r0
	@DEBUG_VALUE: lv_btnmatrix_event:e <- [DW_OP_LLVM_entry_value 1] $r1
	@DEBUG_VALUE: lv_btnmatrix_event:class_p <- [DW_OP_LLVM_entry_value 1] $r0
	.loc	12 621 46                       @ ../GUILib/src/widgets/lv_btnmatrix.c:621:46
	ldr	r0, [r4, #44]
.Ltmp351:
	.loc	12 0 0 is_stmt 0                @ ../GUILib/src/widgets/lv_btnmatrix.c:0:0
	strh	r5, [r4, #52]
	.loc	12 621 40                       @ ../GUILib/src/widgets/lv_btnmatrix.c:621:40
	ldrh	r1, [r0]
.Ltmp352:
	@DEBUG_VALUE: button_is_inactive:ctrl_bits <- undef
	@DEBUG_VALUE: button_is_hidden:ctrl_bits <- undef
	.loc	12 621 75                       @ ../GUILib/src/widgets/lv_btnmatrix.c:621:75
	tst.w	r1, #40
	beq	.LBB2_130
.Ltmp353:
@ %bb.125:
	@DEBUG_VALUE: lv_btnmatrix_event:obj <- $r4
	@DEBUG_VALUE: lv_btnmatrix_event:btnm <- $r4
	@DEBUG_VALUE: lv_btnmatrix_event:e <- [DW_OP_LLVM_entry_value 1] $r1
	@DEBUG_VALUE: lv_btnmatrix_event:class_p <- [DW_OP_LLVM_entry_value 1] $r0
	.loc	12 623 50 is_stmt 1             @ ../GUILib/src/widgets/lv_btnmatrix.c:623:50
	ldrh	r2, [r4, #48]
	movs	r3, #0
	movs	r1, #0
.Ltmp354:
.LBB2_126:                              @ =>This Inner Loop Header: Depth=1
	@DEBUG_VALUE: lv_btnmatrix_event:obj <- $r4
	@DEBUG_VALUE: lv_btnmatrix_event:btnm <- $r4
	@DEBUG_VALUE: lv_btnmatrix_event:e <- [DW_OP_LLVM_entry_value 1] $r1
	@DEBUG_VALUE: lv_btnmatrix_event:class_p <- [DW_OP_LLVM_entry_value 1] $r0
	.loc	12 622 37                       @ ../GUILib/src/widgets/lv_btnmatrix.c:622:37
	adds	r1, #1
	uxth	r7, r1
	.loc	12 623 24                       @ ../GUILib/src/widgets/lv_btnmatrix.c:623:24
	cmp	r7, r2
	it	hs
	movhs	r1, r3
.Ltmp355:
	.loc	12 0 0 is_stmt 0                @ ../GUILib/src/widgets/lv_btnmatrix.c:0:0
	strh	r1, [r4, #52]
	.loc	12 621 40 is_stmt 1             @ ../GUILib/src/widgets/lv_btnmatrix.c:621:40
	uxth	r7, r1
	ldrh.w	r7, [r0, r7, lsl #1]
.Ltmp356:
	@DEBUG_VALUE: button_is_inactive:ctrl_bits <- undef
	@DEBUG_VALUE: button_is_hidden:ctrl_bits <- undef
	.loc	12 621 75 is_stmt 0             @ ../GUILib/src/widgets/lv_btnmatrix.c:621:75
	tst.w	r7, #40
	bne	.LBB2_126
	b	.LBB2_131
.Ltmp357:
.LBB2_127:
	@DEBUG_VALUE: lv_btnmatrix_event:obj <- $r4
	@DEBUG_VALUE: lv_btnmatrix_event:btnm <- $r4
	@DEBUG_VALUE: col_gap <- [DW_OP_LLVM_convert 32 7, DW_OP_LLVM_convert 16 7, DW_OP_stack_value] $r0
	@DEBUG_VALUE: lv_btnmatrix_event:e <- [DW_OP_LLVM_entry_value 1] $r1
	@DEBUG_VALUE: lv_btnmatrix_event:class_p <- [DW_OP_LLVM_entry_value 1] $r0
	.loc	12 593 46 is_stmt 1             @ ../GUILib/src/widgets/lv_btnmatrix.c:593:46
	ldr	r0, [r4, #44]
.Ltmp358:
	.loc	12 0 0 is_stmt 0                @ ../GUILib/src/widgets/lv_btnmatrix.c:0:0
	strh	r5, [r4, #52]
	.loc	12 593 40                       @ ../GUILib/src/widgets/lv_btnmatrix.c:593:40
	ldrh	r1, [r0]
.Ltmp359:
	@DEBUG_VALUE: button_is_inactive:ctrl_bits <- undef
	@DEBUG_VALUE: button_is_hidden:ctrl_bits <- undef
	.loc	12 593 75                       @ ../GUILib/src/widgets/lv_btnmatrix.c:593:75
	tst.w	r1, #40
	beq	.LBB2_130
.Ltmp360:
@ %bb.128:
	@DEBUG_VALUE: lv_btnmatrix_event:obj <- $r4
	@DEBUG_VALUE: lv_btnmatrix_event:btnm <- $r4
	@DEBUG_VALUE: lv_btnmatrix_event:e <- [DW_OP_LLVM_entry_value 1] $r1
	@DEBUG_VALUE: lv_btnmatrix_event:class_p <- [DW_OP_LLVM_entry_value 1] $r0
	.loc	12 595 50 is_stmt 1             @ ../GUILib/src/widgets/lv_btnmatrix.c:595:50
	ldrh	r2, [r4, #48]
	movs	r3, #0
	movs	r1, #0
.Ltmp361:
.LBB2_129:                              @ =>This Inner Loop Header: Depth=1
	@DEBUG_VALUE: lv_btnmatrix_event:obj <- $r4
	@DEBUG_VALUE: lv_btnmatrix_event:btnm <- $r4
	@DEBUG_VALUE: lv_btnmatrix_event:e <- [DW_OP_LLVM_entry_value 1] $r1
	@DEBUG_VALUE: lv_btnmatrix_event:class_p <- [DW_OP_LLVM_entry_value 1] $r0
	.loc	12 594 37                       @ ../GUILib/src/widgets/lv_btnmatrix.c:594:37
	adds	r1, #1
	uxth	r7, r1
	.loc	12 595 24                       @ ../GUILib/src/widgets/lv_btnmatrix.c:595:24
	cmp	r7, r2
	it	hs
	movhs	r1, r3
.Ltmp362:
	.loc	12 0 0 is_stmt 0                @ ../GUILib/src/widgets/lv_btnmatrix.c:0:0
	strh	r1, [r4, #52]
	.loc	12 593 40 is_stmt 1             @ ../GUILib/src/widgets/lv_btnmatrix.c:593:40
	uxth	r7, r1
	ldrh.w	r7, [r0, r7, lsl #1]
.Ltmp363:
	@DEBUG_VALUE: button_is_inactive:ctrl_bits <- undef
	@DEBUG_VALUE: button_is_hidden:ctrl_bits <- undef
	.loc	12 593 75 is_stmt 0             @ ../GUILib/src/widgets/lv_btnmatrix.c:593:75
	tst.w	r7, #40
	bne	.LBB2_129
	b	.LBB2_131
.Ltmp364:
.LBB2_130:
	@DEBUG_VALUE: lv_btnmatrix_event:obj <- $r4
	@DEBUG_VALUE: lv_btnmatrix_event:btnm <- $r4
	@DEBUG_VALUE: lv_btnmatrix_event:e <- [DW_OP_LLVM_entry_value 1] $r1
	@DEBUG_VALUE: lv_btnmatrix_event:class_p <- [DW_OP_LLVM_entry_value 1] $r0
	.loc	12 644 43 is_stmt 1             @ ../GUILib/src/widgets/lv_btnmatrix.c:644:43
	movs	r1, #0
.Ltmp365:
.LBB2_131:
	@DEBUG_VALUE: lv_btnmatrix_event:obj <- $r4
	@DEBUG_VALUE: lv_btnmatrix_event:btnm <- $r4
	@DEBUG_VALUE: lv_btnmatrix_event:class_p <- [DW_OP_LLVM_entry_value 1] $r0
	.loc	12 644 9 is_stmt 0              @ ../GUILib/src/widgets/lv_btnmatrix.c:644:9
	uxth	r1, r1
	mov	r0, r4
	bl	invalidate_button_area
.Ltmp366:
.LBB2_132:
	@DEBUG_VALUE: lv_btnmatrix_event:class_p <- [DW_OP_LLVM_entry_value 1] $r0
	.loc	12 650 1 is_stmt 1              @ ../GUILib/src/widgets/lv_btnmatrix.c:650:1
	add	sp, #308
	pop.w	{r4, r5, r6, r7, r8, r9, r10, r11, pc}
.Ltmp367:
.LBB2_133:
	@DEBUG_VALUE: lv_btnmatrix_event:obj <- $r4
	@DEBUG_VALUE: lv_btnmatrix_event:btnm <- $r4
	@DEBUG_VALUE: area_above <- $r2
	@DEBUG_VALUE: lv_btnmatrix_event:e <- [DW_OP_LLVM_entry_value 1] $r1
	@DEBUG_VALUE: lv_btnmatrix_event:class_p <- [DW_OP_LLVM_entry_value 1] $r0
	.loc	12 644 43                       @ ../GUILib/src/widgets/lv_btnmatrix.c:644:43
	mov	r1, r2
.Ltmp368:
	.loc	12 640 54                       @ ../GUILib/src/widgets/lv_btnmatrix.c:640:54
	strh	r2, [r4, #52]
	b	.LBB2_131
.Ltmp369:
.LBB2_134:
	@DEBUG_VALUE: lv_btnmatrix_event:obj <- $r4
	@DEBUG_VALUE: lv_btnmatrix_event:btnm <- $r4
	@DEBUG_VALUE: area_below <- $r0
	@DEBUG_VALUE: lv_btnmatrix_event:e <- [DW_OP_LLVM_entry_value 1] $r1
	@DEBUG_VALUE: lv_btnmatrix_event:class_p <- [DW_OP_LLVM_entry_value 1] $r0
	.loc	12 613 65                       @ ../GUILib/src/widgets/lv_btnmatrix.c:613:65
	strh	r0, [r4, #52]
.Ltmp370:
	.loc	12 644 43                       @ ../GUILib/src/widgets/lv_btnmatrix.c:644:43
	mov	r1, r0
	b	.LBB2_131
.Ltmp371:
.Lfunc_end2:
	.size	lv_btnmatrix_event, .Lfunc_end2-lv_btnmatrix_event
	.cfi_endproc
	.file	19 "C:\\Users\\Hyacincher\\Desktop\\HyTelectrl\\Code\\Project" "../GUILib/src/hal/../draw/lv_draw_rect.h"
	.file	20 "C:\\Users\\Hyacincher\\Desktop\\HyTelectrl\\Code\\Project" "../GUILib/src/hal/../draw/../font/lv_font.h"
	.file	21 "C:\\Users\\Hyacincher\\Desktop\\HyTelectrl\\Code\\Project" "../GUILib/src/hal/../draw/lv_draw_label.h"
	.file	22 "C:\\Users\\Hyacincher\\Desktop\\HyTelectrl\\Code\\Project" "../GUILib/src/widgets/../core/lv_obj_draw.h"
	.file	23 "C:\\Users\\Hyacincher\\Desktop\\HyTelectrl\\Code\\Project" "../GUILib/src/hal/../draw/lv_draw_line.h"
	.file	24 "C:\\Users\\Hyacincher\\Desktop\\HyTelectrl\\Code\\Project" "../GUILib/src/hal/../draw/lv_draw_img.h"
	.file	25 "C:\\Users\\Hyacincher\\Desktop\\HyTelectrl\\Code\\Project" "../GUILib/src/hal/../draw/lv_draw_arc.h"
	.cantunwind
	.fnend
                                        @ -- End function
	.section	.text.lv_btnmatrix_create,"ax",%progbits
	.hidden	lv_btnmatrix_create             @ -- Begin function lv_btnmatrix_create
	.globl	lv_btnmatrix_create
	.p2align	1
	.type	lv_btnmatrix_create,%function
	.code	16                              @ @lv_btnmatrix_create
	.thumb_func
lv_btnmatrix_create:
.Lfunc_begin3:
	.loc	12 82 0                         @ ../GUILib/src/widgets/lv_btnmatrix.c:82:0
	.fnstart
	.cfi_startproc
@ %bb.0:
	@DEBUG_VALUE: lv_btnmatrix_create:parent <- $r0
	.save	{r4, lr}
	push	{r4, lr}
	.cfi_def_cfa_offset 8
	.cfi_offset lr, -4
	.cfi_offset r4, -8
	mov	r1, r0
.Ltmp372:
	@DEBUG_VALUE: lv_btnmatrix_create:parent <- $r1
	.loc	12 84 22 prologue_end           @ ../GUILib/src/widgets/lv_btnmatrix.c:84:22
	movw	r0, :lower16:lv_btnmatrix_class
	movt	r0, :upper16:lv_btnmatrix_class
	@DEBUG_VALUE: lv_btnmatrix_create:parent <- $r1
	bl	lv_obj_class_create_obj
.Ltmp373:
	mov	r4, r0
.Ltmp374:
	@DEBUG_VALUE: lv_btnmatrix_create:obj <- $r4
	.loc	12 85 5                         @ ../GUILib/src/widgets/lv_btnmatrix.c:85:5
	bl	lv_obj_class_init_obj
.Ltmp375:
	.loc	12 86 5                         @ ../GUILib/src/widgets/lv_btnmatrix.c:86:5
	mov	r0, r4
	pop	{r4, pc}
.Ltmp376:
.Lfunc_end3:
	.size	lv_btnmatrix_create, .Lfunc_end3-lv_btnmatrix_create
	.cfi_endproc
	.cantunwind
	.fnend
                                        @ -- End function
	.section	.text.lv_btnmatrix_set_map,"ax",%progbits
	.hidden	lv_btnmatrix_set_map            @ -- Begin function lv_btnmatrix_set_map
	.globl	lv_btnmatrix_set_map
	.p2align	1
	.type	lv_btnmatrix_set_map,%function
	.code	16                              @ @lv_btnmatrix_set_map
	.thumb_func
lv_btnmatrix_set_map:
.Lfunc_begin4:
	.loc	12 94 0                         @ ../GUILib/src/widgets/lv_btnmatrix.c:94:0
	.fnstart
	.cfi_startproc
@ %bb.0:
	@DEBUG_VALUE: lv_btnmatrix_set_map:obj <- $r0
	@DEBUG_VALUE: lv_btnmatrix_set_map:map <- $r1
	@DEBUG_VALUE: lv_btnmatrix_set_map:map <- $r1
	.save	{r4, r5, r6, r7, r8, r9, r10, r11, lr}
	push.w	{r4, r5, r6, r7, r8, r9, r10, r11, lr}
	.cfi_def_cfa_offset 36
	.cfi_offset lr, -4
	.cfi_offset r11, -8
	.cfi_offset r10, -12
	.cfi_offset r9, -16
	.cfi_offset r8, -20
	.cfi_offset r7, -24
	.cfi_offset r6, -28
	.cfi_offset r5, -32
	.cfi_offset r4, -36
	.pad	#68
	sub	sp, #68
	.cfi_def_cfa_offset 104
	@DEBUG_VALUE: lv_btnmatrix_set_map:obj <- $r0
.Ltmp377:
	.loc	12 96 8 prologue_end            @ ../GUILib/src/widgets/lv_btnmatrix.c:96:8
	cbz	r1, .LBB4_5
.Ltmp378:
@ %bb.1:
	@DEBUG_VALUE: lv_btnmatrix_set_map:map <- $r1
	@DEBUG_VALUE: lv_btnmatrix_set_map:obj <- $r0
	.loc	12 0 8 is_stmt 0                @ ../GUILib/src/widgets/lv_btnmatrix.c:0:8
	mov	r2, r0
.Ltmp379:
	@DEBUG_VALUE: lv_btnmatrix_set_map:obj <- $r2
	@DEBUG_VALUE: lv_btnmatrix_set_map:btnm <- $r2
	@DEBUG_VALUE: allocate_btn_areas_and_controls:btnm <- $r2
	.loc	12 828 11 is_stmt 1             @ ../GUILib/src/widgets/lv_btnmatrix.c:828:11
	ldr	r0, [r1]
	movs	r3, #1
.Ltmp380:
	@DEBUG_VALUE: allocate_btn_areas_and_controls:map <- $r1
	@DEBUG_VALUE: allocate_btn_areas_and_controls:obj <- $r2
	.loc	12 0 11 is_stmt 0               @ ../GUILib/src/widgets/lv_btnmatrix.c:0:11
	mov	r9, r1
.Ltmp381:
	@DEBUG_VALUE: lv_btnmatrix_set_map:map <- $r9
	mov	r8, r2
	.loc	12 824 19 is_stmt 1             @ ../GUILib/src/widgets/lv_btnmatrix.c:824:19
	strh	r3, [r2, #50]
.Ltmp382:
	@DEBUG_VALUE: allocate_btn_areas_and_controls:i <- 0
	@DEBUG_VALUE: allocate_btn_areas_and_controls:btn_cnt <- 0
	.loc	12 828 18                       @ ../GUILib/src/widgets/lv_btnmatrix.c:828:18
	cbz	r0, .LBB4_6
.Ltmp383:
@ %bb.2:
	@DEBUG_VALUE: lv_btnmatrix_set_map:map <- $r9
	@DEBUG_VALUE: allocate_btn_areas_and_controls:obj <- $r2
	@DEBUG_VALUE: allocate_btn_areas_and_controls:btnm <- $r2
	@DEBUG_VALUE: lv_btnmatrix_set_map:btnm <- $r2
	@DEBUG_VALUE: lv_btnmatrix_set_map:obj <- $r2
	@DEBUG_VALUE: allocate_btn_areas_and_controls:map <- $r1
	@DEBUG_VALUE: allocate_btn_areas_and_controls:btn_cnt <- 0
	@DEBUG_VALUE: allocate_btn_areas_and_controls:i <- 0
	.loc	12 0 18 is_stmt 0               @ ../GUILib/src/widgets/lv_btnmatrix.c:0:18
	movw	r6, :lower16:.L.str
	movs	r4, #0
	movs	r7, #1
	movt	r6, :upper16:.L.str
	movs	r5, #0
.Ltmp384:
	.p2align	2
.LBB4_3:                                @ =>This Inner Loop Header: Depth=1
	@DEBUG_VALUE: lv_btnmatrix_set_map:map <- $r9
	@DEBUG_VALUE: allocate_btn_areas_and_controls:btn_cnt <- $r5
	@DEBUG_VALUE: allocate_btn_areas_and_controls:i <- $r4
	.loc	12 828 21                       @ ../GUILib/src/widgets/lv_btnmatrix.c:828:21
	ldrb	r1, [r0]
	.loc	12 828 5                        @ ../GUILib/src/widgets/lv_btnmatrix.c:828:5
	cbz	r1, .LBB4_7
.Ltmp385:
@ %bb.4:                                @   in Loop: Header=BB4_3 Depth=1
	@DEBUG_VALUE: lv_btnmatrix_set_map:map <- $r9
	@DEBUG_VALUE: allocate_btn_areas_and_controls:btn_cnt <- $r5
	@DEBUG_VALUE: allocate_btn_areas_and_controls:i <- $r4
	.loc	12 829 12 is_stmt 1             @ ../GUILib/src/widgets/lv_btnmatrix.c:829:12
	mov	r1, r6
	bl	strcmp
.Ltmp386:
	.loc	12 834 10                       @ ../GUILib/src/widgets/lv_btnmatrix.c:834:10
	adds	r4, #1
.Ltmp387:
	@DEBUG_VALUE: allocate_btn_areas_and_controls:i <- $r4
	.loc	12 829 12                       @ ../GUILib/src/widgets/lv_btnmatrix.c:829:12
	cmp	r0, #0
.Ltmp388:
	.loc	12 832 26                       @ ../GUILib/src/widgets/lv_btnmatrix.c:832:26
	itte	eq
	addeq	r7, #1
	strheq.w	r7, [r8, #50]
.Ltmp389:
	.loc	12 830 20                       @ ../GUILib/src/widgets/lv_btnmatrix.c:830:20
	addne	r5, #1
.Ltmp390:
	@DEBUG_VALUE: allocate_btn_areas_and_controls:btn_cnt <- $r5
	.loc	12 828 11                       @ ../GUILib/src/widgets/lv_btnmatrix.c:828:11
	uxth	r0, r4
	ldr.w	r0, [r9, r0, lsl #2]
	.loc	12 828 18 is_stmt 0             @ ../GUILib/src/widgets/lv_btnmatrix.c:828:18
	cmp	r0, #0
	bne	.LBB4_3
	b	.LBB4_7
.Ltmp391:
.LBB4_5:
	@DEBUG_VALUE: lv_btnmatrix_set_map:map <- $r1
	@DEBUG_VALUE: lv_btnmatrix_set_map:obj <- $r0
	.loc	12 182 1 is_stmt 1              @ ../GUILib/src/widgets/lv_btnmatrix.c:182:1
	add	sp, #68
	pop.w	{r4, r5, r6, r7, r8, r9, r10, r11, pc}
.Ltmp392:
.LBB4_6:
	@DEBUG_VALUE: lv_btnmatrix_set_map:map <- $r9
	@DEBUG_VALUE: allocate_btn_areas_and_controls:obj <- $r2
	@DEBUG_VALUE: allocate_btn_areas_and_controls:btnm <- $r2
	@DEBUG_VALUE: lv_btnmatrix_set_map:btnm <- $r2
	@DEBUG_VALUE: lv_btnmatrix_set_map:obj <- $r2
	@DEBUG_VALUE: allocate_btn_areas_and_controls:map <- $r1
	@DEBUG_VALUE: allocate_btn_areas_and_controls:btn_cnt <- 0
	@DEBUG_VALUE: allocate_btn_areas_and_controls:i <- 0
	.loc	12 0 1 is_stmt 0                @ ../GUILib/src/widgets/lv_btnmatrix.c:0:1
	movs	r5, #0
.Ltmp393:
.LBB4_7:
	@DEBUG_VALUE: lv_btnmatrix_set_map:map <- $r9
	.loc	12 838 25 is_stmt 1             @ ../GUILib/src/widgets/lv_btnmatrix.c:838:25
	ldrh.w	r0, [r8, #48]
	.loc	12 838 8 is_stmt 0              @ ../GUILib/src/widgets/lv_btnmatrix.c:838:8
	uxth	r4, r5
	mov	r6, r8
.Ltmp394:
	.loc	12 838 8                        @ ../GUILib/src/widgets/lv_btnmatrix.c:838:8
	cmp	r4, r0
	beq	.LBB4_15
.Ltmp395:
@ %bb.8:
	@DEBUG_VALUE: lv_btnmatrix_set_map:map <- $r9
	.loc	12 840 14 is_stmt 1             @ ../GUILib/src/widgets/lv_btnmatrix.c:840:14
	ldr	r0, [r6, #40]
.Ltmp396:
	.loc	12 840 8 is_stmt 0              @ ../GUILib/src/widgets/lv_btnmatrix.c:840:8
	cbz	r0, .LBB4_10
.Ltmp397:
@ %bb.9:
	@DEBUG_VALUE: lv_btnmatrix_set_map:map <- $r9
	.loc	12 841 9 is_stmt 1              @ ../GUILib/src/widgets/lv_btnmatrix.c:841:9
	bl	lv_mem_free
.Ltmp398:
	.loc	12 0 9 is_stmt 0                @ ../GUILib/src/widgets/lv_btnmatrix.c:0:9
	movs	r0, #0
	.loc	12 842 28 is_stmt 1             @ ../GUILib/src/widgets/lv_btnmatrix.c:842:28
	str	r0, [r6, #40]
.Ltmp399:
.LBB4_10:
	@DEBUG_VALUE: lv_btnmatrix_set_map:map <- $r9
	.loc	12 844 14                       @ ../GUILib/src/widgets/lv_btnmatrix.c:844:14
	ldr	r0, [r6, #44]
.Ltmp400:
	.loc	12 844 8 is_stmt 0              @ ../GUILib/src/widgets/lv_btnmatrix.c:844:8
	cbz	r0, .LBB4_12
.Ltmp401:
@ %bb.11:
	@DEBUG_VALUE: lv_btnmatrix_set_map:map <- $r9
	.loc	12 845 9 is_stmt 1              @ ../GUILib/src/widgets/lv_btnmatrix.c:845:9
	bl	lv_mem_free
.Ltmp402:
	.loc	12 0 9 is_stmt 0                @ ../GUILib/src/widgets/lv_btnmatrix.c:0:9
	movs	r0, #0
	.loc	12 846 25 is_stmt 1             @ ../GUILib/src/widgets/lv_btnmatrix.c:846:25
	str	r0, [r6, #44]
.Ltmp403:
.LBB4_12:
	@DEBUG_VALUE: lv_btnmatrix_set_map:map <- $r9
	.loc	12 849 57                       @ ../GUILib/src/widgets/lv_btnmatrix.c:849:57
	lsls	r0, r4, #3
	.loc	12 849 26 is_stmt 0             @ ../GUILib/src/widgets/lv_btnmatrix.c:849:26
	bl	lv_mem_alloc
.Ltmp404:
	.loc	12 850 5 is_stmt 1              @ ../GUILib/src/widgets/lv_btnmatrix.c:850:5
	cmp	r0, #0
.Ltmp405:
	.loc	12 849 24                       @ ../GUILib/src/widgets/lv_btnmatrix.c:849:24
	str	r0, [r6, #40]
.Ltmp406:
	.loc	12 850 5                        @ ../GUILib/src/widgets/lv_btnmatrix.c:850:5
	beq.w	.LBB4_31
.Ltmp407:
@ %bb.13:
	@DEBUG_VALUE: lv_btnmatrix_set_map:map <- $r9
	.loc	12 851 64                       @ ../GUILib/src/widgets/lv_btnmatrix.c:851:64
	lsls	r0, r4, #1
	.loc	12 851 23 is_stmt 0             @ ../GUILib/src/widgets/lv_btnmatrix.c:851:23
	bl	lv_mem_alloc
.Ltmp408:
	.loc	12 852 5 is_stmt 1              @ ../GUILib/src/widgets/lv_btnmatrix.c:852:5
	cmp	r0, #0
.Ltmp409:
	.loc	12 851 21                       @ ../GUILib/src/widgets/lv_btnmatrix.c:851:21
	str	r0, [r6, #44]
.Ltmp410:
	.loc	12 852 5                        @ ../GUILib/src/widgets/lv_btnmatrix.c:852:5
	beq.w	.LBB4_32
.Ltmp411:
@ %bb.14:
	@DEBUG_VALUE: lv_btnmatrix_set_map:map <- $r9
	.loc	12 853 14                       @ ../GUILib/src/widgets/lv_btnmatrix.c:853:14
	ldr	r1, [r6, #40]
	.loc	12 853 35 is_stmt 0             @ ../GUILib/src/widgets/lv_btnmatrix.c:853:35
	cmp	r1, #0
	it	eq
	moveq	r5, r1
.Ltmp412:
	@DEBUG_VALUE: allocate_btn_areas_and_controls:btn_cnt <- $r5
	.loc	12 855 65 is_stmt 1             @ ../GUILib/src/widgets/lv_btnmatrix.c:855:65
	uxth	r1, r5
	.loc	12 855 63 is_stmt 0             @ ../GUILib/src/widgets/lv_btnmatrix.c:855:63
	lsls	r1, r1, #1
	.loc	12 855 5                        @ ../GUILib/src/widgets/lv_btnmatrix.c:855:5
	bl	lv_memset_00
.Ltmp413:
	.loc	12 857 19 is_stmt 1             @ ../GUILib/src/widgets/lv_btnmatrix.c:857:19
	strh	r5, [r6, #48]
.Ltmp414:
.LBB4_15:
	@DEBUG_VALUE: lv_btnmatrix_set_map:map <- $r9
	.loc	18 189 26                       @ ../GUILib/src/widgets/../core/lv_obj_style_gen.h:189:26
	mov	r0, r6
	movs	r1, #0
	movw	r2, #5226
	mov	r4, r9
.Ltmp415:
	.loc	12 102 17                       @ ../GUILib/src/widgets/lv_btnmatrix.c:102:17
	str.w	r9, [r6, #36]
.Ltmp416:
	@DEBUG_VALUE: lv_obj_get_style_base_dir:part <- 0
	@DEBUG_VALUE: lv_obj_get_style_base_dir:obj <- $r6
	.loc	18 189 26                       @ ../GUILib/src/widgets/../core/lv_obj_style_gen.h:189:26
	bl	lv_obj_get_style_prop
.Ltmp417:
	mov	r7, r0
.Ltmp418:
	@DEBUG_VALUE: lv_obj_get_style_pad_left:part <- 0
	@DEBUG_VALUE: lv_obj_get_style_pad_left:obj <- $r6
	@DEBUG_VALUE: lv_btnmatrix_set_map:base_dir <- [DW_OP_LLVM_convert 32 7, DW_OP_LLVM_convert 8 7, DW_OP_stack_value] $r7
	@DEBUG_VALUE: lv_obj_get_style_base_dir:v <- $r7
	.loc	18 105 26                       @ ../GUILib/src/widgets/../core/lv_obj_style_gen.h:105:26
	mov	r0, r6
	movs	r1, #0
	movw	r2, #6162
	bl	lv_obj_get_style_prop
.Ltmp419:
	str	r0, [sp, #16]                   @ 4-byte Spill
.Ltmp420:
	@DEBUG_VALUE: lv_obj_get_style_pad_top:part <- 0
	@DEBUG_VALUE: lv_obj_get_style_pad_top:obj <- $r6
	@DEBUG_VALUE: lv_btnmatrix_set_map:pleft <- [DW_OP_plus_uconst 16, DW_OP_deref_size 4, DW_OP_LLVM_convert 32 7, DW_OP_LLVM_convert 16 7, DW_OP_stack_value] $sp
	@DEBUG_VALUE: lv_obj_get_style_pad_left:v <- [DW_OP_plus_uconst 16] [$sp+0]
	.loc	18 93 26                        @ ../GUILib/src/widgets/../core/lv_obj_style_gen.h:93:26
	mov	r0, r6
	movs	r1, #0
	movw	r2, #6160
	bl	lv_obj_get_style_prop
.Ltmp421:
	str	r0, [sp, #20]                   @ 4-byte Spill
.Ltmp422:
	@DEBUG_VALUE: lv_obj_get_style_pad_row:part <- 0
	@DEBUG_VALUE: lv_obj_get_style_pad_row:obj <- $r6
	@DEBUG_VALUE: lv_btnmatrix_set_map:ptop <- [DW_OP_plus_uconst 20, DW_OP_deref_size 4, DW_OP_LLVM_convert 32 7, DW_OP_LLVM_convert 16 7, DW_OP_stack_value] $sp
	@DEBUG_VALUE: lv_obj_get_style_pad_top:v <- [DW_OP_plus_uconst 20] [$sp+0]
	.loc	18 117 26                       @ ../GUILib/src/widgets/../core/lv_obj_style_gen.h:117:26
	mov	r0, r6
	movs	r1, #0
	movw	r2, #6164
	bl	lv_obj_get_style_prop
.Ltmp423:
	mov	r8, r0
.Ltmp424:
	@DEBUG_VALUE: lv_obj_get_style_pad_column:part <- 0
	@DEBUG_VALUE: lv_obj_get_style_pad_column:obj <- $r6
	@DEBUG_VALUE: lv_btnmatrix_set_map:prow <- [DW_OP_LLVM_convert 32 7, DW_OP_LLVM_convert 16 7, DW_OP_stack_value] $r8
	@DEBUG_VALUE: lv_obj_get_style_pad_row:v <- $r8
	.loc	18 123 26                       @ ../GUILib/src/widgets/../core/lv_obj_style_gen.h:123:26
	mov	r0, r6
	movs	r1, #0
	movw	r2, #6165
	bl	lv_obj_get_style_prop
.Ltmp425:
	str	r0, [sp, #24]                   @ 4-byte Spill
.Ltmp426:
	@DEBUG_VALUE: lv_btnmatrix_set_map:pcol <- [DW_OP_plus_uconst 24, DW_OP_deref_size 4, DW_OP_LLVM_convert 32 7, DW_OP_LLVM_convert 16 7, DW_OP_stack_value] $sp
	@DEBUG_VALUE: lv_obj_get_style_pad_column:v <- [DW_OP_plus_uconst 24] [$sp+0]
	.loc	12 112 35                       @ ../GUILib/src/widgets/lv_btnmatrix.c:112:35
	mov	r0, r6
	bl	lv_obj_get_content_width
.Ltmp427:
	mov	r5, r0
.Ltmp428:
	@DEBUG_VALUE: lv_btnmatrix_set_map:max_w <- undef
	.loc	12 113 35                       @ ../GUILib/src/widgets/lv_btnmatrix.c:113:35
	mov	r0, r6
	bl	lv_obj_get_content_height
.Ltmp429:
	.loc	12 126 30                       @ ../GUILib/src/widgets/lv_btnmatrix.c:126:30
	ldrh	r2, [r6, #50]
.Ltmp430:
	.loc	12 126 5 is_stmt 0              @ ../GUILib/src/widgets/lv_btnmatrix.c:126:5
	cmp	r2, #0
.Ltmp431:
	@DEBUG_VALUE: lv_btnmatrix_set_map:row <- 0
	@DEBUG_VALUE: lv_btnmatrix_set_map:map_row <- $r4
	@DEBUG_VALUE: lv_btnmatrix_set_map:btn_tot_i <- 0
	@DEBUG_VALUE: lv_btnmatrix_set_map:txt_tot_i <- 0
	@DEBUG_VALUE: lv_btnmatrix_set_map:max_h_no_gap <- undef
	@DEBUG_VALUE: lv_btnmatrix_set_map:max_h <- undef
	beq.w	.LBB4_30
.Ltmp432:
@ %bb.16:
	@DEBUG_VALUE: lv_btnmatrix_set_map:map <- $r9
	@DEBUG_VALUE: lv_btnmatrix_set_map:prow <- [DW_OP_LLVM_convert 32 7, DW_OP_LLVM_convert 16 7, DW_OP_stack_value] $r8
	@DEBUG_VALUE: lv_btnmatrix_set_map:base_dir <- [DW_OP_LLVM_convert 32 7, DW_OP_LLVM_convert 8 7, DW_OP_stack_value] $r7
	@DEBUG_VALUE: lv_btnmatrix_set_map:map_row <- $r4
	@DEBUG_VALUE: lv_btnmatrix_set_map:pcol <- [DW_OP_plus_uconst 24, DW_OP_deref_size 4, DW_OP_LLVM_convert 32 7, DW_OP_LLVM_convert 16 7, DW_OP_stack_value] $sp
	@DEBUG_VALUE: lv_btnmatrix_set_map:ptop <- [DW_OP_plus_uconst 20, DW_OP_deref_size 4, DW_OP_LLVM_convert 32 7, DW_OP_LLVM_convert 16 7, DW_OP_stack_value] $sp
	@DEBUG_VALUE: lv_btnmatrix_set_map:pleft <- [DW_OP_plus_uconst 16, DW_OP_deref_size 4, DW_OP_LLVM_convert 32 7, DW_OP_LLVM_convert 16 7, DW_OP_stack_value] $sp
	@DEBUG_VALUE: lv_btnmatrix_set_map:txt_tot_i <- 0
	@DEBUG_VALUE: lv_btnmatrix_set_map:btn_tot_i <- 0
	@DEBUG_VALUE: lv_btnmatrix_set_map:row <- 0
	.loc	12 116 62 is_stmt 1             @ ../GUILib/src/widgets/lv_btnmatrix.c:116:62
	subs	r1, r2, #1
.Ltmp433:
	@DEBUG_VALUE: lv_btnmatrix_set_map:prow <- $r8
	.loc	12 116 37 is_stmt 0             @ ../GUILib/src/widgets/lv_btnmatrix.c:116:37
	mls	r0, r1, r8, r0
.Ltmp434:
	@DEBUG_VALUE: lv_btnmatrix_set_map:max_h_no_gap <- $r0
	@DEBUG_VALUE: lv_btnmatrix_set_map:base_dir <- [DW_OP_LLVM_convert 32 7, DW_OP_LLVM_convert 8 7, DW_OP_stack_value] $r7
	.loc	12 0 0                          @ ../GUILib/src/widgets/lv_btnmatrix.c:0:0
	sxth.w	r1, r8
	sxth	r0, r0
.Ltmp435:
	str	r1, [sp, #12]                   @ 4-byte Spill
	str	r0, [sp, #8]                    @ 4-byte Spill
	ldr	r0, [sp, #24]                   @ 4-byte Reload
	mov	r12, r5
	sxth	r3, r0
	mov.w	r10, #0
	uxtb	r1, r7
	mov	r0, r2
	movs	r7, #0
.Ltmp436:
	add.w	r12, sp, #52
	uxth.w	lr, r5
	str	r5, [sp, #64]                   @ 4-byte Spill
	stm.w	r12, {r1, r3, lr}               @ 12-byte Folded Spill
.Ltmp437:
	.p2align	2
.LBB4_17:                               @ =>This Loop Header: Depth=1
                                        @     Child Loop BB4_19 Depth 2
                                        @     Child Loop BB4_25 Depth 2
	@DEBUG_VALUE: lv_btnmatrix_set_map:map_row <- $r4
	@DEBUG_VALUE: lv_btnmatrix_set_map:pcol <- [DW_OP_plus_uconst 24, DW_OP_deref_size 4, DW_OP_LLVM_convert 32 7, DW_OP_LLVM_convert 16 7, DW_OP_stack_value] $sp
	@DEBUG_VALUE: lv_btnmatrix_set_map:ptop <- [DW_OP_plus_uconst 20, DW_OP_deref_size 4, DW_OP_LLVM_convert 32 7, DW_OP_LLVM_convert 16 7, DW_OP_stack_value] $sp
	@DEBUG_VALUE: lv_btnmatrix_set_map:pleft <- [DW_OP_plus_uconst 16, DW_OP_deref_size 4, DW_OP_LLVM_convert 32 7, DW_OP_LLVM_convert 16 7, DW_OP_stack_value] $sp
	@DEBUG_VALUE: lv_btnmatrix_set_map:txt_tot_i <- undef
	@DEBUG_VALUE: lv_btnmatrix_set_map:btn_tot_i <- $r10
	@DEBUG_VALUE: lv_btnmatrix_set_map:map_row <- $r4
	@DEBUG_VALUE: lv_btnmatrix_set_map:row <- $r7
	@DEBUG_VALUE: btn_cnt <- 0
	@DEBUG_VALUE: unit_cnt <- 0
	.loc	12 130 15 is_stmt 1             @ ../GUILib/src/widgets/lv_btnmatrix.c:130:15
	ldr	r5, [r4]
	str	r0, [sp, #40]                   @ 4-byte Spill
	.loc	12 130 32 is_stmt 0             @ ../GUILib/src/widgets/lv_btnmatrix.c:130:32
	cmp	r5, #0
	beq.w	.LBB4_28
.Ltmp438:
@ %bb.18:                               @   in Loop: Header=BB4_17 Depth=1
	@DEBUG_VALUE: lv_btnmatrix_set_map:btn_tot_i <- $r10
	@DEBUG_VALUE: lv_btnmatrix_set_map:row <- $r7
	@DEBUG_VALUE: lv_btnmatrix_set_map:map_row <- $r4
	@DEBUG_VALUE: lv_btnmatrix_set_map:pcol <- [DW_OP_plus_uconst 24, DW_OP_deref_size 4, DW_OP_LLVM_convert 32 7, DW_OP_LLVM_convert 16 7, DW_OP_stack_value] $sp
	@DEBUG_VALUE: lv_btnmatrix_set_map:ptop <- [DW_OP_plus_uconst 20, DW_OP_deref_size 4, DW_OP_LLVM_convert 32 7, DW_OP_LLVM_convert 16 7, DW_OP_stack_value] $sp
	@DEBUG_VALUE: lv_btnmatrix_set_map:pleft <- [DW_OP_plus_uconst 16, DW_OP_deref_size 4, DW_OP_LLVM_convert 32 7, DW_OP_LLVM_convert 16 7, DW_OP_stack_value] $sp
	@DEBUG_VALUE: unit_cnt <- 0
	@DEBUG_VALUE: btn_cnt <- 0
	.loc	12 0 32                         @ ../GUILib/src/widgets/lv_btnmatrix.c:0:32
	strd	r7, r2, [sp, #44]               @ 8-byte Folded Spill
	mov	r7, r1
.Ltmp439:
	mov.w	r8, #0
	mov.w	r9, #0
.Ltmp440:
	@DEBUG_VALUE: lv_btnmatrix_set_map:map <- [DW_OP_LLVM_entry_value 1] $r1
	mov.w	r11, #0
.Ltmp441:
	.p2align	2
.LBB4_19:                               @   Parent Loop BB4_17 Depth=1
                                        @ =>  This Inner Loop Header: Depth=2
	@DEBUG_VALUE: lv_btnmatrix_set_map:btn_tot_i <- $r10
	@DEBUG_VALUE: lv_btnmatrix_set_map:map_row <- $r4
	@DEBUG_VALUE: lv_btnmatrix_set_map:pcol <- [DW_OP_plus_uconst 24, DW_OP_deref_size 4, DW_OP_LLVM_convert 32 7, DW_OP_LLVM_convert 16 7, DW_OP_stack_value] $sp
	@DEBUG_VALUE: lv_btnmatrix_set_map:ptop <- [DW_OP_plus_uconst 20, DW_OP_deref_size 4, DW_OP_LLVM_convert 32 7, DW_OP_LLVM_convert 16 7, DW_OP_stack_value] $sp
	@DEBUG_VALUE: lv_btnmatrix_set_map:pleft <- [DW_OP_plus_uconst 16, DW_OP_deref_size 4, DW_OP_LLVM_convert 32 7, DW_OP_LLVM_convert 16 7, DW_OP_stack_value] $sp
	@DEBUG_VALUE: btn_cnt <- $r9
	@DEBUG_VALUE: unit_cnt <- $r11
	.loc	12 130 35                       @ ../GUILib/src/widgets/lv_btnmatrix.c:130:35
	movw	r1, :lower16:.L.str
	mov	r0, r5
	movt	r1, :upper16:.L.str
	bl	strcmp
.Ltmp442:
	.loc	12 130 71                       @ ../GUILib/src/widgets/lv_btnmatrix.c:130:71
	cbz	r0, .LBB4_22
.Ltmp443:
@ %bb.20:                               @   in Loop: Header=BB4_19 Depth=2
	@DEBUG_VALUE: unit_cnt <- $r11
	@DEBUG_VALUE: lv_btnmatrix_set_map:btn_tot_i <- $r10
	@DEBUG_VALUE: btn_cnt <- $r9
	@DEBUG_VALUE: lv_btnmatrix_set_map:map_row <- $r4
	@DEBUG_VALUE: lv_btnmatrix_set_map:pcol <- [DW_OP_plus_uconst 24, DW_OP_deref_size 4, DW_OP_LLVM_convert 32 7, DW_OP_LLVM_convert 16 7, DW_OP_stack_value] $sp
	@DEBUG_VALUE: lv_btnmatrix_set_map:ptop <- [DW_OP_plus_uconst 20, DW_OP_deref_size 4, DW_OP_LLVM_convert 32 7, DW_OP_LLVM_convert 16 7, DW_OP_stack_value] $sp
	@DEBUG_VALUE: lv_btnmatrix_set_map:pleft <- [DW_OP_plus_uconst 16, DW_OP_deref_size 4, DW_OP_LLVM_convert 32 7, DW_OP_LLVM_convert 16 7, DW_OP_stack_value] $sp
	.loc	12 130 74                       @ ../GUILib/src/widgets/lv_btnmatrix.c:130:74
	ldrb	r0, [r5]
	.loc	12 130 9                        @ ../GUILib/src/widgets/lv_btnmatrix.c:130:9
	cbz	r0, .LBB4_22
.Ltmp444:
@ %bb.21:                               @   in Loop: Header=BB4_19 Depth=2
	@DEBUG_VALUE: unit_cnt <- $r11
	@DEBUG_VALUE: lv_btnmatrix_set_map:btn_tot_i <- $r10
	@DEBUG_VALUE: btn_cnt <- $r9
	@DEBUG_VALUE: lv_btnmatrix_set_map:map_row <- $r4
	@DEBUG_VALUE: lv_btnmatrix_set_map:pcol <- [DW_OP_plus_uconst 24, DW_OP_deref_size 4, DW_OP_LLVM_convert 32 7, DW_OP_LLVM_convert 16 7, DW_OP_stack_value] $sp
	@DEBUG_VALUE: lv_btnmatrix_set_map:ptop <- [DW_OP_plus_uconst 20, DW_OP_deref_size 4, DW_OP_LLVM_convert 32 7, DW_OP_LLVM_convert 16 7, DW_OP_stack_value] $sp
	@DEBUG_VALUE: lv_btnmatrix_set_map:pleft <- [DW_OP_plus_uconst 16, DW_OP_deref_size 4, DW_OP_LLVM_convert 32 7, DW_OP_LLVM_convert 16 7, DW_OP_stack_value] $sp
	.loc	12 131 48 is_stmt 1             @ ../GUILib/src/widgets/lv_btnmatrix.c:131:48
	ldr	r0, [r6, #44]
	.loc	12 131 68 is_stmt 0             @ ../GUILib/src/widgets/lv_btnmatrix.c:131:68
	add.w	r1, r8, r10
	.loc	12 132 20 is_stmt 1             @ ../GUILib/src/widgets/lv_btnmatrix.c:132:20
	add.w	r9, r9, #1
.Ltmp445:
	@DEBUG_VALUE: btn_cnt <- $r9
	.loc	12 131 42                       @ ../GUILib/src/widgets/lv_btnmatrix.c:131:42
	ldrh.w	r0, [r0, r1, lsl #1]
.Ltmp446:
	@DEBUG_VALUE: get_button_width:ctrl_bits <- $r0
	.loc	12 130 15                       @ ../GUILib/src/widgets/lv_btnmatrix.c:130:15
	uxth.w	r8, r9
	ldr.w	r5, [r4, r8, lsl #2]
.Ltmp447:
	.loc	12 867 17                       @ ../GUILib/src/widgets/lv_btnmatrix.c:867:17
	ands	r0, r0, #7
.Ltmp448:
	@DEBUG_VALUE: get_button_width:w <- [DW_OP_LLVM_convert 16 7, DW_OP_LLVM_convert 32 7, DW_OP_stack_value] $r0
	.loc	12 131 25                       @ ../GUILib/src/widgets/lv_btnmatrix.c:131:25
	it	eq
	moveq	r0, #1
.Ltmp449:
	.loc	12 130 32                       @ ../GUILib/src/widgets/lv_btnmatrix.c:130:32
	cmp	r5, #0
.Ltmp450:
	.loc	12 131 22                       @ ../GUILib/src/widgets/lv_btnmatrix.c:131:22
	add	r11, r0
.Ltmp451:
	@DEBUG_VALUE: unit_cnt <- $r11
	.loc	12 130 32                       @ ../GUILib/src/widgets/lv_btnmatrix.c:130:32
	bne	.LBB4_19
.Ltmp452:
.LBB4_22:                               @   in Loop: Header=BB4_17 Depth=1
	@DEBUG_VALUE: unit_cnt <- $r11
	@DEBUG_VALUE: lv_btnmatrix_set_map:btn_tot_i <- $r10
	@DEBUG_VALUE: btn_cnt <- $r9
	@DEBUG_VALUE: lv_btnmatrix_set_map:map_row <- $r4
	@DEBUG_VALUE: lv_btnmatrix_set_map:pcol <- [DW_OP_plus_uconst 24, DW_OP_deref_size 4, DW_OP_LLVM_convert 32 7, DW_OP_LLVM_convert 16 7, DW_OP_stack_value] $sp
	@DEBUG_VALUE: lv_btnmatrix_set_map:ptop <- [DW_OP_plus_uconst 20, DW_OP_deref_size 4, DW_OP_LLVM_convert 32 7, DW_OP_LLVM_convert 16 7, DW_OP_stack_value] $sp
	@DEBUG_VALUE: lv_btnmatrix_set_map:pleft <- [DW_OP_plus_uconst 16, DW_OP_deref_size 4, DW_OP_LLVM_convert 32 7, DW_OP_LLVM_convert 16 7, DW_OP_stack_value] $sp
	.loc	12 0 32 is_stmt 0               @ ../GUILib/src/widgets/lv_btnmatrix.c:0:32
	ldr.w	r12, [sp, #64]                  @ 4-byte Reload
	ldrd	r3, lr, [sp, #56]               @ 8-byte Folded Reload
	mov	r1, r7
	ldrd	r7, r2, [sp, #44]               @ 8-byte Folded Reload
	.loc	12 136 12 is_stmt 1             @ ../GUILib/src/widgets/lv_btnmatrix.c:136:12
	lsls.w	r0, r9, #16
	beq	.LBB4_28
.Ltmp453:
@ %bb.23:                               @   in Loop: Header=BB4_17 Depth=1
	@DEBUG_VALUE: unit_cnt <- $r11
	@DEBUG_VALUE: lv_btnmatrix_set_map:btn_tot_i <- $r10
	@DEBUG_VALUE: btn_cnt <- $r9
	@DEBUG_VALUE: lv_btnmatrix_set_map:map_row <- $r4
	@DEBUG_VALUE: lv_btnmatrix_set_map:pcol <- [DW_OP_plus_uconst 24, DW_OP_deref_size 4, DW_OP_LLVM_convert 32 7, DW_OP_LLVM_convert 16 7, DW_OP_stack_value] $sp
	@DEBUG_VALUE: lv_btnmatrix_set_map:ptop <- [DW_OP_plus_uconst 20, DW_OP_deref_size 4, DW_OP_LLVM_convert 32 7, DW_OP_LLVM_convert 16 7, DW_OP_stack_value] $sp
	@DEBUG_VALUE: lv_btnmatrix_set_map:pleft <- [DW_OP_plus_uconst 16, DW_OP_deref_size 4, DW_OP_LLVM_convert 32 7, DW_OP_LLVM_convert 16 7, DW_OP_stack_value] $sp
	@DEBUG_VALUE: row_y1 <- [DW_OP_LLVM_convert 32 7, DW_OP_LLVM_convert 16 7, DW_OP_stack_value] undef
	.loc	12 150 9                        @ ../GUILib/src/widgets/lv_btnmatrix.c:150:9
	cmp.w	r8, #0
.Ltmp454:
	.loc	12 142 57                       @ ../GUILib/src/widgets/lv_btnmatrix.c:142:57
	add.w	r5, r7, #1
.Ltmp455:
	@DEBUG_VALUE: btn <- 0
	@DEBUG_VALUE: row_unit_cnt <- 0
	@DEBUG_VALUE: max_w_no_gap <- undef
	@DEBUG_VALUE: row_y2 <- undef
	@DEBUG_VALUE: lv_btnmatrix_set_map:btn_tot_i <- $r10
	@DEBUG_VALUE: lv_btnmatrix_set_map:txt_tot_i <- undef
	.loc	12 150 9                        @ ../GUILib/src/widgets/lv_btnmatrix.c:150:9
	beq	.LBB4_27
.Ltmp456:
@ %bb.24:                               @   in Loop: Header=BB4_17 Depth=1
	@DEBUG_VALUE: unit_cnt <- $r11
	@DEBUG_VALUE: lv_btnmatrix_set_map:btn_tot_i <- $r10
	@DEBUG_VALUE: btn_cnt <- $r9
	@DEBUG_VALUE: lv_btnmatrix_set_map:map_row <- $r4
	@DEBUG_VALUE: lv_btnmatrix_set_map:pcol <- [DW_OP_plus_uconst 24, DW_OP_deref_size 4, DW_OP_LLVM_convert 32 7, DW_OP_LLVM_convert 16 7, DW_OP_stack_value] $sp
	@DEBUG_VALUE: lv_btnmatrix_set_map:ptop <- [DW_OP_plus_uconst 20, DW_OP_deref_size 4, DW_OP_LLVM_convert 32 7, DW_OP_LLVM_convert 16 7, DW_OP_stack_value] $sp
	@DEBUG_VALUE: lv_btnmatrix_set_map:pleft <- [DW_OP_plus_uconst 16, DW_OP_deref_size 4, DW_OP_LLVM_convert 32 7, DW_OP_LLVM_convert 16 7, DW_OP_stack_value] $sp
	@DEBUG_VALUE: row_unit_cnt <- 0
	@DEBUG_VALUE: btn <- 0
	.loc	12 0 9 is_stmt 0                @ ../GUILib/src/widgets/lv_btnmatrix.c:0:9
	strd	r4, r5, [sp, #28]               @ 8-byte Folded Spill
	ldr	r5, [sp, #8]                    @ 4-byte Reload
	ldr	r1, [sp, #20]                   @ 4-byte Reload
	ldr	r2, [sp, #12]                   @ 4-byte Reload
	ldr	r4, [sp, #40]                   @ 4-byte Reload
.Ltmp457:
	mul	r0, r7, r5
	mla	r1, r7, r2, r1
	ldr	r2, [sp, #32]                   @ 4-byte Reload
	udiv	r0, r0, r4
	muls	r2, r5, r2
	udiv	r2, r2, r4
	add	r0, r1
.Ltmp458:
	@DEBUG_VALUE: row_y1 <- [DW_OP_LLVM_convert 32 7, DW_OP_LLVM_convert 16 7, DW_OP_stack_value] $r0
	str	r0, [sp, #48]                   @ 4-byte Spill
.Ltmp459:
	@DEBUG_VALUE: row_y1 <- [DW_OP_plus_uconst 48, DW_OP_LLVM_convert 32 7, DW_OP_LLVM_convert 16 7, DW_OP_stack_value] [$sp+0]
	@DEBUG_VALUE: row_y1 <- [DW_OP_plus_uconst 48, DW_OP_LLVM_convert 32 7, DW_OP_LLVM_convert 16 7, DW_OP_stack_value] [$sp+0]
	@DEBUG_VALUE: row_y1 <- [DW_OP_plus_uconst 48, DW_OP_deref_size 4, DW_OP_LLVM_convert 32 7, DW_OP_LLVM_convert 16 7, DW_OP_stack_value] $sp
	adds	r0, r1, r2
	ldr	r2, [sp, #24]                   @ 4-byte Reload
	sub.w	r1, r9, #1
	mls	r1, r1, r2, r12
	subs	r0, #1
.Ltmp460:
	@DEBUG_VALUE: row_y2 <- $r0
	str	r0, [sp, #44]                   @ 4-byte Spill
.Ltmp461:
	@DEBUG_VALUE: row_y2 <- [DW_OP_plus_uconst 44] [$sp+0]
	@DEBUG_VALUE: row_y2 <- [DW_OP_plus_uconst 44] [$sp+0]
	@DEBUG_VALUE: row_y2 <- [DW_OP_plus_uconst 44] [$sp+0]
	sxth	r0, r1
	.loc	12 146 12 is_stmt 1             @ ../GUILib/src/widgets/lv_btnmatrix.c:146:12
	bic.w	r0, r0, r0, asr #31
.Ltmp462:
	@DEBUG_VALUE: max_w_no_gap <- $r0
	.loc	12 0 12 is_stmt 0               @ ../GUILib/src/widgets/lv_btnmatrix.c:0:12
	uxth	r0, r0
.Ltmp463:
	str	r0, [sp, #40]                   @ 4-byte Spill
	uxth.w	r0, r11
.Ltmp464:
	.loc	12 150 9 is_stmt 1              @ ../GUILib/src/widgets/lv_btnmatrix.c:150:9
	str	r0, [sp, #36]                   @ 4-byte Spill
	ldr.w	r11, [sp, #16]                  @ 4-byte Reload
.Ltmp465:
	lsl.w	r4, r10, #3
	mov	r9, r6
.Ltmp466:
	.loc	12 0 9 is_stmt 0                @ ../GUILib/src/widgets/lv_btnmatrix.c:0:9
	movs	r6, #0
	mov	r7, r8
	movs	r5, #0
.Ltmp467:
	.p2align	2
.LBB4_25:                               @   Parent Loop BB4_17 Depth=1
                                        @ =>  This Inner Loop Header: Depth=2
	@DEBUG_VALUE: lv_btnmatrix_set_map:btn_tot_i <- $r10
	@DEBUG_VALUE: row_y2 <- [DW_OP_plus_uconst 44] [$sp+0]
	@DEBUG_VALUE: row_y1 <- [DW_OP_plus_uconst 48, DW_OP_deref_size 4, DW_OP_LLVM_convert 32 7, DW_OP_LLVM_convert 16 7, DW_OP_stack_value] $sp
	@DEBUG_VALUE: lv_btnmatrix_set_map:pcol <- [DW_OP_plus_uconst 24, DW_OP_deref_size 4, DW_OP_LLVM_convert 32 7, DW_OP_LLVM_convert 16 7, DW_OP_stack_value] $sp
	@DEBUG_VALUE: lv_btnmatrix_set_map:ptop <- [DW_OP_plus_uconst 20, DW_OP_deref_size 4, DW_OP_LLVM_convert 32 7, DW_OP_LLVM_convert 16 7, DW_OP_stack_value] $sp
	@DEBUG_VALUE: lv_btnmatrix_set_map:pleft <- [DW_OP_plus_uconst 16, DW_OP_deref_size 4, DW_OP_LLVM_convert 32 7, DW_OP_LLVM_convert 16 7, DW_OP_stack_value] $sp
	@DEBUG_VALUE: lv_btnmatrix_set_map:txt_tot_i <- undef
	@DEBUG_VALUE: lv_btnmatrix_set_map:btn_tot_i <- $r10
	@DEBUG_VALUE: row_unit_cnt <- $r5
	@DEBUG_VALUE: btn <- $r6
	.loc	12 151 53 is_stmt 1             @ ../GUILib/src/widgets/lv_btnmatrix.c:151:53
	ldr.w	r0, [r9, #44]
	.loc	12 151 47 is_stmt 0             @ ../GUILib/src/widgets/lv_btnmatrix.c:151:47
	ldrh.w	r0, [r0, r10, lsl #1]
.Ltmp468:
	@DEBUG_VALUE: get_button_width:ctrl_bits <- undef
	.loc	12 867 17 is_stmt 1             @ ../GUILib/src/widgets/lv_btnmatrix.c:867:17
	ands	r0, r0, #7
.Ltmp469:
	@DEBUG_VALUE: get_button_width:w <- [DW_OP_LLVM_convert 16 7, DW_OP_LLVM_convert 32 7, DW_OP_stack_value] $r0
	.loc	12 151 30                       @ ../GUILib/src/widgets/lv_btnmatrix.c:151:30
	it	eq
	moveq	r0, #1
.Ltmp470:
	@DEBUG_VALUE: btn_u <- undef
	.loc	12 0 30 is_stmt 0               @ ../GUILib/src/widgets/lv_btnmatrix.c:0:30
	ldr	r2, [sp, #40]                   @ 4-byte Reload
	.loc	12 153 47 is_stmt 1             @ ../GUILib/src/widgets/lv_btnmatrix.c:153:47
	mul	r1, r5, r2
	.loc	12 154 63                       @ ../GUILib/src/widgets/lv_btnmatrix.c:154:63
	add	r5, r0
.Ltmp471:
	.loc	12 154 47 is_stmt 0             @ ../GUILib/src/widgets/lv_btnmatrix.c:154:47
	mul	r0, r5, r2
	ldr	r2, [sp, #36]                   @ 4-byte Reload
	.loc	12 154 73                       @ ../GUILib/src/widgets/lv_btnmatrix.c:154:73
	udiv	r0, r0, r2
	.loc	12 153 63 is_stmt 1             @ ../GUILib/src/widgets/lv_btnmatrix.c:153:63
	udiv	r1, r1, r2
	.loc	12 154 84                       @ ../GUILib/src/widgets/lv_btnmatrix.c:154:84
	mla	r0, r6, r3, r0
	.loc	12 153 74                       @ ../GUILib/src/widgets/lv_btnmatrix.c:153:74
	mla	r1, r6, r3, r1
.Ltmp472:
	@DEBUG_VALUE: btn_x1 <- [DW_OP_LLVM_convert 32 7, DW_OP_LLVM_convert 16 7, DW_OP_stack_value] $r1
	.loc	12 157 16                       @ ../GUILib/src/widgets/lv_btnmatrix.c:157:16
	ldr	r2, [sp, #52]                   @ 4-byte Reload
	.loc	12 154 33                       @ ../GUILib/src/widgets/lv_btnmatrix.c:154:33
	subs	r0, #1
.Ltmp473:
	@DEBUG_VALUE: btn_x2 <- $r0
	.loc	12 157 16                       @ ../GUILib/src/widgets/lv_btnmatrix.c:157:16
	cmp	r2, #1
	mov	r2, r1
	itt	eq
	subeq.w	r2, lr, r0
	subeq.w	r0, r12, r1
.Ltmp474:
	@DEBUG_VALUE: btn_x2 <- $r0
	@DEBUG_VALUE: btn_x1 <- undef
	.loc	12 169 32                       @ ../GUILib/src/widgets/lv_btnmatrix.c:169:32
	ldr.w	r1, [r9, #40]
	.loc	12 167 20                       @ ../GUILib/src/widgets/lv_btnmatrix.c:167:20
	add.w	r3, r0, r11
.Ltmp475:
	@DEBUG_VALUE: btn_x2 <- $r3
	.loc	12 169 13                       @ ../GUILib/src/widgets/lv_btnmatrix.c:169:13
	adds	r0, r1, r4
	ldr	r1, [sp, #44]                   @ 4-byte Reload
	.loc	12 166 20                       @ ../GUILib/src/widgets/lv_btnmatrix.c:166:20
	add	r2, r11
.Ltmp476:
	@DEBUG_VALUE: btn_x1 <- $r2
	.loc	12 169 13                       @ ../GUILib/src/widgets/lv_btnmatrix.c:169:13
	sxth.w	r12, r1
	sxth	r1, r2
	ldr	r2, [sp, #48]                   @ 4-byte Reload
.Ltmp477:
	sxth	r3, r3
.Ltmp478:
	sxth	r2, r2
	str.w	r12, [sp]
	bl	lv_area_set
.Ltmp479:
	.loc	12 0 13 is_stmt 0               @ ../GUILib/src/widgets/lv_btnmatrix.c:0:13
	ldrd	r3, lr, [sp, #56]               @ 8-byte Folded Reload
	ldr.w	r12, [sp, #64]                  @ 4-byte Reload
.Ltmp480:
	@DEBUG_VALUE: row_unit_cnt <- undef
	.loc	12 150 40 is_stmt 1             @ ../GUILib/src/widgets/lv_btnmatrix.c:150:40
	adds	r6, #1
.Ltmp481:
	@DEBUG_VALUE: btn <- $r6
	.loc	12 150 53 is_stmt 0             @ ../GUILib/src/widgets/lv_btnmatrix.c:150:53
	add.w	r10, r10, #1
.Ltmp482:
	@DEBUG_VALUE: lv_btnmatrix_set_map:btn_tot_i <- $r10
	@DEBUG_VALUE: lv_btnmatrix_set_map:txt_tot_i <- [DW_OP_plus_uconst 1, DW_OP_stack_value] undef
	.loc	12 150 26                       @ ../GUILib/src/widgets/lv_btnmatrix.c:150:26
	subs	r7, #1
	add.w	r4, r4, #8
.Ltmp483:
	.loc	12 150 9                        @ ../GUILib/src/widgets/lv_btnmatrix.c:150:9
	bne	.LBB4_25
.Ltmp484:
@ %bb.26:                               @   in Loop: Header=BB4_17 Depth=1
	@DEBUG_VALUE: lv_btnmatrix_set_map:btn_tot_i <- $r10
	@DEBUG_VALUE: lv_btnmatrix_set_map:pcol <- [DW_OP_plus_uconst 24, DW_OP_deref_size 4, DW_OP_LLVM_convert 32 7, DW_OP_LLVM_convert 16 7, DW_OP_stack_value] $sp
	@DEBUG_VALUE: lv_btnmatrix_set_map:ptop <- [DW_OP_plus_uconst 20, DW_OP_deref_size 4, DW_OP_LLVM_convert 32 7, DW_OP_LLVM_convert 16 7, DW_OP_stack_value] $sp
	@DEBUG_VALUE: lv_btnmatrix_set_map:pleft <- [DW_OP_plus_uconst 16, DW_OP_deref_size 4, DW_OP_LLVM_convert 32 7, DW_OP_LLVM_convert 16 7, DW_OP_stack_value] $sp
	.loc	12 126 30 is_stmt 1             @ ../GUILib/src/widgets/lv_btnmatrix.c:126:30
	ldrh.w	r2, [r9, #50]
	ldr	r1, [sp, #52]                   @ 4-byte Reload
	ldrd	r4, r5, [sp, #28]               @ 8-byte Folded Reload
	mov	r6, r9
.Ltmp485:
.LBB4_27:                               @   in Loop: Header=BB4_17 Depth=1
	@DEBUG_VALUE: lv_btnmatrix_set_map:btn_tot_i <- $r10
	@DEBUG_VALUE: lv_btnmatrix_set_map:pcol <- [DW_OP_plus_uconst 24, DW_OP_deref_size 4, DW_OP_LLVM_convert 32 7, DW_OP_LLVM_convert 16 7, DW_OP_stack_value] $sp
	@DEBUG_VALUE: lv_btnmatrix_set_map:ptop <- [DW_OP_plus_uconst 20, DW_OP_deref_size 4, DW_OP_LLVM_convert 32 7, DW_OP_LLVM_convert 16 7, DW_OP_stack_value] $sp
	@DEBUG_VALUE: lv_btnmatrix_set_map:pleft <- [DW_OP_plus_uconst 16, DW_OP_deref_size 4, DW_OP_LLVM_convert 32 7, DW_OP_LLVM_convert 16 7, DW_OP_stack_value] $sp
	.loc	12 174 20                       @ ../GUILib/src/widgets/lv_btnmatrix.c:174:20
	add.w	r0, r4, r8, lsl #2
	adds	r4, r0, #4
.Ltmp486:
	@DEBUG_VALUE: lv_btnmatrix_set_map:map_row <- $r4
	.loc	12 126 42                       @ ../GUILib/src/widgets/lv_btnmatrix.c:126:42
	mov	r7, r5
	b	.LBB4_29
.Ltmp487:
	.p2align	2
.LBB4_28:                               @   in Loop: Header=BB4_17 Depth=1
	@DEBUG_VALUE: lv_btnmatrix_set_map:btn_tot_i <- $r10
	@DEBUG_VALUE: lv_btnmatrix_set_map:map_row <- $r4
	@DEBUG_VALUE: lv_btnmatrix_set_map:pcol <- [DW_OP_plus_uconst 24, DW_OP_deref_size 4, DW_OP_LLVM_convert 32 7, DW_OP_LLVM_convert 16 7, DW_OP_stack_value] $sp
	@DEBUG_VALUE: lv_btnmatrix_set_map:ptop <- [DW_OP_plus_uconst 20, DW_OP_deref_size 4, DW_OP_LLVM_convert 32 7, DW_OP_LLVM_convert 16 7, DW_OP_stack_value] $sp
	@DEBUG_VALUE: lv_btnmatrix_set_map:pleft <- [DW_OP_plus_uconst 16, DW_OP_deref_size 4, DW_OP_LLVM_convert 32 7, DW_OP_LLVM_convert 16 7, DW_OP_stack_value] $sp
	.loc	12 137 24                       @ ../GUILib/src/widgets/lv_btnmatrix.c:137:24
	adds	r4, #4
.Ltmp488:
	@DEBUG_VALUE: lv_btnmatrix_set_map:map_row <- $r4
	.loc	12 126 42                       @ ../GUILib/src/widgets/lv_btnmatrix.c:126:42
	adds	r7, #1
.Ltmp489:
.LBB4_29:                               @   in Loop: Header=BB4_17 Depth=1
	@DEBUG_VALUE: lv_btnmatrix_set_map:btn_tot_i <- $r10
	@DEBUG_VALUE: lv_btnmatrix_set_map:map_row <- $r4
	@DEBUG_VALUE: lv_btnmatrix_set_map:pcol <- [DW_OP_plus_uconst 24, DW_OP_deref_size 4, DW_OP_LLVM_convert 32 7, DW_OP_LLVM_convert 16 7, DW_OP_stack_value] $sp
	@DEBUG_VALUE: lv_btnmatrix_set_map:ptop <- [DW_OP_plus_uconst 20, DW_OP_deref_size 4, DW_OP_LLVM_convert 32 7, DW_OP_LLVM_convert 16 7, DW_OP_stack_value] $sp
	@DEBUG_VALUE: lv_btnmatrix_set_map:pleft <- [DW_OP_plus_uconst 16, DW_OP_deref_size 4, DW_OP_LLVM_convert 32 7, DW_OP_LLVM_convert 16 7, DW_OP_stack_value] $sp
	@DEBUG_VALUE: lv_btnmatrix_set_map:txt_tot_i <- undef
	@DEBUG_VALUE: lv_btnmatrix_set_map:btn_tot_i <- $r10
	@DEBUG_VALUE: lv_btnmatrix_set_map:map_row <- $r4
	@DEBUG_VALUE: lv_btnmatrix_set_map:row <- $r7
	.loc	12 126 24 is_stmt 0             @ ../GUILib/src/widgets/lv_btnmatrix.c:126:24
	uxth	r0, r2
.Ltmp490:
	.loc	12 126 5                        @ ../GUILib/src/widgets/lv_btnmatrix.c:126:5
	cmp	r7, r0
	blo.w	.LBB4_17
.Ltmp491:
.LBB4_30:
	@DEBUG_VALUE: lv_btnmatrix_set_map:map_row <- $r4
	@DEBUG_VALUE: lv_btnmatrix_set_map:pcol <- [DW_OP_plus_uconst 24, DW_OP_deref_size 4, DW_OP_LLVM_convert 32 7, DW_OP_LLVM_convert 16 7, DW_OP_stack_value] $sp
	@DEBUG_VALUE: lv_btnmatrix_set_map:ptop <- [DW_OP_plus_uconst 20, DW_OP_deref_size 4, DW_OP_LLVM_convert 32 7, DW_OP_LLVM_convert 16 7, DW_OP_stack_value] $sp
	@DEBUG_VALUE: lv_btnmatrix_set_map:pleft <- [DW_OP_plus_uconst 16, DW_OP_deref_size 4, DW_OP_LLVM_convert 32 7, DW_OP_LLVM_convert 16 7, DW_OP_stack_value] $sp
	.loc	12 179 5 is_stmt 1              @ ../GUILib/src/widgets/lv_btnmatrix.c:179:5
	mov	r0, r6
	bl	lv_obj_refresh_ext_draw_size
.Ltmp492:
	.loc	12 181 5                        @ ../GUILib/src/widgets/lv_btnmatrix.c:181:5
	mov	r0, r6
	add	sp, #68
	pop.w	{r4, r5, r6, r7, r8, r9, r10, r11, lr}
.Ltmp493:
	b	lv_obj_invalidate
.Ltmp494:
	.p2align	2
.LBB4_31:                               @ =>This Inner Loop Header: Depth=1
	@DEBUG_VALUE: lv_btnmatrix_set_map:map <- $r9
	.loc	12 850 5                        @ ../GUILib/src/widgets/lv_btnmatrix.c:850:5
	b	.LBB4_31
.Ltmp495:
	.p2align	2
.LBB4_32:                               @ =>This Inner Loop Header: Depth=1
	@DEBUG_VALUE: lv_btnmatrix_set_map:map <- $r9
	.loc	12 852 5                        @ ../GUILib/src/widgets/lv_btnmatrix.c:852:5
	b	.LBB4_32
.Ltmp496:
.Lfunc_end4:
	.size	lv_btnmatrix_set_map, .Lfunc_end4-lv_btnmatrix_set_map
	.cfi_endproc
	.file	26 "C:\\Users\\Hyacincher\\Desktop\\HyTelectrl\\Code\\Project" "../GUILib/src/widgets/../core/lv_obj_pos.h"
	.cantunwind
	.fnend
                                        @ -- End function
	.section	.text.lv_btnmatrix_set_ctrl_map,"ax",%progbits
	.hidden	lv_btnmatrix_set_ctrl_map       @ -- Begin function lv_btnmatrix_set_ctrl_map
	.globl	lv_btnmatrix_set_ctrl_map
	.p2align	1
	.type	lv_btnmatrix_set_ctrl_map,%function
	.code	16                              @ @lv_btnmatrix_set_ctrl_map
	.thumb_func
lv_btnmatrix_set_ctrl_map:
.Lfunc_begin5:
	.loc	12 185 0                        @ ../GUILib/src/widgets/lv_btnmatrix.c:185:0
	.fnstart
	.cfi_startproc
@ %bb.0:
	@DEBUG_VALUE: lv_btnmatrix_set_ctrl_map:obj <- $r0
	@DEBUG_VALUE: lv_btnmatrix_set_ctrl_map:ctrl_map <- $r1
	.save	{r4, lr}
	push	{r4, lr}
	.cfi_def_cfa_offset 8
	.cfi_offset lr, -4
	.cfi_offset r4, -8
.Ltmp497:
	@DEBUG_VALUE: lv_btnmatrix_set_ctrl_map:btnm <- $r0
	.loc	12 189 78 prologue_end          @ ../GUILib/src/widgets/lv_btnmatrix.c:189:78
	ldrh	r2, [r0, #48]
	mov	r4, r0
.Ltmp498:
	@DEBUG_VALUE: lv_btnmatrix_set_ctrl_map:btnm <- $r4
	@DEBUG_VALUE: lv_btnmatrix_set_ctrl_map:ctrl_map <- $r1
	@DEBUG_VALUE: lv_btnmatrix_set_ctrl_map:obj <- $r4
	.loc	12 189 21 is_stmt 0             @ ../GUILib/src/widgets/lv_btnmatrix.c:189:21
	ldr	r0, [r0, #44]
	.loc	12 189 70                       @ ../GUILib/src/widgets/lv_btnmatrix.c:189:70
	lsls	r2, r2, #1
	@DEBUG_VALUE: lv_btnmatrix_set_ctrl_map:ctrl_map <- $r1
	.loc	12 189 5                        @ ../GUILib/src/widgets/lv_btnmatrix.c:189:5
	bl	lv_memcpy
.Ltmp499:
	@DEBUG_VALUE: lv_btnmatrix_set_ctrl_map:ctrl_map <- [DW_OP_LLVM_entry_value 1] $r1
	.loc	12 191 37 is_stmt 1             @ ../GUILib/src/widgets/lv_btnmatrix.c:191:37
	ldr	r1, [r4, #36]
	.loc	12 191 5 is_stmt 0              @ ../GUILib/src/widgets/lv_btnmatrix.c:191:5
	mov	r0, r4
	pop.w	{r4, lr}
.Ltmp500:
	b	lv_btnmatrix_set_map
.Ltmp501:
.Lfunc_end5:
	.size	lv_btnmatrix_set_ctrl_map, .Lfunc_end5-lv_btnmatrix_set_ctrl_map
	.cfi_endproc
	.cantunwind
	.fnend
                                        @ -- End function
	.section	.text.lv_btnmatrix_set_selected_btn,"ax",%progbits
	.hidden	lv_btnmatrix_set_selected_btn   @ -- Begin function lv_btnmatrix_set_selected_btn
	.globl	lv_btnmatrix_set_selected_btn
	.p2align	1
	.type	lv_btnmatrix_set_selected_btn,%function
	.code	16                              @ @lv_btnmatrix_set_selected_btn
	.thumb_func
lv_btnmatrix_set_selected_btn:
.Lfunc_begin6:
	.loc	12 195 0 is_stmt 1              @ ../GUILib/src/widgets/lv_btnmatrix.c:195:0
	.fnstart
	.cfi_startproc
@ %bb.0:
	@DEBUG_VALUE: lv_btnmatrix_set_selected_btn:obj <- $r0
	@DEBUG_VALUE: lv_btnmatrix_set_selected_btn:btn_id <- $r1
	.save	{r4, r5, r7, lr}
	push	{r4, r5, r7, lr}
	.cfi_def_cfa_offset 16
	.cfi_offset lr, -4
	.cfi_offset r7, -8
	.cfi_offset r5, -12
	.cfi_offset r4, -16
.Ltmp502:
	@DEBUG_VALUE: lv_btnmatrix_set_selected_btn:btnm <- $r0
	mov	r4, r1
.Ltmp503:
	@DEBUG_VALUE: lv_btnmatrix_set_selected_btn:btn_id <- $r4
	movw	r1, #65535
	@DEBUG_VALUE: lv_btnmatrix_set_selected_btn:btn_id <- $r4
.Ltmp504:
	.loc	12 200 32 prologue_end          @ ../GUILib/src/widgets/lv_btnmatrix.c:200:32
	cmp	r4, r1
	mov	r5, r0
.Ltmp505:
	@DEBUG_VALUE: lv_btnmatrix_set_selected_btn:obj <- $r5
	@DEBUG_VALUE: lv_btnmatrix_set_selected_btn:btnm <- $r5
	@DEBUG_VALUE: lv_btnmatrix_set_selected_btn:obj <- $r5
	beq	.LBB6_2
.Ltmp506:
@ %bb.1:
	@DEBUG_VALUE: lv_btnmatrix_set_selected_btn:btnm <- $r5
	@DEBUG_VALUE: lv_btnmatrix_set_selected_btn:obj <- $r5
	@DEBUG_VALUE: lv_btnmatrix_set_selected_btn:btn_id <- $r4
	.loc	12 0 0 is_stmt 0                @ ../GUILib/src/widgets/lv_btnmatrix.c:0:0
	ldrh	r0, [r5, #48]
	.loc	12 200 32                       @ ../GUILib/src/widgets/lv_btnmatrix.c:200:32
	cmp	r0, r4
.Ltmp507:
	.loc	12 205 1 is_stmt 1              @ ../GUILib/src/widgets/lv_btnmatrix.c:205:1
	it	ls
	popls	{r4, r5, r7, pc}
.Ltmp508:
.LBB6_2:
	.loc	12 202 39                       @ ../GUILib/src/widgets/lv_btnmatrix.c:202:39
	ldrh	r1, [r5, #52]
	.loc	12 202 5 is_stmt 0              @ ../GUILib/src/widgets/lv_btnmatrix.c:202:5
	mov	r0, r5
	bl	invalidate_button_area
.Ltmp509:
	.loc	12 204 5 is_stmt 1              @ ../GUILib/src/widgets/lv_btnmatrix.c:204:5
	mov	r0, r5
	mov	r1, r4
	.loc	12 203 22                       @ ../GUILib/src/widgets/lv_btnmatrix.c:203:22
	strh	r4, [r5, #52]
	.loc	12 204 5                        @ ../GUILib/src/widgets/lv_btnmatrix.c:204:5
	pop.w	{r4, r5, r7, lr}
.Ltmp510:
	b	invalidate_button_area
.Ltmp511:
.Lfunc_end6:
	.size	lv_btnmatrix_set_selected_btn, .Lfunc_end6-lv_btnmatrix_set_selected_btn
	.cfi_endproc
	.cantunwind
	.fnend
                                        @ -- End function
	.section	.text.invalidate_button_area,"ax",%progbits
	.p2align	1                               @ -- Begin function invalidate_button_area
	.type	invalidate_button_area,%function
	.code	16                              @ @invalidate_button_area
	.thumb_func
invalidate_button_area:
.Lfunc_begin7:
	.loc	12 975 0                        @ ../GUILib/src/widgets/lv_btnmatrix.c:975:0
	.fnstart
	.cfi_startproc
@ %bb.0:
	@DEBUG_VALUE: invalidate_button_area:obj <- $r0
	@DEBUG_VALUE: invalidate_button_area:btn_idx <- $r1
	.save	{r4, r5, r6, r7, r8, r9, r10, r11, lr}
	push.w	{r4, r5, r6, r7, r8, r9, r10, r11, lr}
	.cfi_def_cfa_offset 36
	.cfi_offset lr, -4
	.cfi_offset r11, -8
	.cfi_offset r10, -12
	.cfi_offset r9, -16
	.cfi_offset r8, -20
	.cfi_offset r7, -24
	.cfi_offset r6, -28
	.cfi_offset r5, -32
	.cfi_offset r4, -36
	.pad	#28
	sub	sp, #28
	.cfi_def_cfa_offset 64
	mov	r5, r1
.Ltmp512:
	@DEBUG_VALUE: invalidate_button_area:btn_idx <- $r5
	movw	r1, #65535
	@DEBUG_VALUE: invalidate_button_area:btn_idx <- $r5
.Ltmp513:
	.loc	12 976 8 prologue_end           @ ../GUILib/src/widgets/lv_btnmatrix.c:976:8
	cmp	r5, r1
	@DEBUG_VALUE: invalidate_button_area:obj <- $r0
	beq	.LBB7_4
.Ltmp514:
@ %bb.1:
	@DEBUG_VALUE: invalidate_button_area:btn_idx <- $r5
	@DEBUG_VALUE: invalidate_button_area:obj <- $r0
	.loc	12 0 8 is_stmt 0                @ ../GUILib/src/widgets/lv_btnmatrix.c:0:8
	mov	r4, r0
.Ltmp515:
	@DEBUG_VALUE: invalidate_button_area:obj <- $r4
	@DEBUG_VALUE: invalidate_button_area:btnm <- $r4
	.loc	12 982 36 is_stmt 1             @ ../GUILib/src/widgets/lv_btnmatrix.c:982:36
	ldr	r0, [r0, #40]
.Ltmp516:
	@DEBUG_VALUE: lv_area_copy:src <- undef
	@DEBUG_VALUE: lv_area_copy:dest <- [DW_OP_plus_uconst 20, DW_OP_stack_value] $sp
	.loc	6 112 21                        @ ../GUILib/src/hal/../misc/lv_area.h:112:21
	ldrh.w	r11, [r0, r5, lsl #3]
	add.w	r0, r0, r5, lsl #3
	.loc	6 112 14 is_stmt 0              @ ../GUILib/src/hal/../misc/lv_area.h:112:14
	strh.w	r11, [sp, #20]
	.loc	6 113 21 is_stmt 1              @ ../GUILib/src/hal/../misc/lv_area.h:113:21
	ldrh.w	r10, [r0, #2]
	.loc	6 113 14 is_stmt 0              @ ../GUILib/src/hal/../misc/lv_area.h:113:14
	strh.w	r10, [sp, #22]
	.loc	6 114 21 is_stmt 1              @ ../GUILib/src/hal/../misc/lv_area.h:114:21
	ldrh	r1, [r0, #4]
	.loc	6 114 14 is_stmt 0              @ ../GUILib/src/hal/../misc/lv_area.h:114:14
	strh.w	r1, [sp, #24]
	.loc	6 115 21 is_stmt 1              @ ../GUILib/src/hal/../misc/lv_area.h:115:21
	ldrh	r0, [r0, #6]
	.loc	6 114 14                        @ ../GUILib/src/hal/../misc/lv_area.h:114:14
	str	r1, [sp, #4]                    @ 4-byte Spill
	.loc	6 115 14                        @ ../GUILib/src/hal/../misc/lv_area.h:115:14
	str	r0, [sp, #8]                    @ 4-byte Spill
	strh.w	r0, [sp, #26]
	add	r1, sp, #12
.Ltmp517:
	.loc	12 983 5                        @ ../GUILib/src/widgets/lv_btnmatrix.c:983:5
	mov	r0, r4
	bl	lv_obj_get_coords
.Ltmp518:
	@DEBUG_VALUE: lv_obj_get_style_pad_row:part <- 0
	@DEBUG_VALUE: lv_obj_get_style_pad_row:obj <- $r4
	.loc	18 117 26                       @ ../GUILib/src/widgets/../core/lv_obj_style_gen.h:117:26
	mov	r0, r4
	movs	r1, #0
	movw	r2, #6164
	bl	lv_obj_get_style_prop
.Ltmp519:
	mov	r6, r0
.Ltmp520:
	@DEBUG_VALUE: invalidate_button_area:row_gap <- $r6
	@DEBUG_VALUE: lv_obj_get_style_pad_row:v <- $r6
	.loc	18 118 12                       @ ../GUILib/src/widgets/../core/lv_obj_style_gen.h:118:12
	sxth.w	r8, r0
.Ltmp521:
	@DEBUG_VALUE: lv_obj_get_style_pad_column:part <- 0
	@DEBUG_VALUE: lv_obj_get_style_pad_column:obj <- $r4
	.loc	18 123 26                       @ ../GUILib/src/widgets/../core/lv_obj_style_gen.h:123:26
	mov	r0, r4
	movs	r1, #0
	movw	r2, #6165
	bl	lv_obj_get_style_prop
.Ltmp522:
	mov	r7, r0
.Ltmp523:
	@DEBUG_VALUE: invalidate_button_area:col_gap <- $r7
	@DEBUG_VALUE: lv_obj_get_style_pad_column:v <- $r7
	.loc	18 124 12                       @ ../GUILib/src/widgets/../core/lv_obj_style_gen.h:124:12
	sxth.w	r9, r0
.Ltmp524:
	.loc	12 991 38                       @ ../GUILib/src/widgets/lv_btnmatrix.c:991:38
	mov	r0, r4
	bl	lv_obj_get_disp
.Ltmp525:
	.loc	12 991 22 is_stmt 0             @ ../GUILib/src/widgets/lv_btnmatrix.c:991:22
	bl	lv_disp_get_dpi
.Ltmp526:
	@DEBUG_VALUE: invalidate_button_area:dpi <- $r0
	.loc	12 0 22                         @ ../GUILib/src/widgets/lv_btnmatrix.c:0:22
	movw	r1, #26215
	movt	r1, #26214
	.loc	12 992 15 is_stmt 1             @ ../GUILib/src/widgets/lv_btnmatrix.c:992:15
	smmul	r0, r0, r1
.Ltmp527:
	asrs	r1, r0, #2
	add.w	r1, r1, r0, lsr #31
	sxth	r0, r1
	cmp	r0, r8
	it	ge
	movge	r6, r1
.Ltmp528:
	@DEBUG_VALUE: invalidate_button_area:row_gap <- $r6
	.loc	12 996 29                       @ ../GUILib/src/widgets/lv_btnmatrix.c:996:29
	ldrh.w	r2, [sp, #12]
	.loc	12 993 15                       @ ../GUILib/src/widgets/lv_btnmatrix.c:993:15
	cmp	r0, r9
	it	lt
	movlt	r1, r7
.Ltmp529:
	@DEBUG_VALUE: invalidate_button_area:col_gap <- $r1
	.loc	12 998 17                       @ ../GUILib/src/widgets/lv_btnmatrix.c:998:17
	ldr	r7, [sp, #4]                    @ 4-byte Reload
.Ltmp530:
	.loc	12 996 32                       @ ../GUILib/src/widgets/lv_btnmatrix.c:996:32
	add.w	r0, r11, r2
	.loc	12 997 29                       @ ../GUILib/src/widgets/lv_btnmatrix.c:997:29
	ldrh.w	r3, [sp, #14]
	.loc	12 998 32                       @ ../GUILib/src/widgets/lv_btnmatrix.c:998:32
	add	r2, r6
	.loc	12 996 17                       @ ../GUILib/src/widgets/lv_btnmatrix.c:996:17
	subs	r0, r0, r6
	.loc	12 998 17                       @ ../GUILib/src/widgets/lv_btnmatrix.c:998:17
	add	r2, r7
	.loc	12 996 17                       @ ../GUILib/src/widgets/lv_btnmatrix.c:996:17
	strh.w	r0, [sp, #20]
	.loc	12 997 32                       @ ../GUILib/src/widgets/lv_btnmatrix.c:997:32
	subs	r0, r3, r1
	.loc	12 998 17                       @ ../GUILib/src/widgets/lv_btnmatrix.c:998:17
	strh.w	r2, [sp, #24]
	.loc	12 999 32                       @ ../GUILib/src/widgets/lv_btnmatrix.c:999:32
	add	r1, r3
.Ltmp531:
	.loc	12 1001 27                      @ ../GUILib/src/widgets/lv_btnmatrix.c:1001:27
	ldrh	r2, [r4, #52]
.Ltmp532:
	.loc	12 999 17                       @ ../GUILib/src/widgets/lv_btnmatrix.c:999:17
	ldr	r3, [sp, #8]                    @ 4-byte Reload
	.loc	12 997 17                       @ ../GUILib/src/widgets/lv_btnmatrix.c:997:17
	add	r0, r10
	.loc	12 999 17                       @ ../GUILib/src/widgets/lv_btnmatrix.c:999:17
	add	r1, r3
.Ltmp533:
	.loc	12 1001 39                      @ ../GUILib/src/widgets/lv_btnmatrix.c:1001:39
	cmp	r2, r5
.Ltmp534:
	.loc	12 997 17                       @ ../GUILib/src/widgets/lv_btnmatrix.c:997:17
	strh.w	r0, [sp, #22]
	.loc	12 999 17                       @ ../GUILib/src/widgets/lv_btnmatrix.c:999:17
	strh.w	r1, [sp, #26]
.Ltmp535:
	.loc	12 1001 39                      @ ../GUILib/src/widgets/lv_btnmatrix.c:1001:39
	bne	.LBB7_3
.Ltmp536:
@ %bb.2:
	@DEBUG_VALUE: invalidate_button_area:row_gap <- $r6
	@DEBUG_VALUE: invalidate_button_area:btn_idx <- $r5
	@DEBUG_VALUE: invalidate_button_area:btnm <- $r4
	@DEBUG_VALUE: invalidate_button_area:obj <- $r4
	@DEBUG_VALUE: invalidate_button_area:btnm <- $r4
	.loc	12 1001 49 is_stmt 0            @ ../GUILib/src/widgets/lv_btnmatrix.c:1001:49
	ldr	r2, [r4, #44]
	.loc	12 1001 43                      @ ../GUILib/src/widgets/lv_btnmatrix.c:1001:43
	ldrh.w	r2, [r2, r5, lsl #1]
.Ltmp537:
	.loc	12 1001 9                       @ ../GUILib/src/widgets/lv_btnmatrix.c:1001:9
	lsls	r2, r2, #22
.Ltmp538:
	@DEBUG_VALUE: lv_area_get_height:area_p <- [DW_OP_plus_uconst 20, DW_OP_stack_value] $sp
	.loc	6 135 36 is_stmt 1              @ ../GUILib/src/hal/../misc/lv_area.h:135:36
	ittt	mi
	mvnmi	r1, r1
.Ltmp539:
	.loc	12 1003 21                      @ ../GUILib/src/widgets/lv_btnmatrix.c:1003:21
	addmi.w	r0, r1, r0, lsl #1
	strhmi.w	r0, [sp, #22]
.Ltmp540:
.LBB7_3:
	@DEBUG_VALUE: invalidate_button_area:row_gap <- $r6
	@DEBUG_VALUE: invalidate_button_area:btn_idx <- $r5
	@DEBUG_VALUE: invalidate_button_area:btnm <- $r4
	@DEBUG_VALUE: invalidate_button_area:obj <- $r4
	.loc	12 0 21 is_stmt 0               @ ../GUILib/src/widgets/lv_btnmatrix.c:0:21
	add	r1, sp, #20
	.loc	12 1006 5 is_stmt 1             @ ../GUILib/src/widgets/lv_btnmatrix.c:1006:5
	mov	r0, r4
	bl	lv_obj_invalidate_area
.Ltmp541:
.LBB7_4:
	@DEBUG_VALUE: invalidate_button_area:btn_idx <- $r5
	.loc	12 1007 1                       @ ../GUILib/src/widgets/lv_btnmatrix.c:1007:1
	add	sp, #28
	pop.w	{r4, r5, r6, r7, r8, r9, r10, r11, pc}
.Ltmp542:
.Lfunc_end7:
	.size	invalidate_button_area, .Lfunc_end7-invalidate_button_area
	.cfi_endproc
	.cantunwind
	.fnend
                                        @ -- End function
	.section	.text.lv_btnmatrix_set_btn_ctrl,"ax",%progbits
	.hidden	lv_btnmatrix_set_btn_ctrl       @ -- Begin function lv_btnmatrix_set_btn_ctrl
	.globl	lv_btnmatrix_set_btn_ctrl
	.p2align	1
	.type	lv_btnmatrix_set_btn_ctrl,%function
	.code	16                              @ @lv_btnmatrix_set_btn_ctrl
	.thumb_func
lv_btnmatrix_set_btn_ctrl:
.Lfunc_begin8:
	.loc	12 208 0                        @ ../GUILib/src/widgets/lv_btnmatrix.c:208:0
	.fnstart
	.cfi_startproc
@ %bb.0:
	@DEBUG_VALUE: lv_btnmatrix_set_btn_ctrl:obj <- $r0
	@DEBUG_VALUE: lv_btnmatrix_set_btn_ctrl:btn_id <- $r1
	@DEBUG_VALUE: lv_btnmatrix_set_btn_ctrl:ctrl <- $r2
	.save	{r4, r5, r6, r7, lr}
	push	{r4, r5, r6, r7, lr}
	.cfi_def_cfa_offset 20
	.cfi_offset lr, -4
	.cfi_offset r7, -8
	.cfi_offset r6, -12
	.cfi_offset r5, -16
	.cfi_offset r4, -20
	.pad	#4
	sub	sp, #4
	.cfi_def_cfa_offset 24
	mov	r4, r0
.Ltmp543:
	@DEBUG_VALUE: lv_btnmatrix_set_btn_ctrl:btnm <- $r4
	@DEBUG_VALUE: lv_btnmatrix_set_btn_ctrl:ctrl <- undef
	@DEBUG_VALUE: lv_btnmatrix_set_btn_ctrl:obj <- $r4
	.loc	12 213 24 prologue_end          @ ../GUILib/src/widgets/lv_btnmatrix.c:213:24
	ldrh	r0, [r0, #48]
.Ltmp544:
	@DEBUG_VALUE: lv_btnmatrix_set_btn_ctrl:btn_id <- $r1
	.loc	12 213 8 is_stmt 0              @ ../GUILib/src/widgets/lv_btnmatrix.c:213:8
	cmp	r0, r1
.Ltmp545:
	@DEBUG_VALUE: lv_btnmatrix_set_btn_ctrl:ctrl <- $r2
	bls	.LBB8_8
.Ltmp546:
@ %bb.1:
	@DEBUG_VALUE: lv_btnmatrix_set_btn_ctrl:obj <- $r4
	@DEBUG_VALUE: lv_btnmatrix_set_btn_ctrl:btnm <- $r4
	@DEBUG_VALUE: lv_btnmatrix_set_btn_ctrl:ctrl <- $r2
	@DEBUG_VALUE: lv_btnmatrix_set_btn_ctrl:btn_id <- $r1
	.loc	12 0 8                          @ ../GUILib/src/widgets/lv_btnmatrix.c:0:8
	mov	r6, r1
.Ltmp547:
	@DEBUG_VALUE: lv_btnmatrix_set_btn_ctrl:btn_id <- $r6
	@DEBUG_VALUE: lv_btnmatrix_set_btn_ctrl:btn_id <- $r6
	mov	r5, r2
.Ltmp548:
	@DEBUG_VALUE: lv_btnmatrix_set_btn_ctrl:ctrl <- $r5
	@DEBUG_VALUE: lv_btnmatrix_set_btn_ctrl:btnm <- $r4
	.loc	12 215 24 is_stmt 1             @ ../GUILib/src/widgets/lv_btnmatrix.c:215:24
	lsls	r1, r2, #24
	bpl	.LBB8_7
.Ltmp549:
@ %bb.2:
	@DEBUG_VALUE: lv_btnmatrix_set_btn_ctrl:btn_id <- $r6
	@DEBUG_VALUE: lv_btnmatrix_set_btn_ctrl:ctrl <- $r5
	@DEBUG_VALUE: lv_btnmatrix_set_btn_ctrl:obj <- $r4
	@DEBUG_VALUE: lv_btnmatrix_set_btn_ctrl:btnm <- $r4
	.loc	12 0 0 is_stmt 0                @ ../GUILib/src/widgets/lv_btnmatrix.c:0:0
	ldrb.w	r1, [r4, #54]
	ands	r1, r1, #1
	.loc	12 215 24                       @ ../GUILib/src/widgets/lv_btnmatrix.c:215:24
	beq	.LBB8_7
.Ltmp550:
@ %bb.3:
	@DEBUG_VALUE: lv_btnmatrix_set_btn_ctrl:btn_id <- $r6
	@DEBUG_VALUE: lv_btnmatrix_set_btn_ctrl:ctrl <- $r5
	@DEBUG_VALUE: lv_btnmatrix_set_btn_ctrl:obj <- $r4
	@DEBUG_VALUE: lv_btnmatrix_set_btn_ctrl:btnm <- $r4
	.loc	12 0 24                         @ ../GUILib/src/widgets/lv_btnmatrix.c:0:24
	movs	r7, #0
.Ltmp551:
	.p2align	2
.LBB8_4:                                @ =>This Inner Loop Header: Depth=1
	@DEBUG_VALUE: lv_btnmatrix_set_btn_ctrl:btn_id <- $r6
	@DEBUG_VALUE: lv_btnmatrix_set_btn_ctrl:ctrl <- $r5
	@DEBUG_VALUE: lv_btnmatrix_set_btn_ctrl:obj <- $r4
	@DEBUG_VALUE: lv_btnmatrix_set_btn_ctrl:btnm <- $r4
	@DEBUG_VALUE: lv_btnmatrix_clear_btn_ctrl_all:i <- $r7
	@DEBUG_VALUE: lv_btnmatrix_clear_btn_ctrl:obj <- $r4
	@DEBUG_VALUE: lv_btnmatrix_clear_btn_ctrl:btn_id <- $r7
	@DEBUG_VALUE: lv_btnmatrix_clear_btn_ctrl:ctrl <- 128
	@DEBUG_VALUE: lv_btnmatrix_clear_btn_ctrl:btnm <- $r4
	.loc	12 233 15 is_stmt 1             @ ../GUILib/src/widgets/lv_btnmatrix.c:233:15
	uxth	r1, r0
.Ltmp552:
	.loc	12 233 8 is_stmt 0              @ ../GUILib/src/widgets/lv_btnmatrix.c:233:8
	cmp	r7, r1
	bhs	.LBB8_6
.Ltmp553:
@ %bb.5:                                @   in Loop: Header=BB8_4 Depth=1
	@DEBUG_VALUE: lv_btnmatrix_clear_btn_ctrl:btn_id <- $r7
	@DEBUG_VALUE: lv_btnmatrix_clear_btn_ctrl_all:i <- $r7
	@DEBUG_VALUE: lv_btnmatrix_set_btn_ctrl:btn_id <- $r6
	@DEBUG_VALUE: lv_btnmatrix_set_btn_ctrl:ctrl <- $r5
	@DEBUG_VALUE: lv_btnmatrix_clear_btn_ctrl:btnm <- $r4
	@DEBUG_VALUE: lv_btnmatrix_clear_btn_ctrl:obj <- $r4
	@DEBUG_VALUE: lv_btnmatrix_set_btn_ctrl:obj <- $r4
	@DEBUG_VALUE: lv_btnmatrix_set_btn_ctrl:btnm <- $r4
	@DEBUG_VALUE: lv_btnmatrix_clear_btn_ctrl:ctrl <- 128
	@DEBUG_VALUE: lv_btnmatrix_clear_btn_ctrl:btnm <- $r4
	.loc	12 235 11 is_stmt 1             @ ../GUILib/src/widgets/lv_btnmatrix.c:235:11
	ldr	r0, [r4, #44]
	.loc	12 235 29 is_stmt 0             @ ../GUILib/src/widgets/lv_btnmatrix.c:235:29
	ldrh.w	r1, [r0, r7, lsl #1]
	bic	r1, r1, #128
	strh.w	r1, [r0, r7, lsl #1]
	.loc	12 236 5 is_stmt 1              @ ../GUILib/src/widgets/lv_btnmatrix.c:236:5
	uxth	r1, r7
	mov	r0, r4
	bl	invalidate_button_area
.Ltmp554:
	.loc	12 260 26                       @ ../GUILib/src/widgets/lv_btnmatrix.c:260:26
	ldrh	r0, [r4, #48]
.Ltmp555:
.LBB8_6:                                @   in Loop: Header=BB8_4 Depth=1
	@DEBUG_VALUE: lv_btnmatrix_clear_btn_ctrl_all:i <- $r7
	@DEBUG_VALUE: lv_btnmatrix_set_btn_ctrl:btn_id <- $r6
	@DEBUG_VALUE: lv_btnmatrix_set_btn_ctrl:ctrl <- $r5
	@DEBUG_VALUE: lv_btnmatrix_set_btn_ctrl:obj <- $r4
	@DEBUG_VALUE: lv_btnmatrix_set_btn_ctrl:btnm <- $r4
	.loc	12 260 36 is_stmt 0             @ ../GUILib/src/widgets/lv_btnmatrix.c:260:36
	adds	r7, #1
.Ltmp556:
	@DEBUG_VALUE: lv_btnmatrix_clear_btn_ctrl_all:i <- $r7
	.loc	12 260 18                       @ ../GUILib/src/widgets/lv_btnmatrix.c:260:18
	uxth	r1, r0
.Ltmp557:
	.loc	12 260 5                        @ ../GUILib/src/widgets/lv_btnmatrix.c:260:5
	cmp	r7, r1
	blo	.LBB8_4
.Ltmp558:
.LBB8_7:
	@DEBUG_VALUE: lv_btnmatrix_set_btn_ctrl:btn_id <- $r6
	@DEBUG_VALUE: lv_btnmatrix_set_btn_ctrl:ctrl <- $r5
	@DEBUG_VALUE: lv_btnmatrix_set_btn_ctrl:obj <- $r4
	@DEBUG_VALUE: lv_btnmatrix_set_btn_ctrl:btnm <- $r4
	.loc	12 219 11 is_stmt 1             @ ../GUILib/src/widgets/lv_btnmatrix.c:219:11
	ldr	r0, [r4, #44]
	.loc	12 219 29 is_stmt 0             @ ../GUILib/src/widgets/lv_btnmatrix.c:219:29
	ldrh.w	r1, [r0, r6, lsl #1]
	orrs	r1, r5
	strh.w	r1, [r0, r6, lsl #1]
	.loc	12 220 5 is_stmt 1              @ ../GUILib/src/widgets/lv_btnmatrix.c:220:5
	mov	r0, r4
	mov	r1, r6
	bl	invalidate_button_area
.Ltmp559:
	.loc	12 222 9                        @ ../GUILib/src/widgets/lv_btnmatrix.c:222:9
	lsls	r0, r5, #22
	bmi	.LBB8_9
.Ltmp560:
.LBB8_8:
	@DEBUG_VALUE: lv_btnmatrix_set_btn_ctrl:obj <- $r4
	@DEBUG_VALUE: lv_btnmatrix_set_btn_ctrl:btnm <- $r4
	.loc	12 225 1                        @ ../GUILib/src/widgets/lv_btnmatrix.c:225:1
	add	sp, #4
	pop	{r4, r5, r6, r7, pc}
.Ltmp561:
.LBB8_9:
	@DEBUG_VALUE: lv_btnmatrix_set_btn_ctrl:btn_id <- $r6
	@DEBUG_VALUE: lv_btnmatrix_set_btn_ctrl:ctrl <- $r5
	@DEBUG_VALUE: lv_btnmatrix_set_btn_ctrl:obj <- $r4
	@DEBUG_VALUE: lv_btnmatrix_set_btn_ctrl:btnm <- $r4
	.loc	12 223 9                        @ ../GUILib/src/widgets/lv_btnmatrix.c:223:9
	mov	r0, r4
	add	sp, #4
	pop.w	{r4, r5, r6, r7, lr}
.Ltmp562:
	@DEBUG_VALUE: lv_btnmatrix_set_btn_ctrl:btn_id <- [DW_OP_LLVM_entry_value 1] $r1
	b	lv_obj_refresh_ext_draw_size
.Ltmp563:
.Lfunc_end8:
	.size	lv_btnmatrix_set_btn_ctrl, .Lfunc_end8-lv_btnmatrix_set_btn_ctrl
	.cfi_endproc
	.cantunwind
	.fnend
                                        @ -- End function
	.section	.text.lv_btnmatrix_clear_btn_ctrl_all,"ax",%progbits
	.hidden	lv_btnmatrix_clear_btn_ctrl_all @ -- Begin function lv_btnmatrix_clear_btn_ctrl_all
	.globl	lv_btnmatrix_clear_btn_ctrl_all
	.p2align	1
	.type	lv_btnmatrix_clear_btn_ctrl_all,%function
	.code	16                              @ @lv_btnmatrix_clear_btn_ctrl_all
	.thumb_func
lv_btnmatrix_clear_btn_ctrl_all:
.Lfunc_begin9:
	.loc	12 255 0                        @ ../GUILib/src/widgets/lv_btnmatrix.c:255:0
	.fnstart
	.cfi_startproc
@ %bb.0:
	@DEBUG_VALUE: lv_btnmatrix_clear_btn_ctrl_all:obj <- $r0
	@DEBUG_VALUE: lv_btnmatrix_clear_btn_ctrl_all:ctrl <- $r1
	.save	{r4, r5, r6, lr}
	push	{r4, r5, r6, lr}
	.cfi_def_cfa_offset 16
	.cfi_offset lr, -4
	.cfi_offset r6, -8
	.cfi_offset r5, -12
	.cfi_offset r4, -16
.Ltmp564:
	@DEBUG_VALUE: lv_btnmatrix_clear_btn_ctrl_all:btnm <- $r0
	mov	r4, r0
.Ltmp565:
	@DEBUG_VALUE: lv_btnmatrix_clear_btn_ctrl_all:i <- 0
	@DEBUG_VALUE: lv_btnmatrix_clear_btn_ctrl_all:btnm <- $r4
	@DEBUG_VALUE: lv_btnmatrix_clear_btn_ctrl_all:ctrl <- undef
	@DEBUG_VALUE: lv_btnmatrix_clear_btn_ctrl_all:obj <- $r4
	.loc	12 260 26 prologue_end          @ ../GUILib/src/widgets/lv_btnmatrix.c:260:26
	ldrh	r0, [r0, #48]
.Ltmp566:
	@DEBUG_VALUE: lv_btnmatrix_clear_btn_ctrl_all:ctrl <- $r1
	.loc	12 260 5 is_stmt 0              @ ../GUILib/src/widgets/lv_btnmatrix.c:260:5
	cbz	r0, .LBB9_3
.Ltmp567:
@ %bb.1:
	@DEBUG_VALUE: lv_btnmatrix_clear_btn_ctrl_all:obj <- $r4
	@DEBUG_VALUE: lv_btnmatrix_clear_btn_ctrl_all:btnm <- $r4
	@DEBUG_VALUE: lv_btnmatrix_clear_btn_ctrl_all:ctrl <- $r1
	@DEBUG_VALUE: lv_btnmatrix_clear_btn_ctrl_all:i <- 0
	.loc	12 0 5                          @ ../GUILib/src/widgets/lv_btnmatrix.c:0:5
	mov	r5, r1
.Ltmp568:
	@DEBUG_VALUE: lv_btnmatrix_clear_btn_ctrl_all:ctrl <- $r5
	@DEBUG_VALUE: lv_btnmatrix_clear_btn_ctrl_all:ctrl <- $r5
	@DEBUG_VALUE: lv_btnmatrix_clear_btn_ctrl_all:ctrl <- $r5
	movs	r6, #0
.Ltmp569:
	.p2align	2
.LBB9_2:                                @ =>This Inner Loop Header: Depth=1
	@DEBUG_VALUE: lv_btnmatrix_clear_btn_ctrl_all:ctrl <- $r5
	@DEBUG_VALUE: lv_btnmatrix_clear_btn_ctrl_all:obj <- $r4
	@DEBUG_VALUE: lv_btnmatrix_clear_btn_ctrl_all:btnm <- $r4
	@DEBUG_VALUE: lv_btnmatrix_clear_btn_ctrl_all:i <- $r6
	.loc	12 261 9 is_stmt 1              @ ../GUILib/src/widgets/lv_btnmatrix.c:261:9
	uxth	r1, r6
	mov	r0, r4
	mov	r2, r5
	bl	lv_btnmatrix_clear_btn_ctrl
.Ltmp570:
	.loc	12 260 36                       @ ../GUILib/src/widgets/lv_btnmatrix.c:260:36
	adds	r6, #1
.Ltmp571:
	@DEBUG_VALUE: lv_btnmatrix_clear_btn_ctrl_all:i <- $r6
	.loc	12 260 26 is_stmt 0             @ ../GUILib/src/widgets/lv_btnmatrix.c:260:26
	ldrh	r0, [r4, #48]
	.loc	12 260 36                       @ ../GUILib/src/widgets/lv_btnmatrix.c:260:36
	uxth	r1, r6
.Ltmp572:
	.loc	12 260 5                        @ ../GUILib/src/widgets/lv_btnmatrix.c:260:5
	cmp	r1, r0
	blo	.LBB9_2
.Ltmp573:
.LBB9_3:
	@DEBUG_VALUE: lv_btnmatrix_clear_btn_ctrl_all:obj <- $r4
	@DEBUG_VALUE: lv_btnmatrix_clear_btn_ctrl_all:btnm <- $r4
	.loc	12 263 1 is_stmt 1              @ ../GUILib/src/widgets/lv_btnmatrix.c:263:1
	pop	{r4, r5, r6, pc}
.Ltmp574:
.Lfunc_end9:
	.size	lv_btnmatrix_clear_btn_ctrl_all, .Lfunc_end9-lv_btnmatrix_clear_btn_ctrl_all
	.cfi_endproc
	.cantunwind
	.fnend
                                        @ -- End function
	.section	.text.lv_btnmatrix_clear_btn_ctrl,"ax",%progbits
	.hidden	lv_btnmatrix_clear_btn_ctrl     @ -- Begin function lv_btnmatrix_clear_btn_ctrl
	.globl	lv_btnmatrix_clear_btn_ctrl
	.p2align	1
	.type	lv_btnmatrix_clear_btn_ctrl,%function
	.code	16                              @ @lv_btnmatrix_clear_btn_ctrl
	.thumb_func
lv_btnmatrix_clear_btn_ctrl:
.Lfunc_begin10:
	.loc	12 228 0                        @ ../GUILib/src/widgets/lv_btnmatrix.c:228:0
	.fnstart
	.cfi_startproc
@ %bb.0:
	@DEBUG_VALUE: lv_btnmatrix_clear_btn_ctrl:obj <- $r0
	@DEBUG_VALUE: lv_btnmatrix_clear_btn_ctrl:btn_id <- $r1
	@DEBUG_VALUE: lv_btnmatrix_clear_btn_ctrl:ctrl <- $r2
	.save	{r4, r5, r7, lr}
	push	{r4, r5, r7, lr}
	.cfi_def_cfa_offset 16
	.cfi_offset lr, -4
	.cfi_offset r7, -8
	.cfi_offset r5, -12
	.cfi_offset r4, -16
	mov	r4, r0
.Ltmp575:
	@DEBUG_VALUE: lv_btnmatrix_clear_btn_ctrl:btnm <- $r4
	@DEBUG_VALUE: lv_btnmatrix_clear_btn_ctrl:ctrl <- undef
	@DEBUG_VALUE: lv_btnmatrix_clear_btn_ctrl:obj <- $r4
	.loc	12 233 24 prologue_end          @ ../GUILib/src/widgets/lv_btnmatrix.c:233:24
	ldrh	r0, [r0, #48]
.Ltmp576:
	@DEBUG_VALUE: lv_btnmatrix_clear_btn_ctrl:btn_id <- $r1
	.loc	12 233 8 is_stmt 0              @ ../GUILib/src/widgets/lv_btnmatrix.c:233:8
	cmp	r0, r1
.Ltmp577:
	@DEBUG_VALUE: lv_btnmatrix_clear_btn_ctrl:ctrl <- $r2
	.loc	12 241 1 is_stmt 1              @ ../GUILib/src/widgets/lv_btnmatrix.c:241:1
	it	ls
	popls	{r4, r5, r7, pc}
.Ltmp578:
.LBB10_1:
	@DEBUG_VALUE: lv_btnmatrix_clear_btn_ctrl:ctrl <- $r2
	@DEBUG_VALUE: lv_btnmatrix_clear_btn_ctrl:btn_id <- $r1
	.loc	12 235 11                       @ ../GUILib/src/widgets/lv_btnmatrix.c:235:11
	ldr	r0, [r4, #44]
	mov	r5, r2
.Ltmp579:
	@DEBUG_VALUE: lv_btnmatrix_clear_btn_ctrl:ctrl <- $r5
	@DEBUG_VALUE: lv_btnmatrix_clear_btn_ctrl:ctrl <- $r5
	@DEBUG_VALUE: lv_btnmatrix_clear_btn_ctrl:btnm <- $r4
	.loc	12 235 29 is_stmt 0             @ ../GUILib/src/widgets/lv_btnmatrix.c:235:29
	ldrh.w	r2, [r0, r1, lsl #1]
	bics	r2, r5
	strh.w	r2, [r0, r1, lsl #1]
	.loc	12 236 5 is_stmt 1              @ ../GUILib/src/widgets/lv_btnmatrix.c:236:5
	mov	r0, r4
	bl	invalidate_button_area
.Ltmp580:
	@DEBUG_VALUE: lv_btnmatrix_clear_btn_ctrl:btn_id <- [DW_OP_LLVM_entry_value 1] $r1
	.loc	12 238 9                        @ ../GUILib/src/widgets/lv_btnmatrix.c:238:9
	lsls	r0, r5, #22
	bmi	.LBB10_3
.Ltmp581:
@ %bb.2:
	@DEBUG_VALUE: lv_btnmatrix_clear_btn_ctrl:ctrl <- $r5
	@DEBUG_VALUE: lv_btnmatrix_clear_btn_ctrl:btnm <- $r4
	@DEBUG_VALUE: lv_btnmatrix_clear_btn_ctrl:btn_id <- [DW_OP_LLVM_entry_value 1] $r1
	.loc	12 241 1                        @ ../GUILib/src/widgets/lv_btnmatrix.c:241:1
	pop	{r4, r5, r7, pc}
.Ltmp582:
.LBB10_3:
	@DEBUG_VALUE: lv_btnmatrix_clear_btn_ctrl:ctrl <- $r5
	@DEBUG_VALUE: lv_btnmatrix_clear_btn_ctrl:btnm <- $r4
	@DEBUG_VALUE: lv_btnmatrix_clear_btn_ctrl:btn_id <- [DW_OP_LLVM_entry_value 1] $r1
	.loc	12 239 9                        @ ../GUILib/src/widgets/lv_btnmatrix.c:239:9
	mov	r0, r4
	pop.w	{r4, r5, r7, lr}
.Ltmp583:
	b	lv_obj_refresh_ext_draw_size
.Ltmp584:
.Lfunc_end10:
	.size	lv_btnmatrix_clear_btn_ctrl, .Lfunc_end10-lv_btnmatrix_clear_btn_ctrl
	.cfi_endproc
	.cantunwind
	.fnend
                                        @ -- End function
	.section	.text.lv_btnmatrix_set_btn_ctrl_all,"ax",%progbits
	.hidden	lv_btnmatrix_set_btn_ctrl_all   @ -- Begin function lv_btnmatrix_set_btn_ctrl_all
	.globl	lv_btnmatrix_set_btn_ctrl_all
	.p2align	1
	.type	lv_btnmatrix_set_btn_ctrl_all,%function
	.code	16                              @ @lv_btnmatrix_set_btn_ctrl_all
	.thumb_func
lv_btnmatrix_set_btn_ctrl_all:
.Lfunc_begin11:
	.loc	12 244 0                        @ ../GUILib/src/widgets/lv_btnmatrix.c:244:0
	.fnstart
	.cfi_startproc
@ %bb.0:
	@DEBUG_VALUE: lv_btnmatrix_set_btn_ctrl_all:obj <- $r0
	@DEBUG_VALUE: lv_btnmatrix_set_btn_ctrl_all:ctrl <- $r1
	.save	{r4, r5, r6, lr}
	push	{r4, r5, r6, lr}
	.cfi_def_cfa_offset 16
	.cfi_offset lr, -4
	.cfi_offset r6, -8
	.cfi_offset r5, -12
	.cfi_offset r4, -16
.Ltmp585:
	@DEBUG_VALUE: lv_btnmatrix_set_btn_ctrl_all:btnm <- $r0
	mov	r4, r0
.Ltmp586:
	@DEBUG_VALUE: lv_btnmatrix_set_btn_ctrl_all:i <- 0
	@DEBUG_VALUE: lv_btnmatrix_set_btn_ctrl_all:btnm <- $r4
	@DEBUG_VALUE: lv_btnmatrix_set_btn_ctrl_all:ctrl <- undef
	@DEBUG_VALUE: lv_btnmatrix_set_btn_ctrl_all:obj <- $r4
	.loc	12 249 26 prologue_end          @ ../GUILib/src/widgets/lv_btnmatrix.c:249:26
	ldrh	r0, [r0, #48]
.Ltmp587:
	@DEBUG_VALUE: lv_btnmatrix_set_btn_ctrl_all:ctrl <- $r1
	.loc	12 249 5 is_stmt 0              @ ../GUILib/src/widgets/lv_btnmatrix.c:249:5
	cbz	r0, .LBB11_3
.Ltmp588:
@ %bb.1:
	@DEBUG_VALUE: lv_btnmatrix_set_btn_ctrl_all:obj <- $r4
	@DEBUG_VALUE: lv_btnmatrix_set_btn_ctrl_all:btnm <- $r4
	@DEBUG_VALUE: lv_btnmatrix_set_btn_ctrl_all:ctrl <- $r1
	@DEBUG_VALUE: lv_btnmatrix_set_btn_ctrl_all:i <- 0
	.loc	12 0 5                          @ ../GUILib/src/widgets/lv_btnmatrix.c:0:5
	mov	r5, r1
.Ltmp589:
	@DEBUG_VALUE: lv_btnmatrix_set_btn_ctrl_all:ctrl <- $r5
	@DEBUG_VALUE: lv_btnmatrix_set_btn_ctrl_all:ctrl <- $r5
	@DEBUG_VALUE: lv_btnmatrix_set_btn_ctrl_all:ctrl <- $r5
	movs	r6, #0
.Ltmp590:
	.p2align	2
.LBB11_2:                               @ =>This Inner Loop Header: Depth=1
	@DEBUG_VALUE: lv_btnmatrix_set_btn_ctrl_all:ctrl <- $r5
	@DEBUG_VALUE: lv_btnmatrix_set_btn_ctrl_all:obj <- $r4
	@DEBUG_VALUE: lv_btnmatrix_set_btn_ctrl_all:btnm <- $r4
	@DEBUG_VALUE: lv_btnmatrix_set_btn_ctrl_all:i <- $r6
	.loc	12 250 9 is_stmt 1              @ ../GUILib/src/widgets/lv_btnmatrix.c:250:9
	uxth	r1, r6
	mov	r0, r4
	mov	r2, r5
	bl	lv_btnmatrix_set_btn_ctrl
.Ltmp591:
	.loc	12 249 36                       @ ../GUILib/src/widgets/lv_btnmatrix.c:249:36
	adds	r6, #1
.Ltmp592:
	@DEBUG_VALUE: lv_btnmatrix_set_btn_ctrl_all:i <- $r6
	.loc	12 249 26 is_stmt 0             @ ../GUILib/src/widgets/lv_btnmatrix.c:249:26
	ldrh	r0, [r4, #48]
	.loc	12 249 36                       @ ../GUILib/src/widgets/lv_btnmatrix.c:249:36
	uxth	r1, r6
.Ltmp593:
	.loc	12 249 5                        @ ../GUILib/src/widgets/lv_btnmatrix.c:249:5
	cmp	r1, r0
	blo	.LBB11_2
.Ltmp594:
.LBB11_3:
	@DEBUG_VALUE: lv_btnmatrix_set_btn_ctrl_all:obj <- $r4
	@DEBUG_VALUE: lv_btnmatrix_set_btn_ctrl_all:btnm <- $r4
	.loc	12 252 1 is_stmt 1              @ ../GUILib/src/widgets/lv_btnmatrix.c:252:1
	pop	{r4, r5, r6, pc}
.Ltmp595:
.Lfunc_end11:
	.size	lv_btnmatrix_set_btn_ctrl_all, .Lfunc_end11-lv_btnmatrix_set_btn_ctrl_all
	.cfi_endproc
	.cantunwind
	.fnend
                                        @ -- End function
	.section	.text.lv_btnmatrix_set_btn_width,"ax",%progbits
	.hidden	lv_btnmatrix_set_btn_width      @ -- Begin function lv_btnmatrix_set_btn_width
	.globl	lv_btnmatrix_set_btn_width
	.p2align	1
	.type	lv_btnmatrix_set_btn_width,%function
	.code	16                              @ @lv_btnmatrix_set_btn_width
	.thumb_func
lv_btnmatrix_set_btn_width:
.Lfunc_begin12:
	.loc	12 266 0                        @ ../GUILib/src/widgets/lv_btnmatrix.c:266:0
	.fnstart
	.cfi_startproc
@ %bb.0:
	@DEBUG_VALUE: lv_btnmatrix_set_btn_width:obj <- $r0
	@DEBUG_VALUE: lv_btnmatrix_set_btn_width:obj <- $r0
	@DEBUG_VALUE: lv_btnmatrix_set_btn_width:btn_id <- $r1
	@DEBUG_VALUE: lv_btnmatrix_set_btn_width:width <- $r2
	@DEBUG_VALUE: lv_btnmatrix_set_btn_width:width <- undef
	.save	{r7, lr}
	push	{r7, lr}
	.cfi_def_cfa_offset 8
	.cfi_offset lr, -4
	.cfi_offset r7, -8
.Ltmp596:
	@DEBUG_VALUE: lv_btnmatrix_set_btn_width:btnm <- $r0
	@DEBUG_VALUE: lv_btnmatrix_set_btn_width:btnm <- $r0
	.loc	12 270 24 prologue_end          @ ../GUILib/src/widgets/lv_btnmatrix.c:270:24
	ldrh.w	r12, [r0, #48]
.Ltmp597:
	@DEBUG_VALUE: lv_btnmatrix_set_btn_width:btn_id <- $r1
	.loc	12 270 8 is_stmt 0              @ ../GUILib/src/widgets/lv_btnmatrix.c:270:8
	cmp	r12, r1
.Ltmp598:
	@DEBUG_VALUE: lv_btnmatrix_set_btn_width:width <- $r2
	.loc	12 275 1 is_stmt 1              @ ../GUILib/src/widgets/lv_btnmatrix.c:275:1
	it	ls
	popls	{r7, pc}
.Ltmp599:
.LBB12_1:
	@DEBUG_VALUE: lv_btnmatrix_set_btn_width:width <- $r2
	@DEBUG_VALUE: lv_btnmatrix_set_btn_width:btn_id <- $r1
	@DEBUG_VALUE: lv_btnmatrix_set_btn_width:btnm <- $r0
	@DEBUG_VALUE: lv_btnmatrix_set_btn_width:obj <- $r0
	.loc	12 271 11                       @ ../GUILib/src/widgets/lv_btnmatrix.c:271:11
	ldr.w	r12, [r0, #44]
	mov	r3, r1
.Ltmp600:
	@DEBUG_VALUE: lv_btnmatrix_set_btn_width:btn_id <- $r3
	@DEBUG_VALUE: lv_btnmatrix_set_btn_width:btnm <- $r0
	.loc	12 271 29 is_stmt 0             @ ../GUILib/src/widgets/lv_btnmatrix.c:271:29
	ldrh.w	lr, [r12, r1, lsl #1]
	.loc	12 274 37 is_stmt 1             @ ../GUILib/src/widgets/lv_btnmatrix.c:274:37
	ldr	r1, [r0, #36]
	.loc	12 272 29                       @ ../GUILib/src/widgets/lv_btnmatrix.c:272:29
	bfi	lr, r2, #0, #3
	strh.w	lr, [r12, r3, lsl #1]
	.loc	12 274 5                        @ ../GUILib/src/widgets/lv_btnmatrix.c:274:5
	pop.w	{r7, lr}
.Ltmp601:
	b	lv_btnmatrix_set_map
.Ltmp602:
.Lfunc_end12:
	.size	lv_btnmatrix_set_btn_width, .Lfunc_end12-lv_btnmatrix_set_btn_width
	.cfi_endproc
	.cantunwind
	.fnend
                                        @ -- End function
	.section	.text.lv_btnmatrix_set_one_checked,"ax",%progbits
	.hidden	lv_btnmatrix_set_one_checked    @ -- Begin function lv_btnmatrix_set_one_checked
	.globl	lv_btnmatrix_set_one_checked
	.p2align	1
	.type	lv_btnmatrix_set_one_checked,%function
	.code	16                              @ @lv_btnmatrix_set_one_checked
	.thumb_func
lv_btnmatrix_set_one_checked:
.Lfunc_begin13:
	.loc	12 278 0                        @ ../GUILib/src/widgets/lv_btnmatrix.c:278:0
	.fnstart
	.cfi_startproc
@ %bb.0:
	@DEBUG_VALUE: lv_btnmatrix_set_one_checked:obj <- $r0
	@DEBUG_VALUE: lv_btnmatrix_set_one_checked:obj <- $r0
	@DEBUG_VALUE: lv_btnmatrix_set_one_checked:en <- undef
	@DEBUG_VALUE: lv_btnmatrix_set_one_checked:btnm <- $r0
	.loc	12 282 25 prologue_end          @ ../GUILib/src/widgets/lv_btnmatrix.c:282:25
	ldrb.w	r2, [r0, #54]
	and	r2, r2, #254
	add	r2, r1
	.loc	12 285 5                        @ ../GUILib/src/widgets/lv_btnmatrix.c:285:5
	movs	r1, #0
	.loc	12 282 25                       @ ../GUILib/src/widgets/lv_btnmatrix.c:282:25
	strb.w	r2, [r0, #54]
.Ltmp603:
	.loc	12 285 5                        @ ../GUILib/src/widgets/lv_btnmatrix.c:285:5
	b	make_one_button_checked
.Ltmp604:
.Lfunc_end13:
	.size	lv_btnmatrix_set_one_checked, .Lfunc_end13-lv_btnmatrix_set_one_checked
	.cfi_endproc
	.cantunwind
	.fnend
                                        @ -- End function
	.section	.text.make_one_button_checked,"ax",%progbits
	.p2align	1                               @ -- Begin function make_one_button_checked
	.type	make_one_button_checked,%function
	.code	16                              @ @make_one_button_checked
	.thumb_func
make_one_button_checked:
.Lfunc_begin14:
	.loc	12 1016 0                       @ ../GUILib/src/widgets/lv_btnmatrix.c:1016:0
	.fnstart
	.cfi_startproc
@ %bb.0:
	@DEBUG_VALUE: make_one_button_checked:obj <- $r0
	@DEBUG_VALUE: make_one_button_checked:btn_idx <- $r1
	@DEBUG_VALUE: lv_btnmatrix_has_btn_ctrl:obj <- $r0
	@DEBUG_VALUE: lv_btnmatrix_has_btn_ctrl:btn_id <- $r1
	.save	{r4, r5, r6, r7, lr}
	push	{r4, r5, r6, r7, lr}
	.cfi_def_cfa_offset 20
	.cfi_offset lr, -4
	.cfi_offset r7, -8
	.cfi_offset r6, -12
	.cfi_offset r5, -16
	.cfi_offset r4, -20
	.pad	#4
	sub	sp, #4
	.cfi_def_cfa_offset 24
	@DEBUG_VALUE: lv_btnmatrix_has_btn_ctrl:btnm <- $r0
	mov	r4, r0
.Ltmp605:
	@DEBUG_VALUE: lv_btnmatrix_has_btn_ctrl:ctrl <- 128
	@DEBUG_VALUE: lv_btnmatrix_has_btn_ctrl:btnm <- $r4
	@DEBUG_VALUE: lv_btnmatrix_has_btn_ctrl:obj <- $r4
	@DEBUG_VALUE: make_one_button_checked:obj <- $r4
	.loc	12 338 24 prologue_end          @ ../GUILib/src/widgets/lv_btnmatrix.c:338:24
	ldrh	r0, [r0, #48]
	mov	r5, r1
.Ltmp606:
	@DEBUG_VALUE: lv_btnmatrix_has_btn_ctrl:btn_id <- $r5
	@DEBUG_VALUE: make_one_button_checked:btn_idx <- $r5
	.loc	12 338 8 is_stmt 0              @ ../GUILib/src/widgets/lv_btnmatrix.c:338:8
	cmp	r0, r1
	bls	.LBB14_2
.Ltmp607:
@ %bb.1:
	@DEBUG_VALUE: make_one_button_checked:btn_idx <- $r5
	@DEBUG_VALUE: lv_btnmatrix_has_btn_ctrl:btn_id <- $r5
	@DEBUG_VALUE: make_one_button_checked:obj <- $r4
	@DEBUG_VALUE: lv_btnmatrix_has_btn_ctrl:obj <- $r4
	@DEBUG_VALUE: lv_btnmatrix_has_btn_ctrl:btnm <- $r4
	@DEBUG_VALUE: lv_btnmatrix_has_btn_ctrl:ctrl <- 128
	@DEBUG_VALUE: lv_btnmatrix_has_btn_ctrl:btnm <- $r4
	.loc	12 340 20 is_stmt 1             @ ../GUILib/src/widgets/lv_btnmatrix.c:340:20
	ldr	r1, [r4, #44]
	.loc	12 340 14 is_stmt 0             @ ../GUILib/src/widgets/lv_btnmatrix.c:340:14
	ldrb.w	r1, [r1, r5, lsl #1]
	.loc	12 340 46                       @ ../GUILib/src/widgets/lv_btnmatrix.c:340:46
	lsrs	r6, r1, #7
	@DEBUG_VALUE: lv_btnmatrix_clear_btn_ctrl_all:i <- 0
	@DEBUG_VALUE: lv_btnmatrix_clear_btn_ctrl_all:btnm <- $r4
	@DEBUG_VALUE: lv_btnmatrix_clear_btn_ctrl_all:ctrl <- 128
	@DEBUG_VALUE: lv_btnmatrix_clear_btn_ctrl_all:obj <- $r4
.Ltmp608:
	@DEBUG_VALUE: make_one_button_checked:was_toggled <- [DW_OP_LLVM_convert 1 7, DW_OP_LLVM_convert 8 7, DW_OP_stack_value] 0
	.loc	12 0 46                         @ ../GUILib/src/widgets/lv_btnmatrix.c:0:46
	b	.LBB14_4
.Ltmp609:
.LBB14_2:
	@DEBUG_VALUE: make_one_button_checked:btn_idx <- $r5
	@DEBUG_VALUE: make_one_button_checked:obj <- $r4
	@DEBUG_VALUE: make_one_button_checked:was_toggled <- [DW_OP_LLVM_convert 1 7, DW_OP_LLVM_convert 8 7, DW_OP_stack_value] 0
	@DEBUG_VALUE: lv_btnmatrix_clear_btn_ctrl_all:obj <- $r4
	@DEBUG_VALUE: lv_btnmatrix_clear_btn_ctrl_all:ctrl <- 128
	@DEBUG_VALUE: lv_btnmatrix_clear_btn_ctrl_all:btnm <- $r4
	@DEBUG_VALUE: lv_btnmatrix_clear_btn_ctrl_all:i <- 0
	.loc	12 260 5 is_stmt 1              @ ../GUILib/src/widgets/lv_btnmatrix.c:260:5
	cbz	r0, .LBB14_10
.Ltmp610:
@ %bb.3:
	@DEBUG_VALUE: make_one_button_checked:btn_idx <- $r5
	@DEBUG_VALUE: lv_btnmatrix_clear_btn_ctrl_all:btnm <- $r4
	@DEBUG_VALUE: lv_btnmatrix_clear_btn_ctrl_all:obj <- $r4
	@DEBUG_VALUE: make_one_button_checked:obj <- $r4
	@DEBUG_VALUE: lv_btnmatrix_clear_btn_ctrl_all:i <- 0
	@DEBUG_VALUE: lv_btnmatrix_clear_btn_ctrl_all:ctrl <- 128
	@DEBUG_VALUE: make_one_button_checked:was_toggled <- [DW_OP_LLVM_convert 1 7, DW_OP_LLVM_convert 8 7, DW_OP_stack_value] 0
	.loc	12 0 5 is_stmt 0                @ ../GUILib/src/widgets/lv_btnmatrix.c:0:5
	movs	r6, #0
.Ltmp611:
.LBB14_4:
	@DEBUG_VALUE: make_one_button_checked:btn_idx <- $r5
	@DEBUG_VALUE: lv_btnmatrix_clear_btn_ctrl_all:btnm <- $r4
	@DEBUG_VALUE: lv_btnmatrix_clear_btn_ctrl_all:obj <- $r4
	@DEBUG_VALUE: make_one_button_checked:obj <- $r4
	@DEBUG_VALUE: lv_btnmatrix_clear_btn_ctrl_all:i <- 0
	@DEBUG_VALUE: lv_btnmatrix_clear_btn_ctrl_all:ctrl <- 128
	@DEBUG_VALUE: make_one_button_checked:was_toggled <- [DW_OP_LLVM_convert 1 7, DW_OP_LLVM_convert 8 7, DW_OP_stack_value] 0
	movs	r7, #0
.Ltmp612:
	.p2align	2
.LBB14_5:                               @ =>This Inner Loop Header: Depth=1
	@DEBUG_VALUE: make_one_button_checked:btn_idx <- $r5
	@DEBUG_VALUE: lv_btnmatrix_clear_btn_ctrl_all:btnm <- $r4
	@DEBUG_VALUE: lv_btnmatrix_clear_btn_ctrl_all:obj <- $r4
	@DEBUG_VALUE: make_one_button_checked:obj <- $r4
	@DEBUG_VALUE: lv_btnmatrix_clear_btn_ctrl_all:ctrl <- 128
	@DEBUG_VALUE: make_one_button_checked:was_toggled <- [DW_OP_LLVM_convert 1 7, DW_OP_LLVM_convert 8 7, DW_OP_stack_value] 0
	@DEBUG_VALUE: lv_btnmatrix_clear_btn_ctrl_all:i <- $r7
	@DEBUG_VALUE: lv_btnmatrix_clear_btn_ctrl:obj <- $r4
	@DEBUG_VALUE: lv_btnmatrix_clear_btn_ctrl:btn_id <- $r7
	@DEBUG_VALUE: lv_btnmatrix_clear_btn_ctrl:ctrl <- 128
	@DEBUG_VALUE: lv_btnmatrix_clear_btn_ctrl:btnm <- $r4
	.loc	12 233 15 is_stmt 1             @ ../GUILib/src/widgets/lv_btnmatrix.c:233:15
	uxth	r1, r0
.Ltmp613:
	.loc	12 233 8 is_stmt 0              @ ../GUILib/src/widgets/lv_btnmatrix.c:233:8
	cmp	r7, r1
	bhs	.LBB14_7
.Ltmp614:
@ %bb.6:                                @   in Loop: Header=BB14_5 Depth=1
	@DEBUG_VALUE: lv_btnmatrix_clear_btn_ctrl:btn_id <- $r7
	@DEBUG_VALUE: lv_btnmatrix_clear_btn_ctrl_all:i <- $r7
	@DEBUG_VALUE: make_one_button_checked:btn_idx <- $r5
	@DEBUG_VALUE: lv_btnmatrix_clear_btn_ctrl:btnm <- $r4
	@DEBUG_VALUE: lv_btnmatrix_clear_btn_ctrl:obj <- $r4
	@DEBUG_VALUE: lv_btnmatrix_clear_btn_ctrl_all:btnm <- $r4
	@DEBUG_VALUE: lv_btnmatrix_clear_btn_ctrl_all:obj <- $r4
	@DEBUG_VALUE: make_one_button_checked:obj <- $r4
	@DEBUG_VALUE: lv_btnmatrix_clear_btn_ctrl:ctrl <- 128
	@DEBUG_VALUE: lv_btnmatrix_clear_btn_ctrl_all:ctrl <- 128
	@DEBUG_VALUE: make_one_button_checked:was_toggled <- [DW_OP_LLVM_convert 1 7, DW_OP_LLVM_convert 8 7, DW_OP_stack_value] 0
	@DEBUG_VALUE: lv_btnmatrix_clear_btn_ctrl:btnm <- $r4
	.loc	12 235 11 is_stmt 1             @ ../GUILib/src/widgets/lv_btnmatrix.c:235:11
	ldr	r0, [r4, #44]
	.loc	12 235 29 is_stmt 0             @ ../GUILib/src/widgets/lv_btnmatrix.c:235:29
	ldrh.w	r1, [r0, r7, lsl #1]
	bic	r1, r1, #128
	strh.w	r1, [r0, r7, lsl #1]
	.loc	12 236 5 is_stmt 1              @ ../GUILib/src/widgets/lv_btnmatrix.c:236:5
	uxth	r1, r7
	mov	r0, r4
	bl	invalidate_button_area
.Ltmp615:
	.loc	12 260 26                       @ ../GUILib/src/widgets/lv_btnmatrix.c:260:26
	ldrh	r0, [r4, #48]
.Ltmp616:
.LBB14_7:                               @   in Loop: Header=BB14_5 Depth=1
	@DEBUG_VALUE: lv_btnmatrix_clear_btn_ctrl_all:i <- $r7
	@DEBUG_VALUE: make_one_button_checked:btn_idx <- $r5
	@DEBUG_VALUE: lv_btnmatrix_clear_btn_ctrl_all:btnm <- $r4
	@DEBUG_VALUE: lv_btnmatrix_clear_btn_ctrl_all:obj <- $r4
	@DEBUG_VALUE: make_one_button_checked:obj <- $r4
	@DEBUG_VALUE: lv_btnmatrix_clear_btn_ctrl_all:ctrl <- 128
	@DEBUG_VALUE: make_one_button_checked:was_toggled <- [DW_OP_LLVM_convert 1 7, DW_OP_LLVM_convert 8 7, DW_OP_stack_value] 0
	.loc	12 260 36 is_stmt 0             @ ../GUILib/src/widgets/lv_btnmatrix.c:260:36
	adds	r7, #1
.Ltmp617:
	@DEBUG_VALUE: lv_btnmatrix_clear_btn_ctrl_all:i <- $r7
	.loc	12 260 18                       @ ../GUILib/src/widgets/lv_btnmatrix.c:260:18
	uxth	r1, r0
.Ltmp618:
	.loc	12 260 5                        @ ../GUILib/src/widgets/lv_btnmatrix.c:260:5
	cmp	r7, r1
	blo	.LBB14_5
.Ltmp619:
@ %bb.8:
	@DEBUG_VALUE: make_one_button_checked:btn_idx <- $r5
	@DEBUG_VALUE: make_one_button_checked:obj <- $r4
	@DEBUG_VALUE: make_one_button_checked:was_toggled <- [DW_OP_LLVM_convert 1 7, DW_OP_LLVM_convert 8 7, DW_OP_stack_value] 0
	.loc	12 1022 8 is_stmt 1             @ ../GUILib/src/widgets/lv_btnmatrix.c:1022:8
	cbz	r6, .LBB14_10
.Ltmp620:
@ %bb.9:
	@DEBUG_VALUE: make_one_button_checked:btn_idx <- $r5
	@DEBUG_VALUE: make_one_button_checked:obj <- $r4
	@DEBUG_VALUE: make_one_button_checked:was_toggled <- [DW_OP_LLVM_convert 1 7, DW_OP_LLVM_convert 8 7, DW_OP_stack_value] 0
	.loc	12 1022 21 is_stmt 0            @ ../GUILib/src/widgets/lv_btnmatrix.c:1022:21
	mov	r0, r4
	mov	r1, r5
	movs	r2, #128
	add	sp, #4
	pop.w	{r4, r5, r6, r7, lr}
.Ltmp621:
	b	lv_btnmatrix_set_btn_ctrl
.Ltmp622:
.LBB14_10:
	@DEBUG_VALUE: make_one_button_checked:btn_idx <- $r5
	@DEBUG_VALUE: make_one_button_checked:obj <- $r4
	@DEBUG_VALUE: make_one_button_checked:was_toggled <- [DW_OP_LLVM_convert 1 7, DW_OP_LLVM_convert 8 7, DW_OP_stack_value] 0
	.loc	12 1023 1 is_stmt 1             @ ../GUILib/src/widgets/lv_btnmatrix.c:1023:1
	add	sp, #4
	pop	{r4, r5, r6, r7, pc}
.Ltmp623:
.Lfunc_end14:
	.size	make_one_button_checked, .Lfunc_end14-make_one_button_checked
	.cfi_endproc
	.cantunwind
	.fnend
                                        @ -- End function
	.section	.text.lv_btnmatrix_get_map,"ax",%progbits
	.hidden	lv_btnmatrix_get_map            @ -- Begin function lv_btnmatrix_get_map
	.globl	lv_btnmatrix_get_map
	.p2align	1
	.type	lv_btnmatrix_get_map,%function
	.code	16                              @ @lv_btnmatrix_get_map
	.thumb_func
lv_btnmatrix_get_map:
.Lfunc_begin15:
	.loc	12 293 0                        @ ../GUILib/src/widgets/lv_btnmatrix.c:293:0
	.fnstart
	.cfi_startproc
@ %bb.0:
	@DEBUG_VALUE: lv_btnmatrix_get_map:obj <- $r0
	@DEBUG_VALUE: lv_btnmatrix_get_map:obj <- $r0
	@DEBUG_VALUE: lv_btnmatrix_get_map:btnm <- $r0
	@DEBUG_VALUE: lv_btnmatrix_get_map:btnm <- $r0
	.loc	12 297 18 prologue_end          @ ../GUILib/src/widgets/lv_btnmatrix.c:297:18
	ldr	r0, [r0, #36]
.Ltmp624:
	@DEBUG_VALUE: lv_btnmatrix_get_map:obj <- [DW_OP_LLVM_entry_value 1] $r0
	.loc	12 297 5 is_stmt 0              @ ../GUILib/src/widgets/lv_btnmatrix.c:297:5
	bx	lr
.Ltmp625:
.Lfunc_end15:
	.size	lv_btnmatrix_get_map, .Lfunc_end15-lv_btnmatrix_get_map
	.cfi_endproc
	.cantunwind
	.fnend
                                        @ -- End function
	.section	.text.lv_btnmatrix_get_selected_btn,"ax",%progbits
	.hidden	lv_btnmatrix_get_selected_btn   @ -- Begin function lv_btnmatrix_get_selected_btn
	.globl	lv_btnmatrix_get_selected_btn
	.p2align	1
	.type	lv_btnmatrix_get_selected_btn,%function
	.code	16                              @ @lv_btnmatrix_get_selected_btn
	.thumb_func
lv_btnmatrix_get_selected_btn:
.Lfunc_begin16:
	.loc	12 301 0 is_stmt 1              @ ../GUILib/src/widgets/lv_btnmatrix.c:301:0
	.fnstart
	.cfi_startproc
@ %bb.0:
	@DEBUG_VALUE: lv_btnmatrix_get_selected_btn:obj <- $r0
	@DEBUG_VALUE: lv_btnmatrix_get_selected_btn:obj <- $r0
	@DEBUG_VALUE: lv_btnmatrix_get_selected_btn:btnm <- $r0
	@DEBUG_VALUE: lv_btnmatrix_get_selected_btn:btnm <- $r0
	.loc	12 305 18 prologue_end          @ ../GUILib/src/widgets/lv_btnmatrix.c:305:18
	ldrh	r0, [r0, #52]
.Ltmp626:
	@DEBUG_VALUE: lv_btnmatrix_get_selected_btn:obj <- [DW_OP_LLVM_entry_value 1] $r0
	.loc	12 305 5 is_stmt 0              @ ../GUILib/src/widgets/lv_btnmatrix.c:305:5
	bx	lr
.Ltmp627:
.Lfunc_end16:
	.size	lv_btnmatrix_get_selected_btn, .Lfunc_end16-lv_btnmatrix_get_selected_btn
	.cfi_endproc
	.cantunwind
	.fnend
                                        @ -- End function
	.section	.text.lv_btnmatrix_get_btn_text,"ax",%progbits
	.hidden	lv_btnmatrix_get_btn_text       @ -- Begin function lv_btnmatrix_get_btn_text
	.globl	lv_btnmatrix_get_btn_text
	.p2align	1
	.type	lv_btnmatrix_get_btn_text,%function
	.code	16                              @ @lv_btnmatrix_get_btn_text
	.thumb_func
lv_btnmatrix_get_btn_text:
.Lfunc_begin17:
	.loc	12 309 0 is_stmt 1              @ ../GUILib/src/widgets/lv_btnmatrix.c:309:0
	.fnstart
	.cfi_startproc
@ %bb.0:
	@DEBUG_VALUE: lv_btnmatrix_get_btn_text:obj <- $r0
	@DEBUG_VALUE: lv_btnmatrix_get_btn_text:btn_id <- $r1
	.save	{r4, r5, r6, r7, r8, r9, r10, r11, lr}
	push.w	{r4, r5, r6, r7, r8, r9, r10, r11, lr}
	.cfi_def_cfa_offset 36
	.cfi_offset lr, -4
	.cfi_offset r11, -8
	.cfi_offset r10, -12
	.cfi_offset r9, -16
	.cfi_offset r8, -20
	.cfi_offset r7, -24
	.cfi_offset r6, -28
	.cfi_offset r5, -32
	.cfi_offset r4, -36
	.pad	#4
	sub	sp, #4
	.cfi_def_cfa_offset 40
	mov	r4, r1
.Ltmp628:
	@DEBUG_VALUE: lv_btnmatrix_get_btn_text:btn_id <- $r4
	movw	r1, #65535
	@DEBUG_VALUE: lv_btnmatrix_get_btn_text:btn_id <- $r4
.Ltmp629:
	.loc	12 312 8 prologue_end           @ ../GUILib/src/widgets/lv_btnmatrix.c:312:8
	cmp	r4, r1
	@DEBUG_VALUE: lv_btnmatrix_get_btn_text:obj <- $r0
	beq	.LBB17_8
.Ltmp630:
@ %bb.1:
	@DEBUG_VALUE: lv_btnmatrix_get_btn_text:btn_id <- $r4
	@DEBUG_VALUE: lv_btnmatrix_get_btn_text:obj <- $r0
	.loc	12 315 23                       @ ../GUILib/src/widgets/lv_btnmatrix.c:315:23
	ldrh.w	r8, [r0, #48]
	mov	r9, r0
.Ltmp631:
	@DEBUG_VALUE: lv_btnmatrix_get_btn_text:obj <- $r9
	@DEBUG_VALUE: lv_btnmatrix_get_btn_text:obj <- $r9
	@DEBUG_VALUE: lv_btnmatrix_get_btn_text:btnm <- $r9
	.loc	12 315 8 is_stmt 0              @ ../GUILib/src/widgets/lv_btnmatrix.c:315:8
	cmp	r8, r4
	blo	.LBB17_8
.Ltmp632:
@ %bb.2:
	@DEBUG_VALUE: lv_btnmatrix_get_btn_text:btnm <- $r9
	@DEBUG_VALUE: lv_btnmatrix_get_btn_text:obj <- $r9
	@DEBUG_VALUE: lv_btnmatrix_get_btn_text:btn_id <- $r4
	@DEBUG_VALUE: lv_btnmatrix_get_btn_text:btn_i <- 0
	@DEBUG_VALUE: lv_btnmatrix_get_btn_text:txt_i <- 0
	.loc	12 322 5 is_stmt 1              @ ../GUILib/src/widgets/lv_btnmatrix.c:322:5
	cbz	r4, .LBB17_6
.Ltmp633:
@ %bb.3:
	@DEBUG_VALUE: lv_btnmatrix_get_btn_text:btnm <- $r9
	@DEBUG_VALUE: lv_btnmatrix_get_btn_text:obj <- $r9
	@DEBUG_VALUE: lv_btnmatrix_get_btn_text:btn_id <- $r4
	@DEBUG_VALUE: lv_btnmatrix_get_btn_text:txt_i <- 0
	@DEBUG_VALUE: lv_btnmatrix_get_btn_text:btn_i <- 0
	.loc	12 0 5 is_stmt 0                @ ../GUILib/src/widgets/lv_btnmatrix.c:0:5
	ldr.w	r11, [r9, #36]
	movw	r10, :lower16:.L.str
	movs	r5, #0
	movt	r10, :upper16:.L.str
	movs	r7, #0
.Ltmp634:
	.p2align	2
.LBB17_4:                               @ =>This Inner Loop Header: Depth=1
	@DEBUG_VALUE: lv_btnmatrix_get_btn_text:btnm <- $r9
	@DEBUG_VALUE: lv_btnmatrix_get_btn_text:obj <- $r9
	@DEBUG_VALUE: lv_btnmatrix_get_btn_text:btn_id <- $r4
	@DEBUG_VALUE: lv_btnmatrix_get_btn_text:btn_i <- $r5
	@DEBUG_VALUE: lv_btnmatrix_get_btn_text:txt_i <- $r7
	.loc	12 324 14 is_stmt 1             @ ../GUILib/src/widgets/lv_btnmatrix.c:324:14
	adds	r6, r7, #1
.Ltmp635:
	@DEBUG_VALUE: lv_btnmatrix_get_btn_text:txt_i <- $r6
	.loc	12 325 19                       @ ../GUILib/src/widgets/lv_btnmatrix.c:325:19
	uxth	r0, r6
	ldr.w	r0, [r11, r0, lsl #2]
	.loc	12 325 12 is_stmt 0             @ ../GUILib/src/widgets/lv_btnmatrix.c:325:12
	mov	r1, r10
.Ltmp636:
	.loc	12 323 14 is_stmt 1             @ ../GUILib/src/widgets/lv_btnmatrix.c:323:14
	adds	r5, #1
.Ltmp637:
	@DEBUG_VALUE: lv_btnmatrix_get_btn_text:btn_i <- $r5
	.loc	12 325 12                       @ ../GUILib/src/widgets/lv_btnmatrix.c:325:12
	bl	strcmp
.Ltmp638:
	.loc	12 325 12 is_stmt 0             @ ../GUILib/src/widgets/lv_btnmatrix.c:325:12
	cmp	r0, #0
	it	eq
	addeq	r6, r7, #2
.Ltmp639:
	@DEBUG_VALUE: lv_btnmatrix_get_btn_text:txt_i <- $r6
	.loc	12 322 5 is_stmt 1              @ ../GUILib/src/widgets/lv_btnmatrix.c:322:5
	cmp	r5, r4
	mov	r7, r6
	bne	.LBB17_4
.Ltmp640:
@ %bb.5:
	@DEBUG_VALUE: lv_btnmatrix_get_btn_text:btnm <- $r9
	@DEBUG_VALUE: lv_btnmatrix_get_btn_text:obj <- $r9
	@DEBUG_VALUE: lv_btnmatrix_get_btn_text:txt_i <- $r6
	@DEBUG_VALUE: lv_btnmatrix_get_btn_text:btn_i <- $r5
	@DEBUG_VALUE: lv_btnmatrix_get_btn_text:btn_id <- $r4
	.loc	12 328 14                       @ ../GUILib/src/widgets/lv_btnmatrix.c:328:14
	uxth	r0, r6
	b	.LBB17_7
.Ltmp641:
.LBB17_6:
	@DEBUG_VALUE: lv_btnmatrix_get_btn_text:btnm <- $r9
	@DEBUG_VALUE: lv_btnmatrix_get_btn_text:obj <- $r9
	@DEBUG_VALUE: lv_btnmatrix_get_btn_text:btn_id <- $r4
	@DEBUG_VALUE: lv_btnmatrix_get_btn_text:txt_i <- 0
	@DEBUG_VALUE: lv_btnmatrix_get_btn_text:btn_i <- 0
	.loc	12 0 14 is_stmt 0               @ ../GUILib/src/widgets/lv_btnmatrix.c:0:14
	movs	r0, #0
.Ltmp642:
.LBB17_7:
	@DEBUG_VALUE: lv_btnmatrix_get_btn_text:btnm <- $r9
	@DEBUG_VALUE: lv_btnmatrix_get_btn_text:obj <- $r9
	@DEBUG_VALUE: lv_btnmatrix_get_btn_text:btn_id <- $r4
	.loc	12 328 8                        @ ../GUILib/src/widgets/lv_btnmatrix.c:328:8
	cmp	r8, r4
	bne	.LBB17_10
.Ltmp643:
.LBB17_8:
	@DEBUG_VALUE: lv_btnmatrix_get_btn_text:btn_id <- $r4
	.loc	12 0 8                          @ ../GUILib/src/widgets/lv_btnmatrix.c:0:8
	movs	r0, #0
.Ltmp644:
.LBB17_9:
	@DEBUG_VALUE: lv_btnmatrix_get_btn_text:btn_id <- $r4
	.loc	12 331 1 is_stmt 1              @ ../GUILib/src/widgets/lv_btnmatrix.c:331:1
	add	sp, #4
	pop.w	{r4, r5, r6, r7, r8, r9, r10, r11, pc}
.Ltmp645:
.LBB17_10:
	@DEBUG_VALUE: lv_btnmatrix_get_btn_text:btnm <- $r9
	@DEBUG_VALUE: lv_btnmatrix_get_btn_text:obj <- $r9
	@DEBUG_VALUE: lv_btnmatrix_get_btn_text:btn_id <- $r4
	.loc	12 330 18                       @ ../GUILib/src/widgets/lv_btnmatrix.c:330:18
	ldr.w	r1, [r9, #36]
	.loc	12 330 12 is_stmt 0             @ ../GUILib/src/widgets/lv_btnmatrix.c:330:12
	ldr.w	r0, [r1, r0, lsl #2]
	b	.LBB17_9
.Ltmp646:
.Lfunc_end17:
	.size	lv_btnmatrix_get_btn_text, .Lfunc_end17-lv_btnmatrix_get_btn_text
	.cfi_endproc
	.cantunwind
	.fnend
                                        @ -- End function
	.section	.text.lv_btnmatrix_has_btn_ctrl,"ax",%progbits
	.hidden	lv_btnmatrix_has_btn_ctrl       @ -- Begin function lv_btnmatrix_has_btn_ctrl
	.globl	lv_btnmatrix_has_btn_ctrl
	.p2align	1
	.type	lv_btnmatrix_has_btn_ctrl,%function
	.code	16                              @ @lv_btnmatrix_has_btn_ctrl
	.thumb_func
lv_btnmatrix_has_btn_ctrl:
.Lfunc_begin18:
	.loc	12 334 0 is_stmt 1              @ ../GUILib/src/widgets/lv_btnmatrix.c:334:0
	.fnstart
	.cfi_startproc
@ %bb.0:
	@DEBUG_VALUE: lv_btnmatrix_has_btn_ctrl:obj <- $r0
	@DEBUG_VALUE: lv_btnmatrix_has_btn_ctrl:obj <- $r0
	@DEBUG_VALUE: lv_btnmatrix_has_btn_ctrl:btn_id <- $r1
	@DEBUG_VALUE: lv_btnmatrix_has_btn_ctrl:ctrl <- $r2
	@DEBUG_VALUE: lv_btnmatrix_has_btn_ctrl:ctrl <- undef
	@DEBUG_VALUE: lv_btnmatrix_has_btn_ctrl:btnm <- $r0
	.loc	12 338 24 prologue_end          @ ../GUILib/src/widgets/lv_btnmatrix.c:338:24
	ldrh	r3, [r0, #48]
.Ltmp647:
	@DEBUG_VALUE: lv_btnmatrix_has_btn_ctrl:btn_id <- $r1
	.loc	12 338 8 is_stmt 0              @ ../GUILib/src/widgets/lv_btnmatrix.c:338:8
	cmp	r3, r1
.Ltmp648:
	@DEBUG_VALUE: lv_btnmatrix_has_btn_ctrl:ctrl <- $r2
	.loc	12 0 8                          @ ../GUILib/src/widgets/lv_btnmatrix.c:0:8
	itt	ls
	movls	r0, #0
.Ltmp649:
	@DEBUG_VALUE: lv_btnmatrix_has_btn_ctrl:obj <- [DW_OP_LLVM_entry_value 1] $r0
	.loc	12 341 1 is_stmt 1              @ ../GUILib/src/widgets/lv_btnmatrix.c:341:1
	bxls	lr
.Ltmp650:
.LBB18_1:
	@DEBUG_VALUE: lv_btnmatrix_has_btn_ctrl:ctrl <- $r2
	@DEBUG_VALUE: lv_btnmatrix_has_btn_ctrl:btn_id <- $r1
	@DEBUG_VALUE: lv_btnmatrix_has_btn_ctrl:obj <- [DW_OP_LLVM_entry_value 1] $r0
	@DEBUG_VALUE: lv_btnmatrix_has_btn_ctrl:btnm <- $r0
	.loc	12 340 20                       @ ../GUILib/src/widgets/lv_btnmatrix.c:340:20
	ldr	r0, [r0, #44]
.Ltmp651:
	.loc	12 340 14 is_stmt 0             @ ../GUILib/src/widgets/lv_btnmatrix.c:340:14
	ldrh.w	r0, [r0, r1, lsl #1]
	.loc	12 340 38                       @ ../GUILib/src/widgets/lv_btnmatrix.c:340:38
	ands	r0, r2
	.loc	12 340 46                       @ ../GUILib/src/widgets/lv_btnmatrix.c:340:46
	subs	r0, r0, r2
	clz	r0, r0
	lsrs	r0, r0, #5
	.loc	12 341 1 is_stmt 1              @ ../GUILib/src/widgets/lv_btnmatrix.c:341:1
	bx	lr
.Ltmp652:
.Lfunc_end18:
	.size	lv_btnmatrix_has_btn_ctrl, .Lfunc_end18-lv_btnmatrix_has_btn_ctrl
	.cfi_endproc
	.cantunwind
	.fnend
                                        @ -- End function
	.section	.text.lv_btnmatrix_get_one_checked,"ax",%progbits
	.hidden	lv_btnmatrix_get_one_checked    @ -- Begin function lv_btnmatrix_get_one_checked
	.globl	lv_btnmatrix_get_one_checked
	.p2align	1
	.type	lv_btnmatrix_get_one_checked,%function
	.code	16                              @ @lv_btnmatrix_get_one_checked
	.thumb_func
lv_btnmatrix_get_one_checked:
.Lfunc_begin19:
	.loc	12 344 0                        @ ../GUILib/src/widgets/lv_btnmatrix.c:344:0
	.fnstart
	.cfi_startproc
@ %bb.0:
	@DEBUG_VALUE: lv_btnmatrix_get_one_checked:obj <- $r0
	@DEBUG_VALUE: lv_btnmatrix_get_one_checked:obj <- $r0
	@DEBUG_VALUE: lv_btnmatrix_get_one_checked:btnm <- $r0
	.loc	12 349 18 prologue_end          @ ../GUILib/src/widgets/lv_btnmatrix.c:349:18
	ldrb.w	r0, [r0, #54]
.Ltmp653:
	@DEBUG_VALUE: lv_btnmatrix_get_one_checked:obj <- [DW_OP_LLVM_entry_value 1] $r0
	and	r0, r0, #1
	.loc	12 349 5 is_stmt 0              @ ../GUILib/src/widgets/lv_btnmatrix.c:349:5
	bx	lr
.Ltmp654:
.Lfunc_end19:
	.size	lv_btnmatrix_get_one_checked, .Lfunc_end19-lv_btnmatrix_get_one_checked
	.cfi_endproc
	.cantunwind
	.fnend
                                        @ -- End function
	.section	.text.get_button_from_point,"ax",%progbits
	.p2align	1                               @ -- Begin function get_button_from_point
	.type	get_button_from_point,%function
	.code	16                              @ @get_button_from_point
	.thumb_func
get_button_from_point:
.Lfunc_begin20:
	.loc	12 922 0 is_stmt 1              @ ../GUILib/src/widgets/lv_btnmatrix.c:922:0
	.fnstart
	.cfi_startproc
@ %bb.0:
	@DEBUG_VALUE: get_button_from_point:obj <- $r0
	@DEBUG_VALUE: get_button_from_point:p <- $r1
	.save	{r4, r5, r6, r7, r8, r9, r10, r11, lr}
	push.w	{r4, r5, r6, r7, r8, r9, r10, r11, lr}
	.cfi_def_cfa_offset 36
	.cfi_offset lr, -4
	.cfi_offset r11, -8
	.cfi_offset r10, -12
	.cfi_offset r9, -16
	.cfi_offset r8, -20
	.cfi_offset r7, -24
	.cfi_offset r6, -28
	.cfi_offset r5, -32
	.cfi_offset r4, -36
	.pad	#44
	sub	sp, #44
	.cfi_def_cfa_offset 80
	str	r1, [sp, #24]                   @ 4-byte Spill
.Ltmp655:
	@DEBUG_VALUE: get_button_from_point:p <- [DW_OP_plus_uconst 24] [$sp+0]
	add	r1, sp, #36
	mov	r9, r0
.Ltmp656:
	@DEBUG_VALUE: get_button_from_point:btnm <- $r9
	@DEBUG_VALUE: get_button_from_point:p <- [DW_OP_plus_uconst 24] [$sp+0]
	@DEBUG_VALUE: get_button_from_point:obj <- $r9
	.loc	12 927 5 prologue_end           @ ../GUILib/src/widgets/lv_btnmatrix.c:927:5
	bl	lv_obj_get_coords
.Ltmp657:
	.loc	12 929 20                       @ ../GUILib/src/widgets/lv_btnmatrix.c:929:20
	mov	r0, r9
	bl	lv_obj_get_width
.Ltmp658:
	str	r0, [sp, #4]                    @ 4-byte Spill
.Ltmp659:
	@DEBUG_VALUE: get_button_from_point:w <- undef
	.loc	12 930 20                       @ ../GUILib/src/widgets/lv_btnmatrix.c:930:20
	mov	r0, r9
	bl	lv_obj_get_height
.Ltmp660:
	str	r0, [sp]                        @ 4-byte Spill
.Ltmp661:
	@DEBUG_VALUE: lv_obj_get_style_pad_left:part <- 0
	@DEBUG_VALUE: lv_obj_get_style_pad_left:obj <- $r9
	@DEBUG_VALUE: get_button_from_point:h <- undef
	.loc	18 105 26                       @ ../GUILib/src/widgets/../core/lv_obj_style_gen.h:105:26
	mov	r0, r9
	movs	r1, #0
	movw	r2, #6162
	mov.w	r11, #0
	bl	lv_obj_get_style_prop
.Ltmp662:
	mov	r5, r0
.Ltmp663:
	@DEBUG_VALUE: lv_obj_get_style_pad_right:part <- 0
	@DEBUG_VALUE: lv_obj_get_style_pad_right:obj <- $r9
	@DEBUG_VALUE: get_button_from_point:pleft <- [DW_OP_LLVM_convert 32 7, DW_OP_LLVM_convert 16 7, DW_OP_stack_value] $r5
	@DEBUG_VALUE: lv_obj_get_style_pad_left:v <- $r5
	.loc	18 111 26                       @ ../GUILib/src/widgets/../core/lv_obj_style_gen.h:111:26
	mov	r0, r9
	movs	r1, #0
	movw	r2, #6163
	bl	lv_obj_get_style_prop
.Ltmp664:
	mov	r4, r0
.Ltmp665:
	@DEBUG_VALUE: get_button_from_point:pright <- $r4
	@DEBUG_VALUE: lv_obj_get_style_pad_right:v <- $r4
	.loc	18 112 12                       @ ../GUILib/src/widgets/../core/lv_obj_style_gen.h:112:12
	sxth	r0, r0
.Ltmp666:
	.loc	18 93 26                        @ ../GUILib/src/widgets/../core/lv_obj_style_gen.h:93:26
	str	r0, [sp, #20]                   @ 4-byte Spill
.Ltmp667:
	@DEBUG_VALUE: lv_obj_get_style_pad_top:part <- 0
	@DEBUG_VALUE: lv_obj_get_style_pad_top:obj <- $r9
	mov	r0, r9
	movs	r1, #0
	movw	r2, #6160
	bl	lv_obj_get_style_prop
.Ltmp668:
	mov	r8, r0
.Ltmp669:
	@DEBUG_VALUE: get_button_from_point:ptop <- $r8
	@DEBUG_VALUE: lv_obj_get_style_pad_top:v <- $r8
	.loc	18 94 12                        @ ../GUILib/src/widgets/../core/lv_obj_style_gen.h:94:12
	sxth	r0, r0
.Ltmp670:
	.loc	18 99 26                        @ ../GUILib/src/widgets/../core/lv_obj_style_gen.h:99:26
	str	r0, [sp, #16]                   @ 4-byte Spill
.Ltmp671:
	@DEBUG_VALUE: lv_obj_get_style_pad_bottom:part <- 0
	@DEBUG_VALUE: lv_obj_get_style_pad_bottom:obj <- $r9
	mov	r0, r9
	movs	r1, #0
	movw	r2, #6161
	bl	lv_obj_get_style_prop
.Ltmp672:
	mov	r10, r0
.Ltmp673:
	@DEBUG_VALUE: get_button_from_point:pbottom <- $r10
	@DEBUG_VALUE: lv_obj_get_style_pad_bottom:v <- $r10
	.loc	18 100 12                       @ ../GUILib/src/widgets/../core/lv_obj_style_gen.h:100:12
	sxth	r6, r0
.Ltmp674:
	@DEBUG_VALUE: lv_obj_get_style_pad_row:part <- 0
	@DEBUG_VALUE: lv_obj_get_style_pad_row:obj <- $r9
	.loc	18 117 26                       @ ../GUILib/src/widgets/../core/lv_obj_style_gen.h:117:26
	mov	r0, r9
	movs	r1, #0
	movw	r2, #6164
	bl	lv_obj_get_style_prop
.Ltmp675:
	mov	r7, r0
.Ltmp676:
	@DEBUG_VALUE: lv_obj_get_style_pad_column:part <- 0
	@DEBUG_VALUE: lv_obj_get_style_pad_column:obj <- $r9
	@DEBUG_VALUE: get_button_from_point:prow <- [DW_OP_LLVM_convert 32 7, DW_OP_LLVM_convert 16 7, DW_OP_stack_value] $r7
	@DEBUG_VALUE: lv_obj_get_style_pad_row:v <- $r7
	.loc	18 123 26                       @ ../GUILib/src/widgets/../core/lv_obj_style_gen.h:123:26
	mov	r0, r9
	movs	r1, #0
	movw	r2, #6165
	bl	lv_obj_get_style_prop
.Ltmp677:
	.loc	12 944 14                       @ ../GUILib/src/widgets/lv_btnmatrix.c:944:14
	ldr	r1, [sp, #20]                   @ 4-byte Reload
	movs	r3, #22
.Ltmp678:
	@DEBUG_VALUE: get_button_from_point:pcol <- [DW_OP_LLVM_convert 32 7, DW_OP_LLVM_convert 16 7, DW_OP_stack_value] undef
	@DEBUG_VALUE: get_button_from_point:prow <- [DW_OP_LLVM_convert 32 7, DW_OP_LLVM_convert 16 7, DW_OP_stack_value] undef
	cmp	r1, #22
	it	ge
	movge	r4, r3
.Ltmp679:
	@DEBUG_VALUE: get_button_from_point:pright <- $r4
	.loc	12 945 12                       @ ../GUILib/src/widgets/lv_btnmatrix.c:945:12
	ldr	r1, [sp, #16]                   @ 4-byte Reload
	mov	lr, r10
.Ltmp680:
	@DEBUG_VALUE: get_button_from_point:pbottom <- $lr
	@DEBUG_VALUE: get_button_from_point:pbottom <- $lr
	cmp	r1, #22
	it	ge
	movge	r8, r3
.Ltmp681:
	@DEBUG_VALUE: get_button_from_point:ptop <- $r8
	.loc	12 948 26                       @ ../GUILib/src/widgets/lv_btnmatrix.c:948:26
	ldrh.w	r1, [r9, #48]
.Ltmp682:
	.loc	12 946 15                       @ ../GUILib/src/widgets/lv_btnmatrix.c:946:15
	cmp	r6, #22
	@DEBUG_VALUE: get_button_from_point:btnm <- $r9
	@DEBUG_VALUE: get_button_from_point:obj <- $r9
	it	ge
	movge	lr, r3
.Ltmp683:
	@DEBUG_VALUE: get_button_from_point:i <- 0
	@DEBUG_VALUE: get_button_from_point:pbottom <- $lr
	.loc	12 948 5                        @ ../GUILib/src/widgets/lv_btnmatrix.c:948:5
	cmp	r1, #0
	@DEBUG_VALUE: lv_obj_get_style_pad_column:v <- $r0
	@DEBUG_VALUE: get_button_from_point:pcol <- [DW_OP_LLVM_convert 32 7, DW_OP_LLVM_convert 16 7, DW_OP_stack_value] undef
	@DEBUG_VALUE: lv_obj_get_style_pad_column:part <- 0
	@DEBUG_VALUE: lv_obj_get_style_pad_column:obj <- $r9
	@DEBUG_VALUE: get_button_from_point:prow <- [DW_OP_LLVM_convert 32 7, DW_OP_LLVM_convert 16 7, DW_OP_stack_value] undef
	beq	.LBB20_4
.Ltmp684:
@ %bb.1:
	@DEBUG_VALUE: lv_obj_get_style_pad_left:obj <- $r9
	@DEBUG_VALUE: get_button_from_point:obj <- $r9
	@DEBUG_VALUE: get_button_from_point:btnm <- $r9
	@DEBUG_VALUE: get_button_from_point:ptop <- $r8
	@DEBUG_VALUE: lv_obj_get_style_pad_left:v <- $r5
	@DEBUG_VALUE: get_button_from_point:pleft <- [DW_OP_LLVM_convert 32 7, DW_OP_LLVM_convert 16 7, DW_OP_stack_value] $r5
	@DEBUG_VALUE: get_button_from_point:pright <- $r4
	@DEBUG_VALUE: get_button_from_point:p <- [DW_OP_plus_uconst 24] [$sp+0]
	@DEBUG_VALUE: get_button_from_point:pbottom <- $lr
	@DEBUG_VALUE: get_button_from_point:i <- 0
	@DEBUG_VALUE: lv_obj_get_style_pad_left:part <- 0
	.loc	12 0 0 is_stmt 0                @ ../GUILib/src/widgets/lv_btnmatrix.c:0:0
	uxth	r1, r7
	add.w	r1, r7, r1, lsr #15
	sxth	r1, r1
	and	r2, r7, #1
	add.w	r1, r2, r1, asr #1
	adds	r2, r1, #1
	uxth	r1, r0
	add.w	r1, r0, r1, lsr #15
	sxth	r1, r1
	and	r0, r0, #1
	add.w	r0, r0, r1, asr #1
	add.w	r10, r0, #1
	sxth.w	r0, r8
	.loc	12 943 12 is_stmt 1             @ ../GUILib/src/widgets/lv_btnmatrix.c:943:12
	cmp.w	r10, #22
.Ltmp685:
	.loc	18 106 12                       @ ../GUILib/src/widgets/../core/lv_obj_style_gen.h:106:12
	str	r0, [sp, #12]                   @ 4-byte Spill
	sxth	r0, r5
.Ltmp686:
	.loc	12 943 12                       @ ../GUILib/src/widgets/lv_btnmatrix.c:943:12
	it	ge
	movge	r10, r3
.Ltmp687:
	@DEBUG_VALUE: get_button_from_point:pcol <- [DW_OP_LLVM_convert 32 7, DW_OP_LLVM_convert 16 7, DW_OP_stack_value] $r10
	.loc	12 942 12                       @ ../GUILib/src/widgets/lv_btnmatrix.c:942:12
	cmp	r2, #22
	it	ge
	movge	r2, r3
.Ltmp688:
	@DEBUG_VALUE: get_button_from_point:prow <- [DW_OP_LLVM_convert 32 7, DW_OP_LLVM_convert 16 7, DW_OP_stack_value] $r2
	.loc	12 0 12 is_stmt 0               @ ../GUILib/src/widgets/lv_btnmatrix.c:0:12
	str	r2, [sp, #16]                   @ 4-byte Spill
.Ltmp689:
	@DEBUG_VALUE: get_button_from_point:prow <- [DW_OP_plus_uconst 16, DW_OP_LLVM_convert 32 7, DW_OP_LLVM_convert 16 7, DW_OP_stack_value] [$sp+0]
	str	r0, [sp, #8]                    @ 4-byte Spill
.Ltmp690:
	@DEBUG_VALUE: get_button_from_point:prow <- [DW_OP_plus_uconst 16, DW_OP_deref_size 4, DW_OP_LLVM_convert 32 7, DW_OP_LLVM_convert 16 7, DW_OP_stack_value] $sp
	cmp	r0, #22
	it	lt
	movlt	r3, r5
	ldr	r1, [sp, #4]                    @ 4-byte Reload
	sxth	r0, r4
	subs	r0, r1, r0
	subs	r0, #2
	ldr	r1, [sp]                        @ 4-byte Reload
	str	r0, [sp, #4]                    @ 4-byte Spill
	sxth.w	r0, lr
	subs	r0, r1, r0
	subs	r0, #2
	movs	r6, #0
	movs	r7, #0
	mov	r8, r9
.Ltmp691:
	mov	r12, r9
	@DEBUG_VALUE: lv_obj_get_style_pad_column:obj <- $r12
.Ltmp692:
	@DEBUG_VALUE: get_button_from_point:obj <- $r12
	@DEBUG_VALUE: get_button_from_point:btnm <- $r12
	str	r4, [sp, #20]                   @ 4-byte Spill
.Ltmp693:
	@DEBUG_VALUE: get_button_from_point:pright <- [DW_OP_plus_uconst 20] [$sp+0]
	str	r0, [sp]                        @ 4-byte Spill
.Ltmp694:
	.p2align	2
.LBB20_2:                               @ =>This Inner Loop Header: Depth=1
	@DEBUG_VALUE: get_button_from_point:pcol <- [DW_OP_LLVM_convert 32 7, DW_OP_LLVM_convert 16 7, DW_OP_stack_value] $r10
	@DEBUG_VALUE: get_button_from_point:prow <- [DW_OP_plus_uconst 16, DW_OP_deref_size 4, DW_OP_LLVM_convert 32 7, DW_OP_LLVM_convert 16 7, DW_OP_stack_value] $sp
	@DEBUG_VALUE: get_button_from_point:p <- [DW_OP_plus_uconst 24] [$sp+0]
	@DEBUG_VALUE: get_button_from_point:pbottom <- $lr
	@DEBUG_VALUE: get_button_from_point:i <- $r6
	.loc	12 949 40 is_stmt 1             @ ../GUILib/src/widgets/lv_btnmatrix.c:949:40
	ldr.w	r0, [r8, #40]
.Ltmp695:
	@DEBUG_VALUE: lv_area_copy:src <- undef
	@DEBUG_VALUE: lv_area_copy:dest <- [DW_OP_plus_uconst 28, DW_OP_stack_value] $sp
	.loc	12 950 12                       @ ../GUILib/src/widgets/lv_btnmatrix.c:950:12
	ldr	r5, [sp, #8]                    @ 4-byte Reload
.Ltmp696:
	.loc	6 112 21                        @ ../GUILib/src/hal/../misc/lv_area.h:112:21
	add.w	r1, r0, r6, lsl #3
	ldrsh.w	r0, [r0, r6, lsl #3]
.Ltmp697:
	.loc	12 950 12                       @ ../GUILib/src/widgets/lv_btnmatrix.c:950:12
	ldrh.w	r2, [sp, #36]
	cmp	r0, r5
	mov	r9, r3
	it	gt
	movgt	r3, r10
	subs	r3, r2, r3
.Ltmp698:
	.loc	12 0 0 is_stmt 0                @ ../GUILib/src/widgets/lv_btnmatrix.c:0:0
	add	r0, r3
	strh.w	r0, [sp, #28]
.Ltmp699:
	.loc	6 113 21 is_stmt 1              @ ../GUILib/src/hal/../misc/lv_area.h:113:21
	ldrsh.w	r0, [r1, #2]
	@DEBUG_VALUE: lv_area_copy:dest <- [DW_OP_plus_uconst 28, DW_OP_stack_value] $sp
	ldr	r4, [sp, #12]                   @ 4-byte Reload
.Ltmp700:
	.loc	12 953 12                       @ ../GUILib/src/widgets/lv_btnmatrix.c:953:12
	ldrh.w	r3, [sp, #38]
	cmp	r0, r4
	ldr	r5, [sp, #16]                   @ 4-byte Reload
	it	gt
	movgt	r4, r5
	subs	r0, r0, r4
.Ltmp701:
	.loc	12 0 0 is_stmt 0                @ ../GUILib/src/widgets/lv_btnmatrix.c:0:0
	add	r0, r3
.Ltmp702:
	.loc	12 956 12 is_stmt 1             @ ../GUILib/src/widgets/lv_btnmatrix.c:956:12
	ldrsh.w	r4, [r1, #4]
.Ltmp703:
	.loc	12 960 12                       @ ../GUILib/src/widgets/lv_btnmatrix.c:960:12
	ldrsh.w	r1, [r1, #6]
.Ltmp704:
	.loc	12 0 0 is_stmt 0                @ ../GUILib/src/widgets/lv_btnmatrix.c:0:0
	strh.w	r0, [sp, #30]
.Ltmp705:
	.loc	12 956 12 is_stmt 1             @ ../GUILib/src/widgets/lv_btnmatrix.c:956:12
	ldr	r0, [sp, #4]                    @ 4-byte Reload
	cmp	r0, r4
	ldr	r0, [sp, #20]                   @ 4-byte Reload
.Ltmp706:
	@DEBUG_VALUE: get_button_from_point:pright <- $r0
	it	gt
	movgt	r0, r10
.Ltmp707:
	add	r0, r4
.Ltmp708:
	.loc	12 0 0 is_stmt 0                @ ../GUILib/src/widgets/lv_btnmatrix.c:0:0
	add	r0, r2
	strh.w	r0, [sp, #32]
.Ltmp709:
	.loc	12 960 12 is_stmt 1             @ ../GUILib/src/widgets/lv_btnmatrix.c:960:12
	ldr	r0, [sp]                        @ 4-byte Reload
.Ltmp710:
	.loc	12 964 12                       @ ../GUILib/src/widgets/lv_btnmatrix.c:964:12
	movs	r2, #0
.Ltmp711:
	.loc	12 960 12                       @ ../GUILib/src/widgets/lv_btnmatrix.c:960:12
	cmp	r0, r1
	mov	r0, lr
	it	gt
	movgt	r0, r5
	add	r0, r1
.Ltmp712:
	.loc	12 0 0 is_stmt 0                @ ../GUILib/src/widgets/lv_btnmatrix.c:0:0
	add	r0, r3
.Ltmp713:
	.loc	12 964 12 is_stmt 1             @ ../GUILib/src/widgets/lv_btnmatrix.c:964:12
	ldr	r1, [sp, #24]                   @ 4-byte Reload
.Ltmp714:
	.loc	12 0 0 is_stmt 0                @ ../GUILib/src/widgets/lv_btnmatrix.c:0:0
	strh.w	r0, [sp, #34]
.Ltmp715:
	.loc	12 964 12                       @ ../GUILib/src/widgets/lv_btnmatrix.c:964:12
	add	r0, sp, #28
	mov	r4, lr
.Ltmp716:
	@DEBUG_VALUE: get_button_from_point:pbottom <- $r4
	@DEBUG_VALUE: get_button_from_point:pbottom <- $r4
	bl	_lv_area_is_point_on
.Ltmp717:
	.loc	12 964 12                       @ ../GUILib/src/widgets/lv_btnmatrix.c:964:12
	cbnz	r0, .LBB20_5
.Ltmp718:
@ %bb.3:                                @   in Loop: Header=BB20_2 Depth=1
	@DEBUG_VALUE: get_button_from_point:pcol <- [DW_OP_LLVM_convert 32 7, DW_OP_LLVM_convert 16 7, DW_OP_stack_value] $r10
	@DEBUG_VALUE: get_button_from_point:i <- $r6
	@DEBUG_VALUE: get_button_from_point:pbottom <- $r4
	@DEBUG_VALUE: get_button_from_point:prow <- [DW_OP_plus_uconst 16, DW_OP_deref_size 4, DW_OP_LLVM_convert 32 7, DW_OP_LLVM_convert 16 7, DW_OP_stack_value] $sp
	@DEBUG_VALUE: get_button_from_point:p <- [DW_OP_plus_uconst 24] [$sp+0]
	.loc	12 948 26 is_stmt 1             @ ../GUILib/src/widgets/lv_btnmatrix.c:948:26
	ldrh.w	r11, [r8, #48]
	.loc	12 948 36 is_stmt 0             @ ../GUILib/src/widgets/lv_btnmatrix.c:948:36
	adds	r6, #1
.Ltmp719:
	.loc	12 948 5                        @ ../GUILib/src/widgets/lv_btnmatrix.c:948:5
	cmp	r6, r11
.Ltmp720:
	.loc	12 948 36                       @ ../GUILib/src/widgets/lv_btnmatrix.c:948:36
	add.w	r7, r7, #1
.Ltmp721:
	@DEBUG_VALUE: get_button_from_point:i <- $r6
	.loc	12 0 36                         @ ../GUILib/src/widgets/lv_btnmatrix.c:0:36
	mov	lr, r4
.Ltmp722:
	@DEBUG_VALUE: get_button_from_point:pbottom <- $lr
	mov	r3, r9
.Ltmp723:
	.loc	12 948 5                        @ ../GUILib/src/widgets/lv_btnmatrix.c:948:5
	blo	.LBB20_2
	b	.LBB20_6
.Ltmp724:
.LBB20_4:
	@DEBUG_VALUE: lv_obj_get_style_pad_bottom:v <- $r10
	@DEBUG_VALUE: lv_obj_get_style_pad_column:obj <- $r9
	@DEBUG_VALUE: lv_obj_get_style_pad_row:obj <- $r9
	@DEBUG_VALUE: lv_obj_get_style_pad_bottom:obj <- $r9
	@DEBUG_VALUE: lv_obj_get_style_pad_top:obj <- $r9
	@DEBUG_VALUE: lv_obj_get_style_pad_right:obj <- $r9
	@DEBUG_VALUE: lv_obj_get_style_pad_left:obj <- $r9
	@DEBUG_VALUE: get_button_from_point:obj <- $r9
	@DEBUG_VALUE: get_button_from_point:btnm <- $r9
	@DEBUG_VALUE: get_button_from_point:ptop <- $r8
	@DEBUG_VALUE: lv_obj_get_style_pad_row:v <- $r7
	@DEBUG_VALUE: lv_obj_get_style_pad_left:v <- $r5
	@DEBUG_VALUE: get_button_from_point:pleft <- [DW_OP_LLVM_convert 32 7, DW_OP_LLVM_convert 16 7, DW_OP_stack_value] $r5
	@DEBUG_VALUE: get_button_from_point:pright <- $r4
	@DEBUG_VALUE: lv_obj_get_style_pad_column:v <- $r0
	@DEBUG_VALUE: get_button_from_point:p <- [DW_OP_plus_uconst 24] [$sp+0]
	@DEBUG_VALUE: get_button_from_point:pbottom <- $lr
	@DEBUG_VALUE: get_button_from_point:i <- 0
	@DEBUG_VALUE: lv_obj_get_style_pad_column:part <- 0
	@DEBUG_VALUE: lv_obj_get_style_pad_row:part <- 0
	@DEBUG_VALUE: lv_obj_get_style_pad_bottom:part <- 0
	@DEBUG_VALUE: lv_obj_get_style_pad_top:part <- 0
	@DEBUG_VALUE: lv_obj_get_style_pad_right:part <- 0
	@DEBUG_VALUE: lv_obj_get_style_pad_left:part <- 0
	.loc	12 0 0                          @ ../GUILib/src/widgets/lv_btnmatrix.c:0:0
	movs	r7, #0
	b	.LBB20_6
.Ltmp725:
.LBB20_5:
	@DEBUG_VALUE: get_button_from_point:pcol <- [DW_OP_LLVM_convert 32 7, DW_OP_LLVM_convert 16 7, DW_OP_stack_value] $r10
	@DEBUG_VALUE: get_button_from_point:i <- $r6
	@DEBUG_VALUE: get_button_from_point:pbottom <- $r4
	@DEBUG_VALUE: get_button_from_point:prow <- [DW_OP_plus_uconst 16, DW_OP_deref_size 4, DW_OP_LLVM_convert 32 7, DW_OP_LLVM_convert 16 7, DW_OP_stack_value] $sp
	@DEBUG_VALUE: get_button_from_point:p <- [DW_OP_plus_uconst 24] [$sp+0]
	.loc	12 969 19 is_stmt 1             @ ../GUILib/src/widgets/lv_btnmatrix.c:969:19
	ldrh.w	r11, [r8, #48]
.Ltmp726:
	.loc	12 964 12                       @ ../GUILib/src/widgets/lv_btnmatrix.c:964:12
	uxth	r7, r6
.Ltmp727:
.LBB20_6:
	@DEBUG_VALUE: get_button_from_point:p <- [DW_OP_plus_uconst 24] [$sp+0]
	.loc	12 969 8                        @ ../GUILib/src/widgets/lv_btnmatrix.c:969:8
	cmp	r7, r11
	it	eq
	movweq	r7, #65535
.Ltmp728:
	@DEBUG_VALUE: get_button_from_point:i <- $r7
	.loc	12 971 5                        @ ../GUILib/src/widgets/lv_btnmatrix.c:971:5
	uxth	r0, r7
	add	sp, #44
	pop.w	{r4, r5, r6, r7, r8, r9, r10, r11, pc}
.Ltmp729:
.Lfunc_end20:
	.size	get_button_from_point, .Lfunc_end20-get_button_from_point
	.cfi_endproc
	.cantunwind
	.fnend
                                        @ -- End function
	.hidden	lv_btnmatrix_class              @ @lv_btnmatrix_class
	.type	lv_btnmatrix_class,%object
	.section	.rodata.lv_btnmatrix_class,"a",%progbits
	.globl	lv_btnmatrix_class
	.p2align	2
lv_btnmatrix_class:
	.long	lv_obj_class
	.long	lv_btnmatrix_constructor
	.long	lv_btnmatrix_destructor
	.long	0
	.long	lv_btnmatrix_event
	.short	444                             @ 0x1bc
	.short	222                             @ 0xde
	.byte	133                             @ 0x85
	.byte	3                               @ 0x3
	.byte	0                               @ 0x0
	.zero	1
	.size	lv_btnmatrix_class, 28

	.type	.L.str,%object                  @ @.str
	.section	.rodata.str1.1,"aMS",%progbits,1
.L.str:
	.asciz	"\n"
	.size	.L.str, 2

	.type	lv_btnmatrix_def_map,%object    @ @lv_btnmatrix_def_map
	.section	.data.lv_btnmatrix_def_map,"aw",%progbits
	.p2align	2
lv_btnmatrix_def_map:
	.long	.L.str.1
	.long	.L.str.2
	.long	.L.str.3
	.long	.L.str
	.long	.L.str.4
	.long	.L.str.5
	.long	.L.str.6
	.size	lv_btnmatrix_def_map, 28

	.type	.L.str.1,%object                @ @.str.1
	.section	.rodata.str1.1,"aMS",%progbits,1
.L.str.1:
	.asciz	"Btn1"
	.size	.L.str.1, 5

	.type	.L.str.2,%object                @ @.str.2
.L.str.2:
	.asciz	"Btn2"
	.size	.L.str.2, 5

	.type	.L.str.3,%object                @ @.str.3
.L.str.3:
	.asciz	"Btn3"
	.size	.L.str.3, 5

	.type	.L.str.4,%object                @ @.str.4
.L.str.4:
	.asciz	"Btn4"
	.size	.L.str.4, 5

	.type	.L.str.5,%object                @ @.str.5
.L.str.5:
	.asciz	"Btn5"
	.size	.L.str.5, 5

	.type	.L.str.6,%object                @ @.str.6
.L.str.6:
	.zero	1
	.size	.L.str.6, 1

	.file	27 "C:\\Users\\Hyacincher\\Desktop\\HyTelectrl\\Code\\Project" "../GUILib/src/hal/lv_hal_disp.h"
	.file	28 "C:\\Users\\Hyacincher\\Desktop\\HyTelectrl\\Code\\Project" "../GUILib/src/hal/../misc/lv_timer.h"
	.section	".note.GNU-stack","",%progbits
	.eabi_attribute	30, 3	@ Tag_ABI_optimization_goals
	.ARM_attribute	16, 1	@ Tag_AV_eba