	.text
	.syntax unified
	.eabi_attribute	67, "2.09"	@ Tag_conformance
	.cpu	cortex-m4
	.eabi_attribute	6, 13	@ Tag_CPU_arch
	.eabi_attribute	7, 77	@ Tag_CPU_arch_profile
	.eabi_attribute	8, 0	@ Tag_ARM_ISA_use
	.eabi_attribute	9, 2	@ Tag_THUMB_ISA_use
	.fpu	fpv4-sp-d16
	.eabi_attribute	27, 1	@ Tag_ABI_HardFP_use
	.eabi_attribute	36, 1	@ Tag_FP_HP_extension
	.eabi_attribute	34, 1	@ Tag_CPU_unaligned_access
	.eabi_attribute	17, 1	@ Tag_ABI_PCS_GOT_use
	.eabi_attribute	20, 2	@ Tag_ABI_FP_denormal
	.eabi_attribute	21, 0	@ Tag_ABI_FP_exceptions
	.eabi_attribute	23, 1	@ Tag_ABI_FP_number_model
	.eabi_attribute	24, 1	@ Tag_ABI_align_needed
	.eabi_attribute	25, 1	@ Tag_ABI_align_preserved
	.eabi_attribute	28, 1	@ Tag_ABI_VFP_args
	.eabi_attribute	38, 1	@ Tag_ABI_FP_16bit_format
	.eabi_attribute	18, 2	@ Tag_ABI_PCS_wchar_t
	.eabi_attribute	26, 1	@ Tag_ABI_enum_size
	.eabi_attribute	14, 0	@ Tag_ABI_PCS_R9_use
	.file	"lv_chart.c"
	.file	1 "C:\\Users\\Hyacincher\\Desktop\\HyTelectrl\\Code\\Project" "../GUILib/src/core/lv_obj_class.h"
	.file	2 "C:\\Users\\Hyacincher\\Desktop\\HyTelectrl\\Code\\Project" "../GUILib/src/extra/others/snapshot/../../../core/lv_obj.h"
	.file	3 "D:\\Keil MDK\\ARM\\ARMCLANG\\Bin\\..\\include" "stdint.h"
	.file	4 "C:\\Users\\Hyacincher\\Desktop\\HyTelectrl\\Code\\Project" "../GUILib/src/core/../misc/lv_ll.h"
	.file	5 "C:\\Users\\Hyacincher\\Desktop\\HyTelectrl\\Code\\Project" "../GUILib/src/core/lv_group.h"
	.file	6 "C:\\Users\\Hyacincher\\Desktop\\HyTelectrl\\Code\\Project" "../GUILib/src/core/../misc/lv_area.h"
	.file	7 "C:\\Users\\Hyacincher\\Desktop\\HyTelectrl\\Code\\Project" "../GUILib/src/core/lv_obj_scroll.h"
	.file	8 "C:\\Users\\Hyacincher\\Desktop\\HyTelectrl\\Code\\Project" "../GUILib/src/hal/../draw/../misc/lv_style.h"
	.file	9 "C:\\Users\\Hyacincher\\Desktop\\HyTelectrl\\Code\\Project" "../GUILib/src/core/../misc/lv_color.h"
	.file	10 "C:\\Users\\Hyacincher\\Desktop\\HyTelectrl\\Code\\Project" "../GUILib/src/core/lv_obj_style.h"
	.file	11 "C:\\Users\\Hyacincher\\Desktop\\HyTelectrl\\Code\\Project" "../GUILib/src/core/lv_event.h"
	.file	12 "C:\\Users\\Hyacincher\\Desktop\\HyTelectrl\\Code\\Project" "../GUILib/src/extra/widgets/chart/lv_chart.c"
	.file	13 "C:\\Users\\Hyacincher\\Desktop\\HyTelectrl\\Code\\Project" "../GUILib/src/extra/widgets/chart/lv_chart.h"
	.file	14 "C:\\Users\\Hyacincher\\Desktop\\HyTelectrl\\Code\\Project" "../GUILib/src/widgets/../misc/lv_anim.h"
	.file	15 "C:\\Users\\Hyacincher\\Desktop\\HyTelectrl\\Code\\Project" "../GUILib/src/hal/../draw/../misc/lv_types.h"
	.file	16 "C:\\Users\\Hyacincher\\Desktop\\HyTelectrl\\Code\\Project" "../GUILib/src/core/../hal/lv_hal_indev.h"
	.file	17 "C:\\Users\\Hyacincher\\Desktop\\HyTelectrl\\Code\\Project" "../GUILib/src/widgets/../misc/lv_txt.h"
	.section	.text.lv_chart_constructor,"ax",%progbits
	.p2align	1                               @ -- Begin function lv_chart_constructor
	.type	lv_chart_constructor,%function
	.code	16                              @ @lv_chart_constructor
	.thumb_func
lv_chart_constructor:
.Lfunc_begin0:
	.loc	12 641 0                        @ ../GUILib/src/extra/widgets/chart/lv_chart.c:641:0
	.fnstart
	.cfi_sections .debug_frame
	.cfi_startproc
@ %bb.0:
	@DEBUG_VALUE: lv_chart_constructor:class_p <- $r0
	@DEBUG_VALUE: lv_chart_constructor:obj <- $r1
	.save	{r4, lr}
	push	{r4, lr}
	.cfi_def_cfa_offset 8
	.cfi_offset lr, -4
	.cfi_offset r4, -8
	mov	r4, r1
.Ltmp0:
	@DEBUG_VALUE: lv_chart_constructor:chart <- $r4
	@DEBUG_VALUE: lv_chart_constructor:obj <- $r4
	.loc	12 647 25 prologue_end          @ ../GUILib/src/extra/widgets/chart/lv_chart.c:647:25
	add.w	r0, r1, #36
.Ltmp1:
	@DEBUG_VALUE: lv_chart_constructor:class_p <- [DW_OP_LLVM_entry_value 1] $r0
	.loc	12 647 5 is_stmt 0              @ ../GUILib/src/extra/widgets/chart/lv_chart.c:647:5
	movs	r1, #16
	bl	_lv_ll_init
.Ltmp2:
	.loc	12 648 25 is_stmt 1             @ ../GUILib/src/extra/widgets/chart/lv_chart.c:648:25
	add.w	r0, r4, #48
	.loc	12 648 5 is_stmt 0              @ ../GUILib/src/extra/widgets/chart/lv_chart.c:648:5
	movs	r1, #16
	bl	_lv_ll_init
.Ltmp3:
	.loc	12 0 5                          @ ../GUILib/src/extra/widgets/chart/lv_chart.c:0:5
	mov.w	r1, #6553600
	movs	r0, #0
	.loc	12 653 20 is_stmt 1             @ ../GUILib/src/extra/widgets/chart/lv_chart.c:653:20
	str.w	r1, [r4, #118]
	mov.w	r1, #6553700
	.loc	12 651 20                       @ ../GUILib/src/extra/widgets/chart/lv_chart.c:651:20
	strh.w	r0, [r4, #116]
	.loc	12 650 20                       @ ../GUILib/src/extra/widgets/chart/lv_chart.c:650:20
	strd	r0, r1, [r4, #108]
	movs	r0, #100
	movt	r0, #32767
	.loc	12 657 20                       @ ../GUILib/src/extra/widgets/chart/lv_chart.c:657:20
	str.w	r0, [r4, #122]
	movs	r0, #3
	movt	r0, #5
	.loc	12 663 24                       @ ../GUILib/src/extra/widgets/chart/lv_chart.c:663:24
	ldrb.w	r1, [r4, #136]
	.loc	12 659 24                       @ ../GUILib/src/extra/widgets/chart/lv_chart.c:659:24
	str.w	r0, [r4, #126]
	movs	r0, #10
	.loc	12 661 24                       @ ../GUILib/src/extra/widgets/chart/lv_chart.c:661:24
	strh.w	r0, [r4, #130]
	.loc	12 663 24                       @ ../GUILib/src/extra/widgets/chart/lv_chart.c:663:24
	and	r0, r1, #240
	adds	r0, #1
	.loc	12 664 24                       @ ../GUILib/src/extra/widgets/chart/lv_chart.c:664:24
	strb.w	r0, [r4, #136]
	mov.w	r0, #16777472
	.loc	12 665 24                       @ ../GUILib/src/extra/widgets/chart/lv_chart.c:665:24
	str.w	r0, [r4, #132]
	.loc	12 669 1                        @ ../GUILib/src/extra/widgets/chart/lv_chart.c:669:1
	pop	{r4, pc}
.Ltmp4:
.Lfunc_end0:
	.size	lv_chart_constructor, .Lfunc_end0-lv_chart_constructor
	.cfi_endproc
	.cantunwind
	.fnend
                                        @ -- End function
	.section	.text.lv_chart_destructor,"ax",%progbits
	.p2align	1                               @ -- Begin function lv_chart_destructor
	.type	lv_chart_destructor,%function
	.code	16                              @ @lv_chart_destructor
	.thumb_func
lv_chart_destructor:
.Lfunc_begin1:
	.loc	12 672 0                        @ ../GUILib/src/extra/widgets/chart/lv_chart.c:672:0
	.fnstart
	.cfi_startproc
@ %bb.0:
	@DEBUG_VALUE: lv_chart_destructor:class_p <- $r0
	@DEBUG_VALUE: lv_chart_destructor:obj <- $r1
	@DEBUG_VALUE: lv_chart_destructor:obj <- $r1
	.save	{r4, r5, r6, lr}
	push	{r4, r5, r6, lr}
	.cfi_def_cfa_offset 16
	.cfi_offset lr, -4
	.cfi_offset r6, -8
	.cfi_offset r5, -12
	.cfi_offset r4, -16
.Ltmp5:
	@DEBUG_VALUE: lv_chart_destructor:chart <- $r1
	@DEBUG_VALUE: lv_chart_destructor:chart <- $r1
	.loc	12 678 28 prologue_end          @ ../GUILib/src/extra/widgets/chart/lv_chart.c:678:28
	ldr	r0, [r1, #40]
.Ltmp6:
	@DEBUG_VALUE: lv_chart_destructor:class_p <- [DW_OP_LLVM_entry_value 1] $r0
	.loc	12 678 18 is_stmt 0             @ ../GUILib/src/extra/widgets/chart/lv_chart.c:678:18
	add.w	r5, r1, #36
	.loc	12 678 5                        @ ../GUILib/src/extra/widgets/chart/lv_chart.c:678:5
	cbz	r0, .LBB1_5
.Ltmp7:
@ %bb.1:
	@DEBUG_VALUE: lv_chart_destructor:chart <- $r1
	@DEBUG_VALUE: lv_chart_destructor:obj <- $r1
	@DEBUG_VALUE: lv_chart_destructor:class_p <- [DW_OP_LLVM_entry_value 1] $r0
	.loc	12 0 5                          @ ../GUILib/src/extra/widgets/chart/lv_chart.c:0:5
	mov	r4, r1
.Ltmp8:
	@DEBUG_VALUE: lv_chart_destructor:obj <- $r4
	@DEBUG_VALUE: lv_chart_destructor:obj <- $r4
	@DEBUG_VALUE: lv_chart_destructor:chart <- $r4
	.p2align	2
.LBB1_2:                                @ =>This Inner Loop Header: Depth=1
	@DEBUG_VALUE: lv_chart_destructor:chart <- $r4
	@DEBUG_VALUE: lv_chart_destructor:obj <- $r4
	@DEBUG_VALUE: lv_chart_destructor:class_p <- [DW_OP_LLVM_entry_value 1] $r0
	.loc	12 679 15 is_stmt 1             @ ../GUILib/src/extra/widgets/chart/lv_chart.c:679:15
	mov	r0, r5
	bl	_lv_ll_get_head
.Ltmp9:
	mov	r6, r0
.Ltmp10:
	@DEBUG_VALUE: lv_chart_destructor:ser <- $r6
	.loc	12 681 18                       @ ../GUILib/src/extra/widgets/chart/lv_chart.c:681:18
	ldrb	r0, [r0, #12]
.Ltmp11:
	.loc	12 681 12 is_stmt 0             @ ../GUILib/src/extra/widgets/chart/lv_chart.c:681:12
	lsls	r0, r0, #29
	bmi	.LBB1_4
.Ltmp12:
@ %bb.3:                                @   in Loop: Header=BB1_2 Depth=1
	@DEBUG_VALUE: lv_chart_destructor:ser <- $r6
	@DEBUG_VALUE: lv_chart_destructor:chart <- $r4
	@DEBUG_VALUE: lv_chart_destructor:obj <- $r4
	@DEBUG_VALUE: lv_chart_destructor:class_p <- [DW_OP_LLVM_entry_value 1] $r0
	@DEBUG_VALUE: lv_chart_destructor:ser <- $r6
	.loc	12 681 55                       @ ../GUILib/src/extra/widgets/chart/lv_chart.c:681:55
	ldr	r0, [r6, #4]
	.loc	12 681 38                       @ ../GUILib/src/extra/widgets/chart/lv_chart.c:681:38
	bl	lv_mem_free
.Ltmp13:
.LBB1_4:                                @   in Loop: Header=BB1_2 Depth=1
	@DEBUG_VALUE: lv_chart_destructor:ser <- $r6
	@DEBUG_VALUE: lv_chart_destructor:chart <- $r4
	@DEBUG_VALUE: lv_chart_destructor:obj <- $r4
	@DEBUG_VALUE: lv_chart_destructor:class_p <- [DW_OP_LLVM_entry_value 1] $r0
	.loc	12 683 9 is_stmt 1              @ ../GUILib/src/extra/widgets/chart/lv_chart.c:683:9
	mov	r0, r5
	mov	r1, r6
	bl	_lv_ll_remove
.Ltmp14:
	.loc	12 684 9                        @ ../GUILib/src/extra/widgets/chart/lv_chart.c:684:9
	mov	r0, r6
	bl	lv_mem_free
.Ltmp15:
	.loc	12 678 28                       @ ../GUILib/src/extra/widgets/chart/lv_chart.c:678:28
	ldr	r0, [r4, #40]
	.loc	12 678 5 is_stmt 0              @ ../GUILib/src/extra/widgets/chart/lv_chart.c:678:5
	cmp	r0, #0
	bne	.LBB1_2
.Ltmp16:
.LBB1_5:
	@DEBUG_VALUE: lv_chart_destructor:class_p <- [DW_OP_LLVM_entry_value 1] $r0
	.loc	12 686 5 is_stmt 1              @ ../GUILib/src/extra/widgets/chart/lv_chart.c:686:5
	mov	r0, r5
	pop.w	{r4, r5, r6, lr}
.Ltmp17:
	b	_lv_ll_clear
.Ltmp18:
.Lfunc_end1:
	.size	lv_chart_destructor, .Lfunc_end1-lv_chart_destructor
	.cfi_endproc
	.cantunwind
	.fnend
                                        @ -- End function
	.section	.text.lv_chart_event,"ax",%progbits
	.p2align	1                               @ -- Begin function lv_chart_event
	.type	lv_chart_event,%function
	.code	16                              @ @lv_chart_event
	.thumb_func
lv_chart_event:
.Lfunc_begin2:
	.loc	12 692 0                        @ ../GUILib/src/extra/widgets/chart/lv_chart.c:692:0
	.fnstart
	.cfi_startproc
@ %bb.0:
	@DEBUG_VALUE: lv_chart_event:class_p <- $r0
	@DEBUG_VALUE: lv_chart_event:e <- $r1
	.save	{r4, r5, r6, r7, r8, r9, r10, r11, lr}
	push.w	{r4, r5, r6, r7, r8, r9, r10, r11, lr}
	.cfi_def_cfa_offset 36
	.cfi_offset lr, -4
	.cfi_offset r11, -8
	.cfi_offset r10, -12
	.cfi_offset r9, -16
	.cfi_offset r8, -20
	.cfi_offset r7, -24
	.cfi_offset r6, -28
	.cfi_offset r5, -32
	.cfi_offset r4, -36
	.pad	#316
	sub	sp, #316
	.cfi_def_cfa_offset 352
.Ltmp19:
	.loc	12 698 11 prologue_end          @ ../GUILib/src/extra/widgets/chart/lv_chart.c:698:11
	movw	r7, :lower16:lv_chart_class
	movt	r7, :upper16:lv_chart_class
	mov	r0, r7
.Ltmp20:
	@DEBUG_VALUE: lv_chart_event:class_p <- [DW_OP_LLVM_entry_value 1] $r0
	.loc	12 0 11 is_stmt 0               @ ../GUILib/src/extra/widgets/chart/lv_chart.c:0:11
	mov	r6, r1
.Ltmp21:
	@DEBUG_VALUE: lv_chart_event:e <- $r6
	.loc	12 698 11                       @ ../GUILib/src/extra/widgets/chart/lv_chart.c:698:11
	bl	lv_obj_event_base
.Ltmp22:
	@DEBUG_VALUE: lv_chart_event:res <- $r0
	.loc	12 699 8 is_stmt 1              @ ../GUILib/src/extra/widgets/chart/lv_chart.c:699:8
	cmp	r0, #1
	bne.w	.LBB2_162
.Ltmp23:
@ %bb.1:
	@DEBUG_VALUE: lv_chart_event:e <- $r6
	@DEBUG_VALUE: lv_chart_event:res <- $r0
	@DEBUG_VALUE: lv_chart_event:class_p <- [DW_OP_LLVM_entry_value 1] $r0
	.loc	12 701 28                       @ ../GUILib/src/extra/widgets/chart/lv_chart.c:701:28
	mov	r0, r6
.Ltmp24:
	bl	lv_event_get_code
.Ltmp25:
	mov	r5, r0
.Ltmp26:
	@DEBUG_VALUE: lv_chart_event:code <- undef
	.loc	12 702 22                       @ ../GUILib/src/extra/widgets/chart/lv_chart.c:702:22
	mov	r0, r6
	bl	lv_event_get_target
.Ltmp27:
	.loc	12 705 8                        @ ../GUILib/src/extra/widgets/chart/lv_chart.c:705:8
	cmp	r5, #20
	.loc	12 702 22                       @ ../GUILib/src/extra/widgets/chart/lv_chart.c:702:22
	mov	r4, r0
.Ltmp28:
	@DEBUG_VALUE: lv_chart_event:chart <- $r4
	@DEBUG_VALUE: lv_chart_event:obj <- $r4
	.loc	12 0 22 is_stmt 0               @ ../GUILib/src/extra/widgets/chart/lv_chart.c:0:22
	str	r0, [sp, #88]                   @ 4-byte Spill
.Ltmp29:
	@DEBUG_VALUE: lv_chart_event:chart <- [DW_OP_plus_uconst 88] [$sp+0]
	@DEBUG_VALUE: lv_chart_event:obj <- [DW_OP_plus_uconst 88] [$sp+0]
	.loc	12 705 8 is_stmt 1              @ ../GUILib/src/extra/widgets/chart/lv_chart.c:705:8
	bgt	.LBB2_6
.Ltmp30:
@ %bb.2:
	@DEBUG_VALUE: lv_chart_event:e <- $r6
	@DEBUG_VALUE: lv_chart_event:obj <- [DW_OP_plus_uconst 88] [$sp+0]
	@DEBUG_VALUE: lv_chart_event:chart <- [DW_OP_plus_uconst 88] [$sp+0]
	@DEBUG_VALUE: lv_chart_event:class_p <- [DW_OP_LLVM_entry_value 1] $r0
	cmp	r5, #1
	beq	.LBB2_10
.Ltmp31:
@ %bb.3:
	@DEBUG_VALUE: lv_chart_event:e <- $r6
	@DEBUG_VALUE: lv_chart_event:obj <- [DW_OP_plus_uconst 88] [$sp+0]
	@DEBUG_VALUE: lv_chart_event:chart <- [DW_OP_plus_uconst 88] [$sp+0]
	@DEBUG_VALUE: lv_chart_event:class_p <- [DW_OP_LLVM_entry_value 1] $r0
	cmp	r5, #8
	beq.w	.LBB2_19
.Ltmp32:
@ %bb.4:
	@DEBUG_VALUE: lv_chart_event:e <- $r6
	@DEBUG_VALUE: lv_chart_event:obj <- [DW_OP_plus_uconst 88] [$sp+0]
	@DEBUG_VALUE: lv_chart_event:chart <- [DW_OP_plus_uconst 88] [$sp+0]
	@DEBUG_VALUE: lv_chart_event:class_p <- [DW_OP_LLVM_entry_value 1] $r0
	cmp	r5, #19
	bne.w	.LBB2_162
.Ltmp33:
@ %bb.5:
	@DEBUG_VALUE: lv_chart_event:e <- $r6
	@DEBUG_VALUE: lv_chart_event:obj <- [DW_OP_plus_uconst 88] [$sp+0]
	@DEBUG_VALUE: lv_chart_event:chart <- [DW_OP_plus_uconst 88] [$sp+0]
	@DEBUG_VALUE: lv_chart_event:class_p <- [DW_OP_LLVM_entry_value 1] $r0
	.loc	12 727 39                       @ ../GUILib/src/extra/widgets/chart/lv_chart.c:727:39
	ldrsh.w	r0, [r4, #64]
	ldrsh.w	r1, [r4, #76]
	ldrsh.w	r2, [r4, #88]
	ldrsh.w	r3, [r4, #100]
	cmp	r0, r1
	it	gt
	movgt	r1, r0
	cmp	r2, r3
	it	gt
	movgt	r3, r2
	cmp	r1, r3
	it	gt
	movgt	r3, r1
	.loc	12 727 9 is_stmt 0              @ ../GUILib/src/extra/widgets/chart/lv_chart.c:727:9
	sxth	r1, r3
	mov	r0, r6
	add	sp, #316
	pop.w	{r4, r5, r6, r7, r8, r9, r10, r11, lr}
.Ltmp34:
	@DEBUG_VALUE: lv_chart_event:e <- [DW_OP_LLVM_entry_value 1] $r1
	b	lv_event_set_ext_draw_size
.Ltmp35:
.LBB2_6:
	@DEBUG_VALUE: lv_chart_event:e <- $r6
	@DEBUG_VALUE: lv_chart_event:obj <- [DW_OP_plus_uconst 88] [$sp+0]
	@DEBUG_VALUE: lv_chart_event:chart <- [DW_OP_plus_uconst 88] [$sp+0]
	@DEBUG_VALUE: lv_chart_event:class_p <- [DW_OP_LLVM_entry_value 1] $r0
	.loc	12 705 8 is_stmt 1              @ ../GUILib/src/extra/widgets/chart/lv_chart.c:705:8
	cmp	r5, #21
	beq	.LBB2_13
.Ltmp36:
@ %bb.7:
	@DEBUG_VALUE: lv_chart_event:e <- $r6
	@DEBUG_VALUE: lv_chart_event:obj <- [DW_OP_plus_uconst 88] [$sp+0]
	@DEBUG_VALUE: lv_chart_event:chart <- [DW_OP_plus_uconst 88] [$sp+0]
	@DEBUG_VALUE: lv_chart_event:class_p <- [DW_OP_LLVM_entry_value 1] $r0
	cmp	r5, #41
	beq.w	.LBB2_20
.Ltmp37:
@ %bb.8:
	@DEBUG_VALUE: lv_chart_event:e <- $r6
	@DEBUG_VALUE: lv_chart_event:obj <- [DW_OP_plus_uconst 88] [$sp+0]
	@DEBUG_VALUE: lv_chart_event:chart <- [DW_OP_plus_uconst 88] [$sp+0]
	@DEBUG_VALUE: lv_chart_event:class_p <- [DW_OP_LLVM_entry_value 1] $r0
	cmp	r5, #44
	bne.w	.LBB2_162
.Ltmp38:
@ %bb.9:
	@DEBUG_VALUE: lv_chart_event:e <- $r6
	@DEBUG_VALUE: lv_chart_event:obj <- [DW_OP_plus_uconst 88] [$sp+0]
	@DEBUG_VALUE: lv_chart_event:chart <- [DW_OP_plus_uconst 88] [$sp+0]
	@DEBUG_VALUE: lv_chart_event:class_p <- [DW_OP_LLVM_entry_value 1] $r0
	.loc	12 731 26                       @ ../GUILib/src/extra/widgets/chart/lv_chart.c:731:26
	mov	r0, r6
	bl	lv_event_get_param
.Ltmp39:
	mov	r5, r0
.Ltmp40:
	@DEBUG_VALUE: p <- $r5
	.loc	12 732 26                       @ ../GUILib/src/extra/widgets/chart/lv_chart.c:732:26
	mov	r0, r4
	bl	lv_obj_get_content_width
.Ltmp41:
	.loc	12 732 65 is_stmt 0             @ ../GUILib/src/extra/widgets/chart/lv_chart.c:732:65
	ldrh.w	r1, [r4, #132]
	.loc	12 732 56                       @ ../GUILib/src/extra/widgets/chart/lv_chart.c:732:56
	muls	r0, r1, r0
	.loc	12 732 73                       @ ../GUILib/src/extra/widgets/chart/lv_chart.c:732:73
	lsrs	r0, r0, #8
	.loc	12 732 14                       @ ../GUILib/src/extra/widgets/chart/lv_chart.c:732:14
	strh	r0, [r5]
	.loc	12 733 26 is_stmt 1             @ ../GUILib/src/extra/widgets/chart/lv_chart.c:733:26
	mov	r0, r4
	bl	lv_obj_get_content_height
.Ltmp42:
	.loc	12 733 66 is_stmt 0             @ ../GUILib/src/extra/widgets/chart/lv_chart.c:733:66
	ldrh.w	r1, [r4, #134]
	.loc	12 733 57                       @ ../GUILib/src/extra/widgets/chart/lv_chart.c:733:57
	muls	r0, r1, r0
	.loc	12 733 74                       @ ../GUILib/src/extra/widgets/chart/lv_chart.c:733:74
	lsrs	r0, r0, #8
	.loc	12 733 14                       @ ../GUILib/src/extra/widgets/chart/lv_chart.c:733:14
	strh	r0, [r5, #2]
	b.w	.LBB2_162
.Ltmp43:
.LBB2_10:
	@DEBUG_VALUE: lv_chart_event:e <- $r6
	@DEBUG_VALUE: lv_chart_event:obj <- [DW_OP_plus_uconst 88] [$sp+0]
	@DEBUG_VALUE: lv_chart_event:chart <- [DW_OP_plus_uconst 88] [$sp+0]
	@DEBUG_VALUE: lv_chart_event:class_p <- [DW_OP_LLVM_entry_value 1] $r0
	@DEBUG_VALUE: lv_chart_event:chart <- [DW_OP_plus_uconst 88] [$sp+0]
	.loc	12 706 30 is_stmt 1             @ ../GUILib/src/extra/widgets/chart/lv_chart.c:706:30
	bl	lv_indev_get_act
.Ltmp44:
	@DEBUG_VALUE: indev <- $r0
	.loc	12 0 30 is_stmt 0               @ ../GUILib/src/extra/widgets/chart/lv_chart.c:0:30
	add	r1, sp, #108
	.loc	12 708 9 is_stmt 1              @ ../GUILib/src/extra/widgets/chart/lv_chart.c:708:9
	bl	lv_indev_get_point
.Ltmp45:
	.loc	12 710 28                       @ ../GUILib/src/extra/widgets/chart/lv_chart.c:710:28
	ldrh	r0, [r4, #20]
	.loc	12 710 13 is_stmt 0             @ ../GUILib/src/extra/widgets/chart/lv_chart.c:710:13
	ldrh.w	r1, [sp, #108]
	subs	r5, r1, r0
	.loc	12 711 51 is_stmt 1             @ ../GUILib/src/extra/widgets/chart/lv_chart.c:711:51
	mov	r0, r4
	.loc	12 710 13                       @ ../GUILib/src/extra/widgets/chart/lv_chart.c:710:13
	strh.w	r5, [sp, #108]
	.loc	12 711 51                       @ ../GUILib/src/extra/widgets/chart/lv_chart.c:711:51
	bl	lv_obj_get_scroll_left
.Ltmp46:
	.loc	12 711 49 is_stmt 0             @ ../GUILib/src/extra/widgets/chart/lv_chart.c:711:49
	adds	r7, r0, r5
.Ltmp47:
	@DEBUG_VALUE: get_index_from_x:chart <- [DW_OP_plus_uconst 88] [$sp+0]
	@DEBUG_VALUE: get_index_from_x:obj <- [DW_OP_plus_uconst 88] [$sp+0]
	@DEBUG_VALUE: get_index_from_x:x <- $r7
	.loc	12 1631 30 is_stmt 1            @ ../GUILib/src/extra/widgets/chart/lv_chart.c:1631:30
	mov	r0, r4
	bl	lv_obj_get_content_width
.Ltmp48:
	.loc	12 1631 69 is_stmt 0            @ ../GUILib/src/extra/widgets/chart/lv_chart.c:1631:69
	ldrh.w	r6, [r4, #132]
.Ltmp49:
	@DEBUG_VALUE: lv_chart_event:e <- [DW_OP_LLVM_entry_value 1] $r1
	@DEBUG_VALUE: get_index_from_x:w <- [DW_OP_constu 8, DW_OP_shra, DW_OP_LLVM_convert 32 7, DW_OP_LLVM_convert 16 7, DW_OP_stack_value] undef
	.loc	12 1631 30                      @ ../GUILib/src/extra/widgets/chart/lv_chart.c:1631:30
	mov	r5, r0
.Ltmp50:
	@DEBUG_VALUE: lv_obj_get_style_pad_left:part <- 0
	@DEBUG_VALUE: lv_obj_get_style_pad_left:obj <- [DW_OP_plus_uconst 88] [$sp+0]
	.file	18 "C:\\Users\\Hyacincher\\Desktop\\HyTelectrl\\Code\\Project" "../GUILib/src/core/lv_obj_style_gen.h"
	.loc	18 105 26 is_stmt 1             @ ../GUILib/src/core/lv_obj_style_gen.h:105:26
	mov	r0, r4
	movs	r1, #0
	movw	r2, #6162
	movs	r4, #0
	bl	lv_obj_get_style_prop
.Ltmp51:
	@DEBUG_VALUE: get_index_from_x:pad_left <- $r0
	@DEBUG_VALUE: lv_obj_get_style_pad_left:v <- $r0
	.loc	12 1633 7                       @ ../GUILib/src/extra/widgets/chart/lv_chart.c:1633:7
	subs	r0, r7, r0
.Ltmp52:
	@DEBUG_VALUE: get_index_from_x:x <- $r0
	sxth	r0, r0
.Ltmp53:
	.loc	12 1635 8                       @ ../GUILib/src/extra/widgets/chart/lv_chart.c:1635:8
	cmp	r0, #0
	bmi.w	.LBB2_21
.Ltmp54:
@ %bb.11:
	@DEBUG_VALUE: get_index_from_x:obj <- [DW_OP_plus_uconst 88] [$sp+0]
	@DEBUG_VALUE: get_index_from_x:chart <- [DW_OP_plus_uconst 88] [$sp+0]
	@DEBUG_VALUE: lv_chart_event:obj <- [DW_OP_plus_uconst 88] [$sp+0]
	@DEBUG_VALUE: lv_chart_event:chart <- [DW_OP_plus_uconst 88] [$sp+0]
	@DEBUG_VALUE: lv_chart_event:e <- [DW_OP_LLVM_entry_value 1] $r1
	@DEBUG_VALUE: lv_chart_event:class_p <- [DW_OP_LLVM_entry_value 1] $r0
	@DEBUG_VALUE: get_index_from_x:w <- [DW_OP_constu 8, DW_OP_shr, DW_OP_LLVM_convert 32 7, DW_OP_LLVM_convert 16 7, DW_OP_stack_value] undef
	.loc	12 1636 12                      @ ../GUILib/src/extra/widgets/chart/lv_chart.c:1636:12
	mul	r1, r5, r6
	lsls	r2, r1, #8
.Ltmp55:
	.loc	12 1636 8 is_stmt 0             @ ../GUILib/src/extra/widgets/chart/lv_chart.c:1636:8
	cmp.w	r0, r2, asr #16
	ble.w	.LBB2_22
.Ltmp56:
@ %bb.12:
	@DEBUG_VALUE: get_index_from_x:obj <- [DW_OP_plus_uconst 88] [$sp+0]
	@DEBUG_VALUE: get_index_from_x:chart <- [DW_OP_plus_uconst 88] [$sp+0]
	@DEBUG_VALUE: lv_chart_event:obj <- [DW_OP_plus_uconst 88] [$sp+0]
	@DEBUG_VALUE: lv_chart_event:chart <- [DW_OP_plus_uconst 88] [$sp+0]
	@DEBUG_VALUE: lv_chart_event:e <- [DW_OP_LLVM_entry_value 1] $r1
	@DEBUG_VALUE: lv_chart_event:class_p <- [DW_OP_LLVM_entry_value 1] $r0
	.loc	12 0 8                          @ ../GUILib/src/extra/widgets/chart/lv_chart.c:0:8
	ldr	r5, [sp, #88]                   @ 4-byte Reload
.Ltmp57:
	.loc	12 1636 29                      @ ../GUILib/src/extra/widgets/chart/lv_chart.c:1636:29
	ldrh.w	r0, [r5, #130]
	.loc	12 1636 39                      @ ../GUILib/src/extra/widgets/chart/lv_chart.c:1636:39
	subs	r4, r0, #1
	b	.LBB2_28
.Ltmp58:
.LBB2_13:
	@DEBUG_VALUE: lv_chart_event:e <- $r6
	@DEBUG_VALUE: lv_chart_event:obj <- [DW_OP_plus_uconst 88] [$sp+0]
	@DEBUG_VALUE: lv_chart_event:chart <- [DW_OP_plus_uconst 88] [$sp+0]
	@DEBUG_VALUE: lv_chart_event:class_p <- [DW_OP_LLVM_entry_value 1] $r0
	.loc	12 736 39 is_stmt 1             @ ../GUILib/src/extra/widgets/chart/lv_chart.c:736:39
	mov	r0, r6
	bl	lv_event_get_param
.Ltmp59:
	mov	r11, r0
.Ltmp60:
	@DEBUG_VALUE: draw_div_lines:chart <- [DW_OP_plus_uconst 88] [$sp+0]
	@DEBUG_VALUE: draw_div_lines:obj <- [DW_OP_plus_uconst 88] [$sp+0]
	@DEBUG_VALUE: draw_div_lines:clip_area <- $r11
	@DEBUG_VALUE: clip_area <- $r11
	.loc	12 0 39 is_stmt 0               @ ../GUILib/src/extra/widgets/chart/lv_chart.c:0:39
	add.w	r10, sp, #180
.Ltmp61:
	.loc	12 755 60 is_stmt 1             @ ../GUILib/src/extra/widgets/chart/lv_chart.c:755:60
	add.w	r1, r4, #20
	.loc	12 755 21 is_stmt 0             @ ../GUILib/src/extra/widgets/chart/lv_chart.c:755:21
	mov	r0, r10
	mov	r2, r11
	str	r1, [sp, #36]                   @ 4-byte Spill
	bl	_lv_area_intersect
.Ltmp62:
	@DEBUG_VALUE: draw_div_lines:mask_ret <- [DW_OP_LLVM_convert 1 7, DW_OP_LLVM_convert 8 7, DW_OP_stack_value] undef
	.loc	12 756 8 is_stmt 1              @ ../GUILib/src/extra/widgets/chart/lv_chart.c:756:8
	cmp	r0, #0
	beq.w	.LBB2_48
.Ltmp63:
@ %bb.14:
	@DEBUG_VALUE: clip_area <- $r11
	@DEBUG_VALUE: draw_div_lines:clip_area <- $r11
	@DEBUG_VALUE: lv_chart_event:e <- $r6
	@DEBUG_VALUE: draw_div_lines:obj <- [DW_OP_plus_uconst 88] [$sp+0]
	@DEBUG_VALUE: draw_div_lines:chart <- [DW_OP_plus_uconst 88] [$sp+0]
	@DEBUG_VALUE: lv_chart_event:obj <- [DW_OP_plus_uconst 88] [$sp+0]
	@DEBUG_VALUE: lv_chart_event:chart <- [DW_OP_plus_uconst 88] [$sp+0]
	@DEBUG_VALUE: lv_chart_event:class_p <- [DW_OP_LLVM_entry_value 1] $r0
	@DEBUG_VALUE: draw_div_lines:chart <- [DW_OP_plus_uconst 88] [$sp+0]
	@DEBUG_VALUE: lv_obj_get_style_border_width:obj <- [DW_OP_plus_uconst 88] [$sp+0]
	@DEBUG_VALUE: lv_obj_get_style_border_width:part <- 0
	.loc	18 297 26                       @ ../GUILib/src/core/lv_obj_style_gen.h:297:26
	mov	r0, r4
	movs	r1, #0
	movw	r2, #4146
	mov	r9, r4
	movs	r4, #0
	bl	lv_obj_get_style_prop
.Ltmp64:
	str	r0, [sp, #72]                   @ 4-byte Spill
.Ltmp65:
	@DEBUG_VALUE: lv_obj_get_style_pad_left:part <- 0
	@DEBUG_VALUE: lv_obj_get_style_pad_left:obj <- [DW_OP_plus_uconst 88] [$sp+0]
	@DEBUG_VALUE: draw_div_lines:border_width <- [DW_OP_plus_uconst 72] [$sp+0]
	@DEBUG_VALUE: lv_obj_get_style_border_width:v <- [DW_OP_plus_uconst 72] [$sp+0]
	.loc	18 105 26                       @ ../GUILib/src/core/lv_obj_style_gen.h:105:26
	mov	r0, r9
	movs	r1, #0
	movw	r2, #6162
	bl	lv_obj_get_style_prop
.Ltmp66:
	str	r0, [sp, #64]                   @ 4-byte Spill
.Ltmp67:
	@DEBUG_VALUE: lv_obj_get_style_pad_top:part <- 0
	@DEBUG_VALUE: lv_obj_get_style_pad_top:obj <- [DW_OP_plus_uconst 88] [$sp+0]
	@DEBUG_VALUE: draw_div_lines:pad_left <- undef
	@DEBUG_VALUE: lv_obj_get_style_pad_left:v <- [DW_OP_plus_uconst 64] [$sp+0]
	.loc	18 93 26                        @ ../GUILib/src/core/lv_obj_style_gen.h:93:26
	mov	r0, r9
	movs	r1, #0
	movw	r2, #6160
	bl	lv_obj_get_style_prop
.Ltmp68:
	str	r0, [sp, #84]                   @ 4-byte Spill
.Ltmp69:
	@DEBUG_VALUE: draw_div_lines:pad_top <- [DW_OP_LLVM_convert 32 7, DW_OP_LLVM_convert 16 7, DW_OP_stack_value] undef
	@DEBUG_VALUE: lv_obj_get_style_pad_top:v <- [DW_OP_plus_uconst 84] [$sp+0]
	.loc	12 766 34                       @ ../GUILib/src/extra/widgets/chart/lv_chart.c:766:34
	mov	r0, r9
	mov	r6, r7
.Ltmp70:
	@DEBUG_VALUE: lv_chart_event:e <- [DW_OP_LLVM_entry_value 1] $r1
	bl	lv_obj_get_content_width
.Ltmp71:
	.loc	12 766 73 is_stmt 0             @ ../GUILib/src/extra/widgets/chart/lv_chart.c:766:73
	ldrh.w	r1, [r9, #132]
.Ltmp72:
	@DEBUG_VALUE: draw_div_lines:w <- [DW_OP_constu 8, DW_OP_shr, DW_OP_LLVM_convert 32 7, DW_OP_LLVM_convert 16 7, DW_OP_stack_value] undef
	.loc	12 766 34                       @ ../GUILib/src/extra/widgets/chart/lv_chart.c:766:34
	strd	r0, r1, [sp, #56]               @ 8-byte Folded Spill
	.loc	12 767 34 is_stmt 1             @ ../GUILib/src/extra/widgets/chart/lv_chart.c:767:34
	mov	r0, r9
	bl	lv_obj_get_content_height
.Ltmp73:
	.loc	12 0 34 is_stmt 0               @ ../GUILib/src/extra/widgets/chart/lv_chart.c:0:34
	add	r5, sp, #244
	.loc	12 767 74                       @ ../GUILib/src/extra/widgets/chart/lv_chart.c:767:74
	ldrh.w	r8, [r9, #134]
.Ltmp74:
	@DEBUG_VALUE: draw_div_lines:h <- [DW_OP_constu 8, DW_OP_shr, DW_OP_LLVM_convert 32 7, DW_OP_LLVM_convert 16 7, DW_OP_stack_value] undef
	.loc	12 767 34                       @ ../GUILib/src/extra/widgets/chart/lv_chart.c:767:34
	mov	r10, r0
	.loc	12 770 5 is_stmt 1              @ ../GUILib/src/extra/widgets/chart/lv_chart.c:770:5
	mov	r0, r5
	bl	lv_draw_line_dsc_init
.Ltmp75:
	.loc	12 771 5                        @ ../GUILib/src/extra/widgets/chart/lv_chart.c:771:5
	mov	r0, r9
	movs	r1, #0
	mov	r2, r5
	bl	lv_obj_init_draw_line_dsc
.Ltmp76:
	.loc	12 0 5 is_stmt 0                @ ../GUILib/src/extra/widgets/chart/lv_chart.c:0:5
	add	r7, sp, #108
	.loc	12 774 5 is_stmt 1              @ ../GUILib/src/extra/widgets/chart/lv_chart.c:774:5
	mov	r0, r7
	mov	r1, r11
	str.w	r11, [sp, #44]                  @ 4-byte Spill
.Ltmp77:
	@DEBUG_VALUE: draw_div_lines:clip_area <- [DW_OP_plus_uconst 44] [$sp+0]
	bl	lv_obj_draw_dsc_init
.Ltmp78:
	.loc	12 0 5 is_stmt 0                @ ../GUILib/src/extra/widgets/chart/lv_chart.c:0:5
	mov.w	r0, #-1
	.loc	12 779 22 is_stmt 1             @ ../GUILib/src/extra/widgets/chart/lv_chart.c:779:22
	str	r0, [sp, #164]
	.loc	12 782 5                        @ ../GUILib/src/extra/widgets/chart/lv_chart.c:782:5
	mov	r0, r9
	movs	r1, #26
	mov	r2, r7
	.loc	12 775 24                       @ ../GUILib/src/extra/widgets/chart/lv_chart.c:775:24
	str	r4, [sp, #160]
	.loc	12 776 27                       @ ../GUILib/src/extra/widgets/chart/lv_chart.c:776:27
	strd	r6, r4, [sp, #112]
	.loc	12 778 28                       @ ../GUILib/src/extra/widgets/chart/lv_chart.c:778:28
	str	r5, [sp, #132]
	.loc	12 780 22                       @ ../GUILib/src/extra/widgets/chart/lv_chart.c:780:22
	strd	r4, r4, [sp, #144]
	.loc	12 782 5                        @ ../GUILib/src/extra/widgets/chart/lv_chart.c:782:5
	bl	lv_event_send
.Ltmp79:
	@DEBUG_VALUE: lv_obj_get_style_border_opa:part <- 0
	@DEBUG_VALUE: lv_obj_get_style_border_opa:obj <- [DW_OP_plus_uconst 88] [$sp+0]
	.loc	18 291 26                       @ ../GUILib/src/core/lv_obj_style_gen.h:291:26
	mov	r0, r9
	movs	r1, #0
	movs	r2, #49
	bl	lv_obj_get_style_prop
.Ltmp80:
	@DEBUG_VALUE: lv_obj_get_style_border_opa:v <- $r0
	.loc	18 292 12                       @ ../GUILib/src/core/lv_obj_style_gen.h:292:12
	uxtb	r0, r0
.Ltmp81:
	@DEBUG_VALUE: draw_div_lines:border_opa <- $r0
	.loc	18 297 26                       @ ../GUILib/src/core/lv_obj_style_gen.h:297:26
	str	r0, [sp, #80]                   @ 4-byte Spill
.Ltmp82:
	@DEBUG_VALUE: draw_div_lines:border_opa <- [DW_OP_plus_uconst 80] [$sp+0]
	@DEBUG_VALUE: lv_obj_get_style_border_width:part <- 0
	@DEBUG_VALUE: lv_obj_get_style_border_width:obj <- [DW_OP_plus_uconst 88] [$sp+0]
	@DEBUG_VALUE: draw_div_lines:border_opa <- [DW_OP_plus_uconst 80] [$sp+0]
	mov	r0, r9
	movs	r1, #0
	movw	r2, #4146
	bl	lv_obj_get_style_prop
.Ltmp83:
	str	r0, [sp, #76]                   @ 4-byte Spill
.Ltmp84:
	@DEBUG_VALUE: lv_obj_get_style_border_side:part <- 0
	@DEBUG_VALUE: lv_obj_get_style_border_side:obj <- [DW_OP_plus_uconst 88] [$sp+0]
	@DEBUG_VALUE: draw_div_lines:border_w <- [DW_OP_plus_uconst 76, DW_OP_deref_size 4, DW_OP_LLVM_convert 32 7, DW_OP_LLVM_convert 16 7, DW_OP_stack_value] $sp
	@DEBUG_VALUE: lv_obj_get_style_border_width:v <- [DW_OP_plus_uconst 76] [$sp+0]
	.loc	18 303 26                       @ ../GUILib/src/core/lv_obj_style_gen.h:303:26
	mov	r0, r9
	movs	r1, #0
	movs	r2, #51
	bl	lv_obj_get_style_prop
.Ltmp85:
	str	r0, [sp, #68]                   @ 4-byte Spill
.Ltmp86:
	@DEBUG_VALUE: draw_div_lines:border_side <- [DW_OP_plus_uconst 68, DW_OP_deref_size 4, DW_OP_LLVM_convert 32 7, DW_OP_LLVM_convert 8 7, DW_OP_stack_value] $sp
	@DEBUG_VALUE: lv_obj_get_style_border_side:v <- [DW_OP_plus_uconst 68] [$sp+0]
	.loc	12 788 30                       @ ../GUILib/src/extra/widgets/chart/lv_chart.c:788:30
	mov	r0, r9
	bl	lv_obj_get_scroll_left
.Ltmp87:
	str	r0, [sp, #52]                   @ 4-byte Spill
.Ltmp88:
	@DEBUG_VALUE: draw_div_lines:scroll_left <- undef
	.loc	12 789 29                       @ ../GUILib/src/extra/widgets/chart/lv_chart.c:789:29
	mov	r0, r9
	bl	lv_obj_get_scroll_top
.Ltmp89:
	.loc	12 790 15                       @ ../GUILib/src/extra/widgets/chart/lv_chart.c:790:15
	ldrh.w	r5, [r9, #126]
.Ltmp90:
	.loc	12 790 8 is_stmt 0              @ ../GUILib/src/extra/widgets/chart/lv_chart.c:790:8
	cmp	r5, #0
.Ltmp91:
	@DEBUG_VALUE: draw_div_lines:scroll_top <- undef
	beq.w	.LBB2_36
.Ltmp92:
@ %bb.15:
	@DEBUG_VALUE: draw_div_lines:clip_area <- [DW_OP_plus_uconst 44] [$sp+0]
	@DEBUG_VALUE: clip_area <- $r11
	@DEBUG_VALUE: draw_div_lines:border_side <- [DW_OP_plus_uconst 68, DW_OP_deref_size 4, DW_OP_LLVM_convert 32 7, DW_OP_LLVM_convert 8 7, DW_OP_stack_value] $sp
	@DEBUG_VALUE: draw_div_lines:border_w <- [DW_OP_plus_uconst 76, DW_OP_deref_size 4, DW_OP_LLVM_convert 32 7, DW_OP_LLVM_convert 16 7, DW_OP_stack_value] $sp
	@DEBUG_VALUE: draw_div_lines:border_opa <- [DW_OP_plus_uconst 80] [$sp+0]
	@DEBUG_VALUE: draw_div_lines:border_width <- [DW_OP_plus_uconst 72] [$sp+0]
	@DEBUG_VALUE: draw_div_lines:obj <- [DW_OP_plus_uconst 88] [$sp+0]
	@DEBUG_VALUE: draw_div_lines:chart <- [DW_OP_plus_uconst 88] [$sp+0]
	@DEBUG_VALUE: lv_chart_event:obj <- [DW_OP_plus_uconst 88] [$sp+0]
	@DEBUG_VALUE: lv_chart_event:chart <- [DW_OP_plus_uconst 88] [$sp+0]
	@DEBUG_VALUE: lv_chart_event:e <- [DW_OP_LLVM_entry_value 1] $r1
	@DEBUG_VALUE: lv_chart_event:class_p <- [DW_OP_LLVM_entry_value 1] $r0
	.loc	12 0 0                          @ ../GUILib/src/extra/widgets/chart/lv_chart.c:0:0
	mov	r7, r0
.Ltmp93:
	@DEBUG_VALUE: draw_div_lines:pad_top <- undef
	.loc	12 792 28 is_stmt 1             @ ../GUILib/src/extra/widgets/chart/lv_chart.c:792:28
	ldrh.w	r0, [r9, #20]
	.loc	12 791 40                       @ ../GUILib/src/extra/widgets/chart/lv_chart.c:791:40
	ldrh.w	r11, [r9, #22]
.Ltmp94:
	@DEBUG_VALUE: y_ofs <- undef
	.loc	12 792 14                       @ ../GUILib/src/extra/widgets/chart/lv_chart.c:792:14
	strh.w	r0, [sp, #296]
.Ltmp95:
	.loc	12 797 36                       @ ../GUILib/src/extra/widgets/chart/lv_chart.c:797:36
	ldr	r0, [sp, #80]                   @ 4-byte Reload
.Ltmp96:
	.loc	12 793 28                       @ ../GUILib/src/extra/widgets/chart/lv_chart.c:793:28
	ldrh.w	r1, [r9, #24]
.Ltmp97:
	.loc	12 797 36                       @ ../GUILib/src/extra/widgets/chart/lv_chart.c:797:36
	cmp	r0, #3
	mov.w	r4, #0
.Ltmp98:
	@DEBUG_VALUE: draw_div_lines:i_end <- $r5
	@DEBUG_VALUE: draw_div_lines:i_start <- 0
	.loc	12 793 14                       @ ../GUILib/src/extra/widgets/chart/lv_chart.c:793:14
	strh.w	r1, [sp, #232]
.Ltmp99:
	.loc	12 797 36                       @ ../GUILib/src/extra/widgets/chart/lv_chart.c:797:36
	blo	.LBB2_33
.Ltmp100:
@ %bb.16:
	@DEBUG_VALUE: draw_div_lines:clip_area <- [DW_OP_plus_uconst 44] [$sp+0]
	@DEBUG_VALUE: draw_div_lines:i_end <- $r5
	@DEBUG_VALUE: draw_div_lines:border_side <- [DW_OP_plus_uconst 68, DW_OP_deref_size 4, DW_OP_LLVM_convert 32 7, DW_OP_LLVM_convert 8 7, DW_OP_stack_value] $sp
	@DEBUG_VALUE: draw_div_lines:border_w <- [DW_OP_plus_uconst 76, DW_OP_deref_size 4, DW_OP_LLVM_convert 32 7, DW_OP_LLVM_convert 16 7, DW_OP_stack_value] $sp
	@DEBUG_VALUE: draw_div_lines:border_opa <- [DW_OP_plus_uconst 80] [$sp+0]
	@DEBUG_VALUE: draw_div_lines:border_width <- [DW_OP_plus_uconst 72] [$sp+0]
	@DEBUG_VALUE: draw_div_lines:obj <- [DW_OP_plus_uconst 88] [$sp+0]
	@DEBUG_VALUE: draw_div_lines:chart <- [DW_OP_plus_uconst 88] [$sp+0]
	@DEBUG_VALUE: lv_chart_event:obj <- [DW_OP_plus_uconst 88] [$sp+0]
	@DEBUG_VALUE: lv_chart_event:chart <- [DW_OP_plus_uconst 88] [$sp+0]
	@DEBUG_VALUE: draw_div_lines:i_start <- 0
	@DEBUG_VALUE: lv_chart_event:e <- [DW_OP_LLVM_entry_value 1] $r1
	@DEBUG_VALUE: lv_chart_event:class_p <- [DW_OP_LLVM_entry_value 1] $r0
	ldr	r0, [sp, #76]                   @ 4-byte Reload
	sxth	r0, r0
	cmp	r0, #1
	blt	.LBB2_33
.Ltmp101:
@ %bb.17:
	@DEBUG_VALUE: draw_div_lines:clip_area <- [DW_OP_plus_uconst 44] [$sp+0]
	@DEBUG_VALUE: draw_div_lines:i_end <- $r5
	@DEBUG_VALUE: draw_div_lines:border_side <- [DW_OP_plus_uconst 68, DW_OP_deref_size 4, DW_OP_LLVM_convert 32 7, DW_OP_LLVM_convert 8 7, DW_OP_stack_value] $sp
	@DEBUG_VALUE: draw_div_lines:border_w <- [DW_OP_plus_uconst 76, DW_OP_deref_size 4, DW_OP_LLVM_convert 32 7, DW_OP_LLVM_convert 16 7, DW_OP_stack_value] $sp
	@DEBUG_VALUE: draw_div_lines:border_opa <- [DW_OP_plus_uconst 80] [$sp+0]
	@DEBUG_VALUE: draw_div_lines:border_width <- [DW_OP_plus_uconst 72] [$sp+0]
	@DEBUG_VALUE: draw_div_lines:obj <- [DW_OP_plus_uconst 88] [$sp+0]
	@DEBUG_VALUE: draw_div_lines:chart <- [DW_OP_plus_uconst 88] [$sp+0]
	@DEBUG_VALUE: lv_chart_event:obj <- [DW_OP_plus_uconst 88] [$sp+0]
	@DEBUG_VALUE: lv_chart_event:chart <- [DW_OP_plus_uconst 88] [$sp+0]
	@DEBUG_VALUE: draw_div_lines:i_start <- 0
	@DEBUG_VALUE: lv_chart_event:e <- [DW_OP_LLVM_entry_value 1] $r1
	@DEBUG_VALUE: lv_chart_event:class_p <- [DW_OP_LLVM_entry_value 1] $r0
	.loc	12 0 36 is_stmt 0               @ ../GUILib/src/extra/widgets/chart/lv_chart.c:0:36
	ldr	r6, [sp, #68]                   @ 4-byte Reload
.Ltmp102:
	.loc	12 798 51 is_stmt 1             @ ../GUILib/src/extra/widgets/chart/lv_chart.c:798:51
	lsls	r0, r6, #30
	bmi	.LBB2_30
.Ltmp103:
@ %bb.18:
	@DEBUG_VALUE: draw_div_lines:clip_area <- [DW_OP_plus_uconst 44] [$sp+0]
	@DEBUG_VALUE: draw_div_lines:i_end <- $r5
	@DEBUG_VALUE: draw_div_lines:border_side <- [DW_OP_plus_uconst 68, DW_OP_deref_size 4, DW_OP_LLVM_convert 32 7, DW_OP_LLVM_convert 8 7, DW_OP_stack_value] $sp
	@DEBUG_VALUE: draw_div_lines:border_w <- [DW_OP_plus_uconst 76, DW_OP_deref_size 4, DW_OP_LLVM_convert 32 7, DW_OP_LLVM_convert 16 7, DW_OP_stack_value] $sp
	@DEBUG_VALUE: draw_div_lines:border_opa <- [DW_OP_plus_uconst 80] [$sp+0]
	@DEBUG_VALUE: draw_div_lines:border_width <- [DW_OP_plus_uconst 72] [$sp+0]
	@DEBUG_VALUE: draw_div_lines:obj <- [DW_OP_plus_uconst 88] [$sp+0]
	@DEBUG_VALUE: draw_div_lines:chart <- [DW_OP_plus_uconst 88] [$sp+0]
	@DEBUG_VALUE: lv_chart_event:obj <- [DW_OP_plus_uconst 88] [$sp+0]
	@DEBUG_VALUE: lv_chart_event:chart <- [DW_OP_plus_uconst 88] [$sp+0]
	@DEBUG_VALUE: draw_div_lines:i_start <- 0
	@DEBUG_VALUE: lv_chart_event:e <- [DW_OP_LLVM_entry_value 1] $r1
	@DEBUG_VALUE: lv_chart_event:class_p <- [DW_OP_LLVM_entry_value 1] $r0
	.loc	12 0 51 is_stmt 0               @ ../GUILib/src/extra/widgets/chart/lv_chart.c:0:51
	movs	r4, #0
	b	.LBB2_31
.Ltmp104:
.LBB2_19:
	@DEBUG_VALUE: lv_chart_event:e <- $r6
	@DEBUG_VALUE: lv_chart_event:obj <- [DW_OP_plus_uconst 88] [$sp+0]
	@DEBUG_VALUE: lv_chart_event:chart <- [DW_OP_plus_uconst 88] [$sp+0]
	@DEBUG_VALUE: lv_chart_event:class_p <- [DW_OP_LLVM_entry_value 1] $r0
	.loc	12 720 38 is_stmt 1             @ ../GUILib/src/extra/widgets/chart/lv_chart.c:720:38
	ldrh.w	r1, [r4, #124]
	.loc	12 720 9 is_stmt 0              @ ../GUILib/src/extra/widgets/chart/lv_chart.c:720:9
	mov	r0, r4
	bl	invalidate_point
.Ltmp105:
	.loc	12 0 9                          @ ../GUILib/src/extra/widgets/chart/lv_chart.c:0:9
	movw	r0, #32767
	.loc	12 721 33 is_stmt 1             @ ../GUILib/src/extra/widgets/chart/lv_chart.c:721:33
	strh.w	r0, [r4, #124]
	b.w	.LBB2_162
.Ltmp106:
.LBB2_20:
	@DEBUG_VALUE: lv_chart_event:e <- $r6
	@DEBUG_VALUE: lv_chart_event:obj <- [DW_OP_plus_uconst 88] [$sp+0]
	@DEBUG_VALUE: lv_chart_event:chart <- [DW_OP_plus_uconst 88] [$sp+0]
	@DEBUG_VALUE: lv_chart_event:class_p <- [DW_OP_LLVM_entry_value 1] $r0
	.loc	12 724 9                        @ ../GUILib/src/extra/widgets/chart/lv_chart.c:724:9
	mov	r0, r4
	add	sp, #316
	pop.w	{r4, r5, r6, r7, r8, r9, r10, r11, lr}
.Ltmp107:
	@DEBUG_VALUE: lv_chart_event:e <- [DW_OP_LLVM_entry_value 1] $r1
	b	lv_obj_refresh_self_size
.Ltmp108:
.LBB2_21:
	@DEBUG_VALUE: lv_obj_get_style_pad_left:obj <- [DW_OP_plus_uconst 88] [$sp+0]
	@DEBUG_VALUE: get_index_from_x:obj <- [DW_OP_plus_uconst 88] [$sp+0]
	@DEBUG_VALUE: get_index_from_x:chart <- [DW_OP_plus_uconst 88] [$sp+0]
	@DEBUG_VALUE: lv_chart_event:obj <- [DW_OP_plus_uconst 88] [$sp+0]
	@DEBUG_VALUE: lv_chart_event:chart <- [DW_OP_plus_uconst 88] [$sp+0]
	@DEBUG_VALUE: lv_obj_get_style_pad_left:part <- 0
	@DEBUG_VALUE: lv_chart_event:e <- [DW_OP_LLVM_entry_value 1] $r1
	@DEBUG_VALUE: lv_chart_event:class_p <- [DW_OP_LLVM_entry_value 1] $r0
	.loc	12 0 9 is_stmt 0                @ ../GUILib/src/extra/widgets/chart/lv_chart.c:0:9
	ldr	r5, [sp, #88]                   @ 4-byte Reload
	b	.LBB2_28
.Ltmp109:
.LBB2_22:
	@DEBUG_VALUE: get_index_from_x:obj <- [DW_OP_plus_uconst 88] [$sp+0]
	@DEBUG_VALUE: get_index_from_x:chart <- [DW_OP_plus_uconst 88] [$sp+0]
	@DEBUG_VALUE: lv_chart_event:obj <- [DW_OP_plus_uconst 88] [$sp+0]
	@DEBUG_VALUE: lv_chart_event:chart <- [DW_OP_plus_uconst 88] [$sp+0]
	@DEBUG_VALUE: lv_chart_event:e <- [DW_OP_LLVM_entry_value 1] $r1
	@DEBUG_VALUE: lv_chart_event:class_p <- [DW_OP_LLVM_entry_value 1] $r0
	ldr	r5, [sp, #88]                   @ 4-byte Reload
.Ltmp110:
	sbfx	r1, r1, #8, #16
.Ltmp111:
	.loc	12 1637 15 is_stmt 1            @ ../GUILib/src/extra/widgets/chart/lv_chart.c:1637:15
	ldrb.w	r2, [r5, #136]
.Ltmp112:
	.loc	12 1637 8 is_stmt 0             @ ../GUILib/src/extra/widgets/chart/lv_chart.c:1637:8
	and	r2, r2, #7
	cmp	r2, #2
	beq	.LBB2_25
.Ltmp113:
@ %bb.23:
	@DEBUG_VALUE: get_index_from_x:obj <- [DW_OP_plus_uconst 88] [$sp+0]
	@DEBUG_VALUE: get_index_from_x:chart <- [DW_OP_plus_uconst 88] [$sp+0]
	@DEBUG_VALUE: lv_chart_event:obj <- [DW_OP_plus_uconst 88] [$sp+0]
	@DEBUG_VALUE: lv_chart_event:chart <- [DW_OP_plus_uconst 88] [$sp+0]
	@DEBUG_VALUE: lv_chart_event:e <- [DW_OP_LLVM_entry_value 1] $r1
	@DEBUG_VALUE: lv_chart_event:class_p <- [DW_OP_LLVM_entry_value 1] $r0
	cmp	r2, #1
	bne	.LBB2_27
.Ltmp114:
@ %bb.24:
	@DEBUG_VALUE: get_index_from_x:obj <- [DW_OP_plus_uconst 88] [$sp+0]
	@DEBUG_VALUE: get_index_from_x:chart <- [DW_OP_plus_uconst 88] [$sp+0]
	@DEBUG_VALUE: lv_chart_event:obj <- [DW_OP_plus_uconst 88] [$sp+0]
	@DEBUG_VALUE: lv_chart_event:chart <- [DW_OP_plus_uconst 88] [$sp+0]
	@DEBUG_VALUE: lv_chart_event:e <- [DW_OP_LLVM_entry_value 1] $r1
	@DEBUG_VALUE: lv_chart_event:class_p <- [DW_OP_LLVM_entry_value 1] $r0
	.loc	12 1637 63                      @ ../GUILib/src/extra/widgets/chart/lv_chart.c:1637:63
	ldrh.w	r2, [r5, #130]
	.loc	12 1637 73                      @ ../GUILib/src/extra/widgets/chart/lv_chart.c:1637:73
	subs	r2, #1
	.loc	12 1637 53                      @ ../GUILib/src/extra/widgets/chart/lv_chart.c:1637:53
	muls	r0, r2, r0
	.loc	12 1637 82                      @ ../GUILib/src/extra/widgets/chart/lv_chart.c:1637:82
	uxth	r2, r1
	add.w	r2, r1, r2, lsr #15
	sxth	r2, r2
	.loc	12 1637 78                      @ ../GUILib/src/extra/widgets/chart/lv_chart.c:1637:78
	add.w	r0, r0, r2, asr #1
	b	.LBB2_26
.Ltmp115:
.LBB2_25:
	@DEBUG_VALUE: get_index_from_x:obj <- [DW_OP_plus_uconst 88] [$sp+0]
	@DEBUG_VALUE: get_index_from_x:chart <- [DW_OP_plus_uconst 88] [$sp+0]
	@DEBUG_VALUE: lv_chart_event:obj <- [DW_OP_plus_uconst 88] [$sp+0]
	@DEBUG_VALUE: lv_chart_event:chart <- [DW_OP_plus_uconst 88] [$sp+0]
	@DEBUG_VALUE: lv_chart_event:e <- [DW_OP_LLVM_entry_value 1] $r1
	@DEBUG_VALUE: lv_chart_event:class_p <- [DW_OP_LLVM_entry_value 1] $r0
	.loc	12 1638 61 is_stmt 1            @ ../GUILib/src/extra/widgets/chart/lv_chart.c:1638:61
	ldrh.w	r2, [r5, #130]
	.loc	12 1638 52 is_stmt 0            @ ../GUILib/src/extra/widgets/chart/lv_chart.c:1638:52
	muls	r0, r2, r0
.Ltmp116:
.LBB2_26:
	@DEBUG_VALUE: get_index_from_x:obj <- [DW_OP_plus_uconst 88] [$sp+0]
	@DEBUG_VALUE: get_index_from_x:chart <- [DW_OP_plus_uconst 88] [$sp+0]
	@DEBUG_VALUE: lv_chart_event:obj <- [DW_OP_plus_uconst 88] [$sp+0]
	@DEBUG_VALUE: lv_chart_event:chart <- [DW_OP_plus_uconst 88] [$sp+0]
	@DEBUG_VALUE: lv_chart_event:e <- [DW_OP_LLVM_entry_value 1] $r1
	@DEBUG_VALUE: lv_chart_event:class_p <- [DW_OP_LLVM_entry_value 1] $r0
	.loc	12 0 0                          @ ../GUILib/src/extra/widgets/chart/lv_chart.c:0:0
	sdiv	r4, r0, r1
	b	.LBB2_28
.Ltmp117:
.LBB2_27:
	@DEBUG_VALUE: get_index_from_x:obj <- [DW_OP_plus_uconst 88] [$sp+0]
	@DEBUG_VALUE: get_index_from_x:chart <- [DW_OP_plus_uconst 88] [$sp+0]
	@DEBUG_VALUE: lv_chart_event:obj <- [DW_OP_plus_uconst 88] [$sp+0]
	@DEBUG_VALUE: lv_chart_event:chart <- [DW_OP_plus_uconst 88] [$sp+0]
	@DEBUG_VALUE: lv_chart_event:e <- [DW_OP_LLVM_entry_value 1] $r1
	@DEBUG_VALUE: lv_chart_event:class_p <- [DW_OP_LLVM_entry_value 1] $r0
	movs	r4, #0
.Ltmp118:
.LBB2_28:
	@DEBUG_VALUE: lv_chart_event:obj <- [DW_OP_plus_uconst 88] [$sp+0]
	@DEBUG_VALUE: lv_chart_event:chart <- [DW_OP_plus_uconst 88] [$sp+0]
	@DEBUG_VALUE: lv_chart_event:e <- [DW_OP_LLVM_entry_value 1] $r1
	@DEBUG_VALUE: lv_chart_event:class_p <- [DW_OP_LLVM_entry_value 1] $r0
	@DEBUG_VALUE: id <- $r4
	.loc	12 712 25 is_stmt 1             @ ../GUILib/src/extra/widgets/chart/lv_chart.c:712:25
	ldrh.w	r0, [r5, #124]
.Ltmp119:
	.loc	12 712 12 is_stmt 0             @ ../GUILib/src/extra/widgets/chart/lv_chart.c:712:12
	cmp	r4, r0
	beq.w	.LBB2_162
.Ltmp120:
@ %bb.29:
	@DEBUG_VALUE: id <- $r4
	@DEBUG_VALUE: lv_chart_event:obj <- [DW_OP_plus_uconst 88] [$sp+0]
	@DEBUG_VALUE: lv_chart_event:chart <- [DW_OP_plus_uconst 88] [$sp+0]
	@DEBUG_VALUE: lv_chart_event:e <- [DW_OP_LLVM_entry_value 1] $r1
	@DEBUG_VALUE: lv_chart_event:class_p <- [DW_OP_LLVM_entry_value 1] $r0
	.loc	12 713 13 is_stmt 1             @ ../GUILib/src/extra/widgets/chart/lv_chart.c:713:13
	uxth	r1, r4
	mov	r0, r5
	bl	invalidate_point
.Ltmp121:
	.loc	12 714 42                       @ ../GUILib/src/extra/widgets/chart/lv_chart.c:714:42
	ldrh.w	r1, [r5, #124]
	.loc	12 714 13 is_stmt 0             @ ../GUILib/src/extra/widgets/chart/lv_chart.c:714:13
	mov	r0, r5
	bl	invalidate_point
.Ltmp122:
	.loc	12 716 13 is_stmt 1             @ ../GUILib/src/extra/widgets/chart/lv_chart.c:716:13
	mov	r0, r5
	movs	r1, #28
	movs	r2, #0
	.loc	12 715 37                       @ ../GUILib/src/extra/widgets/chart/lv_chart.c:715:37
	strh.w	r4, [r5, #124]
	.loc	12 716 13                       @ ../GUILib/src/extra/widgets/chart/lv_chart.c:716:13
	bl	lv_event_send
.Ltmp123:
	.loc	12 0 13 is_stmt 0               @ ../GUILib/src/extra/widgets/chart/lv_chart.c:0:13
	b.w	.LBB2_162
.Ltmp124:
.LBB2_30:
	@DEBUG_VALUE: draw_div_lines:clip_area <- [DW_OP_plus_uconst 44] [$sp+0]
	@DEBUG_VALUE: draw_div_lines:i_end <- $r5
	@DEBUG_VALUE: draw_div_lines:border_side <- [DW_OP_plus_uconst 68, DW_OP_deref_size 4, DW_OP_LLVM_convert 32 7, DW_OP_LLVM_convert 8 7, DW_OP_stack_value] $sp
	@DEBUG_VALUE: draw_div_lines:border_w <- [DW_OP_plus_uconst 76, DW_OP_deref_size 4, DW_OP_LLVM_convert 32 7, DW_OP_LLVM_convert 16 7, DW_OP_stack_value] $sp
	@DEBUG_VALUE: draw_div_lines:border_opa <- [DW_OP_plus_uconst 80] [$sp+0]
	@DEBUG_VALUE: draw_div_lines:border_width <- [DW_OP_plus_uconst 72] [$sp+0]
	@DEBUG_VALUE: draw_div_lines:obj <- [DW_OP_plus_uconst 88] [$sp+0]
	@DEBUG_VALUE: draw_div_lines:chart <- [DW_OP_plus_uconst 88] [$sp+0]
	@DEBUG_VALUE: lv_chart_event:obj <- [DW_OP_plus_uconst 88] [$sp+0]
	@DEBUG_VALUE: lv_chart_event:chart <- [DW_OP_plus_uconst 88] [$sp+0]
	@DEBUG_VALUE: draw_div_lines:i_start <- 0
	@DEBUG_VALUE: lv_chart_event:e <- [DW_OP_LLVM_entry_value 1] $r1
	@DEBUG_VALUE: lv_chart_event:class_p <- [DW_OP_LLVM_entry_value 1] $r0
	@DEBUG_VALUE: lv_obj_get_style_pad_top:obj <- [DW_OP_plus_uconst 88] [$sp+0]
	@DEBUG_VALUE: lv_obj_get_style_pad_top:part <- 0
	.loc	18 93 26 is_stmt 1              @ ../GUILib/src/core/lv_obj_style_gen.h:93:26
	ldr	r0, [sp, #88]                   @ 4-byte Reload
	movs	r1, #0
	movw	r2, #6160
	bl	lv_obj_get_style_prop
.Ltmp125:
	@DEBUG_VALUE: lv_obj_get_style_pad_top:v <- $r0
	.loc	18 94 12                        @ ../GUILib/src/core/lv_obj_style_gen.h:94:12
	uxth	r0, r0
.Ltmp126:
	.loc	12 798 99                       @ ../GUILib/src/extra/widgets/chart/lv_chart.c:798:99
	clz	r0, r0
	lsrs	r4, r0, #5
.Ltmp127:
.LBB2_31:
	@DEBUG_VALUE: draw_div_lines:clip_area <- [DW_OP_plus_uconst 44] [$sp+0]
	@DEBUG_VALUE: draw_div_lines:i_end <- $r5
	@DEBUG_VALUE: draw_div_lines:border_side <- [DW_OP_plus_uconst 68, DW_OP_deref_size 4, DW_OP_LLVM_convert 32 7, DW_OP_LLVM_convert 8 7, DW_OP_stack_value] $sp
	@DEBUG_VALUE: draw_div_lines:border_w <- [DW_OP_plus_uconst 76, DW_OP_deref_size 4, DW_OP_LLVM_convert 32 7, DW_OP_LLVM_convert 16 7, DW_OP_stack_value] $sp
	@DEBUG_VALUE: draw_div_lines:border_opa <- [DW_OP_plus_uconst 80] [$sp+0]
	@DEBUG_VALUE: draw_div_lines:border_width <- [DW_OP_plus_uconst 72] [$sp+0]
	@DEBUG_VALUE: draw_div_lines:obj <- [DW_OP_plus_uconst 88] [$sp+0]
	@DEBUG_VALUE: draw_div_lines:chart <- [DW_OP_plus_uconst 88] [$sp+0]
	@DEBUG_VALUE: lv_chart_event:obj <- [DW_OP_plus_uconst 88] [$sp+0]
	@DEBUG_VALUE: lv_chart_event:chart <- [DW_OP_plus_uconst 88] [$sp+0]
	@DEBUG_VALUE: draw_div_lines:i_start <- 0
	@DEBUG_VALUE: lv_chart_event:e <- [DW_OP_LLVM_entry_value 1] $r1
	@DEBUG_VALUE: lv_chart_event:class_p <- [DW_OP_LLVM_entry_value 1] $r0
	@DEBUG_VALUE: draw_div_lines:i_start <- $r4
	.loc	12 799 54                       @ ../GUILib/src/extra/widgets/chart/lv_chart.c:799:54
	lsls	r0, r6, #31
	beq	.LBB2_33
.Ltmp128:
@ %bb.32:
	@DEBUG_VALUE: draw_div_lines:clip_area <- [DW_OP_plus_uconst 44] [$sp+0]
	@DEBUG_VALUE: draw_div_lines:i_end <- $r5
	@DEBUG_VALUE: draw_div_lines:i_start <- $r4
	@DEBUG_VALUE: draw_div_lines:border_side <- [DW_OP_plus_uconst 68, DW_OP_deref_size 4, DW_OP_LLVM_convert 32 7, DW_OP_LLVM_convert 8 7, DW_OP_stack_value] $sp
	@DEBUG_VALUE: draw_div_lines:border_w <- [DW_OP_plus_uconst 76, DW_OP_deref_size 4, DW_OP_LLVM_convert 32 7, DW_OP_LLVM_convert 16 7, DW_OP_stack_value] $sp
	@DEBUG_VALUE: draw_div_lines:border_opa <- [DW_OP_plus_uconst 80] [$sp+0]
	@DEBUG_VALUE: draw_div_lines:border_width <- [DW_OP_plus_uconst 72] [$sp+0]
	@DEBUG_VALUE: draw_div_lines:obj <- [DW_OP_plus_uconst 88] [$sp+0]
	@DEBUG_VALUE: draw_div_lines:chart <- [DW_OP_plus_uconst 88] [$sp+0]
	@DEBUG_VALUE: lv_chart_event:obj <- [DW_OP_plus_uconst 88] [$sp+0]
	@DEBUG_VALUE: lv_chart_event:chart <- [DW_OP_plus_uconst 88] [$sp+0]
	@DEBUG_VALUE: lv_chart_event:e <- [DW_OP_LLVM_entry_value 1] $r1
	@DEBUG_VALUE: lv_chart_event:class_p <- [DW_OP_LLVM_entry_value 1] $r0
	@DEBUG_VALUE: lv_obj_get_style_pad_bottom:obj <- [DW_OP_plus_uconst 88] [$sp+0]
	@DEBUG_VALUE: lv_obj_get_style_pad_bottom:part <- 0
	.loc	18 99 26                        @ ../GUILib/src/core/lv_obj_style_gen.h:99:26
	ldr	r0, [sp, #88]                   @ 4-byte Reload
	movs	r1, #0
	movw	r2, #6161
	bl	lv_obj_get_style_prop
.Ltmp129:
	@DEBUG_VALUE: lv_obj_get_style_pad_bottom:v <- $r0
	.loc	12 799 16                       @ ../GUILib/src/extra/widgets/chart/lv_chart.c:799:16
	lsls	r0, r0, #16
	it	eq
	subeq	r5, #1
.Ltmp130:
.LBB2_33:
	@DEBUG_VALUE: draw_div_lines:clip_area <- [DW_OP_plus_uconst 44] [$sp+0]
	@DEBUG_VALUE: draw_div_lines:border_side <- [DW_OP_plus_uconst 68, DW_OP_deref_size 4, DW_OP_LLVM_convert 32 7, DW_OP_LLVM_convert 8 7, DW_OP_stack_value] $sp
	@DEBUG_VALUE: draw_div_lines:border_w <- [DW_OP_plus_uconst 76, DW_OP_deref_size 4, DW_OP_LLVM_convert 32 7, DW_OP_LLVM_convert 16 7, DW_OP_stack_value] $sp
	@DEBUG_VALUE: draw_div_lines:border_opa <- [DW_OP_plus_uconst 80] [$sp+0]
	@DEBUG_VALUE: draw_div_lines:border_width <- [DW_OP_plus_uconst 72] [$sp+0]
	@DEBUG_VALUE: draw_div_lines:obj <- [DW_OP_plus_uconst 88] [$sp+0]
	@DEBUG_VALUE: draw_div_lines:chart <- [DW_OP_plus_uconst 88] [$sp+0]
	@DEBUG_VALUE: lv_chart_event:obj <- [DW_OP_plus_uconst 88] [$sp+0]
	@DEBUG_VALUE: lv_chart_event:chart <- [DW_OP_plus_uconst 88] [$sp+0]
	@DEBUG_VALUE: lv_chart_event:e <- [DW_OP_LLVM_entry_value 1] $r1
	@DEBUG_VALUE: lv_chart_event:class_p <- [DW_OP_LLVM_entry_value 1] $r0
	@DEBUG_VALUE: draw_div_lines:pad_top <- undef
	@DEBUG_VALUE: draw_div_lines:i_start <- $r4
	@DEBUG_VALUE: draw_div_lines:i_end <- $r5
	@DEBUG_VALUE: draw_div_lines:i <- $r4
	.loc	12 802 28                       @ ../GUILib/src/extra/widgets/chart/lv_chart.c:802:28
	sxth	r0, r5
	ldr.w	r9, [sp, #88]                   @ 4-byte Reload
.Ltmp131:
	.loc	12 802 9 is_stmt 0              @ ../GUILib/src/extra/widgets/chart/lv_chart.c:802:9
	cmp	r4, r0
	bge	.LBB2_36
.Ltmp132:
@ %bb.34:
	@DEBUG_VALUE: draw_div_lines:clip_area <- [DW_OP_plus_uconst 44] [$sp+0]
	@DEBUG_VALUE: draw_div_lines:i_end <- $r5
	@DEBUG_VALUE: draw_div_lines:i <- $r4
	@DEBUG_VALUE: draw_div_lines:i_start <- $r4
	@DEBUG_VALUE: draw_div_lines:border_side <- [DW_OP_plus_uconst 68, DW_OP_deref_size 4, DW_OP_LLVM_convert 32 7, DW_OP_LLVM_convert 8 7, DW_OP_stack_value] $sp
	@DEBUG_VALUE: draw_div_lines:border_w <- [DW_OP_plus_uconst 76, DW_OP_deref_size 4, DW_OP_LLVM_convert 32 7, DW_OP_LLVM_convert 16 7, DW_OP_stack_value] $sp
	@DEBUG_VALUE: draw_div_lines:border_opa <- [DW_OP_plus_uconst 80] [$sp+0]
	@DEBUG_VALUE: draw_div_lines:border_width <- [DW_OP_plus_uconst 72] [$sp+0]
	@DEBUG_VALUE: draw_div_lines:obj <- [DW_OP_plus_uconst 88] [$sp+0]
	@DEBUG_VALUE: draw_div_lines:chart <- [DW_OP_plus_uconst 88] [$sp+0]
	@DEBUG_VALUE: lv_chart_event:obj <- [DW_OP_plus_uconst 88] [$sp+0]
	@DEBUG_VALUE: lv_chart_event:chart <- [DW_OP_plus_uconst 88] [$sp+0]
	@DEBUG_VALUE: lv_chart_event:e <- [DW_OP_LLVM_entry_value 1] $r1
	@DEBUG_VALUE: lv_chart_event:class_p <- [DW_OP_LLVM_entry_value 1] $r0
	.loc	12 0 9                          @ ../GUILib/src/extra/widgets/chart/lv_chart.c:0:9
	ldr	r0, [sp, #72]                   @ 4-byte Reload
	ldr	r1, [sp, #84]                   @ 4-byte Reload
	add	r6, sp, #232
	add	r0, r1
.Ltmp133:
	@DEBUG_VALUE: draw_div_lines:pad_top <- $r0
	mul	r1, r10, r8
	lsls	r2, r1, #8
	subs	r0, r0, r7
.Ltmp134:
	sbfx	r1, r1, #8, #16
	add	r11, r0
.Ltmp135:
	.loc	12 802 28                       @ ../GUILib/src/extra/widgets/chart/lv_chart.c:802:28
	uxth.w	r10, r5
.Ltmp136:
	.loc	12 802 9                        @ ../GUILib/src/extra/widgets/chart/lv_chart.c:802:9
	smultb	r8, r2, r4
	add	r7, sp, #296
	add	r5, sp, #108
.Ltmp137:
	.loc	12 0 9                          @ ../GUILib/src/extra/widgets/chart/lv_chart.c:0:9
	str	r1, [sp, #84]                   @ 4-byte Spill
.Ltmp138:
	.p2align	2
.LBB2_35:                               @ =>This Inner Loop Header: Depth=1
	@DEBUG_VALUE: draw_div_lines:clip_area <- [DW_OP_plus_uconst 44] [$sp+0]
	@DEBUG_VALUE: draw_div_lines:i <- $r4
	@DEBUG_VALUE: draw_div_lines:border_side <- [DW_OP_plus_uconst 68, DW_OP_deref_size 4, DW_OP_LLVM_convert 32 7, DW_OP_LLVM_convert 8 7, DW_OP_stack_value] $sp
	@DEBUG_VALUE: draw_div_lines:border_w <- [DW_OP_plus_uconst 76, DW_OP_deref_size 4, DW_OP_LLVM_convert 32 7, DW_OP_LLVM_convert 16 7, DW_OP_stack_value] $sp
	@DEBUG_VALUE: draw_div_lines:border_opa <- [DW_OP_plus_uconst 80] [$sp+0]
	@DEBUG_VALUE: draw_div_lines:border_width <- [DW_OP_plus_uconst 72] [$sp+0]
	@DEBUG_VALUE: draw_div_lines:obj <- [DW_OP_plus_uconst 88] [$sp+0]
	@DEBUG_VALUE: draw_div_lines:chart <- [DW_OP_plus_uconst 88] [$sp+0]
	@DEBUG_VALUE: lv_chart_event:obj <- [DW_OP_plus_uconst 88] [$sp+0]
	@DEBUG_VALUE: lv_chart_event:chart <- [DW_OP_plus_uconst 88] [$sp+0]
	@DEBUG_VALUE: lv_chart_event:e <- [DW_OP_LLVM_entry_value 1] $r1
	@DEBUG_VALUE: lv_chart_event:class_p <- [DW_OP_LLVM_entry_value 1] $r0
	@DEBUG_VALUE: draw_div_lines:i <- $r4
	.loc	12 803 56 is_stmt 1             @ ../GUILib/src/extra/widgets/chart/lv_chart.c:803:56
	ldrh.w	r0, [r9, #126]
	.loc	12 813 13                       @ ../GUILib/src/extra/widgets/chart/lv_chart.c:813:13
	movs	r1, #26
	.loc	12 803 65                       @ ../GUILib/src/extra/widgets/chart/lv_chart.c:803:65
	subs	r0, #1
	.loc	12 803 46 is_stmt 0             @ ../GUILib/src/extra/widgets/chart/lv_chart.c:803:46
	sdiv	r0, r8, r0
	.loc	12 813 13 is_stmt 1             @ ../GUILib/src/extra/widgets/chart/lv_chart.c:813:13
	mov	r2, r5
	.loc	12 804 18                       @ ../GUILib/src/extra/widgets/chart/lv_chart.c:804:18
	add	r0, r11
	strh.w	r0, [sp, #298]
	.loc	12 805 18                       @ ../GUILib/src/extra/widgets/chart/lv_chart.c:805:18
	strh.w	r0, [sp, #234]
	.loc	12 807 35                       @ ../GUILib/src/extra/widgets/chart/lv_chart.c:807:35
	movw	r0, :lower16:lv_chart_class
	movt	r0, :upper16:lv_chart_class
	str	r0, [sp, #112]
	.loc	12 808 32                       @ ../GUILib/src/extra/widgets/chart/lv_chart.c:808:32
	movs	r0, #1
	str	r0, [sp, #116]
	.loc	12 813 13                       @ ../GUILib/src/extra/widgets/chart/lv_chart.c:813:13
	mov	r0, r9
	.loc	12 809 30                       @ ../GUILib/src/extra/widgets/chart/lv_chart.c:809:30
	strd	r7, r6, [sp, #144]
	.loc	12 811 30                       @ ../GUILib/src/extra/widgets/chart/lv_chart.c:811:30
	str	r4, [sp, #164]
	.loc	12 813 13                       @ ../GUILib/src/extra/widgets/chart/lv_chart.c:813:13
	bl	lv_event_send
.Ltmp139:
	.loc	12 814 13                       @ ../GUILib/src/extra/widgets/chart/lv_chart.c:814:13
	mov	r0, r7
	mov	r1, r6
	add	r2, sp, #180
	add	r3, sp, #244
	bl	lv_draw_line
.Ltmp140:
	.loc	12 815 13                       @ ../GUILib/src/extra/widgets/chart/lv_chart.c:815:13
	mov	r0, r9
	movs	r1, #27
	mov	r2, r5
	bl	lv_event_send
.Ltmp141:
	.loc	12 802 28                       @ ../GUILib/src/extra/widgets/chart/lv_chart.c:802:28
	ldr	r0, [sp, #84]                   @ 4-byte Reload
	.loc	12 802 38 is_stmt 0             @ ../GUILib/src/extra/widgets/chart/lv_chart.c:802:38
	adds	r4, #1
.Ltmp142:
	@DEBUG_VALUE: draw_div_lines:i <- $r4
	.loc	12 802 9                        @ ../GUILib/src/extra/widgets/chart/lv_chart.c:802:9
	cmp	r10, r4
.Ltmp143:
	.loc	12 802 28                       @ ../GUILib/src/extra/widgets/chart/lv_chart.c:802:28
	add	r8, r0
.Ltmp144:
	.loc	12 802 9                        @ ../GUILib/src/extra/widgets/chart/lv_chart.c:802:9
	bne	.LBB2_35
.Ltmp145:
.LBB2_36:
	@DEBUG_VALUE: draw_div_lines:clip_area <- [DW_OP_plus_uconst 44] [$sp+0]
	@DEBUG_VALUE: draw_div_lines:border_side <- [DW_OP_plus_uconst 68, DW_OP_deref_size 4, DW_OP_LLVM_convert 32 7, DW_OP_LLVM_convert 8 7, DW_OP_stack_value] $sp
	@DEBUG_VALUE: draw_div_lines:border_w <- [DW_OP_plus_uconst 76, DW_OP_deref_size 4, DW_OP_LLVM_convert 32 7, DW_OP_LLVM_convert 16 7, DW_OP_stack_value] $sp
	@DEBUG_VALUE: draw_div_lines:border_opa <- [DW_OP_plus_uconst 80] [$sp+0]
	@DEBUG_VALUE: draw_div_lines:border_width <- [DW_OP_plus_uconst 72] [$sp+0]
	@DEBUG_VALUE: draw_div_lines:obj <- [DW_OP_plus_uconst 88] [$sp+0]
	@DEBUG_VALUE: draw_div_lines:chart <- [DW_OP_plus_uconst 88] [$sp+0]
	@DEBUG_VALUE: lv_chart_event:obj <- [DW_OP_plus_uconst 88] [$sp+0]
	@DEBUG_VALUE: lv_chart_event:chart <- [DW_OP_plus_uconst 88] [$sp+0]
	@DEBUG_VALUE: lv_chart_event:e <- [DW_OP_LLVM_entry_value 1] $r1
	@DEBUG_VALUE: lv_chart_event:class_p <- [DW_OP_LLVM_entry_value 1] $r0
	@DEBUG_VALUE: draw_div_lines:pad_left <- undef
	.loc	12 819 15 is_stmt 1             @ ../GUILib/src/extra/widgets/chart/lv_chart.c:819:15
	ldrh.w	r5, [r9, #128]
.Ltmp146:
	.loc	12 819 8 is_stmt 0              @ ../GUILib/src/extra/widgets/chart/lv_chart.c:819:8
	cmp	r5, #0
	beq	.LBB2_47
.Ltmp147:
@ %bb.37:
	@DEBUG_VALUE: draw_div_lines:clip_area <- [DW_OP_plus_uconst 44] [$sp+0]
	@DEBUG_VALUE: draw_div_lines:border_side <- [DW_OP_plus_uconst 68, DW_OP_deref_size 4, DW_OP_LLVM_convert 32 7, DW_OP_LLVM_convert 8 7, DW_OP_stack_value] $sp
	@DEBUG_VALUE: draw_div_lines:border_w <- [DW_OP_plus_uconst 76, DW_OP_deref_size 4, DW_OP_LLVM_convert 32 7, DW_OP_LLVM_convert 16 7, DW_OP_stack_value] $sp
	@DEBUG_VALUE: draw_div_lines:border_opa <- [DW_OP_plus_uconst 80] [$sp+0]
	@DEBUG_VALUE: draw_div_lines:border_width <- [DW_OP_plus_uconst 72] [$sp+0]
	@DEBUG_VALUE: draw_div_lines:obj <- [DW_OP_plus_uconst 88] [$sp+0]
	@DEBUG_VALUE: draw_div_lines:chart <- [DW_OP_plus_uconst 88] [$sp+0]
	@DEBUG_VALUE: lv_chart_event:obj <- [DW_OP_plus_uconst 88] [$sp+0]
	@DEBUG_VALUE: lv_chart_event:chart <- [DW_OP_plus_uconst 88] [$sp+0]
	@DEBUG_VALUE: lv_chart_event:e <- [DW_OP_LLVM_entry_value 1] $r1
	@DEBUG_VALUE: lv_chart_event:class_p <- [DW_OP_LLVM_entry_value 1] $r0
	@DEBUG_VALUE: draw_div_lines:pad_left <- undef
	.loc	12 821 28 is_stmt 1             @ ../GUILib/src/extra/widgets/chart/lv_chart.c:821:28
	ldrh.w	r0, [r9, #22]
	.loc	12 820 40                       @ ../GUILib/src/extra/widgets/chart/lv_chart.c:820:40
	ldrh.w	r6, [r9, #20]
.Ltmp148:
	@DEBUG_VALUE: x_ofs <- undef
	.loc	12 821 14                       @ ../GUILib/src/extra/widgets/chart/lv_chart.c:821:14
	strh.w	r0, [sp, #298]
.Ltmp149:
	.loc	12 825 36                       @ ../GUILib/src/extra/widgets/chart/lv_chart.c:825:36
	ldr	r0, [sp, #80]                   @ 4-byte Reload
.Ltmp150:
	.loc	12 822 28                       @ ../GUILib/src/extra/widgets/chart/lv_chart.c:822:28
	ldrh.w	r1, [r9, #26]
.Ltmp151:
	.loc	12 825 36                       @ ../GUILib/src/extra/widgets/chart/lv_chart.c:825:36
	cmp	r0, #3
	mov.w	r4, #0
.Ltmp152:
	@DEBUG_VALUE: draw_div_lines:i_end <- $r5
	@DEBUG_VALUE: draw_div_lines:i_start <- 0
	.loc	12 822 14                       @ ../GUILib/src/extra/widgets/chart/lv_chart.c:822:14
	strh.w	r1, [sp, #234]
.Ltmp153:
	.loc	12 825 36                       @ ../GUILib/src/extra/widgets/chart/lv_chart.c:825:36
	blo	.LBB2_44
.Ltmp154:
@ %bb.38:
	@DEBUG_VALUE: draw_div_lines:clip_area <- [DW_OP_plus_uconst 44] [$sp+0]
	@DEBUG_VALUE: draw_div_lines:i_end <- $r5
	@DEBUG_VALUE: draw_div_lines:border_side <- [DW_OP_plus_uconst 68, DW_OP_deref_size 4, DW_OP_LLVM_convert 32 7, DW_OP_LLVM_convert 8 7, DW_OP_stack_value] $sp
	@DEBUG_VALUE: draw_div_lines:border_w <- [DW_OP_plus_uconst 76, DW_OP_deref_size 4, DW_OP_LLVM_convert 32 7, DW_OP_LLVM_convert 16 7, DW_OP_stack_value] $sp
	@DEBUG_VALUE: draw_div_lines:border_opa <- [DW_OP_plus_uconst 80] [$sp+0]
	@DEBUG_VALUE: draw_div_lines:border_width <- [DW_OP_plus_uconst 72] [$sp+0]
	@DEBUG_VALUE: draw_div_lines:obj <- [DW_OP_plus_uconst 88] [$sp+0]
	@DEBUG_VALUE: draw_div_lines:chart <- [DW_OP_plus_uconst 88] [$sp+0]
	@DEBUG_VALUE: lv_chart_event:obj <- [DW_OP_plus_uconst 88] [$sp+0]
	@DEBUG_VALUE: lv_chart_event:chart <- [DW_OP_plus_uconst 88] [$sp+0]
	@DEBUG_VALUE: draw_div_lines:i_start <- 0
	@DEBUG_VALUE: lv_chart_event:e <- [DW_OP_LLVM_entry_value 1] $r1
	@DEBUG_VALUE: lv_chart_event:class_p <- [DW_OP_LLVM_entry_value 1] $r0
	ldr	r0, [sp, #76]                   @ 4-byte Reload
	sxth	r0, r0
	cmp	r0, #1
	blt	.LBB2_44
.Ltmp155:
@ %bb.39:
	@DEBUG_VALUE: draw_div_lines:clip_area <- [DW_OP_plus_uconst 44] [$sp+0]
	@DEBUG_VALUE: draw_div_lines:i_end <- $r5
	@DEBUG_VALUE: draw_div_lines:border_side <- [DW_OP_plus_uconst 68, DW_OP_deref_size 4, DW_OP_LLVM_convert 32 7, DW_OP_LLVM_convert 8 7, DW_OP_stack_value] $sp
	@DEBUG_VALUE: draw_div_lines:border_w <- [DW_OP_plus_uconst 76, DW_OP_deref_size 4, DW_OP_LLVM_convert 32 7, DW_OP_LLVM_convert 16 7, DW_OP_stack_value] $sp
	@DEBUG_VALUE: draw_div_lines:border_opa <- [DW_OP_plus_uconst 80] [$sp+0]
	@DEBUG_VALUE: draw_div_lines:border_width <- [DW_OP_plus_uconst 72] [$sp+0]
	@DEBUG_VALUE: draw_div_lines:obj <- [DW_OP_plus_uconst 88] [$sp+0]
	@DEBUG_VALUE: draw_div_lines:chart <- [DW_OP_plus_uconst 88] [$sp+0]
	@DEBUG_VALUE: lv_chart_event:obj <- [DW_OP_plus_uconst 88] [$sp+0]
	@DEBUG_VALUE: lv_chart_event:chart <- [DW_OP_plus_uconst 88] [$sp+0]
	@DEBUG_VALUE: draw_div_lines:i_start <- 0
	@DEBUG_VALUE: lv_chart_event:e <- [DW_OP_LLVM_entry_value 1] $r1
	@DEBUG_VALUE: lv_chart_event:class_p <- [DW_OP_LLVM_entry_value 1] $r0
	.loc	12 0 36 is_stmt 0               @ ../GUILib/src/extra/widgets/chart/lv_chart.c:0:36
	ldr	r7, [sp, #68]                   @ 4-byte Reload
.Ltmp156:
	.loc	12 826 52 is_stmt 1             @ ../GUILib/src/extra/widgets/chart/lv_chart.c:826:52
	lsls	r0, r7, #29
	bmi	.LBB2_41
.Ltmp157:
@ %bb.40:
	@DEBUG_VALUE: draw_div_lines:clip_area <- [DW_OP_plus_uconst 44] [$sp+0]
	@DEBUG_VALUE: draw_div_lines:i_end <- $r5
	@DEBUG_VALUE: draw_div_lines:border_side <- [DW_OP_plus_uconst 68, DW_OP_deref_size 4, DW_OP_LLVM_convert 32 7, DW_OP_LLVM_convert 8 7, DW_OP_stack_value] $sp
	@DEBUG_VALUE: draw_div_lines:border_w <- [DW_OP_plus_uconst 76, DW_OP_deref_size 4, DW_OP_LLVM_convert 32 7, DW_OP_LLVM_convert 16 7, DW_OP_stack_value] $sp
	@DEBUG_VALUE: draw_div_lines:border_opa <- [DW_OP_plus_uconst 80] [$sp+0]
	@DEBUG_VALUE: draw_div_lines:border_width <- [DW_OP_plus_uconst 72] [$sp+0]
	@DEBUG_VALUE: draw_div_lines:obj <- [DW_OP_plus_uconst 88] [$sp+0]
	@DEBUG_VALUE: draw_div_lines:chart <- [DW_OP_plus_uconst 88] [$sp+0]
	@DEBUG_VALUE: lv_chart_event:obj <- [DW_OP_plus_uconst 88] [$sp+0]
	@DEBUG_VALUE: lv_chart_event:chart <- [DW_OP_plus_uconst 88] [$sp+0]
	@DEBUG_VALUE: draw_div_lines:i_start <- 0
	@DEBUG_VALUE: lv_chart_event:e <- [DW_OP_LLVM_entry_value 1] $r1
	@DEBUG_VALUE: lv_chart_event:class_p <- [DW_OP_LLVM_entry_value 1] $r0
	.loc	12 0 52 is_stmt 0               @ ../GUILib/src/extra/widgets/chart/lv_chart.c:0:52
	movs	r4, #0
	b	.LBB2_42
.Ltmp158:
.LBB2_41:
	@DEBUG_VALUE: draw_div_lines:clip_area <- [DW_OP_plus_uconst 44] [$sp+0]
	@DEBUG_VALUE: draw_div_lines:i_end <- $r5
	@DEBUG_VALUE: draw_div_lines:border_side <- [DW_OP_plus_uconst 68, DW_OP_deref_size 4, DW_OP_LLVM_convert 32 7, DW_OP_LLVM_convert 8 7, DW_OP_stack_value] $sp
	@DEBUG_VALUE: draw_div_lines:border_w <- [DW_OP_plus_uconst 76, DW_OP_deref_size 4, DW_OP_LLVM_convert 32 7, DW_OP_LLVM_convert 16 7, DW_OP_stack_value] $sp
	@DEBUG_VALUE: draw_div_lines:border_opa <- [DW_OP_plus_uconst 80] [$sp+0]
	@DEBUG_VALUE: draw_div_lines:border_width <- [DW_OP_plus_uconst 72] [$sp+0]
	@DEBUG_VALUE: draw_div_lines:obj <- [DW_OP_plus_uconst 88] [$sp+0]
	@DEBUG_VALUE: draw_div_lines:chart <- [DW_OP_plus_uconst 88] [$sp+0]
	@DEBUG_VALUE: lv_chart_event:obj <- [DW_OP_plus_uconst 88] [$sp+0]
	@DEBUG_VALUE: lv_chart_event:chart <- [DW_OP_plus_uconst 88] [$sp+0]
	@DEBUG_VALUE: draw_div_lines:i_start <- 0
	@DEBUG_VALUE: lv_chart_event:e <- [DW_OP_LLVM_entry_value 1] $r1
	@DEBUG_VALUE: lv_chart_event:class_p <- [DW_OP_LLVM_entry_value 1] $r0
	@DEBUG_VALUE: lv_obj_get_style_pad_left:obj <- [DW_OP_plus_uconst 88] [$sp+0]
	@DEBUG_VALUE: lv_obj_get_style_pad_left:part <- 0
	.loc	18 105 26 is_stmt 1             @ ../GUILib/src/core/lv_obj_style_gen.h:105:26
	ldr	r0, [sp, #88]                   @ 4-byte Reload
	movs	r1, #0
	movw	r2, #6162
	bl	lv_obj_get_style_prop
.Ltmp159:
	@DEBUG_VALUE: lv_obj_get_style_pad_left:v <- $r0
	.loc	18 106 12                       @ ../GUILib/src/core/lv_obj_style_gen.h:106:12
	uxth	r0, r0
.Ltmp160:
	.loc	12 826 101                      @ ../GUILib/src/extra/widgets/chart/lv_chart.c:826:101
	clz	r0, r0
	lsrs	r4, r0, #5
.Ltmp161:
.LBB2_42:
	@DEBUG_VALUE: draw_div_lines:clip_area <- [DW_OP_plus_uconst 44] [$sp+0]
	@DEBUG_VALUE: draw_div_lines:i_end <- $r5
	@DEBUG_VALUE: draw_div_lines:border_side <- [DW_OP_plus_uconst 68, DW_OP_deref_size 4, DW_OP_LLVM_convert 32 7, DW_OP_LLVM_convert 8 7, DW_OP_stack_value] $sp
	@DEBUG_VALUE: draw_div_lines:border_w <- [DW_OP_plus_uconst 76, DW_OP_deref_size 4, DW_OP_LLVM_convert 32 7, DW_OP_LLVM_convert 16 7, DW_OP_stack_value] $sp
	@DEBUG_VALUE: draw_div_lines:border_opa <- [DW_OP_plus_uconst 80] [$sp+0]
	@DEBUG_VALUE: draw_div_lines:border_width <- [DW_OP_plus_uconst 72] [$sp+0]
	@DEBUG_VALUE: draw_div_lines:obj <- [DW_OP_plus_uconst 88] [$sp+0]
	@DEBUG_VALUE: draw_div_lines:chart <- [DW_OP_plus_uconst 88] [$sp+0]
	@DEBUG_VALUE: lv_chart_event:obj <- [DW_OP_plus_uconst 88] [$sp+0]
	@DEBUG_VALUE: lv_chart_event:chart <- [DW_OP_plus_uconst 88] [$sp+0]
	@DEBUG_VALUE: draw_div_lines:i_start <- 0
	@DEBUG_VALUE: lv_chart_event:e <- [DW_OP_LLVM_entry_value 1] $r1
	@DEBUG_VALUE: lv_chart_event:class_p <- [DW_OP_LLVM_entry_value 1] $r0
	@DEBUG_VALUE: draw_div_lines:i_start <- $r4
	.loc	12 827 53                       @ ../GUILib/src/extra/widgets/chart/lv_chart.c:827:53
	lsls	r0, r7, #28
	bpl	.LBB2_44
.Ltmp162:
@ %bb.43:
	@DEBUG_VALUE: draw_div_lines:clip_area <- [DW_OP_plus_uconst 44] [$sp+0]
	@DEBUG_VALUE: draw_div_lines:i_end <- $r5
	@DEBUG_VALUE: draw_div_lines:i_start <- $r4
	@DEBUG_VALUE: draw_div_lines:border_side <- [DW_OP_plus_uconst 68, DW_OP_deref_size 4, DW_OP_LLVM_convert 32 7, DW_OP_LLVM_convert 8 7, DW_OP_stack_value] $sp
	@DEBUG_VALUE: draw_div_lines:border_w <- [DW_OP_plus_uconst 76, DW_OP_deref_size 4, DW_OP_LLVM_convert 32 7, DW_OP_LLVM_convert 16 7, DW_OP_stack_value] $sp
	@DEBUG_VALUE: draw_div_lines:border_opa <- [DW_OP_plus_uconst 80] [$sp+0]
	@DEBUG_VALUE: draw_div_lines:border_width <- [DW_OP_plus_uconst 72] [$sp+0]
	@DEBUG_VALUE: draw_div_lines:obj <- [DW_OP_plus_uconst 88] [$sp+0]
	@DEBUG_VALUE: draw_div_lines:chart <- [DW_OP_plus_uconst 88] [$sp+0]
	@DEBUG_VALUE: lv_chart_event:obj <- [DW_OP_plus_uconst 88] [$sp+0]
	@DEBUG_VALUE: lv_chart_event:chart <- [DW_OP_plus_uconst 88] [$sp+0]
	@DEBUG_VALUE: lv_chart_event:e <- [DW_OP_LLVM_entry_value 1] $r1
	@DEBUG_VALUE: lv_chart_event:class_p <- [DW_OP_LLVM_entry_value 1] $r0
	@DEBUG_VALUE: lv_obj_get_style_pad_right:obj <- [DW_OP_plus_uconst 88] [$sp+0]
	@DEBUG_VALUE: lv_obj_get_style_pad_right:part <- 0
	.loc	18 111 26                       @ ../GUILib/src/core/lv_obj_style_gen.h:111:26
	ldr	r0, [sp, #88]                   @ 4-byte Reload
	movs	r1, #0
	movw	r2, #6163
	bl	lv_obj_get_style_prop
.Ltmp163:
	@DEBUG_VALUE: lv_obj_get_style_pad_right:v <- $r0
	.loc	12 827 16                       @ ../GUILib/src/extra/widgets/chart/lv_chart.c:827:16
	lsls	r0, r0, #16
	it	eq
	subeq	r5, #1
.Ltmp164:
.LBB2_44:
	@DEBUG_VALUE: draw_div_lines:clip_area <- [DW_OP_plus_uconst 44] [$sp+0]
	@DEBUG_VALUE: draw_div_lines:border_side <- [DW_OP_plus_uconst 68, DW_OP_deref_size 4, DW_OP_LLVM_convert 32 7, DW_OP_LLVM_convert 8 7, DW_OP_stack_value] $sp
	@DEBUG_VALUE: draw_div_lines:border_w <- [DW_OP_plus_uconst 76, DW_OP_deref_size 4, DW_OP_LLVM_convert 32 7, DW_OP_LLVM_convert 16 7, DW_OP_stack_value] $sp
	@DEBUG_VALUE: draw_div_lines:border_opa <- [DW_OP_plus_uconst 80] [$sp+0]
	@DEBUG_VALUE: draw_div_lines:border_width <- [DW_OP_plus_uconst 72] [$sp+0]
	@DEBUG_VALUE: draw_div_lines:obj <- [DW_OP_plus_uconst 88] [$sp+0]
	@DEBUG_VALUE: draw_div_lines:chart <- [DW_OP_plus_uconst 88] [$sp+0]
	@DEBUG_VALUE: lv_chart_event:obj <- [DW_OP_plus_uconst 88] [$sp+0]
	@DEBUG_VALUE: lv_chart_event:chart <- [DW_OP_plus_uconst 88] [$sp+0]
	@DEBUG_VALUE: lv_chart_event:e <- [DW_OP_LLVM_entry_value 1] $r1
	@DEBUG_VALUE: lv_chart_event:class_p <- [DW_OP_LLVM_entry_value 1] $r0
	@DEBUG_VALUE: draw_div_lines:pad_left <- undef
	@DEBUG_VALUE: draw_div_lines:i_start <- $r4
	@DEBUG_VALUE: draw_div_lines:i_end <- $r5
	@DEBUG_VALUE: draw_div_lines:i <- $r4
	.loc	12 830 28                       @ ../GUILib/src/extra/widgets/chart/lv_chart.c:830:28
	sxth	r0, r5
	ldr.w	r9, [sp, #88]                   @ 4-byte Reload
.Ltmp165:
	.loc	12 830 9 is_stmt 0              @ ../GUILib/src/extra/widgets/chart/lv_chart.c:830:9
	cmp	r4, r0
	bge	.LBB2_47
.Ltmp166:
@ %bb.45:
	@DEBUG_VALUE: draw_div_lines:clip_area <- [DW_OP_plus_uconst 44] [$sp+0]
	@DEBUG_VALUE: draw_div_lines:i_end <- $r5
	@DEBUG_VALUE: draw_div_lines:i <- $r4
	@DEBUG_VALUE: draw_div_lines:i_start <- $r4
	@DEBUG_VALUE: draw_div_lines:border_side <- [DW_OP_plus_uconst 68, DW_OP_deref_size 4, DW_OP_LLVM_convert 32 7, DW_OP_LLVM_convert 8 7, DW_OP_stack_value] $sp
	@DEBUG_VALUE: draw_div_lines:border_w <- [DW_OP_plus_uconst 76, DW_OP_deref_size 4, DW_OP_LLVM_convert 32 7, DW_OP_LLVM_convert 16 7, DW_OP_stack_value] $sp
	@DEBUG_VALUE: draw_div_lines:border_opa <- [DW_OP_plus_uconst 80] [$sp+0]
	@DEBUG_VALUE: draw_div_lines:border_width <- [DW_OP_plus_uconst 72] [$sp+0]
	@DEBUG_VALUE: draw_div_lines:obj <- [DW_OP_plus_uconst 88] [$sp+0]
	@DEBUG_VALUE: draw_div_lines:chart <- [DW_OP_plus_uconst 88] [$sp+0]
	@DEBUG_VALUE: lv_chart_event:obj <- [DW_OP_plus_uconst 88] [$sp+0]
	@DEBUG_VALUE: lv_chart_event:chart <- [DW_OP_plus_uconst 88] [$sp+0]
	@DEBUG_VALUE: lv_chart_event:e <- [DW_OP_LLVM_entry_value 1] $r1
	@DEBUG_VALUE: lv_chart_event:class_p <- [DW_OP_LLVM_entry_value 1] $r0
	.loc	12 0 9                          @ ../GUILib/src/extra/widgets/chart/lv_chart.c:0:9
	ldr	r0, [sp, #72]                   @ 4-byte Reload
	ldr	r1, [sp, #64]                   @ 4-byte Reload
.Ltmp167:
	.loc	12 830 28                       @ ../GUILib/src/extra/widgets/chart/lv_chart.c:830:28
	uxth.w	r8, r5
	add	r0, r1
.Ltmp168:
	@DEBUG_VALUE: draw_div_lines:pad_left <- $r0
	.loc	12 0 28                         @ ../GUILib/src/extra/widgets/chart/lv_chart.c:0:28
	ldrd	r2, r1, [sp, #56]               @ 8-byte Folded Reload
	add	r7, sp, #232
	muls	r1, r2, r1
	lsls	r2, r1, #8
	sbfx	r1, r1, #8, #16
	str	r1, [sp, #84]                   @ 4-byte Spill
	ldr	r1, [sp, #52]                   @ 4-byte Reload
.Ltmp169:
	.loc	12 830 9                        @ ../GUILib/src/extra/widgets/chart/lv_chart.c:830:9
	smultb	r10, r2, r4
	subs	r0, r0, r1
.Ltmp170:
	.loc	12 0 9                          @ ../GUILib/src/extra/widgets/chart/lv_chart.c:0:9
	add.w	r11, r0, r6
	add	r6, sp, #296
	add	r5, sp, #108
.Ltmp171:
	.p2align	2
.LBB2_46:                               @ =>This Inner Loop Header: Depth=1
	@DEBUG_VALUE: draw_div_lines:clip_area <- [DW_OP_plus_uconst 44] [$sp+0]
	@DEBUG_VALUE: draw_div_lines:i <- $r4
	@DEBUG_VALUE: draw_div_lines:border_side <- [DW_OP_plus_uconst 68, DW_OP_deref_size 4, DW_OP_LLVM_convert 32 7, DW_OP_LLVM_convert 8 7, DW_OP_stack_value] $sp
	@DEBUG_VALUE: draw_div_lines:border_w <- [DW_OP_plus_uconst 76, DW_OP_deref_size 4, DW_OP_LLVM_convert 32 7, DW_OP_LLVM_convert 16 7, DW_OP_stack_value] $sp
	@DEBUG_VALUE: draw_div_lines:border_opa <- [DW_OP_plus_uconst 80] [$sp+0]
	@DEBUG_VALUE: draw_div_lines:border_width <- [DW_OP_plus_uconst 72] [$sp+0]
	@DEBUG_VALUE: draw_div_lines:obj <- [DW_OP_plus_uconst 88] [$sp+0]
	@DEBUG_VALUE: draw_div_lines:chart <- [DW_OP_plus_uconst 88] [$sp+0]
	@DEBUG_VALUE: lv_chart_event:obj <- [DW_OP_plus_uconst 88] [$sp+0]
	@DEBUG_VALUE: lv_chart_event:chart <- [DW_OP_plus_uconst 88] [$sp+0]
	@DEBUG_VALUE: lv_chart_event:e <- [DW_OP_LLVM_entry_value 1] $r1
	@DEBUG_VALUE: lv_chart_event:class_p <- [DW_OP_LLVM_entry_value 1] $r0
	@DEBUG_VALUE: draw_div_lines:i <- $r4
	.loc	12 831 56 is_stmt 1             @ ../GUILib/src/extra/widgets/chart/lv_chart.c:831:56
	ldrh.w	r0, [r9, #128]
	.loc	12 841 13                       @ ../GUILib/src/extra/widgets/chart/lv_chart.c:841:13
	movs	r1, #26
	.loc	12 831 65                       @ ../GUILib/src/extra/widgets/chart/lv_chart.c:831:65
	subs	r0, #1
	.loc	12 831 46 is_stmt 0             @ ../GUILib/src/extra/widgets/chart/lv_chart.c:831:46
	sdiv	r0, r10, r0
	.loc	12 841 13 is_stmt 1             @ ../GUILib/src/extra/widgets/chart/lv_chart.c:841:13
	mov	r2, r5
	.loc	12 832 18                       @ ../GUILib/src/extra/widgets/chart/lv_chart.c:832:18
	add	r0, r11
	strh.w	r0, [sp, #296]
	.loc	12 833 18                       @ ../GUILib/src/extra/widgets/chart/lv_chart.c:833:18
	strh.w	r0, [sp, #232]
	.loc	12 835 35                       @ ../GUILib/src/extra/widgets/chart/lv_chart.c:835:35
	movw	r0, :lower16:lv_chart_class
	movt	r0, :upper16:lv_chart_class
	str	r0, [sp, #112]
	.loc	12 836 32                       @ ../GUILib/src/extra/widgets/chart/lv_chart.c:836:32
	movs	r0, #2
	str	r0, [sp, #116]
	.loc	12 841 13                       @ ../GUILib/src/extra/widgets/chart/lv_chart.c:841:13
	mov	r0, r9
	.loc	12 837 30                       @ ../GUILib/src/extra/widgets/chart/lv_chart.c:837:30
	strd	r6, r7, [sp, #144]
	.loc	12 839 30                       @ ../GUILib/src/extra/widgets/chart/lv_chart.c:839:30
	str	r4, [sp, #164]
	.loc	12 841 13                       @ ../GUILib/src/extra/widgets/chart/lv_chart.c:841:13
	bl	lv_event_send
.Ltmp172:
	.loc	12 842 13                       @ ../GUILib/src/extra/widgets/chart/lv_chart.c:842:13
	mov	r0, r6
	mov	r1, r7
	add	r2, sp, #180
	add	r3, sp, #244
	bl	lv_draw_line
.Ltmp173:
	.loc	12 843 13                       @ ../GUILib/src/extra/widgets/chart/lv_chart.c:843:13
	mov	r0, r9
	movs	r1, #27
	mov	r2, r5
	bl	lv_event_send
.Ltmp174:
	.loc	12 830 28                       @ ../GUILib/src/extra/widgets/chart/lv_chart.c:830:28
	ldr	r0, [sp, #84]                   @ 4-byte Reload
	.loc	12 830 38 is_stmt 0             @ ../GUILib/src/extra/widgets/chart/lv_chart.c:830:38
	adds	r4, #1
.Ltmp175:
	@DEBUG_VALUE: draw_div_lines:i <- $r4
	.loc	12 830 9                        @ ../GUILib/src/extra/widgets/chart/lv_chart.c:830:9
	cmp	r8, r4
.Ltmp176:
	.loc	12 830 28                       @ ../GUILib/src/extra/widgets/chart/lv_chart.c:830:28
	add	r10, r0
.Ltmp177:
	.loc	12 830 9                        @ ../GUILib/src/extra/widgets/chart/lv_chart.c:830:9
	bne	.LBB2_46
.Ltmp178:
.LBB2_47:
	@DEBUG_VALUE: draw_div_lines:clip_area <- [DW_OP_plus_uconst 44] [$sp+0]
	@DEBUG_VALUE: draw_div_lines:border_side <- [DW_OP_plus_uconst 68, DW_OP_deref_size 4, DW_OP_LLVM_convert 32 7, DW_OP_LLVM_convert 8 7, DW_OP_stack_value] $sp
	@DEBUG_VALUE: draw_div_lines:border_w <- [DW_OP_plus_uconst 76, DW_OP_deref_size 4, DW_OP_LLVM_convert 32 7, DW_OP_LLVM_convert 16 7, DW_OP_stack_value] $sp
	@DEBUG_VALUE: draw_div_lines:border_opa <- [DW_OP_plus_uconst 80] [$sp+0]
	@DEBUG_VALUE: draw_div_lines:border_width <- [DW_OP_plus_uconst 72] [$sp+0]
	@DEBUG_VALUE: draw_div_lines:obj <- [DW_OP_plus_uconst 88] [$sp+0]
	@DEBUG_VALUE: draw_div_lines:chart <- [DW_OP_plus_uconst 88] [$sp+0]
	@DEBUG_VALUE: lv_chart_event:obj <- [DW_OP_plus_uconst 88] [$sp+0]
	@DEBUG_VALUE: lv_chart_event:chart <- [DW_OP_plus_uconst 88] [$sp+0]
	@DEBUG_VALUE: lv_chart_event:e <- [DW_OP_LLVM_entry_value 1] $r1
	@DEBUG_VALUE: lv_chart_event:class_p <- [DW_OP_LLVM_entry_value 1] $r0
	.loc	12 0 9                          @ ../GUILib/src/extra/widgets/chart/lv_chart.c:0:9
	mov.w	r0, #-1
	.loc	12 847 22 is_stmt 1             @ ../GUILib/src/extra/widgets/chart/lv_chart.c:847:22
	str	r0, [sp, #164]
	movs	r0, #0
	.loc	12 848 22                       @ ../GUILib/src/extra/widgets/chart/lv_chart.c:848:22
	strd	r0, r0, [sp, #144]
	add	r2, sp, #108
	.loc	12 850 5                        @ ../GUILib/src/extra/widgets/chart/lv_chart.c:850:5
	mov	r0, r9
	movs	r1, #27
	bl	lv_event_send
.Ltmp179:
	.loc	12 0 5 is_stmt 0                @ ../GUILib/src/extra/widgets/chart/lv_chart.c:0:5
	movw	r7, :lower16:lv_chart_class
	ldr.w	r11, [sp, #44]                  @ 4-byte Reload
.Ltmp180:
	@DEBUG_VALUE: draw_div_lines:clip_area <- $r11
	mov	r4, r9
	movt	r7, :upper16:lv_chart_class
	add.w	r10, sp, #180
.Ltmp181:
.LBB2_48:
	@DEBUG_VALUE: lv_chart_event:obj <- [DW_OP_plus_uconst 88] [$sp+0]
	@DEBUG_VALUE: lv_chart_event:chart <- [DW_OP_plus_uconst 88] [$sp+0]
	@DEBUG_VALUE: lv_chart_event:class_p <- [DW_OP_LLVM_entry_value 1] $r0
	@DEBUG_VALUE: draw_axes:obj <- [DW_OP_plus_uconst 88] [$sp+0]
	.loc	12 1616 5 is_stmt 1             @ ../GUILib/src/extra/widgets/chart/lv_chart.c:1616:5
	mov	r0, r4
	mov	r1, r11
	movs	r2, #0
	bl	draw_y_ticks
.Ltmp182:
	.loc	12 1617 5                       @ ../GUILib/src/extra/widgets/chart/lv_chart.c:1617:5
	mov	r0, r4
	mov	r1, r11
	movs	r2, #1
	bl	draw_y_ticks
.Ltmp183:
	.loc	12 1618 5                       @ ../GUILib/src/extra/widgets/chart/lv_chart.c:1618:5
	mov	r0, r4
	mov	r1, r11
	movs	r2, #2
	bl	draw_x_ticks
.Ltmp184:
	.loc	12 1619 5                       @ ../GUILib/src/extra/widgets/chart/lv_chart.c:1619:5
	mov	r0, r4
	mov	r1, r11
	movs	r2, #4
	bl	draw_x_ticks
.Ltmp185:
	.loc	12 740 36                       @ ../GUILib/src/extra/widgets/chart/lv_chart.c:740:36
	add.w	r0, r4, #36
	str	r0, [sp, #84]                   @ 4-byte Spill
	.loc	12 740 12 is_stmt 0             @ ../GUILib/src/extra/widgets/chart/lv_chart.c:740:12
	bl	_lv_ll_is_empty
.Ltmp186:
	.loc	12 740 12                       @ ../GUILib/src/extra/widgets/chart/lv_chart.c:740:12
	cmp	r0, #0
	@DEBUG_VALUE: draw_axes:mask <- $r11
	bne.w	.LBB2_140
.Ltmp187:
@ %bb.49:
	@DEBUG_VALUE: lv_chart_event:obj <- [DW_OP_plus_uconst 88] [$sp+0]
	@DEBUG_VALUE: lv_chart_event:chart <- [DW_OP_plus_uconst 88] [$sp+0]
	@DEBUG_VALUE: lv_chart_event:class_p <- [DW_OP_LLVM_entry_value 1] $r0
	.loc	12 741 23 is_stmt 1             @ ../GUILib/src/extra/widgets/chart/lv_chart.c:741:23
	ldrb.w	r0, [r4, #136]
.Ltmp188:
	.loc	12 741 16 is_stmt 0             @ ../GUILib/src/extra/widgets/chart/lv_chart.c:741:16
	and	r0, r0, #7
	cmp	r0, #3
	beq.w	.LBB2_95
.Ltmp189:
@ %bb.50:
	@DEBUG_VALUE: lv_chart_event:obj <- [DW_OP_plus_uconst 88] [$sp+0]
	@DEBUG_VALUE: lv_chart_event:chart <- [DW_OP_plus_uconst 88] [$sp+0]
	@DEBUG_VALUE: lv_chart_event:class_p <- [DW_OP_LLVM_entry_value 1] $r0
	cmp	r0, #2
	beq.w	.LBB2_124
.Ltmp190:
@ %bb.51:
	@DEBUG_VALUE: lv_chart_event:obj <- [DW_OP_plus_uconst 88] [$sp+0]
	@DEBUG_VALUE: lv_chart_event:chart <- [DW_OP_plus_uconst 88] [$sp+0]
	@DEBUG_VALUE: lv_chart_event:class_p <- [DW_OP_LLVM_entry_value 1] $r0
	cmp	r0, #1
	bne.w	.LBB2_140
.Ltmp191:
@ %bb.52:
	@DEBUG_VALUE: lv_chart_event:obj <- [DW_OP_plus_uconst 88] [$sp+0]
	@DEBUG_VALUE: lv_chart_event:chart <- [DW_OP_plus_uconst 88] [$sp+0]
	@DEBUG_VALUE: lv_chart_event:class_p <- [DW_OP_LLVM_entry_value 1] $r0
	@DEBUG_VALUE: draw_series_line:obj <- [DW_OP_plus_uconst 88] [$sp+0]
	.loc	12 857 8 is_stmt 1              @ ../GUILib/src/extra/widgets/chart/lv_chart.c:857:8
	ldr	r1, [sp, #36]                   @ 4-byte Reload
	add	r0, sp, #296
	mov	r2, r11
	bl	_lv_area_intersect
.Ltmp192:
	.loc	12 857 8 is_stmt 0              @ ../GUILib/src/extra/widgets/chart/lv_chart.c:857:8
	cmp	r0, #0
.Ltmp193:
	@DEBUG_VALUE: draw_series_line:clip_area <- $r11
	beq.w	.LBB2_140
.Ltmp194:
@ %bb.53:
	@DEBUG_VALUE: draw_series_line:clip_area <- $r11
	@DEBUG_VALUE: draw_series_line:obj <- [DW_OP_plus_uconst 88] [$sp+0]
	@DEBUG_VALUE: lv_chart_event:obj <- [DW_OP_plus_uconst 88] [$sp+0]
	@DEBUG_VALUE: lv_chart_event:chart <- [DW_OP_plus_uconst 88] [$sp+0]
	@DEBUG_VALUE: lv_chart_event:class_p <- [DW_OP_LLVM_entry_value 1] $r0
	@DEBUG_VALUE: draw_series_line:chart <- [DW_OP_plus_uconst 88] [$sp+0]
	.loc	12 860 15 is_stmt 1             @ ../GUILib/src/extra/widgets/chart/lv_chart.c:860:15
	ldrh.w	r0, [r4, #130]
.Ltmp195:
	.loc	12 860 8 is_stmt 0              @ ../GUILib/src/extra/widgets/chart/lv_chart.c:860:8
	cmp	r0, #2
	blo.w	.LBB2_140
.Ltmp196:
@ %bb.54:
	@DEBUG_VALUE: draw_series_line:clip_area <- $r11
	@DEBUG_VALUE: draw_series_line:chart <- [DW_OP_plus_uconst 88] [$sp+0]
	@DEBUG_VALUE: draw_series_line:obj <- [DW_OP_plus_uconst 88] [$sp+0]
	@DEBUG_VALUE: lv_chart_event:obj <- [DW_OP_plus_uconst 88] [$sp+0]
	@DEBUG_VALUE: lv_chart_event:chart <- [DW_OP_plus_uconst 88] [$sp+0]
	@DEBUG_VALUE: lv_chart_event:class_p <- [DW_OP_LLVM_entry_value 1] $r0
	@DEBUG_VALUE: lv_obj_get_style_border_width:obj <- [DW_OP_plus_uconst 88] [$sp+0]
	@DEBUG_VALUE: lv_obj_get_style_border_width:part <- 0
	.loc	18 297 26 is_stmt 1             @ ../GUILib/src/core/lv_obj_style_gen.h:297:26
	mov	r0, r4
	movs	r1, #0
	movw	r2, #4146
	bl	lv_obj_get_style_prop
.Ltmp197:
	mov	r9, r0
.Ltmp198:
	@DEBUG_VALUE: lv_obj_get_style_pad_left:part <- 0
	@DEBUG_VALUE: lv_obj_get_style_pad_left:obj <- [DW_OP_plus_uconst 88] [$sp+0]
	@DEBUG_VALUE: draw_series_line:border_width <- $r9
	@DEBUG_VALUE: lv_obj_get_style_border_width:v <- $r9
	.loc	18 105 26                       @ ../GUILib/src/core/lv_obj_style_gen.h:105:26
	mov	r0, r4
	movs	r1, #0
	movw	r2, #6162
	bl	lv_obj_get_style_prop
.Ltmp199:
	str	r0, [sp, #80]                   @ 4-byte Spill
.Ltmp200:
	@DEBUG_VALUE: lv_obj_get_style_pad_top:part <- 0
	@DEBUG_VALUE: lv_obj_get_style_pad_top:obj <- [DW_OP_plus_uconst 88] [$sp+0]
	@DEBUG_VALUE: draw_series_line:pad_left <- undef
	@DEBUG_VALUE: lv_obj_get_style_pad_left:v <- [DW_OP_plus_uconst 80] [$sp+0]
	.loc	18 93 26                        @ ../GUILib/src/core/lv_obj_style_gen.h:93:26
	mov	r0, r4
	movs	r1, #0
	movw	r2, #6160
	bl	lv_obj_get_style_prop
.Ltmp201:
	str	r0, [sp, #76]                   @ 4-byte Spill
.Ltmp202:
	@DEBUG_VALUE: draw_series_line:pad_top <- undef
	@DEBUG_VALUE: lv_obj_get_style_pad_top:v <- [DW_OP_plus_uconst 76] [$sp+0]
	.loc	12 868 34                       @ ../GUILib/src/extra/widgets/chart/lv_chart.c:868:34
	mov	r0, r4
	bl	lv_obj_get_content_width
.Ltmp203:
	.loc	12 868 73 is_stmt 0             @ ../GUILib/src/extra/widgets/chart/lv_chart.c:868:73
	ldrh.w	r1, [r4, #132]
.Ltmp204:
	@DEBUG_VALUE: draw_series_line:w <- [DW_OP_constu 8, DW_OP_shr, DW_OP_LLVM_convert 32 7, DW_OP_LLVM_convert 16 7, DW_OP_stack_value] undef
	.loc	12 868 34                       @ ../GUILib/src/extra/widgets/chart/lv_chart.c:868:34
	strd	r0, r1, [sp, #68]               @ 8-byte Folded Spill
	.loc	12 869 34 is_stmt 1             @ ../GUILib/src/extra/widgets/chart/lv_chart.c:869:34
	mov	r0, r4
	bl	lv_obj_get_content_height
.Ltmp205:
	.loc	12 0 34 is_stmt 0               @ ../GUILib/src/extra/widgets/chart/lv_chart.c:0:34
	mov	r5, r4
	.loc	12 869 74                       @ ../GUILib/src/extra/widgets/chart/lv_chart.c:869:74
	ldrh.w	r7, [r4, #134]
.Ltmp206:
	@DEBUG_VALUE: draw_series_line:h <- [DW_OP_constu 8, DW_OP_shr, DW_OP_LLVM_convert 32 7, DW_OP_LLVM_convert 16 7, DW_OP_stack_value] undef
	.loc	12 870 36 is_stmt 1             @ ../GUILib/src/extra/widgets/chart/lv_chart.c:870:36
	ldrh	r6, [r4, #20]
	.loc	12 869 34                       @ ../GUILib/src/extra/widgets/chart/lv_chart.c:869:34
	mov	r4, r0
	.loc	12 870 52                       @ ../GUILib/src/extra/widgets/chart/lv_chart.c:870:52
	mov	r0, r5
	bl	lv_obj_get_scroll_left
.Ltmp207:
	.loc	12 871 36                       @ ../GUILib/src/extra/widgets/chart/lv_chart.c:871:36
	ldrh.w	r8, [r5, #22]
	.loc	12 870 52                       @ ../GUILib/src/extra/widgets/chart/lv_chart.c:870:52
	str	r0, [sp, #64]                   @ 4-byte Spill
.Ltmp208:
	@DEBUG_VALUE: draw_series_line:x_ofs <- undef
	.loc	12 871 51                       @ ../GUILib/src/extra/widgets/chart/lv_chart.c:871:51
	mov	r0, r5
	bl	lv_obj_get_scroll_top
.Ltmp209:
	.loc	12 875 21                       @ ../GUILib/src/extra/widgets/chart/lv_chart.c:875:21
	ldr	r1, [sp, #36]                   @ 4-byte Reload
	.loc	12 871 51                       @ ../GUILib/src/extra/widgets/chart/lv_chart.c:871:51
	mov	r5, r0
.Ltmp210:
	@DEBUG_VALUE: draw_series_line:y_ofs <- undef
	.loc	12 0 51 is_stmt 0               @ ../GUILib/src/extra/widgets/chart/lv_chart.c:0:51
	add	r0, sp, #232
	.loc	12 875 21 is_stmt 1             @ ../GUILib/src/extra/widgets/chart/lv_chart.c:875:21
	mov	r2, r11
	bl	_lv_area_intersect
.Ltmp211:
	@DEBUG_VALUE: draw_series_line:mask_ret <- [DW_OP_LLVM_convert 1 7, DW_OP_LLVM_convert 8 7, DW_OP_stack_value] undef
	.loc	12 876 8                        @ ../GUILib/src/extra/widgets/chart/lv_chart.c:876:8
	cmp	r0, #0
	beq.w	.LBB2_94
.Ltmp212:
@ %bb.55:
	@DEBUG_VALUE: draw_series_line:clip_area <- $r11
	@DEBUG_VALUE: draw_series_line:border_width <- $r9
	@DEBUG_VALUE: draw_series_line:chart <- [DW_OP_plus_uconst 88] [$sp+0]
	@DEBUG_VALUE: draw_series_line:obj <- [DW_OP_plus_uconst 88] [$sp+0]
	@DEBUG_VALUE: lv_chart_event:obj <- [DW_OP_plus_uconst 88] [$sp+0]
	@DEBUG_VALUE: lv_chart_event:chart <- [DW_OP_plus_uconst 88] [$sp+0]
	@DEBUG_VALUE: lv_chart_event:class_p <- [DW_OP_LLVM_entry_value 1] $r0
	@DEBUG_VALUE: draw_series_line:pad_left <- undef
	@DEBUG_VALUE: draw_series_line:pad_top <- undef
	@DEBUG_VALUE: draw_series_line:x_ofs <- undef
	@DEBUG_VALUE: draw_series_line:y_ofs <- undef
	.loc	12 0 8 is_stmt 0                @ ../GUILib/src/extra/widgets/chart/lv_chart.c:0:8
	str	r6, [sp, #60]                   @ 4-byte Spill
	str	r7, [sp, #48]                   @ 4-byte Spill
	mov	r7, r5
	add	r5, sp, #180
	.loc	12 879 5 is_stmt 1              @ ../GUILib/src/extra/widgets/chart/lv_chart.c:879:5
	mov	r0, r5
	str	r4, [sp, #52]                   @ 4-byte Spill
	str.w	r11, [sp, #44]                  @ 4-byte Spill
.Ltmp213:
	@DEBUG_VALUE: draw_series_line:clip_area <- [DW_OP_plus_uconst 44] [$sp+0]
	bl	lv_draw_line_dsc_init
.Ltmp214:
	.loc	12 0 5 is_stmt 0                @ ../GUILib/src/extra/widgets/chart/lv_chart.c:0:5
	ldr	r6, [sp, #88]                   @ 4-byte Reload
	.loc	12 880 5 is_stmt 1              @ ../GUILib/src/extra/widgets/chart/lv_chart.c:880:5
	mov.w	r1, #327680
	mov	r0, r6
	mov	r2, r5
	bl	lv_obj_init_draw_line_dsc
.Ltmp215:
	.loc	12 0 5 is_stmt 0                @ ../GUILib/src/extra/widgets/chart/lv_chart.c:0:5
	add	r5, sp, #244
	.loc	12 883 5 is_stmt 1              @ ../GUILib/src/extra/widgets/chart/lv_chart.c:883:5
	mov	r0, r5
	bl	lv_draw_rect_dsc_init
.Ltmp216:
	.loc	12 884 5                        @ ../GUILib/src/extra/widgets/chart/lv_chart.c:884:5
	mov	r0, r6
	mov.w	r1, #131072
	mov	r2, r5
	bl	lv_obj_init_draw_rect_dsc
.Ltmp217:
	@DEBUG_VALUE: lv_obj_get_style_width:part <- 131072
	@DEBUG_VALUE: lv_obj_get_style_width:obj <- [DW_OP_plus_uconst 88] [$sp+0]
	.loc	18 3 26                         @ ../GUILib/src/core/lv_obj_style_gen.h:3:26
	mov	r0, r6
	mov.w	r1, #131072
	movw	r2, #4097
	bl	lv_obj_get_style_prop
.Ltmp218:
	@DEBUG_VALUE: lv_obj_get_style_width:v <- $r0
	.loc	18 4 12                         @ ../GUILib/src/core/lv_obj_style_gen.h:4:12
	uxth	r1, r0
	str	r0, [sp, #40]                   @ 4-byte Spill
.Ltmp219:
	@DEBUG_VALUE: lv_obj_get_style_width:v <- [DW_OP_plus_uconst 40] [$sp+0]
	.loc	12 886 73                       @ ../GUILib/src/extra/widgets/chart/lv_chart.c:886:73
	add.w	r0, r0, r1, lsr #15
	sxth	r5, r0
.Ltmp220:
	.loc	18 21 26                        @ ../GUILib/src/core/lv_obj_style_gen.h:21:26
	mov	r0, r6
	mov.w	r1, #131072
	movw	r2, #4100
.Ltmp221:
	.loc	12 886 73                       @ ../GUILib/src/extra/widgets/chart/lv_chart.c:886:73
	asrs	r4, r5, #1
.Ltmp222:
	@DEBUG_VALUE: lv_obj_get_style_height:part <- 131072
	@DEBUG_VALUE: lv_obj_get_style_height:obj <- [DW_OP_plus_uconst 88] [$sp+0]
	@DEBUG_VALUE: draw_series_line:point_w <- $r4
	.loc	18 21 26                        @ ../GUILib/src/core/lv_obj_style_gen.h:21:26
	bl	lv_obj_get_style_prop
.Ltmp223:
	mov	r6, r0
.Ltmp224:
	@DEBUG_VALUE: lv_obj_get_style_height:v <- $r6
	.loc	18 22 12                        @ ../GUILib/src/core/lv_obj_style_gen.h:22:12
	uxth	r0, r0
.Ltmp225:
	.loc	12 887 74                       @ ../GUILib/src/extra/widgets/chart/lv_chart.c:887:74
	add.w	r0, r6, r0, lsr #15
	sxth	r0, r0
	asrs	r1, r0, #1
.Ltmp226:
	@DEBUG_VALUE: draw_series_line:point_h <- $r1
	.loc	12 890 8                        @ ../GUILib/src/extra/widgets/chart/lv_chart.c:890:8
	cmp.w	r4, r0, asr #1
	.loc	12 890 52 is_stmt 0             @ ../GUILib/src/extra/widgets/chart/lv_chart.c:890:52
	ldrh.w	r0, [sp, #182]
	str	r4, [sp, #20]                   @ 4-byte Spill
.Ltmp227:
	@DEBUG_VALUE: draw_series_line:point_w <- [DW_OP_plus_uconst 20] [$sp+0]
	@DEBUG_VALUE: draw_series_line:point_w <- [DW_OP_plus_uconst 20] [$sp+0]
	.loc	12 890 58                       @ ../GUILib/src/extra/widgets/chart/lv_chart.c:890:58
	add.w	r2, r0, r0, lsr #15
	sxth	r2, r2
	str	r1, [sp, #16]                   @ 4-byte Spill
.Ltmp228:
	@DEBUG_VALUE: draw_series_line:point_h <- [DW_OP_plus_uconst 16] [$sp+0]
	.loc	12 890 8                        @ ../GUILib/src/extra/widgets/chart/lv_chart.c:890:8
	it	lt
	asrlt	r1, r5, #1
.Ltmp229:
	.loc	12 890 8                        @ ../GUILib/src/extra/widgets/chart/lv_chart.c:890:8
	cmp.w	r1, r2, asr #1
	ble	.LBB2_57
.Ltmp230:
@ %bb.56:
	@DEBUG_VALUE: draw_series_line:clip_area <- [DW_OP_plus_uconst 44] [$sp+0]
	@DEBUG_VALUE: draw_series_line:border_width <- $r9
	@DEBUG_VALUE: draw_series_line:point_h <- [DW_OP_plus_uconst 16] [$sp+0]
	@DEBUG_VALUE: draw_series_line:point_w <- [DW_OP_plus_uconst 20] [$sp+0]
	@DEBUG_VALUE: draw_series_line:chart <- [DW_OP_plus_uconst 88] [$sp+0]
	@DEBUG_VALUE: draw_series_line:obj <- [DW_OP_plus_uconst 88] [$sp+0]
	@DEBUG_VALUE: lv_chart_event:obj <- [DW_OP_plus_uconst 88] [$sp+0]
	@DEBUG_VALUE: lv_chart_event:chart <- [DW_OP_plus_uconst 88] [$sp+0]
	@DEBUG_VALUE: lv_chart_event:class_p <- [DW_OP_LLVM_entry_value 1] $r0
	.loc	12 890 88                       @ ../GUILib/src/extra/widgets/chart/lv_chart.c:890:88
	ldrb.w	r1, [sp, #189]
	orr	r1, r1, #16
	strb.w	r1, [sp, #189]
.Ltmp231:
.LBB2_57:
	@DEBUG_VALUE: draw_series_line:clip_area <- [DW_OP_plus_uconst 44] [$sp+0]
	@DEBUG_VALUE: draw_series_line:border_width <- $r9
	@DEBUG_VALUE: draw_series_line:point_h <- [DW_OP_plus_uconst 16] [$sp+0]
	@DEBUG_VALUE: draw_series_line:point_w <- [DW_OP_plus_uconst 20] [$sp+0]
	@DEBUG_VALUE: draw_series_line:chart <- [DW_OP_plus_uconst 88] [$sp+0]
	@DEBUG_VALUE: draw_series_line:obj <- [DW_OP_plus_uconst 88] [$sp+0]
	@DEBUG_VALUE: lv_chart_event:obj <- [DW_OP_plus_uconst 88] [$sp+0]
	@DEBUG_VALUE: lv_chart_event:chart <- [DW_OP_plus_uconst 88] [$sp+0]
	@DEBUG_VALUE: lv_chart_event:class_p <- [DW_OP_LLVM_entry_value 1] $r0
	@DEBUG_VALUE: draw_series_line:pad_left <- undef
	@DEBUG_VALUE: draw_series_line:pad_top <- undef
	@DEBUG_VALUE: draw_series_line:x_ofs <- undef
	@DEBUG_VALUE: draw_series_line:y_ofs <- undef
	.loc	12 891 8 is_stmt 1              @ ../GUILib/src/extra/widgets/chart/lv_chart.c:891:8
	cmp	r0, #1
	bne	.LBB2_59
.Ltmp232:
@ %bb.58:
	@DEBUG_VALUE: draw_series_line:clip_area <- [DW_OP_plus_uconst 44] [$sp+0]
	@DEBUG_VALUE: draw_series_line:border_width <- $r9
	@DEBUG_VALUE: draw_series_line:point_h <- [DW_OP_plus_uconst 16] [$sp+0]
	@DEBUG_VALUE: draw_series_line:point_w <- [DW_OP_plus_uconst 20] [$sp+0]
	@DEBUG_VALUE: draw_series_line:chart <- [DW_OP_plus_uconst 88] [$sp+0]
	@DEBUG_VALUE: draw_series_line:obj <- [DW_OP_plus_uconst 88] [$sp+0]
	@DEBUG_VALUE: lv_chart_event:obj <- [DW_OP_plus_uconst 88] [$sp+0]
	@DEBUG_VALUE: lv_chart_event:chart <- [DW_OP_plus_uconst 88] [$sp+0]
	@DEBUG_VALUE: lv_chart_event:class_p <- [DW_OP_LLVM_entry_value 1] $r0
	.loc	12 891 62 is_stmt 0             @ ../GUILib/src/extra/widgets/chart/lv_chart.c:891:62
	ldrb.w	r0, [sp, #189]
	orr	r0, r0, #16
	strb.w	r0, [sp, #189]
.Ltmp233:
.LBB2_59:
	@DEBUG_VALUE: draw_series_line:clip_area <- [DW_OP_plus_uconst 44] [$sp+0]
	@DEBUG_VALUE: draw_series_line:border_width <- $r9
	@DEBUG_VALUE: draw_series_line:point_h <- [DW_OP_plus_uconst 16] [$sp+0]
	@DEBUG_VALUE: draw_series_line:point_w <- [DW_OP_plus_uconst 20] [$sp+0]
	@DEBUG_VALUE: draw_series_line:chart <- [DW_OP_plus_uconst 88] [$sp+0]
	@DEBUG_VALUE: draw_series_line:obj <- [DW_OP_plus_uconst 88] [$sp+0]
	@DEBUG_VALUE: lv_chart_event:obj <- [DW_OP_plus_uconst 88] [$sp+0]
	@DEBUG_VALUE: lv_chart_event:chart <- [DW_OP_plus_uconst 88] [$sp+0]
	@DEBUG_VALUE: lv_chart_event:class_p <- [DW_OP_LLVM_entry_value 1] $r0
	@DEBUG_VALUE: draw_series_line:pad_left <- undef
	@DEBUG_VALUE: draw_series_line:pad_top <- undef
	@DEBUG_VALUE: draw_series_line:x_ofs <- undef
	@DEBUG_VALUE: draw_series_line:y_ofs <- undef
	.loc	12 894 32 is_stmt 1             @ ../GUILib/src/extra/widgets/chart/lv_chart.c:894:32
	ldr	r0, [sp, #88]                   @ 4-byte Reload
	ldrh.w	r0, [r0, #130]
.Ltmp234:
	@DEBUG_VALUE: draw_series_line:crowded_mode <- [DW_OP_LLVM_convert 1 7, DW_OP_LLVM_convert 8 7, DW_OP_stack_value] undef
	.loc	12 897 5                        @ ../GUILib/src/extra/widgets/chart/lv_chart.c:897:5
	str	r0, [sp, #24]                   @ 4-byte Spill
	ldr	r0, [sp, #84]                   @ 4-byte Reload
	bl	_lv_ll_get_tail
.Ltmp235:
	@DEBUG_VALUE: draw_series_line:ser <- $r0
	.loc	12 0 5 is_stmt 0                @ ../GUILib/src/extra/widgets/chart/lv_chart.c:0:5
	ldr.w	r11, [sp, #44]                  @ 4-byte Reload
.Ltmp236:
	@DEBUG_VALUE: draw_series_line:clip_area <- $r11
	.loc	12 897 5                        @ ../GUILib/src/extra/widgets/chart/lv_chart.c:897:5
	cmp	r0, #0
	beq.w	.LBB2_93
.Ltmp237:
@ %bb.60:
	@DEBUG_VALUE: draw_series_line:clip_area <- $r11
	@DEBUG_VALUE: draw_series_line:border_width <- $r9
	@DEBUG_VALUE: draw_series_line:ser <- $r0
	@DEBUG_VALUE: draw_series_line:point_h <- [DW_OP_plus_uconst 16] [$sp+0]
	@DEBUG_VALUE: draw_series_line:point_w <- [DW_OP_plus_uconst 20] [$sp+0]
	@DEBUG_VALUE: draw_series_line:chart <- [DW_OP_plus_uconst 88] [$sp+0]
	@DEBUG_VALUE: draw_series_line:obj <- [DW_OP_plus_uconst 88] [$sp+0]
	@DEBUG_VALUE: lv_chart_event:obj <- [DW_OP_plus_uconst 88] [$sp+0]
	@DEBUG_VALUE: lv_chart_event:chart <- [DW_OP_plus_uconst 88] [$sp+0]
	@DEBUG_VALUE: lv_chart_event:class_p <- [DW_OP_LLVM_entry_value 1] $r0
	.loc	12 0 5                          @ ../GUILib/src/extra/widgets/chart/lv_chart.c:0:5
	mov	r4, r0
.Ltmp238:
	@DEBUG_VALUE: draw_series_line:ser <- $r4
	@DEBUG_VALUE: draw_series_line:ser <- $r4
	ldr	r0, [sp, #80]                   @ 4-byte Reload
	ldr	r2, [sp, #60]                   @ 4-byte Reload
	add	r0, r9
.Ltmp239:
	@DEBUG_VALUE: draw_series_line:pad_left <- $r0
	ldr	r1, [sp, #76]                   @ 4-byte Reload
	add	r0, r2
.Ltmp240:
	ldr	r2, [sp, #64]                   @ 4-byte Reload
	add	r1, r9
.Ltmp241:
	@DEBUG_VALUE: draw_series_line:pad_top <- $r1
	subs	r0, r0, r2
.Ltmp242:
	@DEBUG_VALUE: draw_series_line:x_ofs <- $r0
	str	r0, [sp, #64]                   @ 4-byte Spill
.Ltmp243:
	@DEBUG_VALUE: draw_series_line:x_ofs <- [DW_OP_plus_uconst 64] [$sp+0]
	@DEBUG_VALUE: draw_series_line:x_ofs <- [DW_OP_plus_uconst 64] [$sp+0]
	add.w	r0, r1, r8
	subs	r0, r0, r7
.Ltmp244:
	@DEBUG_VALUE: draw_series_line:y_ofs <- $r0
	str	r0, [sp, #60]                   @ 4-byte Spill
.Ltmp245:
	@DEBUG_VALUE: draw_series_line:y_ofs <- [DW_OP_plus_uconst 60] [$sp+0]
	@DEBUG_VALUE: draw_series_line:y_ofs <- [DW_OP_plus_uconst 60] [$sp+0]
	ldrd	r1, r0, [sp, #68]               @ 8-byte Folded Reload
.Ltmp246:
	mov	r10, r9
.Ltmp247:
	@DEBUG_VALUE: draw_series_line:border_width <- $r10
	muls	r0, r1, r0
	sbfx	r0, r0, #8, #16
	str	r0, [sp, #72]                   @ 4-byte Spill
	ldr	r1, [sp, #88]                   @ 4-byte Reload
	mov.w	r10, #327680
.Ltmp248:
	add.w	r0, r1, #108
	str	r0, [sp, #56]                   @ 4-byte Spill
	ldrd	r2, r0, [sp, #48]               @ 8-byte Folded Reload
	muls	r0, r2, r0
	sbfx	r0, r0, #8, #16
	str	r0, [sp, #52]                   @ 4-byte Spill
	add.w	r0, r1, #112
	str	r0, [sp, #48]                   @ 4-byte Spill
	ldr	r0, [sp, #20]                   @ 4-byte Reload
	adds	r1, r0, #1
	mvns	r0, r0
	str	r1, [sp, #32]                   @ 4-byte Spill
	str	r0, [sp, #28]                   @ 4-byte Spill
	ldr	r0, [sp, #40]                   @ 4-byte Reload
	adds	r1, r6, #1
	adds	r0, #1
	uxth	r0, r0
	cmp	r0, #3
	mov.w	r0, #0
	uxth	r1, r1
	it	lo
	movlo	r0, #1
	cmp	r1, #3
	mov.w	r1, #0
	it	lo
	movlo	r1, #1
	orrs	r0, r1
	str	r0, [sp, #12]                   @ 4-byte Spill
.Ltmp249:
.LBB2_61:                               @ =>This Loop Header: Depth=1
                                        @     Child Loop BB2_67 Depth 2
	@DEBUG_VALUE: draw_series_line:ser <- $r4
	@DEBUG_VALUE: draw_series_line:y_ofs <- [DW_OP_plus_uconst 60] [$sp+0]
	@DEBUG_VALUE: draw_series_line:x_ofs <- [DW_OP_plus_uconst 64] [$sp+0]
	@DEBUG_VALUE: draw_series_line:point_h <- [DW_OP_plus_uconst 16] [$sp+0]
	@DEBUG_VALUE: draw_series_line:point_w <- [DW_OP_plus_uconst 20] [$sp+0]
	@DEBUG_VALUE: draw_series_line:chart <- [DW_OP_plus_uconst 88] [$sp+0]
	@DEBUG_VALUE: draw_series_line:obj <- [DW_OP_plus_uconst 88] [$sp+0]
	@DEBUG_VALUE: lv_chart_event:obj <- [DW_OP_plus_uconst 88] [$sp+0]
	@DEBUG_VALUE: lv_chart_event:chart <- [DW_OP_plus_uconst 88] [$sp+0]
	@DEBUG_VALUE: lv_chart_event:class_p <- [DW_OP_LLVM_entry_value 1] $r0
	@DEBUG_VALUE: draw_series_line:ser <- $r4
	.loc	12 898 17 is_stmt 1             @ ../GUILib/src/extra/widgets/chart/lv_chart.c:898:17
	ldrb	r0, [r4, #12]
.Ltmp250:
	.loc	12 898 12 is_stmt 0             @ ../GUILib/src/extra/widgets/chart/lv_chart.c:898:12
	lsls	r1, r0, #31
	bne.w	.LBB2_92
.Ltmp251:
@ %bb.62:                               @   in Loop: Header=BB2_61 Depth=1
	@DEBUG_VALUE: draw_series_line:ser <- $r4
	@DEBUG_VALUE: draw_series_line:y_ofs <- [DW_OP_plus_uconst 60] [$sp+0]
	@DEBUG_VALUE: draw_series_line:x_ofs <- [DW_OP_plus_uconst 64] [$sp+0]
	@DEBUG_VALUE: draw_series_line:point_h <- [DW_OP_plus_uconst 16] [$sp+0]
	@DEBUG_VALUE: draw_series_line:point_w <- [DW_OP_plus_uconst 20] [$sp+0]
	@DEBUG_VALUE: draw_series_line:chart <- [DW_OP_plus_uconst 88] [$sp+0]
	@DEBUG_VALUE: draw_series_line:obj <- [DW_OP_plus_uconst 88] [$sp+0]
	@DEBUG_VALUE: lv_chart_event:obj <- [DW_OP_plus_uconst 88] [$sp+0]
	@DEBUG_VALUE: lv_chart_event:chart <- [DW_OP_plus_uconst 88] [$sp+0]
	@DEBUG_VALUE: lv_chart_event:class_p <- [DW_OP_LLVM_entry_value 1] $r0
	.loc	12 0 12                         @ ../GUILib/src/extra/widgets/chart/lv_chart.c:0:12
	ldr	r2, [sp, #88]                   @ 4-byte Reload
	.loc	12 899 39 is_stmt 1             @ ../GUILib/src/extra/widgets/chart/lv_chart.c:899:39
	ldrh	r1, [r4, #8]
	mov	r6, r2
	.loc	12 902 41                       @ ../GUILib/src/extra/widgets/chart/lv_chart.c:902:41
	ldrb.w	r2, [r2, #136]
	.loc	12 899 39                       @ ../GUILib/src/extra/widgets/chart/lv_chart.c:899:39
	strh.w	r1, [sp, #180]
	.loc	12 900 43                       @ ../GUILib/src/extra/widgets/chart/lv_chart.c:900:43
	strh.w	r1, [sp, #248]
	.loc	12 902 34                       @ ../GUILib/src/extra/widgets/chart/lv_chart.c:902:34
	lsls	r2, r2, #28
	.loc	12 902 90 is_stmt 0             @ ../GUILib/src/extra/widgets/chart/lv_chart.c:902:90
	ite	pl
	ldrhpl.w	r9, [r4, #10]
	movmi.w	r9, #0
	ldrd	r3, r1, [sp, #60]               @ 8-byte Folded Reload
.Ltmp252:
	@DEBUG_VALUE: start_point <- $r9
	.loc	12 909 44 is_stmt 1             @ ../GUILib/src/extra/widgets/chart/lv_chart.c:909:44
	sxth.w	r2, r9
	.loc	12 904 14                       @ ../GUILib/src/extra/widgets/chart/lv_chart.c:904:14
	strh.w	r1, [sp, #92]
	.loc	12 905 14                       @ ../GUILib/src/extra/widgets/chart/lv_chart.c:905:14
	strh.w	r1, [sp, #312]
.Ltmp253:
	@DEBUG_VALUE: p_prev <- $r9
	@DEBUG_VALUE: p_act <- $r9
	.loc	12 909 49                       @ ../GUILib/src/extra/widgets/chart/lv_chart.c:909:49
	ldr	r1, [r4, #4]
	str	r2, [sp, #40]                   @ 4-byte Spill
	.loc	12 909 44 is_stmt 0             @ ../GUILib/src/extra/widgets/chart/lv_chart.c:909:44
	ldrsh.w	r1, [r1, r2, lsl #1]
	.loc	12 909 68                       @ ../GUILib/src/extra/widgets/chart/lv_chart.c:909:68
	ldr	r2, [sp, #56]                   @ 4-byte Reload
	ubfx	r0, r0, #4, #1
	.loc	12 910 27 is_stmt 1             @ ../GUILib/src/extra/widgets/chart/lv_chart.c:910:27
	ldr	r7, [sp, #48]                   @ 4-byte Reload
	.loc	12 909 68                       @ ../GUILib/src/extra/widgets/chart/lv_chart.c:909:68
	ldrsh.w	r2, [r2, r0, lsl #1]
	.loc	12 910 27                       @ ../GUILib/src/extra/widgets/chart/lv_chart.c:910:27
	ldrsh.w	r0, [r7, r0, lsl #1]
	ldr	r7, [sp, #52]                   @ 4-byte Reload
	.loc	12 909 66                       @ ../GUILib/src/extra/widgets/chart/lv_chart.c:909:66
	subs	r1, r1, r2
	.loc	12 909 98 is_stmt 0             @ ../GUILib/src/extra/widgets/chart/lv_chart.c:909:98
	muls	r1, r7, r1
.Ltmp254:
	@DEBUG_VALUE: y_tmp <- $r1
	.loc	12 910 56 is_stmt 1             @ ../GUILib/src/extra/widgets/chart/lv_chart.c:910:56
	subs	r0, r0, r2
	.loc	12 910 24 is_stmt 0             @ ../GUILib/src/extra/widgets/chart/lv_chart.c:910:24
	sdiv	r0, r1, r0
.Ltmp255:
	@DEBUG_VALUE: y_tmp <- $r0
	.loc	12 0 24                         @ ../GUILib/src/extra/widgets/chart/lv_chart.c:0:24
	movw	r5, :lower16:lv_chart_class
	.loc	12 911 20 is_stmt 1             @ ../GUILib/src/extra/widgets/chart/lv_chart.c:911:20
	subs	r0, r7, r0
.Ltmp256:
	.loc	12 911 18 is_stmt 0             @ ../GUILib/src/extra/widgets/chart/lv_chart.c:911:18
	add	r0, r3
	.loc	12 911 16                       @ ../GUILib/src/extra/widgets/chart/lv_chart.c:911:16
	strh.w	r0, [sp, #314]
	.loc	12 914 9 is_stmt 1              @ ../GUILib/src/extra/widgets/chart/lv_chart.c:914:9
	add	r0, sp, #108
	mov	r1, r11
	movt	r5, :upper16:lv_chart_class
	bl	lv_obj_draw_dsc_init
.Ltmp257:
	.loc	12 916 28                       @ ../GUILib/src/extra/widgets/chart/lv_chart.c:916:28
	movs	r0, #3
	str	r0, [sp, #116]
	.loc	12 918 32                       @ ../GUILib/src/extra/widgets/chart/lv_chart.c:918:32
	add	r0, sp, #180
	str	r0, [sp, #132]
.Ltmp258:
	.loc	12 925 31                       @ ../GUILib/src/extra/widgets/chart/lv_chart.c:925:31
	ldrh.w	r0, [r6, #130]
.Ltmp259:
	.loc	12 919 32                       @ ../GUILib/src/extra/widgets/chart/lv_chart.c:919:32
	add	r1, sp, #244
	.loc	12 915 31                       @ ../GUILib/src/extra/widgets/chart/lv_chart.c:915:31
	str	r5, [sp, #112]
	.loc	12 917 28                       @ ../GUILib/src/extra/widgets/chart/lv_chart.c:917:28
	str.w	r10, [sp, #160]
	.loc	12 919 32                       @ ../GUILib/src/extra/widgets/chart/lv_chart.c:919:32
	str	r1, [sp, #124]
	.loc	12 920 36                       @ ../GUILib/src/extra/widgets/chart/lv_chart.c:920:36
	str	r4, [sp, #176]
.Ltmp260:
	@DEBUG_VALUE: draw_series_line:i <- 0
	@DEBUG_VALUE: y_max <- undef
	@DEBUG_VALUE: y_min <- undef
	.loc	12 925 9                        @ ../GUILib/src/extra/widgets/chart/lv_chart.c:925:9
	cbz	r0, .LBB2_65
.Ltmp261:
@ %bb.63:                               @   in Loop: Header=BB2_61 Depth=1
	@DEBUG_VALUE: p_act <- $r9
	@DEBUG_VALUE: p_prev <- $r9
	@DEBUG_VALUE: start_point <- $r9
	@DEBUG_VALUE: draw_series_line:ser <- $r4
	@DEBUG_VALUE: draw_series_line:y_ofs <- [DW_OP_plus_uconst 60] [$sp+0]
	@DEBUG_VALUE: draw_series_line:x_ofs <- [DW_OP_plus_uconst 64] [$sp+0]
	@DEBUG_VALUE: draw_series_line:point_h <- [DW_OP_plus_uconst 16] [$sp+0]
	@DEBUG_VALUE: draw_series_line:point_w <- [DW_OP_plus_uconst 20] [$sp+0]
	@DEBUG_VALUE: draw_series_line:chart <- [DW_OP_plus_uconst 88] [$sp+0]
	@DEBUG_VALUE: draw_series_line:obj <- [DW_OP_plus_uconst 88] [$sp+0]
	@DEBUG_VALUE: lv_chart_event:obj <- [DW_OP_plus_uconst 88] [$sp+0]
	@DEBUG_VALUE: lv_chart_event:chart <- [DW_OP_plus_uconst 88] [$sp+0]
	@DEBUG_VALUE: draw_series_line:i <- 0
	@DEBUG_VALUE: lv_chart_event:class_p <- [DW_OP_LLVM_entry_value 1] $r0
	.loc	12 929 34                       @ ../GUILib/src/extra/widgets/chart/lv_chart.c:929:34
	ldrsh.w	r2, [r11, #4]
	.loc	12 929 47 is_stmt 0             @ ../GUILib/src/extra/widgets/chart/lv_chart.c:929:47
	ldr	r3, [sp, #32]                   @ 4-byte Reload
	.loc	12 929 16                       @ ../GUILib/src/extra/widgets/chart/lv_chart.c:929:16
	ldrsh.w	r1, [sp, #312]
.Ltmp262:
	.loc	12 0 0                          @ ../GUILib/src/extra/widgets/chart/lv_chart.c:0:0
	ldrh.w	r7, [sp, #314]
	@DEBUG_VALUE: draw_series_line:i <- 0
.Ltmp263:
	@DEBUG_VALUE: y_max <- $r7
	@DEBUG_VALUE: y_min <- $r7
	@DEBUG_VALUE: p_prev <- $r9
	.loc	12 929 47                       @ ../GUILib/src/extra/widgets/chart/lv_chart.c:929:47
	add	r2, r3
.Ltmp264:
	.loc	12 929 16                       @ ../GUILib/src/extra/widgets/chart/lv_chart.c:929:16
	cmp	r2, r1
	.loc	12 926 18 is_stmt 1             @ ../GUILib/src/extra/widgets/chart/lv_chart.c:926:18
	strh.w	r1, [sp, #92]
	.loc	12 927 18                       @ ../GUILib/src/extra/widgets/chart/lv_chart.c:927:18
	strh.w	r7, [sp, #94]
	.loc	12 929 16                       @ ../GUILib/src/extra/widgets/chart/lv_chart.c:929:16
	bge	.LBB2_66
.Ltmp265:
@ %bb.64:                               @   in Loop: Header=BB2_61 Depth=1
	@DEBUG_VALUE: p_act <- $r9
	@DEBUG_VALUE: p_prev <- $r9
	@DEBUG_VALUE: start_point <- $r9
	@DEBUG_VALUE: y_min <- $r7
	@DEBUG_VALUE: y_max <- $r7
	@DEBUG_VALUE: draw_series_line:ser <- $r4
	@DEBUG_VALUE: draw_series_line:y_ofs <- [DW_OP_plus_uconst 60] [$sp+0]
	@DEBUG_VALUE: draw_series_line:x_ofs <- [DW_OP_plus_uconst 64] [$sp+0]
	@DEBUG_VALUE: draw_series_line:point_h <- [DW_OP_plus_uconst 16] [$sp+0]
	@DEBUG_VALUE: draw_series_line:point_w <- [DW_OP_plus_uconst 20] [$sp+0]
	@DEBUG_VALUE: draw_series_line:chart <- [DW_OP_plus_uconst 88] [$sp+0]
	@DEBUG_VALUE: draw_series_line:obj <- [DW_OP_plus_uconst 88] [$sp+0]
	@DEBUG_VALUE: lv_chart_event:obj <- [DW_OP_plus_uconst 88] [$sp+0]
	@DEBUG_VALUE: lv_chart_event:chart <- [DW_OP_plus_uconst 88] [$sp+0]
	@DEBUG_VALUE: draw_series_line:i <- 0
	@DEBUG_VALUE: lv_chart_event:class_p <- [DW_OP_LLVM_entry_value 1] $r0
	.loc	12 0 16 is_stmt 0               @ ../GUILib/src/extra/widgets/chart/lv_chart.c:0:16
	mov.w	r8, #0
	b	.LBB2_86
.Ltmp266:
.LBB2_65:                               @   in Loop: Header=BB2_61 Depth=1
	@DEBUG_VALUE: p_act <- $r9
	@DEBUG_VALUE: p_prev <- $r9
	@DEBUG_VALUE: start_point <- $r9
	@DEBUG_VALUE: draw_series_line:ser <- $r4
	@DEBUG_VALUE: draw_series_line:y_ofs <- [DW_OP_plus_uconst 60] [$sp+0]
	@DEBUG_VALUE: draw_series_line:x_ofs <- [DW_OP_plus_uconst 64] [$sp+0]
	@DEBUG_VALUE: draw_series_line:point_h <- [DW_OP_plus_uconst 16] [$sp+0]
	@DEBUG_VALUE: draw_series_line:point_w <- [DW_OP_plus_uconst 20] [$sp+0]
	@DEBUG_VALUE: draw_series_line:chart <- [DW_OP_plus_uconst 88] [$sp+0]
	@DEBUG_VALUE: draw_series_line:obj <- [DW_OP_plus_uconst 88] [$sp+0]
	@DEBUG_VALUE: lv_chart_event:obj <- [DW_OP_plus_uconst 88] [$sp+0]
	@DEBUG_VALUE: lv_chart_event:chart <- [DW_OP_plus_uconst 88] [$sp+0]
	@DEBUG_VALUE: draw_series_line:i <- 0
	@DEBUG_VALUE: lv_chart_event:class_p <- [DW_OP_LLVM_entry_value 1] $r0
	movs	r1, #0
	.loc	12 925 20 is_stmt 1             @ ../GUILib/src/extra/widgets/chart/lv_chart.c:925:20
	mov.w	r8, #0
	.loc	12 925 31 is_stmt 0             @ ../GUILib/src/extra/widgets/chart/lv_chart.c:925:31
	movs	r0, #0
	b	.LBB2_88
.Ltmp267:
.LBB2_66:                               @   in Loop: Header=BB2_61 Depth=1
	@DEBUG_VALUE: p_act <- $r9
	@DEBUG_VALUE: p_prev <- $r9
	@DEBUG_VALUE: start_point <- $r9
	@DEBUG_VALUE: y_min <- $r7
	@DEBUG_VALUE: y_max <- $r7
	@DEBUG_VALUE: draw_series_line:ser <- $r4
	@DEBUG_VALUE: draw_series_line:y_ofs <- [DW_OP_plus_uconst 60] [$sp+0]
	@DEBUG_VALUE: draw_series_line:x_ofs <- [DW_OP_plus_uconst 64] [$sp+0]
	@DEBUG_VALUE: draw_series_line:point_h <- [DW_OP_plus_uconst 16] [$sp+0]
	@DEBUG_VALUE: draw_series_line:point_w <- [DW_OP_plus_uconst 20] [$sp+0]
	@DEBUG_VALUE: draw_series_line:chart <- [DW_OP_plus_uconst 88] [$sp+0]
	@DEBUG_VALUE: draw_series_line:obj <- [DW_OP_plus_uconst 88] [$sp+0]
	@DEBUG_VALUE: lv_chart_event:obj <- [DW_OP_plus_uconst 88] [$sp+0]
	@DEBUG_VALUE: lv_chart_event:chart <- [DW_OP_plus_uconst 88] [$sp+0]
	@DEBUG_VALUE: draw_series_line:i <- 0
	@DEBUG_VALUE: lv_chart_event:class_p <- [DW_OP_LLVM_entry_value 1] $r0
	.loc	12 0 31                         @ ../GUILib/src/extra/widgets/chart/lv_chart.c:0:31
	uxth.w	lr, r1
	mov.w	r10, #0
	mov	r11, r7
	mov.w	r8, #0
	mov	r2, r7
	str	r4, [sp, #68]                   @ 4-byte Spill
.Ltmp268:
	@DEBUG_VALUE: draw_series_line:ser <- [DW_OP_plus_uconst 68] [$sp+0]
	@DEBUG_VALUE: draw_series_line:ser <- [DW_OP_plus_uconst 68] [$sp+0]
	str	r7, [sp, #8]                    @ 4-byte Spill
.Ltmp269:
	@DEBUG_VALUE: y_max <- [DW_OP_plus_uconst 8] [$sp+0]
	@DEBUG_VALUE: y_max <- [DW_OP_plus_uconst 8] [$sp+0]
.LBB2_67:                               @   Parent Loop BB2_61 Depth=1
                                        @ =>  This Inner Loop Header: Depth=2
	@DEBUG_VALUE: draw_series_line:y_ofs <- [DW_OP_plus_uconst 60] [$sp+0]
	@DEBUG_VALUE: draw_series_line:x_ofs <- [DW_OP_plus_uconst 64] [$sp+0]
	@DEBUG_VALUE: draw_series_line:point_h <- [DW_OP_plus_uconst 16] [$sp+0]
	@DEBUG_VALUE: draw_series_line:point_w <- [DW_OP_plus_uconst 20] [$sp+0]
	@DEBUG_VALUE: draw_series_line:chart <- [DW_OP_plus_uconst 88] [$sp+0]
	@DEBUG_VALUE: draw_series_line:obj <- [DW_OP_plus_uconst 88] [$sp+0]
	@DEBUG_VALUE: lv_chart_event:obj <- [DW_OP_plus_uconst 88] [$sp+0]
	@DEBUG_VALUE: lv_chart_event:chart <- [DW_OP_plus_uconst 88] [$sp+0]
	@DEBUG_VALUE: lv_chart_event:class_p <- [DW_OP_LLVM_entry_value 1] $r0
	@DEBUG_VALUE: p_prev <- $r9
	@DEBUG_VALUE: y_min <- [DW_OP_plus_uconst 8] [$sp+0]
	@DEBUG_VALUE: y_max <- $r11
	@DEBUG_VALUE: draw_series_line:i <- $r8
	.loc	12 932 39 is_stmt 1             @ ../GUILib/src/extra/widgets/chart/lv_chart.c:932:39
	ldr	r7, [sp, #40]                   @ 4-byte Reload
	.loc	12 930 49                       @ ../GUILib/src/extra/widgets/chart/lv_chart.c:930:49
	subs	r3, r0, #1
	.loc	12 932 39                       @ ../GUILib/src/extra/widgets/chart/lv_chart.c:932:39
	add.w	r6, r7, r8
	.loc	12 930 29                       @ ../GUILib/src/extra/widgets/chart/lv_chart.c:930:29
	sdiv	r3, r10, r3
	.loc	12 930 20 is_stmt 0             @ ../GUILib/src/extra/widgets/chart/lv_chart.c:930:20
	ldr	r1, [sp, #64]                   @ 4-byte Reload
	.loc	12 932 39 is_stmt 1             @ ../GUILib/src/extra/widgets/chart/lv_chart.c:932:39
	sdiv	r4, r6, r0
	ldr	r7, [sp, #68]                   @ 4-byte Reload
.Ltmp270:
	@DEBUG_VALUE: draw_series_line:ser <- $r7
	.loc	12 930 20                       @ ../GUILib/src/extra/widgets/chart/lv_chart.c:930:20
	add	r3, r1
	.loc	12 932 39                       @ ../GUILib/src/extra/widgets/chart/lv_chart.c:932:39
	mls	r1, r4, r0, r6
.Ltmp271:
	@DEBUG_VALUE: p_act <- [DW_OP_LLVM_convert 32 7, DW_OP_LLVM_convert 16 7, DW_OP_stack_value] $r1
	.loc	12 934 80                       @ ../GUILib/src/extra/widgets/chart/lv_chart.c:934:80
	ldrb	r4, [r7, #12]
	.loc	12 934 45 is_stmt 0             @ ../GUILib/src/extra/widgets/chart/lv_chart.c:934:45
	ldr	r0, [r7, #4]
	.loc	12 934 40                       @ ../GUILib/src/extra/widgets/chart/lv_chart.c:934:40
	lsls	r6, r1, #16
	.loc	12 934 63                       @ ../GUILib/src/extra/widgets/chart/lv_chart.c:934:63
	ldr	r5, [sp, #56]                   @ 4-byte Reload
	.loc	12 930 18 is_stmt 1             @ ../GUILib/src/extra/widgets/chart/lv_chart.c:930:18
	strh.w	r3, [sp, #312]
	.loc	12 934 40                       @ ../GUILib/src/extra/widgets/chart/lv_chart.c:934:40
	asrs	r6, r6, #15
	.loc	12 934 63 is_stmt 0             @ ../GUILib/src/extra/widgets/chart/lv_chart.c:934:63
	ubfx	r4, r4, #4, #1
	.loc	12 935 30 is_stmt 1             @ ../GUILib/src/extra/widgets/chart/lv_chart.c:935:30
	ldr	r7, [sp, #48]                   @ 4-byte Reload
.Ltmp272:
	.loc	12 934 40                       @ ../GUILib/src/extra/widgets/chart/lv_chart.c:934:40
	ldrsh	r6, [r0, r6]
	.loc	12 934 63 is_stmt 0             @ ../GUILib/src/extra/widgets/chart/lv_chart.c:934:63
	ldrsh.w	r5, [r5, r4, lsl #1]
	.loc	12 935 30 is_stmt 1             @ ../GUILib/src/extra/widgets/chart/lv_chart.c:935:30
	ldrsh.w	r4, [r7, r4, lsl #1]
	ldr.w	r12, [sp, #52]                  @ 4-byte Reload
	.loc	12 934 61                       @ ../GUILib/src/extra/widgets/chart/lv_chart.c:934:61
	subs	r6, r6, r5
	.loc	12 934 93 is_stmt 0             @ ../GUILib/src/extra/widgets/chart/lv_chart.c:934:93
	mul	r6, r6, r12
.Ltmp273:
	@DEBUG_VALUE: y_tmp <- $r6
	.loc	12 935 59 is_stmt 1             @ ../GUILib/src/extra/widgets/chart/lv_chart.c:935:59
	subs	r5, r4, r5
	.loc	12 935 27 is_stmt 0             @ ../GUILib/src/extra/widgets/chart/lv_chart.c:935:27
	sdiv	r6, r6, r5
.Ltmp274:
	@DEBUG_VALUE: y_tmp <- $r6
	.loc	12 936 21 is_stmt 1             @ ../GUILib/src/extra/widgets/chart/lv_chart.c:936:21
	ldr	r7, [sp, #60]                   @ 4-byte Reload
	.loc	12 936 23 is_stmt 0             @ ../GUILib/src/extra/widgets/chart/lv_chart.c:936:23
	sub.w	r6, r12, r6
.Ltmp275:
	.loc	12 936 21                       @ ../GUILib/src/extra/widgets/chart/lv_chart.c:936:21
	add	r6, r7
	.loc	12 938 16 is_stmt 1             @ ../GUILib/src/extra/widgets/chart/lv_chart.c:938:16
	cmp.w	r8, #0
	.loc	12 936 19                       @ ../GUILib/src/extra/widgets/chart/lv_chart.c:936:19
	strh.w	r6, [sp, #314]
	.loc	12 938 16                       @ ../GUILib/src/extra/widgets/chart/lv_chart.c:938:16
	strd	r1, r11, [sp, #76]              @ 8-byte Folded Spill
	beq.w	.LBB2_82
.Ltmp276:
@ %bb.68:                               @   in Loop: Header=BB2_67 Depth=2
	@DEBUG_VALUE: y_max <- $r11
	@DEBUG_VALUE: p_prev <- $r9
	@DEBUG_VALUE: draw_series_line:i <- $r8
	@DEBUG_VALUE: p_act <- [DW_OP_LLVM_convert 32 7, DW_OP_LLVM_convert 16 7, DW_OP_stack_value] $r1
	@DEBUG_VALUE: y_min <- [DW_OP_plus_uconst 8] [$sp+0]
	@DEBUG_VALUE: draw_series_line:y_ofs <- [DW_OP_plus_uconst 60] [$sp+0]
	@DEBUG_VALUE: draw_series_line:x_ofs <- [DW_OP_plus_uconst 64] [$sp+0]
	@DEBUG_VALUE: draw_series_line:point_h <- [DW_OP_plus_uconst 16] [$sp+0]
	@DEBUG_VALUE: draw_series_line:point_w <- [DW_OP_plus_uconst 20] [$sp+0]
	@DEBUG_VALUE: draw_series_line:chart <- [DW_OP_plus_uconst 88] [$sp+0]
	@DEBUG_VALUE: draw_series_line:obj <- [DW_OP_plus_uconst 88] [$sp+0]
	@DEBUG_VALUE: lv_chart_event:obj <- [DW_OP_plus_uconst 88] [$sp+0]
	@DEBUG_VALUE: lv_chart_event:chart <- [DW_OP_plus_uconst 88] [$sp+0]
	@DEBUG_VALUE: lv_chart_event:class_p <- [DW_OP_LLVM_entry_value 1] $r0
	.loc	12 0 0 is_stmt 0                @ ../GUILib/src/extra/widgets/chart/lv_chart.c:0:0
	ldr	r5, [sp, #44]                   @ 4-byte Reload
	ldr	r7, [sp, #28]                   @ 4-byte Reload
	ldrsh.w	r5, [r5]
	sxth	r4, r3
	add	r5, r7
	.loc	12 938 16                       @ ../GUILib/src/extra/widgets/chart/lv_chart.c:938:16
	cmp	r5, r4
	bgt.w	.LBB2_82
.Ltmp277:
@ %bb.69:                               @   in Loop: Header=BB2_67 Depth=2
	@DEBUG_VALUE: y_max <- $r11
	@DEBUG_VALUE: p_prev <- $r9
	@DEBUG_VALUE: draw_series_line:i <- $r8
	@DEBUG_VALUE: p_act <- [DW_OP_LLVM_convert 32 7, DW_OP_LLVM_convert 16 7, DW_OP_stack_value] $r1
	@DEBUG_VALUE: y_min <- [DW_OP_plus_uconst 8] [$sp+0]
	@DEBUG_VALUE: draw_series_line:y_ofs <- [DW_OP_plus_uconst 60] [$sp+0]
	@DEBUG_VALUE: draw_series_line:x_ofs <- [DW_OP_plus_uconst 64] [$sp+0]
	@DEBUG_VALUE: draw_series_line:point_h <- [DW_OP_plus_uconst 16] [$sp+0]
	@DEBUG_VALUE: draw_series_line:point_w <- [DW_OP_plus_uconst 20] [$sp+0]
	@DEBUG_VALUE: draw_series_line:chart <- [DW_OP_plus_uconst 88] [$sp+0]
	@DEBUG_VALUE: draw_series_line:obj <- [DW_OP_plus_uconst 88] [$sp+0]
	@DEBUG_VALUE: lv_chart_event:obj <- [DW_OP_plus_uconst 88] [$sp+0]
	@DEBUG_VALUE: lv_chart_event:chart <- [DW_OP_plus_uconst 88] [$sp+0]
	@DEBUG_VALUE: lv_chart_event:class_p <- [DW_OP_LLVM_entry_value 1] $r0
	.loc	12 945 20 is_stmt 1             @ ../GUILib/src/extra/widgets/chart/lv_chart.c:945:20
	ldr	r5, [sp, #24]                   @ 4-byte Reload
	ldr	r4, [sp, #72]                   @ 4-byte Reload
	cmp	r4, r5
.Ltmp278:
	.loc	12 0 0 is_stmt 0                @ ../GUILib/src/extra/widgets/chart/lv_chart.c:0:0
	sxth	r4, r1
.Ltmp279:
	.loc	12 945 20                       @ ../GUILib/src/extra/widgets/chart/lv_chart.c:945:20
	ble	.LBB2_77
.Ltmp280:
@ %bb.70:                               @   in Loop: Header=BB2_67 Depth=2
	@DEBUG_VALUE: y_max <- $r11
	@DEBUG_VALUE: p_prev <- $r9
	@DEBUG_VALUE: draw_series_line:i <- $r8
	@DEBUG_VALUE: p_act <- [DW_OP_LLVM_convert 32 7, DW_OP_LLVM_convert 16 7, DW_OP_stack_value] $r1
	@DEBUG_VALUE: y_min <- [DW_OP_plus_uconst 8] [$sp+0]
	@DEBUG_VALUE: draw_series_line:y_ofs <- [DW_OP_plus_uconst 60] [$sp+0]
	@DEBUG_VALUE: draw_series_line:x_ofs <- [DW_OP_plus_uconst 64] [$sp+0]
	@DEBUG_VALUE: draw_series_line:point_h <- [DW_OP_plus_uconst 16] [$sp+0]
	@DEBUG_VALUE: draw_series_line:point_w <- [DW_OP_plus_uconst 20] [$sp+0]
	@DEBUG_VALUE: draw_series_line:chart <- [DW_OP_plus_uconst 88] [$sp+0]
	@DEBUG_VALUE: draw_series_line:obj <- [DW_OP_plus_uconst 88] [$sp+0]
	@DEBUG_VALUE: lv_chart_event:obj <- [DW_OP_plus_uconst 88] [$sp+0]
	@DEBUG_VALUE: lv_chart_event:chart <- [DW_OP_plus_uconst 88] [$sp+0]
	@DEBUG_VALUE: lv_chart_event:class_p <- [DW_OP_LLVM_entry_value 1] $r0
	.loc	12 0 20                         @ ../GUILib/src/extra/widgets/chart/lv_chart.c:0:20
	ldr	r6, [sp, #20]                   @ 4-byte Reload
.Ltmp281:
	.loc	12 972 40 is_stmt 1             @ ../GUILib/src/extra/widgets/chart/lv_chart.c:972:40
	sxth.w	r5, r9
	.loc	12 966 42                       @ ../GUILib/src/extra/widgets/chart/lv_chart.c:966:42
	sub.w	r3, lr, r6
	.loc	12 966 35 is_stmt 0             @ ../GUILib/src/extra/widgets/chart/lv_chart.c:966:35
	strh.w	r3, [sp, #100]
	ldr	r3, [sp, #16]                   @ 4-byte Reload
	.loc	12 967 42 is_stmt 1             @ ../GUILib/src/extra/widgets/chart/lv_chart.c:967:42
	add.w	r1, lr, r6
.Ltmp282:
	.loc	12 967 35 is_stmt 0             @ ../GUILib/src/extra/widgets/chart/lv_chart.c:967:35
	strh.w	r1, [sp, #104]
	.loc	12 968 42 is_stmt 1             @ ../GUILib/src/extra/widgets/chart/lv_chart.c:968:42
	subs	r1, r2, r3
	.loc	12 968 35 is_stmt 0             @ ../GUILib/src/extra/widgets/chart/lv_chart.c:968:35
	strh.w	r1, [sp, #102]
	.loc	12 969 42 is_stmt 1             @ ../GUILib/src/extra/widgets/chart/lv_chart.c:969:42
	adds	r1, r2, r3
	.loc	12 969 35 is_stmt 0             @ ../GUILib/src/extra/widgets/chart/lv_chart.c:969:35
	strh.w	r1, [sp, #106]
	.loc	12 971 38 is_stmt 1             @ ../GUILib/src/extra/widgets/chart/lv_chart.c:971:38
	sub.w	r1, r8, #1
	str	r1, [sp, #164]
	.loc	12 972 40                       @ ../GUILib/src/extra/widgets/chart/lv_chart.c:972:40
	ldrsh.w	r1, [r0, r5, lsl #1]
	movw	r7, #32767
	subs	r2, r1, r7
	add	r3, sp, #92
	it	ne
	movne	r2, r3
	.loc	12 972 38 is_stmt 0             @ ../GUILib/src/extra/widgets/chart/lv_chart.c:972:38
	str	r2, [sp, #144]
	.loc	12 973 40 is_stmt 1             @ ../GUILib/src/extra/widgets/chart/lv_chart.c:973:40
	ldrh.w	r0, [r0, r4, lsl #1]
	add	r2, sp, #312
	subs	r0, r0, r7
	it	ne
	movne	r0, r2
	.loc	12 973 38 is_stmt 0             @ ../GUILib/src/extra/widgets/chart/lv_chart.c:973:38
	str	r0, [sp, #148]
	.loc	12 974 45 is_stmt 1             @ ../GUILib/src/extra/widgets/chart/lv_chart.c:974:45
	add	r0, sp, #100
	str	r0, [sp, #120]
	.loc	12 977 21                       @ ../GUILib/src/extra/widgets/chart/lv_chart.c:977:21
	ldr	r0, [sp, #88]                   @ 4-byte Reload
	.loc	12 975 41                       @ ../GUILib/src/extra/widgets/chart/lv_chart.c:975:41
	str	r1, [sp, #172]
	.loc	12 977 21                       @ ../GUILib/src/extra/widgets/chart/lv_chart.c:977:21
	movs	r1, #26
	add	r2, sp, #108
	bl	lv_event_send
.Ltmp283:
	.loc	12 979 29                       @ ../GUILib/src/extra/widgets/chart/lv_chart.c:979:29
	ldr	r0, [sp, #68]                   @ 4-byte Reload
	ldr	r0, [r0, #4]
	.loc	12 979 24 is_stmt 0             @ ../GUILib/src/extra/widgets/chart/lv_chart.c:979:24
	ldrh.w	r1, [r0, r5, lsl #1]
	.loc	12 979 69                       @ ../GUILib/src/extra/widgets/chart/lv_chart.c:979:69
	cmp	r1, r7
	beq	.LBB2_73
.Ltmp284:
@ %bb.71:                               @   in Loop: Header=BB2_67 Depth=2
	@DEBUG_VALUE: y_max <- $r11
	@DEBUG_VALUE: p_prev <- $r9
	@DEBUG_VALUE: draw_series_line:i <- $r8
	@DEBUG_VALUE: y_min <- [DW_OP_plus_uconst 8] [$sp+0]
	@DEBUG_VALUE: draw_series_line:y_ofs <- [DW_OP_plus_uconst 60] [$sp+0]
	@DEBUG_VALUE: draw_series_line:x_ofs <- [DW_OP_plus_uconst 64] [$sp+0]
	@DEBUG_VALUE: draw_series_line:point_h <- [DW_OP_plus_uconst 16] [$sp+0]
	@DEBUG_VALUE: draw_series_line:point_w <- [DW_OP_plus_uconst 20] [$sp+0]
	@DEBUG_VALUE: draw_series_line:chart <- [DW_OP_plus_uconst 88] [$sp+0]
	@DEBUG_VALUE: draw_series_line:obj <- [DW_OP_plus_uconst 88] [$sp+0]
	@DEBUG_VALUE: lv_chart_event:obj <- [DW_OP_plus_uconst 88] [$sp+0]
	@DEBUG_VALUE: lv_chart_event:chart <- [DW_OP_plus_uconst 88] [$sp+0]
	@DEBUG_VALUE: lv_chart_event:class_p <- [DW_OP_LLVM_entry_value 1] $r0
	.loc	12 979 72                       @ ../GUILib/src/extra/widgets/chart/lv_chart.c:979:72
	ldrh.w	r0, [r0, r4, lsl #1]
.Ltmp285:
	.loc	12 979 24                       @ ../GUILib/src/extra/widgets/chart/lv_chart.c:979:24
	cmp	r0, r7
	beq	.LBB2_73
.Ltmp286:
@ %bb.72:                               @   in Loop: Header=BB2_67 Depth=2
	@DEBUG_VALUE: y_max <- $r11
	@DEBUG_VALUE: p_prev <- $r9
	@DEBUG_VALUE: draw_series_line:i <- $r8
	@DEBUG_VALUE: y_min <- [DW_OP_plus_uconst 8] [$sp+0]
	@DEBUG_VALUE: draw_series_line:y_ofs <- [DW_OP_plus_uconst 60] [$sp+0]
	@DEBUG_VALUE: draw_series_line:x_ofs <- [DW_OP_plus_uconst 64] [$sp+0]
	@DEBUG_VALUE: draw_series_line:point_h <- [DW_OP_plus_uconst 16] [$sp+0]
	@DEBUG_VALUE: draw_series_line:point_w <- [DW_OP_plus_uconst 20] [$sp+0]
	@DEBUG_VALUE: draw_series_line:chart <- [DW_OP_plus_uconst 88] [$sp+0]
	@DEBUG_VALUE: draw_series_line:obj <- [DW_OP_plus_uconst 88] [$sp+0]
	@DEBUG_VALUE: lv_chart_event:obj <- [DW_OP_plus_uconst 88] [$sp+0]
	@DEBUG_VALUE: lv_chart_event:chart <- [DW_OP_plus_uconst 88] [$sp+0]
	@DEBUG_VALUE: lv_chart_event:class_p <- [DW_OP_LLVM_entry_value 1] $r0
	.loc	12 980 25 is_stmt 1             @ ../GUILib/src/extra/widgets/chart/lv_chart.c:980:25
	add	r0, sp, #92
	add	r1, sp, #312
	add	r2, sp, #232
	add	r3, sp, #180
	bl	lv_draw_line
.Ltmp287:
.LBB2_73:                               @   in Loop: Header=BB2_67 Depth=2
	@DEBUG_VALUE: y_max <- $r11
	@DEBUG_VALUE: p_prev <- $r9
	@DEBUG_VALUE: draw_series_line:i <- $r8
	@DEBUG_VALUE: y_min <- [DW_OP_plus_uconst 8] [$sp+0]
	@DEBUG_VALUE: draw_series_line:y_ofs <- [DW_OP_plus_uconst 60] [$sp+0]
	@DEBUG_VALUE: draw_series_line:x_ofs <- [DW_OP_plus_uconst 64] [$sp+0]
	@DEBUG_VALUE: draw_series_line:point_h <- [DW_OP_plus_uconst 16] [$sp+0]
	@DEBUG_VALUE: draw_series_line:point_w <- [DW_OP_plus_uconst 20] [$sp+0]
	@DEBUG_VALUE: draw_series_line:chart <- [DW_OP_plus_uconst 88] [$sp+0]
	@DEBUG_VALUE: draw_series_line:obj <- [DW_OP_plus_uconst 88] [$sp+0]
	@DEBUG_VALUE: lv_chart_event:obj <- [DW_OP_plus_uconst 88] [$sp+0]
	@DEBUG_VALUE: lv_chart_event:chart <- [DW_OP_plus_uconst 88] [$sp+0]
	@DEBUG_VALUE: lv_chart_event:class_p <- [DW_OP_LLVM_entry_value 1] $r0
	.loc	12 983 32                       @ ../GUILib/src/extra/widgets/chart/lv_chart.c:983:32
	ldr	r0, [sp, #12]                   @ 4-byte Reload
	ldr.w	r11, [sp, #44]                  @ 4-byte Reload
.Ltmp288:
	cbnz	r0, .LBB2_76
.Ltmp289:
@ %bb.74:                               @   in Loop: Header=BB2_67 Depth=2
	@DEBUG_VALUE: p_prev <- $r9
	@DEBUG_VALUE: draw_series_line:i <- $r8
	@DEBUG_VALUE: y_min <- [DW_OP_plus_uconst 8] [$sp+0]
	@DEBUG_VALUE: draw_series_line:y_ofs <- [DW_OP_plus_uconst 60] [$sp+0]
	@DEBUG_VALUE: draw_series_line:x_ofs <- [DW_OP_plus_uconst 64] [$sp+0]
	@DEBUG_VALUE: draw_series_line:point_h <- [DW_OP_plus_uconst 16] [$sp+0]
	@DEBUG_VALUE: draw_series_line:point_w <- [DW_OP_plus_uconst 20] [$sp+0]
	@DEBUG_VALUE: draw_series_line:chart <- [DW_OP_plus_uconst 88] [$sp+0]
	@DEBUG_VALUE: draw_series_line:obj <- [DW_OP_plus_uconst 88] [$sp+0]
	@DEBUG_VALUE: lv_chart_event:obj <- [DW_OP_plus_uconst 88] [$sp+0]
	@DEBUG_VALUE: lv_chart_event:chart <- [DW_OP_plus_uconst 88] [$sp+0]
	@DEBUG_VALUE: lv_chart_event:class_p <- [DW_OP_LLVM_entry_value 1] $r0
	.loc	12 983 51 is_stmt 0             @ ../GUILib/src/extra/widgets/chart/lv_chart.c:983:51
	ldr	r0, [sp, #68]                   @ 4-byte Reload
	ldr	r0, [r0, #4]
	.loc	12 983 46                       @ ../GUILib/src/extra/widgets/chart/lv_chart.c:983:46
	ldrh.w	r0, [r0, r5, lsl #1]
.Ltmp290:
	.loc	12 983 24                       @ ../GUILib/src/extra/widgets/chart/lv_chart.c:983:24
	cmp	r0, r7
	beq	.LBB2_76
.Ltmp291:
@ %bb.75:                               @   in Loop: Header=BB2_67 Depth=2
	@DEBUG_VALUE: p_prev <- $r9
	@DEBUG_VALUE: draw_series_line:i <- $r8
	@DEBUG_VALUE: y_min <- [DW_OP_plus_uconst 8] [$sp+0]
	@DEBUG_VALUE: draw_series_line:y_ofs <- [DW_OP_plus_uconst 60] [$sp+0]
	@DEBUG_VALUE: draw_series_line:x_ofs <- [DW_OP_plus_uconst 64] [$sp+0]
	@DEBUG_VALUE: draw_series_line:point_h <- [DW_OP_plus_uconst 16] [$sp+0]
	@DEBUG_VALUE: draw_series_line:point_w <- [DW_OP_plus_uconst 20] [$sp+0]
	@DEBUG_VALUE: draw_series_line:chart <- [DW_OP_plus_uconst 88] [$sp+0]
	@DEBUG_VALUE: draw_series_line:obj <- [DW_OP_plus_uconst 88] [$sp+0]
	@DEBUG_VALUE: lv_chart_event:obj <- [DW_OP_plus_uconst 88] [$sp+0]
	@DEBUG_VALUE: lv_chart_event:chart <- [DW_OP_plus_uconst 88] [$sp+0]
	@DEBUG_VALUE: lv_chart_event:class_p <- [DW_OP_LLVM_entry_value 1] $r0
	.loc	12 984 25 is_stmt 1             @ ../GUILib/src/extra/widgets/chart/lv_chart.c:984:25
	add	r0, sp, #100
	add	r1, sp, #232
	add	r2, sp, #244
	bl	lv_draw_rect
.Ltmp292:
.LBB2_76:                               @   in Loop: Header=BB2_67 Depth=2
	@DEBUG_VALUE: p_prev <- $r9
	@DEBUG_VALUE: draw_series_line:i <- $r8
	@DEBUG_VALUE: y_min <- [DW_OP_plus_uconst 8] [$sp+0]
	@DEBUG_VALUE: draw_series_line:y_ofs <- [DW_OP_plus_uconst 60] [$sp+0]
	@DEBUG_VALUE: draw_series_line:x_ofs <- [DW_OP_plus_uconst 64] [$sp+0]
	@DEBUG_VALUE: draw_series_line:point_h <- [DW_OP_plus_uconst 16] [$sp+0]
	@DEBUG_VALUE: draw_series_line:point_w <- [DW_OP_plus_uconst 20] [$sp+0]
	@DEBUG_VALUE: draw_series_line:chart <- [DW_OP_plus_uconst 88] [$sp+0]
	@DEBUG_VALUE: draw_series_line:obj <- [DW_OP_plus_uconst 88] [$sp+0]
	@DEBUG_VALUE: lv_chart_event:obj <- [DW_OP_plus_uconst 88] [$sp+0]
	@DEBUG_VALUE: lv_chart_event:chart <- [DW_OP_plus_uconst 88] [$sp+0]
	@DEBUG_VALUE: lv_chart_event:class_p <- [DW_OP_LLVM_entry_value 1] $r0
	.loc	12 0 25 is_stmt 0               @ ../GUILib/src/extra/widgets/chart/lv_chart.c:0:25
	ldr	r4, [sp, #88]                   @ 4-byte Reload
	.loc	12 987 21 is_stmt 1             @ ../GUILib/src/extra/widgets/chart/lv_chart.c:987:21
	movs	r1, #27
	mov	r0, r4
	add	r2, sp, #108
	bl	lv_event_send
.Ltmp293:
	.loc	12 0 21 is_stmt 0               @ ../GUILib/src/extra/widgets/chart/lv_chart.c:0:21
	b	.LBB2_83
.Ltmp294:
.LBB2_77:                               @   in Loop: Header=BB2_67 Depth=2
	@DEBUG_VALUE: y_max <- $r11
	@DEBUG_VALUE: p_prev <- $r9
	@DEBUG_VALUE: draw_series_line:i <- $r8
	@DEBUG_VALUE: p_act <- [DW_OP_LLVM_convert 32 7, DW_OP_LLVM_convert 16 7, DW_OP_stack_value] $r1
	@DEBUG_VALUE: y_min <- [DW_OP_plus_uconst 8] [$sp+0]
	@DEBUG_VALUE: draw_series_line:y_ofs <- [DW_OP_plus_uconst 60] [$sp+0]
	@DEBUG_VALUE: draw_series_line:x_ofs <- [DW_OP_plus_uconst 64] [$sp+0]
	@DEBUG_VALUE: draw_series_line:point_h <- [DW_OP_plus_uconst 16] [$sp+0]
	@DEBUG_VALUE: draw_series_line:point_w <- [DW_OP_plus_uconst 20] [$sp+0]
	@DEBUG_VALUE: draw_series_line:chart <- [DW_OP_plus_uconst 88] [$sp+0]
	@DEBUG_VALUE: draw_series_line:obj <- [DW_OP_plus_uconst 88] [$sp+0]
	@DEBUG_VALUE: lv_chart_event:obj <- [DW_OP_plus_uconst 88] [$sp+0]
	@DEBUG_VALUE: lv_chart_event:chart <- [DW_OP_plus_uconst 88] [$sp+0]
	@DEBUG_VALUE: lv_chart_event:class_p <- [DW_OP_LLVM_entry_value 1] $r0
	.loc	12 946 24 is_stmt 1             @ ../GUILib/src/extra/widgets/chart/lv_chart.c:946:24
	sxth.w	r2, r9
	ldrh.w	r2, [r0, r2, lsl #1]
	movw	r7, #32767
	.loc	12 946 69 is_stmt 0             @ ../GUILib/src/extra/widgets/chart/lv_chart.c:946:69
	cmp	r2, r7
	beq	.LBB2_82
.Ltmp295:
@ %bb.78:                               @   in Loop: Header=BB2_67 Depth=2
	@DEBUG_VALUE: y_max <- $r11
	@DEBUG_VALUE: p_prev <- $r9
	@DEBUG_VALUE: draw_series_line:i <- $r8
	@DEBUG_VALUE: p_act <- [DW_OP_LLVM_convert 32 7, DW_OP_LLVM_convert 16 7, DW_OP_stack_value] $r1
	@DEBUG_VALUE: y_min <- [DW_OP_plus_uconst 8] [$sp+0]
	@DEBUG_VALUE: draw_series_line:y_ofs <- [DW_OP_plus_uconst 60] [$sp+0]
	@DEBUG_VALUE: draw_series_line:x_ofs <- [DW_OP_plus_uconst 64] [$sp+0]
	@DEBUG_VALUE: draw_series_line:point_h <- [DW_OP_plus_uconst 16] [$sp+0]
	@DEBUG_VALUE: draw_series_line:point_w <- [DW_OP_plus_uconst 20] [$sp+0]
	@DEBUG_VALUE: draw_series_line:chart <- [DW_OP_plus_uconst 88] [$sp+0]
	@DEBUG_VALUE: draw_series_line:obj <- [DW_OP_plus_uconst 88] [$sp+0]
	@DEBUG_VALUE: lv_chart_event:obj <- [DW_OP_plus_uconst 88] [$sp+0]
	@DEBUG_VALUE: lv_chart_event:chart <- [DW_OP_plus_uconst 88] [$sp+0]
	@DEBUG_VALUE: lv_chart_event:class_p <- [DW_OP_LLVM_entry_value 1] $r0
	.loc	12 946 72                       @ ../GUILib/src/extra/widgets/chart/lv_chart.c:946:72
	ldrh.w	r0, [r0, r4, lsl #1]
.Ltmp296:
	.loc	12 946 24                       @ ../GUILib/src/extra/widgets/chart/lv_chart.c:946:24
	cmp	r0, r7
	beq	.LBB2_82
.Ltmp297:
@ %bb.79:                               @   in Loop: Header=BB2_67 Depth=2
	@DEBUG_VALUE: y_max <- $r11
	@DEBUG_VALUE: p_prev <- $r9
	@DEBUG_VALUE: draw_series_line:i <- $r8
	@DEBUG_VALUE: p_act <- [DW_OP_LLVM_convert 32 7, DW_OP_LLVM_convert 16 7, DW_OP_stack_value] $r1
	@DEBUG_VALUE: y_min <- [DW_OP_plus_uconst 8] [$sp+0]
	@DEBUG_VALUE: draw_series_line:y_ofs <- [DW_OP_plus_uconst 60] [$sp+0]
	@DEBUG_VALUE: draw_series_line:x_ofs <- [DW_OP_plus_uconst 64] [$sp+0]
	@DEBUG_VALUE: draw_series_line:point_h <- [DW_OP_plus_uconst 16] [$sp+0]
	@DEBUG_VALUE: draw_series_line:point_w <- [DW_OP_plus_uconst 20] [$sp+0]
	@DEBUG_VALUE: draw_series_line:chart <- [DW_OP_plus_uconst 88] [$sp+0]
	@DEBUG_VALUE: draw_series_line:obj <- [DW_OP_plus_uconst 88] [$sp+0]
	@DEBUG_VALUE: lv_chart_event:obj <- [DW_OP_plus_uconst 88] [$sp+0]
	@DEBUG_VALUE: lv_chart_event:chart <- [DW_OP_plus_uconst 88] [$sp+0]
	@DEBUG_VALUE: lv_chart_event:class_p <- [DW_OP_LLVM_entry_value 1] $r0
	.loc	12 0 0                          @ ../GUILib/src/extra/widgets/chart/lv_chart.c:0:0
	sxth	r4, r6
.Ltmp298:
	.loc	12 948 33 is_stmt 1             @ ../GUILib/src/extra/widgets/chart/lv_chart.c:948:33
	sxth.w	r0, r11
	cmp	r0, r4
	it	le
	movle	r11, r4
.Ltmp299:
	@DEBUG_VALUE: y_max <- $r11
	.loc	12 0 33 is_stmt 0               @ ../GUILib/src/extra/widgets/chart/lv_chart.c:0:33
	ldr	r2, [sp, #8]                    @ 4-byte Reload
.Ltmp300:
	.loc	12 950 33 is_stmt 1             @ ../GUILib/src/extra/widgets/chart/lv_chart.c:950:33
	uxth.w	r1, lr
.Ltmp301:
	.loc	12 949 33                       @ ../GUILib/src/extra/widgets/chart/lv_chart.c:949:33
	sxth	r0, r2
	cmp	r0, r4
.Ltmp302:
	.loc	12 950 33                       @ ../GUILib/src/extra/widgets/chart/lv_chart.c:950:33
	uxth	r0, r3
.Ltmp303:
	.loc	12 949 33                       @ ../GUILib/src/extra/widgets/chart/lv_chart.c:949:33
	it	ge
	movge	r2, r4
.Ltmp304:
	@DEBUG_VALUE: y_min <- $r2
	.loc	12 950 28                       @ ../GUILib/src/extra/widgets/chart/lv_chart.c:950:28
	cmp	r1, r0
	bne	.LBB2_81
.Ltmp305:
@ %bb.80:                               @   in Loop: Header=BB2_67 Depth=2
	@DEBUG_VALUE: y_max <- $r11
	@DEBUG_VALUE: p_prev <- $r9
	@DEBUG_VALUE: draw_series_line:i <- $r8
	@DEBUG_VALUE: y_min <- $r2
	@DEBUG_VALUE: draw_series_line:y_ofs <- [DW_OP_plus_uconst 60] [$sp+0]
	@DEBUG_VALUE: draw_series_line:x_ofs <- [DW_OP_plus_uconst 64] [$sp+0]
	@DEBUG_VALUE: draw_series_line:point_h <- [DW_OP_plus_uconst 16] [$sp+0]
	@DEBUG_VALUE: draw_series_line:point_w <- [DW_OP_plus_uconst 20] [$sp+0]
	@DEBUG_VALUE: draw_series_line:chart <- [DW_OP_plus_uconst 88] [$sp+0]
	@DEBUG_VALUE: draw_series_line:obj <- [DW_OP_plus_uconst 88] [$sp+0]
	@DEBUG_VALUE: lv_chart_event:obj <- [DW_OP_plus_uconst 88] [$sp+0]
	@DEBUG_VALUE: lv_chart_event:chart <- [DW_OP_plus_uconst 88] [$sp+0]
	@DEBUG_VALUE: lv_chart_event:class_p <- [DW_OP_LLVM_entry_value 1] $r0
	.loc	12 0 28 is_stmt 0               @ ../GUILib/src/extra/widgets/chart/lv_chart.c:0:28
	str.w	r11, [sp, #80]                  @ 4-byte Spill
.Ltmp306:
	@DEBUG_VALUE: y_max <- [DW_OP_plus_uconst 80] [$sp+0]
	@DEBUG_VALUE: y_max <- [DW_OP_plus_uconst 80] [$sp+0]
	str	r2, [sp, #8]                    @ 4-byte Spill
.Ltmp307:
	@DEBUG_VALUE: y_min <- [DW_OP_plus_uconst 8] [$sp+0]
	@DEBUG_VALUE: y_min <- [DW_OP_plus_uconst 8] [$sp+0]
	b	.LBB2_82
.Ltmp308:
.LBB2_81:                               @   in Loop: Header=BB2_67 Depth=2
	@DEBUG_VALUE: y_max <- $r11
	@DEBUG_VALUE: p_prev <- $r9
	@DEBUG_VALUE: draw_series_line:i <- $r8
	@DEBUG_VALUE: y_min <- $r2
	@DEBUG_VALUE: draw_series_line:y_ofs <- [DW_OP_plus_uconst 60] [$sp+0]
	@DEBUG_VALUE: draw_series_line:x_ofs <- [DW_OP_plus_uconst 64] [$sp+0]
	@DEBUG_VALUE: draw_series_line:point_h <- [DW_OP_plus_uconst 16] [$sp+0]
	@DEBUG_VALUE: draw_series_line:point_w <- [DW_OP_plus_uconst 20] [$sp+0]
	@DEBUG_VALUE: draw_series_line:chart <- [DW_OP_plus_uconst 88] [$sp+0]
	@DEBUG_VALUE: draw_series_line:obj <- [DW_OP_plus_uconst 88] [$sp+0]
	@DEBUG_VALUE: lv_chart_event:obj <- [DW_OP_plus_uconst 88] [$sp+0]
	@DEBUG_VALUE: lv_chart_event:chart <- [DW_OP_plus_uconst 88] [$sp+0]
	@DEBUG_VALUE: lv_chart_event:class_p <- [DW_OP_LLVM_entry_value 1] $r0
	@DEBUG_VALUE: y_cur <- $r4
	.loc	12 952 33 is_stmt 1             @ ../GUILib/src/extra/widgets/chart/lv_chart.c:952:33
	subs	r0, r3, #1
	strh.w	r0, [sp, #312]
	.loc	12 953 34                       @ ../GUILib/src/extra/widgets/chart/lv_chart.c:953:34
	strh.w	r0, [sp, #92]
	.loc	12 954 34                       @ ../GUILib/src/extra/widgets/chart/lv_chart.c:954:34
	uxth	r0, r2
.Ltmp309:
	.loc	12 956 37                       @ ../GUILib/src/extra/widgets/chart/lv_chart.c:956:37
	uxth.w	r1, r11
.Ltmp310:
	.loc	12 954 34                       @ ../GUILib/src/extra/widgets/chart/lv_chart.c:954:34
	strh.w	r2, [sp, #94]
	.loc	12 956 32                       @ ../GUILib/src/extra/widgets/chart/lv_chart.c:956:32
	cmp	r0, r1
	.loc	12 957 29                       @ ../GUILib/src/extra/widgets/chart/lv_chart.c:957:29
	add	r0, sp, #92
	add	r1, sp, #312
	add	r2, sp, #232
.Ltmp311:
	add	r3, sp, #180
	.loc	12 956 32                       @ ../GUILib/src/extra/widgets/chart/lv_chart.c:956:32
	it	eq
	addeq.w	r11, r11, #1
.Ltmp312:
	.loc	12 0 0 is_stmt 0                @ ../GUILib/src/extra/widgets/chart/lv_chart.c:0:0
	strh.w	r11, [sp, #314]
	.loc	12 957 29 is_stmt 1             @ ../GUILib/src/extra/widgets/chart/lv_chart.c:957:29
	bl	lv_draw_line
.Ltmp313:
	.loc	12 958 33                       @ ../GUILib/src/extra/widgets/chart/lv_chart.c:958:33
	ldrh.w	r0, [sp, #312]
.Ltmp314:
	.loc	12 0 0 is_stmt 0                @ ../GUILib/src/extra/widgets/chart/lv_chart.c:0:0
	str	r4, [sp, #8]                    @ 4-byte Spill
.Ltmp315:
	.loc	12 958 33                       @ ../GUILib/src/extra/widgets/chart/lv_chart.c:958:33
	adds	r0, #1
	strh.w	r0, [sp, #312]
.Ltmp316:
	@DEBUG_VALUE: y_max <- $r4
	@DEBUG_VALUE: y_min <- $r4
	.loc	12 0 0                          @ ../GUILib/src/extra/widgets/chart/lv_chart.c:0:0
	str	r4, [sp, #80]                   @ 4-byte Spill
.Ltmp317:
	@DEBUG_VALUE: y_cur <- [DW_OP_plus_uconst 80] [$sp+0]
	@DEBUG_VALUE: y_cur <- [DW_OP_plus_uconst 80] [$sp+0]
	@DEBUG_VALUE: y_max <- [DW_OP_plus_uconst 8] [$sp+0]
	@DEBUG_VALUE: y_min <- [DW_OP_plus_uconst 8] [$sp+0]
.LBB2_82:                               @   in Loop: Header=BB2_67 Depth=2
	@DEBUG_VALUE: p_prev <- $r9
	@DEBUG_VALUE: draw_series_line:i <- $r8
	@DEBUG_VALUE: draw_series_line:y_ofs <- [DW_OP_plus_uconst 60] [$sp+0]
	@DEBUG_VALUE: draw_series_line:x_ofs <- [DW_OP_plus_uconst 64] [$sp+0]
	@DEBUG_VALUE: draw_series_line:point_h <- [DW_OP_plus_uconst 16] [$sp+0]
	@DEBUG_VALUE: draw_series_line:point_w <- [DW_OP_plus_uconst 20] [$sp+0]
	@DEBUG_VALUE: draw_series_line:chart <- [DW_OP_plus_uconst 88] [$sp+0]
	@DEBUG_VALUE: draw_series_line:obj <- [DW_OP_plus_uconst 88] [$sp+0]
	@DEBUG_VALUE: lv_chart_event:obj <- [DW_OP_plus_uconst 88] [$sp+0]
	@DEBUG_VALUE: lv_chart_event:chart <- [DW_OP_plus_uconst 88] [$sp+0]
	@DEBUG_VALUE: lv_chart_event:class_p <- [DW_OP_LLVM_entry_value 1] $r0
	ldr	r4, [sp, #88]                   @ 4-byte Reload
	ldr.w	r11, [sp, #44]                  @ 4-byte Reload
.Ltmp318:
.LBB2_83:                               @   in Loop: Header=BB2_67 Depth=2
	@DEBUG_VALUE: p_prev <- $r9
	@DEBUG_VALUE: draw_series_line:i <- $r8
	@DEBUG_VALUE: draw_series_line:y_ofs <- [DW_OP_plus_uconst 60] [$sp+0]
	@DEBUG_VALUE: draw_series_line:x_ofs <- [DW_OP_plus_uconst 64] [$sp+0]
	@DEBUG_VALUE: draw_series_line:point_h <- [DW_OP_plus_uconst 16] [$sp+0]
	@DEBUG_VALUE: draw_series_line:point_w <- [DW_OP_plus_uconst 20] [$sp+0]
	@DEBUG_VALUE: draw_series_line:chart <- [DW_OP_plus_uconst 88] [$sp+0]
	@DEBUG_VALUE: draw_series_line:obj <- [DW_OP_plus_uconst 88] [$sp+0]
	@DEBUG_VALUE: lv_chart_event:obj <- [DW_OP_plus_uconst 88] [$sp+0]
	@DEBUG_VALUE: lv_chart_event:chart <- [DW_OP_plus_uconst 88] [$sp+0]
	@DEBUG_VALUE: lv_chart_event:class_p <- [DW_OP_LLVM_entry_value 1] $r0
	@DEBUG_VALUE: p_prev <- [DW_OP_plus_uconst 76, DW_OP_deref_size 4, DW_OP_LLVM_convert 32 7, DW_OP_LLVM_convert 16 7, DW_OP_stack_value] $sp
	@DEBUG_VALUE: y_min <- [DW_OP_plus_uconst 8] [$sp+0]
	@DEBUG_VALUE: y_max <- [DW_OP_plus_uconst 80] [$sp+0]
	.loc	12 925 31 is_stmt 1             @ ../GUILib/src/extra/widgets/chart/lv_chart.c:925:31
	ldrh.w	r0, [r4, #130]
	.loc	12 925 43 is_stmt 0             @ ../GUILib/src/extra/widgets/chart/lv_chart.c:925:43
	add.w	r8, r8, #1
.Ltmp319:
	@DEBUG_VALUE: draw_series_line:i <- $r8
	@DEBUG_VALUE: p_act <- [DW_OP_plus_uconst 76, DW_OP_deref_size 4, DW_OP_LLVM_convert 32 7, DW_OP_LLVM_convert 16 7, DW_OP_stack_value] $sp
	.loc	12 925 9                        @ ../GUILib/src/extra/widgets/chart/lv_chart.c:925:9
	cmp	r8, r0
	bhs	.LBB2_87
.Ltmp320:
@ %bb.84:                               @   in Loop: Header=BB2_67 Depth=2
	@DEBUG_VALUE: draw_series_line:i <- $r8
	@DEBUG_VALUE: p_act <- [DW_OP_plus_uconst 76, DW_OP_deref_size 4, DW_OP_LLVM_convert 32 7, DW_OP_LLVM_convert 16 7, DW_OP_stack_value] $sp
	@DEBUG_VALUE: y_max <- [DW_OP_plus_uconst 80] [$sp+0]
	@DEBUG_VALUE: p_prev <- [DW_OP_plus_uconst 76, DW_OP_deref_size 4, DW_OP_LLVM_convert 32 7, DW_OP_LLVM_convert 16 7, DW_OP_stack_value] $sp
	@DEBUG_VALUE: y_min <- [DW_OP_plus_uconst 8] [$sp+0]
	@DEBUG_VALUE: draw_series_line:y_ofs <- [DW_OP_plus_uconst 60] [$sp+0]
	@DEBUG_VALUE: draw_series_line:x_ofs <- [DW_OP_plus_uconst 64] [$sp+0]
	@DEBUG_VALUE: draw_series_line:point_h <- [DW_OP_plus_uconst 16] [$sp+0]
	@DEBUG_VALUE: draw_series_line:point_w <- [DW_OP_plus_uconst 20] [$sp+0]
	@DEBUG_VALUE: draw_series_line:chart <- [DW_OP_plus_uconst 88] [$sp+0]
	@DEBUG_VALUE: draw_series_line:obj <- [DW_OP_plus_uconst 88] [$sp+0]
	@DEBUG_VALUE: lv_chart_event:obj <- [DW_OP_plus_uconst 88] [$sp+0]
	@DEBUG_VALUE: lv_chart_event:chart <- [DW_OP_plus_uconst 88] [$sp+0]
	@DEBUG_VALUE: lv_chart_event:class_p <- [DW_OP_LLVM_entry_value 1] $r0
	.loc	12 929 34 is_stmt 1             @ ../GUILib/src/extra/widgets/chart/lv_chart.c:929:34
	ldrsh.w	r6, [r11, #4]
	.loc	12 929 47 is_stmt 0             @ ../GUILib/src/extra/widgets/chart/lv_chart.c:929:47
	ldr	r7, [sp, #32]                   @ 4-byte Reload
	.loc	12 929 16                       @ ../GUILib/src/extra/widgets/chart/lv_chart.c:929:16
	ldrsh.w	r3, [sp, #312]
.Ltmp321:
	@DEBUG_VALUE: draw_series_line:i <- $r8
	@DEBUG_VALUE: y_max <- [DW_OP_plus_uconst 80] [$sp+0]
	@DEBUG_VALUE: y_min <- [DW_OP_plus_uconst 8] [$sp+0]
	@DEBUG_VALUE: p_prev <- [DW_OP_plus_uconst 76, DW_OP_deref_size 4, DW_OP_LLVM_convert 32 7, DW_OP_LLVM_convert 16 7, DW_OP_stack_value] $sp
	.loc	12 929 16                       @ ../GUILib/src/extra/widgets/chart/lv_chart.c:929:16
	ldr	r5, [sp, #72]                   @ 4-byte Reload
	ldr	r1, [sp, #76]                   @ 4-byte Reload
.Ltmp322:
	@DEBUG_VALUE: p_prev <- [DW_OP_LLVM_convert 32 7, DW_OP_LLVM_convert 16 7, DW_OP_stack_value] $r1
	.loc	12 927 23 is_stmt 1             @ ../GUILib/src/extra/widgets/chart/lv_chart.c:927:23
	ldrh.w	r2, [sp, #314]
.Ltmp323:
	.loc	12 929 47                       @ ../GUILib/src/extra/widgets/chart/lv_chart.c:929:47
	add	r6, r7
	ldr.w	r11, [sp, #80]                  @ 4-byte Reload
.Ltmp324:
	@DEBUG_VALUE: y_max <- $r11
	.loc	12 926 23                       @ ../GUILib/src/extra/widgets/chart/lv_chart.c:926:23
	uxth.w	lr, r3
	.loc	12 929 16                       @ ../GUILib/src/extra/widgets/chart/lv_chart.c:929:16
	add	r10, r5
	cmp	r6, r3
	mov	r9, r1
	.loc	12 926 18                       @ ../GUILib/src/extra/widgets/chart/lv_chart.c:926:18
	strh.w	r3, [sp, #92]
	.loc	12 927 18                       @ ../GUILib/src/extra/widgets/chart/lv_chart.c:927:18
	strh.w	r2, [sp, #94]
	.loc	12 929 16                       @ ../GUILib/src/extra/widgets/chart/lv_chart.c:929:16
	bge.w	.LBB2_67
.Ltmp325:
@ %bb.85:                               @   in Loop: Header=BB2_61 Depth=1
	@DEBUG_VALUE: y_max <- $r11
	@DEBUG_VALUE: draw_series_line:i <- $r8
	@DEBUG_VALUE: p_prev <- [DW_OP_LLVM_convert 32 7, DW_OP_LLVM_convert 16 7, DW_OP_stack_value] $r1
	@DEBUG_VALUE: p_act <- [DW_OP_plus_uconst 76, DW_OP_deref_size 4, DW_OP_LLVM_convert 32 7, DW_OP_LLVM_convert 16 7, DW_OP_stack_value] $sp
	@DEBUG_VALUE: y_min <- [DW_OP_plus_uconst 8] [$sp+0]
	@DEBUG_VALUE: draw_series_line:y_ofs <- [DW_OP_plus_uconst 60] [$sp+0]
	@DEBUG_VALUE: draw_series_line:x_ofs <- [DW_OP_plus_uconst 64] [$sp+0]
	@DEBUG_VALUE: draw_series_line:point_h <- [DW_OP_plus_uconst 16] [$sp+0]
	@DEBUG_VALUE: draw_series_line:point_w <- [DW_OP_plus_uconst 20] [$sp+0]
	@DEBUG_VALUE: draw_series_line:chart <- [DW_OP_plus_uconst 88] [$sp+0]
	@DEBUG_VALUE: draw_series_line:obj <- [DW_OP_plus_uconst 88] [$sp+0]
	@DEBUG_VALUE: lv_chart_event:obj <- [DW_OP_plus_uconst 88] [$sp+0]
	@DEBUG_VALUE: lv_chart_event:chart <- [DW_OP_plus_uconst 88] [$sp+0]
	@DEBUG_VALUE: lv_chart_event:class_p <- [DW_OP_LLVM_entry_value 1] $r0
	.loc	12 0 16 is_stmt 0               @ ../GUILib/src/extra/widgets/chart/lv_chart.c:0:16
	mov	r6, r4
	ldr.w	r11, [sp, #44]                  @ 4-byte Reload
.Ltmp326:
	ldr	r4, [sp, #68]                   @ 4-byte Reload
	mov	r9, r1
.Ltmp327:
	@DEBUG_VALUE: p_prev <- [DW_OP_LLVM_convert 32 7, DW_OP_LLVM_convert 16 7, DW_OP_stack_value] $r9
	mov.w	r10, #327680
.Ltmp328:
.LBB2_86:                               @   in Loop: Header=BB2_61 Depth=1
	@DEBUG_VALUE: draw_series_line:y_ofs <- [DW_OP_plus_uconst 60] [$sp+0]
	@DEBUG_VALUE: draw_series_line:x_ofs <- [DW_OP_plus_uconst 64] [$sp+0]
	@DEBUG_VALUE: draw_series_line:point_h <- [DW_OP_plus_uconst 16] [$sp+0]
	@DEBUG_VALUE: draw_series_line:point_w <- [DW_OP_plus_uconst 20] [$sp+0]
	@DEBUG_VALUE: draw_series_line:chart <- [DW_OP_plus_uconst 88] [$sp+0]
	@DEBUG_VALUE: draw_series_line:obj <- [DW_OP_plus_uconst 88] [$sp+0]
	@DEBUG_VALUE: lv_chart_event:obj <- [DW_OP_plus_uconst 88] [$sp+0]
	@DEBUG_VALUE: lv_chart_event:chart <- [DW_OP_plus_uconst 88] [$sp+0]
	@DEBUG_VALUE: lv_chart_event:class_p <- [DW_OP_LLVM_entry_value 1] $r0
	uxth.w	r1, r8
	b	.LBB2_88
.Ltmp329:
.LBB2_87:                               @   in Loop: Header=BB2_61 Depth=1
	@DEBUG_VALUE: draw_series_line:i <- $r8
	@DEBUG_VALUE: p_act <- [DW_OP_plus_uconst 76, DW_OP_deref_size 4, DW_OP_LLVM_convert 32 7, DW_OP_LLVM_convert 16 7, DW_OP_stack_value] $sp
	@DEBUG_VALUE: y_max <- [DW_OP_plus_uconst 80] [$sp+0]
	@DEBUG_VALUE: p_prev <- [DW_OP_plus_uconst 76, DW_OP_deref_size 4, DW_OP_LLVM_convert 32 7, DW_OP_LLVM_convert 16 7, DW_OP_stack_value] $sp
	@DEBUG_VALUE: y_min <- [DW_OP_plus_uconst 8] [$sp+0]
	@DEBUG_VALUE: draw_series_line:y_ofs <- [DW_OP_plus_uconst 60] [$sp+0]
	@DEBUG_VALUE: draw_series_line:x_ofs <- [DW_OP_plus_uconst 64] [$sp+0]
	@DEBUG_VALUE: draw_series_line:point_h <- [DW_OP_plus_uconst 16] [$sp+0]
	@DEBUG_VALUE: draw_series_line:point_w <- [DW_OP_plus_uconst 20] [$sp+0]
	@DEBUG_VALUE: draw_series_line:chart <- [DW_OP_plus_uconst 88] [$sp+0]
	@DEBUG_VALUE: draw_series_line:obj <- [DW_OP_plus_uconst 88] [$sp+0]
	@DEBUG_VALUE: lv_chart_event:obj <- [DW_OP_plus_uconst 88] [$sp+0]
	@DEBUG_VALUE: lv_chart_event:chart <- [DW_OP_plus_uconst 88] [$sp+0]
	@DEBUG_VALUE: lv_chart_event:class_p <- [DW_OP_LLVM_entry_value 1] $r0
	mov	r6, r4
	ldr.w	r9, [sp, #76]                   @ 4-byte Reload
	ldr	r4, [sp, #68]                   @ 4-byte Reload
.Ltmp330:
	.loc	12 932 21 is_stmt 1             @ ../GUILib/src/extra/widgets/chart/lv_chart.c:932:21
	uxth.w	r1, r8
	mov.w	r10, #327680
.Ltmp331:
.LBB2_88:                               @   in Loop: Header=BB2_61 Depth=1
	@DEBUG_VALUE: draw_series_line:y_ofs <- [DW_OP_plus_uconst 60] [$sp+0]
	@DEBUG_VALUE: draw_series_line:x_ofs <- [DW_OP_plus_uconst 64] [$sp+0]
	@DEBUG_VALUE: draw_series_line:point_h <- [DW_OP_plus_uconst 16] [$sp+0]
	@DEBUG_VALUE: draw_series_line:point_w <- [DW_OP_plus_uconst 20] [$sp+0]
	@DEBUG_VALUE: draw_series_line:chart <- [DW_OP_plus_uconst 88] [$sp+0]
	@DEBUG_VALUE: draw_series_line:obj <- [DW_OP_plus_uconst 88] [$sp+0]
	@DEBUG_VALUE: lv_chart_event:obj <- [DW_OP_plus_uconst 88] [$sp+0]
	@DEBUG_VALUE: lv_chart_event:chart <- [DW_OP_plus_uconst 88] [$sp+0]
	@DEBUG_VALUE: lv_chart_event:class_p <- [DW_OP_LLVM_entry_value 1] $r0
	.loc	12 995 26                       @ ../GUILib/src/extra/widgets/chart/lv_chart.c:995:26
	ldr	r2, [sp, #24]                   @ 4-byte Reload
	ldr	r3, [sp, #72]                   @ 4-byte Reload
	cmp	r3, r2
	ble	.LBB2_92
.Ltmp332:
@ %bb.89:                               @   in Loop: Header=BB2_61 Depth=1
	@DEBUG_VALUE: draw_series_line:y_ofs <- [DW_OP_plus_uconst 60] [$sp+0]
	@DEBUG_VALUE: draw_series_line:x_ofs <- [DW_OP_plus_uconst 64] [$sp+0]
	@DEBUG_VALUE: draw_series_line:point_h <- [DW_OP_plus_uconst 16] [$sp+0]
	@DEBUG_VALUE: draw_series_line:point_w <- [DW_OP_plus_uconst 20] [$sp+0]
	@DEBUG_VALUE: draw_series_line:chart <- [DW_OP_plus_uconst 88] [$sp+0]
	@DEBUG_VALUE: draw_series_line:obj <- [DW_OP_plus_uconst 88] [$sp+0]
	@DEBUG_VALUE: lv_chart_event:obj <- [DW_OP_plus_uconst 88] [$sp+0]
	@DEBUG_VALUE: lv_chart_event:chart <- [DW_OP_plus_uconst 88] [$sp+0]
	@DEBUG_VALUE: lv_chart_event:class_p <- [DW_OP_LLVM_entry_value 1] $r0
	cmp	r1, r0
	bne	.LBB2_92
.Ltmp333:
@ %bb.90:                               @   in Loop: Header=BB2_61 Depth=1
	@DEBUG_VALUE: draw_series_line:y_ofs <- [DW_OP_plus_uconst 60] [$sp+0]
	@DEBUG_VALUE: draw_series_line:x_ofs <- [DW_OP_plus_uconst 64] [$sp+0]
	@DEBUG_VALUE: draw_series_line:point_h <- [DW_OP_plus_uconst 16] [$sp+0]
	@DEBUG_VALUE: draw_series_line:point_w <- [DW_OP_plus_uconst 20] [$sp+0]
	@DEBUG_VALUE: draw_series_line:chart <- [DW_OP_plus_uconst 88] [$sp+0]
	@DEBUG_VALUE: draw_series_line:obj <- [DW_OP_plus_uconst 88] [$sp+0]
	@DEBUG_VALUE: lv_chart_event:obj <- [DW_OP_plus_uconst 88] [$sp+0]
	@DEBUG_VALUE: lv_chart_event:chart <- [DW_OP_plus_uconst 88] [$sp+0]
	@DEBUG_VALUE: lv_chart_event:class_p <- [DW_OP_LLVM_entry_value 1] $r0
	.loc	12 997 21                       @ ../GUILib/src/extra/widgets/chart/lv_chart.c:997:21
	ldr	r0, [r4, #4]
	.loc	12 997 16 is_stmt 0             @ ../GUILib/src/extra/widgets/chart/lv_chart.c:997:16
	sxth.w	r1, r9
	ldrh.w	r2, [r0, r1, lsl #1]
.Ltmp334:
	.loc	12 997 16                       @ ../GUILib/src/extra/widgets/chart/lv_chart.c:997:16
	movw	r3, #32767
	cmp	r2, r3
	beq	.LBB2_92
.Ltmp335:
@ %bb.91:                               @   in Loop: Header=BB2_61 Depth=1
	@DEBUG_VALUE: draw_series_line:y_ofs <- [DW_OP_plus_uconst 60] [$sp+0]
	@DEBUG_VALUE: draw_series_line:x_ofs <- [DW_OP_plus_uconst 64] [$sp+0]
	@DEBUG_VALUE: draw_series_line:point_h <- [DW_OP_plus_uconst 16] [$sp+0]
	@DEBUG_VALUE: draw_series_line:point_w <- [DW_OP_plus_uconst 20] [$sp+0]
	@DEBUG_VALUE: draw_series_line:chart <- [DW_OP_plus_uconst 88] [$sp+0]
	@DEBUG_VALUE: draw_series_line:obj <- [DW_OP_plus_uconst 88] [$sp+0]
	@DEBUG_VALUE: lv_chart_event:obj <- [DW_OP_plus_uconst 88] [$sp+0]
	@DEBUG_VALUE: lv_chart_event:chart <- [DW_OP_plus_uconst 88] [$sp+0]
	@DEBUG_VALUE: lv_chart_event:class_p <- [DW_OP_LLVM_entry_value 1] $r0
	.loc	12 999 36 is_stmt 1             @ ../GUILib/src/extra/widgets/chart/lv_chart.c:999:36
	ldrh.w	r2, [sp, #312]
	ldr	r7, [sp, #20]                   @ 4-byte Reload
	add	r5, sp, #108
	.loc	12 999 38 is_stmt 0             @ ../GUILib/src/extra/widgets/chart/lv_chart.c:999:38
	subs	r3, r2, r7
	.loc	12 999 31                       @ ../GUILib/src/extra/widgets/chart/lv_chart.c:999:31
	strh.w	r3, [sp, #100]
	.loc	12 1000 38 is_stmt 1            @ ../GUILib/src/extra/widgets/chart/lv_chart.c:1000:38
	add	r2, r7
	.loc	12 1001 36                      @ ../GUILib/src/extra/widgets/chart/lv_chart.c:1001:36
	ldrh.w	r3, [sp, #314]
	ldr	r7, [sp, #16]                   @ 4-byte Reload
	.loc	12 1000 31                      @ ../GUILib/src/extra/widgets/chart/lv_chart.c:1000:31
	strh.w	r2, [sp, #104]
	.loc	12 1001 38                      @ ../GUILib/src/extra/widgets/chart/lv_chart.c:1001:38
	subs	r2, r3, r7
	.loc	12 1001 31 is_stmt 0            @ ../GUILib/src/extra/widgets/chart/lv_chart.c:1001:31
	strh.w	r2, [sp, #102]
	.loc	12 1002 38 is_stmt 1            @ ../GUILib/src/extra/widgets/chart/lv_chart.c:1002:38
	adds	r2, r3, r7
	.loc	12 1002 31 is_stmt 0            @ ../GUILib/src/extra/widgets/chart/lv_chart.c:1002:31
	strh.w	r2, [sp, #106]
	.loc	12 1004 38 is_stmt 1            @ ../GUILib/src/extra/widgets/chart/lv_chart.c:1004:38
	sub.w	r2, r8, #1
	.loc	12 1004 34 is_stmt 0            @ ../GUILib/src/extra/widgets/chart/lv_chart.c:1004:34
	str	r2, [sp, #164]
	movs	r2, #0
	add	r7, sp, #100
	.loc	12 1005 34 is_stmt 1            @ ../GUILib/src/extra/widgets/chart/lv_chart.c:1005:34
	strd	r2, r2, [sp, #144]
	.loc	12 1007 41                      @ ../GUILib/src/extra/widgets/chart/lv_chart.c:1007:41
	str	r7, [sp, #120]
	.loc	12 1008 39                      @ ../GUILib/src/extra/widgets/chart/lv_chart.c:1008:39
	ldrsh.w	r0, [r0, r1, lsl #1]
	.loc	12 1009 17                      @ ../GUILib/src/extra/widgets/chart/lv_chart.c:1009:17
	movs	r1, #26
	.loc	12 1008 37                      @ ../GUILib/src/extra/widgets/chart/lv_chart.c:1008:37
	str	r0, [sp, #172]
	.loc	12 1009 17                      @ ../GUILib/src/extra/widgets/chart/lv_chart.c:1009:17
	mov	r0, r6
	mov	r2, r5
	bl	lv_event_send
.Ltmp336:
	.loc	12 1010 17                      @ ../GUILib/src/extra/widgets/chart/lv_chart.c:1010:17
	mov	r0, r7
	add	r1, sp, #232
	add	r2, sp, #244
	bl	lv_draw_rect
.Ltmp337:
	.loc	12 1011 17                      @ ../GUILib/src/extra/widgets/chart/lv_chart.c:1011:17
	mov	r0, r6
	movs	r1, #27
	mov	r2, r5
	bl	lv_event_send
.Ltmp338:
.LBB2_92:                               @   in Loop: Header=BB2_61 Depth=1
	@DEBUG_VALUE: draw_series_line:y_ofs <- [DW_OP_plus_uconst 60] [$sp+0]
	@DEBUG_VALUE: draw_series_line:x_ofs <- [DW_OP_plus_uconst 64] [$sp+0]
	@DEBUG_VALUE: draw_series_line:point_h <- [DW_OP_plus_uconst 16] [$sp+0]
	@DEBUG_VALUE: draw_series_line:point_w <- [DW_OP_plus_uconst 20] [$sp+0]
	@DEBUG_VALUE: draw_series_line:chart <- [DW_OP_plus_uconst 88] [$sp+0]
	@DEBUG_VALUE: draw_series_line:obj <- [DW_OP_plus_uconst 88] [$sp+0]
	@DEBUG_VALUE: lv_chart_event:obj <- [DW_OP_plus_uconst 88] [$sp+0]
	@DEBUG_VALUE: lv_chart_event:chart <- [DW_OP_plus_uconst 88] [$sp+0]
	@DEBUG_VALUE: lv_chart_event:class_p <- [DW_OP_LLVM_entry_value 1] $r0
	.loc	12 897 5                        @ ../GUILib/src/extra/widgets/chart/lv_chart.c:897:5
	ldr	r0, [sp, #84]                   @ 4-byte Reload
	mov	r1, r4
	bl	_lv_ll_get_prev
.Ltmp339:
	mov	r4, r0
.Ltmp340:
	@DEBUG_VALUE: draw_series_line:ser <- $r4
	.loc	12 897 5 is_stmt 0              @ ../GUILib/src/extra/widgets/chart/lv_chart.c:897:5
	cmp	r0, #0
	bne.w	.LBB2_61
.Ltmp341:
.LBB2_93:
	@DEBUG_VALUE: draw_series_line:point_h <- [DW_OP_plus_uconst 16] [$sp+0]
	@DEBUG_VALUE: draw_series_line:point_w <- [DW_OP_plus_uconst 20] [$sp+0]
	@DEBUG_VALUE: draw_series_line:chart <- [DW_OP_plus_uconst 88] [$sp+0]
	@DEBUG_VALUE: draw_series_line:obj <- [DW_OP_plus_uconst 88] [$sp+0]
	@DEBUG_VALUE: lv_chart_event:obj <- [DW_OP_plus_uconst 88] [$sp+0]
	@DEBUG_VALUE: lv_chart_event:chart <- [DW_OP_plus_uconst 88] [$sp+0]
	@DEBUG_VALUE: lv_chart_event:class_p <- [DW_OP_LLVM_entry_value 1] $r0
	.loc	12 0 5                          @ ../GUILib/src/extra/widgets/chart/lv_chart.c:0:5
	add.w	r10, sp, #180
.Ltmp342:
.LBB2_94:
	@DEBUG_VALUE: draw_series_line:chart <- [DW_OP_plus_uconst 88] [$sp+0]
	@DEBUG_VALUE: draw_series_line:obj <- [DW_OP_plus_uconst 88] [$sp+0]
	@DEBUG_VALUE: lv_chart_event:obj <- [DW_OP_plus_uconst 88] [$sp+0]
	@DEBUG_VALUE: lv_chart_event:chart <- [DW_OP_plus_uconst 88] [$sp+0]
	@DEBUG_VALUE: lv_chart_event:class_p <- [DW_OP_LLVM_entry_value 1] $r0
	ldr	r4, [sp, #88]                   @ 4-byte Reload
	movw	r7, :lower16:lv_chart_class
	movt	r7, :upper16:lv_chart_class
	b	.LBB2_140
.Ltmp343:
.LBB2_95:
	@DEBUG_VALUE: lv_chart_event:obj <- [DW_OP_plus_uconst 88] [$sp+0]
	@DEBUG_VALUE: lv_chart_event:chart <- [DW_OP_plus_uconst 88] [$sp+0]
	@DEBUG_VALUE: lv_chart_event:class_p <- [DW_OP_LLVM_entry_value 1] $r0
	@DEBUG_VALUE: draw_series_scatter:obj <- [DW_OP_plus_uconst 88] [$sp+0]
	.loc	12 1021 8 is_stmt 1             @ ../GUILib/src/extra/widgets/chart/lv_chart.c:1021:8
	ldr	r1, [sp, #36]                   @ 4-byte Reload
	add	r0, sp, #296
	mov	r2, r11
	bl	_lv_area_intersect
.Ltmp344:
	.loc	12 1021 8 is_stmt 0             @ ../GUILib/src/extra/widgets/chart/lv_chart.c:1021:8
	cmp	r0, #0
.Ltmp345:
	@DEBUG_VALUE: draw_series_scatter:clip_area <- $r11
	beq.w	.LBB2_140
.Ltmp346:
@ %bb.96:
	@DEBUG_VALUE: draw_series_scatter:clip_area <- $r11
	@DEBUG_VALUE: draw_series_scatter:obj <- [DW_OP_plus_uconst 88] [$sp+0]
	@DEBUG_VALUE: lv_chart_event:obj <- [DW_OP_plus_uconst 88] [$sp+0]
	@DEBUG_VALUE: lv_chart_event:chart <- [DW_OP_plus_uconst 88] [$sp+0]
	@DEBUG_VALUE: lv_chart_event:class_p <- [DW_OP_LLVM_entry_value 1] $r0
	@DEBUG_VALUE: draw_series_scatter:chart <- [DW_OP_plus_uconst 88] [$sp+0]
	@DEBUG_VALUE: lv_obj_get_style_border_width:obj <- [DW_OP_plus_uconst 88] [$sp+0]
	@DEBUG_VALUE: lv_obj_get_style_border_width:part <- 0
	.loc	18 297 26 is_stmt 1             @ ../GUILib/src/core/lv_obj_style_gen.h:297:26
	mov	r0, r4
	movs	r1, #0
	movw	r2, #4146
	bl	lv_obj_get_style_prop
.Ltmp347:
	mov	r8, r0
.Ltmp348:
	@DEBUG_VALUE: lv_obj_get_style_pad_left:part <- 0
	@DEBUG_VALUE: lv_obj_get_style_pad_left:obj <- [DW_OP_plus_uconst 88] [$sp+0]
	@DEBUG_VALUE: draw_series_scatter:border_width <- $r8
	@DEBUG_VALUE: lv_obj_get_style_border_width:v <- $r8
	.loc	18 105 26                       @ ../GUILib/src/core/lv_obj_style_gen.h:105:26
	mov	r0, r4
	movs	r1, #0
	movw	r2, #6162
	bl	lv_obj_get_style_prop
.Ltmp349:
	str	r0, [sp, #80]                   @ 4-byte Spill
.Ltmp350:
	@DEBUG_VALUE: lv_obj_get_style_pad_top:part <- 0
	@DEBUG_VALUE: lv_obj_get_style_pad_top:obj <- [DW_OP_plus_uconst 88] [$sp+0]
	@DEBUG_VALUE: draw_series_scatter:pad_left <- [DW_OP_plus_uconst 80] [$sp+0]
	@DEBUG_VALUE: lv_obj_get_style_pad_left:v <- [DW_OP_plus_uconst 80] [$sp+0]
	.loc	18 93 26                        @ ../GUILib/src/core/lv_obj_style_gen.h:93:26
	mov	r0, r4
	movs	r1, #0
	movw	r2, #6160
	bl	lv_obj_get_style_prop
.Ltmp351:
	str	r0, [sp, #72]                   @ 4-byte Spill
.Ltmp352:
	@DEBUG_VALUE: draw_series_scatter:pad_top <- [DW_OP_plus_uconst 72] [$sp+0]
	@DEBUG_VALUE: lv_obj_get_style_pad_top:v <- [DW_OP_plus_uconst 72] [$sp+0]
	.loc	12 1031 34                      @ ../GUILib/src/extra/widgets/chart/lv_chart.c:1031:34
	mov	r0, r4
	bl	lv_obj_get_content_width
.Ltmp353:
	.loc	12 1031 73 is_stmt 0            @ ../GUILib/src/extra/widgets/chart/lv_chart.c:1031:73
	ldrh.w	r1, [r4, #132]
.Ltmp354:
	@DEBUG_VALUE: draw_series_scatter:w <- [DW_OP_constu 8, DW_OP_shr, DW_OP_LLVM_convert 32 7, DW_OP_LLVM_convert 16 7, DW_OP_stack_value] undef
	.loc	12 1031 34                      @ ../GUILib/src/extra/widgets/chart/lv_chart.c:1031:34
	str	r1, [sp, #76]                   @ 4-byte Spill
	str	r0, [sp, #56]                   @ 4-byte Spill
	.loc	12 1032 34 is_stmt 1            @ ../GUILib/src/extra/widgets/chart/lv_chart.c:1032:34
	mov	r0, r4
	bl	lv_obj_get_content_height
.Ltmp355:
	.loc	12 1032 74 is_stmt 0            @ ../GUILib/src/extra/widgets/chart/lv_chart.c:1032:74
	ldrh.w	r10, [r4, #134]
.Ltmp356:
	@DEBUG_VALUE: draw_series_scatter:h <- [DW_OP_LLVM_convert 32 7, DW_OP_LLVM_convert 16 7, DW_OP_stack_value] undef
	.loc	12 1033 36 is_stmt 1            @ ../GUILib/src/extra/widgets/chart/lv_chart.c:1033:36
	ldrh.w	r9, [r4, #20]
	.loc	12 1032 34                      @ ../GUILib/src/extra/widgets/chart/lv_chart.c:1032:34
	str	r0, [sp, #68]                   @ 4-byte Spill
	.loc	12 1033 67                      @ ../GUILib/src/extra/widgets/chart/lv_chart.c:1033:67
	mov	r0, r4
	mov	r5, r4
	bl	lv_obj_get_scroll_left
.Ltmp357:
	.loc	12 0 67 is_stmt 0               @ ../GUILib/src/extra/widgets/chart/lv_chart.c:0:67
	mov	r4, r11
.Ltmp358:
	@DEBUG_VALUE: draw_series_scatter:clip_area <- $r4
	.loc	12 1034 36 is_stmt 1            @ ../GUILib/src/extra/widgets/chart/lv_chart.c:1034:36
	ldrh	r6, [r5, #22]
	.loc	12 1033 67                      @ ../GUILib/src/extra/widgets/chart/lv_chart.c:1033:67
	mov	r11, r0
.Ltmp359:
	@DEBUG_VALUE: draw_series_scatter:x_ofs <- undef
	.loc	12 1034 66                      @ ../GUILib/src/extra/widgets/chart/lv_chart.c:1034:66
	mov	r0, r5
	bl	lv_obj_get_scroll_top
.Ltmp360:
	.loc	12 1038 21                      @ ../GUILib/src/extra/widgets/chart/lv_chart.c:1038:21
	ldr	r1, [sp, #36]                   @ 4-byte Reload
	.loc	12 1034 66                      @ ../GUILib/src/extra/widgets/chart/lv_chart.c:1034:66
	mov	r5, r0
.Ltmp361:
	@DEBUG_VALUE: draw_series_scatter:y_ofs <- undef
	.loc	12 0 66 is_stmt 0               @ ../GUILib/src/extra/widgets/chart/lv_chart.c:0:66
	add	r0, sp, #232
	.loc	12 1038 21 is_stmt 1            @ ../GUILib/src/extra/widgets/chart/lv_chart.c:1038:21
	mov	r2, r4
	str	r4, [sp, #44]                   @ 4-byte Spill
.Ltmp362:
	@DEBUG_VALUE: draw_series_scatter:clip_area <- [DW_OP_plus_uconst 44] [$sp+0]
	bl	_lv_area_intersect
.Ltmp363:
	@DEBUG_VALUE: draw_series_scatter:mask_ret <- [DW_OP_LLVM_convert 1 7, DW_OP_LLVM_convert 8 7, DW_OP_stack_value] undef
	.loc	12 1039 8                       @ ../GUILib/src/extra/widgets/chart/lv_chart.c:1039:8
	cmp	r0, #0
	beq.w	.LBB2_123
.Ltmp364:
@ %bb.97:
	@DEBUG_VALUE: draw_series_scatter:clip_area <- [DW_OP_plus_uconst 44] [$sp+0]
	@DEBUG_VALUE: draw_series_scatter:border_width <- $r8
	@DEBUG_VALUE: draw_series_scatter:pad_top <- [DW_OP_plus_uconst 72] [$sp+0]
	@DEBUG_VALUE: draw_series_scatter:pad_left <- [DW_OP_plus_uconst 80] [$sp+0]
	@DEBUG_VALUE: draw_series_scatter:chart <- [DW_OP_plus_uconst 88] [$sp+0]
	@DEBUG_VALUE: draw_series_scatter:obj <- [DW_OP_plus_uconst 88] [$sp+0]
	@DEBUG_VALUE: lv_chart_event:obj <- [DW_OP_plus_uconst 88] [$sp+0]
	@DEBUG_VALUE: lv_chart_event:chart <- [DW_OP_plus_uconst 88] [$sp+0]
	@DEBUG_VALUE: lv_chart_event:class_p <- [DW_OP_LLVM_entry_value 1] $r0
	@DEBUG_VALUE: draw_series_scatter:h <- [DW_OP_LLVM_convert 32 7, DW_OP_LLVM_convert 16 7, DW_OP_stack_value] undef
	@DEBUG_VALUE: draw_series_scatter:x_ofs <- undef
	@DEBUG_VALUE: draw_series_scatter:y_ofs <- undef
	.loc	12 1042 5                       @ ../GUILib/src/extra/widgets/chart/lv_chart.c:1042:5
	str	r5, [sp, #64]                   @ 4-byte Spill
	add	r5, sp, #180
	mov	r0, r5
	bl	lv_draw_line_dsc_init
.Ltmp365:
	.loc	12 0 5 is_stmt 0                @ ../GUILib/src/extra/widgets/chart/lv_chart.c:0:5
	ldr	r4, [sp, #88]                   @ 4-byte Reload
	.loc	12 1043 5 is_stmt 1             @ ../GUILib/src/extra/widgets/chart/lv_chart.c:1043:5
	mov.w	r1, #327680
	mov	r0, r4
	mov	r2, r5
	bl	lv_obj_init_draw_line_dsc
.Ltmp366:
	.loc	12 0 5 is_stmt 0                @ ../GUILib/src/extra/widgets/chart/lv_chart.c:0:5
	add	r5, sp, #244
	.loc	12 1046 5 is_stmt 1             @ ../GUILib/src/extra/widgets/chart/lv_chart.c:1046:5
	mov	r0, r5
	bl	lv_draw_rect_dsc_init
.Ltmp367:
	.loc	12 1047 5                       @ ../GUILib/src/extra/widgets/chart/lv_chart.c:1047:5
	mov	r0, r4
	mov.w	r1, #131072
	mov	r2, r5
	bl	lv_obj_init_draw_rect_dsc
.Ltmp368:
	@DEBUG_VALUE: lv_obj_get_style_width:part <- 131072
	@DEBUG_VALUE: lv_obj_get_style_width:obj <- [DW_OP_plus_uconst 88] [$sp+0]
	.loc	18 3 26                         @ ../GUILib/src/core/lv_obj_style_gen.h:3:26
	mov	r0, r4
	mov.w	r1, #131072
	movw	r2, #4097
	bl	lv_obj_get_style_prop
.Ltmp369:
	@DEBUG_VALUE: lv_obj_get_style_width:v <- $r0
	.loc	18 4 12                         @ ../GUILib/src/core/lv_obj_style_gen.h:4:12
	uxth	r1, r0
	str	r0, [sp, #40]                   @ 4-byte Spill
.Ltmp370:
	@DEBUG_VALUE: lv_obj_get_style_width:v <- [DW_OP_plus_uconst 40] [$sp+0]
	.loc	12 1049 73                      @ ../GUILib/src/extra/widgets/chart/lv_chart.c:1049:73
	add.w	r0, r0, r1, lsr #15
	sxth	r5, r0
.Ltmp371:
	.loc	18 21 26                        @ ../GUILib/src/core/lv_obj_style_gen.h:21:26
	mov	r0, r4
	mov.w	r1, #131072
	movw	r2, #4100
.Ltmp372:
	.loc	12 1049 73                      @ ../GUILib/src/extra/widgets/chart/lv_chart.c:1049:73
	asrs	r7, r5, #1
.Ltmp373:
	@DEBUG_VALUE: lv_obj_get_style_height:part <- 131072
	@DEBUG_VALUE: lv_obj_get_style_height:obj <- [DW_OP_plus_uconst 88] [$sp+0]
	@DEBUG_VALUE: draw_series_scatter:point_w <- $r7
	.loc	18 21 26                        @ ../GUILib/src/core/lv_obj_style_gen.h:21:26
	bl	lv_obj_get_style_prop
.Ltmp374:
	mov	r4, r0
.Ltmp375:
	@DEBUG_VALUE: lv_obj_get_style_height:v <- $r4
	.loc	18 22 12                        @ ../GUILib/src/core/lv_obj_style_gen.h:22:12
	uxth	r0, r0
.Ltmp376:
	.loc	12 1050 74                      @ ../GUILib/src/extra/widgets/chart/lv_chart.c:1050:74
	add.w	r0, r4, r0, lsr #15
	sxth	r0, r0
	asrs	r1, r0, #1
.Ltmp377:
	@DEBUG_VALUE: draw_series_scatter:point_h <- $r1
	.loc	12 1053 8                       @ ../GUILib/src/extra/widgets/chart/lv_chart.c:1053:8
	cmp.w	r7, r0, asr #1
	.loc	12 1053 52 is_stmt 0            @ ../GUILib/src/extra/widgets/chart/lv_chart.c:1053:52
	ldrh.w	r0, [sp, #182]
	str	r7, [sp, #32]                   @ 4-byte Spill
.Ltmp378:
	@DEBUG_VALUE: draw_series_scatter:point_w <- [DW_OP_plus_uconst 32] [$sp+0]
	@DEBUG_VALUE: draw_series_scatter:point_w <- [DW_OP_plus_uconst 32] [$sp+0]
	.loc	12 1053 58                      @ ../GUILib/src/extra/widgets/chart/lv_chart.c:1053:58
	add.w	r2, r0, r0, lsr #15
	sxth	r2, r2
	str	r1, [sp, #28]                   @ 4-byte Spill
.Ltmp379:
	@DEBUG_VALUE: draw_series_scatter:point_h <- [DW_OP_plus_uconst 28] [$sp+0]
	.loc	12 1053 8                       @ ../GUILib/src/extra/widgets/chart/lv_chart.c:1053:8
	it	lt
	asrlt	r1, r5, #1
.Ltmp380:
	.loc	12 1053 8                       @ ../GUILib/src/extra/widgets/chart/lv_chart.c:1053:8
	cmp.w	r1, r2, asr #1
	ble	.LBB2_99
.Ltmp381:
@ %bb.98:
	@DEBUG_VALUE: draw_series_scatter:clip_area <- [DW_OP_plus_uconst 44] [$sp+0]
	@DEBUG_VALUE: draw_series_scatter:border_width <- $r8
	@DEBUG_VALUE: draw_series_scatter:point_h <- [DW_OP_plus_uconst 28] [$sp+0]
	@DEBUG_VALUE: draw_series_scatter:point_w <- [DW_OP_plus_uconst 32] [$sp+0]
	@DEBUG_VALUE: draw_series_scatter:pad_top <- [DW_OP_plus_uconst 72] [$sp+0]
	@DEBUG_VALUE: draw_series_scatter:pad_left <- [DW_OP_plus_uconst 80] [$sp+0]
	@DEBUG_VALUE: draw_series_scatter:chart <- [DW_OP_plus_uconst 88] [$sp+0]
	@DEBUG_VALUE: draw_series_scatter:obj <- [DW_OP_plus_uconst 88] [$sp+0]
	@DEBUG_VALUE: lv_chart_event:obj <- [DW_OP_plus_uconst 88] [$sp+0]
	@DEBUG_VALUE: lv_chart_event:chart <- [DW_OP_plus_uconst 88] [$sp+0]
	@DEBUG_VALUE: lv_chart_event:class_p <- [DW_OP_LLVM_entry_value 1] $r0
	.loc	12 1053 88                      @ ../GUILib/src/extra/widgets/chart/lv_chart.c:1053:88
	ldrb.w	r1, [sp, #189]
	orr	r1, r1, #16
	strb.w	r1, [sp, #189]
.Ltmp382:
.LBB2_99:
	@DEBUG_VALUE: draw_series_scatter:clip_area <- [DW_OP_plus_uconst 44] [$sp+0]
	@DEBUG_VALUE: draw_series_scatter:border_width <- $r8
	@DEBUG_VALUE: draw_series_scatter:point_h <- [DW_OP_plus_uconst 28] [$sp+0]
	@DEBUG_VALUE: draw_series_scatter:point_w <- [DW_OP_plus_uconst 32] [$sp+0]
	@DEBUG_VALUE: draw_series_scatter:pad_top <- [DW_OP_plus_uconst 72] [$sp+0]
	@DEBUG_VALUE: draw_series_scatter:pad_left <- [DW_OP_plus_uconst 80] [$sp+0]
	@DEBUG_VALUE: draw_series_scatter:chart <- [DW_OP_plus_uconst 88] [$sp+0]
	@DEBUG_VALUE: draw_series_scatter:obj <- [DW_OP_plus_uconst 88] [$sp+0]
	@DEBUG_VALUE: lv_chart_event:obj <- [DW_OP_plus_uconst 88] [$sp+0]
	@DEBUG_VALUE: lv_chart_event:chart <- [DW_OP_plus_uconst 88] [$sp+0]
	@DEBUG_VALUE: lv_chart_event:class_p <- [DW_OP_LLVM_entry_value 1] $r0
	@DEBUG_VALUE: draw_series_scatter:h <- [DW_OP_LLVM_convert 32 7, DW_OP_LLVM_convert 16 7, DW_OP_stack_value] undef
	@DEBUG_VALUE: draw_series_scatter:x_ofs <- undef
	@DEBUG_VALUE: draw_series_scatter:y_ofs <- undef
	.loc	12 1054 8 is_stmt 1             @ ../GUILib/src/extra/widgets/chart/lv_chart.c:1054:8
	cmp	r0, #1
	bne	.LBB2_101
.Ltmp383:
@ %bb.100:
	@DEBUG_VALUE: draw_series_scatter:clip_area <- [DW_OP_plus_uconst 44] [$sp+0]
	@DEBUG_VALUE: draw_series_scatter:border_width <- $r8
	@DEBUG_VALUE: draw_series_scatter:point_h <- [DW_OP_plus_uconst 28] [$sp+0]
	@DEBUG_VALUE: draw_series_scatter:point_w <- [DW_OP_plus_uconst 32] [$sp+0]
	@DEBUG_VALUE: draw_series_scatter:pad_top <- [DW_OP_plus_uconst 72] [$sp+0]
	@DEBUG_VALUE: draw_series_scatter:pad_left <- [DW_OP_plus_uconst 80] [$sp+0]
	@DEBUG_VALUE: draw_series_scatter:chart <- [DW_OP_plus_uconst 88] [$sp+0]
	@DEBUG_VALUE: draw_series_scatter:obj <- [DW_OP_plus_uconst 88] [$sp+0]
	@DEBUG_VALUE: lv_chart_event:obj <- [DW_OP_plus_uconst 88] [$sp+0]
	@DEBUG_VALUE: lv_chart_event:chart <- [DW_OP_plus_uconst 88] [$sp+0]
	@DEBUG_VALUE: lv_chart_event:class_p <- [DW_OP_LLVM_entry_value 1] $r0
	.loc	12 1054 62 is_stmt 0            @ ../GUILib/src/extra/widgets/chart/lv_chart.c:1054:62
	ldrb.w	r0, [sp, #189]
	orr	r0, r0, #16
	strb.w	r0, [sp, #189]
.Ltmp384:
.LBB2_101:
	@DEBUG_VALUE: draw_series_scatter:clip_area <- [DW_OP_plus_uconst 44] [$sp+0]
	@DEBUG_VALUE: draw_series_scatter:border_width <- $r8
	@DEBUG_VALUE: draw_series_scatter:point_h <- [DW_OP_plus_uconst 28] [$sp+0]
	@DEBUG_VALUE: draw_series_scatter:point_w <- [DW_OP_plus_uconst 32] [$sp+0]
	@DEBUG_VALUE: draw_series_scatter:pad_top <- [DW_OP_plus_uconst 72] [$sp+0]
	@DEBUG_VALUE: draw_series_scatter:pad_left <- [DW_OP_plus_uconst 80] [$sp+0]
	@DEBUG_VALUE: draw_series_scatter:chart <- [DW_OP_plus_uconst 88] [$sp+0]
	@DEBUG_VALUE: draw_series_scatter:obj <- [DW_OP_plus_uconst 88] [$sp+0]
	@DEBUG_VALUE: lv_chart_event:obj <- [DW_OP_plus_uconst 88] [$sp+0]
	@DEBUG_VALUE: lv_chart_event:chart <- [DW_OP_plus_uconst 88] [$sp+0]
	@DEBUG_VALUE: lv_chart_event:class_p <- [DW_OP_LLVM_entry_value 1] $r0
	@DEBUG_VALUE: draw_series_scatter:h <- [DW_OP_LLVM_convert 32 7, DW_OP_LLVM_convert 16 7, DW_OP_stack_value] undef
	@DEBUG_VALUE: draw_series_scatter:x_ofs <- undef
	@DEBUG_VALUE: draw_series_scatter:y_ofs <- undef
	.loc	12 1057 5 is_stmt 1             @ ../GUILib/src/extra/widgets/chart/lv_chart.c:1057:5
	ldr	r0, [sp, #84]                   @ 4-byte Reload
	bl	_lv_ll_get_tail
.Ltmp385:
	@DEBUG_VALUE: draw_series_scatter:ser <- $r0
	cmp	r0, #0
	beq.w	.LBB2_122
.Ltmp386:
@ %bb.102:
	@DEBUG_VALUE: draw_series_scatter:clip_area <- [DW_OP_plus_uconst 44] [$sp+0]
	@DEBUG_VALUE: draw_series_scatter:border_width <- $r8
	@DEBUG_VALUE: draw_series_scatter:ser <- $r0
	@DEBUG_VALUE: draw_series_scatter:point_h <- [DW_OP_plus_uconst 28] [$sp+0]
	@DEBUG_VALUE: draw_series_scatter:point_w <- [DW_OP_plus_uconst 32] [$sp+0]
	@DEBUG_VALUE: draw_series_scatter:pad_top <- [DW_OP_plus_uconst 72] [$sp+0]
	@DEBUG_VALUE: draw_series_scatter:pad_left <- [DW_OP_plus_uconst 80] [$sp+0]
	@DEBUG_VALUE: draw_series_scatter:chart <- [DW_OP_plus_uconst 88] [$sp+0]
	@DEBUG_VALUE: draw_series_scatter:obj <- [DW_OP_plus_uconst 88] [$sp+0]
	@DEBUG_VALUE: lv_chart_event:obj <- [DW_OP_plus_uconst 88] [$sp+0]
	@DEBUG_VALUE: lv_chart_event:chart <- [DW_OP_plus_uconst 88] [$sp+0]
	@DEBUG_VALUE: lv_chart_event:class_p <- [DW_OP_LLVM_entry_value 1] $r0
	.loc	12 0 5 is_stmt 0                @ ../GUILib/src/extra/widgets/chart/lv_chart.c:0:5
	mov	r7, r0
.Ltmp387:
	@DEBUG_VALUE: draw_series_scatter:ser <- $r7
	@DEBUG_VALUE: draw_series_scatter:ser <- $r7
	ldr	r0, [sp, #80]                   @ 4-byte Reload
	ldr	r1, [sp, #72]                   @ 4-byte Reload
	add	r0, r8
	add	r0, r9
	add	r1, r8
	sub.w	r5, r0, r11
.Ltmp388:
	@DEBUG_VALUE: draw_series_scatter:x_ofs <- $r5
	adds	r0, r1, r6
	ldr	r1, [sp, #64]                   @ 4-byte Reload
	ldr	r2, [sp, #68]                   @ 4-byte Reload
	subs	r0, r0, r1
.Ltmp389:
	@DEBUG_VALUE: draw_series_scatter:y_ofs <- $r0
	str	r0, [sp, #72]                   @ 4-byte Spill
.Ltmp390:
	@DEBUG_VALUE: draw_series_scatter:y_ofs <- [DW_OP_plus_uconst 72] [$sp+0]
	@DEBUG_VALUE: draw_series_scatter:y_ofs <- [DW_OP_plus_uconst 72] [$sp+0]
	ldr	r1, [sp, #88]                   @ 4-byte Reload
	mul	r2, r10, r2
	add.w	r0, r1, #116
	str	r0, [sp, #68]                   @ 4-byte Spill
	add.w	r0, r1, #108
	str	r0, [sp, #64]                   @ 4-byte Spill
	add.w	r0, r1, #120
	str	r0, [sp, #60]                   @ 4-byte Spill
	ldr	r0, [sp, #76]                   @ 4-byte Reload
	ldr	r3, [sp, #56]                   @ 4-byte Reload
	lsrs	r2, r2, #8
.Ltmp391:
	@DEBUG_VALUE: draw_series_scatter:h <- [DW_OP_LLVM_convert 32 7, DW_OP_LLVM_convert 16 7, DW_OP_stack_value] $r2
	muls	r0, r3, r0
	sbfx	r0, r0, #8, #16
	str	r0, [sp, #56]                   @ 4-byte Spill
	add.w	r0, r1, #112
	str	r0, [sp, #52]                   @ 4-byte Spill
	sxth	r0, r2
	str	r2, [sp, #76]                   @ 4-byte Spill
.Ltmp392:
	@DEBUG_VALUE: draw_series_scatter:h <- [DW_OP_plus_uconst 76, DW_OP_LLVM_convert 32 7, DW_OP_LLVM_convert 16 7, DW_OP_stack_value] [$sp+0]
	@DEBUG_VALUE: draw_series_scatter:h <- [DW_OP_plus_uconst 76, DW_OP_deref_size 4, DW_OP_LLVM_convert 32 7, DW_OP_LLVM_convert 16 7, DW_OP_stack_value] $sp
	str	r0, [sp, #48]                   @ 4-byte Spill
	ldr	r0, [sp, #40]                   @ 4-byte Reload
	adds	r1, r4, #1
	adds	r0, #1
	uxth	r0, r0
	cmp	r0, #3
	mov.w	r0, #0
	uxth	r1, r1
	it	lo
	movlo	r0, #1
	cmp	r1, #3
	mov.w	r1, #0
	it	lo
	movlo	r1, #1
	orrs	r0, r1
	str	r0, [sp, #24]                   @ 4-byte Spill
	str	r5, [sp, #80]                   @ 4-byte Spill
.Ltmp393:
.LBB2_103:                              @ =>This Loop Header: Depth=1
                                        @     Child Loop BB2_108 Depth 2
	@DEBUG_VALUE: draw_series_scatter:ser <- $r7
	@DEBUG_VALUE: draw_series_scatter:h <- [DW_OP_plus_uconst 76, DW_OP_deref_size 4, DW_OP_LLVM_convert 32 7, DW_OP_LLVM_convert 16 7, DW_OP_stack_value] $sp
	@DEBUG_VALUE: draw_series_scatter:y_ofs <- [DW_OP_plus_uconst 72] [$sp+0]
	@DEBUG_VALUE: draw_series_scatter:point_h <- [DW_OP_plus_uconst 28] [$sp+0]
	@DEBUG_VALUE: draw_series_scatter:point_w <- [DW_OP_plus_uconst 32] [$sp+0]
	@DEBUG_VALUE: draw_series_scatter:pad_top <- [DW_OP_plus_uconst 72] [$sp+0]
	@DEBUG_VALUE: draw_series_scatter:pad_left <- [DW_OP_plus_uconst 80] [$sp+0]
	@DEBUG_VALUE: draw_series_scatter:chart <- [DW_OP_plus_uconst 88] [$sp+0]
	@DEBUG_VALUE: draw_series_scatter:obj <- [DW_OP_plus_uconst 88] [$sp+0]
	@DEBUG_VALUE: lv_chart_event:obj <- [DW_OP_plus_uconst 88] [$sp+0]
	@DEBUG_VALUE: lv_chart_event:chart <- [DW_OP_plus_uconst 88] [$sp+0]
	@DEBUG_VALUE: lv_chart_event:class_p <- [DW_OP_LLVM_entry_value 1] $r0
	@DEBUG_VALUE: draw_series_scatter:ser <- $r7
	.loc	12 1058 17 is_stmt 1            @ ../GUILib/src/extra/widgets/chart/lv_chart.c:1058:17
	ldrb	r1, [r7, #12]
.Ltmp394:
	.loc	12 1058 12 is_stmt 0            @ ../GUILib/src/extra/widgets/chart/lv_chart.c:1058:12
	lsls	r0, r1, #31
	bne.w	.LBB2_121
.Ltmp395:
@ %bb.104:                              @   in Loop: Header=BB2_103 Depth=1
	@DEBUG_VALUE: draw_series_scatter:ser <- $r7
	@DEBUG_VALUE: draw_series_scatter:h <- [DW_OP_plus_uconst 76, DW_OP_deref_size 4, DW_OP_LLVM_convert 32 7, DW_OP_LLVM_convert 16 7, DW_OP_stack_value] $sp
	@DEBUG_VALUE: draw_series_scatter:y_ofs <- [DW_OP_plus_uconst 72] [$sp+0]
	@DEBUG_VALUE: draw_series_scatter:point_h <- [DW_OP_plus_uconst 28] [$sp+0]
	@DEBUG_VALUE: draw_series_scatter:point_w <- [DW_OP_plus_uconst 32] [$sp+0]
	@DEBUG_VALUE: draw_series_scatter:pad_top <- [DW_OP_plus_uconst 72] [$sp+0]
	@DEBUG_VALUE: draw_series_scatter:pad_left <- [DW_OP_plus_uconst 80] [$sp+0]
	@DEBUG_VALUE: draw_series_scatter:chart <- [DW_OP_plus_uconst 88] [$sp+0]
	@DEBUG_VALUE: draw_series_scatter:obj <- [DW_OP_plus_uconst 88] [$sp+0]
	@DEBUG_VALUE: lv_chart_event:obj <- [DW_OP_plus_uconst 88] [$sp+0]
	@DEBUG_VALUE: lv_chart_event:chart <- [DW_OP_plus_uconst 88] [$sp+0]
	@DEBUG_VALUE: lv_chart_event:class_p <- [DW_OP_LLVM_entry_value 1] $r0
	.loc	12 0 12                         @ ../GUILib/src/extra/widgets/chart/lv_chart.c:0:12
	ldr	r4, [sp, #88]                   @ 4-byte Reload
	.loc	12 1059 39 is_stmt 1            @ ../GUILib/src/extra/widgets/chart/lv_chart.c:1059:39
	ldrh	r0, [r7, #8]
	.loc	12 1062 41                      @ ../GUILib/src/extra/widgets/chart/lv_chart.c:1062:41
	ldrb.w	r2, [r4, #136]
	.loc	12 1059 39                      @ ../GUILib/src/extra/widgets/chart/lv_chart.c:1059:39
	strh.w	r0, [sp, #180]
	.loc	12 1060 43                      @ ../GUILib/src/extra/widgets/chart/lv_chart.c:1060:43
	strh.w	r0, [sp, #248]
	.loc	12 1062 34                      @ ../GUILib/src/extra/widgets/chart/lv_chart.c:1062:34
	lsls	r2, r2, #28
	.loc	12 1062 90 is_stmt 0            @ ../GUILib/src/extra/widgets/chart/lv_chart.c:1062:90
	ite	pl
	ldrhpl.w	r10, [r7, #10]
	movmi.w	r10, #0
.Ltmp396:
	@DEBUG_VALUE: start_point <- $r10
	.loc	12 1069 17 is_stmt 1            @ ../GUILib/src/extra/widgets/chart/lv_chart.c:1069:17
	ldr	r0, [r7, #4]
.Ltmp397:
	.loc	12 1064 14                      @ ../GUILib/src/extra/widgets/chart/lv_chart.c:1064:14
	strh.w	r5, [sp, #92]
	.loc	12 1065 14                      @ ../GUILib/src/extra/widgets/chart/lv_chart.c:1065:14
	strh.w	r5, [sp, #312]
.Ltmp398:
	@DEBUG_VALUE: p_prev <- $r10
	@DEBUG_VALUE: p_act <- $r10
	.loc	12 1069 12                      @ ../GUILib/src/extra/widgets/chart/lv_chart.c:1069:12
	sxth.w	r6, r10
	ldrh.w	r0, [r0, r6, lsl #1]
	str	r7, [sp, #40]                   @ 4-byte Spill
.Ltmp399:
	.loc	12 1069 12 is_stmt 0            @ ../GUILib/src/extra/widgets/chart/lv_chart.c:1069:12
	cmp	r0, #10
	bne	.LBB2_106
.Ltmp400:
@ %bb.105:                              @   in Loop: Header=BB2_103 Depth=1
	@DEBUG_VALUE: p_act <- $r10
	@DEBUG_VALUE: p_prev <- $r10
	@DEBUG_VALUE: start_point <- $r10
	@DEBUG_VALUE: draw_series_scatter:ser <- $r7
	@DEBUG_VALUE: draw_series_scatter:h <- [DW_OP_plus_uconst 76, DW_OP_deref_size 4, DW_OP_LLVM_convert 32 7, DW_OP_LLVM_convert 16 7, DW_OP_stack_value] $sp
	@DEBUG_VALUE: draw_series_scatter:y_ofs <- [DW_OP_plus_uconst 72] [$sp+0]
	@DEBUG_VALUE: draw_series_scatter:point_h <- [DW_OP_plus_uconst 28] [$sp+0]
	@DEBUG_VALUE: draw_series_scatter:point_w <- [DW_OP_plus_uconst 32] [$sp+0]
	@DEBUG_VALUE: draw_series_scatter:pad_top <- [DW_OP_plus_uconst 72] [$sp+0]
	@DEBUG_VALUE: draw_series_scatter:pad_left <- [DW_OP_plus_uconst 80] [$sp+0]
	@DEBUG_VALUE: draw_series_scatter:chart <- [DW_OP_plus_uconst 88] [$sp+0]
	@DEBUG_VALUE: draw_series_scatter:obj <- [DW_OP_plus_uconst 88] [$sp+0]
	@DEBUG_VALUE: lv_chart_event:obj <- [DW_OP_plus_uconst 88] [$sp+0]
	@DEBUG_VALUE: lv_chart_event:chart <- [DW_OP_plus_uconst 88] [$sp+0]
	@DEBUG_VALUE: lv_chart_event:class_p <- [DW_OP_LLVM_entry_value 1] $r0
	.loc	12 1078 18 is_stmt 1            @ ../GUILib/src/extra/widgets/chart/lv_chart.c:1078:18
	movw	r0, #57345
	strh.w	r0, [sp, #312]
.Ltmp401:
	.loc	12 0 0 is_stmt 0                @ ../GUILib/src/extra/widgets/chart/lv_chart.c:0:0
	movw	r0, #57345
	b	.LBB2_107
.Ltmp402:
.LBB2_106:                              @   in Loop: Header=BB2_103 Depth=1
	@DEBUG_VALUE: p_act <- $r10
	@DEBUG_VALUE: p_prev <- $r10
	@DEBUG_VALUE: start_point <- $r10
	@DEBUG_VALUE: draw_series_scatter:ser <- $r7
	@DEBUG_VALUE: draw_series_scatter:h <- [DW_OP_plus_uconst 76, DW_OP_deref_size 4, DW_OP_LLVM_convert 32 7, DW_OP_LLVM_convert 16 7, DW_OP_stack_value] $sp
	@DEBUG_VALUE: draw_series_scatter:y_ofs <- [DW_OP_plus_uconst 72] [$sp+0]
	@DEBUG_VALUE: draw_series_scatter:point_h <- [DW_OP_plus_uconst 28] [$sp+0]
	@DEBUG_VALUE: draw_series_scatter:point_w <- [DW_OP_plus_uconst 32] [$sp+0]
	@DEBUG_VALUE: draw_series_scatter:pad_top <- [DW_OP_plus_uconst 72] [$sp+0]
	@DEBUG_VALUE: draw_series_scatter:pad_left <- [DW_OP_plus_uconst 80] [$sp+0]
	@DEBUG_VALUE: draw_series_scatter:chart <- [DW_OP_plus_uconst 88] [$sp+0]
	@DEBUG_VALUE: draw_series_scatter:obj <- [DW_OP_plus_uconst 88] [$sp+0]
	@DEBUG_VALUE: lv_chart_event:obj <- [DW_OP_plus_uconst 88] [$sp+0]
	@DEBUG_VALUE: lv_chart_event:chart <- [DW_OP_plus_uconst 88] [$sp+0]
	@DEBUG_VALUE: lv_chart_event:class_p <- [DW_OP_LLVM_entry_value 1] $r0
	.loc	12 1070 49 is_stmt 1            @ ../GUILib/src/extra/widgets/chart/lv_chart.c:1070:49
	movs	r2, #2
	.loc	12 1070 32 is_stmt 0            @ ../GUILib/src/extra/widgets/chart/lv_chart.c:1070:32
	ldr	r0, [r7]
	.loc	12 1070 49                      @ ../GUILib/src/extra/widgets/chart/lv_chart.c:1070:49
	and.w	r2, r2, r1, lsr #2
	ldr	r1, [sp, #68]                   @ 4-byte Reload
	.loc	12 1070 79                      @ ../GUILib/src/extra/widgets/chart/lv_chart.c:1070:79
	ldr	r3, [sp, #60]                   @ 4-byte Reload
	.loc	12 1070 27                      @ ../GUILib/src/extra/widgets/chart/lv_chart.c:1070:27
	ldrsh.w	r0, [r0, r6, lsl #1]
	.loc	12 1070 49                      @ ../GUILib/src/extra/widgets/chart/lv_chart.c:1070:49
	ldrsh	r1, [r1, r2]
	.loc	12 1070 79                      @ ../GUILib/src/extra/widgets/chart/lv_chart.c:1070:79
	ldrsh	r2, [r3, r2]
	.loc	12 1070 20                      @ ../GUILib/src/extra/widgets/chart/lv_chart.c:1070:20
	ldr	r7, [sp, #56]                   @ 4-byte Reload
.Ltmp403:
	movs	r3, #0
	str	r7, [sp]
	bl	lv_map
.Ltmp404:
	.loc	12 1073 66 is_stmt 1            @ ../GUILib/src/extra/widgets/chart/lv_chart.c:1073:66
	ldr	r1, [sp, #40]                   @ 4-byte Reload
	.loc	12 1071 18                      @ ../GUILib/src/extra/widgets/chart/lv_chart.c:1071:18
	add	r0, r5
	strh.w	r0, [sp, #312]
	.loc	12 1073 32                      @ ../GUILib/src/extra/widgets/chart/lv_chart.c:1073:32
	ldr	r0, [sp, #40]                   @ 4-byte Reload
	.loc	12 1073 66 is_stmt 0            @ ../GUILib/src/extra/widgets/chart/lv_chart.c:1073:66
	ldrb	r1, [r1, #12]
	.loc	12 1073 32                      @ ../GUILib/src/extra/widgets/chart/lv_chart.c:1073:32
	ldr	r0, [r0, #4]
	.loc	12 1073 49                      @ ../GUILib/src/extra/widgets/chart/lv_chart.c:1073:49
	ubfx	r2, r1, #4, #1
	ldr	r1, [sp, #64]                   @ 4-byte Reload
	.loc	12 1073 79                      @ ../GUILib/src/extra/widgets/chart/lv_chart.c:1073:79
	ldr	r3, [sp, #52]                   @ 4-byte Reload
	.loc	12 1073 20                      @ ../GUILib/src/extra/widgets/chart/lv_chart.c:1073:20
	ldr	r7, [sp, #48]                   @ 4-byte Reload
	.loc	12 1073 27                      @ ../GUILib/src/extra/widgets/chart/lv_chart.c:1073:27
	ldrsh.w	r0, [r0, r6, lsl #1]
	.loc	12 1073 49                      @ ../GUILib/src/extra/widgets/chart/lv_chart.c:1073:49
	ldrsh.w	r1, [r1, r2, lsl #1]
	.loc	12 1073 79                      @ ../GUILib/src/extra/widgets/chart/lv_chart.c:1073:79
	ldrsh.w	r2, [r3, r2, lsl #1]
	.loc	12 1073 20                      @ ../GUILib/src/extra/widgets/chart/lv_chart.c:1073:20
	str	r7, [sp]
	movs	r3, #0
	ldr	r7, [sp, #40]                   @ 4-byte Reload
	bl	lv_map
.Ltmp405:
	.loc	12 1074 22 is_stmt 1            @ ../GUILib/src/extra/widgets/chart/lv_chart.c:1074:22
	ldr	r1, [sp, #76]                   @ 4-byte Reload
	subs	r0, r1, r0
	.loc	12 1075 18                      @ ../GUILib/src/extra/widgets/chart/lv_chart.c:1075:18
	ldr	r1, [sp, #72]                   @ 4-byte Reload
	add	r0, r1
.Ltmp406:
.LBB2_107:                              @   in Loop: Header=BB2_103 Depth=1
	@DEBUG_VALUE: p_act <- $r10
	@DEBUG_VALUE: p_prev <- $r10
	@DEBUG_VALUE: start_point <- $r10
	@DEBUG_VALUE: draw_series_scatter:h <- [DW_OP_plus_uconst 76, DW_OP_deref_size 4, DW_OP_LLVM_convert 32 7, DW_OP_LLVM_convert 16 7, DW_OP_stack_value] $sp
	@DEBUG_VALUE: draw_series_scatter:y_ofs <- [DW_OP_plus_uconst 72] [$sp+0]
	@DEBUG_VALUE: draw_series_scatter:point_h <- [DW_OP_plus_uconst 28] [$sp+0]
	@DEBUG_VALUE: draw_series_scatter:point_w <- [DW_OP_plus_uconst 32] [$sp+0]
	@DEBUG_VALUE: draw_series_scatter:pad_top <- [DW_OP_plus_uconst 72] [$sp+0]
	@DEBUG_VALUE: draw_series_scatter:pad_left <- [DW_OP_plus_uconst 80] [$sp+0]
	@DEBUG_VALUE: draw_series_scatter:chart <- [DW_OP_plus_uconst 88] [$sp+0]
	@DEBUG_VALUE: draw_series_scatter:obj <- [DW_OP_plus_uconst 88] [$sp+0]
	@DEBUG_VALUE: lv_chart_event:obj <- [DW_OP_plus_uconst 88] [$sp+0]
	@DEBUG_VALUE: lv_chart_event:chart <- [DW_OP_plus_uconst 88] [$sp+0]
	@DEBUG_VALUE: lv_chart_event:class_p <- [DW_OP_LLVM_entry_value 1] $r0
	.loc	12 1083 9                       @ ../GUILib/src/extra/widgets/chart/lv_chart.c:1083:9
	ldr	r1, [sp, #44]                   @ 4-byte Reload
.Ltmp407:
	@DEBUG_VALUE: draw_series_scatter:clip_area <- $r1
	.loc	12 0 0 is_stmt 0                @ ../GUILib/src/extra/widgets/chart/lv_chart.c:0:0
	strh.w	r0, [sp, #314]
.Ltmp408:
	.loc	12 1083 9                       @ ../GUILib/src/extra/widgets/chart/lv_chart.c:1083:9
	add	r0, sp, #108
	bl	lv_obj_draw_dsc_init
.Ltmp409:
	.loc	12 1084 28 is_stmt 1            @ ../GUILib/src/extra/widgets/chart/lv_chart.c:1084:28
	mov.w	r0, #327680
	str	r0, [sp, #160]
	.loc	12 1085 31                      @ ../GUILib/src/extra/widgets/chart/lv_chart.c:1085:31
	movw	r0, :lower16:lv_chart_class
	movt	r0, :upper16:lv_chart_class
	str	r0, [sp, #112]
	.loc	12 1086 28                      @ ../GUILib/src/extra/widgets/chart/lv_chart.c:1086:28
	movs	r0, #3
	str	r0, [sp, #116]
	.loc	12 1087 32                      @ ../GUILib/src/extra/widgets/chart/lv_chart.c:1087:32
	add	r0, sp, #180
	str	r0, [sp, #132]
.Ltmp410:
	.loc	12 1091 31                      @ ../GUILib/src/extra/widgets/chart/lv_chart.c:1091:31
	ldrh.w	r0, [r4, #130]
.Ltmp411:
	.loc	12 1088 32                      @ ../GUILib/src/extra/widgets/chart/lv_chart.c:1088:32
	add	r1, sp, #244
.Ltmp412:
	.loc	12 1091 9                       @ ../GUILib/src/extra/widgets/chart/lv_chart.c:1091:9
	cmp	r0, #0
	mov.w	r5, #0
.Ltmp413:
	.loc	12 1088 32                      @ ../GUILib/src/extra/widgets/chart/lv_chart.c:1088:32
	str	r1, [sp, #124]
	.loc	12 1089 36                      @ ../GUILib/src/extra/widgets/chart/lv_chart.c:1089:36
	str	r7, [sp, #176]
.Ltmp414:
	@DEBUG_VALUE: draw_series_scatter:i <- 0
	@DEBUG_VALUE: p_prev <- $r10
	@DEBUG_VALUE: p_act <- $r10
	.loc	12 1091 9                       @ ../GUILib/src/extra/widgets/chart/lv_chart.c:1091:9
	beq.w	.LBB2_118
.Ltmp415:
	.p2align	2
.LBB2_108:                              @   Parent Loop BB2_103 Depth=1
                                        @ =>  This Inner Loop Header: Depth=2
	@DEBUG_VALUE: draw_series_scatter:h <- [DW_OP_plus_uconst 76, DW_OP_deref_size 4, DW_OP_LLVM_convert 32 7, DW_OP_LLVM_convert 16 7, DW_OP_stack_value] $sp
	@DEBUG_VALUE: draw_series_scatter:y_ofs <- [DW_OP_plus_uconst 72] [$sp+0]
	@DEBUG_VALUE: draw_series_scatter:point_h <- [DW_OP_plus_uconst 28] [$sp+0]
	@DEBUG_VALUE: draw_series_scatter:point_w <- [DW_OP_plus_uconst 32] [$sp+0]
	@DEBUG_VALUE: draw_series_scatter:pad_top <- [DW_OP_plus_uconst 72] [$sp+0]
	@DEBUG_VALUE: draw_series_scatter:pad_left <- [DW_OP_plus_uconst 80] [$sp+0]
	@DEBUG_VALUE: draw_series_scatter:chart <- [DW_OP_plus_uconst 88] [$sp+0]
	@DEBUG_VALUE: draw_series_scatter:obj <- [DW_OP_plus_uconst 88] [$sp+0]
	@DEBUG_VALUE: lv_chart_event:obj <- [DW_OP_plus_uconst 88] [$sp+0]
	@DEBUG_VALUE: lv_chart_event:chart <- [DW_OP_plus_uconst 88] [$sp+0]
	@DEBUG_VALUE: lv_chart_event:class_p <- [DW_OP_LLVM_entry_value 1] $r0
	@DEBUG_VALUE: p_prev <- $r10
	@DEBUG_VALUE: draw_series_scatter:i <- $r5
	.loc	12 1095 41                      @ ../GUILib/src/extra/widgets/chart/lv_chart.c:1095:41
	adds	r2, r6, r5
	.loc	12 1095 39 is_stmt 0            @ ../GUILib/src/extra/widgets/chart/lv_chart.c:1095:39
	sdiv	r3, r2, r0
	.loc	12 1092 23 is_stmt 1            @ ../GUILib/src/extra/widgets/chart/lv_chart.c:1092:23
	ldr	r1, [sp, #312]
	.loc	12 1095 39                      @ ../GUILib/src/extra/widgets/chart/lv_chart.c:1095:39
	mls	r9, r3, r0, r2
.Ltmp416:
	@DEBUG_VALUE: p_act <- [DW_OP_LLVM_convert 32 7, DW_OP_LLVM_convert 16 7, DW_OP_stack_value] $r9
	.loc	12 1092 18                      @ ../GUILib/src/extra/widgets/chart/lv_chart.c:1092:18
	str	r1, [sp, #92]
.Ltmp417:
	.loc	12 1096 21                      @ ../GUILib/src/extra/widgets/chart/lv_chart.c:1096:21
	ldr	r0, [r7, #4]
	.loc	12 1096 16 is_stmt 0            @ ../GUILib/src/extra/widgets/chart/lv_chart.c:1096:16
	lsl.w	r1, r9, #16
	asrs	r1, r1, #15
	ldrsh	r0, [r0, r1]
.Ltmp418:
	.loc	12 1096 16                      @ ../GUILib/src/extra/widgets/chart/lv_chart.c:1096:16
	movw	r1, #32767
	cmp	r0, r1
.Ltmp419:
	.loc	12 1096 16                      @ ../GUILib/src/extra/widgets/chart/lv_chart.c:1096:16
	sxth.w	r8, r9
.Ltmp420:
	.loc	12 1096 16                      @ ../GUILib/src/extra/widgets/chart/lv_chart.c:1096:16
	beq	.LBB2_115
.Ltmp421:
@ %bb.109:                              @   in Loop: Header=BB2_108 Depth=2
	@DEBUG_VALUE: p_prev <- $r10
	@DEBUG_VALUE: p_act <- [DW_OP_LLVM_convert 32 7, DW_OP_LLVM_convert 16 7, DW_OP_stack_value] $r9
	@DEBUG_VALUE: draw_series_scatter:i <- $r5
	@DEBUG_VALUE: draw_series_scatter:h <- [DW_OP_plus_uconst 76, DW_OP_deref_size 4, DW_OP_LLVM_convert 32 7, DW_OP_LLVM_convert 16 7, DW_OP_stack_value] $sp
	@DEBUG_VALUE: draw_series_scatter:y_ofs <- [DW_OP_plus_uconst 72] [$sp+0]
	@DEBUG_VALUE: draw_series_scatter:point_h <- [DW_OP_plus_uconst 28] [$sp+0]
	@DEBUG_VALUE: draw_series_scatter:point_w <- [DW_OP_plus_uconst 32] [$sp+0]
	@DEBUG_VALUE: draw_series_scatter:pad_top <- [DW_OP_plus_uconst 72] [$sp+0]
	@DEBUG_VALUE: draw_series_scatter:pad_left <- [DW_OP_plus_uconst 80] [$sp+0]
	@DEBUG_VALUE: draw_series_scatter:chart <- [DW_OP_plus_uconst 88] [$sp+0]
	@DEBUG_VALUE: draw_series_scatter:obj <- [DW_OP_plus_uconst 88] [$sp+0]
	@DEBUG_VALUE: lv_chart_event:obj <- [DW_OP_plus_uconst 88] [$sp+0]
	@DEBUG_VALUE: lv_chart_event:chart <- [DW_OP_plus_uconst 88] [$sp+0]
	@DEBUG_VALUE: lv_chart_event:class_p <- [DW_OP_LLVM_entry_value 1] $r0
	.loc	12 1097 70 is_stmt 1            @ ../GUILib/src/extra/widgets/chart/lv_chart.c:1097:70
	ldrb	r1, [r7, #12]
	.loc	12 1097 83 is_stmt 0            @ ../GUILib/src/extra/widgets/chart/lv_chart.c:1097:83
	ldr	r3, [sp, #52]                   @ 4-byte Reload
	.loc	12 1097 53                      @ ../GUILib/src/extra/widgets/chart/lv_chart.c:1097:53
	ubfx	r2, r1, #4, #1
	ldr	r1, [sp, #64]                   @ 4-byte Reload
	mov	r11, r6
	ldrsh.w	r1, [r1, r2, lsl #1]
	.loc	12 1097 83                      @ ../GUILib/src/extra/widgets/chart/lv_chart.c:1097:83
	ldrsh.w	r2, [r3, r2, lsl #1]
	.loc	12 1097 24                      @ ../GUILib/src/extra/widgets/chart/lv_chart.c:1097:24
	ldr	r6, [sp, #48]                   @ 4-byte Reload
	movs	r3, #0
	str	r6, [sp]
	bl	lv_map
.Ltmp422:
	.loc	12 1098 26 is_stmt 1            @ ../GUILib/src/extra/widgets/chart/lv_chart.c:1098:26
	ldr	r1, [sp, #76]                   @ 4-byte Reload
	.loc	12 1101 53                      @ ../GUILib/src/extra/widgets/chart/lv_chart.c:1101:53
	movs	r2, #2
	.loc	12 1098 26                      @ ../GUILib/src/extra/widgets/chart/lv_chart.c:1098:26
	subs	r0, r1, r0
	.loc	12 1099 22                      @ ../GUILib/src/extra/widgets/chart/lv_chart.c:1099:22
	ldr	r1, [sp, #72]                   @ 4-byte Reload
	.loc	12 1101 83                      @ ../GUILib/src/extra/widgets/chart/lv_chart.c:1101:83
	ldr	r3, [sp, #60]                   @ 4-byte Reload
	.loc	12 1099 22                      @ ../GUILib/src/extra/widgets/chart/lv_chart.c:1099:22
	add	r0, r1
	.loc	12 1101 70                      @ ../GUILib/src/extra/widgets/chart/lv_chart.c:1101:70
	ldrb	r1, [r7, #12]
	.loc	12 1099 22                      @ ../GUILib/src/extra/widgets/chart/lv_chart.c:1099:22
	strh.w	r0, [sp, #314]
	.loc	12 1101 36                      @ ../GUILib/src/extra/widgets/chart/lv_chart.c:1101:36
	ldr	r0, [r7]
	.loc	12 1101 53 is_stmt 0            @ ../GUILib/src/extra/widgets/chart/lv_chart.c:1101:53
	and.w	r2, r2, r1, lsr #2
	ldr	r1, [sp, #68]                   @ 4-byte Reload
	.loc	12 1101 31                      @ ../GUILib/src/extra/widgets/chart/lv_chart.c:1101:31
	ldrsh.w	r0, [r0, r8, lsl #1]
	.loc	12 1101 53                      @ ../GUILib/src/extra/widgets/chart/lv_chart.c:1101:53
	ldrsh	r1, [r1, r2]
	.loc	12 1101 83                      @ ../GUILib/src/extra/widgets/chart/lv_chart.c:1101:83
	ldrsh	r2, [r3, r2]
	.loc	12 1101 24                      @ ../GUILib/src/extra/widgets/chart/lv_chart.c:1101:24
	ldr	r6, [sp, #56]                   @ 4-byte Reload
	movs	r3, #0
	str	r6, [sp]
	mov	r6, r11
	bl	lv_map
.Ltmp423:
	.loc	12 1102 22 is_stmt 1            @ ../GUILib/src/extra/widgets/chart/lv_chart.c:1102:22
	ldr	r1, [sp, #80]                   @ 4-byte Reload
.Ltmp424:
	.loc	12 1110 16                      @ ../GUILib/src/extra/widgets/chart/lv_chart.c:1110:16
	cmp	r5, #0
.Ltmp425:
	.loc	12 1102 22                      @ ../GUILib/src/extra/widgets/chart/lv_chart.c:1102:22
	add	r0, r1
	strh.w	r0, [sp, #312]
.Ltmp426:
	.loc	12 1110 16                      @ ../GUILib/src/extra/widgets/chart/lv_chart.c:1110:16
	beq	.LBB2_115
.Ltmp427:
@ %bb.110:                              @   in Loop: Header=BB2_108 Depth=2
	@DEBUG_VALUE: p_prev <- $r10
	@DEBUG_VALUE: p_act <- [DW_OP_LLVM_convert 32 7, DW_OP_LLVM_convert 16 7, DW_OP_stack_value] $r9
	@DEBUG_VALUE: draw_series_scatter:i <- $r5
	@DEBUG_VALUE: draw_series_scatter:h <- [DW_OP_plus_uconst 76, DW_OP_deref_size 4, DW_OP_LLVM_convert 32 7, DW_OP_LLVM_convert 16 7, DW_OP_stack_value] $sp
	@DEBUG_VALUE: draw_series_scatter:y_ofs <- [DW_OP_plus_uconst 72] [$sp+0]
	@DEBUG_VALUE: draw_series_scatter:point_h <- [DW_OP_plus_uconst 28] [$sp+0]
	@DEBUG_VALUE: draw_series_scatter:point_w <- [DW_OP_plus_uconst 32] [$sp+0]
	@DEBUG_VALUE: draw_series_scatter:pad_top <- [DW_OP_plus_uconst 72] [$sp+0]
	@DEBUG_VALUE: draw_series_scatter:pad_left <- [DW_OP_plus_uconst 80] [$sp+0]
	@DEBUG_VALUE: draw_series_scatter:chart <- [DW_OP_plus_uconst 88] [$sp+0]
	@DEBUG_VALUE: draw_series_scatter:obj <- [DW_OP_plus_uconst 88] [$sp+0]
	@DEBUG_VALUE: lv_chart_event:obj <- [DW_OP_plus_uconst 88] [$sp+0]
	@DEBUG_VALUE: lv_chart_event:chart <- [DW_OP_plus_uconst 88] [$sp+0]
	@DEBUG_VALUE: lv_chart_event:class_p <- [DW_OP_LLVM_entry_value 1] $r0
	.loc	12 1112 36                      @ ../GUILib/src/extra/widgets/chart/lv_chart.c:1112:36
	ldrh.w	r0, [sp, #92]
	ldr	r2, [sp, #32]                   @ 4-byte Reload
	.loc	12 1118 36                      @ ../GUILib/src/extra/widgets/chart/lv_chart.c:1118:36
	add	r6, sp, #92
	.loc	12 1112 38                      @ ../GUILib/src/extra/widgets/chart/lv_chart.c:1112:38
	subs	r1, r0, r2
	.loc	12 1112 31 is_stmt 0            @ ../GUILib/src/extra/widgets/chart/lv_chart.c:1112:31
	strh.w	r1, [sp, #100]
	.loc	12 1113 38 is_stmt 1            @ ../GUILib/src/extra/widgets/chart/lv_chart.c:1113:38
	add	r0, r2
	.loc	12 1114 36                      @ ../GUILib/src/extra/widgets/chart/lv_chart.c:1114:36
	ldrh.w	r1, [sp, #94]
	ldr	r2, [sp, #28]                   @ 4-byte Reload
	.loc	12 1113 31                      @ ../GUILib/src/extra/widgets/chart/lv_chart.c:1113:31
	strh.w	r0, [sp, #104]
	.loc	12 1114 38                      @ ../GUILib/src/extra/widgets/chart/lv_chart.c:1114:38
	subs	r0, r1, r2
	.loc	12 1114 31 is_stmt 0            @ ../GUILib/src/extra/widgets/chart/lv_chart.c:1114:31
	strh.w	r0, [sp, #102]
	.loc	12 1115 38 is_stmt 1            @ ../GUILib/src/extra/widgets/chart/lv_chart.c:1115:38
	adds	r0, r1, r2
	.loc	12 1115 31 is_stmt 0            @ ../GUILib/src/extra/widgets/chart/lv_chart.c:1115:31
	strh.w	r0, [sp, #106]
	.loc	12 1117 34 is_stmt 1            @ ../GUILib/src/extra/widgets/chart/lv_chart.c:1117:34
	subs	r0, r5, #1
	str	r0, [sp, #164]
	.loc	12 1118 41                      @ ../GUILib/src/extra/widgets/chart/lv_chart.c:1118:41
	ldr	r3, [r7, #4]
	mov	r0, r4
	.loc	12 1118 36 is_stmt 0            @ ../GUILib/src/extra/widgets/chart/lv_chart.c:1118:36
	sxth.w	r4, r10
	ldrsh.w	r1, [r3, r4, lsl #1]
	movw	r10, #32767
.Ltmp428:
	subs.w	r2, r1, r10
	it	ne
	movne	r2, r6
	.loc	12 1118 34                      @ ../GUILib/src/extra/widgets/chart/lv_chart.c:1118:34
	str	r2, [sp, #144]
	.loc	12 1119 36 is_stmt 1            @ ../GUILib/src/extra/widgets/chart/lv_chart.c:1119:36
	ldrh.w	r2, [r3, r8, lsl #1]
	add	r3, sp, #312
	subs.w	r2, r2, r10
	it	ne
	movne	r2, r3
	.loc	12 1119 34 is_stmt 0            @ ../GUILib/src/extra/widgets/chart/lv_chart.c:1119:34
	str	r2, [sp, #148]
	.loc	12 1120 41 is_stmt 1            @ ../GUILib/src/extra/widgets/chart/lv_chart.c:1120:41
	add	r2, sp, #100
	str	r2, [sp, #120]
	.loc	12 1121 37                      @ ../GUILib/src/extra/widgets/chart/lv_chart.c:1121:37
	str	r1, [sp, #172]
	.loc	12 1123 17                      @ ../GUILib/src/extra/widgets/chart/lv_chart.c:1123:17
	movs	r1, #26
	add	r2, sp, #108
	bl	lv_event_send
.Ltmp429:
	.loc	12 1125 25                      @ ../GUILib/src/extra/widgets/chart/lv_chart.c:1125:25
	ldr	r0, [r7, #4]
	.loc	12 1125 20 is_stmt 0            @ ../GUILib/src/extra/widgets/chart/lv_chart.c:1125:20
	ldrh.w	r1, [r0, r4, lsl #1]
	.loc	12 1125 65                      @ ../GUILib/src/extra/widgets/chart/lv_chart.c:1125:65
	cmp	r1, r10
	beq	.LBB2_114
.Ltmp430:
@ %bb.111:                              @   in Loop: Header=BB2_108 Depth=2
	@DEBUG_VALUE: p_act <- [DW_OP_LLVM_convert 32 7, DW_OP_LLVM_convert 16 7, DW_OP_stack_value] $r9
	@DEBUG_VALUE: draw_series_scatter:i <- $r5
	@DEBUG_VALUE: draw_series_scatter:h <- [DW_OP_plus_uconst 76, DW_OP_deref_size 4, DW_OP_LLVM_convert 32 7, DW_OP_LLVM_convert 16 7, DW_OP_stack_value] $sp
	@DEBUG_VALUE: draw_series_scatter:y_ofs <- [DW_OP_plus_uconst 72] [$sp+0]
	@DEBUG_VALUE: draw_series_scatter:point_h <- [DW_OP_plus_uconst 28] [$sp+0]
	@DEBUG_VALUE: draw_series_scatter:point_w <- [DW_OP_plus_uconst 32] [$sp+0]
	@DEBUG_VALUE: draw_series_scatter:pad_top <- [DW_OP_plus_uconst 72] [$sp+0]
	@DEBUG_VALUE: draw_series_scatter:pad_left <- [DW_OP_plus_uconst 80] [$sp+0]
	@DEBUG_VALUE: draw_series_scatter:chart <- [DW_OP_plus_uconst 88] [$sp+0]
	@DEBUG_VALUE: draw_series_scatter:obj <- [DW_OP_plus_uconst 88] [$sp+0]
	@DEBUG_VALUE: lv_chart_event:obj <- [DW_OP_plus_uconst 88] [$sp+0]
	@DEBUG_VALUE: lv_chart_event:chart <- [DW_OP_plus_uconst 88] [$sp+0]
	@DEBUG_VALUE: lv_chart_event:class_p <- [DW_OP_LLVM_entry_value 1] $r0
	.loc	12 1125 68                      @ ../GUILib/src/extra/widgets/chart/lv_chart.c:1125:68
	ldrh.w	r0, [r0, r8, lsl #1]
.Ltmp431:
	.loc	12 1125 20                      @ ../GUILib/src/extra/widgets/chart/lv_chart.c:1125:20
	movw	r1, #32767
	cmp	r0, r1
	beq	.LBB2_114
.Ltmp432:
@ %bb.112:                              @   in Loop: Header=BB2_108 Depth=2
	@DEBUG_VALUE: p_act <- [DW_OP_LLVM_convert 32 7, DW_OP_LLVM_convert 16 7, DW_OP_stack_value] $r9
	@DEBUG_VALUE: draw_series_scatter:i <- $r5
	@DEBUG_VALUE: draw_series_scatter:h <- [DW_OP_plus_uconst 76, DW_OP_deref_size 4, DW_OP_LLVM_convert 32 7, DW_OP_LLVM_convert 16 7, DW_OP_stack_value] $sp
	@DEBUG_VALUE: draw_series_scatter:y_ofs <- [DW_OP_plus_uconst 72] [$sp+0]
	@DEBUG_VALUE: draw_series_scatter:point_h <- [DW_OP_plus_uconst 28] [$sp+0]
	@DEBUG_VALUE: draw_series_scatter:point_w <- [DW_OP_plus_uconst 32] [$sp+0]
	@DEBUG_VALUE: draw_series_scatter:pad_top <- [DW_OP_plus_uconst 72] [$sp+0]
	@DEBUG_VALUE: draw_series_scatter:pad_left <- [DW_OP_plus_uconst 80] [$sp+0]
	@DEBUG_VALUE: draw_series_scatter:chart <- [DW_OP_plus_uconst 88] [$sp+0]
	@DEBUG_VALUE: draw_series_scatter:obj <- [DW_OP_plus_uconst 88] [$sp+0]
	@DEBUG_VALUE: lv_chart_event:obj <- [DW_OP_plus_uconst 88] [$sp+0]
	@DEBUG_VALUE: lv_chart_event:chart <- [DW_OP_plus_uconst 88] [$sp+0]
	@DEBUG_VALUE: lv_chart_event:class_p <- [DW_OP_LLVM_entry_value 1] $r0
	.loc	12 1126 21 is_stmt 1            @ ../GUILib/src/extra/widgets/chart/lv_chart.c:1126:21
	add	r0, sp, #92
	add	r1, sp, #312
	add	r2, sp, #232
	add	r3, sp, #180
	bl	lv_draw_line
.Ltmp433:
	.loc	12 1127 32                      @ ../GUILib/src/extra/widgets/chart/lv_chart.c:1127:32
	ldr	r0, [sp, #24]                   @ 4-byte Reload
	cbnz	r0, .LBB2_114
.Ltmp434:
@ %bb.113:                              @   in Loop: Header=BB2_108 Depth=2
	@DEBUG_VALUE: p_act <- [DW_OP_LLVM_convert 32 7, DW_OP_LLVM_convert 16 7, DW_OP_stack_value] $r9
	@DEBUG_VALUE: draw_series_scatter:i <- $r5
	@DEBUG_VALUE: draw_series_scatter:h <- [DW_OP_plus_uconst 76, DW_OP_deref_size 4, DW_OP_LLVM_convert 32 7, DW_OP_LLVM_convert 16 7, DW_OP_stack_value] $sp
	@DEBUG_VALUE: draw_series_scatter:y_ofs <- [DW_OP_plus_uconst 72] [$sp+0]
	@DEBUG_VALUE: draw_series_scatter:point_h <- [DW_OP_plus_uconst 28] [$sp+0]
	@DEBUG_VALUE: draw_series_scatter:point_w <- [DW_OP_plus_uconst 32] [$sp+0]
	@DEBUG_VALUE: draw_series_scatter:pad_top <- [DW_OP_plus_uconst 72] [$sp+0]
	@DEBUG_VALUE: draw_series_scatter:pad_left <- [DW_OP_plus_uconst 80] [$sp+0]
	@DEBUG_VALUE: draw_series_scatter:chart <- [DW_OP_plus_uconst 88] [$sp+0]
	@DEBUG_VALUE: draw_series_scatter:obj <- [DW_OP_plus_uconst 88] [$sp+0]
	@DEBUG_VALUE: lv_chart_event:obj <- [DW_OP_plus_uconst 88] [$sp+0]
	@DEBUG_VALUE: lv_chart_event:chart <- [DW_OP_plus_uconst 88] [$sp+0]
	@DEBUG_VALUE: lv_chart_event:class_p <- [DW_OP_LLVM_entry_value 1] $r0
	.loc	12 1128 25                      @ ../GUILib/src/extra/widgets/chart/lv_chart.c:1128:25
	add	r0, sp, #100
	add	r1, sp, #232
	add	r2, sp, #244
	bl	lv_draw_rect
.Ltmp435:
.LBB2_114:                              @   in Loop: Header=BB2_108 Depth=2
	@DEBUG_VALUE: p_act <- [DW_OP_LLVM_convert 32 7, DW_OP_LLVM_convert 16 7, DW_OP_stack_value] $r9
	@DEBUG_VALUE: draw_series_scatter:i <- $r5
	@DEBUG_VALUE: draw_series_scatter:h <- [DW_OP_plus_uconst 76, DW_OP_deref_size 4, DW_OP_LLVM_convert 32 7, DW_OP_LLVM_convert 16 7, DW_OP_stack_value] $sp
	@DEBUG_VALUE: draw_series_scatter:y_ofs <- [DW_OP_plus_uconst 72] [$sp+0]
	@DEBUG_VALUE: draw_series_scatter:point_h <- [DW_OP_plus_uconst 28] [$sp+0]
	@DEBUG_VALUE: draw_series_scatter:point_w <- [DW_OP_plus_uconst 32] [$sp+0]
	@DEBUG_VALUE: draw_series_scatter:pad_top <- [DW_OP_plus_uconst 72] [$sp+0]
	@DEBUG_VALUE: draw_series_scatter:pad_left <- [DW_OP_plus_uconst 80] [$sp+0]
	@DEBUG_VALUE: draw_series_scatter:chart <- [DW_OP_plus_uconst 88] [$sp+0]
	@DEBUG_VALUE: draw_series_scatter:obj <- [DW_OP_plus_uconst 88] [$sp+0]
	@DEBUG_VALUE: lv_chart_event:obj <- [DW_OP_plus_uconst 88] [$sp+0]
	@DEBUG_VALUE: lv_chart_event:chart <- [DW_OP_plus_uconst 88] [$sp+0]
	@DEBUG_VALUE: lv_chart_event:class_p <- [DW_OP_LLVM_entry_value 1] $r0
	.loc	12 0 25 is_stmt 0               @ ../GUILib/src/extra/widgets/chart/lv_chart.c:0:25
	ldr	r4, [sp, #88]                   @ 4-byte Reload
	.loc	12 1132 17 is_stmt 1            @ ../GUILib/src/extra/widgets/chart/lv_chart.c:1132:17
	movs	r1, #27
	mov	r0, r4
	add	r2, sp, #108
	bl	lv_event_send
.Ltmp436:
	.loc	12 0 17 is_stmt 0               @ ../GUILib/src/extra/widgets/chart/lv_chart.c:0:17
	ldr	r7, [sp, #40]                   @ 4-byte Reload
	mov	r6, r11
.Ltmp437:
.LBB2_115:                              @   in Loop: Header=BB2_108 Depth=2
	@DEBUG_VALUE: p_act <- [DW_OP_LLVM_convert 32 7, DW_OP_LLVM_convert 16 7, DW_OP_stack_value] $r9
	@DEBUG_VALUE: draw_series_scatter:i <- $r5
	@DEBUG_VALUE: draw_series_scatter:h <- [DW_OP_plus_uconst 76, DW_OP_deref_size 4, DW_OP_LLVM_convert 32 7, DW_OP_LLVM_convert 16 7, DW_OP_stack_value] $sp
	@DEBUG_VALUE: draw_series_scatter:y_ofs <- [DW_OP_plus_uconst 72] [$sp+0]
	@DEBUG_VALUE: draw_series_scatter:point_h <- [DW_OP_plus_uconst 28] [$sp+0]
	@DEBUG_VALUE: draw_series_scatter:point_w <- [DW_OP_plus_uconst 32] [$sp+0]
	@DEBUG_VALUE: draw_series_scatter:pad_top <- [DW_OP_plus_uconst 72] [$sp+0]
	@DEBUG_VALUE: draw_series_scatter:pad_left <- [DW_OP_plus_uconst 80] [$sp+0]
	@DEBUG_VALUE: draw_series_scatter:chart <- [DW_OP_plus_uconst 88] [$sp+0]
	@DEBUG_VALUE: draw_series_scatter:obj <- [DW_OP_plus_uconst 88] [$sp+0]
	@DEBUG_VALUE: lv_chart_event:obj <- [DW_OP_plus_uconst 88] [$sp+0]
	@DEBUG_VALUE: lv_chart_event:chart <- [DW_OP_plus_uconst 88] [$sp+0]
	@DEBUG_VALUE: lv_chart_event:class_p <- [DW_OP_LLVM_entry_value 1] $r0
	@DEBUG_VALUE: p_prev <- [DW_OP_LLVM_convert 32 7, DW_OP_LLVM_convert 16 7, DW_OP_stack_value] undef
	.loc	12 1091 31 is_stmt 1            @ ../GUILib/src/extra/widgets/chart/lv_chart.c:1091:31
	ldrh.w	r0, [r4, #130]
	.loc	12 1091 43 is_stmt 0            @ ../GUILib/src/extra/widgets/chart/lv_chart.c:1091:43
	adds	r5, #1
.Ltmp438:
	@DEBUG_VALUE: draw_series_scatter:i <- $r5
	@DEBUG_VALUE: p_act <- [DW_OP_LLVM_convert 32 7, DW_OP_LLVM_convert 16 7, DW_OP_stack_value] undef
	.loc	12 1091 9                       @ ../GUILib/src/extra/widgets/chart/lv_chart.c:1091:9
	cmp	r5, r0
	mov	r10, r9
	blo.w	.LBB2_108
.Ltmp439:
@ %bb.116:                              @   in Loop: Header=BB2_103 Depth=1
	@DEBUG_VALUE: draw_series_scatter:i <- $r5
	@DEBUG_VALUE: draw_series_scatter:h <- [DW_OP_plus_uconst 76, DW_OP_deref_size 4, DW_OP_LLVM_convert 32 7, DW_OP_LLVM_convert 16 7, DW_OP_stack_value] $sp
	@DEBUG_VALUE: draw_series_scatter:y_ofs <- [DW_OP_plus_uconst 72] [$sp+0]
	@DEBUG_VALUE: draw_series_scatter:point_h <- [DW_OP_plus_uconst 28] [$sp+0]
	@DEBUG_VALUE: draw_series_scatter:point_w <- [DW_OP_plus_uconst 32] [$sp+0]
	@DEBUG_VALUE: draw_series_scatter:pad_top <- [DW_OP_plus_uconst 72] [$sp+0]
	@DEBUG_VALUE: draw_series_scatter:pad_left <- [DW_OP_plus_uconst 80] [$sp+0]
	@DEBUG_VALUE: draw_series_scatter:chart <- [DW_OP_plus_uconst 88] [$sp+0]
	@DEBUG_VALUE: draw_series_scatter:obj <- [DW_OP_plus_uconst 88] [$sp+0]
	@DEBUG_VALUE: lv_chart_event:obj <- [DW_OP_plus_uconst 88] [$sp+0]
	@DEBUG_VALUE: lv_chart_event:chart <- [DW_OP_plus_uconst 88] [$sp+0]
	@DEBUG_VALUE: lv_chart_event:class_p <- [DW_OP_LLVM_entry_value 1] $r0
	.loc	12 1095 21 is_stmt 1            @ ../GUILib/src/extra/widgets/chart/lv_chart.c:1095:21
	uxth	r1, r5
.Ltmp440:
	.loc	12 1138 12                      @ ../GUILib/src/extra/widgets/chart/lv_chart.c:1138:12
	cmp	r0, r1
	bne	.LBB2_120
.Ltmp441:
@ %bb.117:                              @   in Loop: Header=BB2_103 Depth=1
	@DEBUG_VALUE: draw_series_scatter:i <- $r5
	@DEBUG_VALUE: draw_series_scatter:h <- [DW_OP_plus_uconst 76, DW_OP_deref_size 4, DW_OP_LLVM_convert 32 7, DW_OP_LLVM_convert 16 7, DW_OP_stack_value] $sp
	@DEBUG_VALUE: draw_series_scatter:y_ofs <- [DW_OP_plus_uconst 72] [$sp+0]
	@DEBUG_VALUE: draw_series_scatter:point_h <- [DW_OP_plus_uconst 28] [$sp+0]
	@DEBUG_VALUE: draw_series_scatter:point_w <- [DW_OP_plus_uconst 32] [$sp+0]
	@DEBUG_VALUE: draw_series_scatter:pad_top <- [DW_OP_plus_uconst 72] [$sp+0]
	@DEBUG_VALUE: draw_series_scatter:pad_left <- [DW_OP_plus_uconst 80] [$sp+0]
	@DEBUG_VALUE: draw_series_scatter:chart <- [DW_OP_plus_uconst 88] [$sp+0]
	@DEBUG_VALUE: draw_series_scatter:obj <- [DW_OP_plus_uconst 88] [$sp+0]
	@DEBUG_VALUE: lv_chart_event:obj <- [DW_OP_plus_uconst 88] [$sp+0]
	@DEBUG_VALUE: lv_chart_event:chart <- [DW_OP_plus_uconst 88] [$sp+0]
	@DEBUG_VALUE: lv_chart_event:class_p <- [DW_OP_LLVM_entry_value 1] $r0
	.loc	12 1140 16                      @ ../GUILib/src/extra/widgets/chart/lv_chart.c:1140:16
	mov	r6, r8
.Ltmp442:
.LBB2_118:                              @   in Loop: Header=BB2_103 Depth=1
	@DEBUG_VALUE: draw_series_scatter:h <- [DW_OP_plus_uconst 76, DW_OP_deref_size 4, DW_OP_LLVM_convert 32 7, DW_OP_LLVM_convert 16 7, DW_OP_stack_value] $sp
	@DEBUG_VALUE: draw_series_scatter:y_ofs <- [DW_OP_plus_uconst 72] [$sp+0]
	@DEBUG_VALUE: draw_series_scatter:point_h <- [DW_OP_plus_uconst 28] [$sp+0]
	@DEBUG_VALUE: draw_series_scatter:point_w <- [DW_OP_plus_uconst 32] [$sp+0]
	@DEBUG_VALUE: draw_series_scatter:pad_top <- [DW_OP_plus_uconst 72] [$sp+0]
	@DEBUG_VALUE: draw_series_scatter:pad_left <- [DW_OP_plus_uconst 80] [$sp+0]
	@DEBUG_VALUE: draw_series_scatter:chart <- [DW_OP_plus_uconst 88] [$sp+0]
	@DEBUG_VALUE: draw_series_scatter:obj <- [DW_OP_plus_uconst 88] [$sp+0]
	@DEBUG_VALUE: lv_chart_event:obj <- [DW_OP_plus_uconst 88] [$sp+0]
	@DEBUG_VALUE: lv_chart_event:chart <- [DW_OP_plus_uconst 88] [$sp+0]
	@DEBUG_VALUE: lv_chart_event:class_p <- [DW_OP_LLVM_entry_value 1] $r0
	.loc	12 1140 21 is_stmt 0            @ ../GUILib/src/extra/widgets/chart/lv_chart.c:1140:21
	ldr	r0, [r7, #4]
.Ltmp443:
	.loc	12 1140 16                      @ ../GUILib/src/extra/widgets/chart/lv_chart.c:1140:16
	movw	r2, #32767
.Ltmp444:
	.loc	12 1140 16                      @ ../GUILib/src/extra/widgets/chart/lv_chart.c:1140:16
	ldrh.w	r1, [r0, r6, lsl #1]
.Ltmp445:
	.loc	12 1140 16                      @ ../GUILib/src/extra/widgets/chart/lv_chart.c:1140:16
	cmp	r1, r2
	beq	.LBB2_120
.Ltmp446:
@ %bb.119:                              @   in Loop: Header=BB2_103 Depth=1
	@DEBUG_VALUE: draw_series_scatter:h <- [DW_OP_plus_uconst 76, DW_OP_deref_size 4, DW_OP_LLVM_convert 32 7, DW_OP_LLVM_convert 16 7, DW_OP_stack_value] $sp
	@DEBUG_VALUE: draw_series_scatter:y_ofs <- [DW_OP_plus_uconst 72] [$sp+0]
	@DEBUG_VALUE: draw_series_scatter:point_h <- [DW_OP_plus_uconst 28] [$sp+0]
	@DEBUG_VALUE: draw_series_scatter:point_w <- [DW_OP_plus_uconst 32] [$sp+0]
	@DEBUG_VALUE: draw_series_scatter:pad_top <- [DW_OP_plus_uconst 72] [$sp+0]
	@DEBUG_VALUE: draw_series_scatter:pad_left <- [DW_OP_plus_uconst 80] [$sp+0]
	@DEBUG_VALUE: draw_series_scatter:chart <- [DW_OP_plus_uconst 88] [$sp+0]
	@DEBUG_VALUE: draw_series_scatter:obj <- [DW_OP_plus_uconst 88] [$sp+0]
	@DEBUG_VALUE: lv_chart_event:obj <- [DW_OP_plus_uconst 88] [$sp+0]
	@DEBUG_VALUE: lv_chart_event:chart <- [DW_OP_plus_uconst 88] [$sp+0]
	@DEBUG_VALUE: lv_chart_event:class_p <- [DW_OP_LLVM_entry_value 1] $r0
	.loc	12 1142 36 is_stmt 1            @ ../GUILib/src/extra/widgets/chart/lv_chart.c:1142:36
	ldrh.w	r1, [sp, #312]
	ldr	r3, [sp, #32]                   @ 4-byte Reload
	add	r7, sp, #100
	.loc	12 1142 38 is_stmt 0            @ ../GUILib/src/extra/widgets/chart/lv_chart.c:1142:38
	subs	r2, r1, r3
	.loc	12 1142 31                      @ ../GUILib/src/extra/widgets/chart/lv_chart.c:1142:31
	strh.w	r2, [sp, #100]
	.loc	12 1143 38 is_stmt 1            @ ../GUILib/src/extra/widgets/chart/lv_chart.c:1143:38
	add	r1, r3
	.loc	12 1144 36                      @ ../GUILib/src/extra/widgets/chart/lv_chart.c:1144:36
	ldrh.w	r2, [sp, #314]
	ldr	r3, [sp, #28]                   @ 4-byte Reload
	.loc	12 1143 31                      @ ../GUILib/src/extra/widgets/chart/lv_chart.c:1143:31
	strh.w	r1, [sp, #104]
	.loc	12 1144 38                      @ ../GUILib/src/extra/widgets/chart/lv_chart.c:1144:38
	subs	r1, r2, r3
	.loc	12 1144 31 is_stmt 0            @ ../GUILib/src/extra/widgets/chart/lv_chart.c:1144:31
	strh.w	r1, [sp, #102]
	.loc	12 1145 38 is_stmt 1            @ ../GUILib/src/extra/widgets/chart/lv_chart.c:1145:38
	adds	r1, r2, r3
	.loc	12 1145 31 is_stmt 0            @ ../GUILib/src/extra/widgets/chart/lv_chart.c:1145:31
	strh.w	r1, [sp, #106]
	.loc	12 1147 38 is_stmt 1            @ ../GUILib/src/extra/widgets/chart/lv_chart.c:1147:38
	subs	r1, r5, #1
	.loc	12 1147 34 is_stmt 0            @ ../GUILib/src/extra/widgets/chart/lv_chart.c:1147:34
	str	r1, [sp, #164]
	movs	r1, #0
	.loc	12 1148 34 is_stmt 1            @ ../GUILib/src/extra/widgets/chart/lv_chart.c:1148:34
	strd	r1, r1, [sp, #144]
	.loc	12 1150 41                      @ ../GUILib/src/extra/widgets/chart/lv_chart.c:1150:41
	str	r7, [sp, #120]
	.loc	12 1151 39                      @ ../GUILib/src/extra/widgets/chart/lv_chart.c:1151:39
	ldrsh.w	r0, [r0, r6, lsl #1]
	add	r5, sp, #108
	.loc	12 1151 37 is_stmt 0            @ ../GUILib/src/extra/widgets/chart/lv_chart.c:1151:37
	str	r0, [sp, #172]
	.loc	12 1152 17 is_stmt 1            @ ../GUILib/src/extra/widgets/chart/lv_chart.c:1152:17
	mov	r0, r4
	movs	r1, #26
	mov	r2, r5
	bl	lv_event_send
.Ltmp447:
	.loc	12 1153 17                      @ ../GUILib/src/extra/widgets/chart/lv_chart.c:1153:17
	mov	r0, r7
	ldr	r7, [sp, #40]                   @ 4-byte Reload
	add	r1, sp, #232
	add	r2, sp, #244
	bl	lv_draw_rect
.Ltmp448:
	.loc	12 1154 17                      @ ../GUILib/src/extra/widgets/chart/lv_chart.c:1154:17
	mov	r0, r4
	movs	r1, #27
	mov	r2, r5
	bl	lv_event_send
.Ltmp449:
.LBB2_120:                              @   in Loop: Header=BB2_103 Depth=1
	@DEBUG_VALUE: draw_series_scatter:h <- [DW_OP_plus_uconst 76, DW_OP_deref_size 4, DW_OP_LLVM_convert 32 7, DW_OP_LLVM_convert 16 7, DW_OP_stack_value] $sp
	@DEBUG_VALUE: draw_series_scatter:y_ofs <- [DW_OP_plus_uconst 72] [$sp+0]
	@DEBUG_VALUE: draw_series_scatter:point_h <- [DW_OP_plus_uconst 28] [$sp+0]
	@DEBUG_VALUE: draw_series_scatter:point_w <- [DW_OP_plus_uconst 32] [$sp+0]
	@DEBUG_VALUE: draw_series_scatter:pad_top <- [DW_OP_plus_uconst 72] [$sp+0]
	@DEBUG_VALUE: draw_series_scatter:pad_left <- [DW_OP_plus_uconst 80] [$sp+0]
	@DEBUG_VALUE: draw_series_scatter:chart <- [DW_OP_plus_uconst 88] [$sp+0]
	@DEBUG_VALUE: draw_series_scatter:obj <- [DW_OP_plus_uconst 88] [$sp+0]
	@DEBUG_VALUE: lv_chart_event:obj <- [DW_OP_plus_uconst 88] [$sp+0]
	@DEBUG_VALUE: lv_chart_event:chart <- [DW_OP_plus_uconst 88] [$sp+0]
	@DEBUG_VALUE: lv_chart_event:class_p <- [DW_OP_LLVM_entry_value 1] $r0
	.loc	12 0 17 is_stmt 0               @ ../GUILib/src/extra/widgets/chart/lv_chart.c:0:17
	ldr	r5, [sp, #80]                   @ 4-byte Reload
.Ltmp450:
.LBB2_121:                              @   in Loop: Header=BB2_103 Depth=1
	@DEBUG_VALUE: draw_series_scatter:h <- [DW_OP_plus_uconst 76, DW_OP_deref_size 4, DW_OP_LLVM_convert 32 7, DW_OP_LLVM_convert 16 7, DW_OP_stack_value] $sp
	@DEBUG_VALUE: draw_series_scatter:y_ofs <- [DW_OP_plus_uconst 72] [$sp+0]
	@DEBUG_VALUE: draw_series_scatter:point_h <- [DW_OP_plus_uconst 28] [$sp+0]
	@DEBUG_VALUE: draw_series_scatter:point_w <- [DW_OP_plus_uconst 32] [$sp+0]
	@DEBUG_VALUE: draw_series_scatter:pad_top <- [DW_OP_plus_uconst 72] [$sp+0]
	@DEBUG_VALUE: draw_series_scatter:pad_left <- [DW_OP_plus_uconst 80] [$sp+0]
	@DEBUG_VALUE: draw_series_scatter:chart <- [DW_OP_plus_uconst 88] [$sp+0]
	@DEBUG_VALUE: draw_series_scatter:obj <- [DW_OP_plus_uconst 88] [$sp+0]
	@DEBUG_VALUE: lv_chart_event:obj <- [DW_OP_plus_uconst 88] [$sp+0]
	@DEBUG_VALUE: lv_chart_event:chart <- [DW_OP_plus_uconst 88] [$sp+0]
	@DEBUG_VALUE: lv_chart_event:class_p <- [DW_OP_LLVM_entry_value 1] $r0
	.loc	12 1057 5 is_stmt 1             @ ../GUILib/src/extra/widgets/chart/lv_chart.c:1057:5
	ldr	r0, [sp, #84]                   @ 4-byte Reload
	mov	r1, r7
	bl	_lv_ll_get_prev
.Ltmp451:
	mov	r7, r0
.Ltmp452:
	@DEBUG_VALUE: draw_series_scatter:ser <- $r7
	.loc	12 1057 5 is_stmt 0             @ ../GUILib/src/extra/widgets/chart/lv_chart.c:1057:5
	cmp	r0, #0
	bne.w	.LBB2_103
.Ltmp453:
.LBB2_122:
	@DEBUG_VALUE: draw_series_scatter:point_h <- [DW_OP_plus_uconst 28] [$sp+0]
	@DEBUG_VALUE: draw_series_scatter:point_w <- [DW_OP_plus_uconst 32] [$sp+0]
	@DEBUG_VALUE: draw_series_scatter:pad_top <- [DW_OP_plus_uconst 72] [$sp+0]
	@DEBUG_VALUE: draw_series_scatter:pad_left <- [DW_OP_plus_uconst 80] [$sp+0]
	@DEBUG_VALUE: draw_series_scatter:chart <- [DW_OP_plus_uconst 88] [$sp+0]
	@DEBUG_VALUE: draw_series_scatter:obj <- [DW_OP_plus_uconst 88] [$sp+0]
	@DEBUG_VALUE: lv_chart_event:obj <- [DW_OP_plus_uconst 88] [$sp+0]
	@DEBUG_VALUE: lv_chart_event:chart <- [DW_OP_plus_uconst 88] [$sp+0]
	@DEBUG_VALUE: lv_chart_event:class_p <- [DW_OP_LLVM_entry_value 1] $r0
	.loc	12 0 5                          @ ../GUILib/src/extra/widgets/chart/lv_chart.c:0:5
	movw	r7, :lower16:lv_chart_class
	movt	r7, :upper16:lv_chart_class
.Ltmp454:
.LBB2_123:
	@DEBUG_VALUE: draw_series_scatter:pad_top <- [DW_OP_plus_uconst 72] [$sp+0]
	@DEBUG_VALUE: draw_series_scatter:pad_left <- [DW_OP_plus_uconst 80] [$sp+0]
	@DEBUG_VALUE: draw_series_scatter:chart <- [DW_OP_plus_uconst 88] [$sp+0]
	@DEBUG_VALUE: draw_series_scatter:obj <- [DW_OP_plus_uconst 88] [$sp+0]
	@DEBUG_VALUE: lv_chart_event:obj <- [DW_OP_plus_uconst 88] [$sp+0]
	@DEBUG_VALUE: lv_chart_event:chart <- [DW_OP_plus_uconst 88] [$sp+0]
	@DEBUG_VALUE: lv_chart_event:class_p <- [DW_OP_LLVM_entry_value 1] $r0
	ldr	r4, [sp, #88]                   @ 4-byte Reload
	b	.LBB2_139
.Ltmp455:
.LBB2_124:
	@DEBUG_VALUE: lv_chart_event:obj <- [DW_OP_plus_uconst 88] [$sp+0]
	@DEBUG_VALUE: lv_chart_event:chart <- [DW_OP_plus_uconst 88] [$sp+0]
	@DEBUG_VALUE: lv_chart_event:class_p <- [DW_OP_LLVM_entry_value 1] $r0
	@DEBUG_VALUE: draw_series_bar:obj <- [DW_OP_plus_uconst 88] [$sp+0]
	.loc	12 1163 8 is_stmt 1             @ ../GUILib/src/extra/widgets/chart/lv_chart.c:1163:8
	ldr	r1, [sp, #36]                   @ 4-byte Reload
	add	r0, sp, #180
	mov	r2, r11
	bl	_lv_area_intersect
.Ltmp456:
	.loc	12 1163 8 is_stmt 0             @ ../GUILib/src/extra/widgets/chart/lv_chart.c:1163:8
	cmp	r0, #0
.Ltmp457:
	@DEBUG_VALUE: draw_series_bar:clip_area <- $r11
	beq.w	.LBB2_140
.Ltmp458:
@ %bb.125:
	@DEBUG_VALUE: draw_series_bar:clip_area <- $r11
	@DEBUG_VALUE: draw_series_bar:obj <- [DW_OP_plus_uconst 88] [$sp+0]
	@DEBUG_VALUE: lv_chart_event:obj <- [DW_OP_plus_uconst 88] [$sp+0]
	@DEBUG_VALUE: lv_chart_event:chart <- [DW_OP_plus_uconst 88] [$sp+0]
	@DEBUG_VALUE: lv_chart_event:class_p <- [DW_OP_LLVM_entry_value 1] $r0
	@DEBUG_VALUE: draw_series_bar:chart <- [DW_OP_plus_uconst 88] [$sp+0]
	@DEBUG_VALUE: lv_obj_get_style_pad_left:obj <- [DW_OP_plus_uconst 88] [$sp+0]
	@DEBUG_VALUE: lv_obj_get_style_pad_left:part <- 0
	.loc	18 105 26 is_stmt 1             @ ../GUILib/src/core/lv_obj_style_gen.h:105:26
	mov	r0, r4
	movs	r1, #0
	movw	r2, #6162
	bl	lv_obj_get_style_prop
.Ltmp459:
	str	r0, [sp, #80]                   @ 4-byte Spill
.Ltmp460:
	@DEBUG_VALUE: lv_obj_get_style_pad_top:part <- 0
	@DEBUG_VALUE: lv_obj_get_style_pad_top:obj <- [DW_OP_plus_uconst 88] [$sp+0]
	@DEBUG_VALUE: draw_series_bar:pad_left <- [DW_OP_plus_uconst 80, DW_OP_deref_size 4, DW_OP_LLVM_convert 32 7, DW_OP_LLVM_convert 16 7, DW_OP_stack_value] $sp
	@DEBUG_VALUE: lv_obj_get_style_pad_left:v <- [DW_OP_plus_uconst 80] [$sp+0]
	.loc	18 93 26                        @ ../GUILib/src/core/lv_obj_style_gen.h:93:26
	mov	r0, r4
	movs	r1, #0
	movw	r2, #6160
	bl	lv_obj_get_style_prop
.Ltmp461:
	str	r0, [sp, #68]                   @ 4-byte Spill
.Ltmp462:
	@DEBUG_VALUE: draw_series_bar:pad_top <- [DW_OP_plus_uconst 68, DW_OP_deref_size 4, DW_OP_LLVM_convert 32 7, DW_OP_LLVM_convert 16 7, DW_OP_stack_value] $sp
	@DEBUG_VALUE: lv_obj_get_style_pad_top:v <- [DW_OP_plus_uconst 68] [$sp+0]
	.loc	12 1171 34                      @ ../GUILib/src/extra/widgets/chart/lv_chart.c:1171:34
	mov	r0, r4
	bl	lv_obj_get_content_width
.Ltmp463:
	.loc	12 1171 73 is_stmt 0            @ ../GUILib/src/extra/widgets/chart/lv_chart.c:1171:73
	ldrh.w	r1, [r4, #132]
.Ltmp464:
	@DEBUG_VALUE: draw_series_bar:w <- [DW_OP_constu 8, DW_OP_shr, DW_OP_LLVM_convert 32 7, DW_OP_LLVM_convert 16 7, DW_OP_stack_value] undef
	.loc	12 1171 34                      @ ../GUILib/src/extra/widgets/chart/lv_chart.c:1171:34
	strd	r0, r1, [sp, #60]               @ 8-byte Folded Spill
	.loc	12 1172 34 is_stmt 1            @ ../GUILib/src/extra/widgets/chart/lv_chart.c:1172:34
	mov	r0, r4
	bl	lv_obj_get_content_height
.Ltmp465:
	.loc	12 1172 74 is_stmt 0            @ ../GUILib/src/extra/widgets/chart/lv_chart.c:1172:74
	ldrh.w	r1, [r4, #134]
.Ltmp466:
	@DEBUG_VALUE: draw_series_bar:h <- [DW_OP_constu 8, DW_OP_shr, DW_OP_LLVM_convert 32 7, DW_OP_LLVM_convert 16 7, DW_OP_stack_value] undef
	.loc	12 1172 34                      @ ../GUILib/src/extra/widgets/chart/lv_chart.c:1172:34
	strd	r0, r1, [sp, #72]               @ 8-byte Folded Spill
	.loc	12 1175 24 is_stmt 1            @ ../GUILib/src/extra/widgets/chart/lv_chart.c:1175:24
	ldr	r0, [sp, #84]                   @ 4-byte Reload
	bl	_lv_ll_get_len
.Ltmp467:
	str	r0, [sp, #56]                   @ 4-byte Spill
.Ltmp468:
	@DEBUG_VALUE: lv_obj_get_style_pad_column:part <- 0
	@DEBUG_VALUE: lv_obj_get_style_pad_column:obj <- [DW_OP_plus_uconst 88] [$sp+0]
	@DEBUG_VALUE: draw_series_bar:ser_cnt <- [DW_OP_plus_uconst 56] [$sp+0]
	.loc	18 123 26                       @ ../GUILib/src/core/lv_obj_style_gen.h:123:26
	mov	r0, r4
	movs	r1, #0
	movw	r2, #6165
	bl	lv_obj_get_style_prop
.Ltmp469:
	.loc	12 1177 86                      @ ../GUILib/src/extra/widgets/chart/lv_chart.c:1177:86
	ldrh.w	r10, [r4, #132]
.Ltmp470:
	@DEBUG_VALUE: draw_series_bar:block_gap <- undef
	.loc	12 1178 40                      @ ../GUILib/src/extra/widgets/chart/lv_chart.c:1178:40
	ldrh.w	r7, [r4, #130]
.Ltmp471:
	@DEBUG_VALUE: draw_series_bar:col_w <- [DW_OP_LLVM_convert 32 7, DW_OP_LLVM_convert 16 7, DW_OP_stack_value] undef
	@DEBUG_VALUE: draw_series_bar:block_w <- [DW_OP_LLVM_convert 32 7, DW_OP_LLVM_convert 16 7, DW_OP_stack_value] undef
	.loc	18 123 26                       @ ../GUILib/src/core/lv_obj_style_gen.h:123:26
	mov	r9, r0
.Ltmp472:
	@DEBUG_VALUE: lv_obj_get_style_pad_column:v <- $r9
	@DEBUG_VALUE: lv_obj_get_style_pad_column:part <- 327680
	@DEBUG_VALUE: lv_obj_get_style_pad_column:obj <- [DW_OP_plus_uconst 88] [$sp+0]
	@DEBUG_VALUE: lv_obj_get_style_pad_column:part <- 0
	@DEBUG_VALUE: lv_obj_get_style_pad_column:obj <- [DW_OP_plus_uconst 88] [$sp+0]
	.loc	18 123 26 is_stmt 0             @ ../GUILib/src/core/lv_obj_style_gen.h:123:26
	mov	r0, r4
	mov.w	r1, #327680
	movw	r2, #6165
	mov	r6, r11
.Ltmp473:
	@DEBUG_VALUE: draw_series_bar:clip_area <- $r6
	bl	lv_obj_get_style_prop
.Ltmp474:
	.loc	12 1181 85 is_stmt 1            @ ../GUILib/src/extra/widgets/chart/lv_chart.c:1181:85
	ldrh.w	r8, [r4, #132]
.Ltmp475:
	@DEBUG_VALUE: draw_series_bar:ser_gap <- [DW_OP_constu 8, DW_OP_shra, DW_OP_stack_value] undef
	.loc	18 123 26                       @ ../GUILib/src/core/lv_obj_style_gen.h:123:26
	mov	r11, r0
.Ltmp476:
	@DEBUG_VALUE: lv_obj_get_style_pad_column:v <- $r11
	@DEBUG_VALUE: lv_obj_get_style_pad_column:part <- 327680
	@DEBUG_VALUE: lv_obj_get_style_pad_column:obj <- [DW_OP_plus_uconst 88] [$sp+0]
	.loc	12 1182 35                      @ ../GUILib/src/extra/widgets/chart/lv_chart.c:1182:35
	mov	r0, r4
	bl	lv_obj_get_scroll_left
.Ltmp477:
	str	r0, [sp, #48]                   @ 4-byte Spill
.Ltmp478:
	@DEBUG_VALUE: draw_series_bar:x_ofs <- undef
	.loc	12 1183 34                      @ ../GUILib/src/extra/widgets/chart/lv_chart.c:1183:34
	mov	r0, r4
	bl	lv_obj_get_scroll_top
.Ltmp479:
	.loc	12 0 34 is_stmt 0               @ ../GUILib/src/extra/widgets/chart/lv_chart.c:0:34
	add	r5, sp, #244
	.loc	12 1183 34                      @ ../GUILib/src/extra/widgets/chart/lv_chart.c:1183:34
	str	r0, [sp, #52]                   @ 4-byte Spill
.Ltmp480:
	@DEBUG_VALUE: draw_series_bar:y_ofs <- undef
	.loc	12 1186 5 is_stmt 1             @ ../GUILib/src/extra/widgets/chart/lv_chart.c:1186:5
	mov	r0, r5
	bl	lv_draw_rect_dsc_init
.Ltmp481:
	.loc	12 1187 5                       @ ../GUILib/src/extra/widgets/chart/lv_chart.c:1187:5
	mov	r0, r4
	mov.w	r1, #327680
	mov	r2, r5
	bl	lv_obj_init_draw_rect_dsc
.Ltmp482:
	.loc	12 1188 25                      @ ../GUILib/src/extra/widgets/chart/lv_chart.c:1188:25
	ldrb.w	r0, [sp, #255]
	.loc	12 1192 28                      @ ../GUILib/src/extra/widgets/chart/lv_chart.c:1192:28
	ldrh	r1, [r4, #26]
	.loc	12 1188 25                      @ ../GUILib/src/extra/widgets/chart/lv_chart.c:1188:25
	and	r0, r0, #248
	.loc	12 1192 41                      @ ../GUILib/src/extra/widgets/chart/lv_chart.c:1192:41
	ldrh.w	r2, [sp, #244]
	.loc	12 1188 25                      @ ../GUILib/src/extra/widgets/chart/lv_chart.c:1188:25
	strb.w	r0, [sp, #255]
	movs	r0, #255
	.loc	12 1189 20                      @ ../GUILib/src/extra/widgets/chart/lv_chart.c:1189:20
	strb.w	r0, [sp, #254]
	.loc	12 1192 31                      @ ../GUILib/src/extra/widgets/chart/lv_chart.c:1192:31
	adds	r0, r2, r1
	.loc	12 1195 21                      @ ../GUILib/src/extra/widgets/chart/lv_chart.c:1195:21
	ldr	r1, [sp, #36]                   @ 4-byte Reload
	.loc	12 1192 14                      @ ../GUILib/src/extra/widgets/chart/lv_chart.c:1192:14
	strh.w	r0, [sp, #302]
	add	r0, sp, #232
	.loc	12 1195 21                      @ ../GUILib/src/extra/widgets/chart/lv_chart.c:1195:21
	mov	r2, r6
	str	r6, [sp, #44]                   @ 4-byte Spill
.Ltmp483:
	@DEBUG_VALUE: draw_series_bar:clip_area <- [DW_OP_plus_uconst 44] [$sp+0]
	bl	_lv_area_intersect
.Ltmp484:
	@DEBUG_VALUE: draw_series_bar:mask_ret <- [DW_OP_LLVM_convert 1 7, DW_OP_LLVM_convert 8 7, DW_OP_stack_value] undef
	.loc	12 1196 8                       @ ../GUILib/src/extra/widgets/chart/lv_chart.c:1196:8
	cmp	r0, #0
	beq.w	.LBB2_138
.Ltmp485:
@ %bb.126:
	@DEBUG_VALUE: draw_series_bar:clip_area <- [DW_OP_plus_uconst 44] [$sp+0]
	@DEBUG_VALUE: draw_series_bar:ser_cnt <- [DW_OP_plus_uconst 56] [$sp+0]
	@DEBUG_VALUE: draw_series_bar:pad_top <- [DW_OP_plus_uconst 68, DW_OP_deref_size 4, DW_OP_LLVM_convert 32 7, DW_OP_LLVM_convert 16 7, DW_OP_stack_value] $sp
	@DEBUG_VALUE: draw_series_bar:pad_left <- [DW_OP_plus_uconst 80, DW_OP_deref_size 4, DW_OP_LLVM_convert 32 7, DW_OP_LLVM_convert 16 7, DW_OP_stack_value] $sp
	@DEBUG_VALUE: draw_series_bar:chart <- [DW_OP_plus_uconst 88] [$sp+0]
	@DEBUG_VALUE: draw_series_bar:obj <- [DW_OP_plus_uconst 88] [$sp+0]
	@DEBUG_VALUE: lv_chart_event:obj <- [DW_OP_plus_uconst 88] [$sp+0]
	@DEBUG_VALUE: lv_chart_event:chart <- [DW_OP_plus_uconst 88] [$sp+0]
	@DEBUG_VALUE: lv_chart_event:class_p <- [DW_OP_LLVM_entry_value 1] $r0
	@DEBUG_VALUE: draw_series_bar:block_gap <- undef
	@DEBUG_VALUE: draw_series_bar:block_w <- [DW_OP_LLVM_convert 32 7, DW_OP_LLVM_convert 16 7, DW_OP_stack_value] undef
	@DEBUG_VALUE: draw_series_bar:col_w <- [DW_OP_LLVM_convert 32 7, DW_OP_LLVM_convert 16 7, DW_OP_stack_value] undef
	@DEBUG_VALUE: draw_series_bar:ser_gap <- [DW_OP_constu 8, DW_OP_shra, DW_OP_stack_value] undef
	.loc	12 0 8 is_stmt 0                @ ../GUILib/src/extra/widgets/chart/lv_chart.c:0:8
	add	r0, sp, #108
	add	r1, sp, #232
	.loc	12 1199 5 is_stmt 1             @ ../GUILib/src/extra/widgets/chart/lv_chart.c:1199:5
	bl	lv_obj_draw_dsc_init
.Ltmp486:
	.loc	12 1200 24                      @ ../GUILib/src/extra/widgets/chart/lv_chart.c:1200:24
	mov.w	r0, #327680
	str	r0, [sp, #160]
	.loc	12 1201 27                      @ ../GUILib/src/extra/widgets/chart/lv_chart.c:1201:27
	movw	r0, :lower16:lv_chart_class
	movt	r0, :upper16:lv_chart_class
	str	r0, [sp, #112]
.Ltmp487:
	.loc	12 1205 27                      @ ../GUILib/src/extra/widgets/chart/lv_chart.c:1205:27
	ldr	r0, [sp, #88]                   @ 4-byte Reload
	ldrh.w	r4, [r0, #130]
	movs	r0, #4
.Ltmp488:
	.loc	12 1205 5 is_stmt 0             @ ../GUILib/src/extra/widgets/chart/lv_chart.c:1205:5
	cmp	r4, #0
.Ltmp489:
	.loc	12 1202 24 is_stmt 1            @ ../GUILib/src/extra/widgets/chart/lv_chart.c:1202:24
	str	r0, [sp, #116]
.Ltmp490:
	@DEBUG_VALUE: draw_series_bar:i <- 0
	.loc	12 1205 5                       @ ../GUILib/src/extra/widgets/chart/lv_chart.c:1205:5
	beq.w	.LBB2_138
.Ltmp491:
@ %bb.127:
	@DEBUG_VALUE: draw_series_bar:clip_area <- [DW_OP_plus_uconst 44] [$sp+0]
	@DEBUG_VALUE: draw_series_bar:ser_cnt <- [DW_OP_plus_uconst 56] [$sp+0]
	@DEBUG_VALUE: draw_series_bar:pad_top <- [DW_OP_plus_uconst 68, DW_OP_deref_size 4, DW_OP_LLVM_convert 32 7, DW_OP_LLVM_convert 16 7, DW_OP_stack_value] $sp
	@DEBUG_VALUE: draw_series_bar:pad_left <- [DW_OP_plus_uconst 80, DW_OP_deref_size 4, DW_OP_LLVM_convert 32 7, DW_OP_LLVM_convert 16 7, DW_OP_stack_value] $sp
	@DEBUG_VALUE: draw_series_bar:chart <- [DW_OP_plus_uconst 88] [$sp+0]
	@DEBUG_VALUE: draw_series_bar:obj <- [DW_OP_plus_uconst 88] [$sp+0]
	@DEBUG_VALUE: lv_chart_event:obj <- [DW_OP_plus_uconst 88] [$sp+0]
	@DEBUG_VALUE: lv_chart_event:chart <- [DW_OP_plus_uconst 88] [$sp+0]
	@DEBUG_VALUE: draw_series_bar:i <- 0
	@DEBUG_VALUE: lv_chart_event:class_p <- [DW_OP_LLVM_entry_value 1] $r0
	.loc	12 0 5 is_stmt 0                @ ../GUILib/src/extra/widgets/chart/lv_chart.c:0:5
	ldrd	r2, r1, [sp, #60]               @ 8-byte Folded Reload
	sxth.w	r0, r9
	mul	r0, r0, r10
	muls	r1, r2, r1
	asrs	r0, r0, #8
.Ltmp492:
	@DEBUG_VALUE: draw_series_bar:block_gap <- $r0
	lsls	r2, r1, #8
	subs	r3, r7, #1
	sbfx	r1, r1, #8, #16
	muls	r3, r0, r3
	add	r0, r1
.Ltmp493:
	rsb	r2, r3, r2, asr #16
	ldr	r3, [sp, #56]                   @ 4-byte Reload
	str	r0, [sp, #64]                   @ 4-byte Spill
	ldr	r0, [sp, #80]                   @ 4-byte Reload
	ldr	r1, [sp, #48]                   @ 4-byte Reload
	sdiv	r2, r2, r7
.Ltmp494:
	@DEBUG_VALUE: draw_series_bar:block_w <- [DW_OP_LLVM_convert 32 7, DW_OP_LLVM_convert 16 7, DW_OP_stack_value] $r2
	subs	r0, r0, r1
	str	r0, [sp, #60]                   @ 4-byte Spill
	ldr	r1, [sp, #88]                   @ 4-byte Reload
	sxth	r2, r2
.Ltmp495:
	udiv	r2, r2, r3
.Ltmp496:
	@DEBUG_VALUE: draw_series_bar:col_w <- [DW_OP_LLVM_convert 32 7, DW_OP_LLVM_convert 16 7, DW_OP_stack_value] $r2
	add.w	r0, r1, #108
	str	r0, [sp, #80]                   @ 4-byte Spill
	sxth.w	r10, r2
	ldrd	r2, r0, [sp, #72]               @ 8-byte Folded Reload
.Ltmp497:
	sxth.w	r3, r11
	muls	r0, r2, r0
	sbfx	r0, r0, #8, #16
	str	r0, [sp, #72]                   @ 4-byte Spill
	add.w	r0, r1, #112
	str	r0, [sp, #76]                   @ 4-byte Spill
	mul	r3, r3, r8
.Ltmp498:
	@DEBUG_VALUE: draw_series_bar:ser_gap <- [DW_OP_constu 8, DW_OP_shra, DW_OP_stack_value] $r3
	ldr	r0, [sp, #68]                   @ 4-byte Reload
	ldr	r1, [sp, #52]                   @ 4-byte Reload
	lsrs	r3, r3, #8
.Ltmp499:
	mvn.w	r9, r3
	subs	r0, r0, r1
	mov.w	r8, #0
	str	r0, [sp, #68]                   @ 4-byte Spill
.Ltmp500:
.LBB2_128:                              @ =>This Loop Header: Depth=1
                                        @     Child Loop BB2_130 Depth 2
	@DEBUG_VALUE: draw_series_bar:clip_area <- [DW_OP_plus_uconst 44] [$sp+0]
	@DEBUG_VALUE: draw_series_bar:ser_cnt <- [DW_OP_plus_uconst 56] [$sp+0]
	@DEBUG_VALUE: draw_series_bar:pad_top <- [DW_OP_plus_uconst 68, DW_OP_deref_size 4, DW_OP_LLVM_convert 32 7, DW_OP_LLVM_convert 16 7, DW_OP_stack_value] $sp
	@DEBUG_VALUE: draw_series_bar:pad_left <- [DW_OP_plus_uconst 80, DW_OP_deref_size 4, DW_OP_LLVM_convert 32 7, DW_OP_LLVM_convert 16 7, DW_OP_stack_value] $sp
	@DEBUG_VALUE: draw_series_bar:chart <- [DW_OP_plus_uconst 88] [$sp+0]
	@DEBUG_VALUE: draw_series_bar:obj <- [DW_OP_plus_uconst 88] [$sp+0]
	@DEBUG_VALUE: lv_chart_event:obj <- [DW_OP_plus_uconst 88] [$sp+0]
	@DEBUG_VALUE: lv_chart_event:chart <- [DW_OP_plus_uconst 88] [$sp+0]
	@DEBUG_VALUE: lv_chart_event:class_p <- [DW_OP_LLVM_entry_value 1] $r0
	@DEBUG_VALUE: draw_series_bar:i <- $r8
	.loc	12 1206 103 is_stmt 1           @ ../GUILib/src/extra/widgets/chart/lv_chart.c:1206:103
	ldr	r0, [sp, #36]                   @ 4-byte Reload
	ldrh	r5, [r0]
.Ltmp501:
	@DEBUG_VALUE: x_act <- undef
	.loc	12 1211 9                       @ ../GUILib/src/extra/widgets/chart/lv_chart.c:1211:9
	ldr	r0, [sp, #84]                   @ 4-byte Reload
.Ltmp502:
	.loc	12 1208 26                      @ ../GUILib/src/extra/widgets/chart/lv_chart.c:1208:26
	str.w	r8, [sp, #164]
.Ltmp503:
	.loc	12 1211 9                       @ ../GUILib/src/extra/widgets/chart/lv_chart.c:1211:9
	bl	_lv_ll_get_tail
.Ltmp504:
	@DEBUG_VALUE: draw_series_bar:ser <- $r0
	cmp	r0, #0
	beq	.LBB2_137
.Ltmp505:
@ %bb.129:                              @   in Loop: Header=BB2_128 Depth=1
	@DEBUG_VALUE: draw_series_bar:clip_area <- [DW_OP_plus_uconst 44] [$sp+0]
	@DEBUG_VALUE: draw_series_bar:i <- $r8
	@DEBUG_VALUE: draw_series_bar:ser <- $r0
	@DEBUG_VALUE: draw_series_bar:ser_cnt <- [DW_OP_plus_uconst 56] [$sp+0]
	@DEBUG_VALUE: draw_series_bar:pad_top <- [DW_OP_plus_uconst 68, DW_OP_deref_size 4, DW_OP_LLVM_convert 32 7, DW_OP_LLVM_convert 16 7, DW_OP_stack_value] $sp
	@DEBUG_VALUE: draw_series_bar:pad_left <- [DW_OP_plus_uconst 80, DW_OP_deref_size 4, DW_OP_LLVM_convert 32 7, DW_OP_LLVM_convert 16 7, DW_OP_stack_value] $sp
	@DEBUG_VALUE: draw_series_bar:chart <- [DW_OP_plus_uconst 88] [$sp+0]
	@DEBUG_VALUE: draw_series_bar:obj <- [DW_OP_plus_uconst 88] [$sp+0]
	@DEBUG_VALUE: lv_chart_event:obj <- [DW_OP_plus_uconst 88] [$sp+0]
	@DEBUG_VALUE: lv_chart_event:chart <- [DW_OP_plus_uconst 88] [$sp+0]
	@DEBUG_VALUE: lv_chart_event:class_p <- [DW_OP_LLVM_entry_value 1] $r0
	.loc	12 0 0 is_stmt 0                @ ../GUILib/src/extra/widgets/chart/lv_chart.c:0:0
	mov	r11, r0
.Ltmp506:
	@DEBUG_VALUE: draw_series_bar:ser <- $r11
	@DEBUG_VALUE: draw_series_bar:ser <- $r11
	.loc	12 1206 63 is_stmt 1            @ ../GUILib/src/extra/widgets/chart/lv_chart.c:1206:63
	ldr	r0, [sp, #64]                   @ 4-byte Reload
.Ltmp507:
	.loc	12 1182 33                      @ ../GUILib/src/extra/widgets/chart/lv_chart.c:1182:33
	ldr	r1, [sp, #60]                   @ 4-byte Reload
.Ltmp508:
	.loc	12 1206 63                      @ ../GUILib/src/extra/widgets/chart/lv_chart.c:1206:63
	mul	r0, r8, r0
	.loc	12 1206 68 is_stmt 0            @ ../GUILib/src/extra/widgets/chart/lv_chart.c:1206:68
	sdiv	r0, r0, r4
.Ltmp509:
	.loc	12 1182 33 is_stmt 1            @ ../GUILib/src/extra/widgets/chart/lv_chart.c:1182:33
	add	r1, r5
.Ltmp510:
	.loc	12 1206 28                      @ ../GUILib/src/extra/widgets/chart/lv_chart.c:1206:28
	add	r1, r0
.Ltmp511:
	@DEBUG_VALUE: x_act <- $r1
	.p2align	2
.LBB2_130:                              @   Parent Loop BB2_128 Depth=1
                                        @ =>  This Inner Loop Header: Depth=2
	@DEBUG_VALUE: draw_series_bar:clip_area <- [DW_OP_plus_uconst 44] [$sp+0]
	@DEBUG_VALUE: draw_series_bar:ser <- $r11
	@DEBUG_VALUE: draw_series_bar:i <- $r8
	@DEBUG_VALUE: x_act <- $r1
	@DEBUG_VALUE: draw_series_bar:ser_cnt <- [DW_OP_plus_uconst 56] [$sp+0]
	@DEBUG_VALUE: draw_series_bar:pad_top <- [DW_OP_plus_uconst 68, DW_OP_deref_size 4, DW_OP_LLVM_convert 32 7, DW_OP_LLVM_convert 16 7, DW_OP_stack_value] $sp
	@DEBUG_VALUE: draw_series_bar:pad_left <- [DW_OP_plus_uconst 80, DW_OP_deref_size 4, DW_OP_LLVM_convert 32 7, DW_OP_LLVM_convert 16 7, DW_OP_stack_value] $sp
	@DEBUG_VALUE: draw_series_bar:chart <- [DW_OP_plus_uconst 88] [$sp+0]
	@DEBUG_VALUE: draw_series_bar:obj <- [DW_OP_plus_uconst 88] [$sp+0]
	@DEBUG_VALUE: lv_chart_event:obj <- [DW_OP_plus_uconst 88] [$sp+0]
	@DEBUG_VALUE: lv_chart_event:chart <- [DW_OP_plus_uconst 88] [$sp+0]
	@DEBUG_VALUE: lv_chart_event:class_p <- [DW_OP_LLVM_entry_value 1] $r0
	@DEBUG_VALUE: x_act <- $r1
	@DEBUG_VALUE: draw_series_bar:ser <- $r11
	.loc	12 1212 21                      @ ../GUILib/src/extra/widgets/chart/lv_chart.c:1212:21
	ldrb.w	r0, [r11, #12]
.Ltmp512:
	.loc	12 1212 16 is_stmt 0            @ ../GUILib/src/extra/widgets/chart/lv_chart.c:1212:16
	lsls	r2, r0, #31
	bne	.LBB2_135
.Ltmp513:
@ %bb.131:                              @   in Loop: Header=BB2_130 Depth=2
	@DEBUG_VALUE: draw_series_bar:clip_area <- [DW_OP_plus_uconst 44] [$sp+0]
	@DEBUG_VALUE: draw_series_bar:ser <- $r11
	@DEBUG_VALUE: draw_series_bar:i <- $r8
	@DEBUG_VALUE: x_act <- $r1
	@DEBUG_VALUE: draw_series_bar:ser_cnt <- [DW_OP_plus_uconst 56] [$sp+0]
	@DEBUG_VALUE: draw_series_bar:pad_top <- [DW_OP_plus_uconst 68, DW_OP_deref_size 4, DW_OP_LLVM_convert 32 7, DW_OP_LLVM_convert 16 7, DW_OP_stack_value] $sp
	@DEBUG_VALUE: draw_series_bar:pad_left <- [DW_OP_plus_uconst 80, DW_OP_deref_size 4, DW_OP_LLVM_convert 32 7, DW_OP_LLVM_convert 16 7, DW_OP_stack_value] $sp
	@DEBUG_VALUE: draw_series_bar:chart <- [DW_OP_plus_uconst 88] [$sp+0]
	@DEBUG_VALUE: draw_series_bar:obj <- [DW_OP_plus_uconst 88] [$sp+0]
	@DEBUG_VALUE: lv_chart_event:obj <- [DW_OP_plus_uconst 88] [$sp+0]
	@DEBUG_VALUE: lv_chart_event:chart <- [DW_OP_plus_uconst 88] [$sp+0]
	@DEBUG_VALUE: lv_chart_event:class_p <- [DW_OP_LLVM_entry_value 1] $r0
	.loc	12 1213 45 is_stmt 1            @ ../GUILib/src/extra/widgets/chart/lv_chart.c:1213:45
	ldr	r2, [sp, #88]                   @ 4-byte Reload
	.loc	12 1216 33                      @ ../GUILib/src/extra/widgets/chart/lv_chart.c:1216:33
	uxtah	r4, r10, r1
	.loc	12 1213 45                      @ ../GUILib/src/extra/widgets/chart/lv_chart.c:1213:45
	ldrb.w	r2, [r2, #136]
	.loc	12 1216 51                      @ ../GUILib/src/extra/widgets/chart/lv_chart.c:1216:51
	add.w	r3, r4, r9
	.loc	12 1213 38                      @ ../GUILib/src/extra/widgets/chart/lv_chart.c:1213:38
	lsls	r2, r2, #28
	.loc	12 1213 94 is_stmt 0            @ ../GUILib/src/extra/widgets/chart/lv_chart.c:1213:94
	ite	pl
	ldrhpl.w	r2, [r11, #10]
	movmi	r2, #0
.Ltmp514:
	@DEBUG_VALUE: start_point <- $r2
	.loc	12 1219 39 is_stmt 1            @ ../GUILib/src/extra/widgets/chart/lv_chart.c:1219:39
	ldrsh.w	r6, [sp, #232]
	.loc	12 1219 16 is_stmt 0            @ ../GUILib/src/extra/widgets/chart/lv_chart.c:1219:16
	sxth	r5, r3
.Ltmp515:
	.loc	12 1219 16                      @ ../GUILib/src/extra/widgets/chart/lv_chart.c:1219:16
	cmp	r5, r6
	.loc	12 1215 22 is_stmt 1            @ ../GUILib/src/extra/widgets/chart/lv_chart.c:1215:22
	strh.w	r1, [sp, #296]
	.loc	12 1216 22                      @ ../GUILib/src/extra/widgets/chart/lv_chart.c:1216:22
	strh.w	r3, [sp, #300]
.Ltmp516:
	@DEBUG_VALUE: x_act <- undef
	.loc	12 1219 16                      @ ../GUILib/src/extra/widgets/chart/lv_chart.c:1219:16
	blt	.LBB2_136
.Ltmp517:
@ %bb.132:                              @   in Loop: Header=BB2_130 Depth=2
	@DEBUG_VALUE: draw_series_bar:clip_area <- [DW_OP_plus_uconst 44] [$sp+0]
	@DEBUG_VALUE: draw_series_bar:ser <- $r11
	@DEBUG_VALUE: draw_series_bar:i <- $r8
	@DEBUG_VALUE: start_point <- $r2
	@DEBUG_VALUE: draw_series_bar:ser_cnt <- [DW_OP_plus_uconst 56] [$sp+0]
	@DEBUG_VALUE: draw_series_bar:pad_top <- [DW_OP_plus_uconst 68, DW_OP_deref_size 4, DW_OP_LLVM_convert 32 7, DW_OP_LLVM_convert 16 7, DW_OP_stack_value] $sp
	@DEBUG_VALUE: draw_series_bar:pad_left <- [DW_OP_plus_uconst 80, DW_OP_deref_size 4, DW_OP_LLVM_convert 32 7, DW_OP_LLVM_convert 16 7, DW_OP_stack_value] $sp
	@DEBUG_VALUE: draw_series_bar:chart <- [DW_OP_plus_uconst 88] [$sp+0]
	@DEBUG_VALUE: draw_series_bar:obj <- [DW_OP_plus_uconst 88] [$sp+0]
	@DEBUG_VALUE: lv_chart_event:obj <- [DW_OP_plus_uconst 88] [$sp+0]
	@DEBUG_VALUE: lv_chart_event:chart <- [DW_OP_plus_uconst 88] [$sp+0]
	@DEBUG_VALUE: lv_chart_event:class_p <- [DW_OP_LLVM_entry_value 1] $r0
	.loc	12 1220 39                      @ ../GUILib/src/extra/widgets/chart/lv_chart.c:1220:39
	ldrsh.w	r3, [sp, #236]
	.loc	12 1220 25 is_stmt 0            @ ../GUILib/src/extra/widgets/chart/lv_chart.c:1220:25
	sxth	r1, r1
.Ltmp518:
	.loc	12 1220 16                      @ ../GUILib/src/extra/widgets/chart/lv_chart.c:1220:16
	cmp	r1, r3
	bgt	.LBB2_137
.Ltmp519:
@ %bb.133:                              @   in Loop: Header=BB2_130 Depth=2
	@DEBUG_VALUE: draw_series_bar:clip_area <- [DW_OP_plus_uconst 44] [$sp+0]
	@DEBUG_VALUE: draw_series_bar:ser <- $r11
	@DEBUG_VALUE: draw_series_bar:i <- $r8
	@DEBUG_VALUE: start_point <- $r2
	@DEBUG_VALUE: draw_series_bar:ser_cnt <- [DW_OP_plus_uconst 56] [$sp+0]
	@DEBUG_VALUE: draw_series_bar:pad_top <- [DW_OP_plus_uconst 68, DW_OP_deref_size 4, DW_OP_LLVM_convert 32 7, DW_OP_LLVM_convert 16 7, DW_OP_stack_value] $sp
	@DEBUG_VALUE: draw_series_bar:pad_left <- [DW_OP_plus_uconst 80, DW_OP_deref_size 4, DW_OP_LLVM_convert 32 7, DW_OP_LLVM_convert 16 7, DW_OP_stack_value] $sp
	@DEBUG_VALUE: draw_series_bar:chart <- [DW_OP_plus_uconst 88] [$sp+0]
	@DEBUG_VALUE: draw_series_bar:obj <- [DW_OP_plus_uconst 88] [$sp+0]
	@DEBUG_VALUE: lv_chart_event:obj <- [DW_OP_plus_uconst 88] [$sp+0]
	@DEBUG_VALUE: lv_chart_event:chart <- [DW_OP_plus_uconst 88] [$sp+0]
	@DEBUG_VALUE: lv_chart_event:class_p <- [DW_OP_LLVM_entry_value 1] $r0
	.loc	12 0 16                         @ ../GUILib/src/extra/widgets/chart/lv_chart.c:0:16
	ldr	r5, [sp, #88]                   @ 4-byte Reload
	.loc	12 1224 45 is_stmt 1            @ ../GUILib/src/extra/widgets/chart/lv_chart.c:1224:45
	sxtah	r2, r8, r2
.Ltmp520:
	.loc	12 1224 59 is_stmt 0            @ ../GUILib/src/extra/widgets/chart/lv_chart.c:1224:59
	ldrh.w	r3, [r5, #130]
	.loc	12 1222 37 is_stmt 1            @ ../GUILib/src/extra/widgets/chart/lv_chart.c:1222:37
	ldrh.w	r1, [r11, #8]
	.loc	12 1224 50                      @ ../GUILib/src/extra/widgets/chart/lv_chart.c:1224:50
	sdiv	r6, r2, r3
	.loc	12 1222 37                      @ ../GUILib/src/extra/widgets/chart/lv_chart.c:1222:37
	strh.w	r1, [sp, #248]
	.loc	12 1224 50                      @ ../GUILib/src/extra/widgets/chart/lv_chart.c:1224:50
	mls	r1, r6, r3, r2
.Ltmp521:
	@DEBUG_VALUE: p_act <- [DW_OP_LLVM_convert 32 7, DW_OP_LLVM_convert 16 7, DW_OP_stack_value] $r1
	.loc	12 1225 56                      @ ../GUILib/src/extra/widgets/chart/lv_chart.c:1225:56
	ldr.w	r2, [r11, #4]
	.loc	12 1225 51 is_stmt 0            @ ../GUILib/src/extra/widgets/chart/lv_chart.c:1225:51
	lsls	r1, r1, #16
.Ltmp522:
	.loc	12 1225 74                      @ ../GUILib/src/extra/widgets/chart/lv_chart.c:1225:74
	ldr	r6, [sp, #80]                   @ 4-byte Reload
	.loc	12 1225 51                      @ ../GUILib/src/extra/widgets/chart/lv_chart.c:1225:51
	asrs	r1, r1, #15
	.loc	12 1225 74                      @ ../GUILib/src/extra/widgets/chart/lv_chart.c:1225:74
	ubfx	r0, r0, #4, #1
	.loc	12 1226 41 is_stmt 1            @ ../GUILib/src/extra/widgets/chart/lv_chart.c:1226:41
	ldr	r7, [sp, #76]                   @ 4-byte Reload
	.loc	12 1225 51                      @ ../GUILib/src/extra/widgets/chart/lv_chart.c:1225:51
	ldrsh	r3, [r2, r1]
	.loc	12 1225 74 is_stmt 0            @ ../GUILib/src/extra/widgets/chart/lv_chart.c:1225:74
	ldrsh.w	r6, [r6, r0, lsl #1]
	.loc	12 1226 41 is_stmt 1            @ ../GUILib/src/extra/widgets/chart/lv_chart.c:1226:41
	ldrsh.w	r0, [r7, r0, lsl #1]
	ldr	r7, [sp, #72]                   @ 4-byte Reload
	.loc	12 1225 72                      @ ../GUILib/src/extra/widgets/chart/lv_chart.c:1225:72
	subs	r3, r3, r6
	.loc	12 1225 104 is_stmt 0           @ ../GUILib/src/extra/widgets/chart/lv_chart.c:1225:104
	muls	r3, r7, r3
.Ltmp523:
	@DEBUG_VALUE: draw_series_bar:y_tmp <- $r3
	.loc	12 1226 70 is_stmt 1            @ ../GUILib/src/extra/widgets/chart/lv_chart.c:1226:70
	subs	r0, r0, r6
	.loc	12 1226 38 is_stmt 0            @ ../GUILib/src/extra/widgets/chart/lv_chart.c:1226:38
	sdiv	r0, r3, r0
.Ltmp524:
	@DEBUG_VALUE: draw_series_bar:y_tmp <- $r0
	.loc	12 1227 56 is_stmt 1            @ ../GUILib/src/extra/widgets/chart/lv_chart.c:1227:56
	ldrh	r3, [r5, #22]
	.loc	12 1227 34 is_stmt 0            @ ../GUILib/src/extra/widgets/chart/lv_chart.c:1227:34
	subs	r0, r7, r0
.Ltmp525:
	.loc	12 1183 32 is_stmt 1            @ ../GUILib/src/extra/widgets/chart/lv_chart.c:1183:32
	ldr	r7, [sp, #68]                   @ 4-byte Reload
	add	r3, r7
.Ltmp526:
	.loc	12 1227 32                      @ ../GUILib/src/extra/widgets/chart/lv_chart.c:1227:32
	add	r0, r3
	.loc	12 1227 30 is_stmt 0            @ ../GUILib/src/extra/widgets/chart/lv_chart.c:1227:30
	strh.w	r0, [sp, #298]
.Ltmp527:
	.loc	12 1229 16 is_stmt 1            @ ../GUILib/src/extra/widgets/chart/lv_chart.c:1229:16
	ldrsh	r0, [r2, r1]
.Ltmp528:
	.loc	12 1229 16 is_stmt 0            @ ../GUILib/src/extra/widgets/chart/lv_chart.c:1229:16
	movw	r1, #32767
	cmp	r0, r1
	beq	.LBB2_136
.Ltmp529:
@ %bb.134:                              @   in Loop: Header=BB2_130 Depth=2
	@DEBUG_VALUE: draw_series_bar:clip_area <- [DW_OP_plus_uconst 44] [$sp+0]
	@DEBUG_VALUE: draw_series_bar:ser <- $r11
	@DEBUG_VALUE: draw_series_bar:i <- $r8
	@DEBUG_VALUE: draw_series_bar:ser_cnt <- [DW_OP_plus_uconst 56] [$sp+0]
	@DEBUG_VALUE: draw_series_bar:pad_top <- [DW_OP_plus_uconst 68, DW_OP_deref_size 4, DW_OP_LLVM_convert 32 7, DW_OP_LLVM_convert 16 7, DW_OP_stack_value] $sp
	@DEBUG_VALUE: draw_series_bar:pad_left <- [DW_OP_plus_uconst 80, DW_OP_deref_size 4, DW_OP_LLVM_convert 32 7, DW_OP_LLVM_convert 16 7, DW_OP_stack_value] $sp
	@DEBUG_VALUE: draw_series_bar:chart <- [DW_OP_plus_uconst 88] [$sp+0]
	@DEBUG_VALUE: draw_series_bar:obj <- [DW_OP_plus_uconst 88] [$sp+0]
	@DEBUG_VALUE: lv_chart_event:obj <- [DW_OP_plus_uconst 88] [$sp+0]
	@DEBUG_VALUE: lv_chart_event:chart <- [DW_OP_plus_uconst 88] [$sp+0]
	@DEBUG_VALUE: lv_chart_event:class_p <- [DW_OP_LLVM_entry_value 1] $r0
	.loc	12 0 16                         @ ../GUILib/src/extra/widgets/chart/lv_chart.c:0:16
	add	r6, sp, #244
	ldr	r5, [sp, #88]                   @ 4-byte Reload
.Ltmp530:
	.loc	12 1231 40 is_stmt 1            @ ../GUILib/src/extra/widgets/chart/lv_chart.c:1231:40
	str	r6, [sp, #124]
	mov	r6, r8
.Ltmp531:
	@DEBUG_VALUE: draw_series_bar:i <- $r6
	.loc	12 0 40 is_stmt 0               @ ../GUILib/src/extra/widgets/chart/lv_chart.c:0:40
	mov	r8, r9
	mov	r9, r10
	add.w	r10, sp, #108
	add	r7, sp, #296
	.loc	12 1233 37 is_stmt 1            @ ../GUILib/src/extra/widgets/chart/lv_chart.c:1233:37
	strd	r0, r11, [sp, #172]
	.loc	12 1234 17                      @ ../GUILib/src/extra/widgets/chart/lv_chart.c:1234:17
	mov	r0, r5
	movs	r1, #26
	mov	r2, r10
	.loc	12 1230 41                      @ ../GUILib/src/extra/widgets/chart/lv_chart.c:1230:41
	str	r7, [sp, #120]
	.loc	12 1234 17                      @ ../GUILib/src/extra/widgets/chart/lv_chart.c:1234:17
	bl	lv_event_send
.Ltmp532:
	.loc	12 1235 17                      @ ../GUILib/src/extra/widgets/chart/lv_chart.c:1235:17
	mov	r0, r7
	add	r1, sp, #232
	add	r2, sp, #244
	bl	lv_draw_rect
.Ltmp533:
	.loc	12 1236 17                      @ ../GUILib/src/extra/widgets/chart/lv_chart.c:1236:17
	mov	r0, r5
	movs	r1, #27
	mov	r2, r10
	mov	r10, r9
	mov	r9, r8
	mov	r8, r6
.Ltmp534:
	@DEBUG_VALUE: draw_series_bar:i <- $r8
	bl	lv_event_send
.Ltmp535:
	.loc	12 0 17 is_stmt 0               @ ../GUILib/src/extra/widgets/chart/lv_chart.c:0:17
	b	.LBB2_136
.Ltmp536:
	.p2align	2
.LBB2_135:                              @   in Loop: Header=BB2_130 Depth=2
	@DEBUG_VALUE: draw_series_bar:clip_area <- [DW_OP_plus_uconst 44] [$sp+0]
	@DEBUG_VALUE: draw_series_bar:ser <- $r11
	@DEBUG_VALUE: draw_series_bar:i <- $r8
	@DEBUG_VALUE: x_act <- $r1
	@DEBUG_VALUE: draw_series_bar:ser_cnt <- [DW_OP_plus_uconst 56] [$sp+0]
	@DEBUG_VALUE: draw_series_bar:pad_top <- [DW_OP_plus_uconst 68, DW_OP_deref_size 4, DW_OP_LLVM_convert 32 7, DW_OP_LLVM_convert 16 7, DW_OP_stack_value] $sp
	@DEBUG_VALUE: draw_series_bar:pad_left <- [DW_OP_plus_uconst 80, DW_OP_deref_size 4, DW_OP_LLVM_convert 32 7, DW_OP_LLVM_convert 16 7, DW_OP_stack_value] $sp
	@DEBUG_VALUE: draw_series_bar:chart <- [DW_OP_plus_uconst 88] [$sp+0]
	@DEBUG_VALUE: draw_series_bar:obj <- [DW_OP_plus_uconst 88] [$sp+0]
	@DEBUG_VALUE: lv_chart_event:obj <- [DW_OP_plus_uconst 88] [$sp+0]
	@DEBUG_VALUE: lv_chart_event:chart <- [DW_OP_plus_uconst 88] [$sp+0]
	@DEBUG_VALUE: lv_chart_event:class_p <- [DW_OP_LLVM_entry_value 1] $r0
	mov	r4, r1
.Ltmp537:
	@DEBUG_VALUE: x_act <- $r4
.LBB2_136:                              @   in Loop: Header=BB2_130 Depth=2
	@DEBUG_VALUE: draw_series_bar:clip_area <- [DW_OP_plus_uconst 44] [$sp+0]
	@DEBUG_VALUE: draw_series_bar:ser <- $r11
	@DEBUG_VALUE: draw_series_bar:i <- $r8
	@DEBUG_VALUE: draw_series_bar:ser_cnt <- [DW_OP_plus_uconst 56] [$sp+0]
	@DEBUG_VALUE: draw_series_bar:pad_top <- [DW_OP_plus_uconst 68, DW_OP_deref_size 4, DW_OP_LLVM_convert 32 7, DW_OP_LLVM_convert 16 7, DW_OP_stack_value] $sp
	@DEBUG_VALUE: draw_series_bar:pad_left <- [DW_OP_plus_uconst 80, DW_OP_deref_size 4, DW_OP_LLVM_convert 32 7, DW_OP_LLVM_convert 16 7, DW_OP_stack_value] $sp
	@DEBUG_VALUE: draw_series_bar:chart <- [DW_OP_plus_uconst 88] [$sp+0]
	@DEBUG_VALUE: draw_series_bar:obj <- [DW_OP_plus_uconst 88] [$sp+0]
	@DEBUG_VALUE: lv_chart_event:obj <- [DW_OP_plus_uconst 88] [$sp+0]
	@DEBUG_VALUE: lv_chart_event:chart <- [DW_OP_plus_uconst 88] [$sp+0]
	@DEBUG_VALUE: lv_chart_event:class_p <- [DW_OP_LLVM_entry_value 1] $r0
	@DEBUG_VALUE: x_act <- $r4
	.loc	12 1211 9 is_stmt 1             @ ../GUILib/src/extra/widgets/chart/lv_chart.c:1211:9
	ldr	r0, [sp, #84]                   @ 4-byte Reload
	mov	r1, r11
	bl	_lv_ll_get_prev
.Ltmp538:
	mov	r11, r0
.Ltmp539:
	@DEBUG_VALUE: draw_series_bar:ser <- $r11
	.loc	12 1211 9 is_stmt 0             @ ../GUILib/src/extra/widgets/chart/lv_chart.c:1211:9
	cmp	r0, #0
	mov	r1, r4
.Ltmp540:
	@DEBUG_VALUE: x_act <- $r1
	bne	.LBB2_130
.Ltmp541:
.LBB2_137:                              @   in Loop: Header=BB2_128 Depth=1
	@DEBUG_VALUE: draw_series_bar:clip_area <- [DW_OP_plus_uconst 44] [$sp+0]
	@DEBUG_VALUE: draw_series_bar:i <- $r8
	@DEBUG_VALUE: draw_series_bar:ser_cnt <- [DW_OP_plus_uconst 56] [$sp+0]
	@DEBUG_VALUE: draw_series_bar:pad_top <- [DW_OP_plus_uconst 68, DW_OP_deref_size 4, DW_OP_LLVM_convert 32 7, DW_OP_LLVM_convert 16 7, DW_OP_stack_value] $sp
	@DEBUG_VALUE: draw_series_bar:pad_left <- [DW_OP_plus_uconst 80, DW_OP_deref_size 4, DW_OP_LLVM_convert 32 7, DW_OP_LLVM_convert 16 7, DW_OP_stack_value] $sp
	@DEBUG_VALUE: draw_series_bar:chart <- [DW_OP_plus_uconst 88] [$sp+0]
	@DEBUG_VALUE: draw_series_bar:obj <- [DW_OP_plus_uconst 88] [$sp+0]
	@DEBUG_VALUE: lv_chart_event:obj <- [DW_OP_plus_uconst 88] [$sp+0]
	@DEBUG_VALUE: lv_chart_event:chart <- [DW_OP_plus_uconst 88] [$sp+0]
	@DEBUG_VALUE: lv_chart_event:class_p <- [DW_OP_LLVM_entry_value 1] $r0
	.loc	12 1205 27 is_stmt 1            @ ../GUILib/src/extra/widgets/chart/lv_chart.c:1205:27
	ldr	r0, [sp, #88]                   @ 4-byte Reload
	.loc	12 1205 39 is_stmt 0            @ ../GUILib/src/extra/widgets/chart/lv_chart.c:1205:39
	add.w	r8, r8, #1
.Ltmp542:
	@DEBUG_VALUE: draw_series_bar:i <- $r8
	.loc	12 1205 27                      @ ../GUILib/src/extra/widgets/chart/lv_chart.c:1205:27
	ldrh.w	r4, [r0, #130]
.Ltmp543:
	.loc	12 1205 5                       @ ../GUILib/src/extra/widgets/chart/lv_chart.c:1205:5
	cmp	r8, r4
	blo.w	.LBB2_128
.Ltmp544:
.LBB2_138:
	@DEBUG_VALUE: draw_series_bar:clip_area <- [DW_OP_plus_uconst 44] [$sp+0]
	@DEBUG_VALUE: draw_series_bar:ser_cnt <- [DW_OP_plus_uconst 56] [$sp+0]
	@DEBUG_VALUE: draw_series_bar:pad_top <- [DW_OP_plus_uconst 68, DW_OP_deref_size 4, DW_OP_LLVM_convert 32 7, DW_OP_LLVM_convert 16 7, DW_OP_stack_value] $sp
	@DEBUG_VALUE: draw_series_bar:pad_left <- [DW_OP_plus_uconst 80, DW_OP_deref_size 4, DW_OP_LLVM_convert 32 7, DW_OP_LLVM_convert 16 7, DW_OP_stack_value] $sp
	@DEBUG_VALUE: draw_series_bar:chart <- [DW_OP_plus_uconst 88] [$sp+0]
	@DEBUG_VALUE: draw_series_bar:obj <- [DW_OP_plus_uconst 88] [$sp+0]
	@DEBUG_VALUE: lv_chart_event:obj <- [DW_OP_plus_uconst 88] [$sp+0]
	@DEBUG_VALUE: lv_chart_event:chart <- [DW_OP_plus_uconst 88] [$sp+0]
	@DEBUG_VALUE: lv_chart_event:class_p <- [DW_OP_LLVM_entry_value 1] $r0
	.loc	12 0 5                          @ ../GUILib/src/extra/widgets/chart/lv_chart.c:0:5
	ldr	r4, [sp, #88]                   @ 4-byte Reload
	movw	r7, :lower16:lv_chart_class
	movt	r7, :upper16:lv_chart_class
.Ltmp545:
.LBB2_139:
	@DEBUG_VALUE: lv_chart_event:obj <- [DW_OP_plus_uconst 88] [$sp+0]
	@DEBUG_VALUE: lv_chart_event:chart <- [DW_OP_plus_uconst 88] [$sp+0]
	@DEBUG_VALUE: lv_chart_event:class_p <- [DW_OP_LLVM_entry_value 1] $r0
	ldr.w	r11, [sp, #44]                  @ 4-byte Reload
	add.w	r10, sp, #180
.Ltmp546:
.LBB2_140:
	@DEBUG_VALUE: lv_chart_event:obj <- [DW_OP_plus_uconst 88] [$sp+0]
	@DEBUG_VALUE: lv_chart_event:chart <- [DW_OP_plus_uconst 88] [$sp+0]
	@DEBUG_VALUE: lv_chart_event:class_p <- [DW_OP_LLVM_entry_value 1] $r0
	@DEBUG_VALUE: draw_cursors:obj <- [DW_OP_plus_uconst 88] [$sp+0]
	@DEBUG_VALUE: draw_cursors:chart <- [DW_OP_plus_uconst 88] [$sp+0]
	.loc	12 1247 32 is_stmt 1            @ ../GUILib/src/extra/widgets/chart/lv_chart.c:1247:32
	add.w	r9, r4, #48
	.loc	12 1247 8 is_stmt 0             @ ../GUILib/src/extra/widgets/chart/lv_chart.c:1247:8
	mov	r0, r9
	bl	_lv_ll_is_empty
.Ltmp547:
	.loc	12 1247 8                       @ ../GUILib/src/extra/widgets/chart/lv_chart.c:1247:8
	cmp	r0, #0
.Ltmp548:
	@DEBUG_VALUE: draw_cursors:clip_area <- $r11
	bne.w	.LBB2_162
.Ltmp549:
@ %bb.141:
	@DEBUG_VALUE: draw_cursors:clip_area <- $r11
	@DEBUG_VALUE: draw_cursors:chart <- [DW_OP_plus_uconst 88] [$sp+0]
	@DEBUG_VALUE: draw_cursors:obj <- [DW_OP_plus_uconst 88] [$sp+0]
	@DEBUG_VALUE: lv_chart_event:obj <- [DW_OP_plus_uconst 88] [$sp+0]
	@DEBUG_VALUE: lv_chart_event:chart <- [DW_OP_plus_uconst 88] [$sp+0]
	@DEBUG_VALUE: lv_chart_event:class_p <- [DW_OP_LLVM_entry_value 1] $r0
	.loc	12 0 8                          @ ../GUILib/src/extra/widgets/chart/lv_chart.c:0:8
	add	r5, sp, #296
	.loc	12 1254 5 is_stmt 1             @ ../GUILib/src/extra/widgets/chart/lv_chart.c:1254:5
	mov	r0, r5
	bl	lv_draw_line_dsc_init
.Ltmp550:
	.loc	12 1255 5                       @ ../GUILib/src/extra/widgets/chart/lv_chart.c:1255:5
	mov	r0, r4
	mov.w	r1, #458752
	mov	r2, r5
	mov.w	r8, #458752
	bl	lv_obj_init_draw_line_dsc
.Ltmp551:
	.loc	12 0 5 is_stmt 0                @ ../GUILib/src/extra/widgets/chart/lv_chart.c:0:5
	add	r0, sp, #244
	.loc	12 1258 5 is_stmt 1             @ ../GUILib/src/extra/widgets/chart/lv_chart.c:1258:5
	bl	lv_draw_rect_dsc_init
.Ltmp552:
	.loc	12 1259 41                      @ ../GUILib/src/extra/widgets/chart/lv_chart.c:1259:41
	ldrb.w	r0, [sp, #304]
.Ltmp553:
	.loc	18 3 26                         @ ../GUILib/src/core/lv_obj_style_gen.h:3:26
	mov.w	r1, #458752
.Ltmp554:
	.loc	12 1259 26                      @ ../GUILib/src/extra/widgets/chart/lv_chart.c:1259:26
	strb.w	r0, [sp, #254]
	movw	r0, #32767
	.loc	12 1260 26                      @ ../GUILib/src/extra/widgets/chart/lv_chart.c:1260:26
	strh.w	r0, [sp, #244]
.Ltmp555:
	@DEBUG_VALUE: lv_obj_get_style_width:part <- 458752
	@DEBUG_VALUE: lv_obj_get_style_width:obj <- [DW_OP_plus_uconst 88] [$sp+0]
