	.text
	.syntax unified
	.eabi_attribute	67, "2.09"	@ Tag_conformance
	.cpu	cortex-m4
	.eabi_attribute	6, 13	@ Tag_CPU_arch
	.eabi_attribute	7, 77	@ Tag_CPU_arch_profile
	.eabi_attribute	8, 0	@ Tag_ARM_ISA_use
	.eabi_attribute	9, 2	@ Tag_THUMB_ISA_use
	.fpu	fpv4-sp-d16
	.eabi_attribute	27, 1	@ Tag_ABI_HardFP_use
	.eabi_attribute	36, 1	@ Tag_FP_HP_extension
	.eabi_attribute	34, 1	@ Tag_CPU_unaligned_access
	.eabi_attribute	17, 1	@ Tag_ABI_PCS_GOT_use
	.eabi_attribute	20, 2	@ Tag_ABI_FP_denormal
	.eabi_attribute	21, 0	@ Tag_ABI_FP_exceptions
	.eabi_attribute	23, 1	@ Tag_ABI_FP_number_model
	.eabi_attribute	24, 1	@ Tag_ABI_align_needed
	.eabi_attribute	25, 1	@ Tag_ABI_align_preserved
	.eabi_attribute	28, 1	@ Tag_ABI_VFP_args
	.eabi_attribute	38, 1	@ Tag_ABI_FP_16bit_format
	.eabi_attribute	18, 2	@ Tag_ABI_PCS_wchar_t
	.eabi_attribute	26, 1	@ Tag_ABI_enum_size
	.eabi_attribute	14, 0	@ Tag_ABI_PCS_R9_use
	.file	"lv_color.c"
	.file	1 "D:\\Keil MDK\\ARM\\ARMCLANG\\Bin\\..\\include" "stdint.h"
	.file	2 "C:\\Users\\Hyacincher\\Desktop\\HyTelectrl\\Code\\Project" "../GUILib/src/misc/lv_color.h"
	.file	3 "C:\\Users\\Hyacincher\\Desktop\\HyTelectrl\\Code\\Project" "../GUILib/src/misc/lv_color.c"
	.section	.text.lv_color_fill,"ax",%progbits
	.hidden	lv_color_fill                   @ -- Begin function lv_color_fill
	.globl	lv_color_fill
	.p2align	1
	.type	lv_color_fill,%function
	.code	16                              @ @lv_color_fill
	.thumb_func
lv_color_fill:
.Lfunc_begin0:
	.loc	3 37 0                          @ ../GUILib/src/misc/lv_color.c:37:0
	.fnstart
	.cfi_sections .debug_frame
	.cfi_startproc
@ %bb.0:
	@DEBUG_VALUE: lv_color_fill:buf <- $r0
	@DEBUG_VALUE: lv_color_fill:buf <- $r0
	@DEBUG_VALUE: lv_color_fill:px_num <- $r2
	@DEBUG_VALUE: lv_color_fill:px_num <- $r2
	@DEBUG_VALUE: lv_color_fill:color <- [DW_OP_LLVM_convert 32 7, DW_OP_LLVM_convert 16 7, DW_OP_stack_value] undef
	@DEBUG_VALUE: lv_color_fill:buf_int <- $r0
	.loc	3 40 8 prologue_end             @ ../GUILib/src/misc/lv_color.c:40:8
	lsls	r3, r0, #30
.Ltmp0:
	.loc	3 41 16                         @ ../GUILib/src/misc/lv_color.c:41:16
	itt	ne
	strhne	r1, [r0], #2
.Ltmp1:
	@DEBUG_VALUE: lv_color_fill:buf <- [DW_OP_LLVM_entry_value 1] $r0
	@DEBUG_VALUE: lv_color_fill:buf <- $r0
	.loc	3 43 15                         @ ../GUILib/src/misc/lv_color.c:43:15
	subne	r2, #1
.Ltmp2:
	@DEBUG_VALUE: lv_color_fill:px_num <- [DW_OP_LLVM_entry_value 1] $r2
	@DEBUG_VALUE: lv_color_fill:px_num <- $r2
	@DEBUG_VALUE: lv_color_fill:buf <- $r0
	@DEBUG_VALUE: lv_color_fill:px_num <- $r2
	@DEBUG_VALUE: lv_color_fill:c32 <- undef
	@DEBUG_VALUE: lv_color_fill:buf32 <- $r0
	.loc	3 49 5                          @ ../GUILib/src/misc/lv_color.c:49:5
	cmp	r2, #17
	blo	.LBB0_3
.Ltmp3:
@ %bb.1:
	@DEBUG_VALUE: lv_color_fill:px_num <- $r2
	@DEBUG_VALUE: lv_color_fill:buf32 <- $r0
	@DEBUG_VALUE: lv_color_fill:buf <- $r0
	.loc	3 0 0 is_stmt 0                 @ ../GUILib/src/misc/lv_color.c:0:0
	pkhbt	r3, r1, r1, lsl #16
.Ltmp4:
	@DEBUG_VALUE: lv_color_fill:c32 <- $r3
	.p2align	2
.LBB0_2:                                @ =>This Inner Loop Header: Depth=1
	@DEBUG_VALUE: lv_color_fill:c32 <- $r3
	@DEBUG_VALUE: lv_color_fill:px_num <- $r2
	@DEBUG_VALUE: lv_color_fill:buf32 <- $r0
	@DEBUG_VALUE: lv_color_fill:px_num <- $r2
	@DEBUG_VALUE: lv_color_fill:buf32 <- [DW_OP_plus_uconst 28, DW_OP_stack_value] $r0
	.loc	3 68 16 is_stmt 1               @ ../GUILib/src/misc/lv_color.c:68:16
	subs	r2, #16
.Ltmp5:
	@DEBUG_VALUE: lv_color_fill:px_num <- [DW_OP_LLVM_entry_value 1] $r2
	@DEBUG_VALUE: lv_color_fill:px_num <- [DW_OP_LLVM_entry_value 1] $r2
	@DEBUG_VALUE: lv_color_fill:px_num <- $r2
	.loc	3 50 16                         @ ../GUILib/src/misc/lv_color.c:50:16
	strd	r3, r3, [r0]
	.loc	3 54 16                         @ ../GUILib/src/misc/lv_color.c:54:16
	strd	r3, r3, [r0, #8]
	.loc	3 59 16                         @ ../GUILib/src/misc/lv_color.c:59:16
	strd	r3, r3, [r0, #16]
	.loc	3 63 16                         @ ../GUILib/src/misc/lv_color.c:63:16
	strd	r3, r3, [r0, #24]
.Ltmp6:
	.loc	3 49 5                          @ ../GUILib/src/misc/lv_color.c:49:5
	cmp	r2, #16
.Ltmp7:
	.loc	3 66 14                         @ ../GUILib/src/misc/lv_color.c:66:14
	add.w	r0, r0, #32
.Ltmp8:
	@DEBUG_VALUE: lv_color_fill:buf <- [DW_OP_LLVM_entry_value 1] $r0
	@DEBUG_VALUE: lv_color_fill:buf32 <- $r0
	.loc	3 49 5                          @ ../GUILib/src/misc/lv_color.c:49:5
	bhi	.LBB0_2
	b	.LBB0_4
.Ltmp9:
.LBB0_3:
	@DEBUG_VALUE: lv_color_fill:px_num <- $r2
	@DEBUG_VALUE: lv_color_fill:buf32 <- $r0
	@DEBUG_VALUE: lv_color_fill:buf <- $r0
	@DEBUG_VALUE: lv_color_fill:buf <- $r0
	@DEBUG_VALUE: lv_color_fill:px_num <- $r2
	.loc	3 73 5                          @ ../GUILib/src/misc/lv_color.c:73:5
	cbz	r2, .LBB0_5
.Ltmp10:
	.p2align	2
.LBB0_4:                                @ =>This Inner Loop Header: Depth=1
	@DEBUG_VALUE: lv_color_fill:px_num <- $r2
	@DEBUG_VALUE: lv_color_fill:buf <- $r0
	@DEBUG_VALUE: lv_color_fill:px_num <- $r2
	.loc	3 76 15                         @ ../GUILib/src/misc/lv_color.c:76:15
	subs	r2, #1
.Ltmp11:
	@DEBUG_VALUE: lv_color_fill:px_num <- [DW_OP_LLVM_entry_value 1] $r2
	@DEBUG_VALUE: lv_color_fill:px_num <- [DW_OP_LLVM_entry_value 1] $r2
	@DEBUG_VALUE: lv_color_fill:px_num <- $r2
	.loc	3 74 16                         @ ../GUILib/src/misc/lv_color.c:74:16
	strh	r1, [r0], #2
.Ltmp12:
	@DEBUG_VALUE: lv_color_fill:buf <- [DW_OP_LLVM_entry_value 1] $r0
	@DEBUG_VALUE: lv_color_fill:buf <- [DW_OP_LLVM_entry_value 1] $r0
	@DEBUG_VALUE: lv_color_fill:buf <- $r0
	.loc	3 73 5                          @ ../GUILib/src/misc/lv_color.c:73:5
	bne	.LBB0_4
.Ltmp13:
.LBB0_5:
	@DEBUG_VALUE: lv_color_fill:px_num <- $r2
	@DEBUG_VALUE: lv_color_fill:buf <- $r0
	.loc	3 124 1                         @ ../GUILib/src/misc/lv_color.c:124:1
	bx	lr
.Ltmp14:
.Lfunc_end0:
	.size	lv_color_fill, .Lfunc_end0-lv_color_fill
	.cfi_endproc
	.cantunwind
	.fnend
                                        @ -- End function
	.section	.text.lv_color_lighten,"ax",%progbits
	.hidden	lv_color_lighten                @ -- Begin function lv_color_lighten
	.globl	lv_color_lighten
	.p2align	1
	.type	lv_color_lighten,%function
	.code	16                              @ @lv_color_lighten
	.thumb_func
lv_color_lighten:
.Lfunc_begin1:
	.loc	3 127 0                         @ ../GUILib/src/misc/lv_color.c:127:0
	.fnstart
	.cfi_startproc
@ %bb.0:
	@DEBUG_VALUE: lv_color_lighten:lvl <- $r1
	@DEBUG_VALUE: lv_color_lighten:lvl <- $r1
	@DEBUG_VALUE: lv_color_lighten:c <- [DW_OP_LLVM_convert 32 7, DW_OP_LLVM_convert 16 7, DW_OP_stack_value] $r0
	@DEBUG_VALUE: lv_color_mix:c1 <- [DW_OP_LLVM_convert 32 7, DW_OP_LLVM_convert 16 7, DW_OP_stack_value] 65535
	@DEBUG_VALUE: lv_color_mix:c2 <- [DW_OP_constu 65535, DW_OP_and, DW_OP_LLVM_convert 32 7, DW_OP_LLVM_convert 16 7, DW_OP_stack_value] $r0
	@DEBUG_VALUE: lv_color_mix:mix <- undef
	movw	r2, #63519
.Ltmp15:
	.loc	2 450 30 prologue_end           @ ../GUILib/src/misc/lv_color.h:450:30
	ands	r2, r0
	.loc	2 450 77 is_stmt 0              @ ../GUILib/src/misc/lv_color.h:450:77
	and	r0, r0, #2016
.Ltmp16:
	orr.w	r0, r2, r0, lsl #16
.Ltmp17:
	@DEBUG_VALUE: lv_color_mix:bg <- $r0
	.loc	2 0 77                          @ ../GUILib/src/misc/lv_color.h:0:77
	movw	r2, #63519
	.loc	2 449 16 is_stmt 1              @ ../GUILib/src/misc/lv_color.h:449:16
	adds	r1, #4
.Ltmp18:
	@DEBUG_VALUE: lv_color_lighten:lvl <- [DW_OP_LLVM_entry_value 1] $r1
	.loc	2 0 16 is_stmt 0                @ ../GUILib/src/misc/lv_color.h:0:16
	movt	r2, #2016
.Ltmp19:
	@DEBUG_VALUE: lv_color_mix:fg <- 132184095
	.loc	2 449 21                        @ ../GUILib/src/misc/lv_color.h:449:21
	lsrs	r1, r1, #3
.Ltmp20:
	@DEBUG_VALUE: lv_color_mix:mix <- [DW_OP_LLVM_convert 16 7, DW_OP_LLVM_convert 8 7, DW_OP_stack_value] $r1
	.loc	2 453 30 is_stmt 1              @ ../GUILib/src/misc/lv_color.h:453:30
	subs	r3, r2, r0
	.loc	2 453 36 is_stmt 0              @ ../GUILib/src/misc/lv_color.h:453:36
	muls	r1, r3, r1
.Ltmp21:
	.loc	2 453 49                        @ ../GUILib/src/misc/lv_color.h:453:49
	add.w	r0, r0, r1, lsr #5
.Ltmp22:
	.loc	2 453 55                        @ ../GUILib/src/misc/lv_color.h:453:55
	ands	r0, r2
.Ltmp23:
	@DEBUG_VALUE: lv_color_mix:result <- $r0
	.loc	2 454 42 is_stmt 1              @ ../GUILib/src/misc/lv_color.h:454:42
	orr.w	r0, r0, r0, lsr #16
.Ltmp24:
	@DEBUG_VALUE: lv_color_mix:ret <- $r0
	.loc	3 128 5                         @ ../GUILib/src/misc/lv_color.c:128:5
	bx	lr
.Ltmp25:
.Lfunc_end1:
	.size	lv_color_lighten, .Lfunc_end1-lv_color_lighten
	.cfi_endproc
	.cantunwind
	.fnend
                                        @ -- End function
	.section	.text.lv_color_darken,"ax",%progbits
	.hidden	lv_color_darken                 @ -- Begin function lv_color_darken
	.globl	lv_color_darken
	.p2align	1
	.type	lv_color_darken,%function
	.code	16                              @ @lv_color_darken
	.thumb_func
lv_color_darken:
.Lfunc_begin2:
	.loc	3 132 0                         @ ../GUILib/src/misc/lv_color.c:132:0
	.fnstart
	.cfi_startproc
@ %bb.0:
	@DEBUG_VALUE: lv_color_darken:lvl <- $r1
	@DEBUG_VALUE: lv_color_darken:lvl <- $r1
	@DEBUG_VALUE: lv_color_darken:c <- [DW_OP_LLVM_convert 32 7, DW_OP_LLVM_convert 16 7, DW_OP_stack_value] $r0
	@DEBUG_VALUE: lv_color_mix:c1 <- [DW_OP_LLVM_convert 32 7, DW_OP_LLVM_convert 16 7, DW_OP_stack_value] 0
	@DEBUG_VALUE: lv_color_mix:c2 <- [DW_OP_constu 65535, DW_OP_and, DW_OP_LLVM_convert 32 7, DW_OP_LLVM_convert 16 7, DW_OP_stack_value] $r0
	@DEBUG_VALUE: lv_color_mix:mix <- undef
	movw	r2, #63519
.Ltmp26:
	.loc	2 449 16 prologue_end           @ ../GUILib/src/misc/lv_color.h:449:16
	adds	r1, #4
.Ltmp27:
	@DEBUG_VALUE: lv_color_darken:lvl <- [DW_OP_LLVM_entry_value 1] $r1
	.loc	2 450 30                        @ ../GUILib/src/misc/lv_color.h:450:30
	ands	r2, r0
	.loc	2 450 77 is_stmt 0              @ ../GUILib/src/misc/lv_color.h:450:77
	and	r0, r0, #2016
.Ltmp28:
	.loc	2 449 21 is_stmt 1              @ ../GUILib/src/misc/lv_color.h:449:21
	lsrs	r1, r1, #3
.Ltmp29:
	@DEBUG_VALUE: lv_color_mix:mix <- [DW_OP_LLVM_convert 16 7, DW_OP_LLVM_convert 8 7, DW_OP_stack_value] $r1
	.loc	2 450 77                        @ ../GUILib/src/misc/lv_color.h:450:77
	orr.w	r0, r2, r0, lsl #16
.Ltmp30:
	@DEBUG_VALUE: lv_color_mix:fg <- 0
	@DEBUG_VALUE: lv_color_mix:bg <- $r0
	.loc	2 453 36                        @ ../GUILib/src/misc/lv_color.h:453:36
	muls	r1, r0, r1
.Ltmp31:
	rsbs	r1, r1, #0
	.loc	2 453 49 is_stmt 0              @ ../GUILib/src/misc/lv_color.h:453:49
	add.w	r0, r0, r1, lsr #5
.Ltmp32:
	.loc	2 0 49                          @ ../GUILib/src/misc/lv_color.h:0:49
	movw	r1, #63519
	movt	r1, #2016
	.loc	2 453 55                        @ ../GUILib/src/misc/lv_color.h:453:55
	ands	r0, r1
.Ltmp33:
	@DEBUG_VALUE: lv_color_mix:result <- $r0
	.loc	2 454 42 is_stmt 1              @ ../GUILib/src/misc/lv_color.h:454:42
	orr.w	r0, r0, r0, lsr #16
.Ltmp34:
	@DEBUG_VALUE: lv_color_mix:ret <- $r0
	.loc	3 133 5                         @ ../GUILib/src/misc/lv_color.c:133:5
	bx	lr
.Ltmp35:
.Lfunc_end2:
	.size	lv_color_darken, .Lfunc_end2-lv_color_darken
	.cfi_endproc
	.cantunwind
	.fnend
                                        @ -- End function
	.section	.text.lv_color_change_lightness,"ax",%progbits
	.hidden	lv_color_change_lightness       @ -- Begin function lv_color_change_lightness
	.globl	lv_color_change_lightness
	.p2align	1
	.type	lv_color_change_lightness,%function
	.code	16                              @ @lv_color_change_lightness
	.thumb_func
lv_color_change_lightness:
.Lfunc_begin3:
	.loc	3 137 0                         @ ../GUILib/src/misc/lv_color.c:137:0
	.fnstart
	.cfi_startproc
@ %bb.0:
	@DEBUG_VALUE: lv_color_change_lightness:lvl <- $r1
	@DEBUG_VALUE: lv_color_change_lightness:lvl <- $r1
	.loc	3 139 8 prologue_end            @ ../GUILib/src/misc/lv_color.c:139:8
	cmp	r1, #127
.Ltmp36:
	@DEBUG_VALUE: lv_color_change_lightness:c <- [DW_OP_LLVM_convert 32 7, DW_OP_LLVM_convert 16 7, DW_OP_stack_value] $r0
	.loc	3 142 1                         @ ../GUILib/src/misc/lv_color.c:142:1
	it	eq
	bxeq	lr
.Ltmp37:
.LBB3_1:
	@DEBUG_VALUE: lv_color_change_lightness:lvl <- $r1
	@DEBUG_VALUE: lv_color_change_lightness:c <- [DW_OP_LLVM_convert 32 7, DW_OP_LLVM_convert 16 7, DW_OP_stack_value] $r0
	.loc	3 0 1 is_stmt 0                 @ ../GUILib/src/misc/lv_color.c:0:1
	movw	r2, #63519
.Ltmp38:
	.loc	3 140 13 is_stmt 1              @ ../GUILib/src/misc/lv_color.c:140:13
	cmp	r1, #126
	movt	r2, #2016
	bhi	.LBB3_3
.Ltmp39:
@ %bb.2:
	@DEBUG_VALUE: lv_color_change_lightness:lvl <- $r1
	@DEBUG_VALUE: lv_color_change_lightness:c <- [DW_OP_LLVM_convert 32 7, DW_OP_LLVM_convert 16 7, DW_OP_stack_value] $r0
	.loc	3 0 13 is_stmt 0                @ ../GUILib/src/misc/lv_color.c:0:13
	mvn	r3, #1
.Ltmp40:
	.loc	3 140 74                        @ ../GUILib/src/misc/lv_color.c:140:74
	sub.w	r1, r3, r1, lsl #1
.Ltmp41:
	@DEBUG_VALUE: lv_color_change_lightness:lvl <- [DW_OP_LLVM_entry_value 1] $r1
	.loc	3 0 74                          @ ../GUILib/src/misc/lv_color.c:0:74
	movs	r3, #4
.Ltmp42:
	@DEBUG_VALUE: lv_color_mix:c2 <- [DW_OP_constu 65535, DW_OP_and, DW_OP_constu 65535, DW_OP_and, DW_OP_LLVM_convert 32 7, DW_OP_LLVM_convert 16 7, DW_OP_stack_value] undef
	@DEBUG_VALUE: lv_color_mix:c1 <- [DW_OP_LLVM_convert 32 7, DW_OP_LLVM_convert 16 7, DW_OP_stack_value] 0
	@DEBUG_VALUE: lv_color_darken:c <- [DW_OP_constu 65535, DW_OP_and, DW_OP_LLVM_convert 32 7, DW_OP_LLVM_convert 16 7, DW_OP_stack_value] undef
	@DEBUG_VALUE: lv_color_mix:mix <- $r1
	@DEBUG_VALUE: lv_color_darken:lvl <- $r1
	.loc	2 449 16 is_stmt 1              @ ../GUILib/src/misc/lv_color.h:449:16
	uxtab	r1, r3, r1
.Ltmp43:
	.loc	2 0 16 is_stmt 0                @ ../GUILib/src/misc/lv_color.h:0:16
	movw	r3, #63519
	.loc	2 450 30 is_stmt 1              @ ../GUILib/src/misc/lv_color.h:450:30
	ands	r3, r0
	.loc	2 450 77 is_stmt 0              @ ../GUILib/src/misc/lv_color.h:450:77
	and	r0, r0, #2016
.Ltmp44:
	.loc	2 449 21 is_stmt 1              @ ../GUILib/src/misc/lv_color.h:449:21
	lsrs	r1, r1, #3
.Ltmp45:
	@DEBUG_VALUE: lv_color_mix:mix <- [DW_OP_LLVM_convert 16 7, DW_OP_LLVM_convert 8 7, DW_OP_stack_value] $r1
	.loc	2 450 77                        @ ../GUILib/src/misc/lv_color.h:450:77
	orr.w	r0, r3, r0, lsl #16
.Ltmp46:
	@DEBUG_VALUE: lv_color_mix:fg <- 0
	@DEBUG_VALUE: lv_color_mix:bg <- $r0
	.loc	2 453 36                        @ ../GUILib/src/misc/lv_color.h:453:36
	muls	r1, r0, r1
.Ltmp47:
	rsbs	r1, r1, #0
	b	.LBB3_4
.Ltmp48:
.LBB3_3:
	@DEBUG_VALUE: lv_color_change_lightness:lvl <- $r1
	@DEBUG_VALUE: lv_color_change_lightness:c <- [DW_OP_LLVM_convert 32 7, DW_OP_LLVM_convert 16 7, DW_OP_stack_value] $r0
	.loc	2 0 36 is_stmt 0                @ ../GUILib/src/misc/lv_color.h:0:36
	movs	r3, #2
	.loc	3 141 55 is_stmt 1              @ ../GUILib/src/misc/lv_color.c:141:55
	add.w	r1, r3, r1, lsl #1
.Ltmp49:
	@DEBUG_VALUE: lv_color_change_lightness:lvl <- [DW_OP_LLVM_entry_value 1] $r1
	.loc	3 0 55 is_stmt 0                @ ../GUILib/src/misc/lv_color.c:0:55
	movs	r3, #4
.Ltmp50:
	@DEBUG_VALUE: lv_color_mix:c2 <- [DW_OP_constu 65535, DW_OP_and, DW_OP_constu 65535, DW_OP_and, DW_OP_LLVM_convert 32 7, DW_OP_LLVM_convert 16 7, DW_OP_stack_value] undef
	@DEBUG_VALUE: lv_color_mix:c1 <- [DW_OP_LLVM_convert 32 7, DW_OP_LLVM_convert 16 7, DW_OP_stack_value] 65535
	@DEBUG_VALUE: lv_color_lighten:c <- [DW_OP_constu 65535, DW_OP_and, DW_OP_LLVM_convert 32 7, DW_OP_LLVM_convert 16 7, DW_OP_stack_value] undef
	@DEBUG_VALUE: lv_color_mix:mix <- $r1
	@DEBUG_VALUE: lv_color_lighten:lvl <- $r1
	.loc	2 449 16 is_stmt 1              @ ../GUILib/src/misc/lv_color.h:449:16
	uxtab	r1, r3, r1
.Ltmp51:
	.loc	2 0 16 is_stmt 0                @ ../GUILib/src/misc/lv_color.h:0:16
	movw	r3, #63519
	.loc	2 450 30 is_stmt 1              @ ../GUILib/src/misc/lv_color.h:450:30
	ands	r3, r0
	.loc	2 450 77 is_stmt 0              @ ../GUILib/src/misc/lv_color.h:450:77
	and	r0, r0, #2016
.Ltmp52:
	orr.w	r0, r3, r0, lsl #16
.Ltmp53:
	@DEBUG_VALUE: lv_color_mix:fg <- 132184095
	@DEBUG_VALUE: lv_color_mix:bg <- $r0
	.loc	2 449 21 is_stmt 1              @ ../GUILib/src/misc/lv_color.h:449:21
	lsrs	r1, r1, #3
.Ltmp54:
	@DEBUG_VALUE: lv_color_mix:mix <- [DW_OP_LLVM_convert 16 7, DW_OP_LLVM_convert 8 7, DW_OP_stack_value] $r1
	.loc	2 453 30                        @ ../GUILib/src/misc/lv_color.h:453:30
	subs	r3, r2, r0
	.loc	2 453 36 is_stmt 0              @ ../GUILib/src/misc/lv_color.h:453:36
	muls	r1, r3, r1
.Ltmp55:
.LBB3_4:
	@DEBUG_VALUE: lv_color_change_lightness:lvl <- [DW_OP_LLVM_entry_value 1] $r1
	.loc	3 0 0                           @ ../GUILib/src/misc/lv_color.c:0:0
	add.w	r0, r0, r1, lsr #5
	ands	r0, r2
	@DEBUG_VALUE: lv_color_mix:result <- $r0
	orr.w	r0, r0, r0, lsr #16
.Ltmp56:
	@DEBUG_VALUE: lv_color_mix:ret <- [DW_OP_LLVM_convert 32 7, DW_OP_LLVM_convert 16 7, DW_OP_stack_value] $r0
	.loc	3 142 1 is_stmt 1               @ ../GUILib/src/misc/lv_color.c:142:1
	bx	lr
.Ltmp57:
.Lfunc_end3:
	.size	lv_color_change_lightness, .Lfunc_end3-lv_color_change_lightness
	.cfi_endproc
	.cantunwind
	.fnend
                                        @ -- End function
	.section	.text.lv_color_hsv_to_rgb,"ax",%progbits
	.hidden	lv_color_hsv_to_rgb             @ -- Begin function lv_color_hsv_to_rgb
	.globl	lv_color_hsv_to_rgb
	.p2align	2
	.type	lv_color_hsv_to_rgb,%function
	.code	16                              @ @lv_color_hsv_to_rgb
	.thumb_func
lv_color_hsv_to_rgb:
.Lfunc_begin4:
	.loc	3 152 0                         @ ../GUILib/src/misc/lv_color.c:152:0
	.fnstart
	.cfi_startproc
@ %bb.0:
	@DEBUG_VALUE: lv_color_hsv_to_rgb:h <- $r0
	@DEBUG_VALUE: lv_color_hsv_to_rgb:s <- $r1
	@DEBUG_VALUE: lv_color_hsv_to_rgb:s <- $r1
	@DEBUG_VALUE: lv_color_hsv_to_rgb:v <- $r2
	.save	{r4, r5, r6, lr}
	push	{r4, r5, r6, lr}
	.cfi_def_cfa_offset 16
	.cfi_offset lr, -4
	.cfi_offset r6, -8
	.cfi_offset r5, -12
	.cfi_offset r4, -16
	movw	r3, #34079
.Ltmp58:
	.loc	3 154 32 prologue_end           @ ../GUILib/src/misc/lv_color.c:154:32
	rsb	r1, r1, r1, lsl #8
.Ltmp59:
	@DEBUG_VALUE: lv_color_hsv_to_rgb:s <- [DW_OP_LLVM_entry_value 1] $r1
	.loc	3 0 32 is_stmt 0                @ ../GUILib/src/misc/lv_color.c:0:32
	movt	r3, #20971
	.loc	3 154 39                        @ ../GUILib/src/misc/lv_color.c:154:39
	umull	r1, r5, r1, r3
	@DEBUG_VALUE: lv_color_hsv_to_rgb:v <- $r2
.Ltmp60:
	@DEBUG_VALUE: lv_color_hsv_to_rgb:s <- [DW_OP_LLVM_convert 16 7, DW_OP_LLVM_convert 8 7, DW_OP_stack_value] undef
	.loc	3 155 32 is_stmt 1              @ ../GUILib/src/misc/lv_color.c:155:32
	rsb	r1, r2, r2, lsl #8
	.loc	3 155 39 is_stmt 0              @ ../GUILib/src/misc/lv_color.c:155:39
	umull	r1, r3, r1, r3
.Ltmp61:
	@DEBUG_VALUE: lv_color_hsv_to_rgb:h <- [DW_OP_LLVM_convert 32 7, DW_OP_LLVM_convert 16 7, DW_OP_stack_value] undef
	.loc	3 161 8 is_stmt 1               @ ../GUILib/src/misc/lv_color.c:161:8
	ubfx	r2, r5, #5, #8
.Ltmp62:
	@DEBUG_VALUE: lv_color_hsv_to_rgb:v <- [DW_OP_LLVM_entry_value 1] $r2
	.loc	3 161 8 is_stmt 0               @ ../GUILib/src/misc/lv_color.c:161:8
	cmp	r2, #0
	.loc	3 155 39 is_stmt 1              @ ../GUILib/src/misc/lv_color.c:155:39
	lsr.w	r1, r3, #5
.Ltmp63:
	@DEBUG_VALUE: lv_color_hsv_to_rgb:v <- [DW_OP_LLVM_convert 16 7, DW_OP_LLVM_convert 8 7, DW_OP_stack_value] $r1
	.loc	3 161 8                         @ ../GUILib/src/misc/lv_color.c:161:8
	beq	.LBB4_5
.Ltmp64:
@ %bb.1:
	@DEBUG_VALUE: lv_color_hsv_to_rgb:v <- [DW_OP_LLVM_convert 16 7, DW_OP_LLVM_convert 8 7, DW_OP_stack_value] $r1
	.loc	3 153 32                        @ ../GUILib/src/misc/lv_color.c:153:32
	rsb	r0, r0, r0, lsl #8
	movw	r5, #27671
	.loc	3 153 39 is_stmt 0              @ ../GUILib/src/misc/lv_color.c:153:39
	lsrs	r3, r0, #3
	movt	r5, #5825
	umull	r3, r5, r3, r5
	movw	r3, #51887
	movt	r3, #17340
.Ltmp65:
	@DEBUG_VALUE: lv_color_hsv_to_rgb:h <- undef
	.loc	3 165 19 is_stmt 1              @ ../GUILib/src/misc/lv_color.c:165:19
	umull	r0, r3, r0, r3
	lsrs	r0, r3, #12
.Ltmp66:
	@DEBUG_VALUE: lv_color_hsv_to_rgb:region <- $r0
	.loc	3 0 19 is_stmt 0                @ ../GUILib/src/misc/lv_color.c:0:19
	mvn	r4, #42
	.loc	3 166 30 is_stmt 1              @ ../GUILib/src/misc/lv_color.c:166:30
	muls	r0, r4, r0
.Ltmp67:
	.loc	3 166 20 is_stmt 0              @ ../GUILib/src/misc/lv_color.c:166:20
	add.w	r0, r0, r5, lsr #2
	.loc	3 166 17                        @ ../GUILib/src/misc/lv_color.c:166:17
	add.w	r0, r0, r0, lsl #1
	lsls	r5, r0, #1
.Ltmp68:
	@DEBUG_VALUE: lv_color_hsv_to_rgb:remainder <- [DW_OP_LLVM_convert 32 7, DW_OP_LLVM_convert 8 7, DW_OP_constu 6, DW_OP_mul, DW_OP_stack_value] undef
	.loc	3 168 10 is_stmt 1              @ ../GUILib/src/misc/lv_color.c:168:10
	uxtb	r0, r1
	.loc	3 168 19 is_stmt 0              @ ../GUILib/src/misc/lv_color.c:168:19
	eor	r4, r2, #255
	.loc	3 168 12                        @ ../GUILib/src/misc/lv_color.c:168:12
	muls	r4, r0, r4
	.loc	3 168 25                        @ ../GUILib/src/misc/lv_color.c:168:25
	lsr.w	lr, r4, #8
.Ltmp69:
	@DEBUG_VALUE: lv_color_hsv_to_rgb:p <- undef
	.loc	3 169 27 is_stmt 1              @ ../GUILib/src/misc/lv_color.c:169:27
	uxtb	r4, r5
	.loc	3 169 25 is_stmt 0              @ ../GUILib/src/misc/lv_color.c:169:25
	mul	r5, r4, r2
	movs	r6, #255
	.loc	3 169 19                        @ ../GUILib/src/misc/lv_color.c:169:19
	eor.w	r5, r6, r5, lsr #8
	.loc	3 166 23 is_stmt 1              @ ../GUILib/src/misc/lv_color.c:166:23
	ubfx	r3, r3, #12, #8
	.loc	3 169 12                        @ ../GUILib/src/misc/lv_color.c:169:12
	muls	r5, r0, r5
	.loc	3 172 5                         @ ../GUILib/src/misc/lv_color.c:172:5
	cmp	r3, #4
	.loc	3 169 46                        @ ../GUILib/src/misc/lv_color.c:169:46
	lsr.w	r12, r5, #8
.Ltmp70:
	@DEBUG_VALUE: lv_color_hsv_to_rgb:t <- undef
	@DEBUG_VALUE: lv_color_hsv_to_rgb:q <- [DW_OP_LLVM_convert 32 7, DW_OP_LLVM_convert 8 7, DW_OP_stack_value] $r12
	.loc	3 172 5                         @ ../GUILib/src/misc/lv_color.c:172:5
	bhi	.LBB4_6
.Ltmp71:
@ %bb.2:
	@DEBUG_VALUE: lv_color_hsv_to_rgb:q <- [DW_OP_LLVM_convert 32 7, DW_OP_LLVM_convert 8 7, DW_OP_stack_value] $r12
	@DEBUG_VALUE: lv_color_hsv_to_rgb:v <- [DW_OP_LLVM_convert 16 7, DW_OP_LLVM_convert 8 7, DW_OP_stack_value] $r1
	.loc	3 0 5 is_stmt 0                 @ ../GUILib/src/misc/lv_color.c:0:5
	eor	r4, r4, #255
	muls	r2, r4, r2
	eor.w	r2, r6, r2, lsr #8
	muls	r0, r2, r0
	lsrs	r2, r0, #8
.LCPI4_0:
	tbb	[pc, r3]
.Ltmp72:
@ %bb.3:
.LJTI4_0:
	.byte	(.LBB4_11-(.LCPI4_0+4))/2
	.byte	(.LBB4_4-(.LCPI4_0+4))/2
	.byte	(.LBB4_7-(.LCPI4_0+4))/2
	.byte	(.LBB4_8-(.LCPI4_0+4))/2
	.byte	(.LBB4_9-(.LCPI4_0+4))/2
	.p2align	1
.LBB4_4:
.Ltmp73:
	@DEBUG_VALUE: lv_color_hsv_to_rgb:q <- [DW_OP_LLVM_convert 32 7, DW_OP_LLVM_convert 8 7, DW_OP_stack_value] $r12
	@DEBUG_VALUE: lv_color_hsv_to_rgb:v <- [DW_OP_LLVM_convert 16 7, DW_OP_LLVM_convert 8 7, DW_OP_stack_value] $r1
	@DEBUG_VALUE: lv_color_hsv_to_rgb:r <- [DW_OP_LLVM_convert 32 7, DW_OP_LLVM_convert 8 7, DW_OP_stack_value] $r12
	@DEBUG_VALUE: lv_color_hsv_to_rgb:g <- [DW_OP_LLVM_convert 16 7, DW_OP_LLVM_convert 8 7, DW_OP_stack_value] $r1
	@DEBUG_VALUE: lv_color_hsv_to_rgb:b <- $lr
	mov	r2, r1
.Ltmp74:
	@DEBUG_VALUE: lv_color_hsv_to_rgb:g <- [DW_OP_LLVM_convert 16 7, DW_OP_LLVM_convert 8 7, DW_OP_stack_value] $r2
	mov	r1, r12
.Ltmp75:
	@DEBUG_VALUE: lv_color_hsv_to_rgb:r <- [DW_OP_LLVM_convert 32 7, DW_OP_LLVM_convert 8 7, DW_OP_stack_value] $r1
	b	.LBB4_11
.Ltmp76:
.LBB4_5:
	@DEBUG_VALUE: lv_color_hsv_to_rgb:v <- [DW_OP_LLVM_convert 16 7, DW_OP_LLVM_convert 8 7, DW_OP_stack_value] $r1
	.loc	3 155 9 is_stmt 1               @ ../GUILib/src/misc/lv_color.c:155:9
	uxtb	r1, r1
.Ltmp77:
	@DEBUG_VALUE: lv_color_make:b <- [DW_OP_LLVM_convert 16 7, DW_OP_LLVM_convert 8 7, DW_OP_stack_value] undef
	@DEBUG_VALUE: lv_color_make:g <- [DW_OP_LLVM_convert 16 7, DW_OP_LLVM_convert 8 7, DW_OP_stack_value] undef
	@DEBUG_VALUE: lv_color_make:r <- [DW_OP_LLVM_convert 16 7, DW_OP_LLVM_convert 8 7, DW_OP_stack_value] undef
	.loc	2 594 39                        @ ../GUILib/src/misc/lv_color.h:594:39
	lsrs	r2, r1, #3
	mvn	r0, #24
	lsls	r2, r2, #11
	and.w	r0, r0, r1, lsl #3
	orr.w	r1, r2, r1, lsr #3
	b	.LBB4_12
.Ltmp78:
.LBB4_6:
	@DEBUG_VALUE: lv_color_hsv_to_rgb:q <- [DW_OP_LLVM_convert 32 7, DW_OP_LLVM_convert 8 7, DW_OP_stack_value] $r12
	@DEBUG_VALUE: lv_color_hsv_to_rgb:v <- [DW_OP_LLVM_convert 16 7, DW_OP_LLVM_convert 8 7, DW_OP_stack_value] $r1
	.loc	3 168 9                         @ ../GUILib/src/misc/lv_color.c:168:9
	mov	r2, lr
.Ltmp79:
	@DEBUG_VALUE: lv_color_hsv_to_rgb:b <- [DW_OP_LLVM_convert 32 7, DW_OP_LLVM_convert 8 7, DW_OP_stack_value] undef
	@DEBUG_VALUE: lv_color_hsv_to_rgb:g <- undef
	@DEBUG_VALUE: lv_color_hsv_to_rgb:r <- [DW_OP_LLVM_convert 16 7, DW_OP_LLVM_convert 8 7, DW_OP_stack_value] $r1
	.loc	3 0 0 is_stmt 0                 @ ../GUILib/src/misc/lv_color.c:0:0
	mov	lr, r12
.Ltmp80:
	@DEBUG_VALUE: lv_color_hsv_to_rgb:q <- [DW_OP_LLVM_convert 32 7, DW_OP_LLVM_convert 8 7, DW_OP_stack_value] $lr
	b	.LBB4_11
.Ltmp81:
.LBB4_7:
	@DEBUG_VALUE: lv_color_hsv_to_rgb:q <- [DW_OP_LLVM_convert 32 7, DW_OP_LLVM_convert 8 7, DW_OP_stack_value] $r12
	@DEBUG_VALUE: lv_color_hsv_to_rgb:v <- [DW_OP_LLVM_convert 16 7, DW_OP_LLVM_convert 8 7, DW_OP_stack_value] $r1
	.loc	3 168 9                         @ ../GUILib/src/misc/lv_color.c:168:9
	mov	r0, lr
.Ltmp82:
	@DEBUG_VALUE: lv_color_hsv_to_rgb:b <- $r2
	@DEBUG_VALUE: lv_color_hsv_to_rgb:g <- [DW_OP_LLVM_convert 16 7, DW_OP_LLVM_convert 8 7, DW_OP_stack_value] $r1
	@DEBUG_VALUE: lv_color_hsv_to_rgb:r <- undef
	.loc	3 0 0                           @ ../GUILib/src/misc/lv_color.c:0:0
	mov	lr, r2
.Ltmp83:
	@DEBUG_VALUE: lv_color_hsv_to_rgb:b <- $lr
	@DEBUG_VALUE: lv_color_hsv_to_rgb:b <- $lr
	mov	r2, r1
.Ltmp84:
	@DEBUG_VALUE: lv_color_hsv_to_rgb:g <- [DW_OP_LLVM_convert 16 7, DW_OP_LLVM_convert 8 7, DW_OP_stack_value] $r2
	b	.LBB4_10
.Ltmp85:
.LBB4_8:
	@DEBUG_VALUE: lv_color_hsv_to_rgb:q <- [DW_OP_LLVM_convert 32 7, DW_OP_LLVM_convert 8 7, DW_OP_stack_value] $r12
	@DEBUG_VALUE: lv_color_hsv_to_rgb:v <- [DW_OP_LLVM_convert 16 7, DW_OP_LLVM_convert 8 7, DW_OP_stack_value] $r1
	.loc	3 168 9                         @ ../GUILib/src/misc/lv_color.c:168:9
	mov	r0, lr
.Ltmp86:
	@DEBUG_VALUE: lv_color_hsv_to_rgb:b <- [DW_OP_LLVM_convert 16 7, DW_OP_LLVM_convert 8 7, DW_OP_stack_value] $r1
	@DEBUG_VALUE: lv_color_hsv_to_rgb:g <- [DW_OP_LLVM_convert 32 7, DW_OP_LLVM_convert 8 7, DW_OP_stack_value] $r12
	@DEBUG_VALUE: lv_color_hsv_to_rgb:r <- undef
	.loc	3 0 0                           @ ../GUILib/src/misc/lv_color.c:0:0
	mov	lr, r1
.Ltmp87:
	@DEBUG_VALUE: lv_color_hsv_to_rgb:v <- [DW_OP_LLVM_convert 16 7, DW_OP_LLVM_convert 8 7, DW_OP_stack_value] $lr
	@DEBUG_VALUE: lv_color_hsv_to_rgb:b <- [DW_OP_LLVM_convert 16 7, DW_OP_LLVM_convert 8 7, DW_OP_stack_value] $lr
	mov	r2, r12
.Ltmp88:
	@DEBUG_VALUE: lv_color_hsv_to_rgb:g <- [DW_OP_LLVM_convert 32 7, DW_OP_LLVM_convert 8 7, DW_OP_stack_value] $r2
	b	.LBB4_10
.Ltmp89:
.LBB4_9:
	@DEBUG_VALUE: lv_color_hsv_to_rgb:q <- [DW_OP_LLVM_convert 32 7, DW_OP_LLVM_convert 8 7, DW_OP_stack_value] $r12
	@DEBUG_VALUE: lv_color_hsv_to_rgb:v <- [DW_OP_LLVM_convert 16 7, DW_OP_LLVM_convert 8 7, DW_OP_stack_value] $r1
	.loc	3 170 9 is_stmt 1               @ ../GUILib/src/misc/lv_color.c:170:9
	mov	r0, r2
	.loc	3 168 9                         @ ../GUILib/src/misc/lv_color.c:168:9
	mov	r2, lr
.Ltmp90:
	@DEBUG_VALUE: lv_color_hsv_to_rgb:b <- [DW_OP_LLVM_convert 16 7, DW_OP_LLVM_convert 8 7, DW_OP_stack_value] $r1
	@DEBUG_VALUE: lv_color_hsv_to_rgb:g <- undef
	@DEBUG_VALUE: lv_color_hsv_to_rgb:r <- $r2
	.loc	3 0 0 is_stmt 0                 @ ../GUILib/src/misc/lv_color.c:0:0
	mov	lr, r1
.Ltmp91:
	@DEBUG_VALUE: lv_color_hsv_to_rgb:v <- [DW_OP_LLVM_convert 16 7, DW_OP_LLVM_convert 8 7, DW_OP_stack_value] $lr
	@DEBUG_VALUE: lv_color_hsv_to_rgb:b <- [DW_OP_LLVM_convert 16 7, DW_OP_LLVM_convert 8 7, DW_OP_stack_value] $lr
.LBB4_10:
	@DEBUG_VALUE: lv_color_hsv_to_rgb:q <- [DW_OP_LLVM_convert 32 7, DW_OP_LLVM_convert 8 7, DW_OP_stack_value] $r12
	mov	r1, r0
.Ltmp92:
.LBB4_11:
	@DEBUG_VALUE: lv_color_hsv_to_rgb:r <- $r1
	@DEBUG_VALUE: lv_color_hsv_to_rgb:g <- $r2
	@DEBUG_VALUE: lv_color_hsv_to_rgb:b <- $lr
	@DEBUG_VALUE: lv_color_make:r <- $r1
	@DEBUG_VALUE: lv_color_make:g <- $r2
	@DEBUG_VALUE: lv_color_make:b <- $lr
	.loc	2 594 39 is_stmt 1              @ ../GUILib/src/misc/lv_color.h:594:39
	and	r0, r2, #252
	uxtb.w	r3, lr
	lsls	r2, r0, #3
.Ltmp93:
	and	r0, r1, #248
	lsls	r0, r0, #8
	orr.w	r1, r2, r3, lsr #3
.Ltmp94:
.LBB4_12:
	.loc	3 0 0 is_stmt 0                 @ ../GUILib/src/misc/lv_color.c:0:0
	orrs	r0, r1
.Ltmp95:
	@DEBUG_VALUE: lv_color_hsv_to_rgb:result <- undef
	.loc	3 207 1 is_stmt 1               @ ../GUILib/src/misc/lv_color.c:207:1
	pop	{r4, r5, r6, pc}
.Ltmp96:
.Lfunc_end4:
	.size	lv_color_hsv_to_rgb, .Lfunc_end4-lv_color_hsv_to_rgb
	.cfi_endproc
	.cantunwind
	.fnend
                                        @ -- End function
	.section	.text.lv_color_rgb_to_hsv,"ax",%progbits
	.hidden	lv_color_rgb_to_hsv             @ -- Begin function lv_color_rgb_to_hsv
	.globl	lv_color_rgb_to_hsv
	.p2align	1
	.type	lv_color_rgb_to_hsv,%function
	.code	16                              @ @lv_color_rgb_to_hsv
	.thumb_func
lv_color_rgb_to_hsv:
.Lfunc_begin5:
	.loc	3 217 0                         @ ../GUILib/src/misc/lv_color.c:217:0
	.fnstart
	.cfi_startproc
@ %bb.0:
	@DEBUG_VALUE: lv_color_rgb_to_hsv:r8 <- $r0
	@DEBUG_VALUE: lv_color_rgb_to_hsv:r8 <- $r0
	@DEBUG_VALUE: lv_color_rgb_to_hsv:g8 <- $r1
	@DEBUG_VALUE: lv_color_rgb_to_hsv:b8 <- $r2
	.save	{r4, r5, r6, lr}
	push	{r4, r5, r6, lr}
	.cfi_def_cfa_offset 16
	.cfi_offset lr, -4
	.cfi_offset r6, -8
	.cfi_offset r5, -12
	.cfi_offset r4, -16
	movw	r5, #32897
	movt	r5, #32896
.Ltmp97:
	.loc	3 219 32 prologue_end           @ ../GUILib/src/misc/lv_color.c:219:32
	lsls	r1, r1, #10
.Ltmp98:
	@DEBUG_VALUE: lv_color_rgb_to_hsv:g8 <- [DW_OP_LLVM_entry_value 1] $r1
	.loc	3 219 39 is_stmt 0              @ ../GUILib/src/misc/lv_color.c:219:39
	umull	r1, r3, r1, r5
	@DEBUG_VALUE: lv_color_rgb_to_hsv:b8 <- $r2
	.loc	3 220 32 is_stmt 1              @ ../GUILib/src/misc/lv_color.c:220:32
	lsls	r1, r2, #10
	.loc	3 218 32                        @ ../GUILib/src/misc/lv_color.c:218:32
	lsls	r0, r0, #10
.Ltmp99:
	@DEBUG_VALUE: lv_color_rgb_to_hsv:r8 <- [DW_OP_LLVM_entry_value 1] $r0
	.loc	3 220 39                        @ ../GUILib/src/misc/lv_color.c:220:39
	umull	r1, r2, r1, r5
.Ltmp100:
	@DEBUG_VALUE: lv_color_rgb_to_hsv:b8 <- [DW_OP_LLVM_entry_value 1] $r2
	.loc	3 218 39                        @ ../GUILib/src/misc/lv_color.c:218:39
	umull	r4, r0, r0, r5
.Ltmp101:
	@DEBUG_VALUE: lv_color_rgb_to_hsv:r <- [DW_OP_LLVM_convert 32 7, DW_OP_LLVM_convert 16 7, DW_OP_stack_value] undef
	@DEBUG_VALUE: lv_color_rgb_to_hsv:g8 <- $r1
	.loc	3 220 39                        @ ../GUILib/src/misc/lv_color.c:220:39
	lsrs	r6, r2, #7
.Ltmp102:
	@DEBUG_VALUE: lv_color_rgb_to_hsv:b <- [DW_OP_LLVM_convert 32 7, DW_OP_LLVM_convert 16 7, DW_OP_stack_value] $r6
	.loc	3 222 23                        @ ../GUILib/src/misc/lv_color.c:222:23
	cmp.w	r6, r0, lsr #7
	mov	r5, r6
	.loc	3 219 39                        @ ../GUILib/src/misc/lv_color.c:219:39
	lsr.w	r1, r3, #7
.Ltmp103:
	@DEBUG_VALUE: lv_color_rgb_to_hsv:g8 <- [DW_OP_LLVM_entry_value 1] $r1
	@DEBUG_VALUE: lv_color_rgb_to_hsv:g <- [DW_OP_LLVM_convert 32 7, DW_OP_LLVM_convert 16 7, DW_OP_stack_value] $r1
	.loc	3 222 23                        @ ../GUILib/src/misc/lv_color.c:222:23
	it	hi
	lsrhi	r5, r0, #7
	cmp.w	r5, r3, lsr #7
	it	hs
	movhs	r5, r1
.Ltmp104:
	@DEBUG_VALUE: lv_color_rgb_to_hsv:rgbMin <- [DW_OP_LLVM_convert 32 7, DW_OP_LLVM_convert 16 7, DW_OP_stack_value] $r5
	.loc	3 223 23                        @ ../GUILib/src/misc/lv_color.c:223:23
	cmp.w	r6, r0, lsr #7
	mov	r4, r6
	mov	r2, r1
	it	lo
	lsrlo	r4, r0, #7
	cmp.w	r4, r3, lsr #7
	it	hi
	movhi	r2, r4
.Ltmp105:
	@DEBUG_VALUE: lv_color_rgb_to_hsv:hsv <- [DW_OP_constu 100, DW_OP_mul, DW_OP_constu 10, DW_OP_shr, DW_OP_LLVM_convert 32 7, DW_OP_LLVM_convert 8 7, DW_OP_stack_value, DW_OP_LLVM_fragment 24 8] $r2
	@DEBUG_VALUE: lv_color_rgb_to_hsv:rgbMax <- $r2
	.loc	3 230 28                        @ ../GUILib/src/misc/lv_color.c:230:28
	sub.w	lr, r2, r5
.Ltmp106:
	@DEBUG_VALUE: lv_color_rgb_to_hsv:delta <- $lr
	.loc	3 231 8                         @ ../GUILib/src/misc/lv_color.c:231:8
	cmp.w	lr, #3
	bge	.LBB5_2
.Ltmp107:
@ %bb.1:
	@DEBUG_VALUE: lv_color_rgb_to_hsv:b <- [DW_OP_LLVM_convert 32 7, DW_OP_LLVM_convert 16 7, DW_OP_stack_value] $r6
	@DEBUG_VALUE: lv_color_rgb_to_hsv:rgbMin <- [DW_OP_LLVM_convert 32 7, DW_OP_LLVM_convert 16 7, DW_OP_stack_value] $r5
	@DEBUG_VALUE: lv_color_rgb_to_hsv:rgbMax <- $r2
	@DEBUG_VALUE: lv_color_rgb_to_hsv:hsv <- [DW_OP_constu 100, DW_OP_mul, DW_OP_constu 10, DW_OP_shr, DW_OP_LLVM_convert 32 7, DW_OP_LLVM_convert 8 7, DW_OP_stack_value, DW_OP_LLVM_fragment 24 8] $r2
	@DEBUG_VALUE: lv_color_rgb_to_hsv:g <- [DW_OP_LLVM_convert 32 7, DW_OP_LLVM_convert 16 7, DW_OP_stack_value] $r1
	@DEBUG_VALUE: lv_color_rgb_to_hsv:delta <- $lr
	@DEBUG_VALUE: lv_color_rgb_to_hsv:b8 <- [DW_OP_LLVM_entry_value 1] $r2
	@DEBUG_VALUE: lv_color_rgb_to_hsv:r8 <- [DW_OP_LLVM_entry_value 1] $r0
	@DEBUG_VALUE: lv_color_rgb_to_hsv:g8 <- [DW_OP_LLVM_entry_value 1] $r1
	.loc	3 0 8 is_stmt 0                 @ ../GUILib/src/misc/lv_color.c:0:8
	movs	r0, #0
	mov.w	r12, #0
	b	.LBB5_11
.Ltmp108:
.LBB5_2:
	@DEBUG_VALUE: lv_color_rgb_to_hsv:b <- [DW_OP_LLVM_convert 32 7, DW_OP_LLVM_convert 16 7, DW_OP_stack_value] $r6
	@DEBUG_VALUE: lv_color_rgb_to_hsv:rgbMin <- [DW_OP_LLVM_convert 32 7, DW_OP_LLVM_convert 16 7, DW_OP_stack_value] $r5
	@DEBUG_VALUE: lv_color_rgb_to_hsv:rgbMax <- $r2
	@DEBUG_VALUE: lv_color_rgb_to_hsv:hsv <- [DW_OP_constu 100, DW_OP_mul, DW_OP_constu 10, DW_OP_shr, DW_OP_LLVM_convert 32 7, DW_OP_LLVM_convert 8 7, DW_OP_stack_value, DW_OP_LLVM_fragment 24 8] $r2
	@DEBUG_VALUE: lv_color_rgb_to_hsv:g <- [DW_OP_LLVM_convert 32 7, DW_OP_LLVM_convert 16 7, DW_OP_stack_value] $r1
	@DEBUG_VALUE: lv_color_rgb_to_hsv:delta <- $lr
	@DEBUG_VALUE: lv_color_rgb_to_hsv:b8 <- [DW_OP_LLVM_entry_value 1] $r2
	@DEBUG_VALUE: lv_color_rgb_to_hsv:r8 <- [DW_OP_LLVM_entry_value 1] $r0
	@DEBUG_VALUE: lv_color_rgb_to_hsv:g8 <- [DW_OP_LLVM_entry_value 1] $r1
	@DEBUG_VALUE: lv_color_rgb_to_hsv:r <- [DW_OP_LLVM_convert 32 7, DW_OP_LLVM_convert 16 7, DW_OP_stack_value] undef
	movs	r3, #100
	.loc	3 238 17 is_stmt 1              @ ../GUILib/src/misc/lv_color.c:238:17
	mul	r3, lr, r3
	.loc	3 238 25 is_stmt 0              @ ../GUILib/src/misc/lv_color.c:238:25
	sdiv	r12, r3, r2
.Ltmp109:
	@DEBUG_VALUE: lv_color_rgb_to_hsv:hsv <- [DW_OP_LLVM_convert 32 7, DW_OP_LLVM_convert 8 7, DW_OP_stack_value, DW_OP_LLVM_fragment 16 8] $r12
	.loc	3 239 8 is_stmt 1               @ ../GUILib/src/misc/lv_color.c:239:8
	uxtb.w	r3, r12
.Ltmp110:
	.loc	3 239 8 is_stmt 0               @ ../GUILib/src/misc/lv_color.c:239:8
	cmp	r3, #3
	bhs	.LBB5_4
.Ltmp111:
.LBB5_3:
	@DEBUG_VALUE: lv_color_rgb_to_hsv:hsv <- [DW_OP_LLVM_convert 32 7, DW_OP_LLVM_convert 8 7, DW_OP_stack_value, DW_OP_LLVM_fragment 16 8] $r12
	@DEBUG_VALUE: lv_color_rgb_to_hsv:b <- [DW_OP_LLVM_convert 32 7, DW_OP_LLVM_convert 16 7, DW_OP_stack_value] $r6
	@DEBUG_VALUE: lv_color_rgb_to_hsv:rgbMin <- [DW_OP_LLVM_convert 32 7, DW_OP_LLVM_convert 16 7, DW_OP_stack_value] $r5
	@DEBUG_VALUE: lv_color_rgb_to_hsv:rgbMax <- $r2
	@DEBUG_VALUE: lv_color_rgb_to_hsv:hsv <- [DW_OP_constu 100, DW_OP_mul, DW_OP_constu 10, DW_OP_shr, DW_OP_LLVM_convert 32 7, DW_OP_LLVM_convert 8 7, DW_OP_stack_value, DW_OP_LLVM_fragment 24 8] $r2
	@DEBUG_VALUE: lv_color_rgb_to_hsv:g <- [DW_OP_LLVM_convert 32 7, DW_OP_LLVM_convert 16 7, DW_OP_stack_value] $r1
	@DEBUG_VALUE: lv_color_rgb_to_hsv:delta <- $lr
	@DEBUG_VALUE: lv_color_rgb_to_hsv:b8 <- [DW_OP_LLVM_entry_value 1] $r2
	@DEBUG_VALUE: lv_color_rgb_to_hsv:r8 <- [DW_OP_LLVM_entry_value 1] $r0
	@DEBUG_VALUE: lv_color_rgb_to_hsv:g8 <- [DW_OP_LLVM_entry_value 1] $r1
	.loc	3 0 8                           @ ../GUILib/src/misc/lv_color.c:0:8
	movs	r0, #0
	b	.LBB5_11
.Ltmp112:
.LBB5_4:
	@DEBUG_VALUE: lv_color_rgb_to_hsv:hsv <- [DW_OP_LLVM_convert 32 7, DW_OP_LLVM_convert 8 7, DW_OP_stack_value, DW_OP_LLVM_fragment 16 8] $r12
	@DEBUG_VALUE: lv_color_rgb_to_hsv:b <- [DW_OP_LLVM_convert 32 7, DW_OP_LLVM_convert 16 7, DW_OP_stack_value] $r6
	@DEBUG_VALUE: lv_color_rgb_to_hsv:rgbMin <- [DW_OP_LLVM_convert 32 7, DW_OP_LLVM_convert 16 7, DW_OP_stack_value] $r5
	@DEBUG_VALUE: lv_color_rgb_to_hsv:rgbMax <- $r2
	@DEBUG_VALUE: lv_color_rgb_to_hsv:hsv <- [DW_OP_constu 100, DW_OP_mul, DW_OP_constu 10, DW_OP_shr, DW_OP_LLVM_convert 32 7, DW_OP_LLVM_convert 8 7, DW_OP_stack_value, DW_OP_LLVM_fragment 24 8] $r2
	@DEBUG_VALUE: lv_color_rgb_to_hsv:g <- [DW_OP_LLVM_convert 32 7, DW_OP_LLVM_convert 16 7, DW_OP_stack_value] $r1
	@DEBUG_VALUE: lv_color_rgb_to_hsv:delta <- $lr
	@DEBUG_VALUE: lv_color_rgb_to_hsv:b8 <- [DW_OP_LLVM_entry_value 1] $r2
	@DEBUG_VALUE: lv_color_rgb_to_hsv:r8 <- [DW_OP_LLVM_entry_value 1] $r0
	@DEBUG_VALUE: lv_color_rgb_to_hsv:g8 <- [DW_OP_LLVM_entry_value 1] $r1
	lsrs	r0, r0, #7
.Ltmp113:
	@DEBUG_VALUE: lv_color_rgb_to_hsv:r <- [DW_OP_LLVM_convert 32 7, DW_OP_LLVM_convert 16 7, DW_OP_stack_value] $r0
	.loc	3 246 8 is_stmt 1               @ ../GUILib/src/misc/lv_color.c:246:8
	cmp	r2, r0
	bne	.LBB5_6
.Ltmp114:
@ %bb.5:
	@DEBUG_VALUE: lv_color_rgb_to_hsv:hsv <- [DW_OP_LLVM_convert 32 7, DW_OP_LLVM_convert 8 7, DW_OP_stack_value, DW_OP_LLVM_fragment 16 8] $r12
	@DEBUG_VALUE: lv_color_rgb_to_hsv:b <- [DW_OP_LLVM_convert 32 7, DW_OP_LLVM_convert 16 7, DW_OP_stack_value] $r6
	@DEBUG_VALUE: lv_color_rgb_to_hsv:rgbMin <- [DW_OP_LLVM_convert 32 7, DW_OP_LLVM_convert 16 7, DW_OP_stack_value] $r5
	@DEBUG_VALUE: lv_color_rgb_to_hsv:rgbMax <- $r2
	@DEBUG_VALUE: lv_color_rgb_to_hsv:hsv <- [DW_OP_constu 100, DW_OP_mul, DW_OP_constu 10, DW_OP_shr, DW_OP_LLVM_convert 32 7, DW_OP_LLVM_convert 8 7, DW_OP_stack_value, DW_OP_LLVM_fragment 24 8] $r2
	@DEBUG_VALUE: lv_color_rgb_to_hsv:g <- [DW_OP_LLVM_convert 32 7, DW_OP_LLVM_convert 16 7, DW_OP_stack_value] $r1
	@DEBUG_VALUE: lv_color_rgb_to_hsv:r <- [DW_OP_LLVM_convert 32 7, DW_OP_LLVM_convert 16 7, DW_OP_stack_value] $r0
	@DEBUG_VALUE: lv_color_rgb_to_hsv:delta <- $lr
	@DEBUG_VALUE: lv_color_rgb_to_hsv:b8 <- [DW_OP_LLVM_entry_value 1] $r2
	@DEBUG_VALUE: lv_color_rgb_to_hsv:r8 <- [DW_OP_LLVM_entry_value 1] $r0
	@DEBUG_VALUE: lv_color_rgb_to_hsv:g8 <- [DW_OP_LLVM_entry_value 1] $r1
	.loc	3 247 18                        @ ../GUILib/src/misc/lv_color.c:247:18
	subs	r0, r1, r6
.Ltmp115:
	.loc	3 247 23 is_stmt 0              @ ../GUILib/src/misc/lv_color.c:247:23
	lsl.w	r0, r0, #10
	.loc	3 247 30                        @ ../GUILib/src/misc/lv_color.c:247:30
	sdiv	r0, r0, lr
	.loc	3 247 39                        @ ../GUILib/src/misc/lv_color.c:247:39
	it	lo
	addlo.w	r0, r0, #6144
.Ltmp116:
	@DEBUG_VALUE: lv_color_rgb_to_hsv:h <- $r0
	.loc	3 0 39                          @ ../GUILib/src/misc/lv_color.c:0:39
	b	.LBB5_10
.Ltmp117:
.LBB5_6:
	@DEBUG_VALUE: lv_color_rgb_to_hsv:hsv <- [DW_OP_LLVM_convert 32 7, DW_OP_LLVM_convert 8 7, DW_OP_stack_value, DW_OP_LLVM_fragment 16 8] $r12
	@DEBUG_VALUE: lv_color_rgb_to_hsv:b <- [DW_OP_LLVM_convert 32 7, DW_OP_LLVM_convert 16 7, DW_OP_stack_value] $r6
	@DEBUG_VALUE: lv_color_rgb_to_hsv:rgbMin <- [DW_OP_LLVM_convert 32 7, DW_OP_LLVM_convert 16 7, DW_OP_stack_value] $r5
	@DEBUG_VALUE: lv_color_rgb_to_hsv:rgbMax <- $r2
	@DEBUG_VALUE: lv_color_rgb_to_hsv:hsv <- [DW_OP_constu 100, DW_OP_mul, DW_OP_constu 10, DW_OP_shr, DW_OP_LLVM_convert 32 7, DW_OP_LLVM_convert 8 7, DW_OP_stack_value, DW_OP_LLVM_fragment 24 8] $r2
	@DEBUG_VALUE: lv_color_rgb_to_hsv:g <- [DW_OP_LLVM_convert 32 7, DW_OP_LLVM_convert 16 7, DW_OP_stack_value] $r1
	@DEBUG_VALUE: lv_color_rgb_to_hsv:r <- [DW_OP_LLVM_convert 32 7, DW_OP_LLVM_convert 16 7, DW_OP_stack_value] $r0
	@DEBUG_VALUE: lv_color_rgb_to_hsv:delta <- $lr
	@DEBUG_VALUE: lv_color_rgb_to_hsv:b8 <- [DW_OP_LLVM_entry_value 1] $r2
	@DEBUG_VALUE: lv_color_rgb_to_hsv:r8 <- [DW_OP_LLVM_entry_value 1] $r0
	@DEBUG_VALUE: lv_color_rgb_to_hsv:g8 <- [DW_OP_LLVM_entry_value 1] $r1
	.loc	3 248 13 is_stmt 1              @ ../GUILib/src/misc/lv_color.c:248:13
	cmp	r4, r1
	bls	.LBB5_9
.Ltmp118:
@ %bb.7:
	@DEBUG_VALUE: lv_color_rgb_to_hsv:hsv <- [DW_OP_LLVM_convert 32 7, DW_OP_LLVM_convert 8 7, DW_OP_stack_value, DW_OP_LLVM_fragment 16 8] $r12
	@DEBUG_VALUE: lv_color_rgb_to_hsv:b <- [DW_OP_LLVM_convert 32 7, DW_OP_LLVM_convert 16 7, DW_OP_stack_value] $r6
	@DEBUG_VALUE: lv_color_rgb_to_hsv:rgbMin <- [DW_OP_LLVM_convert 32 7, DW_OP_LLVM_convert 16 7, DW_OP_stack_value] $r5
	@DEBUG_VALUE: lv_color_rgb_to_hsv:rgbMax <- $r2
	@DEBUG_VALUE: lv_color_rgb_to_hsv:hsv <- [DW_OP_constu 100, DW_OP_mul, DW_OP_constu 10, DW_OP_shr, DW_OP_LLVM_convert 32 7, DW_OP_LLVM_convert 8 7, DW_OP_stack_value, DW_OP_LLVM_fragment 24 8] $r2
	@DEBUG_VALUE: lv_color_rgb_to_hsv:g <- [DW_OP_LLVM_convert 32 7, DW_OP_LLVM_convert 16 7, DW_OP_stack_value] $r1
	@DEBUG_VALUE: lv_color_rgb_to_hsv:r <- [DW_OP_LLVM_convert 32 7, DW_OP_LLVM_convert 16 7, DW_OP_stack_value] $r0
	@DEBUG_VALUE: lv_color_rgb_to_hsv:delta <- $lr
	@DEBUG_VALUE: lv_color_rgb_to_hsv:b8 <- [DW_OP_LLVM_entry_value 1] $r2
	@DEBUG_VALUE: lv_color_rgb_to_hsv:r8 <- [DW_OP_LLVM_entry_value 1] $r0
	@DEBUG_VALUE: lv_color_rgb_to_hsv:g8 <- [DW_OP_LLVM_entry_value 1] $r1
	.loc	3 250 13                        @ ../GUILib/src/misc/lv_color.c:250:13
	cmp	r2, r6
	bne	.LBB5_3
.Ltmp119:
@ %bb.8:
	@DEBUG_VALUE: lv_color_rgb_to_hsv:hsv <- [DW_OP_LLVM_convert 32 7, DW_OP_LLVM_convert 8 7, DW_OP_stack_value, DW_OP_LLVM_fragment 16 8] $r12
	@DEBUG_VALUE: lv_color_rgb_to_hsv:b <- [DW_OP_LLVM_convert 32 7, DW_OP_LLVM_convert 16 7, DW_OP_stack_value] $r6
	@DEBUG_VALUE: lv_color_rgb_to_hsv:rgbMin <- [DW_OP_LLVM_convert 32 7, DW_OP_LLVM_convert 16 7, DW_OP_stack_value] $r5
	@DEBUG_VALUE: lv_color_rgb_to_hsv:rgbMax <- $r2
	@DEBUG_VALUE: lv_color_rgb_to_hsv:hsv <- [DW_OP_constu 100, DW_OP_mul, DW_OP_constu 10, DW_OP_shr, DW_OP_LLVM_convert 32 7, DW_OP_LLVM_convert 8 7, DW_OP_stack_value, DW_OP_LLVM_fragment 24 8] $r2
	@DEBUG_VALUE: lv_color_rgb_to_hsv:g <- [DW_OP_LLVM_convert 32 7, DW_OP_LLVM_convert 16 7, DW_OP_stack_value] $r1
	@DEBUG_VALUE: lv_color_rgb_to_hsv:r <- [DW_OP_LLVM_convert 32 7, DW_OP_LLVM_convert 16 7, DW_OP_stack_value] $r0
	@DEBUG_VALUE: lv_color_rgb_to_hsv:delta <- $lr
	@DEBUG_VALUE: lv_color_rgb_to_hsv:b8 <- [DW_OP_LLVM_entry_value 1] $r2
	@DEBUG_VALUE: lv_color_rgb_to_hsv:r8 <- [DW_OP_LLVM_entry_value 1] $r0
	@DEBUG_VALUE: lv_color_rgb_to_hsv:g8 <- [DW_OP_LLVM_entry_value 1] $r1
	.loc	3 251 18                        @ ../GUILib/src/misc/lv_color.c:251:18
	subs	r0, r0, r1
.Ltmp120:
	.loc	3 251 23 is_stmt 0              @ ../GUILib/src/misc/lv_color.c:251:23
	lsls	r0, r0, #10
	.loc	3 251 30                        @ ../GUILib/src/misc/lv_color.c:251:30
	sdiv	r0, r0, lr
	.loc	3 251 39                        @ ../GUILib/src/misc/lv_color.c:251:39
	add.w	r0, r0, #4096
.Ltmp121:
	@DEBUG_VALUE: lv_color_rgb_to_hsv:h <- $r0
	.loc	3 0 39                          @ ../GUILib/src/misc/lv_color.c:0:39
	b	.LBB5_10
.Ltmp122:
.LBB5_9:
	@DEBUG_VALUE: lv_color_rgb_to_hsv:hsv <- [DW_OP_LLVM_convert 32 7, DW_OP_LLVM_convert 8 7, DW_OP_stack_value, DW_OP_LLVM_fragment 16 8] $r12
	@DEBUG_VALUE: lv_color_rgb_to_hsv:b <- [DW_OP_LLVM_convert 32 7, DW_OP_LLVM_convert 16 7, DW_OP_stack_value] $r6
	@DEBUG_VALUE: lv_color_rgb_to_hsv:rgbMin <- [DW_OP_LLVM_convert 32 7, DW_OP_LLVM_convert 16 7, DW_OP_stack_value] $r5
	@DEBUG_VALUE: lv_color_rgb_to_hsv:rgbMax <- $r2
	@DEBUG_VALUE: lv_color_rgb_to_hsv:hsv <- [DW_OP_constu 100, DW_OP_mul, DW_OP_constu 10, DW_OP_shr, DW_OP_LLVM_convert 32 7, DW_OP_LLVM_convert 8 7, DW_OP_stack_value, DW_OP_LLVM_fragment 24 8] $r2
	@DEBUG_VALUE: lv_color_rgb_to_hsv:g <- [DW_OP_LLVM_convert 32 7, DW_OP_LLVM_convert 16 7, DW_OP_stack_value] $r1
	@DEBUG_VALUE: lv_color_rgb_to_hsv:r <- [DW_OP_LLVM_convert 32 7, DW_OP_LLVM_convert 16 7, DW_OP_stack_value] $r0
	@DEBUG_VALUE: lv_color_rgb_to_hsv:delta <- $lr
	@DEBUG_VALUE: lv_color_rgb_to_hsv:b8 <- [DW_OP_LLVM_entry_value 1] $r2
	@DEBUG_VALUE: lv_color_rgb_to_hsv:r8 <- [DW_OP_LLVM_entry_value 1] $r0
	@DEBUG_VALUE: lv_color_rgb_to_hsv:g8 <- [DW_OP_LLVM_entry_value 1] $r1
	.loc	3 249 18 is_stmt 1              @ ../GUILib/src/misc/lv_color.c:249:18
	subs	r0, r6, r0
.Ltmp123:
	.loc	3 249 23 is_stmt 0              @ ../GUILib/src/misc/lv_color.c:249:23
	lsls	r0, r0, #10
	.loc	3 249 30                        @ ../GUILib/src/misc/lv_color.c:249:30
	sdiv	r0, r0, lr
	.loc	3 249 39                        @ ../GUILib/src/misc/lv_color.c:249:39
	add.w	r0, r0, #2048
.Ltmp124:
	@DEBUG_VALUE: lv_color_rgb_to_hsv:h <- $r0
.LBB5_10:
	@DEBUG_VALUE: lv_color_rgb_to_hsv:hsv <- [DW_OP_LLVM_convert 32 7, DW_OP_LLVM_convert 8 7, DW_OP_stack_value, DW_OP_LLVM_fragment 16 8] $r12
	@DEBUG_VALUE: lv_color_rgb_to_hsv:b <- [DW_OP_LLVM_convert 32 7, DW_OP_LLVM_convert 16 7, DW_OP_stack_value] $r6
	@DEBUG_VALUE: lv_color_rgb_to_hsv:rgbMin <- [DW_OP_LLVM_convert 32 7, DW_OP_LLVM_convert 16 7, DW_OP_stack_value] $r5
	@DEBUG_VALUE: lv_color_rgb_to_hsv:rgbMax <- $r2
	@DEBUG_VALUE: lv_color_rgb_to_hsv:hsv <- [DW_OP_constu 100, DW_OP_mul, DW_OP_constu 10, DW_OP_shr, DW_OP_LLVM_convert 32 7, DW_OP_LLVM_convert 8 7, DW_OP_stack_value, DW_OP_LLVM_fragment 24 8] $r2
	@DEBUG_VALUE: lv_color_rgb_to_hsv:g <- [DW_OP_LLVM_convert 32 7, DW_OP_LLVM_convert 16 7, DW_OP_stack_value] $r1
	@DEBUG_VALUE: lv_color_rgb_to_hsv:h <- $r0
	@DEBUG_VALUE: lv_color_rgb_to_hsv:delta <- $lr
	@DEBUG_VALUE: lv_color_rgb_to_hsv:b8 <- [DW_OP_LLVM_entry_value 1] $r2
	@DEBUG_VALUE: lv_color_rgb_to_hsv:r8 <- [DW_OP_LLVM_entry_value 1] $r0
	@DEBUG_VALUE: lv_color_rgb_to_hsv:g8 <- [DW_OP_LLVM_entry_value 1] $r1
	@DEBUG_VALUE: lv_color_rgb_to_hsv:h <- $r0
	.loc	3 254 7 is_stmt 1               @ ../GUILib/src/misc/lv_color.c:254:7
	rsb	r1, r0, r0, lsl #4
.Ltmp125:
	lsls	r3, r1, #2
.Ltmp126:
	@DEBUG_VALUE: lv_color_rgb_to_hsv:h <- $r3
	.loc	3 255 7                         @ ../GUILib/src/misc/lv_color.c:255:7
	sbfx	r1, r1, #8, #22
.Ltmp127:
	@DEBUG_VALUE: lv_color_rgb_to_hsv:h <- $r1
	.loc	3 0 7 is_stmt 0                 @ ../GUILib/src/misc/lv_color.c:0:7
	mov.w	r6, #360
.Ltmp128:
	.loc	3 256 8 is_stmt 1               @ ../GUILib/src/misc/lv_color.c:256:8
	cmp	r0, #0
	it	mi
	addmi.w	r1, r6, r3, asr #10
.Ltmp129:
	uxth	r0, r1
.Ltmp130:
.LBB5_11:
	@DEBUG_VALUE: lv_color_rgb_to_hsv:rgbMin <- [DW_OP_LLVM_convert 32 7, DW_OP_LLVM_convert 16 7, DW_OP_stack_value] $r5
	@DEBUG_VALUE: lv_color_rgb_to_hsv:rgbMax <- $r2
	@DEBUG_VALUE: lv_color_rgb_to_hsv:hsv <- [DW_OP_constu 100, DW_OP_mul, DW_OP_constu 10, DW_OP_shr, DW_OP_LLVM_convert 32 7, DW_OP_LLVM_convert 8 7, DW_OP_stack_value, DW_OP_LLVM_fragment 24 8] $r2
	@DEBUG_VALUE: lv_color_rgb_to_hsv:delta <- $lr
	@DEBUG_VALUE: lv_color_rgb_to_hsv:b8 <- [DW_OP_LLVM_entry_value 1] $r2
	@DEBUG_VALUE: lv_color_rgb_to_hsv:r8 <- [DW_OP_LLVM_entry_value 1] $r0
	@DEBUG_VALUE: lv_color_rgb_to_hsv:g8 <- [DW_OP_LLVM_entry_value 1] $r1
	@DEBUG_VALUE: lv_color_rgb_to_hsv:hsv <- [DW_OP_constu 100, DW_OP_mul, DW_OP_constu 10, DW_OP_shr, DW_OP_stack_value, DW_OP_LLVM_fragment 24 8] $r2
	@DEBUG_VALUE: lv_color_rgb_to_hsv:hsv <- [DW_OP_LLVM_fragment 16 8] undef
	@DEBUG_VALUE: lv_color_rgb_to_hsv:hsv <- [DW_OP_LLVM_fragment 0 16] undef
	.loc	3 0 8 is_stmt 0                 @ ../GUILib/src/misc/lv_color.c:0:8
	mov.w	r1, #1638400
	.loc	3 260 1 is_stmt 1               @ ../GUILib/src/misc/lv_color.c:260:1
	muls	r1, r2, r1
	and	r1, r1, #2130706432
	uxtb.w	r2, r12
.Ltmp131:
	add	r0, r1
	orr.w	r0, r0, r2, lsl #16
	pop	{r4, r5, r6, pc}
.Ltmp132:
.Lfunc_end5:
	.size	lv_color_rgb_to_hsv, .Lfunc_end5-lv_color_rgb_to_hsv
	.cfi_endproc
	.cantunwind
	.fnend
                                        @ -- End function
	.section	.text.lv_color_to_hsv,"ax",%progbits
	.hidden	lv_color_to_hsv                 @ -- Begin function lv_color_to_hsv
	.globl	lv_color_to_hsv
	.p2align	1
	.type	lv_color_to_hsv,%function
	.code	16                              @ @lv_color_to_hsv
	.thumb_func
lv_color_to_hsv:
.Lfunc_begin6:
	.loc	3 268 0                         @ ../GUILib/src/misc/lv_color.c:268:0
	.fnstart
	.cfi_startproc
@ %bb.0:
	@DEBUG_VALUE: lv_color_to_hsv:color <- $r0
	@DEBUG_VALUE: lv_color_to32:color <- [DW_OP_constu 65535, DW_OP_and, DW_OP_LLVM_convert 32 7, DW_OP_LLVM_convert 16 7, DW_OP_stack_value] $r0
	.loc	2 424 5 prologue_end            @ ../GUILib/src/misc/lv_color.h:424:5
	ubfx	r1, r0, #11, #5
.Ltmp133:
	@DEBUG_VALUE: lv_color_to32:ret <- [DW_OP_constu 263, DW_OP_mul, DW_OP_plus_uconst 7, DW_OP_constu 5, DW_OP_shr, DW_OP_LLVM_convert 32 7, DW_OP_LLVM_convert 8 7, DW_OP_stack_value, DW_OP_LLVM_fragment 16 8] $r1
	.loc	2 425 5                         @ ../GUILib/src/misc/lv_color.h:425:5
	ubfx	r2, r0, #5, #6
.Ltmp134:
	@DEBUG_VALUE: lv_color_to32:ret <- [DW_OP_constu 259, DW_OP_mul, DW_OP_plus_uconst 3, DW_OP_constu 6, DW_OP_shr, DW_OP_LLVM_convert 32 7, DW_OP_LLVM_convert 8 7, DW_OP_stack_value, DW_OP_LLVM_fragment 8 8] $r2
	.loc	2 426 5                         @ ../GUILib/src/misc/lv_color.h:426:5
	and	r0, r0, #31
.Ltmp135:
	@DEBUG_VALUE: lv_color_to_hsv:color <- [DW_OP_LLVM_entry_value 1] $r0
	.loc	2 0 5 is_stmt 0                 @ ../GUILib/src/misc/lv_color.h:0:5
	mov.w	r12, #7
	movw	r3, #263
	.loc	2 426 5                         @ ../GUILib/src/misc/lv_color.h:426:5
	smlabb	r0, r0, r3, r12
.Ltmp136:
	@DEBUG_VALUE: lv_color_to32:ret <- [DW_OP_LLVM_fragment 24 8] -1
	@DEBUG_VALUE: lv_color_to32:ret <- [DW_OP_constu 5, DW_OP_shr, DW_OP_LLVM_convert 32 7, DW_OP_LLVM_convert 8 7, DW_OP_stack_value, DW_OP_LLVM_fragment 0 8] $r0
	.loc	2 432 1 is_stmt 1               @ ../GUILib/src/misc/lv_color.h:432:1
	muls	r1, r3, r1
.Ltmp137:
	.loc	2 0 1 is_stmt 0                 @ ../GUILib/src/misc/lv_color.h:0:1
	mov.w	r3, #14336
	.loc	2 432 1                         @ ../GUILib/src/misc/lv_color.h:432:1
	add.w	r3, r3, r1, lsl #11
	mov.w	r12, #12
	movw	r1, #1036
	smlabb	r1, r2, r1, r12
	orr.w	r1, r1, r0, lsr #5
.Ltmp138:
	@DEBUG_VALUE: lv_color_to_hsv:color32 <- [DW_OP_LLVM_convert 32 7, DW_OP_LLVM_convert 8 7, DW_OP_stack_value, DW_OP_LLVM_fragment 24 8] 255
	.loc	3 271 12 is_stmt 1              @ ../GUILib/src/misc/lv_color.c:271:12
	ubfx	r1, r1, #8, #8
.Ltmp139:
	@DEBUG_VALUE: lv_color_to_hsv:color32 <- [DW_OP_LLVM_fragment 8 8] $r1
	ubfx	r2, r0, #5, #8
.Ltmp140:
	@DEBUG_VALUE: lv_color_to_hsv:color32 <- [DW_OP_LLVM_fragment 0 8] $r2
	ubfx	r0, r3, #16, #8
.Ltmp141:
	@DEBUG_VALUE: lv_color_to_hsv:color32 <- [DW_OP_LLVM_fragment 16 8] $r0
	b	lv_color_rgb_to_hsv
.Ltmp142:
.Lfunc_end6:
	.size	lv_color_to_hsv, .Lfunc_end6-lv_color_to_hsv
	.cfi_endproc
	.cantunwind
	.fnend
                                        @ -- End function
	.section	.text.lv_palette_main,"ax",%progbits
	.hidden	lv_palette_main                 @ -- Begin function lv_palette_main
	.globl	lv_palette_main
	.p2align	1
	.type	lv_palette_main,%function
	.code	16                              @ @lv_palette_main
	.thumb_func
lv_palette_main:
.Lfunc_begin7:
	.loc	3 275 0                         @ ../GUILib/src/misc/lv_color.c:275:0
	.fnstart
	.cfi_startproc
@ %bb.0:
	@DEBUG_VALUE: lv_palette_main:p <- $r0
	@DEBUG_VALUE: lv_palette_main:p <- $r0
	.loc	3 284 8 prologue_end            @ ../GUILib/src/misc/lv_color.c:284:8
	cmp	r0, #18
	iteee	hi
	movhi	r0, #0
.Ltmp143:
	@DEBUG_VALUE: lv_palette_main:p <- [DW_OP_LLVM_entry_value 1] $r0
	.loc	3 289 12                        @ ../GUILib/src/misc/lv_color.c:289:12
	movwls	r1, :lower16:lv_palette_main.colors
	movtls	r1, :upper16:lv_palette_main.colors
	ldrhls.w	r0, [r1, r0, lsl #1]
	.loc	3 291 1                         @ ../GUILib/src/misc/lv_color.c:291:1
	bx	lr
.Ltmp144:
.Lfunc_end7:
	.size	lv_palette_main, .Lfunc_end7-lv_palette_main
	.cfi_endproc
	.cantunwind
	.fnend
                                        @ -- End function
	.section	.text.lv_palette_lighten,"ax",%progbits
	.hidden	lv_palette_lighten              @ -- Begin function lv_palette_lighten
	.globl	lv_palette_lighten
	.p2align	1
	.type	lv_palette_lighten,%function
	.code	16                              @ @lv_palette_lighten
	.thumb_func
lv_palette_lighten:
.Lfunc_begin8:
	.loc	3 294 0                         @ ../GUILib/src/misc/lv_color.c:294:0
	.fnstart
	.cfi_startproc
@ %bb.0:
	@DEBUG_VALUE: lv_palette_lighten:p <- $r0
	@DEBUG_VALUE: lv_palette_lighten:lvl <- $r1
	mov	r2, r0
	@DEBUG_VALUE: lv_palette_lighten:lvl <- $r1
.Ltmp145:
	@DEBUG_VALUE: lv_palette_lighten:p <- $r2
	.loc	3 317 8 prologue_end            @ ../GUILib/src/misc/lv_color.c:317:8
	cmp	r0, #18
	mov.w	r0, #0
	bhi	.LBB8_3
.Ltmp146:
@ %bb.1:
	@DEBUG_VALUE: lv_palette_lighten:p <- $r2
	@DEBUG_VALUE: lv_palette_lighten:lvl <- $r1
	.loc	3 0 8 is_stmt 0                 @ ../GUILib/src/misc/lv_color.c:0:8
	subs	r1, #1
.Ltmp147:
	@DEBUG_VALUE: lv_palette_lighten:lvl <- [DW_OP_LLVM_entry_value 1] $r1
	uxtb	r1, r1
	.loc	3 317 8                         @ ../GUILib/src/misc/lv_color.c:317:8
	cmp	r1, #4
	.loc	3 330 1 is_stmt 1               @ ../GUILib/src/misc/lv_color.c:330:1
	it	hi
	bxhi	lr
.Ltmp148:
.LBB8_2:
	@DEBUG_VALUE: lv_palette_lighten:p <- $r2
	@DEBUG_VALUE: lv_palette_lighten:lvl <- [DW_OP_LLVM_entry_value 1] $r1
	@DEBUG_VALUE: lv_palette_lighten:lvl <- undef
	.loc	3 329 12                        @ ../GUILib/src/misc/lv_color.c:329:12
	add.w	r0, r2, r2, lsl #2
	movw	r2, :lower16:lv_palette_lighten.colors
.Ltmp149:
	movt	r2, :upper16:lv_palette_lighten.colors
	add.w	r0, r2, r0, lsl #1
	ldrh.w	r0, [r0, r1, lsl #1]
.Ltmp150:
.LBB8_3:
	.loc	3 330 1                         @ ../GUILib/src/misc/lv_color.c:330:1
	bx	lr
.Ltmp151:
.Lfunc_end8:
	.size	lv_palette_lighten, .Lfunc_end8-lv_palette_lighten
	.cfi_endproc
	.cantunwind
	.fnend
                                        @ -- End function
	.section	.text.lv_palette_darken,"ax",%progbits
	.hidden	lv_palette_darken               @ -- Begin function lv_palette_darken
	.globl	lv_palette_darken
	.p2align	1
	.type	lv_palette_darken,%function
	.code	16                              @ @lv_palette_darken
	.thumb_func
lv_palette_darken:
.Lfunc_begin9:
	.loc	3 333 0                         @ ../GUILib/src/misc/lv_color.c:333:0
	.fnstart
	.cfi_startproc
@ %bb.0:
	@DEBUG_VALUE: lv_palette_darken:p <- $r0
	@DEBUG_VALUE: lv_palette_darken:lvl <- $r1
	mov	r2, r0
	@DEBUG_VALUE: lv_palette_darken:lvl <- $r1
.Ltmp152:
	@DEBUG_VALUE: lv_palette_darken:p <- $r2
	.loc	3 356 8 prologue_end            @ ../GUILib/src/misc/lv_color.c:356:8
	cmp	r0, #18
	mov.w	r0, #0
	bhi	.LBB9_3
.Ltmp153:
@ %bb.1:
	@DEBUG_VALUE: lv_palette_darken:p <- $r2
	@DEBUG_VALUE: lv_palette_darken:lvl <- $r1
	.loc	3 0 8 is_stmt 0                 @ ../GUILib/src/misc/lv_color.c:0:8
	subs	r1, #1
.Ltmp154:
	@DEBUG_VALUE: lv_palette_darken:lvl <- [DW_OP_LLVM_entry_value 1] $r1
	uxtb	r1, r1
	.loc	3 356 8                         @ ../GUILib/src/misc/lv_color.c:356:8
	cmp	r1, #3
	.loc	3 369 1 is_stmt 1               @ ../GUILib/src/misc/lv_color.c:369:1
	it	hi
	bxhi	lr
.Ltmp155:
.LBB9_2:
	@DEBUG_VALUE: lv_palette_darken:p <- $r2
	@DEBUG_VALUE: lv_palette_darken:lvl <- [DW_OP_LLVM_entry_value 1] $r1
	@DEBUG_VALUE: lv_palette_darken:lvl <- undef
	.loc	3 368 12                        @ ../GUILib/src/misc/lv_color.c:368:12
	movw	r0, :lower16:lv_palette_darken.colors
	movt	r0, :upper16:lv_palette_darken.colors
	add.w	r0, r0, r2, lsl #3
	ldrh.w	r0, [r0, r1, lsl #1]
.Ltmp156:
.LBB9_3:
	@DEBUG_VALUE: lv_palette_darken:p <- $r2
	.loc	3 369 1                         @ ../GUILib/src/misc/lv_color.c:369:1
	bx	lr
.Ltmp157:
.Lfunc_end9:
	.size	lv_palette_darken, .Lfunc_end9-lv_palette_darken
	.cfi_endproc
	.cantunwind
	.fnend
                                        @ -- End function
	.type	lv_palette_main.colors,%object  @ @lv_palette_main.colors
	.section	.rodata.lv_palette_main.colors,"a",%progbits
	.p2align	1
lv_palette_main.colors:
	.byte	6                               @ 0x6
	.byte	242                             @ 0xf2
	.byte	236                             @ 0xec
	.byte	232                             @ 0xe8
	.byte	54                              @ 0x36
	.byte	153                             @ 0x99
	.byte	214                             @ 0xd6
	.byte	97                              @ 0x61
	.byte	150                             @ 0x96
	.byte	58                              @ 0x3a
	.byte	190                             @ 0xbe
	.byte	36                              @ 0x24
	.byte	94                              @ 0x5e
	.byte	5                               @ 0x5
	.byte	250                             @ 0xfa
	.byte	5                               @ 0x5
	.byte	177                             @ 0xb1
	.byte	4                               @ 0x4
	.byte	106                             @ 0x6a
	.byte	77                              @ 0x4d
	.byte	9                               @ 0x9
	.byte	142                             @ 0x8e
	.byte	231                             @ 0xe7
	.byte	206                             @ 0xce
	.byte	71                              @ 0x47
	.byte	255                             @ 0xff
	.byte	0                               @ 0x0
	.byte	254                             @ 0xfe
	.byte	192                             @ 0xc0
	.byte	252                             @ 0xfc
	.byte	164                             @ 0xa4
	.byte	250                             @ 0xfa
	.byte	169                             @ 0xa9
	.byte	122                             @ 0x7a
	.byte	241                             @ 0xf1
	.byte	99                              @ 0x63
	.byte	243                             @ 0xf3
	.byte	156                             @ 0x9c
	.size	lv_palette_main.colors, 38

	.type	lv_palette_lighten.colors,%object @ @lv_palette_lighten.colors
	.section	.rodata.lv_palette_lighten.colors,"a",%progbits
	.p2align	1
lv_palette_lighten.colors:
	.byte	138                             @ 0x8a
	.byte	234                             @ 0xea
	.byte	142                             @ 0x8e
	.byte	227                             @ 0xe3
	.byte	211                             @ 0xd3
	.byte	236                             @ 0xec
	.byte	122                             @ 0x7a
	.byte	254                             @ 0xfe
	.byte	93                              @ 0x5d
	.byte	255                             @ 0xff
	.byte	15                              @ 0xf
	.byte	234                             @ 0xea
	.byte	18                              @ 0x12
	.byte	243                             @ 0xf3
	.byte	118                             @ 0x76
	.byte	244                             @ 0xf4
	.byte	218                             @ 0xda
	.byte	253                             @ 0xfd
	.byte	61                              @ 0x3d
	.byte	255                             @ 0xff
	.byte	55                              @ 0x37
	.byte	170                             @ 0xaa
	.byte	89                              @ 0x59
	.byte	187                             @ 0xbb
	.byte	155                             @ 0x9b
	.byte	204                             @ 0xcc
	.byte	252                             @ 0xfc
	.byte	229                             @ 0xe5
	.byte	62                              @ 0x3e
	.byte	247                             @ 0xf7
	.byte	184                             @ 0xb8
	.byte	122                             @ 0x7a
	.byte	185                             @ 0xb9
	.byte	147                             @ 0x93
	.byte	251                             @ 0xfb
	.byte	180                             @ 0xb4
	.byte	61                              @ 0x3d
	.byte	214                             @ 0xd6
	.byte	62                              @ 0x3e
	.byte	239                             @ 0xef
	.byte	88                              @ 0x58
	.byte	91                              @ 0x5b
	.byte	57                              @ 0x39
	.byte	124                             @ 0x7c
	.byte	91                              @ 0x5b
	.byte	157                             @ 0x9d
	.byte	93                              @ 0x5d
	.byte	198                             @ 0xc6
	.byte	94                              @ 0x5e
	.byte	239                             @ 0xef
	.byte	62                              @ 0x3e
	.byte	69                              @ 0x45
	.byte	190                             @ 0xbe
	.byte	101                             @ 0x65
	.byte	95                              @ 0x5f
	.byte	150                             @ 0x96
	.byte	255                             @ 0xff
	.byte	190                             @ 0xbe
	.byte	159                             @ 0x9f
	.byte	231                             @ 0xe7
	.byte	190                             @ 0xbe
	.byte	45                              @ 0x2d
	.byte	30                              @ 0x1e
	.byte	78                              @ 0x4e
	.byte	191                             @ 0xbf
	.byte	134                             @ 0x86
	.byte	63                              @ 0x3f
	.byte	183                             @ 0xb7
	.byte	191                             @ 0xbf
	.byte	231                             @ 0xe7
	.byte	59                              @ 0x3b
	.byte	38                              @ 0x26
	.byte	156                             @ 0x9c
	.byte	78                              @ 0x4e
	.byte	253                             @ 0xfd
	.byte	134                             @ 0x86
	.byte	94                              @ 0x5e
	.byte	183                             @ 0xb7
	.byte	191                             @ 0xbf
	.byte	231                             @ 0xe7
	.byte	51                              @ 0x33
	.byte	37                              @ 0x25
	.byte	181                             @ 0xb5
	.byte	77                              @ 0x4d
	.byte	88                              @ 0x58
	.byte	134                             @ 0x86
	.byte	251                             @ 0xfb
	.byte	182                             @ 0xb6
	.byte	158                             @ 0x9e
	.byte	231                             @ 0xe7
	.byte	205                             @ 0xcd
	.byte	101                             @ 0x65
	.byte	48                              @ 0x30
	.byte	134                             @ 0x86
	.byte	180                             @ 0xb4
	.byte	166                             @ 0xa6
	.byte	57                              @ 0x39
	.byte	207                             @ 0xcf
	.byte	189                             @ 0xbd
	.byte	239                             @ 0xef
	.byte	108                             @ 0x6c
	.byte	158                             @ 0x9e
	.byte	176                             @ 0xb0
	.byte	174                             @ 0xae
	.byte	20                              @ 0x14
	.byte	199                             @ 0xc7
	.byte	121                             @ 0x79
	.byte	223                             @ 0xdf
	.byte	221                             @ 0xdd
	.byte	247                             @ 0xf7
	.byte	10                              @ 0xa
	.byte	215                             @ 0xd7
	.byte	46                              @ 0x2e
	.byte	223                             @ 0xdf
	.byte	115                             @ 0x73
	.byte	231                             @ 0xe7
	.byte	184                             @ 0xb8
	.byte	247                             @ 0xf7
	.byte	220                             @ 0xdc
	.byte	255                             @ 0xff
	.byte	107                             @ 0x6b
	.byte	255                             @ 0xff
	.byte	142                             @ 0x8e
	.byte	255                             @ 0xff
	.byte	179                             @ 0xb3
	.byte	255                             @ 0xff
	.byte	216                             @ 0xd8
	.byte	255                             @ 0xff
	.byte	252                             @ 0xfc
	.byte	255                             @ 0xff
	.byte	69                              @ 0x45
	.byte	254                             @ 0xfe
	.byte	169                             @ 0xa9
	.byte	254                             @ 0xfe
	.byte	16                              @ 0x10
	.byte	255                             @ 0xff
	.byte	118                             @ 0x76
	.byte	255                             @ 0xff
	.byte	220                             @ 0xdc
	.byte	255                             @ 0xff
	.byte	36                              @ 0x24
	.byte	253                             @ 0xfd
	.byte	169                             @ 0xa9
	.byte	253                             @ 0xfd
	.byte	112                             @ 0x70
	.byte	254                             @ 0xfe
	.byte	22                              @ 0x16
	.byte	255                             @ 0xff
	.byte	156                             @ 0x9c
	.byte	255                             @ 0xff
	.byte	136                             @ 0x88
	.byte	251                             @ 0xfb
	.byte	76                              @ 0x4c
	.byte	252                             @ 0xfc
	.byte	82                              @ 0x52
	.byte	253                             @ 0xfd
	.byte	119                             @ 0x77
	.byte	254                             @ 0xfe
	.byte	92                              @ 0x5c
	.byte	255                             @ 0xff
	.byte	108                             @ 0x6c
	.byte	139                             @ 0x8b
	.byte	79                              @ 0x4f
	.byte	164                             @ 0xa4
	.byte	84                              @ 0x54
	.byte	189                             @ 0xbd
	.byte	121                             @ 0x79
	.byte	214                             @ 0xd6
	.byte	93                              @ 0x5d
	.byte	239                             @ 0xef
	.byte	147                             @ 0x93
	.byte	124                             @ 0x7c
	.byte	53                              @ 0x35
	.byte	149                             @ 0x95
	.byte	248                             @ 0xf8
	.byte	181                             @ 0xb5
	.byte	219                             @ 0xdb
	.byte	206                             @ 0xce
	.byte	126                             @ 0x7e
	.byte	239                             @ 0xef
	.byte	247                             @ 0xf7
	.byte	189                             @ 0xbd
	.byte	28                              @ 0x1c
	.byte	231                             @ 0xe7
	.byte	125                             @ 0x7d
	.byte	239                             @ 0xef
	.byte	190                             @ 0xbe
	.byte	247                             @ 0xf7
	.byte	223                             @ 0xdf
	.byte	255                             @ 0xff
	.size	lv_palette_lighten.colors, 190

	.type	lv_palette_darken.colors,%object @ @lv_palette_darken.colors
	.section	.rodata.lv_palette_darken.colors,"a",%progbits
	.p2align	1
lv_palette_darken.colors:
	.byte	198                             @ 0xc6
	.byte	225                             @ 0xe1
	.byte	101                             @ 0x65
	.byte	209                             @ 0xd1
	.byte	69                              @ 0x45
	.byte	193                             @ 0xc1
	.byte	227                             @ 0xe3
	.byte	176                             @ 0xb0
	.byte	204                             @ 0xcc
	.byte	216                             @ 0xd8
	.byte	203                             @ 0xcb
	.byte	192                             @ 0xc0
	.byte	170                             @ 0xaa
	.byte	168                             @ 0xa8
	.byte	105                             @ 0x69
	.byte	136                             @ 0x88
	.byte	53                              @ 0x35
	.byte	137                             @ 0x89
	.byte	244                             @ 0xf4
	.byte	120                             @ 0x78
	.byte	211                             @ 0xd3
	.byte	104                             @ 0x68
	.byte	177                             @ 0xb1
	.byte	72                              @ 0x48
	.byte	182                             @ 0xb6
	.byte	89                              @ 0x59
	.byte	117                             @ 0x75
	.byte	81                              @ 0x51
	.byte	52                              @ 0x34
	.byte	65                              @ 0x41
	.byte	210                             @ 0xd2
	.byte	48                              @ 0x30
	.byte	85                              @ 0x55
	.byte	58                              @ 0x3a
	.byte	243                             @ 0xf3
	.byte	49                              @ 0x31
	.byte	178                             @ 0xb2
	.byte	41                              @ 0x29
	.byte	15                              @ 0xf
	.byte	25                              @ 0x19
	.byte	92                              @ 0x5c
	.byte	28                              @ 0x1c
	.byte	186                             @ 0xba
	.byte	27                              @ 0x1b
	.byte	56                              @ 0x38
	.byte	19                              @ 0x13
	.byte	52                              @ 0x34
	.byte	10                              @ 0xa
	.byte	220                             @ 0xdc
	.byte	4                               @ 0x4
	.byte	90                              @ 0x5a
	.byte	4                               @ 0x4
	.byte	183                             @ 0xb7
	.byte	3                               @ 0x3
	.byte	179                             @ 0xb3
	.byte	2                               @ 0x2
	.byte	120                             @ 0x78
	.byte	5                               @ 0x5
	.byte	180                             @ 0xb4
	.byte	4                               @ 0x4
	.byte	17                              @ 0x11
	.byte	4                               @ 0x4
	.byte	12                              @ 0xc
	.byte	3                               @ 0x3
	.byte	79                              @ 0x4f
	.byte	4                               @ 0x4
	.byte	205                             @ 0xcd
	.byte	3                               @ 0x3
	.byte	75                              @ 0x4b
	.byte	3                               @ 0x3
	.byte	104                             @ 0x68
	.byte	2                               @ 0x2
	.byte	8                               @ 0x8
	.byte	69                              @ 0x45
	.byte	103                             @ 0x67
	.byte	60                              @ 0x3c
	.byte	230                             @ 0xe6
	.byte	43                              @ 0x2b
	.byte	228                             @ 0xe4
	.byte	26                              @ 0x1a
	.byte	136                             @ 0x88
	.byte	125                             @ 0x7d
	.byte	231                             @ 0xe7
	.byte	108                             @ 0x6c
	.byte	69                              @ 0x45
	.byte	84                              @ 0x54
	.byte	67                              @ 0x43
	.byte	51                              @ 0x33
	.byte	70                              @ 0x46
	.byte	198                             @ 0xc6
	.byte	165                             @ 0xa5
	.byte	173                             @ 0xad
	.byte	228                             @ 0xe4
	.byte	156                             @ 0x9c
	.byte	162                             @ 0xa2
	.byte	131                             @ 0x83
	.byte	198                             @ 0xc6
	.byte	254                             @ 0xfe
	.byte	5                               @ 0x5
	.byte	254                             @ 0xfe
	.byte	68                              @ 0x44
	.byte	253                             @ 0xfd
	.byte	226                             @ 0xe2
	.byte	243                             @ 0xf3
	.byte	128                             @ 0x80
	.byte	253                             @ 0xfd
	.byte	0                               @ 0x0
	.byte	253                             @ 0xfd
	.byte	96                              @ 0x60
	.byte	252                             @ 0xfc
	.byte	96                              @ 0x60
	.byte	251                             @ 0xfb
	.byte	96                              @ 0x60
	.byte	252                             @ 0xfc
	.byte	224                             @ 0xe0
	.byte	243                             @ 0xf3
	.byte	96                              @ 0x60
	.byte	235                             @ 0xeb
	.byte	128                             @ 0x80
	.byte	226                             @ 0xe2
	.byte	131                             @ 0x83
	.byte	242                             @ 0xf2
	.byte	67                              @ 0x43
	.byte	226                             @ 0xe2
	.byte	2                               @ 0x2
	.byte	218                             @ 0xda
	.byte	161                             @ 0xa1
	.byte	185                             @ 0xb9
	.byte	104                             @ 0x68
	.byte	106                             @ 0x6a
	.byte	6                               @ 0x6
	.byte	90                              @ 0x5a
	.byte	165                             @ 0xa5
	.byte	73                              @ 0x49
	.byte	36                              @ 0x24
	.byte	57                              @ 0x39
	.byte	111                             @ 0x6f
	.byte	83                              @ 0x53
	.byte	204                             @ 0xcc
	.byte	66                              @ 0x42
	.byte	41                              @ 0x29
	.byte	50                              @ 0x32
	.byte	135                             @ 0x87
	.byte	33                              @ 0x21
	.byte	174                             @ 0xae
	.byte	115                             @ 0x73
	.byte	12                              @ 0xc
	.byte	99                              @ 0x63
	.byte	8                               @ 0x8
	.byte	66                              @ 0x42
	.byte	4                               @ 0x4
	.byte	33                              @ 0x21
	.size	lv_palette_darken.colors, 152

	.section	".note.GNU-stack","",%progbits
	.eabi_attribute	30, 3	@ Tag_ABI_optimization_goals
	.ARM_attribute	16, 1	@ Tag_AV_eba