	.text
	.syntax unified
	.eabi_attribute	67, "2.09"	@ Tag_conformance
	.cpu	cortex-m4
	.eabi_attribute	6, 13	@ Tag_CPU_arch
	.eabi_attribute	7, 77	@ Tag_CPU_arch_profile
	.eabi_attribute	8, 0	@ Tag_ARM_ISA_use
	.eabi_attribute	9, 2	@ Tag_THUMB_ISA_use
	.fpu	fpv4-sp-d16
	.eabi_attribute	27, 1	@ Tag_ABI_HardFP_use
	.eabi_attribute	36, 1	@ Tag_FP_HP_extension
	.eabi_attribute	34, 1	@ Tag_CPU_unaligned_access
	.eabi_attribute	17, 1	@ Tag_ABI_PCS_GOT_use
	.eabi_attribute	20, 2	@ Tag_ABI_FP_denormal
	.eabi_attribute	21, 0	@ Tag_ABI_FP_exceptions
	.eabi_attribute	23, 1	@ Tag_ABI_FP_number_model
	.eabi_attribute	24, 1	@ Tag_ABI_align_needed
	.eabi_attribute	25, 1	@ Tag_ABI_align_preserved
	.eabi_attribute	28, 1	@ Tag_ABI_VFP_args
	.eabi_attribute	38, 1	@ Tag_ABI_FP_16bit_format
	.eabi_attribute	18, 2	@ Tag_ABI_PCS_wchar_t
	.eabi_attribute	26, 1	@ Tag_ABI_enum_size
	.eabi_attribute	14, 0	@ Tag_ABI_PCS_R9_use
	.file	"lv_draw_mask.c"
	.file	1 "C:\\Users\\Hyacincher\\Desktop\\HyTelectrl\\Code\\Project" "../GUILib/src/draw/../misc/../draw/lv_draw_mask.h"
	.file	2 "D:\\Keil MDK\\ARM\\ARMCLANG\\Bin\\..\\include" "stdint.h"
	.file	3 "C:\\Users\\Hyacincher\\Desktop\\HyTelectrl\\Code\\Project" "../GUILib/src/draw/../misc/lv_color.h"
	.file	4 "C:\\Users\\Hyacincher\\Desktop\\HyTelectrl\\Code\\Project" "../GUILib/src/draw/../misc/../core/../misc/lv_area.h"
	.section	.text.lv_draw_mask_add,"ax",%progbits
	.hidden	lv_draw_mask_add                @ -- Begin function lv_draw_mask_add
	.globl	lv_draw_mask_add
	.p2align	1
	.type	lv_draw_mask_add,%function
	.code	16                              @ @lv_draw_mask_add
	.thumb_func
lv_draw_mask_add:
.Lfunc_begin0:
	.file	5 "C:\\Users\\Hyacincher\\Desktop\\HyTelectrl\\Code\\Project" "../GUILib/src/draw/lv_draw_mask.c"
	.loc	5 79 0                          @ ../GUILib/src/draw/lv_draw_mask.c:79:0
	.fnstart
	.cfi_sections .debug_frame
	.cfi_startproc
@ %bb.0:
	@DEBUG_VALUE: lv_draw_mask_add:param <- $r0
	@DEBUG_VALUE: lv_draw_mask_add:param <- $r0
	@DEBUG_VALUE: lv_draw_mask_add:custom_id <- $r1
	@DEBUG_VALUE: lv_draw_mask_add:custom_id <- $r1
	movw	r12, :lower16:_lv_draw_mask_list
	movs	r2, #0
.Ltmp0:
	@DEBUG_VALUE: lv_draw_mask_add:i <- 0
	movt	r12, :upper16:_lv_draw_mask_list
.Ltmp1:
	.p2align	2
.LBB0_1:                                @ =>This Inner Loop Header: Depth=1
	@DEBUG_VALUE: lv_draw_mask_add:custom_id <- $r1
	@DEBUG_VALUE: lv_draw_mask_add:param <- $r0
	@DEBUG_VALUE: lv_draw_mask_add:i <- $r2
	.loc	5 83 46 prologue_end            @ ../GUILib/src/draw/lv_draw_mask.c:83:46
	ldr.w	r3, [r12, r2, lsl #3]
.Ltmp2:
	.loc	5 83 12 is_stmt 0               @ ../GUILib/src/draw/lv_draw_mask.c:83:12
	cbz	r3, .LBB0_4
.Ltmp3:
@ %bb.2:                                @   in Loop: Header=BB0_1 Depth=1
	@DEBUG_VALUE: lv_draw_mask_add:i <- $r2
	@DEBUG_VALUE: lv_draw_mask_add:custom_id <- $r1
	@DEBUG_VALUE: lv_draw_mask_add:param <- $r0
	.loc	5 82 39 is_stmt 1               @ ../GUILib/src/draw/lv_draw_mask.c:82:39
	adds	r2, #1
.Ltmp4:
	@DEBUG_VALUE: lv_draw_mask_add:i <- $r2
	.loc	5 82 5 is_stmt 0                @ ../GUILib/src/draw/lv_draw_mask.c:82:5
	cmp	r2, #16
	bne	.LBB0_1
.Ltmp5:
@ %bb.3:
	@DEBUG_VALUE: lv_draw_mask_add:i <- $r2
	@DEBUG_VALUE: lv_draw_mask_add:custom_id <- $r1
	@DEBUG_VALUE: lv_draw_mask_add:param <- $r0
	.loc	5 0 5                           @ ../GUILib/src/draw/lv_draw_mask.c:0:5
	movw	r0, #65535
.Ltmp6:
	@DEBUG_VALUE: lv_draw_mask_add:param <- [DW_OP_LLVM_entry_value 1] $r0
	b	.LBB0_5
.Ltmp7:
.LBB0_4:
	@DEBUG_VALUE: lv_draw_mask_add:i <- $r2
	@DEBUG_VALUE: lv_draw_mask_add:custom_id <- $r1
	@DEBUG_VALUE: lv_draw_mask_add:param <- $r0
	.loc	5 91 45 is_stmt 1               @ ../GUILib/src/draw/lv_draw_mask.c:91:45
	add.w	r3, r12, r2, lsl #3
	str.w	r0, [r12, r2, lsl #3]
	.loc	5 94 12                         @ ../GUILib/src/draw/lv_draw_mask.c:94:12
	uxtb	r0, r2
.Ltmp8:
	@DEBUG_VALUE: lv_draw_mask_add:param <- [DW_OP_LLVM_entry_value 1] $r0
	.loc	5 92 49                         @ ../GUILib/src/draw/lv_draw_mask.c:92:49
	str	r1, [r3, #4]
.Ltmp9:
.LBB0_5:
	@DEBUG_VALUE: lv_draw_mask_add:i <- $r2
	@DEBUG_VALUE: lv_draw_mask_add:custom_id <- $r1
	@DEBUG_VALUE: lv_draw_mask_add:param <- [DW_OP_LLVM_entry_value 1] $r0
	.loc	5 95 1                          @ ../GUILib/src/draw/lv_draw_mask.c:95:1
	sxth	r0, r0
	bx	lr
.Ltmp10:
.Lfunc_end0:
	.size	lv_draw_mask_add, .Lfunc_end0-lv_draw_mask_add
	.cfi_endproc
	.cantunwind
	.fnend
                                        @ -- End function
	.section	.text.lv_draw_mask_apply,"ax",%progbits
	.hidden	lv_draw_mask_apply              @ -- Begin function lv_draw_mask_apply
	.globl	lv_draw_mask_apply
	.p2align	1
	.type	lv_draw_mask_apply,%function
	.code	16                              @ @lv_draw_mask_apply
	.thumb_func
lv_draw_mask_apply:
.Lfunc_begin1:
	.loc	5 110 0                         @ ../GUILib/src/draw/lv_draw_mask.c:110:0
	.fnstart
	.cfi_startproc
@ %bb.0:
	@DEBUG_VALUE: lv_draw_mask_apply:mask_buf <- $r0
	@DEBUG_VALUE: lv_draw_mask_apply:abs_x <- $r1
	@DEBUG_VALUE: lv_draw_mask_apply:abs_y <- $r2
	@DEBUG_VALUE: lv_draw_mask_apply:len <- $r3
	.save	{r4, r5, r6, r7, r8, r9, r10, r11, lr}
	push.w	{r4, r5, r6, r7, r8, r9, r10, r11, lr}
	.cfi_def_cfa_offset 36
	.cfi_offset lr, -4
	.cfi_offset r11, -8
	.cfi_offset r10, -12
	.cfi_offset r9, -16
	.cfi_offset r8, -20
	.cfi_offset r7, -24
	.cfi_offset r6, -28
	.cfi_offset r5, -32
	.cfi_offset r4, -36
	.pad	#4
	sub	sp, #4
	.cfi_def_cfa_offset 40
	movw	r4, :lower16:_lv_draw_mask_list
	mov	r8, r3
.Ltmp11:
	@DEBUG_VALUE: lv_draw_mask_apply:len <- $r8
	@DEBUG_VALUE: lv_draw_mask_apply:len <- $r8
	mov	r9, r2
.Ltmp12:
	@DEBUG_VALUE: lv_draw_mask_apply:abs_y <- $r9
	@DEBUG_VALUE: lv_draw_mask_apply:abs_y <- $r9
	mov	r10, r1
.Ltmp13:
	@DEBUG_VALUE: lv_draw_mask_apply:abs_x <- $r10
	@DEBUG_VALUE: lv_draw_mask_apply:abs_x <- $r10
	mov	r11, r0
.Ltmp14:
	@DEBUG_VALUE: lv_draw_mask_apply:mask_buf <- $r11
	@DEBUG_VALUE: lv_draw_mask_apply:mask_buf <- $r11
	movt	r4, :upper16:_lv_draw_mask_list
	movs	r5, #0
.Ltmp15:
	@DEBUG_VALUE: lv_draw_mask_apply:changed <- 0
	@DEBUG_VALUE: lv_draw_mask_apply:m <- $r4
	.p2align	2
.LBB1_1:                                @ =>This Inner Loop Header: Depth=1
	@DEBUG_VALUE: lv_draw_mask_apply:mask_buf <- $r11
	@DEBUG_VALUE: lv_draw_mask_apply:abs_x <- $r10
	@DEBUG_VALUE: lv_draw_mask_apply:abs_y <- $r9
	@DEBUG_VALUE: lv_draw_mask_apply:len <- $r8
	@DEBUG_VALUE: lv_draw_mask_apply:m <- $r4
	@DEBUG_VALUE: lv_draw_mask_apply:changed <- undef
	.loc	5 116 14 prologue_end           @ ../GUILib/src/draw/lv_draw_mask.c:116:14
	ldr	r6, [r4]
	.loc	5 116 5 is_stmt 0               @ ../GUILib/src/draw/lv_draw_mask.c:116:5
	cbz	r6, .LBB1_4
.Ltmp16:
@ %bb.2:                                @   in Loop: Header=BB1_1 Depth=1
	@DEBUG_VALUE: lv_draw_mask_apply:mask_buf <- $r11
	@DEBUG_VALUE: lv_draw_mask_apply:abs_x <- $r10
	@DEBUG_VALUE: lv_draw_mask_apply:abs_y <- $r9
	@DEBUG_VALUE: lv_draw_mask_apply:len <- $r8
	@DEBUG_VALUE: lv_draw_mask_apply:m <- $r4
	@DEBUG_VALUE: lv_draw_mask_apply:dsc <- $r6
	@DEBUG_VALUE: res <- 1
	.loc	5 119 20 is_stmt 1              @ ../GUILib/src/draw/lv_draw_mask.c:119:20
	ldr	r7, [r6]
	.loc	5 119 15 is_stmt 0              @ ../GUILib/src/draw/lv_draw_mask.c:119:15
	mov	r0, r11
	mov	r1, r10
	mov	r2, r9
	mov	r3, r8
	str	r6, [sp]
	blx	r7
.Ltmp17:
	@DEBUG_VALUE: res <- $r0
	.loc	5 120 12 is_stmt 1              @ ../GUILib/src/draw/lv_draw_mask.c:120:12
	subs	r1, r0, #2
	clz	r1, r1
	lsrs	r1, r1, #5
	orrs	r5, r1
	cmp	r0, #0
	add.w	r4, r4, #8
.Ltmp18:
	@DEBUG_VALUE: lv_draw_mask_apply:changed <- undef
	@DEBUG_VALUE: lv_draw_mask_apply:m <- undef
	.loc	5 0 12 is_stmt 0                @ ../GUILib/src/draw/lv_draw_mask.c:0:12
	bne	.LBB1_1
.Ltmp19:
@ %bb.3:
	@DEBUG_VALUE: lv_draw_mask_apply:mask_buf <- $r11
	@DEBUG_VALUE: lv_draw_mask_apply:abs_x <- $r10
	@DEBUG_VALUE: lv_draw_mask_apply:abs_y <- $r9
	@DEBUG_VALUE: lv_draw_mask_apply:len <- $r8
	@DEBUG_VALUE: lv_draw_mask_apply:dsc <- $r6
	@DEBUG_VALUE: res <- $r0
	movs	r0, #0
	b	.LBB1_5
.Ltmp20:
.LBB1_4:
	@DEBUG_VALUE: lv_draw_mask_apply:mask_buf <- $r11
	@DEBUG_VALUE: lv_draw_mask_apply:abs_x <- $r10
	@DEBUG_VALUE: lv_draw_mask_apply:abs_y <- $r9
	@DEBUG_VALUE: lv_draw_mask_apply:len <- $r8
	@DEBUG_VALUE: lv_draw_mask_apply:m <- $r4
	.loc	5 126 12 is_stmt 1              @ ../GUILib/src/draw/lv_draw_mask.c:126:12
	lsls	r0, r5, #31
	mov.w	r0, #1
	it	ne
	movne	r0, #2
.Ltmp21:
.LBB1_5:
	@DEBUG_VALUE: lv_draw_mask_apply:mask_buf <- $r11
	@DEBUG_VALUE: lv_draw_mask_apply:abs_x <- $r10
	@DEBUG_VALUE: lv_draw_mask_apply:abs_y <- $r9
	@DEBUG_VALUE: lv_draw_mask_apply:len <- $r8
	.loc	5 127 1                         @ ../GUILib/src/draw/lv_draw_mask.c:127:1
	add	sp, #4
	pop.w	{r4, r5, r6, r7, r8, r9, r10, r11, pc}
.Ltmp22:
.Lfunc_end1:
	.size	lv_draw_mask_apply, .Lfunc_end1-lv_draw_mask_apply
	.cfi_endproc
	.cantunwind
	.fnend
                                        @ -- End function
	.section	.text.lv_draw_mask_apply_ids,"ax",%progbits
	.hidden	lv_draw_mask_apply_ids          @ -- Begin function lv_draw_mask_apply_ids
	.globl	lv_draw_mask_apply_ids
	.p2align	1
	.type	lv_draw_mask_apply_ids,%function
	.code	16                              @ @lv_draw_mask_apply_ids
	.thumb_func
lv_draw_mask_apply_ids:
.Lfunc_begin2:
	.loc	5 144 0                         @ ../GUILib/src/draw/lv_draw_mask.c:144:0
	.fnstart
	.cfi_startproc
@ %bb.0:
	@DEBUG_VALUE: lv_draw_mask_apply_ids:mask_buf <- $r0
	@DEBUG_VALUE: lv_draw_mask_apply_ids:abs_x <- $r1
	@DEBUG_VALUE: lv_draw_mask_apply_ids:abs_y <- $r2
	@DEBUG_VALUE: lv_draw_mask_apply_ids:len <- $r3
	.save	{r4, r5, r6, r7, r8, r9, r10, r11, lr}
	push.w	{r4, r5, r6, r7, r8, r9, r10, r11, lr}
	.cfi_def_cfa_offset 36
	.cfi_offset lr, -4
	.cfi_offset r11, -8
	.cfi_offset r10, -12
	.cfi_offset r9, -16
	.cfi_offset r8, -20
	.cfi_offset r7, -24
	.cfi_offset r6, -28
	.cfi_offset r5, -32
	.cfi_offset r4, -36
	.pad	#12
	sub	sp, #12
	.cfi_def_cfa_offset 48
	ldr	r4, [sp, #52]
.Ltmp23:
	@DEBUG_VALUE: lv_draw_mask_apply_ids:changed <- undef
	@DEBUG_VALUE: i <- 0
	@DEBUG_VALUE: lv_draw_mask_apply_ids:ids_count <- $r4
	@DEBUG_VALUE: lv_draw_mask_apply_ids:ids <- [DW_OP_plus_uconst 48] [$sp+0]
	@DEBUG_VALUE: lv_draw_mask_apply_ids:len <- $r3
	@DEBUG_VALUE: lv_draw_mask_apply_ids:abs_y <- $r2
	@DEBUG_VALUE: lv_draw_mask_apply_ids:abs_x <- $r1
	.loc	5 148 5 prologue_end            @ ../GUILib/src/draw/lv_draw_mask.c:148:5
	cmp	r4, #1
	@DEBUG_VALUE: lv_draw_mask_apply_ids:mask_buf <- $r0
	blt	.LBB2_9
.Ltmp24:
@ %bb.1:
	@DEBUG_VALUE: lv_draw_mask_apply_ids:ids_count <- $r4
	@DEBUG_VALUE: lv_draw_mask_apply_ids:len <- $r3
	@DEBUG_VALUE: lv_draw_mask_apply_ids:abs_y <- $r2
	@DEBUG_VALUE: lv_draw_mask_apply_ids:abs_x <- $r1
	@DEBUG_VALUE: lv_draw_mask_apply_ids:mask_buf <- $r0
	@DEBUG_VALUE: lv_draw_mask_apply_ids:ids <- [DW_OP_plus_uconst 48] [$sp+0]
	@DEBUG_VALUE: i <- 0
	.loc	5 0 5 is_stmt 0                 @ ../GUILib/src/draw/lv_draw_mask.c:0:5
	ldr	r5, [sp, #48]
.Ltmp25:
	@DEBUG_VALUE: lv_draw_mask_apply_ids:len <- $r8
	@DEBUG_VALUE: lv_draw_mask_apply_ids:abs_y <- $r9
	@DEBUG_VALUE: lv_draw_mask_apply_ids:abs_x <- $r10
	mov	r8, r3
.Ltmp26:
	@DEBUG_VALUE: lv_draw_mask_apply_ids:len <- $r8
	mov	r9, r2
.Ltmp27:
	@DEBUG_VALUE: lv_draw_mask_apply_ids:abs_y <- $r9
	mov	r10, r1
.Ltmp28:
	@DEBUG_VALUE: lv_draw_mask_apply_ids:abs_x <- $r10
	mov	r11, r0
.Ltmp29:
	@DEBUG_VALUE: lv_draw_mask_apply_ids:mask_buf <- $r11
	@DEBUG_VALUE: lv_draw_mask_apply_ids:mask_buf <- $r11
	movs	r0, #0
	str	r0, [sp, #8]                    @ 4-byte Spill
.Ltmp30:
	.p2align	2
.LBB2_2:                                @ =>This Inner Loop Header: Depth=1
	@DEBUG_VALUE: lv_draw_mask_apply_ids:mask_buf <- $r11
	@DEBUG_VALUE: lv_draw_mask_apply_ids:abs_x <- $r10
	@DEBUG_VALUE: lv_draw_mask_apply_ids:abs_y <- $r9
	@DEBUG_VALUE: lv_draw_mask_apply_ids:len <- $r8
	@DEBUG_VALUE: lv_draw_mask_apply_ids:ids <- [DW_OP_plus_uconst 48] [$sp+0]
	@DEBUG_VALUE: i <- undef
	.loc	5 149 22 is_stmt 1              @ ../GUILib/src/draw/lv_draw_mask.c:149:22
	ldrsh.w	r0, [r5]
.Ltmp31:
	@DEBUG_VALUE: id <- undef
	.loc	5 150 13                        @ ../GUILib/src/draw/lv_draw_mask.c:150:13
	adds	r1, r0, #1
	beq	.LBB2_7
.Ltmp32:
@ %bb.3:                                @   in Loop: Header=BB2_2 Depth=1
	@DEBUG_VALUE: lv_draw_mask_apply_ids:mask_buf <- $r11
	@DEBUG_VALUE: lv_draw_mask_apply_ids:abs_x <- $r10
	@DEBUG_VALUE: lv_draw_mask_apply_ids:abs_y <- $r9
	@DEBUG_VALUE: lv_draw_mask_apply_ids:len <- $r8
	@DEBUG_VALUE: lv_draw_mask_apply_ids:ids <- [DW_OP_plus_uconst 48] [$sp+0]
	.loc	5 151 50                        @ ../GUILib/src/draw/lv_draw_mask.c:151:50
	movw	r1, :lower16:_lv_draw_mask_list
	movt	r1, :upper16:_lv_draw_mask_list
	ldr.w	r6, [r1, r0, lsl #3]
.Ltmp33:
	@DEBUG_VALUE: lv_draw_mask_apply_ids:dsc <- $r6
	.loc	5 152 13                        @ ../GUILib/src/draw/lv_draw_mask.c:152:13
	cbz	r6, .LBB2_7
.Ltmp34:
@ %bb.4:                                @   in Loop: Header=BB2_2 Depth=1
	@DEBUG_VALUE: lv_draw_mask_apply_ids:mask_buf <- $r11
	@DEBUG_VALUE: lv_draw_mask_apply_ids:abs_x <- $r10
	@DEBUG_VALUE: lv_draw_mask_apply_ids:abs_y <- $r9
	@DEBUG_VALUE: lv_draw_mask_apply_ids:len <- $r8
	@DEBUG_VALUE: lv_draw_mask_apply_ids:dsc <- $r6
	@DEBUG_VALUE: lv_draw_mask_apply_ids:ids <- [DW_OP_plus_uconst 48] [$sp+0]
	@DEBUG_VALUE: lv_draw_mask_apply_ids:dsc <- $r6
	@DEBUG_VALUE: res <- 1
	.loc	5 154 20                        @ ../GUILib/src/draw/lv_draw_mask.c:154:20
	ldr	r7, [r6]
	.loc	5 154 15 is_stmt 0              @ ../GUILib/src/draw/lv_draw_mask.c:154:15
	mov	r0, r11
	mov	r1, r10
	mov	r2, r9
	mov	r3, r8
	str	r6, [sp]
	blx	r7
.Ltmp35:
	@DEBUG_VALUE: res <- $r0
	.loc	5 155 12 is_stmt 1              @ ../GUILib/src/draw/lv_draw_mask.c:155:12
	cmp	r0, #2
	beq	.LBB2_6
.Ltmp36:
@ %bb.5:                                @   in Loop: Header=BB2_2 Depth=1
	@DEBUG_VALUE: lv_draw_mask_apply_ids:mask_buf <- $r11
	@DEBUG_VALUE: lv_draw_mask_apply_ids:abs_x <- $r10
	@DEBUG_VALUE: lv_draw_mask_apply_ids:abs_y <- $r9
	@DEBUG_VALUE: lv_draw_mask_apply_ids:len <- $r8
	@DEBUG_VALUE: lv_draw_mask_apply_ids:dsc <- $r6
	@DEBUG_VALUE: res <- $r0
	@DEBUG_VALUE: lv_draw_mask_apply_ids:ids <- [DW_OP_plus_uconst 48] [$sp+0]
	.loc	5 0 12 is_stmt 0                @ ../GUILib/src/draw/lv_draw_mask.c:0:12
	cbnz	r0, .LBB2_7
	b	.LBB2_10
.Ltmp37:
.LBB2_6:                                @   in Loop: Header=BB2_2 Depth=1
	@DEBUG_VALUE: lv_draw_mask_apply_ids:mask_buf <- $r11
	@DEBUG_VALUE: lv_draw_mask_apply_ids:abs_x <- $r10
	@DEBUG_VALUE: lv_draw_mask_apply_ids:abs_y <- $r9
	@DEBUG_VALUE: lv_draw_mask_apply_ids:len <- $r8
	@DEBUG_VALUE: lv_draw_mask_apply_ids:dsc <- $r6
	@DEBUG_VALUE: res <- $r0
	@DEBUG_VALUE: lv_draw_mask_apply_ids:ids <- [DW_OP_plus_uconst 48] [$sp+0]
	movs	r0, #1
.Ltmp38:
	@DEBUG_VALUE: lv_draw_mask_apply_ids:changed <- 1
	str	r0, [sp, #8]                    @ 4-byte Spill
.Ltmp39:
	.p2align	2
.LBB2_7:                                @   in Loop: Header=BB2_2 Depth=1
	@DEBUG_VALUE: lv_draw_mask_apply_ids:mask_buf <- $r11
	@DEBUG_VALUE: lv_draw_mask_apply_ids:abs_x <- $r10
	@DEBUG_VALUE: lv_draw_mask_apply_ids:abs_y <- $r9
	@DEBUG_VALUE: lv_draw_mask_apply_ids:len <- $r8
	@DEBUG_VALUE: lv_draw_mask_apply_ids:ids <- [DW_OP_plus_uconst 48] [$sp+0]
	@DEBUG_VALUE: lv_draw_mask_apply_ids:changed <- undef
	@DEBUG_VALUE: i <- [DW_OP_plus_uconst 1, DW_OP_stack_value] undef
	.loc	5 148 23 is_stmt 1              @ ../GUILib/src/draw/lv_draw_mask.c:148:23
	subs	r4, #1
	add.w	r5, r5, #2
.Ltmp40:
	.loc	5 148 5 is_stmt 0               @ ../GUILib/src/draw/lv_draw_mask.c:148:5
	bne	.LBB2_2
.Ltmp41:
@ %bb.8:
	@DEBUG_VALUE: lv_draw_mask_apply_ids:mask_buf <- $r11
	@DEBUG_VALUE: lv_draw_mask_apply_ids:abs_x <- $r10
	@DEBUG_VALUE: lv_draw_mask_apply_ids:abs_y <- $r9
	@DEBUG_VALUE: lv_draw_mask_apply_ids:len <- $r8
	@DEBUG_VALUE: lv_draw_mask_apply_ids:ids <- [DW_OP_plus_uconst 48] [$sp+0]
	@DEBUG_VALUE: lv_draw_mask_apply_ids:changed <- undef
	.loc	5 0 5                           @ ../GUILib/src/draw/lv_draw_mask.c:0:5
	ldr	r0, [sp, #8]                    @ 4-byte Reload
	lsls	r0, r0, #31
	mov.w	r0, #1
	it	ne
	movne	r0, #2
	b	.LBB2_10
.Ltmp42:
.LBB2_9:
	@DEBUG_VALUE: lv_draw_mask_apply_ids:ids_count <- $r4
	@DEBUG_VALUE: lv_draw_mask_apply_ids:len <- $r3
	@DEBUG_VALUE: lv_draw_mask_apply_ids:abs_y <- $r2
	@DEBUG_VALUE: lv_draw_mask_apply_ids:abs_x <- $r1
	@DEBUG_VALUE: lv_draw_mask_apply_ids:mask_buf <- $r0
	@DEBUG_VALUE: lv_draw_mask_apply_ids:ids <- [DW_OP_plus_uconst 48] [$sp+0]
	@DEBUG_VALUE: i <- 0
	movs	r0, #1
.Ltmp43:
	@DEBUG_VALUE: lv_draw_mask_apply_ids:mask_buf <- [DW_OP_LLVM_entry_value 1] $r0
.LBB2_10:
	@DEBUG_VALUE: lv_draw_mask_apply_ids:ids <- [DW_OP_plus_uconst 48] [$sp+0]
	add	sp, #12
	pop.w	{r4, r5, r6, r7, r8, r9, r10, r11, pc}
.Lfunc_end2:
	.size	lv_draw_mask_apply_ids, .Lfunc_end2-lv_draw_mask_apply_ids
	.cfi_endproc
	.cantunwind
	.fnend
                                        @ -- End function
	.section	.text.lv_draw_mask_remove_id,"ax",%progbits
	.hidden	lv_draw_mask_remove_id          @ -- Begin function lv_draw_mask_remove_id
	.globl	lv_draw_mask_remove_id
	.p2align	1
	.type	lv_draw_mask_remove_id,%function
	.code	16                              @ @lv_draw_mask_remove_id
	.thumb_func
lv_draw_mask_remove_id:
.Lfunc_begin3:
	.loc	5 169 0 is_stmt 1               @ ../GUILib/src/draw/lv_draw_mask.c:169:0
	.fnstart
	.cfi_startproc
@ %bb.0:
	@DEBUG_VALUE: lv_draw_mask_remove_id:id <- $r0
	mov	r1, r0
.Ltmp44:
	@DEBUG_VALUE: lv_draw_mask_remove_id:id <- $r1
	.loc	5 172 8 prologue_end            @ ../GUILib/src/draw/lv_draw_mask.c:172:8
	adds	r0, #1
	mov.w	r0, #0
.Ltmp45:
	@DEBUG_VALUE: lv_draw_mask_remove_id:p <- 0
	@DEBUG_VALUE: lv_draw_mask_remove_id:p <- undef
	.loc	5 178 5                         @ ../GUILib/src/draw/lv_draw_mask.c:178:5
	it	eq
	bxeq	lr
.Ltmp46:
.LBB3_1:
	@DEBUG_VALUE: lv_draw_mask_remove_id:id <- $r1
	.loc	5 173 48                        @ ../GUILib/src/draw/lv_draw_mask.c:173:48
	movw	r12, :lower16:_lv_draw_mask_list
	movt	r12, :upper16:_lv_draw_mask_list
	ldr.w	r2, [r12, r1, lsl #3]
.Ltmp47:
	@DEBUG_VALUE: lv_draw_mask_remove_id:p <- $r2
	add.w	r3, r12, r1, lsl #3
	.loc	5 174 50                        @ ../GUILib/src/draw/lv_draw_mask.c:174:50
	str.w	r0, [r12, r1, lsl #3]
	.loc	5 175 54                        @ ../GUILib/src/draw/lv_draw_mask.c:175:54
	str	r0, [r3, #4]
.Ltmp48:
	.loc	5 0 0 is_stmt 0                 @ ../GUILib/src/draw/lv_draw_mask.c:0:0
	mov	r0, r2
.Ltmp49:
	@DEBUG_VALUE: lv_draw_mask_remove_id:p <- $r0
	@DEBUG_VALUE: lv_draw_mask_remove_id:p <- undef
	.loc	5 178 5 is_stmt 1               @ ../GUILib/src/draw/lv_draw_mask.c:178:5
	bx	lr
.Ltmp50:
.Lfunc_end3:
	.size	lv_draw_mask_remove_id, .Lfunc_end3-lv_draw_mask_remove_id
	.cfi_endproc
	.cantunwind
	.fnend
                                        @ -- End function
	.section	.text.lv_draw_mask_remove_custom,"ax",%progbits
	.hidden	lv_draw_mask_remove_custom      @ -- Begin function lv_draw_mask_remove_custom
	.globl	lv_draw_mask_remove_custom
	.p2align	1
	.type	lv_draw_mask_remove_custom,%function
	.code	16                              @ @lv_draw_mask_remove_custom
	.thumb_func
lv_draw_mask_remove_custom:
.Lfunc_begin4:
	.loc	5 188 0                         @ ../GUILib/src/draw/lv_draw_mask.c:188:0
	.fnstart
	.cfi_startproc
@ %bb.0:
	@DEBUG_VALUE: lv_draw_mask_remove_custom:custom_id <- $r0
	@DEBUG_VALUE: lv_draw_mask_remove_custom:custom_id <- $r0
	.save	{r4, lr}
	push	{r4, lr}
	.cfi_def_cfa_offset 8
	.cfi_offset lr, -4
	.cfi_offset r4, -8
	movw	r3, :lower16:_lv_draw_mask_list
	mov.w	r12, #0
.Ltmp51:
	@DEBUG_VALUE: lv_draw_mask_remove_custom:i <- 0
	@DEBUG_VALUE: lv_draw_mask_remove_custom:p <- undef
	movt	r3, :upper16:_lv_draw_mask_list
	movs	r2, #0
	mov.w	lr, #0
.Ltmp52:
	.p2align	2
.LBB4_1:                                @ =>This Inner Loop Header: Depth=1
	@DEBUG_VALUE: lv_draw_mask_remove_custom:custom_id <- $r0
	@DEBUG_VALUE: lv_draw_mask_remove_custom:i <- $r2
	.loc	5 192 46 prologue_end           @ ../GUILib/src/draw/lv_draw_mask.c:192:46
	add.w	r1, r3, r2, lsl #3
	ldr	r4, [r1, #4]
.Ltmp53:
	.loc	5 192 12 is_stmt 0              @ ../GUILib/src/draw/lv_draw_mask.c:192:12
	cmp	r4, r0
	bne	.LBB4_3
.Ltmp54:
@ %bb.2:                                @   in Loop: Header=BB4_1 Depth=1
	@DEBUG_VALUE: lv_draw_mask_remove_custom:i <- $r2
	@DEBUG_VALUE: lv_draw_mask_remove_custom:custom_id <- $r0
	.loc	5 193 51 is_stmt 1              @ ../GUILib/src/draw/lv_draw_mask.c:193:51
	ldr.w	lr, [r3, r2, lsl #3]
.Ltmp55:
	@DEBUG_VALUE: lv_draw_mask_remove_id:id <- $r2
	@DEBUG_VALUE: lv_draw_mask_remove_id:p <- undef
	@DEBUG_VALUE: lv_draw_mask_remove_custom:p <- $lr
	.loc	5 174 50                        @ ../GUILib/src/draw/lv_draw_mask.c:174:50
	str.w	r12, [r3, r2, lsl #3]
	.loc	5 175 54                        @ ../GUILib/src/draw/lv_draw_mask.c:175:54
	str.w	r12, [r1, #4]
.Ltmp56:
	@DEBUG_VALUE: lv_draw_mask_remove_id:p <- undef
.LBB4_3:                                @   in Loop: Header=BB4_1 Depth=1
	@DEBUG_VALUE: lv_draw_mask_remove_custom:i <- $r2
	@DEBUG_VALUE: lv_draw_mask_remove_custom:custom_id <- $r0
	@DEBUG_VALUE: lv_draw_mask_remove_custom:p <- undef
	.loc	5 191 39                        @ ../GUILib/src/draw/lv_draw_mask.c:191:39
	adds	r2, #1
.Ltmp57:
	@DEBUG_VALUE: lv_draw_mask_remove_custom:i <- $r2
	.loc	5 191 5 is_stmt 0               @ ../GUILib/src/draw/lv_draw_mask.c:191:5
	cmp	r2, #16
	bne	.LBB4_1
.Ltmp58:
@ %bb.4:
	@DEBUG_VALUE: lv_draw_mask_remove_custom:i <- $r2
	@DEBUG_VALUE: lv_draw_mask_remove_custom:custom_id <- $r0
	.loc	5 197 5 is_stmt 1               @ ../GUILib/src/draw/lv_draw_mask.c:197:5
	mov	r0, lr
.Ltmp59:
	@DEBUG_VALUE: lv_draw_mask_remove_custom:custom_id <- [DW_OP_LLVM_entry_value 1] $r0
	pop	{r4, pc}
.Ltmp60:
.Lfunc_end4:
	.size	lv_draw_mask_remove_custom, .Lfunc_end4-lv_draw_mask_remove_custom
	.cfi_endproc
	.cantunwind
	.fnend
                                        @ -- End function
	.section	.text.lv_draw_mask_free_param,"ax",%progbits
	.hidden	lv_draw_mask_free_param         @ -- Begin function lv_draw_mask_free_param
	.globl	lv_draw_mask_free_param
	.p2align	1
	.type	lv_draw_mask_free_param,%function
	.code	16                              @ @lv_draw_mask_free_param
	.thumb_func
lv_draw_mask_free_param:
.Lfunc_begin5:
	.loc	5 208 0                         @ ../GUILib/src/draw/lv_draw_mask.c:208:0
	.fnstart
	.cfi_startproc
@ %bb.0:
	@DEBUG_VALUE: lv_draw_mask_free_param:p <- $r0
	.save	{r4, lr}
	push	{r4, lr}
	.cfi_def_cfa_offset 8
	.cfi_offset lr, -4
	.cfi_offset r4, -8
.Ltmp61:
	@DEBUG_VALUE: lv_draw_mask_free_param:pdsc <- $r0
	mov	r4, r0
.Ltmp62:
	@DEBUG_VALUE: lv_draw_mask_free_param:pdsc <- $r4
	@DEBUG_VALUE: lv_draw_mask_free_param:p <- $r4
	.loc	5 210 14 prologue_end           @ ../GUILib/src/draw/lv_draw_mask.c:210:14
	ldrb	r0, [r0, #4]
.Ltmp63:
	.loc	5 210 8 is_stmt 0               @ ../GUILib/src/draw/lv_draw_mask.c:210:8
	cmp	r0, #2
	bne	.LBB5_4
.Ltmp64:
@ %bb.1:
	@DEBUG_VALUE: lv_draw_mask_free_param:p <- $r4
	@DEBUG_VALUE: lv_draw_mask_free_param:pdsc <- $r4
	@DEBUG_VALUE: radius_p <- $r4
	.loc	5 212 22 is_stmt 1              @ ../GUILib/src/draw/lv_draw_mask.c:212:22
	ldr	r0, [r4, #20]
.Ltmp65:
	.loc	5 212 12 is_stmt 0              @ ../GUILib/src/draw/lv_draw_mask.c:212:12
	cmp	r0, #0
.Ltmp66:
	.loc	5 222 1 is_stmt 1               @ ../GUILib/src/draw/lv_draw_mask.c:222:1
	it	eq
	popeq	{r4, pc}
.Ltmp67:
.LBB5_2:
	.loc	5 213 34                        @ ../GUILib/src/draw/lv_draw_mask.c:213:34
	ldr	r1, [r0, #16]
.Ltmp68:
	.loc	5 213 16 is_stmt 0              @ ../GUILib/src/draw/lv_draw_mask.c:213:16
	cmp.w	r1, #-1
	ble	.LBB5_5
@ %bb.3:
.Ltmp69:
	.loc	5 218 43 is_stmt 1              @ ../GUILib/src/draw/lv_draw_mask.c:218:43
	ldr	r1, [r0, #20]
	subs	r1, #1
	str	r1, [r0, #20]
.Ltmp70:
.LBB5_4:
	.loc	5 222 1                         @ ../GUILib/src/draw/lv_draw_mask.c:222:1
	pop	{r4, pc}
.LBB5_5:
.Ltmp71:
	.loc	5 214 47                        @ ../GUILib/src/draw/lv_draw_mask.c:214:47
	ldr	r0, [r0, #4]
	.loc	5 214 17 is_stmt 0              @ ../GUILib/src/draw/lv_draw_mask.c:214:17
	bl	lv_mem_free
.Ltmp72:
	.loc	5 215 39 is_stmt 1              @ ../GUILib/src/draw/lv_draw_mask.c:215:39
	ldr	r0, [r4, #20]
	.loc	5 215 17 is_stmt 0              @ ../GUILib/src/draw/lv_draw_mask.c:215:17
	pop.w	{r4, lr}
.Ltmp73:
	b	lv_mem_free
.Ltmp74:
.Lfunc_end5:
	.size	lv_draw_mask_free_param, .Lfunc_end5-lv_draw_mask_free_param
	.cfi_endproc
	.file	6 "C:\\Users\\Hyacincher\\Desktop\\HyTelectrl\\Code\\Project" "../GUILib/src/draw/../misc/lv_mem.h"
	.cantunwind
	.fnend
                                        @ -- End function
	.section	.text._lv_draw_mask_cleanup,"ax",%progbits
	.hidden	_lv_draw_mask_cleanup           @ -- Begin function _lv_draw_mask_cleanup
	.globl	_lv_draw_mask_cleanup
	.p2align	1
	.type	_lv_draw_mask_cleanup,%function
	.code	16                              @ @_lv_draw_mask_cleanup
	.thumb_func
_lv_draw_mask_cleanup:
.Lfunc_begin6:
	.loc	5 225 0 is_stmt 1               @ ../GUILib/src/draw/lv_draw_mask.c:225:0
	.fnstart
	.cfi_startproc
@ %bb.0:
	.save	{r4, r5, r7, lr}
	push	{r4, r5, r7, lr}
	.cfi_def_cfa_offset 16
	.cfi_offset lr, -4
	.cfi_offset r7, -8
	.cfi_offset r5, -12
	.cfi_offset r4, -16
	movw	r5, :lower16:_lv_circle_cache
	movs	r4, #0
.Ltmp75:
	@DEBUG_VALUE: _lv_draw_mask_cleanup:i <- 0
	movt	r5, :upper16:_lv_circle_cache
.Ltmp76:
	.p2align	2
.LBB6_1:                                @ =>This Inner Loop Header: Depth=1
	@DEBUG_VALUE: _lv_draw_mask_cleanup:i <- undef
	.loc	5 228 44 prologue_end           @ ../GUILib/src/draw/lv_draw_mask.c:228:44
	ldr	r0, [r5, r4]
.Ltmp77:
	.loc	5 228 12 is_stmt 0              @ ../GUILib/src/draw/lv_draw_mask.c:228:12
	cbz	r0, .LBB6_3
.Ltmp78:
@ %bb.2:                                @   in Loop: Header=BB6_1 Depth=1
	.loc	5 229 13 is_stmt 1              @ ../GUILib/src/draw/lv_draw_mask.c:229:13
	bl	lv_mem_free
.Ltmp79:
.LBB6_3:                                @   in Loop: Header=BB6_1 Depth=1
	.loc	5 231 9                         @ ../GUILib/src/draw/lv_draw_mask.c:231:9
	adds	r0, r5, r4
	movs	r1, #28
	bl	lv_memset_00
.Ltmp80:
	@DEBUG_VALUE: _lv_draw_mask_cleanup:i <- [DW_OP_plus_uconst 1, DW_OP_stack_value] undef
	.loc	5 227 18                        @ ../GUILib/src/draw/lv_draw_mask.c:227:18
	adds	r4, #28
.Ltmp81:
	.loc	5 227 5 is_stmt 0               @ ../GUILib/src/draw/lv_draw_mask.c:227:5
	cmp	r4, #112
.Ltmp82:
	.loc	5 233 1 is_stmt 1               @ ../GUILib/src/draw/lv_draw_mask.c:233:1
	it	eq
	popeq	{r4, r5, r7, pc}
	b	.LBB6_1
.Ltmp83:
.Lfunc_end6:
	.size	_lv_draw_mask_cleanup, .Lfunc_end6-_lv_draw_mask_cleanup
	.cfi_endproc
	.cantunwind
	.fnend
                                        @ -- End function
	.section	.text.lv_draw_mask_get_cnt,"ax",%progbits
	.hidden	lv_draw_mask_get_cnt            @ -- Begin function lv_draw_mask_get_cnt
	.globl	lv_draw_mask_get_cnt
	.p2align	1
	.type	lv_draw_mask_get_cnt,%function
	.code	16                              @ @lv_draw_mask_get_cnt
	.thumb_func
lv_draw_mask_get_cnt:
.Lfunc_begin7:
	.loc	5 240 0                         @ ../GUILib/src/draw/lv_draw_mask.c:240:0
	.fnstart
	.cfi_startproc
@ %bb.0:
	movw	r1, :lower16:_lv_draw_mask_list
	movs	r0, #0
.Ltmp84:
	@DEBUG_VALUE: lv_draw_mask_get_cnt:i <- 0
	@DEBUG_VALUE: lv_draw_mask_get_cnt:cnt <- 0
	movt	r1, :upper16:_lv_draw_mask_list
	movs	r2, #0
.Ltmp85:
	.p2align	2
.LBB7_1:                                @ =>This Inner Loop Header: Depth=1
	@DEBUG_VALUE: lv_draw_mask_get_cnt:cnt <- $r2
	@DEBUG_VALUE: lv_draw_mask_get_cnt:i <- $r0
	.loc	5 244 46 prologue_end           @ ../GUILib/src/draw/lv_draw_mask.c:244:46
	ldr.w	r3, [r1, r0, lsl #3]
.Ltmp86:
	.loc	5 243 39                        @ ../GUILib/src/draw/lv_draw_mask.c:243:39
	adds	r0, #1
.Ltmp87:
	@DEBUG_VALUE: lv_draw_mask_get_cnt:i <- $r0
	.loc	5 244 12                        @ ../GUILib/src/draw/lv_draw_mask.c:244:12
	cmp	r3, #0
	it	ne
	addne	r2, #1
.Ltmp88:
	@DEBUG_VALUE: lv_draw_mask_get_cnt:cnt <- $r2
	.loc	5 243 5                         @ ../GUILib/src/draw/lv_draw_mask.c:243:5
	cmp	r0, #16
	bne	.LBB7_1
.Ltmp89:
@ %bb.2:
	@DEBUG_VALUE: lv_draw_mask_get_cnt:cnt <- $r2
	@DEBUG_VALUE: lv_draw_mask_get_cnt:i <- $r0
	.loc	5 246 5                         @ ../GUILib/src/draw/lv_draw_mask.c:246:5
	uxtb	r0, r2
.Ltmp90:
	bx	lr
.Ltmp91:
.Lfunc_end7:
	.size	lv_draw_mask_get_cnt, .Lfunc_end7-lv_draw_mask_get_cnt
	.cfi_endproc
	.cantunwind
	.fnend
                                        @ -- End function
	.section	.text.lv_draw_mask_is_any,"ax",%progbits
	.hidden	lv_draw_mask_is_any             @ -- Begin function lv_draw_mask_is_any
	.globl	lv_draw_mask_is_any
	.p2align	1
	.type	lv_draw_mask_is_any,%function
	.code	16                              @ @lv_draw_mask_is_any
	.thumb_func
lv_draw_mask_is_any:
.Lfunc_begin8:
	.loc	5 250 0                         @ ../GUILib/src/draw/lv_draw_mask.c:250:0
	.fnstart
	.cfi_startproc
@ %bb.0:
	@DEBUG_VALUE: lv_draw_mask_is_any:a <- $r0
	@DEBUG_VALUE: lv_draw_mask_is_any:a <- $r0
	.save	{r4, r5, r6, lr}
	push	{r4, r5, r6, lr}
	.cfi_def_cfa_offset 16
	.cfi_offset lr, -4
	.cfi_offset r6, -8
	.cfi_offset r5, -12
	.cfi_offset r4, -16
.Ltmp92:
	.loc	5 251 8 prologue_end            @ ../GUILib/src/draw/lv_draw_mask.c:251:8
	cbz	r0, .LBB8_10
.Ltmp93:
@ %bb.1:
	@DEBUG_VALUE: lv_draw_mask_is_any:a <- $r0
	.loc	5 0 8 is_stmt 0                 @ ../GUILib/src/draw/lv_draw_mask.c:0:8
	movw	r6, :lower16:_lv_draw_mask_list
	mov	r4, r0
.Ltmp94:
	@DEBUG_VALUE: lv_draw_mask_is_any:a <- $r4
	@DEBUG_VALUE: lv_draw_mask_is_any:a <- $r4
	movs	r5, #0
	movt	r6, :upper16:_lv_draw_mask_list
.Ltmp95:
	.p2align	2
.LBB8_2:                                @ =>This Inner Loop Header: Depth=1
	@DEBUG_VALUE: lv_draw_mask_is_any:a <- $r4
	@DEBUG_VALUE: lv_draw_mask_is_any:i <- $r5
	.loc	5 255 86 is_stmt 1              @ ../GUILib/src/draw/lv_draw_mask.c:255:86
	ldr.w	r0, [r6, r5, lsl #3]
.Ltmp96:
	@DEBUG_VALUE: comm_param <- $r0
	.loc	5 256 12                        @ ../GUILib/src/draw/lv_draw_mask.c:256:12
	cbz	r0, .LBB8_8
.Ltmp97:
@ %bb.3:                                @   in Loop: Header=BB8_2 Depth=1
	@DEBUG_VALUE: lv_draw_mask_is_any:i <- $r5
	@DEBUG_VALUE: lv_draw_mask_is_any:a <- $r4
	@DEBUG_VALUE: comm_param <- $r0
	@DEBUG_VALUE: comm_param <- $r0
	.loc	5 257 24                        @ ../GUILib/src/draw/lv_draw_mask.c:257:24
	ldrb	r1, [r0, #4]
.Ltmp98:
	.loc	5 257 12 is_stmt 0              @ ../GUILib/src/draw/lv_draw_mask.c:257:12
	cmp	r1, #2
	bne	.LBB8_11
.Ltmp99:
@ %bb.4:                                @   in Loop: Header=BB8_2 Depth=1
	@DEBUG_VALUE: lv_draw_mask_is_any:i <- $r5
	@DEBUG_VALUE: lv_draw_mask_is_any:a <- $r4
	@DEBUG_VALUE: comm_param <- $r0
	@DEBUG_VALUE: radius_param <- $r0
	.loc	5 259 34 is_stmt 1              @ ../GUILib/src/draw/lv_draw_mask.c:259:34
	ldrb	r1, [r0, #18]
	.loc	5 0 0 is_stmt 0                 @ ../GUILib/src/draw/lv_draw_mask.c:0:0
	ldrh	r2, [r0, #16]
.Ltmp100:
	.loc	5 259 16                        @ ../GUILib/src/draw/lv_draw_mask.c:259:16
	lsls	r1, r1, #31
.Ltmp101:
	.loc	5 259 30                        @ ../GUILib/src/draw/lv_draw_mask.c:259:30
	add.w	r1, r0, #8
.Ltmp102:
	.loc	5 263 21 is_stmt 1              @ ../GUILib/src/draw/lv_draw_mask.c:263:21
	sxth	r2, r2
	mov	r0, r4
.Ltmp103:
	.loc	5 259 16                        @ ../GUILib/src/draw/lv_draw_mask.c:259:16
	bne	.LBB8_6
.Ltmp104:
@ %bb.5:                                @   in Loop: Header=BB8_2 Depth=1
	@DEBUG_VALUE: lv_draw_mask_is_any:i <- $r5
	@DEBUG_VALUE: lv_draw_mask_is_any:a <- $r4
	.loc	5 263 21                        @ ../GUILib/src/draw/lv_draw_mask.c:263:21
	bl	_lv_area_is_in
.Ltmp105:
	.loc	5 0 21 is_stmt 0                @ ../GUILib/src/draw/lv_draw_mask.c:0:21
	b	.LBB8_7
.Ltmp106:
	.p2align	2
.LBB8_6:                                @   in Loop: Header=BB8_2 Depth=1
	@DEBUG_VALUE: lv_draw_mask_is_any:i <- $r5
	@DEBUG_VALUE: lv_draw_mask_is_any:a <- $r4
	.loc	5 260 21 is_stmt 1              @ ../GUILib/src/draw/lv_draw_mask.c:260:21
	bl	_lv_area_is_out
.Ltmp107:
.LBB8_7:                                @   in Loop: Header=BB8_2 Depth=1
	@DEBUG_VALUE: lv_draw_mask_is_any:i <- $r5
	@DEBUG_VALUE: lv_draw_mask_is_any:a <- $r4
	.loc	5 0 0 is_stmt 0                 @ ../GUILib/src/draw/lv_draw_mask.c:0:0
	cbz	r0, .LBB8_11
.Ltmp108:
.LBB8_8:                                @   in Loop: Header=BB8_2 Depth=1
	@DEBUG_VALUE: lv_draw_mask_is_any:i <- $r5
	@DEBUG_VALUE: lv_draw_mask_is_any:a <- $r4
	.loc	5 254 39 is_stmt 1              @ ../GUILib/src/draw/lv_draw_mask.c:254:39
	adds	r5, #1
.Ltmp109:
	@DEBUG_VALUE: lv_draw_mask_is_any:i <- $r5
	.loc	5 254 5 is_stmt 0               @ ../GUILib/src/draw/lv_draw_mask.c:254:5
	cmp	r5, #16
	bne	.LBB8_2
.Ltmp110:
@ %bb.9:
	@DEBUG_VALUE: lv_draw_mask_is_any:i <- $r5
	@DEBUG_VALUE: lv_draw_mask_is_any:a <- $r4
	.loc	5 0 5                           @ ../GUILib/src/draw/lv_draw_mask.c:0:5
	movs	r0, #0
	.loc	5 273 1 is_stmt 1               @ ../GUILib/src/draw/lv_draw_mask.c:273:1
	pop	{r4, r5, r6, pc}
.Ltmp111:
.LBB8_10:
	@DEBUG_VALUE: lv_draw_mask_is_any:a <- $r0
	.loc	5 251 60                        @ ../GUILib/src/draw/lv_draw_mask.c:251:60
	movw	r0, :lower16:_lv_draw_mask_list
.Ltmp112:
	@DEBUG_VALUE: lv_draw_mask_is_any:a <- [DW_OP_LLVM_entry_value 1] $r0
	movt	r0, :upper16:_lv_draw_mask_list
	ldr	r0, [r0]
	.loc	5 251 26 is_stmt 0              @ ../GUILib/src/draw/lv_draw_mask.c:251:26
	cmp	r0, #0
	it	ne
	movne	r0, #1
.Ltmp113:
	.loc	5 273 1 is_stmt 1               @ ../GUILib/src/draw/lv_draw_mask.c:273:1
	pop	{r4, r5, r6, pc}
.Ltmp114:
.LBB8_11:
	@DEBUG_VALUE: lv_draw_mask_is_any:i <- $r5
	@DEBUG_VALUE: lv_draw_mask_is_any:a <- $r4
	.loc	5 0 1 is_stmt 0                 @ ../GUILib/src/draw/lv_draw_mask.c:0:1
	movs	r0, #1
	.loc	5 273 1                         @ ../GUILib/src/draw/lv_draw_mask.c:273:1
	pop	{r4, r5, r6, pc}
.Ltmp115:
.Lfunc_end8:
	.size	lv_draw_mask_is_any, .Lfunc_end8-lv_draw_mask_is_any
	.cfi_endproc
	.cantunwind
	.fnend
                                        @ -- End function
	.section	.text.lv_draw_mask_line_points_init,"ax",%progbits
	.hidden	lv_draw_mask_line_points_init   @ -- Begin function lv_draw_mask_line_points_init
	.globl	lv_draw_mask_line_points_init
	.p2align	1
	.type	lv_draw_mask_line_points_init,%function
	.code	16                              @ @lv_draw_mask_line_points_init
	.thumb_func
lv_draw_mask_line_points_init:
.Lfunc_begin9:
	.loc	5 288 0 is_stmt 1               @ ../GUILib/src/draw/lv_draw_mask.c:288:0
	.fnstart
	.cfi_startproc
@ %bb.0:
	@DEBUG_VALUE: lv_draw_mask_line_points_init:param <- $r0
	@DEBUG_VALUE: lv_draw_mask_line_points_init:p1x <- $r1
	@DEBUG_VALUE: lv_draw_mask_line_points_init:p1y <- $r2
	@DEBUG_VALUE: lv_draw_mask_line_points_init:p2x <- $r3
	.save	{r4, r5, r6, r7, r8, r9, lr}
	push.w	{r4, r5, r6, r7, r8, r9, lr}
	.cfi_def_cfa_offset 28
	.cfi_offset lr, -4
	.cfi_offset r9, -8
	.cfi_offset r8, -12
	.cfi_offset r7, -16
	.cfi_offset r6, -20
	.cfi_offset r5, -24
	.cfi_offset r4, -28
	.pad	#4
	sub	sp, #4
	.cfi_def_cfa_offset 32
	mov	r9, r1
.Ltmp116:
	@DEBUG_VALUE: lv_draw_mask_line_points_init:p1x <- $r9
	ldrd	r6, r8, [sp, #32]
.Ltmp117:
	.loc	5 289 5 prologue_end            @ ../GUILib/src/draw/lv_draw_mask.c:289:5
	movs	r1, #44
	mov	r5, r3
.Ltmp118:
	@DEBUG_VALUE: lv_draw_mask_line_points_init:p2x <- $r5
	.loc	5 0 5 is_stmt 0                 @ ../GUILib/src/draw/lv_draw_mask.c:0:5
	mov	r7, r2
.Ltmp119:
	@DEBUG_VALUE: lv_draw_mask_line_points_init:p1y <- $r7
	mov	r4, r0
.Ltmp120:
	@DEBUG_VALUE: lv_draw_mask_line_points_init:p2y <- $r6
	@DEBUG_VALUE: lv_draw_mask_line_points_init:side <- $r8
	@DEBUG_VALUE: lv_draw_mask_line_points_init:p2x <- $r5
	@DEBUG_VALUE: lv_draw_mask_line_points_init:p1y <- $r7
	@DEBUG_VALUE: lv_draw_mask_line_points_init:p1x <- $r9
	@DEBUG_VALUE: lv_draw_mask_line_points_init:param <- $r4
	.loc	5 289 5                         @ ../GUILib/src/draw/lv_draw_mask.c:289:5
	bl	lv_memset_00
.Ltmp121:
	.loc	5 291 12 is_stmt 1              @ ../GUILib/src/draw/lv_draw_mask.c:291:12
	eor.w	r0, r7, r6
	eor	r1, r8, #3
	.loc	5 291 19 is_stmt 0              @ ../GUILib/src/draw/lv_draw_mask.c:291:19
	orrs	r0, r1
	clz	r0, r0
	lsrs	r0, r0, #5
	subs	r1, r6, r0
	subs	r0, r7, r0
.Ltmp122:
	@DEBUG_VALUE: lv_draw_mask_line_points_init:p1y <- $r0
	sxth	r1, r1
	sxth	r0, r0
.Ltmp123:
	@DEBUG_VALUE: lv_draw_mask_line_points_init:p2y <- undef
	.loc	5 296 8 is_stmt 1               @ ../GUILib/src/draw/lv_draw_mask.c:296:8
	cmp	r0, r1
	ble	.LBB9_2
.Ltmp124:
@ %bb.1:
	@DEBUG_VALUE: lv_draw_mask_line_points_init:p1x <- $r9
	@DEBUG_VALUE: lv_draw_mask_line_points_init:side <- $r8
	@DEBUG_VALUE: lv_draw_mask_line_points_init:p2x <- $r5
	@DEBUG_VALUE: lv_draw_mask_line_points_init:param <- $r4
	@DEBUG_VALUE: lv_draw_mask_line_points_init:p1x <- undef
	@DEBUG_VALUE: lv_draw_mask_line_points_init:p1y <- $r1
	@DEBUG_VALUE: lv_draw_mask_line_points_init:p2x <- undef
	@DEBUG_VALUE: lv_draw_mask_line_points_init:p2y <- $r0
	@DEBUG_VALUE: t <- $r1
	.loc	5 0 0 is_stmt 0                 @ ../GUILib/src/draw/lv_draw_mask.c:0:0
	mov	r3, r0
.Ltmp125:
	@DEBUG_VALUE: lv_draw_mask_line_points_init:p2y <- $r3
	mov	r2, r9
	b	.LBB9_3
.Ltmp126:
.LBB9_2:
	@DEBUG_VALUE: lv_draw_mask_line_points_init:p1x <- $r9
	@DEBUG_VALUE: lv_draw_mask_line_points_init:side <- $r8
	@DEBUG_VALUE: lv_draw_mask_line_points_init:p2x <- $r5
	@DEBUG_VALUE: lv_draw_mask_line_points_init:param <- $r4
	mov	r3, r1
	mov	r2, r5
	mov	r1, r0
	mov	r5, r9
.Ltmp127:
	@DEBUG_VALUE: lv_draw_mask_line_points_init:p1x <- $r5
.LBB9_3:
	@DEBUG_VALUE: lv_draw_mask_line_points_init:side <- $r8
	@DEBUG_VALUE: lv_draw_mask_line_points_init:param <- $r4
	@DEBUG_VALUE: lv_draw_mask_line_points_init:p1x <- $r5
	@DEBUG_VALUE: lv_draw_mask_line_points_init:p1y <- $r1
	@DEBUG_VALUE: lv_draw_mask_line_points_init:p2x <- $r2
	@DEBUG_VALUE: lv_draw_mask_line_points_init:p2y <- $r3
	.loc	5 311 21 is_stmt 1              @ ../GUILib/src/draw/lv_draw_mask.c:311:21
	ldrb	r6, [r4, #16]
	.loc	5 307 21                        @ ../GUILib/src/draw/lv_draw_mask.c:307:21
	strh	r5, [r4, #8]
	.loc	5 311 21                        @ ../GUILib/src/draw/lv_draw_mask.c:311:21
	and	r12, r8, #3
	and	r6, r6, #252
	.loc	5 313 20                        @ ../GUILib/src/draw/lv_draw_mask.c:313:20
	strh	r5, [r4, #18]
	.loc	5 315 20                        @ ../GUILib/src/draw/lv_draw_mask.c:315:20
	subs	r5, r2, r5
.Ltmp128:
	.loc	5 309 21                        @ ../GUILib/src/draw/lv_draw_mask.c:309:21
	strh	r2, [r4, #12]
	.loc	5 311 21                        @ ../GUILib/src/draw/lv_draw_mask.c:311:21
	add	r6, r12
	.loc	5 315 20                        @ ../GUILib/src/draw/lv_draw_mask.c:315:20
	mov	r2, r5
.Ltmp129:
	.loc	5 308 21                        @ ../GUILib/src/draw/lv_draw_mask.c:308:21
	strh	r1, [r4, #10]
	.loc	5 310 21                        @ ../GUILib/src/draw/lv_draw_mask.c:310:21
	strh	r3, [r4, #14]
	.loc	5 315 17                        @ ../GUILib/src/draw/lv_draw_mask.c:315:17
	ldrb.w	r7, [r4, #40]
	.loc	5 311 21                        @ ../GUILib/src/draw/lv_draw_mask.c:311:21
	strb	r6, [r4, #16]
	.loc	5 314 20                        @ ../GUILib/src/draw/lv_draw_mask.c:314:20
	strh	r1, [r4, #20]
	.loc	5 315 20                        @ ../GUILib/src/draw/lv_draw_mask.c:315:20
	it	mi
	rsbmi	r2, r5, #0
	.loc	5 315 40 is_stmt 0              @ ../GUILib/src/draw/lv_draw_mask.c:315:40
	subs	r6, r3, r1
	mov	r1, r6
.Ltmp130:
	it	mi
	rsbmi	r1, r6, #0
	.loc	5 315 38                        @ ../GUILib/src/draw/lv_draw_mask.c:315:38
	cmp	r2, r1
	mov.w	r3, #0
.Ltmp131:
	.loc	5 315 17                        @ ../GUILib/src/draw/lv_draw_mask.c:315:17
	bic	lr, r7, #1
	.loc	5 318 19 is_stmt 1              @ ../GUILib/src/draw/lv_draw_mask.c:318:19
	movw	r7, :lower16:lv_draw_mask_line
	mov.w	r0, #0
	.loc	5 315 38                        @ ../GUILib/src/draw/lv_draw_mask.c:315:38
	it	hi
	movhi	r3, #1
	.loc	5 318 19                        @ ../GUILib/src/draw/lv_draw_mask.c:318:19
	movt	r7, :upper16:lv_draw_mask_line
	.loc	5 324 8                         @ ../GUILib/src/draw/lv_draw_mask.c:324:8
	cmp	r2, r1
	.loc	5 317 21                        @ ../GUILib/src/draw/lv_draw_mask.c:317:21
	strd	r0, r0, [r4, #24]
	.loc	5 318 19                        @ ../GUILib/src/draw/lv_draw_mask.c:318:19
	str	r7, [r4]
	.loc	5 319 21                        @ ../GUILib/src/draw/lv_draw_mask.c:319:21
	strb	r0, [r4, #4]
.Ltmp132:
	@DEBUG_VALUE: lv_draw_mask_line_points_init:dy <- $r6
	@DEBUG_VALUE: lv_draw_mask_line_points_init:dx <- $r5
	.loc	5 324 8                         @ ../GUILib/src/draw/lv_draw_mask.c:324:8
	bls	.LBB9_6
.Ltmp133:
@ %bb.4:
	@DEBUG_VALUE: lv_draw_mask_line_points_init:side <- $r8
	@DEBUG_VALUE: lv_draw_mask_line_points_init:dy <- $r6
	@DEBUG_VALUE: lv_draw_mask_line_points_init:dx <- $r5
	@DEBUG_VALUE: lv_draw_mask_line_points_init:param <- $r4
	.loc	5 328 12                        @ ../GUILib/src/draw/lv_draw_mask.c:328:12
	cbz	r5, .LBB9_8
.Ltmp134:
@ %bb.5:
	@DEBUG_VALUE: lv_draw_mask_line_points_init:side <- $r8
	@DEBUG_VALUE: lv_draw_mask_line_points_init:dy <- $r6
	@DEBUG_VALUE: lv_draw_mask_line_points_init:dx <- $r5
	@DEBUG_VALUE: lv_draw_mask_line_points_init:param <- $r4
	.loc	5 0 12 is_stmt 0                @ ../GUILib/src/draw/lv_draw_mask.c:0:12
	mov.w	r0, #1048576
.Ltmp135:
	.loc	5 329 28 is_stmt 1              @ ../GUILib/src/draw/lv_draw_mask.c:329:28
	sdiv	r0, r0, r5
.Ltmp136:
	@DEBUG_VALUE: m <- $r0
	.loc	5 330 34                        @ ../GUILib/src/draw/lv_draw_mask.c:330:34
	muls	r0, r6, r0
.Ltmp137:
	.loc	5 330 40 is_stmt 0              @ ../GUILib/src/draw/lv_draw_mask.c:330:40
	asrs	r1, r0, #10
	.loc	5 330 29                        @ ../GUILib/src/draw/lv_draw_mask.c:330:29
	str	r1, [r4, #28]
	b	.LBB9_9
.Ltmp138:
.LBB9_6:
	@DEBUG_VALUE: lv_draw_mask_line_points_init:side <- $r8
	@DEBUG_VALUE: lv_draw_mask_line_points_init:dy <- $r6
	@DEBUG_VALUE: lv_draw_mask_line_points_init:dx <- $r5
	@DEBUG_VALUE: lv_draw_mask_line_points_init:param <- $r4
	.loc	5 343 12 is_stmt 1              @ ../GUILib/src/draw/lv_draw_mask.c:343:12
	cbz	r6, .LBB9_11
.Ltmp139:
@ %bb.7:
	@DEBUG_VALUE: lv_draw_mask_line_points_init:side <- $r8
	@DEBUG_VALUE: lv_draw_mask_line_points_init:dy <- $r6
	@DEBUG_VALUE: lv_draw_mask_line_points_init:dx <- $r5
	@DEBUG_VALUE: lv_draw_mask_line_points_init:param <- $r4
	.loc	5 0 12 is_stmt 0                @ ../GUILib/src/draw/lv_draw_mask.c:0:12
	mov.w	r0, #1048576
.Ltmp140:
	.loc	5 344 28 is_stmt 1              @ ../GUILib/src/draw/lv_draw_mask.c:344:28
	sdiv	r0, r0, r6
.Ltmp141:
	@DEBUG_VALUE: m <- $r0
	.loc	5 345 34                        @ ../GUILib/src/draw/lv_draw_mask.c:345:34
	muls	r0, r5, r0
.Ltmp142:
	.loc	5 345 40 is_stmt 0              @ ../GUILib/src/draw/lv_draw_mask.c:345:40
	asrs	r1, r0, #10
	.loc	5 345 29                        @ ../GUILib/src/draw/lv_draw_mask.c:345:29
	str	r1, [r4, #24]
	b	.LBB9_12
.Ltmp143:
.LBB9_8:
	@DEBUG_VALUE: lv_draw_mask_line_points_init:side <- $r8
	@DEBUG_VALUE: lv_draw_mask_line_points_init:dy <- $r6
	@DEBUG_VALUE: lv_draw_mask_line_points_init:dx <- $r5
	@DEBUG_VALUE: lv_draw_mask_line_points_init:param <- $r4
	.loc	5 0 29                          @ ../GUILib/src/draw/lv_draw_mask.c:0:29
	movs	r1, #0
.Ltmp144:
.LBB9_9:
	@DEBUG_VALUE: lv_draw_mask_line_points_init:side <- $r8
	@DEBUG_VALUE: lv_draw_mask_line_points_init:dy <- $r6
	@DEBUG_VALUE: lv_draw_mask_line_points_init:dx <- $r5
	@DEBUG_VALUE: lv_draw_mask_line_points_init:param <- $r4
	.loc	5 333 12 is_stmt 1              @ ../GUILib/src/draw/lv_draw_mask.c:333:12
	cbz	r6, .LBB9_14
.Ltmp145:
@ %bb.10:
	@DEBUG_VALUE: lv_draw_mask_line_points_init:side <- $r8
	@DEBUG_VALUE: lv_draw_mask_line_points_init:dy <- $r6
	@DEBUG_VALUE: lv_draw_mask_line_points_init:dx <- $r5
	@DEBUG_VALUE: lv_draw_mask_line_points_init:param <- $r4
	.loc	5 0 12 is_stmt 0                @ ../GUILib/src/draw/lv_draw_mask.c:0:12
	mov.w	r0, #1048576
.Ltmp146:
	.loc	5 334 28 is_stmt 1              @ ../GUILib/src/draw/lv_draw_mask.c:334:28
	sdiv	r0, r0, r6
.Ltmp147:
	@DEBUG_VALUE: m <- $r0
	.loc	5 335 34                        @ ../GUILib/src/draw/lv_draw_mask.c:335:34
	muls	r0, r5, r0
.Ltmp148:
	.loc	5 335 40 is_stmt 0              @ ../GUILib/src/draw/lv_draw_mask.c:335:40
	asrs	r0, r0, #10
	.loc	5 335 29                        @ ../GUILib/src/draw/lv_draw_mask.c:335:29
	str	r0, [r4, #24]
	b	.LBB9_14
.Ltmp149:
.LBB9_11:
	@DEBUG_VALUE: lv_draw_mask_line_points_init:side <- $r8
	@DEBUG_VALUE: lv_draw_mask_line_points_init:dy <- $r6
	@DEBUG_VALUE: lv_draw_mask_line_points_init:dx <- $r5
	@DEBUG_VALUE: lv_draw_mask_line_points_init:param <- $r4
	.loc	5 0 29                          @ ../GUILib/src/draw/lv_draw_mask.c:0:29
	movs	r1, #0
.Ltmp150:
.LBB9_12:
	@DEBUG_VALUE: lv_draw_mask_line_points_init:side <- $r8
	@DEBUG_VALUE: lv_draw_mask_line_points_init:dy <- $r6
	@DEBUG_VALUE: lv_draw_mask_line_points_init:dx <- $r5
	@DEBUG_VALUE: lv_draw_mask_line_points_init:param <- $r4
	.loc	5 348 12 is_stmt 1              @ ../GUILib/src/draw/lv_draw_mask.c:348:12
	cbz	r5, .LBB9_14
.Ltmp151:
@ %bb.13:
	@DEBUG_VALUE: lv_draw_mask_line_points_init:side <- $r8
	@DEBUG_VALUE: lv_draw_mask_line_points_init:dy <- $r6
	@DEBUG_VALUE: lv_draw_mask_line_points_init:dx <- $r5
	@DEBUG_VALUE: lv_draw_mask_line_points_init:param <- $r4
	.loc	5 0 12 is_stmt 0                @ ../GUILib/src/draw/lv_draw_mask.c:0:12
	mov.w	r0, #1048576
.Ltmp152:
	.loc	5 349 28 is_stmt 1              @ ../GUILib/src/draw/lv_draw_mask.c:349:28
	sdiv	r0, r0, r5
.Ltmp153:
	@DEBUG_VALUE: m <- $r0
	.loc	5 350 34                        @ ../GUILib/src/draw/lv_draw_mask.c:350:34
	muls	r0, r6, r0
.Ltmp154:
	.loc	5 350 40 is_stmt 0              @ ../GUILib/src/draw/lv_draw_mask.c:350:40
	asrs	r0, r0, #10
	.loc	5 350 29                        @ ../GUILib/src/draw/lv_draw_mask.c:350:29
	str	r0, [r4, #28]
.Ltmp155:
.LBB9_14:
	@DEBUG_VALUE: lv_draw_mask_line_points_init:side <- $r8
	@DEBUG_VALUE: lv_draw_mask_line_points_init:dy <- $r6
	@DEBUG_VALUE: lv_draw_mask_line_points_init:dx <- $r5
	@DEBUG_VALUE: lv_draw_mask_line_points_init:param <- $r4
	.loc	5 0 0                           @ ../GUILib/src/draw/lv_draw_mask.c:0:0
	add.w	r2, lr, r3
	.loc	5 355 8 is_stmt 1               @ ../GUILib/src/draw/lv_draw_mask.c:355:8
	cmp.w	r12, #2
.Ltmp156:
	.loc	5 0 0 is_stmt 0                 @ ../GUILib/src/draw/lv_draw_mask.c:0:0
	str	r1, [r4, #32]
.Ltmp157:
	.loc	5 355 8                         @ ../GUILib/src/draw/lv_draw_mask.c:355:8
	beq	.LBB9_19
.Ltmp158:
@ %bb.15:
	@DEBUG_VALUE: lv_draw_mask_line_points_init:side <- $r8
	@DEBUG_VALUE: lv_draw_mask_line_points_init:dy <- $r6
	@DEBUG_VALUE: lv_draw_mask_line_points_init:dx <- $r5
	@DEBUG_VALUE: lv_draw_mask_line_points_init:param <- $r4
	cmp.w	r12, #1
	beq	.LBB9_20
.Ltmp159:
@ %bb.16:
	@DEBUG_VALUE: lv_draw_mask_line_points_init:side <- $r8
	@DEBUG_VALUE: lv_draw_mask_line_points_init:dy <- $r6
	@DEBUG_VALUE: lv_draw_mask_line_points_init:dx <- $r5
	@DEBUG_VALUE: lv_draw_mask_line_points_init:param <- $r4
	cmp.w	r12, #0
	beq	.LBB9_18
.Ltmp160:
@ %bb.17:
	@DEBUG_VALUE: lv_draw_mask_line_points_init:side <- $r8
	@DEBUG_VALUE: lv_draw_mask_line_points_init:dy <- $r6
	@DEBUG_VALUE: lv_draw_mask_line_points_init:dx <- $r5
	@DEBUG_VALUE: lv_draw_mask_line_points_init:param <- $r4
	.loc	5 362 12 is_stmt 1              @ ../GUILib/src/draw/lv_draw_mask.c:362:12
	cmp	r1, #1
	blt	.LBB9_20
.Ltmp161:
.LBB9_18:
	@DEBUG_VALUE: lv_draw_mask_line_points_init:side <- $r8
	@DEBUG_VALUE: lv_draw_mask_line_points_init:dy <- $r6
	@DEBUG_VALUE: lv_draw_mask_line_points_init:dx <- $r5
	@DEBUG_VALUE: lv_draw_mask_line_points_init:param <- $r4
	.loc	5 0 0 is_stmt 0                 @ ../GUILib/src/draw/lv_draw_mask.c:0:0
	and	r0, r2, #253
	b	.LBB9_21
.Ltmp162:
.LBB9_19:
	@DEBUG_VALUE: lv_draw_mask_line_points_init:side <- $r8
	@DEBUG_VALUE: lv_draw_mask_line_points_init:dy <- $r6
	@DEBUG_VALUE: lv_draw_mask_line_points_init:dx <- $r5
	@DEBUG_VALUE: lv_draw_mask_line_points_init:param <- $r4
	.loc	5 358 12 is_stmt 1              @ ../GUILib/src/draw/lv_draw_mask.c:358:12
	cmp	r1, #1
	blt	.LBB9_18
.Ltmp163:
.LBB9_20:
	@DEBUG_VALUE: lv_draw_mask_line_points_init:side <- $r8
	@DEBUG_VALUE: lv_draw_mask_line_points_init:dy <- $r6
	@DEBUG_VALUE: lv_draw_mask_line_points_init:dx <- $r5
	@DEBUG_VALUE: lv_draw_mask_line_points_init:param <- $r4
	.loc	5 0 0 is_stmt 0                 @ ../GUILib/src/draw/lv_draw_mask.c:0:0
	orr	r0, r2, #2
.Ltmp164:
.LBB9_21:
	@DEBUG_VALUE: lv_draw_mask_line_points_init:side <- $r8
	@DEBUG_VALUE: lv_draw_mask_line_points_init:dy <- $r6
	@DEBUG_VALUE: lv_draw_mask_line_points_init:dx <- $r5
	@DEBUG_VALUE: lv_draw_mask_line_points_init:param <- $r4
	strb.w	r0, [r4, #40]
.Ltmp165:
	.loc	5 366 31 is_stmt 1              @ ../GUILib/src/draw/lv_draw_mask.c:366:31
	asrs	r0, r1, #2
	movs	r2, #0
	.loc	5 367 8                         @ ../GUILib/src/draw/lv_draw_mask.c:367:8
	cmp	r1, #0
	it	mi
	submi.w	r0, r2, r1, asr #2
	.loc	5 0 0 is_stmt 0                 @ ../GUILib/src/draw/lv_draw_mask.c:0:0
	str	r0, [r4, #36]
	.loc	5 368 1 is_stmt 1               @ ../GUILib/src/draw/lv_draw_mask.c:368:1
	add	sp, #4
	pop.w	{r4, r5, r6, r7, r8, r9, pc}
.Ltmp166:
.Lfunc_end9:
	.size	lv_draw_mask_line_points_init, .Lfunc_end9-lv_draw_mask_line_points_init
	.cfi_endproc
	.cantunwind
	.fnend
                                        @ -- End function
	.section	.text.lv_draw_mask_line,"ax",%progbits
	.p2align	1                               @ -- Begin function lv_draw_mask_line
	.type	lv_draw_mask_line,%function
	.code	16                              @ @lv_draw_mask_line
	.thumb_func
lv_draw_mask_line:
.Lfunc_begin10:
	.loc	5 570 0                         @ ../GUILib/src/draw/lv_draw_mask.c:570:0
	.fnstart
	.cfi_startproc
@ %bb.0:
	@DEBUG_VALUE: lv_draw_mask_line:mask_buf <- $r0
	@DEBUG_VALUE: lv_draw_mask_line:abs_x <- $r1
	@DEBUG_VALUE: lv_draw_mask_line:abs_y <- $r2
	@DEBUG_VALUE: lv_draw_mask_line:len <- $r3
	.save	{r4, r5, r6, r7, r8, lr}
	push.w	{r4, r5, r6, r7, r8, lr}
	.cfi_def_cfa_offset 24
	.cfi_offset lr, -4
	.cfi_offset r8, -8
	.cfi_offset r7, -12
	.cfi_offset r6, -16
	.cfi_offset r5, -20
	.cfi_offset r4, -24
	ldr.w	r12, [sp, #24]
.Ltmp167:
	@DEBUG_VALUE: lv_draw_mask_line:p <- [DW_OP_plus_uconst 24] [$sp+0]
	@DEBUG_VALUE: lv_draw_mask_line:len <- $r3
	@DEBUG_VALUE: lv_draw_mask_line:abs_y <- $r2
	@DEBUG_VALUE: lv_draw_mask_line:abs_x <- $r1
	.loc	5 572 23 prologue_end           @ ../GUILib/src/draw/lv_draw_mask.c:572:23
	ldrh.w	r7, [r12, #20]
	@DEBUG_VALUE: lv_draw_mask_line:mask_buf <- $r0
	.loc	5 0 0 is_stmt 0                 @ ../GUILib/src/draw/lv_draw_mask.c:0:0
	ldrb.w	r5, [r12, #40]
	.loc	5 572 11                        @ ../GUILib/src/draw/lv_draw_mask.c:572:11
	subs	r2, r2, r7
.Ltmp168:
	@DEBUG_VALUE: lv_draw_mask_line:abs_y <- [DW_OP_LLVM_entry_value 1] $r2
	@DEBUG_VALUE: lv_draw_mask_line:abs_y <- $r2
	.loc	5 573 23 is_stmt 1              @ ../GUILib/src/draw/lv_draw_mask.c:573:23
	ldrh.w	r7, [r12, #18]
	.loc	5 572 11                        @ ../GUILib/src/draw/lv_draw_mask.c:572:11
	sxth	r2, r2
.Ltmp169:
	@DEBUG_VALUE: lv_draw_mask_line:abs_y <- [DW_OP_LLVM_entry_value 1] $r2
	.loc	5 573 11                        @ ../GUILib/src/draw/lv_draw_mask.c:573:11
	subs	r1, r1, r7
.Ltmp170:
	@DEBUG_VALUE: lv_draw_mask_line:abs_x <- [DW_OP_LLVM_entry_value 1] $r1
	@DEBUG_VALUE: lv_draw_mask_line:abs_x <- $r1
	sxth.w	lr, r1
.Ltmp171:
	.loc	5 576 11                        @ ../GUILib/src/draw/lv_draw_mask.c:576:11
	ldr.w	r1, [r12, #32]
.Ltmp172:
	@DEBUG_VALUE: lv_draw_mask_line:abs_x <- [DW_OP_LLVM_entry_value 1] $r1
	.loc	5 576 8 is_stmt 0               @ ../GUILib/src/draw/lv_draw_mask.c:576:8
	cmp	r1, #0
	.loc	5 0 0                           @ ../GUILib/src/draw/lv_draw_mask.c:0:0
	and	r1, r5, #1
	.loc	5 576 8                         @ ../GUILib/src/draw/lv_draw_mask.c:576:8
	beq	.LBB10_13
.Ltmp173:
@ %bb.1:
	@DEBUG_VALUE: lv_draw_mask_line:len <- $r3
	@DEBUG_VALUE: lv_draw_mask_line:mask_buf <- $r0
	@DEBUG_VALUE: lv_draw_mask_line:p <- [DW_OP_plus_uconst 24] [$sp+0]
	@DEBUG_VALUE: lv_draw_mask_line:abs_x <- [DW_OP_LLVM_entry_value 1] $r1
	@DEBUG_VALUE: lv_draw_mask_line:abs_y <- [DW_OP_LLVM_entry_value 1] $r2
	.loc	5 617 8 is_stmt 1               @ ../GUILib/src/draw/lv_draw_mask.c:617:8
	cmp	r1, #0
	bne	.LBB10_19
.Ltmp174:
@ %bb.2:
	@DEBUG_VALUE: lv_draw_mask_line:len <- $r3
	@DEBUG_VALUE: lv_draw_mask_line:mask_buf <- $r0
	@DEBUG_VALUE: lv_draw_mask_line:p <- [DW_OP_plus_uconst 24] [$sp+0]
	@DEBUG_VALUE: lv_draw_mask_line:abs_x <- [DW_OP_LLVM_entry_value 1] $r1
	@DEBUG_VALUE: lv_draw_mask_line:abs_y <- [DW_OP_LLVM_entry_value 1] $r2
	@DEBUG_VALUE: line_mask_steep:mask_buf <- $r0
	@DEBUG_VALUE: line_mask_steep:abs_x <- $lr
	@DEBUG_VALUE: line_mask_steep:abs_y <- $r2
	@DEBUG_VALUE: line_mask_steep:len <- $r3
	@DEBUG_VALUE: line_mask_steep:p <- $r12
	.loc	5 751 36                        @ ../GUILib/src/draw/lv_draw_mask.c:751:36
	ldr.w	r7, [r12, #24]
	mov.w	r8, #1
	.loc	5 751 45 is_stmt 0              @ ../GUILib/src/draw/lv_draw_mask.c:751:45
	mul	r4, r7, r2
	.loc	5 751 54                        @ ../GUILib/src/draw/lv_draw_mask.c:751:54
	asrs	r6, r4, #10
.Ltmp175:
	@DEBUG_VALUE: line_mask_steep:x_at_y <- $r6
	.loc	5 752 8 is_stmt 1               @ ../GUILib/src/draw/lv_draw_mask.c:752:8
	cmp	r7, #0
	mov	r1, r6
	it	gt
	addgt.w	r1, r8, r4, asr #10
.Ltmp176:
	@DEBUG_VALUE: line_mask_steep:x_at_y <- $r1
	.loc	5 753 8                         @ ../GUILib/src/draw/lv_draw_mask.c:753:8
	cmp	r1, lr
	blt.w	.LBB10_28
.Ltmp177:
@ %bb.3:
	@DEBUG_VALUE: line_mask_steep:p <- $r12
	@DEBUG_VALUE: line_mask_steep:len <- $r3
	@DEBUG_VALUE: lv_draw_mask_line:len <- $r3
	@DEBUG_VALUE: line_mask_steep:abs_y <- $r2
	@DEBUG_VALUE: line_mask_steep:x_at_y <- $r1
	@DEBUG_VALUE: line_mask_steep:mask_buf <- $r0
	@DEBUG_VALUE: lv_draw_mask_line:mask_buf <- $r0
	@DEBUG_VALUE: lv_draw_mask_line:p <- [DW_OP_plus_uconst 24] [$sp+0]
	@DEBUG_VALUE: line_mask_steep:abs_x <- $lr
	@DEBUG_VALUE: lv_draw_mask_line:abs_x <- [DW_OP_LLVM_entry_value 1] $r1
	@DEBUG_VALUE: lv_draw_mask_line:abs_y <- [DW_OP_LLVM_entry_value 1] $r2
	@DEBUG_VALUE: line_mask_steep:x_at_y <- $r6
	.loc	5 765 23                        @ ../GUILib/src/draw/lv_draw_mask.c:765:23
	add.w	r1, lr, r3
.Ltmp178:
	.loc	5 765 8 is_stmt 0               @ ../GUILib/src/draw/lv_draw_mask.c:765:8
	cmp	r6, r1
	bgt.w	.LBB10_30
.Ltmp179:
@ %bb.4:
	@DEBUG_VALUE: line_mask_steep:p <- $r12
	@DEBUG_VALUE: line_mask_steep:x_at_y <- $r6
	@DEBUG_VALUE: line_mask_steep:len <- $r3
	@DEBUG_VALUE: lv_draw_mask_line:len <- $r3
	@DEBUG_VALUE: line_mask_steep:abs_y <- $r2
	@DEBUG_VALUE: line_mask_steep:mask_buf <- $r0
	@DEBUG_VALUE: lv_draw_mask_line:mask_buf <- $r0
	@DEBUG_VALUE: lv_draw_mask_line:p <- [DW_OP_plus_uconst 24] [$sp+0]
	@DEBUG_VALUE: line_mask_steep:abs_x <- $lr
	@DEBUG_VALUE: lv_draw_mask_line:abs_x <- [DW_OP_LLVM_entry_value 1] $r1
	@DEBUG_VALUE: lv_draw_mask_line:abs_y <- [DW_OP_LLVM_entry_value 1] $r2
	.loc	5 775 26 is_stmt 1              @ ../GUILib/src/draw/lv_draw_mask.c:775:26
	lsls	r1, r2, #8
	mov.w	r4, #256
	.loc	5 775 33 is_stmt 0              @ ../GUILib/src/draw/lv_draw_mask.c:775:33
	muls	r1, r7, r1
.Ltmp180:
	@DEBUG_VALUE: line_mask_steep:xs <- [DW_OP_constu 10, DW_OP_shra, DW_OP_stack_value] $r1
	.loc	5 780 32 is_stmt 1              @ ../GUILib/src/draw/lv_draw_mask.c:780:32
	add.w	r2, r4, r2, lsl #8
.Ltmp181:
	.loc	5 776 22                        @ ../GUILib/src/draw/lv_draw_mask.c:776:22
	asr.w	r8, r1, #18
.Ltmp182:
	@DEBUG_VALUE: line_mask_steep:xsi <- $r8
	.loc	5 780 39                        @ ../GUILib/src/draw/lv_draw_mask.c:780:39
	muls	r2, r7, r2
.Ltmp183:
	@DEBUG_VALUE: line_mask_steep:xef <- undef
	@DEBUG_VALUE: line_mask_steep:xei <- undef
	@DEBUG_VALUE: line_mask_steep:xe <- [DW_OP_constu 10, DW_OP_shra, DW_OP_stack_value] $r2
	.loc	5 777 22                        @ ../GUILib/src/draw/lv_draw_mask.c:777:22
	ubfx	r6, r1, #10, #8
.Ltmp184:
	@DEBUG_VALUE: line_mask_steep:xsf <- $r6
	.loc	5 787 19                        @ ../GUILib/src/draw/lv_draw_mask.c:787:19
	cmp.w	r8, r2, asr #18
.Ltmp185:
	.loc	5 786 13                        @ ../GUILib/src/draw/lv_draw_mask.c:786:13
	rsb	r1, lr, r1, asr #18
.Ltmp186:
	@DEBUG_VALUE: line_mask_steep:k <- $r1
	.loc	5 787 19                        @ ../GUILib/src/draw/lv_draw_mask.c:787:19
	beq	.LBB10_8
.Ltmp187:
@ %bb.5:
	@DEBUG_VALUE: line_mask_steep:p <- $r12
	@DEBUG_VALUE: line_mask_steep:xsi <- $r8
	@DEBUG_VALUE: line_mask_steep:xsf <- $r6
	@DEBUG_VALUE: line_mask_steep:len <- $r3
	@DEBUG_VALUE: lv_draw_mask_line:len <- $r3
	@DEBUG_VALUE: line_mask_steep:xe <- [DW_OP_constu 10, DW_OP_shra, DW_OP_stack_value] $r2
	@DEBUG_VALUE: line_mask_steep:k <- $r1
	@DEBUG_VALUE: line_mask_steep:mask_buf <- $r0
	@DEBUG_VALUE: lv_draw_mask_line:mask_buf <- $r0
	@DEBUG_VALUE: lv_draw_mask_line:p <- [DW_OP_plus_uconst 24] [$sp+0]
	@DEBUG_VALUE: line_mask_steep:abs_x <- $lr
	@DEBUG_VALUE: lv_draw_mask_line:abs_x <- [DW_OP_LLVM_entry_value 1] $r1
	@DEBUG_VALUE: lv_draw_mask_line:abs_y <- [DW_OP_LLVM_entry_value 1] $r2
	@DEBUG_VALUE: line_mask_steep:xei <- undef
	.loc	5 787 39 is_stmt 0              @ ../GUILib/src/draw/lv_draw_mask.c:787:39
	cmp.w	r7, #-1
	bgt.w	.LBB10_43
.Ltmp188:
@ %bb.6:
	@DEBUG_VALUE: line_mask_steep:p <- $r12
	@DEBUG_VALUE: line_mask_steep:xsi <- $r8
	@DEBUG_VALUE: line_mask_steep:xsf <- $r6
	@DEBUG_VALUE: line_mask_steep:len <- $r3
	@DEBUG_VALUE: lv_draw_mask_line:len <- $r3
	@DEBUG_VALUE: line_mask_steep:xe <- [DW_OP_constu 10, DW_OP_shra, DW_OP_stack_value] $r2
	@DEBUG_VALUE: line_mask_steep:k <- $r1
	@DEBUG_VALUE: line_mask_steep:mask_buf <- $r0
	@DEBUG_VALUE: lv_draw_mask_line:mask_buf <- $r0
	@DEBUG_VALUE: lv_draw_mask_line:p <- [DW_OP_plus_uconst 24] [$sp+0]
	@DEBUG_VALUE: line_mask_steep:abs_x <- $lr
	@DEBUG_VALUE: lv_draw_mask_line:abs_x <- [DW_OP_LLVM_entry_value 1] $r1
	@DEBUG_VALUE: lv_draw_mask_line:abs_y <- [DW_OP_LLVM_entry_value 1] $r2
	@DEBUG_VALUE: line_mask_steep:xei <- undef
	cmp	r6, #0
	bne.w	.LBB10_43
.Ltmp189:
@ %bb.7:
	@DEBUG_VALUE: line_mask_steep:p <- $r12
	@DEBUG_VALUE: line_mask_steep:xsi <- $r8
	@DEBUG_VALUE: line_mask_steep:xsf <- $r6
	@DEBUG_VALUE: line_mask_steep:len <- $r3
	@DEBUG_VALUE: lv_draw_mask_line:len <- $r3
	@DEBUG_VALUE: line_mask_steep:xe <- [DW_OP_constu 10, DW_OP_shra, DW_OP_stack_value] $r2
	@DEBUG_VALUE: line_mask_steep:k <- $r1
	@DEBUG_VALUE: line_mask_steep:mask_buf <- $r0
	@DEBUG_VALUE: lv_draw_mask_line:mask_buf <- $r0
	@DEBUG_VALUE: lv_draw_mask_line:p <- [DW_OP_plus_uconst 24] [$sp+0]
	@DEBUG_VALUE: line_mask_steep:abs_x <- $lr
	@DEBUG_VALUE: lv_draw_mask_line:abs_x <- [DW_OP_LLVM_entry_value 1] $r1
	@DEBUG_VALUE: lv_draw_mask_line:abs_y <- [DW_OP_LLVM_entry_value 1] $r2
	.loc	5 0 0                           @ ../GUILib/src/draw/lv_draw_mask.c:0:0
	asr.w	r8, r2, #18
.Ltmp190:
	@DEBUG_VALUE: line_mask_steep:xei <- $r8
	@DEBUG_VALUE: line_mask_steep:xsf <- 255
	@DEBUG_VALUE: line_mask_steep:xsi <- $r8
	.loc	5 790 10 is_stmt 1              @ ../GUILib/src/draw/lv_draw_mask.c:790:10
	subs	r1, #1
.Ltmp191:
	.loc	5 0 10 is_stmt 0                @ ../GUILib/src/draw/lv_draw_mask.c:0:10
	movs	r6, #255
.Ltmp192:
	@DEBUG_VALUE: line_mask_steep:k <- $r1
	@DEBUG_VALUE: line_mask_steep:xsf <- $r6
.LBB10_8:
	@DEBUG_VALUE: line_mask_steep:p <- $r12
	@DEBUG_VALUE: line_mask_steep:xsi <- $r8
	@DEBUG_VALUE: line_mask_steep:xsf <- $r6
	@DEBUG_VALUE: line_mask_steep:len <- $r3
	@DEBUG_VALUE: lv_draw_mask_line:len <- $r3
	@DEBUG_VALUE: line_mask_steep:xe <- [DW_OP_constu 10, DW_OP_shra, DW_OP_stack_value] $r2
	@DEBUG_VALUE: line_mask_steep:k <- $r1
	@DEBUG_VALUE: line_mask_steep:mask_buf <- $r0
	@DEBUG_VALUE: lv_draw_mask_line:mask_buf <- $r0
	@DEBUG_VALUE: lv_draw_mask_line:p <- [DW_OP_plus_uconst 24] [$sp+0]
	@DEBUG_VALUE: line_mask_steep:abs_x <- $lr
	@DEBUG_VALUE: lv_draw_mask_line:abs_x <- [DW_OP_LLVM_entry_value 1] $r1
	@DEBUG_VALUE: lv_draw_mask_line:abs_y <- [DW_OP_LLVM_entry_value 1] $r2
	@DEBUG_VALUE: line_mask_steep:xef <- undef
	.loc	5 794 19 is_stmt 1              @ ../GUILib/src/draw/lv_draw_mask.c:794:19
	cmp	r1, #0
	bmi.w	.LBB10_56
.Ltmp193:
@ %bb.9:
	@DEBUG_VALUE: line_mask_steep:p <- $r12
	@DEBUG_VALUE: line_mask_steep:xsi <- $r8
	@DEBUG_VALUE: line_mask_steep:xsf <- $r6
	@DEBUG_VALUE: line_mask_steep:len <- $r3
	@DEBUG_VALUE: lv_draw_mask_line:len <- $r3
	@DEBUG_VALUE: line_mask_steep:xe <- [DW_OP_constu 10, DW_OP_shra, DW_OP_stack_value] $r2
	@DEBUG_VALUE: line_mask_steep:k <- $r1
	@DEBUG_VALUE: line_mask_steep:mask_buf <- $r0
	@DEBUG_VALUE: lv_draw_mask_line:mask_buf <- $r0
	@DEBUG_VALUE: lv_draw_mask_line:p <- [DW_OP_plus_uconst 24] [$sp+0]
	@DEBUG_VALUE: line_mask_steep:abs_x <- $lr
	@DEBUG_VALUE: lv_draw_mask_line:abs_x <- [DW_OP_LLVM_entry_value 1] $r1
	@DEBUG_VALUE: lv_draw_mask_line:abs_y <- [DW_OP_LLVM_entry_value 1] $r2
	@DEBUG_VALUE: line_mask_steep:xef <- undef
	cmp	r1, r3
	bge.w	.LBB10_56
.Ltmp194:
@ %bb.10:
	@DEBUG_VALUE: line_mask_steep:p <- $r12
	@DEBUG_VALUE: line_mask_steep:xsi <- $r8
	@DEBUG_VALUE: line_mask_steep:xsf <- $r6
	@DEBUG_VALUE: line_mask_steep:len <- $r3
	@DEBUG_VALUE: lv_draw_mask_line:len <- $r3
	@DEBUG_VALUE: line_mask_steep:xe <- [DW_OP_constu 10, DW_OP_shra, DW_OP_stack_value] $r2
	@DEBUG_VALUE: line_mask_steep:k <- $r1
	@DEBUG_VALUE: line_mask_steep:mask_buf <- $r0
	@DEBUG_VALUE: lv_draw_mask_line:mask_buf <- $r0
	@DEBUG_VALUE: lv_draw_mask_line:p <- [DW_OP_plus_uconst 24] [$sp+0]
	@DEBUG_VALUE: line_mask_steep:abs_x <- $lr
	@DEBUG_VALUE: lv_draw_mask_line:abs_x <- [DW_OP_LLVM_entry_value 1] $r1
	@DEBUG_VALUE: lv_draw_mask_line:abs_y <- [DW_OP_LLVM_entry_value 1] $r2
	.loc	5 796 16                        @ ../GUILib/src/draw/lv_draw_mask.c:796:16
	lsls	r4, r5, #6
.Ltmp195:
	.loc	5 0 0 is_stmt 0                 @ ../GUILib/src/draw/lv_draw_mask.c:0:0
	ubfx	r2, r2, #10, #8
.Ltmp196:
	@DEBUG_VALUE: line_mask_steep:xef <- $r2
	.loc	5 796 16                        @ ../GUILib/src/draw/lv_draw_mask.c:796:16
	sxtb	r4, r4
	.loc	5 795 22 is_stmt 1              @ ../GUILib/src/draw/lv_draw_mask.c:795:22
	add	r2, r6
.Ltmp197:
	@DEBUG_VALUE: line_mask_steep:m <- undef
	.loc	5 796 16                        @ ../GUILib/src/draw/lv_draw_mask.c:796:16
	asrs	r4, r4, #7
	eor.w	r4, r4, r2, lsr #1
.Ltmp198:
	@DEBUG_VALUE: line_mask_steep:m <- $r4
	.loc	5 797 36                        @ ../GUILib/src/draw/lv_draw_mask.c:797:36
	ldrb	r2, [r0, r1]
.Ltmp199:
	@DEBUG_VALUE: mask_mix:mask_new <- $r4
	@DEBUG_VALUE: mask_mix:mask_act <- undef
	.loc	5 796 16                        @ ../GUILib/src/draw/lv_draw_mask.c:796:16
	uxtb	r5, r4
.Ltmp200:
	.loc	5 1421 8                        @ ../GUILib/src/draw/lv_draw_mask.c:1421:8
	cmp	r5, #252
	bhi.w	.LBB10_55
.Ltmp201:
@ %bb.11:
	@DEBUG_VALUE: line_mask_steep:p <- $r12
	@DEBUG_VALUE: line_mask_steep:xsi <- $r8
	@DEBUG_VALUE: line_mask_steep:xsf <- $r6
	@DEBUG_VALUE: mask_mix:mask_new <- $r4
	@DEBUG_VALUE: line_mask_steep:m <- $r4
	@DEBUG_VALUE: line_mask_steep:len <- $r3
	@DEBUG_VALUE: lv_draw_mask_line:len <- $r3
	@DEBUG_VALUE: line_mask_steep:k <- $r1
	@DEBUG_VALUE: line_mask_steep:mask_buf <- $r0
	@DEBUG_VALUE: lv_draw_mask_line:mask_buf <- $r0
	@DEBUG_VALUE: lv_draw_mask_line:p <- [DW_OP_plus_uconst 24] [$sp+0]
	@DEBUG_VALUE: line_mask_steep:abs_x <- $lr
	@DEBUG_VALUE: lv_draw_mask_line:abs_x <- [DW_OP_LLVM_entry_value 1] $r1
	@DEBUG_VALUE: lv_draw_mask_line:abs_y <- [DW_OP_LLVM_entry_value 1] $r2
	.loc	5 1422 8                        @ ../GUILib/src/draw/lv_draw_mask.c:1422:8
	cmp	r5, #3
	bhs.w	.LBB10_54
.Ltmp202:
@ %bb.12:
	@DEBUG_VALUE: line_mask_steep:p <- $r12
	@DEBUG_VALUE: line_mask_steep:xsi <- $r8
	@DEBUG_VALUE: line_mask_steep:xsf <- $r6
	@DEBUG_VALUE: mask_mix:mask_new <- $r4
	@DEBUG_VALUE: line_mask_steep:m <- $r4
	@DEBUG_VALUE: line_mask_steep:len <- $r3
	@DEBUG_VALUE: lv_draw_mask_line:len <- $r3
	@DEBUG_VALUE: line_mask_steep:k <- $r1
	@DEBUG_VALUE: line_mask_steep:mask_buf <- $r0
	@DEBUG_VALUE: lv_draw_mask_line:mask_buf <- $r0
	@DEBUG_VALUE: lv_draw_mask_line:p <- [DW_OP_plus_uconst 24] [$sp+0]
	@DEBUG_VALUE: line_mask_steep:abs_x <- $lr
	@DEBUG_VALUE: lv_draw_mask_line:abs_x <- [DW_OP_LLVM_entry_value 1] $r1
	@DEBUG_VALUE: lv_draw_mask_line:abs_y <- [DW_OP_LLVM_entry_value 1] $r2
	.loc	5 0 8 is_stmt 0                 @ ../GUILib/src/draw/lv_draw_mask.c:0:8
	movs	r2, #0
	b	.LBB10_55
.Ltmp203:
.LBB10_13:
	@DEBUG_VALUE: lv_draw_mask_line:len <- $r3
	@DEBUG_VALUE: lv_draw_mask_line:mask_buf <- $r0
	@DEBUG_VALUE: lv_draw_mask_line:p <- [DW_OP_plus_uconst 24] [$sp+0]
	@DEBUG_VALUE: lv_draw_mask_line:abs_x <- [DW_OP_LLVM_entry_value 1] $r1
	@DEBUG_VALUE: lv_draw_mask_line:abs_y <- [DW_OP_LLVM_entry_value 1] $r2
	ldrb.w	r7, [r12, #16]
.Ltmp204:
	.loc	5 578 12 is_stmt 1              @ ../GUILib/src/draw/lv_draw_mask.c:578:12
	cmp	r1, #0
.Ltmp205:
	.loc	5 0 0 is_stmt 0                 @ ../GUILib/src/draw/lv_draw_mask.c:0:0
	and	r1, r7, #3
.Ltmp206:
	.loc	5 578 12                        @ ../GUILib/src/draw/lv_draw_mask.c:578:12
	bne	.LBB10_23
.Ltmp207:
@ %bb.14:
	@DEBUG_VALUE: lv_draw_mask_line:len <- $r3
	@DEBUG_VALUE: lv_draw_mask_line:mask_buf <- $r0
	@DEBUG_VALUE: lv_draw_mask_line:p <- [DW_OP_plus_uconst 24] [$sp+0]
	@DEBUG_VALUE: lv_draw_mask_line:abs_x <- [DW_OP_LLVM_entry_value 1] $r1
	@DEBUG_VALUE: lv_draw_mask_line:abs_y <- [DW_OP_LLVM_entry_value 1] $r2
	.loc	5 591 58 is_stmt 1              @ ../GUILib/src/draw/lv_draw_mask.c:591:58
	subs	r2, r1, #2
	cmp	r2, #2
	blo.w	.LBB10_116
.Ltmp208:
@ %bb.15:
	@DEBUG_VALUE: lv_draw_mask_line:len <- $r3
	@DEBUG_VALUE: lv_draw_mask_line:mask_buf <- $r0
	@DEBUG_VALUE: lv_draw_mask_line:p <- [DW_OP_plus_uconst 24] [$sp+0]
	@DEBUG_VALUE: lv_draw_mask_line:abs_x <- [DW_OP_LLVM_entry_value 1] $r1
	@DEBUG_VALUE: lv_draw_mask_line:abs_y <- [DW_OP_LLVM_entry_value 1] $r2
	cmp	r1, #1
	bne	.LBB10_31
.Ltmp209:
@ %bb.16:
	@DEBUG_VALUE: lv_draw_mask_line:len <- $r3
	@DEBUG_VALUE: lv_draw_mask_line:mask_buf <- $r0
	@DEBUG_VALUE: lv_draw_mask_line:p <- [DW_OP_plus_uconst 24] [$sp+0]
	@DEBUG_VALUE: lv_draw_mask_line:abs_x <- [DW_OP_LLVM_entry_value 1] $r1
	@DEBUG_VALUE: lv_draw_mask_line:abs_y <- [DW_OP_LLVM_entry_value 1] $r2
	.loc	5 593 21                        @ ../GUILib/src/draw/lv_draw_mask.c:593:21
	cmp.w	lr, #0
	bgt.w	.LBB10_116
.Ltmp210:
@ %bb.17:
	@DEBUG_VALUE: lv_draw_mask_line:len <- $r3
	@DEBUG_VALUE: lv_draw_mask_line:mask_buf <- $r0
	@DEBUG_VALUE: lv_draw_mask_line:p <- [DW_OP_plus_uconst 24] [$sp+0]
	@DEBUG_VALUE: lv_draw_mask_line:abs_x <- [DW_OP_LLVM_entry_value 1] $r1
	@DEBUG_VALUE: lv_draw_mask_line:abs_y <- [DW_OP_LLVM_entry_value 1] $r2
	.loc	5 0 21 is_stmt 0                @ ../GUILib/src/draw/lv_draw_mask.c:0:21
	rsb.w	r1, lr, #0
.Ltmp211:
	.loc	5 604 20 is_stmt 1              @ ../GUILib/src/draw/lv_draw_mask.c:604:20
	cmp	r1, r3
	mov.w	r2, #0
.Ltmp212:
	@DEBUG_VALUE: k <- $r1
	.loc	5 0 20 is_stmt 0                @ ../GUILib/src/draw/lv_draw_mask.c:0:20
	bge.w	.LBB10_117
.Ltmp213:
@ %bb.18:
	@DEBUG_VALUE: lv_draw_mask_line:len <- $r3
	@DEBUG_VALUE: k <- $r1
	@DEBUG_VALUE: lv_draw_mask_line:mask_buf <- $r0
	@DEBUG_VALUE: lv_draw_mask_line:p <- [DW_OP_plus_uconst 24] [$sp+0]
	@DEBUG_VALUE: lv_draw_mask_line:abs_x <- [DW_OP_LLVM_entry_value 1] $r1
	@DEBUG_VALUE: lv_draw_mask_line:abs_y <- [DW_OP_LLVM_entry_value 1] $r2
	adds.w	r3, r3, lr
.Ltmp214:
	@DEBUG_VALUE: lv_draw_mask_line:len <- [DW_OP_LLVM_entry_value 1] $r3
	bpl.w	.LBB10_87
	b	.LBB10_117
.Ltmp215:
.LBB10_19:
	@DEBUG_VALUE: lv_draw_mask_line:len <- $r3
	@DEBUG_VALUE: lv_draw_mask_line:mask_buf <- $r0
	@DEBUG_VALUE: lv_draw_mask_line:p <- [DW_OP_plus_uconst 24] [$sp+0]
	@DEBUG_VALUE: lv_draw_mask_line:abs_x <- [DW_OP_LLVM_entry_value 1] $r1
	@DEBUG_VALUE: lv_draw_mask_line:abs_y <- [DW_OP_LLVM_entry_value 1] $r2
	@DEBUG_VALUE: line_mask_flat:mask_buf <- $r0
	@DEBUG_VALUE: line_mask_flat:abs_x <- $lr
	@DEBUG_VALUE: line_mask_flat:abs_y <- $r2
	@DEBUG_VALUE: line_mask_flat:len <- $r3
	@DEBUG_VALUE: line_mask_flat:p <- $r12
	.loc	5 633 36 is_stmt 1              @ ../GUILib/src/draw/lv_draw_mask.c:633:36
	ldr.w	r1, [r12, #28]
	.loc	5 633 45 is_stmt 0              @ ../GUILib/src/draw/lv_draw_mask.c:633:45
	mul	r4, r1, lr
	.loc	5 635 8 is_stmt 1               @ ../GUILib/src/draw/lv_draw_mask.c:635:8
	cmp	r1, #1
	.loc	5 633 54                        @ ../GUILib/src/draw/lv_draw_mask.c:633:54
	asr.w	r4, r4, #10
.Ltmp216:
	@DEBUG_VALUE: line_mask_flat:y_at_x <- $r4
	.loc	5 635 8                         @ ../GUILib/src/draw/lv_draw_mask.c:635:8
	blt	.LBB10_27
.Ltmp217:
@ %bb.20:
	@DEBUG_VALUE: line_mask_flat:p <- $r12
	@DEBUG_VALUE: line_mask_flat:y_at_x <- $r4
	@DEBUG_VALUE: line_mask_flat:len <- $r3
	@DEBUG_VALUE: lv_draw_mask_line:len <- $r3
	@DEBUG_VALUE: line_mask_flat:abs_y <- $r2
	@DEBUG_VALUE: line_mask_flat:mask_buf <- $r0
	@DEBUG_VALUE: lv_draw_mask_line:mask_buf <- $r0
	@DEBUG_VALUE: lv_draw_mask_line:p <- [DW_OP_plus_uconst 24] [$sp+0]
	@DEBUG_VALUE: line_mask_flat:abs_x <- $lr
	@DEBUG_VALUE: lv_draw_mask_line:abs_x <- [DW_OP_LLVM_entry_value 1] $r1
	@DEBUG_VALUE: lv_draw_mask_line:abs_y <- [DW_OP_LLVM_entry_value 1] $r2
	.loc	5 636 12                        @ ../GUILib/src/draw/lv_draw_mask.c:636:12
	cmp	r4, r2
	bgt	.LBB10_28
.Ltmp218:
@ %bb.21:
	@DEBUG_VALUE: line_mask_flat:p <- $r12
	@DEBUG_VALUE: line_mask_flat:y_at_x <- $r4
	@DEBUG_VALUE: line_mask_flat:len <- $r3
	@DEBUG_VALUE: lv_draw_mask_line:len <- $r3
	@DEBUG_VALUE: line_mask_flat:abs_y <- $r2
	@DEBUG_VALUE: line_mask_flat:mask_buf <- $r0
	@DEBUG_VALUE: lv_draw_mask_line:mask_buf <- $r0
	@DEBUG_VALUE: lv_draw_mask_line:p <- [DW_OP_plus_uconst 24] [$sp+0]
	@DEBUG_VALUE: line_mask_flat:abs_x <- $lr
	@DEBUG_VALUE: lv_draw_mask_line:abs_x <- [DW_OP_LLVM_entry_value 1] $r1
	@DEBUG_VALUE: lv_draw_mask_line:abs_y <- [DW_OP_LLVM_entry_value 1] $r2
	.loc	5 658 54                        @ ../GUILib/src/draw/lv_draw_mask.c:658:54
	add.w	r4, lr, r3
.Ltmp219:
	.loc	5 658 45 is_stmt 0              @ ../GUILib/src/draw/lv_draw_mask.c:658:45
	muls	r1, r4, r1
.Ltmp220:
	.loc	5 660 12 is_stmt 1              @ ../GUILib/src/draw/lv_draw_mask.c:660:12
	cmp.w	r2, r1, asr #10
	bgt	.LBB10_30
.Ltmp221:
@ %bb.22:
	@DEBUG_VALUE: line_mask_flat:p <- $r12
	@DEBUG_VALUE: line_mask_flat:len <- $r3
	@DEBUG_VALUE: lv_draw_mask_line:len <- $r3
	@DEBUG_VALUE: line_mask_flat:abs_y <- $r2
	@DEBUG_VALUE: line_mask_flat:mask_buf <- $r0
	@DEBUG_VALUE: lv_draw_mask_line:mask_buf <- $r0
	@DEBUG_VALUE: lv_draw_mask_line:p <- [DW_OP_plus_uconst 24] [$sp+0]
	@DEBUG_VALUE: line_mask_flat:abs_x <- $lr
	@DEBUG_VALUE: lv_draw_mask_line:abs_x <- [DW_OP_LLVM_entry_value 1] $r1
	@DEBUG_VALUE: lv_draw_mask_line:abs_y <- [DW_OP_LLVM_entry_value 1] $r2
	.loc	5 681 50                        @ ../GUILib/src/draw/lv_draw_mask.c:681:50
	ldr.w	r1, [r12, #24]
.Ltmp222:
	@DEBUG_VALUE: line_mask_flat:xe <- [DW_OP_constu 10, DW_OP_shra, DW_OP_stack_value] undef
	.loc	5 681 38 is_stmt 0              @ ../GUILib/src/draw/lv_draw_mask.c:681:38
	lsls	r4, r2, #8
	b	.LBB10_36
.Ltmp223:
.LBB10_23:
	@DEBUG_VALUE: lv_draw_mask_line:len <- $r3
	@DEBUG_VALUE: lv_draw_mask_line:mask_buf <- $r0
	@DEBUG_VALUE: lv_draw_mask_line:p <- [DW_OP_plus_uconst 24] [$sp+0]
	@DEBUG_VALUE: lv_draw_mask_line:abs_x <- [DW_OP_LLVM_entry_value 1] $r1
	@DEBUG_VALUE: lv_draw_mask_line:abs_y <- [DW_OP_LLVM_entry_value 1] $r2
	.loc	5 0 0                           @ ../GUILib/src/draw/lv_draw_mask.c:0:0
	sbfx	r0, r1, #0, #2
.Ltmp224:
	@DEBUG_VALUE: lv_draw_mask_line:mask_buf <- [DW_OP_LLVM_entry_value 1] $r0
	.loc	5 580 59 is_stmt 1              @ ../GUILib/src/draw/lv_draw_mask.c:580:59
	cmp.w	r0, #-1
	bgt.w	.LBB10_116
.Ltmp225:
@ %bb.24:
	@DEBUG_VALUE: lv_draw_mask_line:len <- $r3
	@DEBUG_VALUE: lv_draw_mask_line:p <- [DW_OP_plus_uconst 24] [$sp+0]
	@DEBUG_VALUE: lv_draw_mask_line:mask_buf <- [DW_OP_LLVM_entry_value 1] $r0
	@DEBUG_VALUE: lv_draw_mask_line:abs_x <- [DW_OP_LLVM_entry_value 1] $r1
	@DEBUG_VALUE: lv_draw_mask_line:abs_y <- [DW_OP_LLVM_entry_value 1] $r2
	cmp	r1, #2
	bne	.LBB10_26
.Ltmp226:
@ %bb.25:
	@DEBUG_VALUE: lv_draw_mask_line:len <- $r3
	@DEBUG_VALUE: lv_draw_mask_line:p <- [DW_OP_plus_uconst 24] [$sp+0]
	@DEBUG_VALUE: lv_draw_mask_line:mask_buf <- [DW_OP_LLVM_entry_value 1] $r0
	@DEBUG_VALUE: lv_draw_mask_line:abs_x <- [DW_OP_LLVM_entry_value 1] $r1
	@DEBUG_VALUE: lv_draw_mask_line:abs_y <- [DW_OP_LLVM_entry_value 1] $r2
	.loc	5 582 21                        @ ../GUILib/src/draw/lv_draw_mask.c:582:21
	cmp.w	r2, #-1
	blt.w	.LBB10_116
.Ltmp227:
.LBB10_26:
	@DEBUG_VALUE: lv_draw_mask_line:len <- $r3
	@DEBUG_VALUE: lv_draw_mask_line:p <- [DW_OP_plus_uconst 24] [$sp+0]
	@DEBUG_VALUE: lv_draw_mask_line:mask_buf <- [DW_OP_LLVM_entry_value 1] $r0
	@DEBUG_VALUE: lv_draw_mask_line:abs_x <- [DW_OP_LLVM_entry_value 1] $r1
	@DEBUG_VALUE: lv_draw_mask_line:abs_y <- [DW_OP_LLVM_entry_value 1] $r2
	.loc	5 583 33                        @ ../GUILib/src/draw/lv_draw_mask.c:583:33
	subs	r0, r1, #3
	clz	r0, r0
	lsrs	r0, r0, #5
	movs	r1, #0
	cmp	r2, #0
	it	gt
	movgt	r1, #1
	.loc	5 583 66 is_stmt 0              @ ../GUILib/src/draw/lv_draw_mask.c:583:66
	ands	r0, r1
	pop.w	{r4, r5, r6, r7, r8, pc}
.Ltmp228:
.LBB10_27:
	@DEBUG_VALUE: line_mask_flat:p <- $r12
	@DEBUG_VALUE: line_mask_flat:y_at_x <- $r4
	@DEBUG_VALUE: line_mask_flat:len <- $r3
	@DEBUG_VALUE: lv_draw_mask_line:len <- $r3
	@DEBUG_VALUE: line_mask_flat:abs_y <- $r2
	@DEBUG_VALUE: line_mask_flat:mask_buf <- $r0
	@DEBUG_VALUE: lv_draw_mask_line:mask_buf <- $r0
	@DEBUG_VALUE: lv_draw_mask_line:p <- [DW_OP_plus_uconst 24] [$sp+0]
	@DEBUG_VALUE: line_mask_flat:abs_x <- $lr
	@DEBUG_VALUE: lv_draw_mask_line:abs_x <- [DW_OP_LLVM_entry_value 1] $r1
	@DEBUG_VALUE: lv_draw_mask_line:abs_y <- [DW_OP_LLVM_entry_value 1] $r2
	.loc	5 646 12 is_stmt 1              @ ../GUILib/src/draw/lv_draw_mask.c:646:12
	cmp	r4, r2
	bge	.LBB10_29
.Ltmp229:
.LBB10_28:
	@DEBUG_VALUE: lv_draw_mask_line:len <- $r3
	@DEBUG_VALUE: lv_draw_mask_line:mask_buf <- $r0
	@DEBUG_VALUE: lv_draw_mask_line:p <- [DW_OP_plus_uconst 24] [$sp+0]
	@DEBUG_VALUE: lv_draw_mask_line:abs_x <- [DW_OP_LLVM_entry_value 1] $r1
	@DEBUG_VALUE: lv_draw_mask_line:abs_y <- [DW_OP_LLVM_entry_value 1] $r2
	.loc	5 0 0 is_stmt 0                 @ ../GUILib/src/draw/lv_draw_mask.c:0:0
	ubfx	r2, r5, #1, #1
	b	.LBB10_117
.Ltmp230:
.LBB10_29:
	@DEBUG_VALUE: line_mask_flat:p <- $r12
	@DEBUG_VALUE: line_mask_flat:y_at_x <- $r4
	@DEBUG_VALUE: line_mask_flat:len <- $r3
	@DEBUG_VALUE: lv_draw_mask_line:len <- $r3
	@DEBUG_VALUE: line_mask_flat:abs_y <- $r2
	@DEBUG_VALUE: line_mask_flat:mask_buf <- $r0
	@DEBUG_VALUE: lv_draw_mask_line:mask_buf <- $r0
	@DEBUG_VALUE: lv_draw_mask_line:p <- [DW_OP_plus_uconst 24] [$sp+0]
	@DEBUG_VALUE: line_mask_flat:abs_x <- $lr
	@DEBUG_VALUE: lv_draw_mask_line:abs_x <- [DW_OP_LLVM_entry_value 1] $r1
	@DEBUG_VALUE: lv_draw_mask_line:abs_y <- [DW_OP_LLVM_entry_value 1] $r2
	.loc	5 658 54 is_stmt 1              @ ../GUILib/src/draw/lv_draw_mask.c:658:54
	add.w	r4, lr, r3
.Ltmp231:
	.loc	5 658 45 is_stmt 0              @ ../GUILib/src/draw/lv_draw_mask.c:658:45
	muls	r1, r4, r1
.Ltmp232:
	@DEBUG_VALUE: line_mask_flat:y_at_x <- undef
	.loc	5 670 12 is_stmt 1              @ ../GUILib/src/draw/lv_draw_mask.c:670:12
	cmp.w	r2, r1, asr #10
	bge	.LBB10_35
.Ltmp233:
.LBB10_30:
	@DEBUG_VALUE: lv_draw_mask_line:len <- $r3
	@DEBUG_VALUE: lv_draw_mask_line:mask_buf <- $r0
	@DEBUG_VALUE: lv_draw_mask_line:p <- [DW_OP_plus_uconst 24] [$sp+0]
	@DEBUG_VALUE: lv_draw_mask_line:abs_x <- [DW_OP_LLVM_entry_value 1] $r1
	@DEBUG_VALUE: lv_draw_mask_line:abs_y <- [DW_OP_LLVM_entry_value 1] $r2
	.loc	5 0 12 is_stmt 0                @ ../GUILib/src/draw/lv_draw_mask.c:0:12
	movs	r0, #1
.Ltmp234:
	@DEBUG_VALUE: lv_draw_mask_line:mask_buf <- [DW_OP_LLVM_entry_value 1] $r0
	bic.w	r2, r0, r5, lsr #1
	b	.LBB10_117
.Ltmp235:
.LBB10_31:
	@DEBUG_VALUE: lv_draw_mask_line:len <- $r3
	@DEBUG_VALUE: lv_draw_mask_line:mask_buf <- $r0
	@DEBUG_VALUE: lv_draw_mask_line:p <- [DW_OP_plus_uconst 24] [$sp+0]
	@DEBUG_VALUE: lv_draw_mask_line:abs_x <- [DW_OP_LLVM_entry_value 1] $r1
	@DEBUG_VALUE: lv_draw_mask_line:abs_y <- [DW_OP_LLVM_entry_value 1] $r2
	.loc	5 595 26 is_stmt 1              @ ../GUILib/src/draw/lv_draw_mask.c:595:26
	adds.w	r1, lr, r3
.Ltmp236:
	.loc	5 595 20 is_stmt 0              @ ../GUILib/src/draw/lv_draw_mask.c:595:20
	bmi.w	.LBB10_116
.Ltmp237:
@ %bb.32:
	@DEBUG_VALUE: lv_draw_mask_line:len <- $r3
	@DEBUG_VALUE: lv_draw_mask_line:mask_buf <- $r0
	@DEBUG_VALUE: lv_draw_mask_line:p <- [DW_OP_plus_uconst 24] [$sp+0]
	@DEBUG_VALUE: lv_draw_mask_line:abs_x <- [DW_OP_LLVM_entry_value 1] $r1
	@DEBUG_VALUE: lv_draw_mask_line:abs_y <- [DW_OP_LLVM_entry_value 1] $r2
	@DEBUG_VALUE: k <- undef
	.loc	5 598 24 is_stmt 1              @ ../GUILib/src/draw/lv_draw_mask.c:598:24
	cmp.w	lr, #0
	bgt.w	.LBB10_85
.Ltmp238:
@ %bb.33:
	@DEBUG_VALUE: lv_draw_mask_line:len <- $r3
	@DEBUG_VALUE: lv_draw_mask_line:mask_buf <- $r0
	@DEBUG_VALUE: lv_draw_mask_line:p <- [DW_OP_plus_uconst 24] [$sp+0]
	@DEBUG_VALUE: lv_draw_mask_line:abs_x <- [DW_OP_LLVM_entry_value 1] $r1
	@DEBUG_VALUE: lv_draw_mask_line:abs_y <- [DW_OP_LLVM_entry_value 1] $r2
	.loc	5 0 24 is_stmt 0                @ ../GUILib/src/draw/lv_draw_mask.c:0:24
	rsb.w	r2, lr, #0
.Ltmp239:
	@DEBUG_VALUE: k <- $r2
	.loc	5 599 24 is_stmt 1              @ ../GUILib/src/draw/lv_draw_mask.c:599:24
	cmp	r3, r2
	ble.w	.LBB10_88
.Ltmp240:
@ %bb.34:
	@DEBUG_VALUE: lv_draw_mask_line:len <- $r3
	@DEBUG_VALUE: k <- $r2
	@DEBUG_VALUE: lv_draw_mask_line:mask_buf <- $r0
	@DEBUG_VALUE: lv_draw_mask_line:p <- [DW_OP_plus_uconst 24] [$sp+0]
	@DEBUG_VALUE: lv_draw_mask_line:abs_x <- [DW_OP_LLVM_entry_value 1] $r1
	@DEBUG_VALUE: lv_draw_mask_line:abs_y <- [DW_OP_LLVM_entry_value 1] $r2
	.loc	5 599 57 is_stmt 0              @ ../GUILib/src/draw/lv_draw_mask.c:599:57
	add	r0, r2
.Ltmp241:
	@DEBUG_VALUE: lv_draw_mask_line:mask_buf <- [DW_OP_LLVM_entry_value 1] $r0
	.loc	5 0 57                          @ ../GUILib/src/draw/lv_draw_mask.c:0:57
	b	.LBB10_87
.Ltmp242:
.LBB10_35:
	@DEBUG_VALUE: line_mask_flat:p <- $r12
	@DEBUG_VALUE: line_mask_flat:len <- $r3
	@DEBUG_VALUE: lv_draw_mask_line:len <- $r3
	@DEBUG_VALUE: line_mask_flat:abs_y <- $r2
	@DEBUG_VALUE: line_mask_flat:mask_buf <- $r0
	@DEBUG_VALUE: lv_draw_mask_line:mask_buf <- $r0
	@DEBUG_VALUE: lv_draw_mask_line:p <- [DW_OP_plus_uconst 24] [$sp+0]
	@DEBUG_VALUE: line_mask_flat:abs_x <- $lr
	@DEBUG_VALUE: lv_draw_mask_line:abs_x <- [DW_OP_LLVM_entry_value 1] $r1
	@DEBUG_VALUE: lv_draw_mask_line:abs_y <- [DW_OP_LLVM_entry_value 1] $r2
	mov.w	r1, #256
.Ltmp243:
	.loc	5 682 41 is_stmt 1              @ ../GUILib/src/draw/lv_draw_mask.c:682:41
	ldr.w	r4, [r12, #24]
	.loc	5 682 29 is_stmt 0              @ ../GUILib/src/draw/lv_draw_mask.c:682:29
	add.w	r1, r1, r2, lsl #8
.Ltmp244:
.LBB10_36:
	@DEBUG_VALUE: line_mask_flat:p <- $r12
	@DEBUG_VALUE: line_mask_flat:len <- $r3
	@DEBUG_VALUE: lv_draw_mask_line:len <- $r3
	@DEBUG_VALUE: line_mask_flat:abs_y <- $r2
	@DEBUG_VALUE: line_mask_flat:mask_buf <- $r0
	@DEBUG_VALUE: lv_draw_mask_line:mask_buf <- $r0
	@DEBUG_VALUE: lv_draw_mask_line:p <- [DW_OP_plus_uconst 24] [$sp+0]
	@DEBUG_VALUE: line_mask_flat:abs_x <- $lr
	@DEBUG_VALUE: lv_draw_mask_line:abs_x <- [DW_OP_LLVM_entry_value 1] $r1
	@DEBUG_VALUE: lv_draw_mask_line:abs_y <- [DW_OP_LLVM_entry_value 1] $r2
	.loc	5 0 0                           @ ../GUILib/src/draw/lv_draw_mask.c:0:0
	muls	r1, r4, r1
.Ltmp245:
	@DEBUG_VALUE: line_mask_flat:xe <- [DW_OP_constu 10, DW_OP_shra, DW_OP_stack_value] $r1
	.loc	5 685 22 is_stmt 1              @ ../GUILib/src/draw/lv_draw_mask.c:685:22
	ubfx	r2, r1, #10, #8
.Ltmp246:
	@DEBUG_VALUE: line_mask_flat:xef <- $r2
	.loc	5 684 22                        @ ../GUILib/src/draw/lv_draw_mask.c:684:22
	asr.w	r1, r1, #18
.Ltmp247:
	@DEBUG_VALUE: line_mask_flat:xei <- $r1
	.loc	5 688 8                         @ ../GUILib/src/draw/lv_draw_mask.c:688:8
	cbz	r2, .LBB10_42
.Ltmp248:
@ %bb.37:
	@DEBUG_VALUE: line_mask_flat:p <- $r12
	@DEBUG_VALUE: line_mask_flat:len <- $r3
	@DEBUG_VALUE: lv_draw_mask_line:len <- $r3
	@DEBUG_VALUE: line_mask_flat:xef <- $r2
	@DEBUG_VALUE: line_mask_flat:xei <- $r1
	@DEBUG_VALUE: line_mask_flat:mask_buf <- $r0
	@DEBUG_VALUE: lv_draw_mask_line:mask_buf <- $r0
	@DEBUG_VALUE: lv_draw_mask_line:p <- [DW_OP_plus_uconst 24] [$sp+0]
	@DEBUG_VALUE: line_mask_flat:abs_x <- $lr
	@DEBUG_VALUE: lv_draw_mask_line:abs_x <- [DW_OP_LLVM_entry_value 1] $r1
	@DEBUG_VALUE: lv_draw_mask_line:abs_y <- [DW_OP_LLVM_entry_value 1] $r2
	.loc	5 689 42                        @ ../GUILib/src/draw/lv_draw_mask.c:689:42
	ldr.w	r6, [r12, #36]
	.loc	5 689 30 is_stmt 0              @ ../GUILib/src/draw/lv_draw_mask.c:689:30
	eor	r4, r2, #255
	.loc	5 689 37                        @ ../GUILib/src/draw/lv_draw_mask.c:689:37
	muls	r6, r4, r6
	movs	r2, #255
.Ltmp249:
	.loc	5 690 21 is_stmt 1              @ ../GUILib/src/draw/lv_draw_mask.c:690:21
	subs.w	r1, r1, lr
.Ltmp250:
	@DEBUG_VALUE: line_mask_flat:k <- $r1
	.loc	5 689 21                        @ ../GUILib/src/draw/lv_draw_mask.c:689:21
	sub.w	r2, r2, r6, asr #8
.Ltmp251:
	@DEBUG_VALUE: line_mask_flat:px_h <- $r2
	.loc	5 694 19                        @ ../GUILib/src/draw/lv_draw_mask.c:694:19
	bmi	.LBB10_63
.Ltmp252:
@ %bb.38:
	@DEBUG_VALUE: line_mask_flat:p <- $r12
	@DEBUG_VALUE: line_mask_flat:len <- $r3
	@DEBUG_VALUE: lv_draw_mask_line:len <- $r3
	@DEBUG_VALUE: line_mask_flat:px_h <- $r2
	@DEBUG_VALUE: line_mask_flat:k <- $r1
	@DEBUG_VALUE: line_mask_flat:mask_buf <- $r0
	@DEBUG_VALUE: lv_draw_mask_line:mask_buf <- $r0
	@DEBUG_VALUE: lv_draw_mask_line:p <- [DW_OP_plus_uconst 24] [$sp+0]
	@DEBUG_VALUE: line_mask_flat:abs_x <- $lr
	@DEBUG_VALUE: lv_draw_mask_line:abs_x <- [DW_OP_LLVM_entry_value 1] $r1
	@DEBUG_VALUE: lv_draw_mask_line:abs_y <- [DW_OP_LLVM_entry_value 1] $r2
	cmp	r1, r3
	bge	.LBB10_63
.Ltmp253:
@ %bb.39:
	@DEBUG_VALUE: line_mask_flat:p <- $r12
	@DEBUG_VALUE: line_mask_flat:len <- $r3
	@DEBUG_VALUE: lv_draw_mask_line:len <- $r3
	@DEBUG_VALUE: line_mask_flat:px_h <- $r2
	@DEBUG_VALUE: line_mask_flat:k <- $r1
	@DEBUG_VALUE: line_mask_flat:mask_buf <- $r0
	@DEBUG_VALUE: lv_draw_mask_line:mask_buf <- $r0
	@DEBUG_VALUE: lv_draw_mask_line:p <- [DW_OP_plus_uconst 24] [$sp+0]
	@DEBUG_VALUE: line_mask_flat:abs_x <- $lr
	@DEBUG_VALUE: lv_draw_mask_line:abs_x <- [DW_OP_LLVM_entry_value 1] $r1
	@DEBUG_VALUE: lv_draw_mask_line:abs_y <- [DW_OP_LLVM_entry_value 1] $r2
	.loc	5 0 0 is_stmt 0                 @ ../GUILib/src/draw/lv_draw_mask.c:0:0
	asrs	r7, r6, #8
.Ltmp254:
	.loc	5 696 16 is_stmt 1              @ ../GUILib/src/draw/lv_draw_mask.c:696:16
	ubfx	r6, r5, #1, #1
	.loc	5 695 37                        @ ../GUILib/src/draw/lv_draw_mask.c:695:37
	muls	r7, r4, r7
.Ltmp255:
	@DEBUG_VALUE: line_mask_flat:m <- [DW_OP_constu 18446744073709551615, DW_OP_xor, DW_OP_stack_value] undef
	.loc	5 696 16                        @ ../GUILib/src/draw/lv_draw_mask.c:696:16
	subs	r6, #1
	eor.w	r6, r6, r7, lsr #9
.Ltmp256:
	@DEBUG_VALUE: line_mask_flat:m <- $r6
	.loc	5 697 36                        @ ../GUILib/src/draw/lv_draw_mask.c:697:36
	ldrb	r7, [r0, r1]
	@DEBUG_VALUE: mask_mix:mask_new <- $r6
.Ltmp257:
	@DEBUG_VALUE: mask_mix:mask_act <- undef
	.loc	5 696 16                        @ ../GUILib/src/draw/lv_draw_mask.c:696:16
	uxtb	r6, r6
.Ltmp258:
	.loc	5 1421 8                        @ ../GUILib/src/draw/lv_draw_mask.c:1421:8
	cmp	r6, #252
	bhi	.LBB10_62
.Ltmp259:
@ %bb.40:
	@DEBUG_VALUE: line_mask_flat:p <- $r12
	@DEBUG_VALUE: line_mask_flat:len <- $r3
	@DEBUG_VALUE: lv_draw_mask_line:len <- $r3
	@DEBUG_VALUE: line_mask_flat:px_h <- $r2
	@DEBUG_VALUE: line_mask_flat:k <- $r1
	@DEBUG_VALUE: line_mask_flat:mask_buf <- $r0
	@DEBUG_VALUE: lv_draw_mask_line:mask_buf <- $r0
	@DEBUG_VALUE: lv_draw_mask_line:p <- [DW_OP_plus_uconst 24] [$sp+0]
	@DEBUG_VALUE: line_mask_flat:abs_x <- $lr
	@DEBUG_VALUE: lv_draw_mask_line:abs_x <- [DW_OP_LLVM_entry_value 1] $r1
	@DEBUG_VALUE: lv_draw_mask_line:abs_y <- [DW_OP_LLVM_entry_value 1] $r2
	.loc	5 1422 8                        @ ../GUILib/src/draw/lv_draw_mask.c:1422:8
	cmp	r6, #3
	bhs	.LBB10_61
.Ltmp260:
@ %bb.41:
	@DEBUG_VALUE: line_mask_flat:p <- $r12
	@DEBUG_VALUE: line_mask_flat:len <- $r3
	@DEBUG_VALUE: lv_draw_mask_line:len <- $r3
	@DEBUG_VALUE: line_mask_flat:px_h <- $r2
	@DEBUG_VALUE: line_mask_flat:k <- $r1
	@DEBUG_VALUE: line_mask_flat:mask_buf <- $r0
	@DEBUG_VALUE: lv_draw_mask_line:mask_buf <- $r0
	@DEBUG_VALUE: lv_draw_mask_line:p <- [DW_OP_plus_uconst 24] [$sp+0]
	@DEBUG_VALUE: line_mask_flat:abs_x <- $lr
	@DEBUG_VALUE: lv_draw_mask_line:abs_x <- [DW_OP_LLVM_entry_value 1] $r1
	@DEBUG_VALUE: lv_draw_mask_line:abs_y <- [DW_OP_LLVM_entry_value 1] $r2
	.loc	5 0 8 is_stmt 0                 @ ../GUILib/src/draw/lv_draw_mask.c:0:8
	movs	r7, #0
	b	.LBB10_62
.Ltmp261:
.LBB10_42:
	@DEBUG_VALUE: line_mask_flat:p <- $r12
	@DEBUG_VALUE: line_mask_flat:len <- $r3
	@DEBUG_VALUE: lv_draw_mask_line:len <- $r3
	@DEBUG_VALUE: line_mask_flat:xef <- $r2
	@DEBUG_VALUE: line_mask_flat:xei <- $r1
	@DEBUG_VALUE: line_mask_flat:mask_buf <- $r0
	@DEBUG_VALUE: lv_draw_mask_line:mask_buf <- $r0
	@DEBUG_VALUE: lv_draw_mask_line:p <- [DW_OP_plus_uconst 24] [$sp+0]
	@DEBUG_VALUE: line_mask_flat:abs_x <- $lr
	@DEBUG_VALUE: lv_draw_mask_line:abs_x <- [DW_OP_LLVM_entry_value 1] $r1
	@DEBUG_VALUE: lv_draw_mask_line:abs_y <- [DW_OP_LLVM_entry_value 1] $r2
	.loc	5 690 21 is_stmt 1              @ ../GUILib/src/draw/lv_draw_mask.c:690:21
	sub.w	r1, r1, lr
.Ltmp262:
	.loc	5 0 21 is_stmt 0                @ ../GUILib/src/draw/lv_draw_mask.c:0:21
	movs	r2, #255
.Ltmp263:
	mov	r4, r1
	b	.LBB10_64
.Ltmp264:
.LBB10_43:
	@DEBUG_VALUE: line_mask_steep:p <- $r12
	@DEBUG_VALUE: line_mask_steep:xsi <- $r8
	@DEBUG_VALUE: line_mask_steep:xsf <- $r6
	@DEBUG_VALUE: line_mask_steep:len <- $r3
	@DEBUG_VALUE: lv_draw_mask_line:len <- $r3
	@DEBUG_VALUE: line_mask_steep:xe <- [DW_OP_constu 10, DW_OP_shra, DW_OP_stack_value] $r2
	@DEBUG_VALUE: line_mask_steep:k <- $r1
	@DEBUG_VALUE: line_mask_steep:mask_buf <- $r0
	@DEBUG_VALUE: lv_draw_mask_line:mask_buf <- $r0
	@DEBUG_VALUE: lv_draw_mask_line:p <- [DW_OP_plus_uconst 24] [$sp+0]
	@DEBUG_VALUE: line_mask_steep:abs_x <- $lr
	@DEBUG_VALUE: lv_draw_mask_line:abs_x <- [DW_OP_LLVM_entry_value 1] $r1
	@DEBUG_VALUE: lv_draw_mask_line:abs_y <- [DW_OP_LLVM_entry_value 1] $r2
	@DEBUG_VALUE: line_mask_steep:xsi <- $r8
	@DEBUG_VALUE: line_mask_steep:xsf <- $r6
	@DEBUG_VALUE: line_mask_steep:k <- $r1
	.loc	5 818 12 is_stmt 1              @ ../GUILib/src/draw/lv_draw_mask.c:818:12
	cmp.w	r7, #-1
	ble	.LBB10_49
.Ltmp265:
@ %bb.44:
	@DEBUG_VALUE: line_mask_steep:p <- $r12
	@DEBUG_VALUE: line_mask_steep:xsi <- $r8
	@DEBUG_VALUE: line_mask_steep:xsf <- $r6
	@DEBUG_VALUE: line_mask_steep:len <- $r3
	@DEBUG_VALUE: lv_draw_mask_line:len <- $r3
	@DEBUG_VALUE: line_mask_steep:xe <- [DW_OP_constu 10, DW_OP_shra, DW_OP_stack_value] $r2
	@DEBUG_VALUE: line_mask_steep:k <- $r1
	@DEBUG_VALUE: line_mask_steep:mask_buf <- $r0
	@DEBUG_VALUE: lv_draw_mask_line:mask_buf <- $r0
	@DEBUG_VALUE: lv_draw_mask_line:p <- [DW_OP_plus_uconst 24] [$sp+0]
	@DEBUG_VALUE: line_mask_steep:abs_x <- $lr
	@DEBUG_VALUE: lv_draw_mask_line:abs_x <- [DW_OP_LLVM_entry_value 1] $r1
	@DEBUG_VALUE: lv_draw_mask_line:abs_y <- [DW_OP_LLVM_entry_value 1] $r2
	.loc	5 851 42                        @ ../GUILib/src/draw/lv_draw_mask.c:851:42
	ldr.w	r2, [r12, #28]
.Ltmp266:
	.loc	5 851 30 is_stmt 0              @ ../GUILib/src/draw/lv_draw_mask.c:851:30
	eor	r7, r6, #255
	.loc	5 851 37                        @ ../GUILib/src/draw/lv_draw_mask.c:851:37
	muls	r2, r7, r2
.Ltmp267:
	.loc	5 852 23 is_stmt 1              @ ../GUILib/src/draw/lv_draw_mask.c:852:23
	cmp	r1, #0
.Ltmp268:
	.loc	5 851 52                        @ ../GUILib/src/draw/lv_draw_mask.c:851:52
	asr.w	r2, r2, #10
.Ltmp269:
	@DEBUG_VALUE: y_inters <- $r2
	.loc	5 852 23                        @ ../GUILib/src/draw/lv_draw_mask.c:852:23
	bmi.w	.LBB10_91
.Ltmp270:
@ %bb.45:
	@DEBUG_VALUE: line_mask_steep:p <- $r12
	@DEBUG_VALUE: line_mask_steep:xsi <- $r8
	@DEBUG_VALUE: line_mask_steep:xsf <- $r6
	@DEBUG_VALUE: line_mask_steep:len <- $r3
	@DEBUG_VALUE: lv_draw_mask_line:len <- $r3
	@DEBUG_VALUE: y_inters <- $r2
	@DEBUG_VALUE: line_mask_steep:k <- $r1
	@DEBUG_VALUE: line_mask_steep:mask_buf <- $r0
	@DEBUG_VALUE: lv_draw_mask_line:mask_buf <- $r0
	@DEBUG_VALUE: lv_draw_mask_line:p <- [DW_OP_plus_uconst 24] [$sp+0]
	@DEBUG_VALUE: line_mask_steep:abs_x <- $lr
	@DEBUG_VALUE: lv_draw_mask_line:abs_x <- [DW_OP_LLVM_entry_value 1] $r1
	@DEBUG_VALUE: lv_draw_mask_line:abs_y <- [DW_OP_LLVM_entry_value 1] $r2
	cmp	r1, r3
	bge.w	.LBB10_91
.Ltmp271:
@ %bb.46:
	@DEBUG_VALUE: line_mask_steep:p <- $r12
	@DEBUG_VALUE: line_mask_steep:xsi <- $r8
	@DEBUG_VALUE: line_mask_steep:xsf <- $r6
	@DEBUG_VALUE: line_mask_steep:len <- $r3
	@DEBUG_VALUE: lv_draw_mask_line:len <- $r3
	@DEBUG_VALUE: y_inters <- $r2
	@DEBUG_VALUE: line_mask_steep:k <- $r1
	@DEBUG_VALUE: line_mask_steep:mask_buf <- $r0
	@DEBUG_VALUE: lv_draw_mask_line:mask_buf <- $r0
	@DEBUG_VALUE: lv_draw_mask_line:p <- [DW_OP_plus_uconst 24] [$sp+0]
	@DEBUG_VALUE: line_mask_steep:abs_x <- $lr
	@DEBUG_VALUE: lv_draw_mask_line:abs_x <- [DW_OP_LLVM_entry_value 1] $r1
	@DEBUG_VALUE: lv_draw_mask_line:abs_y <- [DW_OP_LLVM_entry_value 1] $r2
	.loc	5 854 20                        @ ../GUILib/src/draw/lv_draw_mask.c:854:20
	ubfx	r6, r5, #1, #1
.Ltmp272:
	.loc	5 853 38                        @ ../GUILib/src/draw/lv_draw_mask.c:853:38
	muls	r7, r2, r7
.Ltmp273:
	@DEBUG_VALUE: line_mask_steep:m <- [DW_OP_constu 18446744073709551615, DW_OP_xor, DW_OP_stack_value] undef
	.loc	5 854 20                        @ ../GUILib/src/draw/lv_draw_mask.c:854:20
	subs	r6, #1
	eor.w	r6, r6, r7, lsr #9
.Ltmp274:
	@DEBUG_VALUE: line_mask_steep:m <- $r6
	.loc	5 855 40                        @ ../GUILib/src/draw/lv_draw_mask.c:855:40
	ldrb	r7, [r0, r1]
	@DEBUG_VALUE: mask_mix:mask_new <- $r6
.Ltmp275:
	@DEBUG_VALUE: mask_mix:mask_act <- undef
	.loc	5 854 20                        @ ../GUILib/src/draw/lv_draw_mask.c:854:20
	uxtb	r6, r6
.Ltmp276:
	.loc	5 1421 8                        @ ../GUILib/src/draw/lv_draw_mask.c:1421:8
	cmp	r6, #252
	bhi.w	.LBB10_90
.Ltmp277:
@ %bb.47:
	@DEBUG_VALUE: line_mask_steep:p <- $r12
	@DEBUG_VALUE: line_mask_steep:xsi <- $r8
	@DEBUG_VALUE: line_mask_steep:len <- $r3
	@DEBUG_VALUE: lv_draw_mask_line:len <- $r3
	@DEBUG_VALUE: y_inters <- $r2
	@DEBUG_VALUE: line_mask_steep:k <- $r1
	@DEBUG_VALUE: line_mask_steep:mask_buf <- $r0
	@DEBUG_VALUE: lv_draw_mask_line:mask_buf <- $r0
	@DEBUG_VALUE: lv_draw_mask_line:p <- [DW_OP_plus_uconst 24] [$sp+0]
	@DEBUG_VALUE: line_mask_steep:abs_x <- $lr
	@DEBUG_VALUE: lv_draw_mask_line:abs_x <- [DW_OP_LLVM_entry_value 1] $r1
	@DEBUG_VALUE: lv_draw_mask_line:abs_y <- [DW_OP_LLVM_entry_value 1] $r2
	.loc	5 1422 8                        @ ../GUILib/src/draw/lv_draw_mask.c:1422:8
	cmp	r6, #3
	bhs.w	.LBB10_89
.Ltmp278:
@ %bb.48:
	@DEBUG_VALUE: line_mask_steep:p <- $r12
	@DEBUG_VALUE: line_mask_steep:xsi <- $r8
	@DEBUG_VALUE: line_mask_steep:len <- $r3
	@DEBUG_VALUE: lv_draw_mask_line:len <- $r3
	@DEBUG_VALUE: y_inters <- $r2
	@DEBUG_VALUE: line_mask_steep:k <- $r1
	@DEBUG_VALUE: line_mask_steep:mask_buf <- $r0
	@DEBUG_VALUE: lv_draw_mask_line:mask_buf <- $r0
	@DEBUG_VALUE: lv_draw_mask_line:p <- [DW_OP_plus_uconst 24] [$sp+0]
	@DEBUG_VALUE: line_mask_steep:abs_x <- $lr
	@DEBUG_VALUE: lv_draw_mask_line:abs_x <- [DW_OP_LLVM_entry_value 1] $r1
	@DEBUG_VALUE: lv_draw_mask_line:abs_y <- [DW_OP_LLVM_entry_value 1] $r2
	.loc	5 0 8 is_stmt 0                 @ ../GUILib/src/draw/lv_draw_mask.c:0:8
	movs	r7, #0
	b	.LBB10_90
.Ltmp279:
.LBB10_49:
	@DEBUG_VALUE: line_mask_steep:p <- $r12
	@DEBUG_VALUE: line_mask_steep:xsi <- $r8
	@DEBUG_VALUE: line_mask_steep:xsf <- $r6
	@DEBUG_VALUE: line_mask_steep:len <- $r3
	@DEBUG_VALUE: lv_draw_mask_line:len <- $r3
	@DEBUG_VALUE: line_mask_steep:xe <- [DW_OP_constu 10, DW_OP_shra, DW_OP_stack_value] $r2
	@DEBUG_VALUE: line_mask_steep:k <- $r1
	@DEBUG_VALUE: line_mask_steep:mask_buf <- $r0
	@DEBUG_VALUE: lv_draw_mask_line:mask_buf <- $r0
	@DEBUG_VALUE: lv_draw_mask_line:p <- [DW_OP_plus_uconst 24] [$sp+0]
	@DEBUG_VALUE: line_mask_steep:abs_x <- $lr
	@DEBUG_VALUE: lv_draw_mask_line:abs_x <- [DW_OP_LLVM_entry_value 1] $r1
	@DEBUG_VALUE: lv_draw_mask_line:abs_y <- [DW_OP_LLVM_entry_value 1] $r2
	.loc	5 819 36 is_stmt 1              @ ../GUILib/src/draw/lv_draw_mask.c:819:36
	ldr.w	r2, [r12, #28]
.Ltmp280:
	.loc	5 820 23                        @ ../GUILib/src/draw/lv_draw_mask.c:820:23
	cmp	r1, #0
.Ltmp281:
	.loc	5 819 29                        @ ../GUILib/src/draw/lv_draw_mask.c:819:29
	mul	r2, r6, r2
	rsb.w	r2, r2, #0
	.loc	5 819 47 is_stmt 0              @ ../GUILib/src/draw/lv_draw_mask.c:819:47
	asr.w	r2, r2, #10
.Ltmp282:
	@DEBUG_VALUE: y_inters <- $r2
	.loc	5 820 23 is_stmt 1              @ ../GUILib/src/draw/lv_draw_mask.c:820:23
	bmi.w	.LBB10_105
.Ltmp283:
@ %bb.50:
	@DEBUG_VALUE: line_mask_steep:p <- $r12
	@DEBUG_VALUE: line_mask_steep:xsi <- $r8
	@DEBUG_VALUE: line_mask_steep:xsf <- $r6
	@DEBUG_VALUE: line_mask_steep:len <- $r3
	@DEBUG_VALUE: lv_draw_mask_line:len <- $r3
	@DEBUG_VALUE: y_inters <- $r2
	@DEBUG_VALUE: line_mask_steep:k <- $r1
	@DEBUG_VALUE: line_mask_steep:mask_buf <- $r0
	@DEBUG_VALUE: lv_draw_mask_line:mask_buf <- $r0
	@DEBUG_VALUE: lv_draw_mask_line:p <- [DW_OP_plus_uconst 24] [$sp+0]
	@DEBUG_VALUE: line_mask_steep:abs_x <- $lr
	@DEBUG_VALUE: lv_draw_mask_line:abs_x <- [DW_OP_LLVM_entry_value 1] $r1
	@DEBUG_VALUE: lv_draw_mask_line:abs_y <- [DW_OP_LLVM_entry_value 1] $r2
	cmp	r1, r3
	bge.w	.LBB10_105
.Ltmp284:
@ %bb.51:
	@DEBUG_VALUE: line_mask_steep:p <- $r12
	@DEBUG_VALUE: line_mask_steep:xsi <- $r8
	@DEBUG_VALUE: line_mask_steep:xsf <- $r6
	@DEBUG_VALUE: line_mask_steep:len <- $r3
	@DEBUG_VALUE: lv_draw_mask_line:len <- $r3
	@DEBUG_VALUE: y_inters <- $r2
	@DEBUG_VALUE: line_mask_steep:k <- $r1
	@DEBUG_VALUE: line_mask_steep:mask_buf <- $r0
	@DEBUG_VALUE: lv_draw_mask_line:mask_buf <- $r0
	@DEBUG_VALUE: lv_draw_mask_line:p <- [DW_OP_plus_uconst 24] [$sp+0]
	@DEBUG_VALUE: line_mask_steep:abs_x <- $lr
	@DEBUG_VALUE: lv_draw_mask_line:abs_x <- [DW_OP_LLVM_entry_value 1] $r1
	@DEBUG_VALUE: lv_draw_mask_line:abs_y <- [DW_OP_LLVM_entry_value 1] $r2
	.loc	5 822 20                        @ ../GUILib/src/draw/lv_draw_mask.c:822:20
	lsls	r5, r5, #6
	sxtb	r5, r5
	.loc	5 821 31                        @ ../GUILib/src/draw/lv_draw_mask.c:821:31
	mul	r4, r2, r6
.Ltmp285:
	@DEBUG_VALUE: line_mask_steep:m <- undef
	.loc	5 822 20                        @ ../GUILib/src/draw/lv_draw_mask.c:822:20
	asrs	r5, r5, #7
	eor.w	r4, r5, r4, lsr #9
.Ltmp286:
	@DEBUG_VALUE: line_mask_steep:m <- $r4
	.loc	5 823 40                        @ ../GUILib/src/draw/lv_draw_mask.c:823:40
	ldrb	r5, [r0, r1]
.Ltmp287:
	@DEBUG_VALUE: mask_mix:mask_new <- $r4
	@DEBUG_VALUE: mask_mix:mask_act <- undef
	.loc	5 822 20                        @ ../GUILib/src/draw/lv_draw_mask.c:822:20
	uxtb	r6, r4
.Ltmp288:
	.loc	5 1421 8                        @ ../GUILib/src/draw/lv_draw_mask.c:1421:8
	cmp	r6, #252
	bhi.w	.LBB10_104
.Ltmp289:
@ %bb.52:
	@DEBUG_VALUE: line_mask_steep:p <- $r12
	@DEBUG_VALUE: line_mask_steep:xsi <- $r8
	@DEBUG_VALUE: mask_mix:mask_new <- $r4
	@DEBUG_VALUE: line_mask_steep:m <- $r4
	@DEBUG_VALUE: line_mask_steep:len <- $r3
	@DEBUG_VALUE: lv_draw_mask_line:len <- $r3
	@DEBUG_VALUE: y_inters <- $r2
	@DEBUG_VALUE: line_mask_steep:k <- $r1
	@DEBUG_VALUE: line_mask_steep:mask_buf <- $r0
	@DEBUG_VALUE: lv_draw_mask_line:mask_buf <- $r0
	@DEBUG_VALUE: lv_draw_mask_line:p <- [DW_OP_plus_uconst 24] [$sp+0]
	@DEBUG_VALUE: line_mask_steep:abs_x <- $lr
	@DEBUG_VALUE: lv_draw_mask_line:abs_x <- [DW_OP_LLVM_entry_value 1] $r1
	@DEBUG_VALUE: lv_draw_mask_line:abs_y <- [DW_OP_LLVM_entry_value 1] $r2
	.loc	5 1422 8                        @ ../GUILib/src/draw/lv_draw_mask.c:1422:8
	cmp	r6, #3
	bhs.w	.LBB10_103
.Ltmp290:
@ %bb.53:
	@DEBUG_VALUE: line_mask_steep:p <- $r12
	@DEBUG_VALUE: line_mask_steep:xsi <- $r8
	@DEBUG_VALUE: mask_mix:mask_new <- $r4
	@DEBUG_VALUE: line_mask_steep:m <- $r4
	@DEBUG_VALUE: line_mask_steep:len <- $r3
	@DEBUG_VALUE: lv_draw_mask_line:len <- $r3
	@DEBUG_VALUE: y_inters <- $r2
	@DEBUG_VALUE: line_mask_steep:k <- $r1
	@DEBUG_VALUE: line_mask_steep:mask_buf <- $r0
	@DEBUG_VALUE: lv_draw_mask_line:mask_buf <- $r0
	@DEBUG_VALUE: lv_draw_mask_line:p <- [DW_OP_plus_uconst 24] [$sp+0]
	@DEBUG_VALUE: line_mask_steep:abs_x <- $lr
	@DEBUG_VALUE: lv_draw_mask_line:abs_x <- [DW_OP_LLVM_entry_value 1] $r1
	@DEBUG_VALUE: lv_draw_mask_line:abs_y <- [DW_OP_LLVM_entry_value 1] $r2
	.loc	5 0 8 is_stmt 0                 @ ../GUILib/src/draw/lv_draw_mask.c:0:8
	movs	r5, #0
	b	.LBB10_104
.Ltmp291:
.LBB10_54:
	@DEBUG_VALUE: line_mask_steep:p <- $r12
	@DEBUG_VALUE: line_mask_steep:xsi <- $r8
	@DEBUG_VALUE: line_mask_steep:xsf <- $r6
	@DEBUG_VALUE: mask_mix:mask_new <- $r4
	@DEBUG_VALUE: line_mask_steep:m <- $r4
	@DEBUG_VALUE: line_mask_steep:len <- $r3
	@DEBUG_VALUE: lv_draw_mask_line:len <- $r3
	@DEBUG_VALUE: line_mask_steep:k <- $r1
	@DEBUG_VALUE: line_mask_steep:mask_buf <- $r0
	@DEBUG_VALUE: lv_draw_mask_line:mask_buf <- $r0
	@DEBUG_VALUE: lv_draw_mask_line:p <- [DW_OP_plus_uconst 24] [$sp+0]
	@DEBUG_VALUE: line_mask_steep:abs_x <- $lr
	@DEBUG_VALUE: lv_draw_mask_line:abs_x <- [DW_OP_LLVM_entry_value 1] $r1
	@DEBUG_VALUE: lv_draw_mask_line:abs_y <- [DW_OP_LLVM_entry_value 1] $r2
	.loc	5 1424 12 is_stmt 1             @ ../GUILib/src/draw/lv_draw_mask.c:1424:12
	muls	r2, r5, r2
	movw	r4, #32897
.Ltmp292:
	muls	r2, r4, r2
	lsrs	r2, r2, #23
.Ltmp293:
.LBB10_55:
	@DEBUG_VALUE: line_mask_steep:p <- $r12
	@DEBUG_VALUE: line_mask_steep:xsi <- $r8
	@DEBUG_VALUE: line_mask_steep:xsf <- $r6
	@DEBUG_VALUE: line_mask_steep:len <- $r3
	@DEBUG_VALUE: lv_draw_mask_line:len <- $r3
	@DEBUG_VALUE: line_mask_steep:k <- $r1
	@DEBUG_VALUE: line_mask_steep:mask_buf <- $r0
	@DEBUG_VALUE: lv_draw_mask_line:mask_buf <- $r0
	@DEBUG_VALUE: lv_draw_mask_line:p <- [DW_OP_plus_uconst 24] [$sp+0]
	@DEBUG_VALUE: line_mask_steep:abs_x <- $lr
	@DEBUG_VALUE: lv_draw_mask_line:abs_x <- [DW_OP_LLVM_entry_value 1] $r1
	@DEBUG_VALUE: lv_draw_mask_line:abs_y <- [DW_OP_LLVM_entry_value 1] $r2
	.loc	5 797 25                        @ ../GUILib/src/draw/lv_draw_mask.c:797:25
	strb	r2, [r0, r1]
.Ltmp294:
	.loc	5 801 15                        @ ../GUILib/src/draw/lv_draw_mask.c:801:15
	ldrb.w	r5, [r12, #40]
.Ltmp295:
.LBB10_56:
	@DEBUG_VALUE: line_mask_steep:p <- $r12
	@DEBUG_VALUE: line_mask_steep:xsi <- $r8
	@DEBUG_VALUE: line_mask_steep:xsf <- $r6
	@DEBUG_VALUE: line_mask_steep:len <- $r3
	@DEBUG_VALUE: lv_draw_mask_line:len <- $r3
	@DEBUG_VALUE: line_mask_steep:k <- $r1
	@DEBUG_VALUE: line_mask_steep:mask_buf <- $r0
	@DEBUG_VALUE: lv_draw_mask_line:mask_buf <- $r0
	@DEBUG_VALUE: lv_draw_mask_line:p <- [DW_OP_plus_uconst 24] [$sp+0]
	@DEBUG_VALUE: line_mask_steep:abs_x <- $lr
	@DEBUG_VALUE: lv_draw_mask_line:abs_x <- [DW_OP_LLVM_entry_value 1] $r1
	@DEBUG_VALUE: lv_draw_mask_line:abs_y <- [DW_OP_LLVM_entry_value 1] $r2
	@DEBUG_VALUE: line_mask_steep:k <- [DW_OP_plus_uconst 1, DW_OP_stack_value] $r1
	.loc	5 801 12 is_stmt 0              @ ../GUILib/src/draw/lv_draw_mask.c:801:12
	lsls	r2, r5, #30
	bmi	.LBB10_60
.Ltmp296:
@ %bb.57:
	@DEBUG_VALUE: line_mask_steep:p <- $r12
	@DEBUG_VALUE: line_mask_steep:xsi <- $r8
	@DEBUG_VALUE: line_mask_steep:xsf <- $r6
	@DEBUG_VALUE: line_mask_steep:len <- $r3
	@DEBUG_VALUE: lv_draw_mask_line:len <- $r3
	@DEBUG_VALUE: line_mask_steep:k <- [DW_OP_plus_uconst 1, DW_OP_stack_value] $r1
	@DEBUG_VALUE: line_mask_steep:mask_buf <- $r0
	@DEBUG_VALUE: lv_draw_mask_line:mask_buf <- $r0
	@DEBUG_VALUE: lv_draw_mask_line:p <- [DW_OP_plus_uconst 24] [$sp+0]
	@DEBUG_VALUE: line_mask_steep:abs_x <- $lr
	@DEBUG_VALUE: lv_draw_mask_line:abs_x <- [DW_OP_LLVM_entry_value 1] $r1
	@DEBUG_VALUE: lv_draw_mask_line:abs_y <- [DW_OP_LLVM_entry_value 1] $r2
	@DEBUG_VALUE: line_mask_steep:k <- undef
	.loc	5 810 16 is_stmt 1              @ ../GUILib/src/draw/lv_draw_mask.c:810:16
	cmp	r1, r3
	mov	r2, r3
	it	lt
	addlt	r2, r1, #1
.Ltmp297:
	@DEBUG_VALUE: line_mask_steep:k <- $r2
	.loc	5 811 16                        @ ../GUILib/src/draw/lv_draw_mask.c:811:16
	cmp	r2, #0
	beq	.LBB10_85
.Ltmp298:
@ %bb.58:
	@DEBUG_VALUE: line_mask_steep:p <- $r12
	@DEBUG_VALUE: line_mask_steep:xsi <- $r8
	@DEBUG_VALUE: line_mask_steep:xsf <- $r6
	@DEBUG_VALUE: line_mask_steep:len <- $r3
	@DEBUG_VALUE: lv_draw_mask_line:len <- $r3
	@DEBUG_VALUE: line_mask_steep:k <- $r2
	@DEBUG_VALUE: line_mask_steep:mask_buf <- $r0
	@DEBUG_VALUE: lv_draw_mask_line:mask_buf <- $r0
	@DEBUG_VALUE: lv_draw_mask_line:p <- [DW_OP_plus_uconst 24] [$sp+0]
	@DEBUG_VALUE: line_mask_steep:abs_x <- $lr
	@DEBUG_VALUE: lv_draw_mask_line:abs_x <- [DW_OP_LLVM_entry_value 1] $r1
	@DEBUG_VALUE: lv_draw_mask_line:abs_y <- [DW_OP_LLVM_entry_value 1] $r2
	.loc	5 812 21                        @ ../GUILib/src/draw/lv_draw_mask.c:812:21
	cmp	r2, #1
	blt	.LBB10_88
.Ltmp299:
@ %bb.59:
	@DEBUG_VALUE: line_mask_steep:p <- $r12
	@DEBUG_VALUE: line_mask_steep:xsi <- $r8
	@DEBUG_VALUE: line_mask_steep:xsf <- $r6
	@DEBUG_VALUE: line_mask_steep:len <- $r3
	@DEBUG_VALUE: lv_draw_mask_line:len <- $r3
	@DEBUG_VALUE: line_mask_steep:k <- $r2
	@DEBUG_VALUE: line_mask_steep:mask_buf <- $r0
	@DEBUG_VALUE: lv_draw_mask_line:mask_buf <- $r0
	@DEBUG_VALUE: lv_draw_mask_line:p <- [DW_OP_plus_uconst 24] [$sp+0]
	@DEBUG_VALUE: line_mask_steep:abs_x <- $lr
	@DEBUG_VALUE: lv_draw_mask_line:abs_x <- [DW_OP_LLVM_entry_value 1] $r1
	@DEBUG_VALUE: lv_draw_mask_line:abs_y <- [DW_OP_LLVM_entry_value 1] $r2
	.loc	5 812 42 is_stmt 0              @ ../GUILib/src/draw/lv_draw_mask.c:812:42
	add	r0, r2
.Ltmp300:
	@DEBUG_VALUE: lv_draw_mask_line:mask_buf <- [DW_OP_LLVM_entry_value 1] $r0
	.loc	5 812 60                        @ ../GUILib/src/draw/lv_draw_mask.c:812:60
	subs	r1, r3, r2
	b	.LBB10_87
.Ltmp301:
.LBB10_60:
	@DEBUG_VALUE: line_mask_steep:p <- $r12
	@DEBUG_VALUE: line_mask_steep:xsi <- $r8
	@DEBUG_VALUE: line_mask_steep:xsf <- $r6
	@DEBUG_VALUE: line_mask_steep:len <- $r3
	@DEBUG_VALUE: lv_draw_mask_line:len <- $r3
	@DEBUG_VALUE: line_mask_steep:k <- [DW_OP_plus_uconst 1, DW_OP_stack_value] $r1
	@DEBUG_VALUE: line_mask_steep:mask_buf <- $r0
	@DEBUG_VALUE: lv_draw_mask_line:mask_buf <- $r0
	@DEBUG_VALUE: lv_draw_mask_line:p <- [DW_OP_plus_uconst 24] [$sp+0]
	@DEBUG_VALUE: line_mask_steep:abs_x <- $lr
	@DEBUG_VALUE: lv_draw_mask_line:abs_x <- [DW_OP_LLVM_entry_value 1] $r1
	@DEBUG_VALUE: lv_draw_mask_line:abs_y <- [DW_OP_LLVM_entry_value 1] $r2
	.loc	5 802 21 is_stmt 1              @ ../GUILib/src/draw/lv_draw_mask.c:802:21
	sub.w	r1, r8, lr
.Ltmp302:
	@DEBUG_VALUE: line_mask_steep:k <- $r1
	.loc	5 803 16                        @ ../GUILib/src/draw/lv_draw_mask.c:803:16
	cmp	r1, r3
	bge	.LBB10_85
	b	.LBB10_86
.Ltmp303:
.LBB10_61:
	@DEBUG_VALUE: line_mask_flat:p <- $r12
	@DEBUG_VALUE: line_mask_flat:len <- $r3
	@DEBUG_VALUE: lv_draw_mask_line:len <- $r3
	@DEBUG_VALUE: line_mask_flat:px_h <- $r2
	@DEBUG_VALUE: line_mask_flat:k <- $r1
	@DEBUG_VALUE: line_mask_flat:mask_buf <- $r0
	@DEBUG_VALUE: lv_draw_mask_line:mask_buf <- $r0
	@DEBUG_VALUE: lv_draw_mask_line:p <- [DW_OP_plus_uconst 24] [$sp+0]
	@DEBUG_VALUE: line_mask_flat:abs_x <- $lr
	@DEBUG_VALUE: lv_draw_mask_line:abs_x <- [DW_OP_LLVM_entry_value 1] $r1
	@DEBUG_VALUE: lv_draw_mask_line:abs_y <- [DW_OP_LLVM_entry_value 1] $r2
	.loc	5 1424 12                       @ ../GUILib/src/draw/lv_draw_mask.c:1424:12
	muls	r7, r6, r7
	movw	r6, #32897
	muls	r7, r6, r7
	lsrs	r7, r7, #23
.Ltmp304:
.LBB10_62:
	@DEBUG_VALUE: line_mask_flat:p <- $r12
	@DEBUG_VALUE: line_mask_flat:len <- $r3
	@DEBUG_VALUE: lv_draw_mask_line:len <- $r3
	@DEBUG_VALUE: line_mask_flat:px_h <- $r2
	@DEBUG_VALUE: line_mask_flat:k <- $r1
	@DEBUG_VALUE: line_mask_flat:mask_buf <- $r0
	@DEBUG_VALUE: lv_draw_mask_line:mask_buf <- $r0
	@DEBUG_VALUE: lv_draw_mask_line:p <- [DW_OP_plus_uconst 24] [$sp+0]
	@DEBUG_VALUE: line_mask_flat:abs_x <- $lr
	@DEBUG_VALUE: lv_draw_mask_line:abs_x <- [DW_OP_LLVM_entry_value 1] $r1
	@DEBUG_VALUE: lv_draw_mask_line:abs_y <- [DW_OP_LLVM_entry_value 1] $r2
	.loc	5 697 25                        @ ../GUILib/src/draw/lv_draw_mask.c:697:25
	strb	r7, [r0, r1]
.Ltmp305:
.LBB10_63:
	@DEBUG_VALUE: line_mask_flat:p <- $r12
	@DEBUG_VALUE: line_mask_flat:len <- $r3
	@DEBUG_VALUE: lv_draw_mask_line:len <- $r3
	@DEBUG_VALUE: line_mask_flat:px_h <- $r2
	@DEBUG_VALUE: line_mask_flat:k <- $r1
	@DEBUG_VALUE: line_mask_flat:mask_buf <- $r0
	@DEBUG_VALUE: lv_draw_mask_line:mask_buf <- $r0
	@DEBUG_VALUE: lv_draw_mask_line:p <- [DW_OP_plus_uconst 24] [$sp+0]
	@DEBUG_VALUE: line_mask_flat:abs_x <- $lr
	@DEBUG_VALUE: lv_draw_mask_line:abs_x <- [DW_OP_LLVM_entry_value 1] $r1
	@DEBUG_VALUE: lv_draw_mask_line:abs_y <- [DW_OP_LLVM_entry_value 1] $r2
	.loc	5 699 10                        @ ../GUILib/src/draw/lv_draw_mask.c:699:10
	adds	r4, r1, #1
.Ltmp306:
	@DEBUG_VALUE: line_mask_flat:k <- $r4
.LBB10_64:
	@DEBUG_VALUE: line_mask_flat:p <- $r12
	@DEBUG_VALUE: line_mask_flat:len <- $r3
	@DEBUG_VALUE: lv_draw_mask_line:len <- $r3
	@DEBUG_VALUE: line_mask_flat:mask_buf <- $r0
	@DEBUG_VALUE: lv_draw_mask_line:mask_buf <- $r0
	@DEBUG_VALUE: lv_draw_mask_line:p <- [DW_OP_plus_uconst 24] [$sp+0]
	@DEBUG_VALUE: line_mask_flat:abs_x <- $lr
	@DEBUG_VALUE: lv_draw_mask_line:abs_x <- [DW_OP_LLVM_entry_value 1] $r1
	@DEBUG_VALUE: lv_draw_mask_line:abs_y <- [DW_OP_LLVM_entry_value 1] $r2
	@DEBUG_VALUE: line_mask_flat:k <- $r4
	.loc	5 702 21                        @ ../GUILib/src/draw/lv_draw_mask.c:702:21
	ldr.w	r6, [r12, #36]
	movw	r5, #32897
.Ltmp307:
	.p2align	2
.LBB10_65:                              @ =>This Inner Loop Header: Depth=1
	@DEBUG_VALUE: line_mask_flat:p <- $r12
	@DEBUG_VALUE: line_mask_flat:k <- $r4
	@DEBUG_VALUE: line_mask_flat:len <- $r3
	@DEBUG_VALUE: lv_draw_mask_line:len <- $r3
	@DEBUG_VALUE: line_mask_flat:mask_buf <- $r0
	@DEBUG_VALUE: lv_draw_mask_line:mask_buf <- $r0
	@DEBUG_VALUE: lv_draw_mask_line:p <- [DW_OP_plus_uconst 24] [$sp+0]
	@DEBUG_VALUE: line_mask_flat:abs_x <- $lr
	@DEBUG_VALUE: lv_draw_mask_line:abs_x <- [DW_OP_LLVM_entry_value 1] $r1
	@DEBUG_VALUE: lv_draw_mask_line:abs_y <- [DW_OP_LLVM_entry_value 1] $r2
	@DEBUG_VALUE: line_mask_flat:k <- $r4
	@DEBUG_VALUE: line_mask_flat:px_h <- $r2
	.loc	5 702 5 is_stmt 0               @ ../GUILib/src/draw/lv_draw_mask.c:702:5
	cmp	r2, r6
	ble	.LBB10_72
.Ltmp308:
@ %bb.66:                               @   in Loop: Header=BB10_65 Depth=1
	@DEBUG_VALUE: line_mask_flat:p <- $r12
	@DEBUG_VALUE: line_mask_flat:k <- $r4
	@DEBUG_VALUE: line_mask_flat:len <- $r3
	@DEBUG_VALUE: lv_draw_mask_line:len <- $r3
	@DEBUG_VALUE: line_mask_flat:px_h <- $r2
	@DEBUG_VALUE: line_mask_flat:mask_buf <- $r0
	@DEBUG_VALUE: lv_draw_mask_line:mask_buf <- $r0
	@DEBUG_VALUE: lv_draw_mask_line:p <- [DW_OP_plus_uconst 24] [$sp+0]
	@DEBUG_VALUE: line_mask_flat:abs_x <- $lr
	@DEBUG_VALUE: lv_draw_mask_line:abs_x <- [DW_OP_LLVM_entry_value 1] $r1
	@DEBUG_VALUE: lv_draw_mask_line:abs_y <- [DW_OP_LLVM_entry_value 1] $r2
	.loc	5 703 19 is_stmt 1              @ ../GUILib/src/draw/lv_draw_mask.c:703:19
	cmp	r4, #0
	bmi	.LBB10_71
.Ltmp309:
@ %bb.67:                               @   in Loop: Header=BB10_65 Depth=1
	@DEBUG_VALUE: line_mask_flat:p <- $r12
	@DEBUG_VALUE: line_mask_flat:k <- $r4
	@DEBUG_VALUE: line_mask_flat:len <- $r3
	@DEBUG_VALUE: lv_draw_mask_line:len <- $r3
	@DEBUG_VALUE: line_mask_flat:px_h <- $r2
	@DEBUG_VALUE: line_mask_flat:mask_buf <- $r0
	@DEBUG_VALUE: lv_draw_mask_line:mask_buf <- $r0
	@DEBUG_VALUE: lv_draw_mask_line:p <- [DW_OP_plus_uconst 24] [$sp+0]
	@DEBUG_VALUE: line_mask_flat:abs_x <- $lr
	@DEBUG_VALUE: lv_draw_mask_line:abs_x <- [DW_OP_LLVM_entry_value 1] $r1
	@DEBUG_VALUE: lv_draw_mask_line:abs_y <- [DW_OP_LLVM_entry_value 1] $r2
	cmp	r4, r3
	bge	.LBB10_71
.Ltmp310:
@ %bb.68:                               @   in Loop: Header=BB10_65 Depth=1
	@DEBUG_VALUE: line_mask_flat:p <- $r12
	@DEBUG_VALUE: line_mask_flat:k <- $r4
	@DEBUG_VALUE: line_mask_flat:len <- $r3
	@DEBUG_VALUE: lv_draw_mask_line:len <- $r3
	@DEBUG_VALUE: line_mask_flat:px_h <- $r2
	@DEBUG_VALUE: line_mask_flat:mask_buf <- $r0
	@DEBUG_VALUE: lv_draw_mask_line:mask_buf <- $r0
	@DEBUG_VALUE: lv_draw_mask_line:p <- [DW_OP_plus_uconst 24] [$sp+0]
	@DEBUG_VALUE: line_mask_flat:abs_x <- $lr
	@DEBUG_VALUE: lv_draw_mask_line:abs_x <- [DW_OP_LLVM_entry_value 1] $r1
	@DEBUG_VALUE: lv_draw_mask_line:abs_y <- [DW_OP_LLVM_entry_value 1] $r2
	.loc	5 705 19                        @ ../GUILib/src/draw/lv_draw_mask.c:705:19
	ldrb.w	r7, [r12, #40]
.Ltmp311:
	.loc	5 704 22                        @ ../GUILib/src/draw/lv_draw_mask.c:704:22
	sub.w	r6, r2, r6, lsr #1
.Ltmp312:
	@DEBUG_VALUE: line_mask_flat:m <- $r6
	.loc	5 705 16                        @ ../GUILib/src/draw/lv_draw_mask.c:705:16
	lsls	r7, r7, #6
	sxtb	r7, r7
	eor.w	r6, r6, r7, asr #7
.Ltmp313:
	@DEBUG_VALUE: line_mask_flat:m <- $r6
	.loc	5 706 36                        @ ../GUILib/src/draw/lv_draw_mask.c:706:36
	ldrb	r7, [r0, r4]
	@DEBUG_VALUE: mask_mix:mask_new <- $r6
.Ltmp314:
	@DEBUG_VALUE: mask_mix:mask_act <- undef
	.loc	5 705 16                        @ ../GUILib/src/draw/lv_draw_mask.c:705:16
	uxtb	r6, r6
.Ltmp315:
	.loc	5 1421 8                        @ ../GUILib/src/draw/lv_draw_mask.c:1421:8
	cmp	r6, #252
	bhi	.LBB10_70
.Ltmp316:
@ %bb.69:                               @   in Loop: Header=BB10_65 Depth=1
	@DEBUG_VALUE: line_mask_flat:p <- $r12
	@DEBUG_VALUE: line_mask_flat:k <- $r4
	@DEBUG_VALUE: line_mask_flat:len <- $r3
	@DEBUG_VALUE: lv_draw_mask_line:len <- $r3
	@DEBUG_VALUE: line_mask_flat:px_h <- $r2
	@DEBUG_VALUE: line_mask_flat:mask_buf <- $r0
	@DEBUG_VALUE: lv_draw_mask_line:mask_buf <- $r0
	@DEBUG_VALUE: lv_draw_mask_line:p <- [DW_OP_plus_uconst 24] [$sp+0]
	@DEBUG_VALUE: line_mask_flat:abs_x <- $lr
	@DEBUG_VALUE: lv_draw_mask_line:abs_x <- [DW_OP_LLVM_entry_value 1] $r1
	@DEBUG_VALUE: lv_draw_mask_line:abs_y <- [DW_OP_LLVM_entry_value 1] $r2
	.loc	5 1422 8                        @ ../GUILib/src/draw/lv_draw_mask.c:1422:8
	cmp	r6, #3
	iteee	lo
	movlo	r7, #0
	.loc	5 1424 12                       @ ../GUILib/src/draw/lv_draw_mask.c:1424:12
	mulhs	r7, r6, r7
	mulhs	r7, r5, r7
	lsrhs	r7, r7, #23
.Ltmp317:
.LBB10_70:                              @   in Loop: Header=BB10_65 Depth=1
	@DEBUG_VALUE: line_mask_flat:p <- $r12
	@DEBUG_VALUE: line_mask_flat:k <- $r4
	@DEBUG_VALUE: line_mask_flat:len <- $r3
	@DEBUG_VALUE: lv_draw_mask_line:len <- $r3
	@DEBUG_VALUE: line_mask_flat:px_h <- $r2
	@DEBUG_VALUE: line_mask_flat:mask_buf <- $r0
	@DEBUG_VALUE: lv_draw_mask_line:mask_buf <- $r0
	@DEBUG_VALUE: lv_draw_mask_line:p <- [DW_OP_plus_uconst 24] [$sp+0]
	@DEBUG_VALUE: line_mask_flat:abs_x <- $lr
	@DEBUG_VALUE: lv_draw_mask_line:abs_x <- [DW_OP_LLVM_entry_value 1] $r1
	@DEBUG_VALUE: lv_draw_mask_line:abs_y <- [DW_OP_LLVM_entry_value 1] $r2
	.loc	5 706 25                        @ ../GUILib/src/draw/lv_draw_mask.c:706:25
	strb	r7, [r0, r4]
.Ltmp318:
	.loc	5 708 20                        @ ../GUILib/src/draw/lv_draw_mask.c:708:20
	ldr.w	r6, [r12, #36]
.Ltmp319:
.LBB10_71:                              @   in Loop: Header=BB10_65 Depth=1
	@DEBUG_VALUE: line_mask_flat:p <- $r12
	@DEBUG_VALUE: line_mask_flat:k <- $r4
	@DEBUG_VALUE: line_mask_flat:len <- $r3
	@DEBUG_VALUE: lv_draw_mask_line:len <- $r3
	@DEBUG_VALUE: line_mask_flat:px_h <- $r2
	@DEBUG_VALUE: line_mask_flat:mask_buf <- $r0
	@DEBUG_VALUE: lv_draw_mask_line:mask_buf <- $r0
	@DEBUG_VALUE: lv_draw_mask_line:p <- [DW_OP_plus_uconst 24] [$sp+0]
	@DEBUG_VALUE: line_mask_flat:abs_x <- $lr
	@DEBUG_VALUE: lv_draw_mask_line:abs_x <- [DW_OP_LLVM_entry_value 1] $r1
	@DEBUG_VALUE: lv_draw_mask_line:abs_y <- [DW_OP_LLVM_entry_value 1] $r2
	.loc	5 709 10                        @ ../GUILib/src/draw/lv_draw_mask.c:709:10
	adds	r4, #1
.Ltmp320:
	@DEBUG_VALUE: line_mask_flat:k <- $r4
	.loc	5 710 12                        @ ../GUILib/src/draw/lv_draw_mask.c:710:12
	cmp	r4, r3
	.loc	5 708 14                        @ ../GUILib/src/draw/lv_draw_mask.c:708:14
	sub.w	r2, r2, r6
.Ltmp321:
	@DEBUG_VALUE: line_mask_flat:px_h <- $r2
	.loc	5 710 12                        @ ../GUILib/src/draw/lv_draw_mask.c:710:12
	blt	.LBB10_65
.Ltmp322:
.LBB10_72:
	@DEBUG_VALUE: line_mask_flat:p <- $r12
	@DEBUG_VALUE: line_mask_flat:k <- $r4
	@DEBUG_VALUE: line_mask_flat:len <- $r3
	@DEBUG_VALUE: lv_draw_mask_line:len <- $r3
	@DEBUG_VALUE: line_mask_flat:px_h <- $r2
	@DEBUG_VALUE: line_mask_flat:mask_buf <- $r0
	@DEBUG_VALUE: lv_draw_mask_line:mask_buf <- $r0
	@DEBUG_VALUE: lv_draw_mask_line:p <- [DW_OP_plus_uconst 24] [$sp+0]
	@DEBUG_VALUE: line_mask_flat:abs_x <- $lr
	@DEBUG_VALUE: lv_draw_mask_line:abs_x <- [DW_OP_LLVM_entry_value 1] $r1
	@DEBUG_VALUE: lv_draw_mask_line:abs_y <- [DW_OP_LLVM_entry_value 1] $r2
	@DEBUG_VALUE: line_mask_flat:k <- $r4
	@DEBUG_VALUE: line_mask_flat:px_h <- $r2
	.loc	5 713 16                        @ ../GUILib/src/draw/lv_draw_mask.c:713:16
	cmp	r4, r3
	bge	.LBB10_79
.Ltmp323:
@ %bb.73:
	@DEBUG_VALUE: line_mask_flat:p <- $r12
	@DEBUG_VALUE: line_mask_flat:k <- $r4
	@DEBUG_VALUE: line_mask_flat:len <- $r3
	@DEBUG_VALUE: lv_draw_mask_line:len <- $r3
	@DEBUG_VALUE: line_mask_flat:px_h <- $r2
	@DEBUG_VALUE: line_mask_flat:mask_buf <- $r0
	@DEBUG_VALUE: lv_draw_mask_line:mask_buf <- $r0
	@DEBUG_VALUE: lv_draw_mask_line:p <- [DW_OP_plus_uconst 24] [$sp+0]
	@DEBUG_VALUE: line_mask_flat:abs_x <- $lr
	@DEBUG_VALUE: lv_draw_mask_line:abs_x <- [DW_OP_LLVM_entry_value 1] $r1
	@DEBUG_VALUE: lv_draw_mask_line:abs_y <- [DW_OP_LLVM_entry_value 1] $r2
	cmp	r4, #0
	bmi	.LBB10_79
.Ltmp324:
@ %bb.74:
	@DEBUG_VALUE: line_mask_flat:p <- $r12
	@DEBUG_VALUE: line_mask_flat:k <- $r4
	@DEBUG_VALUE: line_mask_flat:len <- $r3
	@DEBUG_VALUE: lv_draw_mask_line:len <- $r3
	@DEBUG_VALUE: line_mask_flat:px_h <- $r2
	@DEBUG_VALUE: line_mask_flat:mask_buf <- $r0
	@DEBUG_VALUE: lv_draw_mask_line:mask_buf <- $r0
	@DEBUG_VALUE: lv_draw_mask_line:p <- [DW_OP_plus_uconst 24] [$sp+0]
	@DEBUG_VALUE: line_mask_flat:abs_x <- $lr
	@DEBUG_VALUE: lv_draw_mask_line:abs_x <- [DW_OP_LLVM_entry_value 1] $r1
	@DEBUG_VALUE: lv_draw_mask_line:abs_y <- [DW_OP_LLVM_entry_value 1] $r2
	.loc	5 714 39                        @ ../GUILib/src/draw/lv_draw_mask.c:714:39
	ldrd	r7, r6, [r12, #24]
	.loc	5 714 34 is_stmt 0              @ ../GUILib/src/draw/lv_draw_mask.c:714:34
	muls	r7, r2, r7
	.loc	5 714 49                        @ ../GUILib/src/draw/lv_draw_mask.c:714:49
	lsrs	r7, r7, #10
.Ltmp325:
	@DEBUG_VALUE: x_inters <- $r7
	.loc	5 715 23 is_stmt 1              @ ../GUILib/src/draw/lv_draw_mask.c:715:23
	muls	r2, r7, r2
.Ltmp326:
	.loc	5 717 15                        @ ../GUILib/src/draw/lv_draw_mask.c:717:15
	ldrb.w	r7, [r12, #40]
.Ltmp327:
	.loc	5 715 31                        @ ../GUILib/src/draw/lv_draw_mask.c:715:31
	lsrs	r2, r2, #9
.Ltmp328:
	@DEBUG_VALUE: line_mask_flat:m <- [DW_OP_LLVM_convert 32 7, DW_OP_LLVM_convert 8 7, DW_OP_stack_value] $r2
	.loc	5 717 12                        @ ../GUILib/src/draw/lv_draw_mask.c:717:12
	lsls	r7, r7, #6
	.loc	5 716 12                        @ ../GUILib/src/draw/lv_draw_mask.c:716:12
	eor.w	r2, r2, r6, asr #31
.Ltmp329:
	@DEBUG_VALUE: line_mask_flat:m <- $r2
	.loc	5 717 12                        @ ../GUILib/src/draw/lv_draw_mask.c:717:12
	sxtb	r7, r7
	eor.w	r7, r2, r7, asr #7
.Ltmp330:
	@DEBUG_VALUE: line_mask_flat:m <- $r7
	.loc	5 718 32                        @ ../GUILib/src/draw/lv_draw_mask.c:718:32
	ldrb	r2, [r0, r4]
	@DEBUG_VALUE: mask_mix:mask_new <- $r7
.Ltmp331:
	@DEBUG_VALUE: mask_mix:mask_act <- undef
	.loc	5 717 12                        @ ../GUILib/src/draw/lv_draw_mask.c:717:12
	uxtb	r7, r7
.Ltmp332:
	.loc	5 1421 8                        @ ../GUILib/src/draw/lv_draw_mask.c:1421:8
	cmp	r7, #252
	bhi	.LBB10_78
.Ltmp333:
@ %bb.75:
	@DEBUG_VALUE: line_mask_flat:p <- $r12
	@DEBUG_VALUE: line_mask_flat:k <- $r4
	@DEBUG_VALUE: line_mask_flat:len <- $r3
	@DEBUG_VALUE: lv_draw_mask_line:len <- $r3
	@DEBUG_VALUE: line_mask_flat:mask_buf <- $r0
	@DEBUG_VALUE: lv_draw_mask_line:mask_buf <- $r0
	@DEBUG_VALUE: lv_draw_mask_line:p <- [DW_OP_plus_uconst 24] [$sp+0]
	@DEBUG_VALUE: line_mask_flat:abs_x <- $lr
	@DEBUG_VALUE: lv_draw_mask_line:abs_x <- [DW_OP_LLVM_entry_value 1] $r1
	@DEBUG_VALUE: lv_draw_mask_line:abs_y <- [DW_OP_LLVM_entry_value 1] $r2
	.loc	5 1422 8                        @ ../GUILib/src/draw/lv_draw_mask.c:1422:8
	cmp	r7, #3
	bhs	.LBB10_77
.Ltmp334:
@ %bb.76:
	@DEBUG_VALUE: line_mask_flat:p <- $r12
	@DEBUG_VALUE: line_mask_flat:k <- $r4
	@DEBUG_VALUE: line_mask_flat:len <- $r3
	@DEBUG_VALUE: lv_draw_mask_line:len <- $r3
	@DEBUG_VALUE: line_mask_flat:mask_buf <- $r0
	@DEBUG_VALUE: lv_draw_mask_line:mask_buf <- $r0
	@DEBUG_VALUE: lv_draw_mask_line:p <- [DW_OP_plus_uconst 24] [$sp+0]
	@DEBUG_VALUE: line_mask_flat:abs_x <- $lr
	@DEBUG_VALUE: lv_draw_mask_line:abs_x <- [DW_OP_LLVM_entry_value 1] $r1
	@DEBUG_VALUE: lv_draw_mask_line:abs_y <- [DW_OP_LLVM_entry_value 1] $r2
	.loc	5 0 8 is_stmt 0                 @ ../GUILib/src/draw/lv_draw_mask.c:0:8
	movs	r2, #0
	b	.LBB10_78
.Ltmp335:
.LBB10_77:
	@DEBUG_VALUE: line_mask_flat:p <- $r12
	@DEBUG_VALUE: line_mask_flat:k <- $r4
	@DEBUG_VALUE: line_mask_flat:len <- $r3
	@DEBUG_VALUE: lv_draw_mask_line:len <- $r3
	@DEBUG_VALUE: line_mask_flat:mask_buf <- $r0
	@DEBUG_VALUE: lv_draw_mask_line:mask_buf <- $r0
	@DEBUG_VALUE: lv_draw_mask_line:p <- [DW_OP_plus_uconst 24] [$sp+0]
	@DEBUG_VALUE: line_mask_flat:abs_x <- $lr
	@DEBUG_VALUE: lv_draw_mask_line:abs_x <- [DW_OP_LLVM_entry_value 1] $r1
	@DEBUG_VALUE: lv_draw_mask_line:abs_y <- [DW_OP_LLVM_entry_value 1] $r2
	.loc	5 1424 12 is_stmt 1             @ ../GUILib/src/draw/lv_draw_mask.c:1424:12
	muls	r2, r7, r2
	movw	r7, #32897
	muls	r2, r7, r2
	lsrs	r2, r2, #23
.Ltmp336:
.LBB10_78:
	@DEBUG_VALUE: line_mask_flat:p <- $r12
	@DEBUG_VALUE: line_mask_flat:k <- $r4
	@DEBUG_VALUE: line_mask_flat:len <- $r3
	@DEBUG_VALUE: lv_draw_mask_line:len <- $r3
	@DEBUG_VALUE: line_mask_flat:mask_buf <- $r0
	@DEBUG_VALUE: lv_draw_mask_line:mask_buf <- $r0
	@DEBUG_VALUE: lv_draw_mask_line:p <- [DW_OP_plus_uconst 24] [$sp+0]
	@DEBUG_VALUE: line_mask_flat:abs_x <- $lr
	@DEBUG_VALUE: lv_draw_mask_line:abs_x <- [DW_OP_LLVM_entry_value 1] $r1
	@DEBUG_VALUE: lv_draw_mask_line:abs_y <- [DW_OP_LLVM_entry_value 1] $r2
	.loc	5 718 21                        @ ../GUILib/src/draw/lv_draw_mask.c:718:21
	strb	r2, [r0, r4]
.Ltmp337:
.LBB10_79:
	@DEBUG_VALUE: line_mask_flat:p <- $r12
	@DEBUG_VALUE: line_mask_flat:k <- $r4
	@DEBUG_VALUE: line_mask_flat:len <- $r3
	@DEBUG_VALUE: lv_draw_mask_line:len <- $r3
	@DEBUG_VALUE: line_mask_flat:mask_buf <- $r0
	@DEBUG_VALUE: lv_draw_mask_line:mask_buf <- $r0
	@DEBUG_VALUE: lv_draw_mask_line:p <- [DW_OP_plus_uconst 24] [$sp+0]
	@DEBUG_VALUE: line_mask_flat:abs_x <- $lr
	@DEBUG_VALUE: lv_draw_mask_line:abs_x <- [DW_OP_LLVM_entry_value 1] $r1
	@DEBUG_VALUE: lv_draw_mask_line:abs_y <- [DW_OP_LLVM_entry_value 1] $r2
	.loc	5 721 11                        @ ../GUILib/src/draw/lv_draw_mask.c:721:11
	ldrb.w	r2, [r12, #40]
.Ltmp338:
	.loc	5 721 8 is_stmt 0               @ ../GUILib/src/draw/lv_draw_mask.c:721:8
	lsls	r2, r2, #30
	bmi	.LBB10_84
.Ltmp339:
@ %bb.80:
	@DEBUG_VALUE: line_mask_flat:p <- $r12
	@DEBUG_VALUE: line_mask_flat:k <- $r4
	@DEBUG_VALUE: line_mask_flat:len <- $r3
	@DEBUG_VALUE: lv_draw_mask_line:len <- $r3
	@DEBUG_VALUE: line_mask_flat:mask_buf <- $r0
	@DEBUG_VALUE: lv_draw_mask_line:mask_buf <- $r0
	@DEBUG_VALUE: lv_draw_mask_line:p <- [DW_OP_plus_uconst 24] [$sp+0]
	@DEBUG_VALUE: line_mask_flat:abs_x <- $lr
	@DEBUG_VALUE: lv_draw_mask_line:abs_x <- [DW_OP_LLVM_entry_value 1] $r1
	@DEBUG_VALUE: lv_draw_mask_line:abs_y <- [DW_OP_LLVM_entry_value 1] $r2
	.loc	5 0 8                           @ ../GUILib/src/draw/lv_draw_mask.c:0:8
	movs	r1, #0
.Ltmp340:
	.loc	5 713 10 is_stmt 1              @ ../GUILib/src/draw/lv_draw_mask.c:713:10
	cmn.w	r4, #2
	it	gt
	movgt	r1, #1
.Ltmp341:
	@DEBUG_VALUE: line_mask_flat:k <- undef
	.loc	5 732 12                        @ ../GUILib/src/draw/lv_draw_mask.c:732:12
	cmp.w	r4, #-1
	lsl.w	r2, r1, #1
	blt.w	.LBB10_117
.Ltmp342:
@ %bb.81:
	@DEBUG_VALUE: line_mask_flat:p <- $r12
	@DEBUG_VALUE: line_mask_flat:len <- $r3
	@DEBUG_VALUE: lv_draw_mask_line:len <- $r3
	@DEBUG_VALUE: line_mask_flat:mask_buf <- $r0
	@DEBUG_VALUE: lv_draw_mask_line:mask_buf <- $r0
	@DEBUG_VALUE: lv_draw_mask_line:p <- [DW_OP_plus_uconst 24] [$sp+0]
	@DEBUG_VALUE: line_mask_flat:abs_x <- $lr
	@DEBUG_VALUE: lv_draw_mask_line:abs_x <- [DW_OP_LLVM_entry_value 1] $r1
	@DEBUG_VALUE: lv_draw_mask_line:abs_y <- [DW_OP_LLVM_entry_value 1] $r2
	@DEBUG_VALUE: line_mask_flat:k <- undef
	cmp	r4, r3
	bge.w	.LBB10_117
.Ltmp343:
@ %bb.82:
	@DEBUG_VALUE: line_mask_flat:p <- $r12
	@DEBUG_VALUE: line_mask_flat:len <- $r3
	@DEBUG_VALUE: lv_draw_mask_line:len <- $r3
	@DEBUG_VALUE: line_mask_flat:mask_buf <- $r0
	@DEBUG_VALUE: lv_draw_mask_line:mask_buf <- $r0
	@DEBUG_VALUE: lv_draw_mask_line:p <- [DW_OP_plus_uconst 24] [$sp+0]
	@DEBUG_VALUE: line_mask_flat:abs_x <- $lr
	@DEBUG_VALUE: lv_draw_mask_line:abs_x <- [DW_OP_LLVM_entry_value 1] $r1
	@DEBUG_VALUE: lv_draw_mask_line:abs_y <- [DW_OP_LLVM_entry_value 1] $r2
	.loc	5 0 0 is_stmt 0                 @ ../GUILib/src/draw/lv_draw_mask.c:0:0
	adds	r1, r4, #1
.Ltmp344:
	@DEBUG_VALUE: line_mask_flat:k <- $r1
.LBB10_83:
	@DEBUG_VALUE: lv_draw_mask_line:len <- $r3
	@DEBUG_VALUE: lv_draw_mask_line:mask_buf <- $r0
	@DEBUG_VALUE: lv_draw_mask_line:p <- [DW_OP_plus_uconst 24] [$sp+0]
	@DEBUG_VALUE: lv_draw_mask_line:abs_x <- [DW_OP_LLVM_entry_value 1] $r1
	@DEBUG_VALUE: lv_draw_mask_line:abs_y <- [DW_OP_LLVM_entry_value 1] $r2
	add	r0, r1
.Ltmp345:
	@DEBUG_VALUE: lv_draw_mask_line:mask_buf <- [DW_OP_LLVM_entry_value 1] $r0
	subs	r1, r3, r1
	b	.LBB10_87
.Ltmp346:
.LBB10_84:
	@DEBUG_VALUE: line_mask_flat:p <- $r12
	@DEBUG_VALUE: line_mask_flat:k <- $r4
	@DEBUG_VALUE: line_mask_flat:len <- $r3
	@DEBUG_VALUE: lv_draw_mask_line:len <- $r3
	@DEBUG_VALUE: line_mask_flat:mask_buf <- $r0
	@DEBUG_VALUE: lv_draw_mask_line:mask_buf <- $r0
	@DEBUG_VALUE: lv_draw_mask_line:p <- [DW_OP_plus_uconst 24] [$sp+0]
	@DEBUG_VALUE: line_mask_flat:abs_x <- $lr
	@DEBUG_VALUE: lv_draw_mask_line:abs_x <- [DW_OP_LLVM_entry_value 1] $r1
	@DEBUG_VALUE: lv_draw_mask_line:abs_y <- [DW_OP_LLVM_entry_value 1] $r2
	.loc	5 723 12 is_stmt 1              @ ../GUILib/src/draw/lv_draw_mask.c:723:12
	cmp	r1, r3
	ble	.LBB10_86
.Ltmp347:
.LBB10_85:
	@DEBUG_VALUE: lv_draw_mask_line:len <- $r3
	@DEBUG_VALUE: lv_draw_mask_line:mask_buf <- $r0
	@DEBUG_VALUE: lv_draw_mask_line:p <- [DW_OP_plus_uconst 24] [$sp+0]
	@DEBUG_VALUE: lv_draw_mask_line:abs_x <- [DW_OP_LLVM_entry_value 1] $r1
	@DEBUG_VALUE: lv_draw_mask_line:abs_y <- [DW_OP_LLVM_entry_value 1] $r2
	.loc	5 0 12 is_stmt 0                @ ../GUILib/src/draw/lv_draw_mask.c:0:12
	movs	r2, #0
	b	.LBB10_117
.Ltmp348:
.LBB10_86:
	@DEBUG_VALUE: lv_draw_mask_line:len <- $r3
	@DEBUG_VALUE: lv_draw_mask_line:mask_buf <- $r0
	@DEBUG_VALUE: lv_draw_mask_line:p <- [DW_OP_plus_uconst 24] [$sp+0]
	@DEBUG_VALUE: lv_draw_mask_line:abs_x <- [DW_OP_LLVM_entry_value 1] $r1
	@DEBUG_VALUE: lv_draw_mask_line:abs_y <- [DW_OP_LLVM_entry_value 1] $r2
	cmp	r1, #0
	bmi	.LBB10_88
.Ltmp349:
.LBB10_87:
	@DEBUG_VALUE: lv_draw_mask_line:p <- [DW_OP_plus_uconst 24] [$sp+0]
	@DEBUG_VALUE: lv_draw_mask_line:abs_x <- [DW_OP_LLVM_entry_value 1] $r1
	@DEBUG_VALUE: lv_draw_mask_line:abs_y <- [DW_OP_LLVM_entry_value 1] $r2
	bl	lv_memset_00
.Ltmp350:
.LBB10_88:
	@DEBUG_VALUE: lv_draw_mask_line:p <- [DW_OP_plus_uconst 24] [$sp+0]
	@DEBUG_VALUE: lv_draw_mask_line:abs_x <- [DW_OP_LLVM_entry_value 1] $r1
	@DEBUG_VALUE: lv_draw_mask_line:abs_y <- [DW_OP_LLVM_entry_value 1] $r2
	movs	r2, #2
	b	.LBB10_117
.Ltmp351:
.LBB10_89:
	@DEBUG_VALUE: line_mask_steep:p <- $r12
	@DEBUG_VALUE: line_mask_steep:xsi <- $r8
	@DEBUG_VALUE: line_mask_steep:len <- $r3
	@DEBUG_VALUE: lv_draw_mask_line:len <- $r3
	@DEBUG_VALUE: y_inters <- $r2
	@DEBUG_VALUE: line_mask_steep:k <- $r1
	@DEBUG_VALUE: line_mask_steep:mask_buf <- $r0
	@DEBUG_VALUE: lv_draw_mask_line:mask_buf <- $r0
	@DEBUG_VALUE: lv_draw_mask_line:p <- [DW_OP_plus_uconst 24] [$sp+0]
	@DEBUG_VALUE: line_mask_steep:abs_x <- $lr
	@DEBUG_VALUE: lv_draw_mask_line:abs_x <- [DW_OP_LLVM_entry_value 1] $r1
	@DEBUG_VALUE: lv_draw_mask_line:abs_y <- [DW_OP_LLVM_entry_value 1] $r2
	.loc	5 1424 12 is_stmt 1             @ ../GUILib/src/draw/lv_draw_mask.c:1424:12
	muls	r7, r6, r7
	movw	r6, #32897
	muls	r7, r6, r7
	lsrs	r7, r7, #23
.Ltmp352:
.LBB10_90:
	@DEBUG_VALUE: line_mask_steep:p <- $r12
	@DEBUG_VALUE: line_mask_steep:xsi <- $r8
	@DEBUG_VALUE: line_mask_steep:len <- $r3
	@DEBUG_VALUE: lv_draw_mask_line:len <- $r3
	@DEBUG_VALUE: y_inters <- $r2
	@DEBUG_VALUE: line_mask_steep:k <- $r1
	@DEBUG_VALUE: line_mask_steep:mask_buf <- $r0
	@DEBUG_VALUE: lv_draw_mask_line:mask_buf <- $r0
	@DEBUG_VALUE: lv_draw_mask_line:p <- [DW_OP_plus_uconst 24] [$sp+0]
	@DEBUG_VALUE: line_mask_steep:abs_x <- $lr
	@DEBUG_VALUE: lv_draw_mask_line:abs_x <- [DW_OP_LLVM_entry_value 1] $r1
	@DEBUG_VALUE: lv_draw_mask_line:abs_y <- [DW_OP_LLVM_entry_value 1] $r2
	.loc	5 855 29                        @ ../GUILib/src/draw/lv_draw_mask.c:855:29
	strb	r7, [r0, r1]
.Ltmp353:
.LBB10_91:
	@DEBUG_VALUE: line_mask_steep:p <- $r12
	@DEBUG_VALUE: line_mask_steep:xsi <- $r8
	@DEBUG_VALUE: line_mask_steep:len <- $r3
	@DEBUG_VALUE: lv_draw_mask_line:len <- $r3
	@DEBUG_VALUE: y_inters <- $r2
	@DEBUG_VALUE: line_mask_steep:k <- $r1
	@DEBUG_VALUE: line_mask_steep:mask_buf <- $r0
	@DEBUG_VALUE: lv_draw_mask_line:mask_buf <- $r0
	@DEBUG_VALUE: lv_draw_mask_line:p <- [DW_OP_plus_uconst 24] [$sp+0]
	@DEBUG_VALUE: line_mask_steep:abs_x <- $lr
	@DEBUG_VALUE: lv_draw_mask_line:abs_x <- [DW_OP_LLVM_entry_value 1] $r1
	@DEBUG_VALUE: lv_draw_mask_line:abs_y <- [DW_OP_LLVM_entry_value 1] $r2
	@DEBUG_VALUE: line_mask_steep:k <- undef
	@DEBUG_VALUE: x_inters <- [DW_OP_constu 10, DW_OP_shra, DW_OP_stack_value] undef
	.loc	5 861 23                        @ ../GUILib/src/draw/lv_draw_mask.c:861:23
	cmp.w	r1, #-1
	blt	.LBB10_98
.Ltmp354:
@ %bb.92:
	@DEBUG_VALUE: line_mask_steep:p <- $r12
	@DEBUG_VALUE: line_mask_steep:xsi <- $r8
	@DEBUG_VALUE: line_mask_steep:len <- $r3
	@DEBUG_VALUE: lv_draw_mask_line:len <- $r3
	@DEBUG_VALUE: y_inters <- $r2
	@DEBUG_VALUE: line_mask_steep:mask_buf <- $r0
	@DEBUG_VALUE: lv_draw_mask_line:mask_buf <- $r0
	@DEBUG_VALUE: lv_draw_mask_line:p <- [DW_OP_plus_uconst 24] [$sp+0]
	@DEBUG_VALUE: line_mask_steep:abs_x <- $lr
	@DEBUG_VALUE: lv_draw_mask_line:abs_x <- [DW_OP_LLVM_entry_value 1] $r1
	@DEBUG_VALUE: lv_draw_mask_line:abs_y <- [DW_OP_LLVM_entry_value 1] $r2
	.loc	5 0 0 is_stmt 0                 @ ../GUILib/src/draw/lv_draw_mask.c:0:0
	adds	r6, r1, #1
.Ltmp355:
	@DEBUG_VALUE: line_mask_steep:k <- $r6
	.loc	5 861 23                        @ ../GUILib/src/draw/lv_draw_mask.c:861:23
	cmp	r6, r3
	bge	.LBB10_98
.Ltmp356:
@ %bb.93:
	@DEBUG_VALUE: line_mask_steep:p <- $r12
	@DEBUG_VALUE: line_mask_steep:xsi <- $r8
	@DEBUG_VALUE: line_mask_steep:k <- $r6
	@DEBUG_VALUE: line_mask_steep:len <- $r3
	@DEBUG_VALUE: lv_draw_mask_line:len <- $r3
	@DEBUG_VALUE: y_inters <- $r2
	@DEBUG_VALUE: line_mask_steep:mask_buf <- $r0
	@DEBUG_VALUE: lv_draw_mask_line:mask_buf <- $r0
	@DEBUG_VALUE: lv_draw_mask_line:p <- [DW_OP_plus_uconst 24] [$sp+0]
	@DEBUG_VALUE: line_mask_steep:abs_x <- $lr
	@DEBUG_VALUE: lv_draw_mask_line:abs_x <- [DW_OP_LLVM_entry_value 1] $r1
	@DEBUG_VALUE: lv_draw_mask_line:abs_y <- [DW_OP_LLVM_entry_value 1] $r2
	.loc	5 860 55 is_stmt 1              @ ../GUILib/src/draw/lv_draw_mask.c:860:55
	ldr.w	r7, [r12, #24]
	.loc	5 0 0 is_stmt 0                 @ ../GUILib/src/draw/lv_draw_mask.c:0:0
	rsb.w	r2, r2, #255
.Ltmp357:
	.loc	5 860 50                        @ ../GUILib/src/draw/lv_draw_mask.c:860:50
	muls	r7, r2, r7
.Ltmp358:
	@DEBUG_VALUE: x_inters <- [DW_OP_constu 10, DW_OP_shra, DW_OP_stack_value] $r7
	.loc	5 863 23 is_stmt 1              @ ../GUILib/src/draw/lv_draw_mask.c:863:23
	ldrb.w	r5, [r12, #40]
.Ltmp359:
	.loc	5 860 65                        @ ../GUILib/src/draw/lv_draw_mask.c:860:65
	lsrs	r7, r7, #10
.Ltmp360:
	@DEBUG_VALUE: x_inters <- $r7
	.loc	5 862 39                        @ ../GUILib/src/draw/lv_draw_mask.c:862:39
	muls	r2, r7, r2
.Ltmp361:
	@DEBUG_VALUE: line_mask_steep:m <- undef
	.loc	5 863 20                        @ ../GUILib/src/draw/lv_draw_mask.c:863:20
	lsls	r7, r5, #6
.Ltmp362:
	sxtb	r7, r7
	asrs	r7, r7, #7
	eor.w	r7, r7, r2, lsr #9
.Ltmp363:
	@DEBUG_VALUE: line_mask_steep:m <- $r7
	.loc	5 864 40                        @ ../GUILib/src/draw/lv_draw_mask.c:864:40
	ldrb	r2, [r0, r6]
	@DEBUG_VALUE: mask_mix:mask_new <- $r7
.Ltmp364:
	@DEBUG_VALUE: mask_mix:mask_act <- undef
	.loc	5 863 20                        @ ../GUILib/src/draw/lv_draw_mask.c:863:20
	uxtb	r7, r7
.Ltmp365:
	.loc	5 1421 8                        @ ../GUILib/src/draw/lv_draw_mask.c:1421:8
	cmp	r7, #252
	bhi	.LBB10_97
.Ltmp366:
@ %bb.94:
	@DEBUG_VALUE: line_mask_steep:p <- $r12
	@DEBUG_VALUE: line_mask_steep:xsi <- $r8
	@DEBUG_VALUE: line_mask_steep:k <- $r6
	@DEBUG_VALUE: line_mask_steep:len <- $r3
	@DEBUG_VALUE: lv_draw_mask_line:len <- $r3
	@DEBUG_VALUE: line_mask_steep:mask_buf <- $r0
	@DEBUG_VALUE: lv_draw_mask_line:mask_buf <- $r0
	@DEBUG_VALUE: lv_draw_mask_line:p <- [DW_OP_plus_uconst 24] [$sp+0]
	@DEBUG_VALUE: line_mask_steep:abs_x <- $lr
	@DEBUG_VALUE: lv_draw_mask_line:abs_x <- [DW_OP_LLVM_entry_value 1] $r1
	@DEBUG_VALUE: lv_draw_mask_line:abs_y <- [DW_OP_LLVM_entry_value 1] $r2
	.loc	5 1422 8                        @ ../GUILib/src/draw/lv_draw_mask.c:1422:8
	cmp	r7, #3
	bhs	.LBB10_96
.Ltmp367:
@ %bb.95:
	@DEBUG_VALUE: line_mask_steep:p <- $r12
	@DEBUG_VALUE: line_mask_steep:xsi <- $r8
	@DEBUG_VALUE: line_mask_steep:k <- $r6
	@DEBUG_VALUE: line_mask_steep:len <- $r3
	@DEBUG_VALUE: lv_draw_mask_line:len <- $r3
	@DEBUG_VALUE: line_mask_steep:mask_buf <- $r0
	@DEBUG_VALUE: lv_draw_mask_line:mask_buf <- $r0
	@DEBUG_VALUE: lv_draw_mask_line:p <- [DW_OP_plus_uconst 24] [$sp+0]
	@DEBUG_VALUE: line_mask_steep:abs_x <- $lr
	@DEBUG_VALUE: lv_draw_mask_line:abs_x <- [DW_OP_LLVM_entry_value 1] $r1
	@DEBUG_VALUE: lv_draw_mask_line:abs_y <- [DW_OP_LLVM_entry_value 1] $r2
	.loc	5 0 8 is_stmt 0                 @ ../GUILib/src/draw/lv_draw_mask.c:0:8
	movs	r2, #0
	b	.LBB10_97
.Ltmp368:
.LBB10_96:
	@DEBUG_VALUE: line_mask_steep:p <- $r12
	@DEBUG_VALUE: line_mask_steep:xsi <- $r8
	@DEBUG_VALUE: line_mask_steep:k <- $r6
	@DEBUG_VALUE: line_mask_steep:len <- $r3
	@DEBUG_VALUE: lv_draw_mask_line:len <- $r3
	@DEBUG_VALUE: line_mask_steep:mask_buf <- $r0
	@DEBUG_VALUE: lv_draw_mask_line:mask_buf <- $r0
	@DEBUG_VALUE: lv_draw_mask_line:p <- [DW_OP_plus_uconst 24] [$sp+0]
	@DEBUG_VALUE: line_mask_steep:abs_x <- $lr
	@DEBUG_VALUE: lv_draw_mask_line:abs_x <- [DW_OP_LLVM_entry_value 1] $r1
	@DEBUG_VALUE: lv_draw_mask_line:abs_y <- [DW_OP_LLVM_entry_value 1] $r2
	.loc	5 1424 12 is_stmt 1             @ ../GUILib/src/draw/lv_draw_mask.c:1424:12
	muls	r2, r7, r2
	movw	r7, #32897
	muls	r2, r7, r2
	lsrs	r2, r2, #23
.Ltmp369:
.LBB10_97:
	@DEBUG_VALUE: line_mask_steep:p <- $r12
	@DEBUG_VALUE: line_mask_steep:xsi <- $r8
	@DEBUG_VALUE: line_mask_steep:k <- $r6
	@DEBUG_VALUE: line_mask_steep:len <- $r3
	@DEBUG_VALUE: lv_draw_mask_line:len <- $r3
	@DEBUG_VALUE: line_mask_steep:mask_buf <- $r0
	@DEBUG_VALUE: lv_draw_mask_line:mask_buf <- $r0
	@DEBUG_VALUE: lv_draw_mask_line:p <- [DW_OP_plus_uconst 24] [$sp+0]
	@DEBUG_VALUE: line_mask_steep:abs_x <- $lr
	@DEBUG_VALUE: lv_draw_mask_line:abs_x <- [DW_OP_LLVM_entry_value 1] $r1
	@DEBUG_VALUE: lv_draw_mask_line:abs_y <- [DW_OP_LLVM_entry_value 1] $r2
	.loc	5 864 29                        @ ../GUILib/src/draw/lv_draw_mask.c:864:29
	strb	r2, [r0, r6]
.Ltmp370:
.LBB10_98:
	@DEBUG_VALUE: line_mask_steep:p <- $r12
	@DEBUG_VALUE: line_mask_steep:xsi <- $r8
	@DEBUG_VALUE: line_mask_steep:len <- $r3
	@DEBUG_VALUE: lv_draw_mask_line:len <- $r3
	@DEBUG_VALUE: line_mask_steep:mask_buf <- $r0
	@DEBUG_VALUE: lv_draw_mask_line:mask_buf <- $r0
	@DEBUG_VALUE: lv_draw_mask_line:p <- [DW_OP_plus_uconst 24] [$sp+0]
	@DEBUG_VALUE: line_mask_steep:abs_x <- $lr
	@DEBUG_VALUE: lv_draw_mask_line:abs_x <- [DW_OP_LLVM_entry_value 1] $r1
	@DEBUG_VALUE: lv_draw_mask_line:abs_y <- [DW_OP_LLVM_entry_value 1] $r2
	@DEBUG_VALUE: line_mask_steep:k <- undef
	.loc	5 868 19                        @ ../GUILib/src/draw/lv_draw_mask.c:868:19
	ldrb.w	r2, [r12, #40]
.Ltmp371:
	.loc	5 868 16 is_stmt 0              @ ../GUILib/src/draw/lv_draw_mask.c:868:16
	lsls	r2, r2, #30
	bmi	.LBB10_101
.Ltmp372:
@ %bb.99:
	@DEBUG_VALUE: line_mask_steep:p <- $r12
	@DEBUG_VALUE: line_mask_steep:xsi <- $r8
	@DEBUG_VALUE: line_mask_steep:len <- $r3
	@DEBUG_VALUE: lv_draw_mask_line:len <- $r3
	@DEBUG_VALUE: line_mask_steep:mask_buf <- $r0
	@DEBUG_VALUE: lv_draw_mask_line:mask_buf <- $r0
	@DEBUG_VALUE: lv_draw_mask_line:p <- [DW_OP_plus_uconst 24] [$sp+0]
	@DEBUG_VALUE: line_mask_steep:abs_x <- $lr
	@DEBUG_VALUE: lv_draw_mask_line:abs_x <- [DW_OP_LLVM_entry_value 1] $r1
	@DEBUG_VALUE: lv_draw_mask_line:abs_y <- [DW_OP_LLVM_entry_value 1] $r2
	.loc	5 0 0                           @ ../GUILib/src/draw/lv_draw_mask.c:0:0
	adds	r1, #2
.Ltmp373:
	@DEBUG_VALUE: line_mask_steep:k <- $r1
	.loc	5 875 20 is_stmt 1              @ ../GUILib/src/draw/lv_draw_mask.c:875:20
	cmp	r1, r3
	it	gt
	movgt	r1, r3
.Ltmp374:
	@DEBUG_VALUE: line_mask_steep:k <- $r1
	.loc	5 876 20                        @ ../GUILib/src/draw/lv_draw_mask.c:876:20
	cmp	r1, #0
	beq	.LBB10_85
.Ltmp375:
@ %bb.100:
	@DEBUG_VALUE: line_mask_steep:p <- $r12
	@DEBUG_VALUE: line_mask_steep:xsi <- $r8
	@DEBUG_VALUE: line_mask_steep:len <- $r3
	@DEBUG_VALUE: lv_draw_mask_line:len <- $r3
	@DEBUG_VALUE: line_mask_steep:k <- $r1
	@DEBUG_VALUE: line_mask_steep:mask_buf <- $r0
	@DEBUG_VALUE: lv_draw_mask_line:mask_buf <- $r0
	@DEBUG_VALUE: lv_draw_mask_line:p <- [DW_OP_plus_uconst 24] [$sp+0]
	@DEBUG_VALUE: line_mask_steep:abs_x <- $lr
	@DEBUG_VALUE: lv_draw_mask_line:abs_x <- [DW_OP_LLVM_entry_value 1] $r1
	@DEBUG_VALUE: lv_draw_mask_line:abs_y <- [DW_OP_LLVM_entry_value 1] $r2
	.loc	5 877 25                        @ ../GUILib/src/draw/lv_draw_mask.c:877:25
	cmp	r1, #1
	bge	.LBB10_83
	b	.LBB10_88
.Ltmp376:
.LBB10_101:
	@DEBUG_VALUE: line_mask_steep:p <- $r12
	@DEBUG_VALUE: line_mask_steep:xsi <- $r8
	@DEBUG_VALUE: line_mask_steep:len <- $r3
	@DEBUG_VALUE: lv_draw_mask_line:len <- $r3
	@DEBUG_VALUE: line_mask_steep:mask_buf <- $r0
	@DEBUG_VALUE: lv_draw_mask_line:mask_buf <- $r0
	@DEBUG_VALUE: lv_draw_mask_line:p <- [DW_OP_plus_uconst 24] [$sp+0]
	@DEBUG_VALUE: line_mask_steep:abs_x <- $lr
	@DEBUG_VALUE: lv_draw_mask_line:abs_x <- [DW_OP_LLVM_entry_value 1] $r1
	@DEBUG_VALUE: lv_draw_mask_line:abs_y <- [DW_OP_LLVM_entry_value 1] $r2
	.loc	5 0 25 is_stmt 0                @ ../GUILib/src/draw/lv_draw_mask.c:0:25
	movs	r2, #0
.Ltmp377:
	.loc	5 852 18 is_stmt 1              @ ../GUILib/src/draw/lv_draw_mask.c:852:18
	cmp	r1, r3
	it	le
	movle	r2, #1
.Ltmp378:
	@DEBUG_VALUE: line_mask_steep:k <- $r1
	.loc	5 870 20                        @ ../GUILib/src/draw/lv_draw_mask.c:870:20
	lsl.w	r2, r2, #1
	bgt	.LBB10_117
.Ltmp379:
@ %bb.102:
	@DEBUG_VALUE: line_mask_steep:p <- $r12
	@DEBUG_VALUE: line_mask_steep:xsi <- $r8
	@DEBUG_VALUE: line_mask_steep:len <- $r3
	@DEBUG_VALUE: lv_draw_mask_line:len <- $r3
	@DEBUG_VALUE: line_mask_steep:k <- $r1
	@DEBUG_VALUE: line_mask_steep:mask_buf <- $r0
	@DEBUG_VALUE: lv_draw_mask_line:mask_buf <- $r0
	@DEBUG_VALUE: lv_draw_mask_line:p <- [DW_OP_plus_uconst 24] [$sp+0]
	@DEBUG_VALUE: line_mask_steep:abs_x <- $lr
	@DEBUG_VALUE: lv_draw_mask_line:abs_x <- [DW_OP_LLVM_entry_value 1] $r1
	@DEBUG_VALUE: lv_draw_mask_line:abs_y <- [DW_OP_LLVM_entry_value 1] $r2
	cmp	r1, #0
	bpl	.LBB10_87
	b	.LBB10_117
.Ltmp380:
.LBB10_103:
	@DEBUG_VALUE: line_mask_steep:p <- $r12
	@DEBUG_VALUE: line_mask_steep:xsi <- $r8
	@DEBUG_VALUE: mask_mix:mask_new <- $r4
	@DEBUG_VALUE: line_mask_steep:m <- $r4
	@DEBUG_VALUE: line_mask_steep:len <- $r3
	@DEBUG_VALUE: lv_draw_mask_line:len <- $r3
	@DEBUG_VALUE: y_inters <- $r2
	@DEBUG_VALUE: line_mask_steep:k <- $r1
	@DEBUG_VALUE: line_mask_steep:mask_buf <- $r0
	@DEBUG_VALUE: lv_draw_mask_line:mask_buf <- $r0
	@DEBUG_VALUE: lv_draw_mask_line:p <- [DW_OP_plus_uconst 24] [$sp+0]
	@DEBUG_VALUE: line_mask_steep:abs_x <- $lr
	@DEBUG_VALUE: lv_draw_mask_line:abs_x <- [DW_OP_LLVM_entry_value 1] $r1
	@DEBUG_VALUE: lv_draw_mask_line:abs_y <- [DW_OP_LLVM_entry_value 1] $r2
	.loc	5 1424 12                       @ ../GUILib/src/draw/lv_draw_mask.c:1424:12
	mul	r4, r6, r5
.Ltmp381:
	.loc	5 0 12 is_stmt 0                @ ../GUILib/src/draw/lv_draw_mask.c:0:12
	movw	r5, #32897
	.loc	5 1424 12                       @ ../GUILib/src/draw/lv_draw_mask.c:1424:12
	muls	r4, r5, r4
	lsrs	r5, r4, #23
.Ltmp382:
.LBB10_104:
	@DEBUG_VALUE: line_mask_steep:p <- $r12
	@DEBUG_VALUE: line_mask_steep:xsi <- $r8
	@DEBUG_VALUE: line_mask_steep:len <- $r3
	@DEBUG_VALUE: lv_draw_mask_line:len <- $r3
	@DEBUG_VALUE: y_inters <- $r2
	@DEBUG_VALUE: line_mask_steep:k <- $r1
	@DEBUG_VALUE: line_mask_steep:mask_buf <- $r0
	@DEBUG_VALUE: lv_draw_mask_line:mask_buf <- $r0
	@DEBUG_VALUE: lv_draw_mask_line:p <- [DW_OP_plus_uconst 24] [$sp+0]
	@DEBUG_VALUE: line_mask_steep:abs_x <- $lr
	@DEBUG_VALUE: lv_draw_mask_line:abs_x <- [DW_OP_LLVM_entry_value 1] $r1
	@DEBUG_VALUE: lv_draw_mask_line:abs_y <- [DW_OP_LLVM_entry_value 1] $r2
	.loc	5 823 29 is_stmt 1              @ ../GUILib/src/draw/lv_draw_mask.c:823:29
	strb	r5, [r0, r1]
.Ltmp383:
.LBB10_105:
	@DEBUG_VALUE: line_mask_steep:p <- $r12
	@DEBUG_VALUE: line_mask_steep:xsi <- $r8
	@DEBUG_VALUE: line_mask_steep:len <- $r3
	@DEBUG_VALUE: lv_draw_mask_line:len <- $r3
	@DEBUG_VALUE: y_inters <- $r2
	@DEBUG_VALUE: line_mask_steep:k <- $r1
	@DEBUG_VALUE: line_mask_steep:mask_buf <- $r0
	@DEBUG_VALUE: lv_draw_mask_line:mask_buf <- $r0
	@DEBUG_VALUE: lv_draw_mask_line:p <- [DW_OP_plus_uconst 24] [$sp+0]
	@DEBUG_VALUE: line_mask_steep:abs_x <- $lr
	@DEBUG_VALUE: lv_draw_mask_line:abs_x <- [DW_OP_LLVM_entry_value 1] $r1
	@DEBUG_VALUE: lv_draw_mask_line:abs_y <- [DW_OP_LLVM_entry_value 1] $r2
	@DEBUG_VALUE: line_mask_steep:k <- [DW_OP_constu 1, DW_OP_minus, DW_OP_stack_value] $r1
	@DEBUG_VALUE: x_inters <- [DW_OP_constu 10, DW_OP_shra, DW_OP_stack_value] undef
	.loc	5 829 23                        @ ../GUILib/src/draw/lv_draw_mask.c:829:23
	cmp	r1, #1
	blt	.LBB10_112
.Ltmp384:
@ %bb.106:
	@DEBUG_VALUE: line_mask_steep:p <- $r12
	@DEBUG_VALUE: line_mask_steep:xsi <- $r8
	@DEBUG_VALUE: line_mask_steep:len <- $r3
	@DEBUG_VALUE: lv_draw_mask_line:len <- $r3
	@DEBUG_VALUE: y_inters <- $r2
	@DEBUG_VALUE: line_mask_steep:k <- [DW_OP_constu 1, DW_OP_minus, DW_OP_stack_value] $r1
	@DEBUG_VALUE: line_mask_steep:mask_buf <- $r0
	@DEBUG_VALUE: lv_draw_mask_line:mask_buf <- $r0
	@DEBUG_VALUE: lv_draw_mask_line:p <- [DW_OP_plus_uconst 24] [$sp+0]
	@DEBUG_VALUE: line_mask_steep:abs_x <- $lr
	@DEBUG_VALUE: lv_draw_mask_line:abs_x <- [DW_OP_LLVM_entry_value 1] $r1
	@DEBUG_VALUE: lv_draw_mask_line:abs_y <- [DW_OP_LLVM_entry_value 1] $r2
	cmp	r1, r3
	bgt	.LBB10_112
.Ltmp385:
@ %bb.107:
	@DEBUG_VALUE: line_mask_steep:p <- $r12
	@DEBUG_VALUE: line_mask_steep:xsi <- $r8
	@DEBUG_VALUE: line_mask_steep:len <- $r3
	@DEBUG_VALUE: lv_draw_mask_line:len <- $r3
	@DEBUG_VALUE: y_inters <- $r2
	@DEBUG_VALUE: line_mask_steep:k <- [DW_OP_constu 1, DW_OP_minus, DW_OP_stack_value] $r1
	@DEBUG_VALUE: line_mask_steep:mask_buf <- $r0
	@DEBUG_VALUE: lv_draw_mask_line:mask_buf <- $r0
	@DEBUG_VALUE: lv_draw_mask_line:p <- [DW_OP_plus_uconst 24] [$sp+0]
	@DEBUG_VALUE: line_mask_steep:abs_x <- $lr
	@DEBUG_VALUE: lv_draw_mask_line:abs_x <- [DW_OP_LLVM_entry_value 1] $r1
	@DEBUG_VALUE: lv_draw_mask_line:abs_y <- [DW_OP_LLVM_entry_value 1] $r2
	.loc	5 827 57                        @ ../GUILib/src/draw/lv_draw_mask.c:827:57
	ldr.w	r4, [r12, #24]
	.loc	5 827 38 is_stmt 0              @ ../GUILib/src/draw/lv_draw_mask.c:827:38
	sub.w	r5, r2, #255
	.loc	5 827 50                        @ ../GUILib/src/draw/lv_draw_mask.c:827:50
	muls	r4, r5, r4
.Ltmp386:
	@DEBUG_VALUE: x_inters <- [DW_OP_constu 10, DW_OP_shra, DW_OP_stack_value] $r4
	.loc	5 831 23 is_stmt 1              @ ../GUILib/src/draw/lv_draw_mask.c:831:23
	ldrb.w	r5, [r12, #40]
.Ltmp387:
	.loc	5 827 68                        @ ../GUILib/src/draw/lv_draw_mask.c:827:68
	lsrs	r4, r4, #10
.Ltmp388:
	@DEBUG_VALUE: x_inters <- $r4
	.loc	5 827 38 is_stmt 0              @ ../GUILib/src/draw/lv_draw_mask.c:827:38
	rsb.w	r2, r2, #255
.Ltmp389:
	.loc	5 831 20 is_stmt 1              @ ../GUILib/src/draw/lv_draw_mask.c:831:20
	ubfx	r5, r5, #1, #1
	.loc	5 830 46                        @ ../GUILib/src/draw/lv_draw_mask.c:830:46
	muls	r4, r2, r4
.Ltmp390:
	@DEBUG_VALUE: line_mask_steep:m <- [DW_OP_constu 18446744073709551615, DW_OP_xor, DW_OP_stack_value] undef
	.loc	5 831 20                        @ ../GUILib/src/draw/lv_draw_mask.c:831:20
	subs	r5, #1
.Ltmp391:
	.loc	5 825 14                        @ ../GUILib/src/draw/lv_draw_mask.c:825:14
	subs	r2, r1, #1
.Ltmp392:
	@DEBUG_VALUE: line_mask_steep:k <- $r2
	.loc	5 831 20                        @ ../GUILib/src/draw/lv_draw_mask.c:831:20
	eor.w	r4, r5, r4, lsr #9
.Ltmp393:
	@DEBUG_VALUE: line_mask_steep:m <- $r4
	.loc	5 832 40                        @ ../GUILib/src/draw/lv_draw_mask.c:832:40
	ldrb	r5, [r0, r2]
.Ltmp394:
	@DEBUG_VALUE: mask_mix:mask_new <- $r4
	@DEBUG_VALUE: mask_mix:mask_act <- undef
	.loc	5 831 20                        @ ../GUILib/src/draw/lv_draw_mask.c:831:20
	uxtb	r6, r4
.Ltmp395:
	.loc	5 1421 8                        @ ../GUILib/src/draw/lv_draw_mask.c:1421:8
	cmp	r6, #252
	bhi	.LBB10_111
.Ltmp396:
@ %bb.108:
	@DEBUG_VALUE: line_mask_steep:p <- $r12
	@DEBUG_VALUE: line_mask_steep:xsi <- $r8
	@DEBUG_VALUE: mask_mix:mask_new <- $r4
	@DEBUG_VALUE: line_mask_steep:m <- $r4
	@DEBUG_VALUE: line_mask_steep:len <- $r3
	@DEBUG_VALUE: lv_draw_mask_line:len <- $r3
	@DEBUG_VALUE: line_mask_steep:k <- $r2
	@DEBUG_VALUE: line_mask_steep:mask_buf <- $r0
	@DEBUG_VALUE: lv_draw_mask_line:mask_buf <- $r0
	@DEBUG_VALUE: lv_draw_mask_line:p <- [DW_OP_plus_uconst 24] [$sp+0]
	@DEBUG_VALUE: line_mask_steep:abs_x <- $lr
	@DEBUG_VALUE: lv_draw_mask_line:abs_x <- [DW_OP_LLVM_entry_value 1] $r1
	@DEBUG_VALUE: lv_draw_mask_line:abs_y <- [DW_OP_LLVM_entry_value 1] $r2
	.loc	5 1422 8                        @ ../GUILib/src/draw/lv_draw_mask.c:1422:8
	cmp	r6, #3
	bhs	.LBB10_110
.Ltmp397:
@ %bb.109:
	@DEBUG_VALUE: line_mask_steep:p <- $r12
	@DEBUG_VALUE: line_mask_steep:xsi <- $r8
	@DEBUG_VALUE: mask_mix:mask_new <- $r4
	@DEBUG_VALUE: line_mask_steep:m <- $r4
	@DEBUG_VALUE: line_mask_steep:len <- $r3
	@DEBUG_VALUE: lv_draw_mask_line:len <- $r3
	@DEBUG_VALUE: line_mask_steep:k <- $r2
	@DEBUG_VALUE: line_mask_steep:mask_buf <- $r0
	@DEBUG_VALUE: lv_draw_mask_line:mask_buf <- $r0
	@DEBUG_VALUE: lv_draw_mask_line:p <- [DW_OP_plus_uconst 24] [$sp+0]
	@DEBUG_VALUE: line_mask_steep:abs_x <- $lr
	@DEBUG_VALUE: lv_draw_mask_line:abs_x <- [DW_OP_LLVM_entry_value 1] $r1
	@DEBUG_VALUE: lv_draw_mask_line:abs_y <- [DW_OP_LLVM_entry_value 1] $r2
	.loc	5 0 8 is_stmt 0                 @ ../GUILib/src/draw/lv_draw_mask.c:0:8
	movs	r5, #0
	b	.LBB10_111
.Ltmp398:
.LBB10_110:
	@DEBUG_VALUE: line_mask_steep:p <- $r12
	@DEBUG_VALUE: line_mask_steep:xsi <- $r8
	@DEBUG_VALUE: mask_mix:mask_new <- $r4
	@DEBUG_VALUE: line_mask_steep:m <- $r4
	@DEBUG_VALUE: line_mask_steep:len <- $r3
	@DEBUG_VALUE: lv_draw_mask_line:len <- $r3
	@DEBUG_VALUE: line_mask_steep:k <- $r2
	@DEBUG_VALUE: line_mask_steep:mask_buf <- $r0
	@DEBUG_VALUE: lv_draw_mask_line:mask_buf <- $r0
	@DEBUG_VALUE: lv_draw_mask_line:p <- [DW_OP_plus_uconst 24] [$sp+0]
	@DEBUG_VALUE: line_mask_steep:abs_x <- $lr
	@DEBUG_VALUE: lv_draw_mask_line:abs_x <- [DW_OP_LLVM_entry_value 1] $r1
	@DEBUG_VALUE: lv_draw_mask_line:abs_y <- [DW_OP_LLVM_entry_value 1] $r2
	.loc	5 1424 12 is_stmt 1             @ ../GUILib/src/draw/lv_draw_mask.c:1424:12
	mul	r4, r5, r6
.Ltmp399:
	.loc	5 0 12 is_stmt 0                @ ../GUILib/src/draw/lv_draw_mask.c:0:12
	movw	r5, #32897
	.loc	5 1424 12                       @ ../GUILib/src/draw/lv_draw_mask.c:1424:12
	muls	r4, r5, r4
	lsrs	r5, r4, #23
.Ltmp400:
.LBB10_111:
	@DEBUG_VALUE: line_mask_steep:p <- $r12
	@DEBUG_VALUE: line_mask_steep:xsi <- $r8
	@DEBUG_VALUE: line_mask_steep:len <- $r3
	@DEBUG_VALUE: lv_draw_mask_line:len <- $r3
	@DEBUG_VALUE: line_mask_steep:k <- $r2
	@DEBUG_VALUE: line_mask_steep:mask_buf <- $r0
	@DEBUG_VALUE: lv_draw_mask_line:mask_buf <- $r0
	@DEBUG_VALUE: lv_draw_mask_line:p <- [DW_OP_plus_uconst 24] [$sp+0]
	@DEBUG_VALUE: line_mask_steep:abs_x <- $lr
	@DEBUG_VALUE: lv_draw_mask_line:abs_x <- [DW_OP_LLVM_entry_value 1] $r1
	@DEBUG_VALUE: lv_draw_mask_line:abs_y <- [DW_OP_LLVM_entry_value 1] $r2
	.loc	5 832 29 is_stmt 1              @ ../GUILib/src/draw/lv_draw_mask.c:832:29
	strb	r5, [r0, r2]
.Ltmp401:
.LBB10_112:
	@DEBUG_VALUE: line_mask_steep:p <- $r12
	@DEBUG_VALUE: line_mask_steep:xsi <- $r8
	@DEBUG_VALUE: line_mask_steep:len <- $r3
	@DEBUG_VALUE: lv_draw_mask_line:len <- $r3
	@DEBUG_VALUE: line_mask_steep:mask_buf <- $r0
	@DEBUG_VALUE: lv_draw_mask_line:mask_buf <- $r0
	@DEBUG_VALUE: lv_draw_mask_line:p <- [DW_OP_plus_uconst 24] [$sp+0]
	@DEBUG_VALUE: line_mask_steep:abs_x <- $lr
	@DEBUG_VALUE: lv_draw_mask_line:abs_x <- [DW_OP_LLVM_entry_value 1] $r1
	@DEBUG_VALUE: lv_draw_mask_line:abs_y <- [DW_OP_LLVM_entry_value 1] $r2
	@DEBUG_VALUE: line_mask_steep:k <- undef
	.loc	5 837 19                        @ ../GUILib/src/draw/lv_draw_mask.c:837:19
	ldrb.w	r2, [r12, #40]
.Ltmp402:
	.loc	5 837 16 is_stmt 0              @ ../GUILib/src/draw/lv_draw_mask.c:837:16
	lsls	r2, r2, #30
	bmi	.LBB10_118
.Ltmp403:
@ %bb.113:
	@DEBUG_VALUE: line_mask_steep:p <- $r12
	@DEBUG_VALUE: line_mask_steep:xsi <- $r8
	@DEBUG_VALUE: line_mask_steep:len <- $r3
	@DEBUG_VALUE: lv_draw_mask_line:len <- $r3
	@DEBUG_VALUE: line_mask_steep:mask_buf <- $r0
	@DEBUG_VALUE: lv_draw_mask_line:mask_buf <- $r0
	@DEBUG_VALUE: lv_draw_mask_line:p <- [DW_OP_plus_uconst 24] [$sp+0]
	@DEBUG_VALUE: line_mask_steep:abs_x <- $lr
	@DEBUG_VALUE: lv_draw_mask_line:abs_x <- [DW_OP_LLVM_entry_value 1] $r1
	@DEBUG_VALUE: lv_draw_mask_line:abs_y <- [DW_OP_LLVM_entry_value 1] $r2
	@DEBUG_VALUE: line_mask_steep:k <- undef
	.loc	5 845 20 is_stmt 1              @ ../GUILib/src/draw/lv_draw_mask.c:845:20
	cmp	r1, r3
	bge	.LBB10_116
.Ltmp404:
@ %bb.114:
	@DEBUG_VALUE: line_mask_steep:p <- $r12
	@DEBUG_VALUE: line_mask_steep:xsi <- $r8
	@DEBUG_VALUE: line_mask_steep:len <- $r3
	@DEBUG_VALUE: lv_draw_mask_line:len <- $r3
	@DEBUG_VALUE: line_mask_steep:mask_buf <- $r0
	@DEBUG_VALUE: lv_draw_mask_line:mask_buf <- $r0
	@DEBUG_VALUE: lv_draw_mask_line:p <- [DW_OP_plus_uconst 24] [$sp+0]
	@DEBUG_VALUE: line_mask_steep:abs_x <- $lr
	@DEBUG_VALUE: lv_draw_mask_line:abs_x <- [DW_OP_LLVM_entry_value 1] $r1
	@DEBUG_VALUE: lv_draw_mask_line:abs_y <- [DW_OP_LLVM_entry_value 1] $r2
	@DEBUG_VALUE: line_mask_steep:k <- undef
	.loc	5 846 20                        @ ../GUILib/src/draw/lv_draw_mask.c:846:20
	cmp.w	r1, #-1
	blt.w	.LBB10_88
.Ltmp405:
@ %bb.115:
	@DEBUG_VALUE: line_mask_steep:p <- $r12
	@DEBUG_VALUE: line_mask_steep:xsi <- $r8
	@DEBUG_VALUE: line_mask_steep:len <- $r3
	@DEBUG_VALUE: lv_draw_mask_line:len <- $r3
	@DEBUG_VALUE: line_mask_steep:mask_buf <- $r0
	@DEBUG_VALUE: lv_draw_mask_line:mask_buf <- $r0
	@DEBUG_VALUE: lv_draw_mask_line:p <- [DW_OP_plus_uconst 24] [$sp+0]
	@DEBUG_VALUE: line_mask_steep:abs_x <- $lr
	@DEBUG_VALUE: lv_draw_mask_line:abs_x <- [DW_OP_LLVM_entry_value 1] $r1
	@DEBUG_VALUE: lv_draw_mask_line:abs_y <- [DW_OP_LLVM_entry_value 1] $r2
	.loc	5 0 20 is_stmt 0                @ ../GUILib/src/draw/lv_draw_mask.c:0:20
	adds	r1, #1
	@DEBUG_VALUE: line_mask_steep:k <- $r1
	b	.LBB10_83
.Ltmp406:
.LBB10_116:
	@DEBUG_VALUE: lv_draw_mask_line:len <- $r3
	@DEBUG_VALUE: lv_draw_mask_line:p <- [DW_OP_plus_uconst 24] [$sp+0]
	@DEBUG_VALUE: lv_draw_mask_line:abs_x <- [DW_OP_LLVM_entry_value 1] $r1
	@DEBUG_VALUE: lv_draw_mask_line:abs_y <- [DW_OP_LLVM_entry_value 1] $r2
	movs	r2, #1
.Ltmp407:
.LBB10_117:
	@DEBUG_VALUE: lv_draw_mask_line:p <- [DW_OP_plus_uconst 24] [$sp+0]
	@DEBUG_VALUE: lv_draw_mask_line:abs_x <- [DW_OP_LLVM_entry_value 1] $r1
	@DEBUG_VALUE: lv_draw_mask_line:abs_y <- [DW_OP_LLVM_entry_value 1] $r2
	.loc	5 625 1 is_stmt 1               @ ../GUILib/src/draw/lv_draw_mask.c:625:1
	mov	r0, r2
	pop.w	{r4, r5, r6, r7, r8, pc}
.Ltmp408:
.LBB10_118:
	@DEBUG_VALUE: line_mask_steep:p <- $r12
	@DEBUG_VALUE: line_mask_steep:xsi <- $r8
	@DEBUG_VALUE: line_mask_steep:len <- $r3
	@DEBUG_VALUE: lv_draw_mask_line:len <- $r3
	@DEBUG_VALUE: line_mask_steep:mask_buf <- $r0
	@DEBUG_VALUE: lv_draw_mask_line:mask_buf <- $r0
	@DEBUG_VALUE: lv_draw_mask_line:p <- [DW_OP_plus_uconst 24] [$sp+0]
	@DEBUG_VALUE: line_mask_steep:abs_x <- $lr
	@DEBUG_VALUE: lv_draw_mask_line:abs_x <- [DW_OP_LLVM_entry_value 1] $r1
	@DEBUG_VALUE: lv_draw_mask_line:abs_y <- [DW_OP_LLVM_entry_value 1] $r2
	.loc	5 838 33                        @ ../GUILib/src/draw/lv_draw_mask.c:838:33
	mvn.w	r1, lr
	add	r1, r8
.Ltmp409:
	@DEBUG_VALUE: line_mask_steep:k <- $r1
	.loc	5 840 20                        @ ../GUILib/src/draw/lv_draw_mask.c:840:20
	cmp	r1, r3
	mov.w	r2, #2
	bgt	.LBB10_117
.Ltmp410:
@ %bb.119:
	@DEBUG_VALUE: line_mask_steep:p <- $r12
	@DEBUG_VALUE: line_mask_steep:xsi <- $r8
	@DEBUG_VALUE: line_mask_steep:len <- $r3
	@DEBUG_VALUE: lv_draw_mask_line:len <- $r3
	@DEBUG_VALUE: line_mask_steep:k <- $r1
	@DEBUG_VALUE: line_mask_steep:mask_buf <- $r0
	@DEBUG_VALUE: lv_draw_mask_line:mask_buf <- $r0
	@DEBUG_VALUE: lv_draw_mask_line:p <- [DW_OP_plus_uconst 24] [$sp+0]
	@DEBUG_VALUE: line_mask_steep:abs_x <- $lr
	@DEBUG_VALUE: lv_draw_mask_line:abs_x <- [DW_OP_LLVM_entry_value 1] $r1
	@DEBUG_VALUE: lv_draw_mask_line:abs_y <- [DW_OP_LLVM_entry_value 1] $r2
	cmp	r1, #1
	bge.w	.LBB10_87
	b	.LBB10_117
.Ltmp411:
.Lfunc_end10:
	.size	lv_draw_mask_line, .Lfunc_end10-lv_draw_mask_line
	.cfi_endproc
	.cantunwind
	.fnend
                                        @ -- End function
	.section	.text.lv_draw_mask_line_angle_init,"ax",%progbits
	.hidden	lv_draw_mask_line_angle_init    @ -- Begin function lv_draw_mask_line_angle_init
	.globl	lv_draw_mask_line_angle_init
	.p2align	1
	.type	lv_draw_mask_line_angle_init,%function
	.code	16                              @ @lv_draw_mask_line_angle_init
	.thumb_func
lv_draw_mask_line_angle_init:
.Lfunc_begin11:
	.loc	5 382 0                         @ ../GUILib/src/draw/lv_draw_mask.c:382:0
	.fnstart
	.cfi_startproc
@ %bb.0:
	@DEBUG_VALUE: lv_draw_mask_line_angle_init:param <- $r0
	@DEBUG_VALUE: lv_draw_mask_line_angle_init:p1x <- $r1
	@DEBUG_VALUE: lv_draw_mask_line_angle_init:py <- $r2
	@DEBUG_VALUE: lv_draw_mask_line_angle_init:angle <- $r3
	.save	{r4, r5, r6, r7, r8, r9, lr}
	push.w	{r4, r5, r6, r7, r8, r9, lr}
	.cfi_def_cfa_offset 28
	.cfi_offset lr, -4
	.cfi_offset r9, -8
	.cfi_offset r8, -12
	.cfi_offset r7, -16
	.cfi_offset r6, -20
	.cfi_offset r5, -24
	.cfi_offset r4, -28
	.pad	#12
	sub	sp, #12
	.cfi_def_cfa_offset 40
	subs.w	r7, r3, #180
	@DEBUG_VALUE: lv_draw_mask_line_angle_init:angle <- $r3
.Ltmp412:
	@DEBUG_VALUE: lv_draw_mask_line_angle_init:py <- $r4
	@DEBUG_VALUE: lv_draw_mask_line_angle_init:p1x <- $r5
	@DEBUG_VALUE: lv_draw_mask_line_angle_init:param <- $r9
	mov	r9, r0
.Ltmp413:
	.loc	5 387 8 prologue_end            @ ../GUILib/src/draw/lv_draw_mask.c:387:8
	it	le
	movle	r7, r3
.Ltmp414:
	@DEBUG_VALUE: lv_draw_mask_line_angle_init:angle <- $r7
	@DEBUG_VALUE: lv_draw_mask_line_angle_init:angle <- $r7
	.loc	5 392 31                        @ ../GUILib/src/draw/lv_draw_mask.c:392:31
	add.w	r0, r7, #90
	ldr.w	r8, [sp, #40]
	@DEBUG_VALUE: lv_draw_mask_line_angle_init:side <- undef
	.loc	5 392 12 is_stmt 0              @ ../GUILib/src/draw/lv_draw_mask.c:392:12
	sxth	r0, r0
	mov	r4, r2
.Ltmp415:
	.loc	5 0 12                          @ ../GUILib/src/draw/lv_draw_mask.c:0:12
	mov	r5, r1
.Ltmp416:
	.loc	5 392 12                        @ ../GUILib/src/draw/lv_draw_mask.c:392:12
	bl	lv_trigo_sin
.Ltmp417:
	.loc	5 392 43                        @ ../GUILib/src/draw/lv_draw_mask.c:392:43
	add.w	r6, r5, r0, lsr #5
.Ltmp418:
	@DEBUG_VALUE: lv_draw_mask_line_angle_init:p2x <- undef
	.loc	5 393 12 is_stmt 1              @ ../GUILib/src/draw/lv_draw_mask.c:393:12
	sxth	r0, r7
	bl	lv_trigo_sin
.Ltmp419:
	.loc	5 393 38 is_stmt 0              @ ../GUILib/src/draw/lv_draw_mask.c:393:38
	add.w	r0, r4, r0, lsr #5
.Ltmp420:
	@DEBUG_VALUE: lv_draw_mask_line_angle_init:p2y <- undef
	.loc	5 395 5 is_stmt 1               @ ../GUILib/src/draw/lv_draw_mask.c:395:5
	sxth	r0, r0
	str	r0, [sp]
	sxth	r3, r6
	mov	r0, r9
.Ltmp421:
	@DEBUG_VALUE: lv_draw_mask_line_angle_init:param <- $r0
	mov	r1, r5
	mov	r2, r4
	str.w	r8, [sp, #4]
	bl	lv_draw_mask_line_points_init
.Ltmp422:
	.loc	5 396 1                         @ ../GUILib/src/draw/lv_draw_mask.c:396:1
	add	sp, #12
	pop.w	{r4, r5, r6, r7, r8, r9, pc}
.Ltmp423:
.Lfunc_end11:
	.size	lv_draw_mask_line_angle_init, .Lfunc_end11-lv_draw_mask_line_angle_init
	.cfi_endproc
	.cantunwind
	.fnend
                                        @ -- End function
	.section	.text.lv_draw_mask_angle_init,"ax",%progbits
	.hidden	lv_draw_mask_angle_init         @ -- Begin function lv_draw_mask_angle_init
	.globl	lv_draw_mask_angle_init
	.p2align	1
	.type	lv_draw_mask_angle_init,%function
	.code	16                              @ @lv_draw_mask_angle_init
	.thumb_func
lv_draw_mask_angle_init:
.Lfunc_begin12:
	.loc	5 408 0                         @ ../GUILib/src/draw/lv_draw_mask.c:408:0
	.fnstart
	.cfi_startproc
@ %bb.0:
	@DEBUG_VALUE: lv_draw_mask_angle_init:param <- $r0
	@DEBUG_VALUE: lv_draw_mask_angle_init:vertex_x <- $r1
	@DEBUG_VALUE: lv_draw_mask_angle_init:vertex_y <- $r2
	@DEBUG_VALUE: lv_draw_mask_angle_init:start_angle <- $r3
	.save	{r4, r5, r6, r7, r8, r9, lr}
	push.w	{r4, r5, r6, r7, r8, r9, lr}
	.cfi_def_cfa_offset 28
	.cfi_offset lr, -4
	.cfi_offset r9, -8
	.cfi_offset r8, -12
	.cfi_offset r7, -16
	.cfi_offset r6, -20
	.cfi_offset r5, -24
	.cfi_offset r4, -28
	.pad	#4
	sub	sp, #4
	.cfi_def_cfa_offset 32
	mov	r8, r2
.Ltmp424:
	@DEBUG_VALUE: lv_draw_mask_angle_init:vertex_y <- $r8
	ldr	r2, [sp, #32]
	movw	r7, #359
.Ltmp425:
	@DEBUG_VALUE: lv_draw_mask_angle_init:end_angle <- $r2
	@DEBUG_VALUE: lv_draw_mask_angle_init:start_angle <- $r3
	@DEBUG_VALUE: lv_draw_mask_angle_init:vertex_y <- $r8
	@DEBUG_VALUE: lv_draw_mask_angle_init:vertex_x <- $r9
	.loc	5 413 8 prologue_end            @ ../GUILib/src/draw/lv_draw_mask.c:413:8
	cmp.w	r3, #358
	mov	r9, r1
.Ltmp426:
	it	gt
	movgt	r3, r7
.Ltmp427:
	@DEBUG_VALUE: lv_draw_mask_angle_init:start_angle <- [DW_OP_LLVM_entry_value 1] $r3
	bic.w	r1, r3, r3, asr #31
.Ltmp428:
	@DEBUG_VALUE: lv_draw_mask_angle_init:start_angle <- $r1
	.loc	5 418 8                         @ ../GUILib/src/draw/lv_draw_mask.c:418:8
	cmp.w	r2, #358
	it	le
	movle	r7, r2
.Ltmp429:
	@DEBUG_VALUE: lv_draw_mask_angle_init:end_angle <- $r7
	bic.w	r2, r7, r7, asr #31
.Ltmp430:
	@DEBUG_VALUE: lv_draw_mask_angle_init:end_angle <- $r2
	.loc	5 423 8                         @ ../GUILib/src/draw/lv_draw_mask.c:423:8
	cmp	r2, r1
	mov	r6, r0
.Ltmp431:
	@DEBUG_VALUE: lv_draw_mask_angle_init:param <- $r6
	@DEBUG_VALUE: lv_draw_mask_angle_init:param <- $r6
	bge	.LBB12_2
.Ltmp432:
@ %bb.1:
	@DEBUG_VALUE: lv_draw_mask_angle_init:vertex_y <- $r8
	@DEBUG_VALUE: lv_draw_mask_angle_init:param <- $r6
	@DEBUG_VALUE: lv_draw_mask_angle_init:end_angle <- $r2
	@DEBUG_VALUE: lv_draw_mask_angle_init:start_angle <- $r1
	.loc	5 424 46                        @ ../GUILib/src/draw/lv_draw_mask.c:424:46
	subs	r0, r2, r1
	add.w	r0, r0, #360
	b	.LBB12_3
.Ltmp433:
.LBB12_2:
	@DEBUG_VALUE: lv_draw_mask_angle_init:vertex_y <- $r8
	@DEBUG_VALUE: lv_draw_mask_angle_init:param <- $r6
	@DEBUG_VALUE: lv_draw_mask_angle_init:end_angle <- $r2
	@DEBUG_VALUE: lv_draw_mask_angle_init:start_angle <- $r1
	.loc	5 423 8                         @ ../GUILib/src/draw/lv_draw_mask.c:423:8
	uxth	r0, r2
	.loc	5 423 20 is_stmt 0              @ ../GUILib/src/draw/lv_draw_mask.c:423:20
	uxth	r3, r1
.Ltmp434:
	.loc	5 427 28 is_stmt 1              @ ../GUILib/src/draw/lv_draw_mask.c:427:28
	subs	r0, r0, r3
	it	mi
	rsbmi	r0, r0, #0
.Ltmp435:
.LBB12_3:
	@DEBUG_VALUE: lv_draw_mask_angle_init:vertex_y <- $r8
	@DEBUG_VALUE: lv_draw_mask_angle_init:param <- $r6
	@DEBUG_VALUE: lv_draw_mask_angle_init:end_angle <- $r2
	@DEBUG_VALUE: lv_draw_mask_angle_init:start_angle <- $r1
	.loc	5 424 26                        @ ../GUILib/src/draw/lv_draw_mask.c:424:26
	strh.w	r0, [r6, #104]
.Ltmp436:
	.loc	5 434 19                        @ ../GUILib/src/draw/lv_draw_mask.c:434:19
	movw	r0, :lower16:lv_draw_mask_angle
	movt	r0, :upper16:lv_draw_mask_angle
	str	r0, [r6]
	movs	r0, #1
	.loc	5 430 28                        @ ../GUILib/src/draw/lv_draw_mask.c:430:28
	sxth	r3, r1
	strh	r1, [r6, #12]
	.loc	5 431 26                        @ ../GUILib/src/draw/lv_draw_mask.c:431:26
	strh	r2, [r6, #14]
	.loc	5 435 21                        @ ../GUILib/src/draw/lv_draw_mask.c:435:21
	strb	r0, [r6, #4]
	movs	r4, #0
.Ltmp437:
	.loc	5 439 40                        @ ../GUILib/src/draw/lv_draw_mask.c:439:40
	cmp	r3, #179
	mov.w	r5, #0
.Ltmp438:
	.loc	5 431 26                        @ ../GUILib/src/draw/lv_draw_mask.c:431:26
	sxth	r7, r2
.Ltmp439:
	@DEBUG_VALUE: lv_draw_mask_angle_init:start_side <- undef
	.loc	5 459 42                        @ ../GUILib/src/draw/lv_draw_mask.c:459:42
	add.w	r0, r6, #16
	.loc	5 459 5 is_stmt 0               @ ../GUILib/src/draw/lv_draw_mask.c:459:5
	mov	r1, r9
.Ltmp440:
	mov	r2, r8
.Ltmp441:
	.loc	5 432 27 is_stmt 1              @ ../GUILib/src/draw/lv_draw_mask.c:432:27
	strh.w	r9, [r6, #8]
	.loc	5 433 27                        @ ../GUILib/src/draw/lv_draw_mask.c:433:27
	strh.w	r8, [r6, #10]
.Ltmp442:
	.loc	5 439 40                        @ ../GUILib/src/draw/lv_draw_mask.c:439:40
	it	gt
	movgt	r5, #1
.Ltmp443:
	.loc	5 450 36                        @ ../GUILib/src/draw/lv_draw_mask.c:450:36
	cmp	r7, #180
	it	lt
	movlt	r4, #1
.Ltmp444:
	@DEBUG_VALUE: lv_draw_mask_angle_init:end_side <- undef
	.loc	5 459 5                         @ ../GUILib/src/draw/lv_draw_mask.c:459:5
	str	r5, [sp]
	bl	lv_draw_mask_line_angle_init
.Ltmp445:
	.loc	5 460 42                        @ ../GUILib/src/draw/lv_draw_mask.c:460:42
	add.w	r0, r6, #60
	.loc	5 460 5 is_stmt 0               @ ../GUILib/src/draw/lv_draw_mask.c:460:5
	mov	r1, r9
	mov	r2, r8
	mov	r3, r7
	str	r4, [sp]
	bl	lv_draw_mask_line_angle_init
.Ltmp446:
	.loc	5 461 1 is_stmt 1               @ ../GUILib/src/draw/lv_draw_mask.c:461:1
	add	sp, #4
	pop.w	{r4, r5, r6, r7, r8, r9, pc}
.Ltmp447:
.Lfunc_end12:
	.size	lv_draw_mask_angle_init, .Lfunc_end12-lv_draw_mask_angle_init
	.cfi_endproc
	.cantunwind
	.fnend
                                        @ -- End function
	.section	.text.lv_draw_mask_angle,"ax",%progbits
	.p2align	1                               @ -- Begin function lv_draw_mask_angle
	.type	lv_draw_mask_angle,%function
	.code	16                              @ @lv_draw_mask_angle
	.thumb_func
lv_draw_mask_angle:
.Lfunc_begin13:
	.loc	5 888 0                         @ ../GUILib/src/draw/lv_draw_mask.c:888:0
	.fnstart
	.cfi_startproc
@ %bb.0:
	@DEBUG_VALUE: lv_draw_mask_angle:mask_buf <- $r0
	@DEBUG_VALUE: lv_draw_mask_angle:abs_x <- $r1
	@DEBUG_VALUE: lv_draw_mask_angle:abs_y <- $r2
	@DEBUG_VALUE: lv_draw_mask_angle:len <- $r3
	.save	{r4, r5, r6, r7, r8, r9, r10, lr}
	push.w	{r4, r5, r6, r7, r8, r9, r10, lr}
	.cfi_def_cfa_offset 32
	.cfi_offset lr, -4
	.cfi_offset r10, -8
	.cfi_offset r9, -12
	.cfi_offset r8, -16
	.cfi_offset r7, -20
	.cfi_offset r6, -24
	.cfi_offset r5, -28
	.cfi_offset r4, -32
	.pad	#8
	sub	sp, #8
	.cfi_def_cfa_offset 40
	ldr	r7, [sp, #40]
	mov	r4, r2
.Ltmp448:
	@DEBUG_VALUE: lv_draw_mask_angle:abs_y <- $r4
	mov	r6, r1
.Ltmp449:
	@DEBUG_VALUE: lv_draw_mask_angle:abs_x <- $r6
	mov	r8, r0
.Ltmp450:
	@DEBUG_VALUE: lv_draw_mask_angle:mask_buf <- $r8
	@DEBUG_VALUE: lv_draw_mask_angle:p <- [DW_OP_plus_uconst 40] [$sp+0]
	@DEBUG_VALUE: lv_draw_mask_angle:len <- $r9
	@DEBUG_VALUE: lv_draw_mask_angle:abs_y <- $r4
	@DEBUG_VALUE: lv_draw_mask_angle:abs_x <- $r6
	@DEBUG_VALUE: lv_draw_mask_angle:mask_buf <- $r8
	.loc	5 890 45 prologue_end           @ ../GUILib/src/draw/lv_draw_mask.c:890:45
	ldrsh.w	r0, [r7, #8]
	.loc	5 889 45                        @ ../GUILib/src/draw/lv_draw_mask.c:889:45
	ldrsh.w	r2, [r7, #10]
.Ltmp451:
	@DEBUG_VALUE: lv_draw_mask_angle:rel_x <- undef
	.loc	5 892 15                        @ ../GUILib/src/draw/lv_draw_mask.c:892:15
	ldrsh.w	r1, [r7, #12]
	mov	r9, r3
.Ltmp452:
	.loc	5 889 27                        @ ../GUILib/src/draw/lv_draw_mask.c:889:27
	subs	r3, r4, r2
.Ltmp453:
	@DEBUG_VALUE: lv_draw_mask_angle:rel_y <- $r3
	.loc	5 890 27                        @ ../GUILib/src/draw/lv_draw_mask.c:890:27
	sub.w	r12, r0, r6
.Ltmp454:
	.loc	5 892 33                        @ ../GUILib/src/draw/lv_draw_mask.c:892:33
	cmp	r1, #179
	.loc	5 892 15 is_stmt 0              @ ../GUILib/src/draw/lv_draw_mask.c:892:15
	uxth	r5, r1
	.loc	5 892 33                        @ ../GUILib/src/draw/lv_draw_mask.c:892:33
	bgt	.LBB13_10
.Ltmp455:
@ %bb.1:
	@DEBUG_VALUE: lv_draw_mask_angle:mask_buf <- $r8
	@DEBUG_VALUE: lv_draw_mask_angle:abs_x <- $r6
	@DEBUG_VALUE: lv_draw_mask_angle:abs_y <- $r4
	@DEBUG_VALUE: lv_draw_mask_angle:rel_y <- $r3
	@DEBUG_VALUE: lv_draw_mask_angle:p <- [DW_OP_plus_uconst 40] [$sp+0]
	.loc	5 892 43                        @ ../GUILib/src/draw/lv_draw_mask.c:892:43
	ldrsh.w	r1, [r7, #14]
	.loc	5 892 15                        @ ../GUILib/src/draw/lv_draw_mask.c:892:15
	sxth	r0, r5
	.loc	5 892 59                        @ ../GUILib/src/draw/lv_draw_mask.c:892:59
	cmp	r0, r1
	ble	.LBB13_16
.Ltmp456:
@ %bb.2:
	@DEBUG_VALUE: lv_draw_mask_angle:mask_buf <- $r8
	@DEBUG_VALUE: lv_draw_mask_angle:abs_x <- $r6
	@DEBUG_VALUE: lv_draw_mask_angle:abs_y <- $r4
	@DEBUG_VALUE: lv_draw_mask_angle:rel_y <- $r3
	@DEBUG_VALUE: lv_draw_mask_angle:p <- [DW_OP_plus_uconst 40] [$sp+0]
	cbz	r1, .LBB13_16
.Ltmp457:
@ %bb.3:
	@DEBUG_VALUE: lv_draw_mask_angle:mask_buf <- $r8
	@DEBUG_VALUE: lv_draw_mask_angle:abs_x <- $r6
	@DEBUG_VALUE: lv_draw_mask_angle:abs_y <- $r4
	@DEBUG_VALUE: lv_draw_mask_angle:rel_y <- $r3
	@DEBUG_VALUE: lv_draw_mask_angle:p <- [DW_OP_plus_uconst 40] [$sp+0]
	cbz	r5, .LBB13_16
.Ltmp458:
@ %bb.4:
	@DEBUG_VALUE: lv_draw_mask_angle:mask_buf <- $r8
	@DEBUG_VALUE: lv_draw_mask_angle:abs_x <- $r6
	@DEBUG_VALUE: lv_draw_mask_angle:abs_y <- $r4
	@DEBUG_VALUE: lv_draw_mask_angle:rel_y <- $r3
	@DEBUG_VALUE: lv_draw_mask_angle:p <- [DW_OP_plus_uconst 40] [$sp+0]
	cmp	r1, #179
	bgt	.LBB13_16
.Ltmp459:
@ %bb.5:
	@DEBUG_VALUE: lv_draw_mask_angle:mask_buf <- $r8
	@DEBUG_VALUE: lv_draw_mask_angle:abs_x <- $r6
	@DEBUG_VALUE: lv_draw_mask_angle:abs_y <- $r4
	@DEBUG_VALUE: lv_draw_mask_angle:rel_y <- $r3
	@DEBUG_VALUE: lv_draw_mask_angle:p <- [DW_OP_plus_uconst 40] [$sp+0]
	.loc	5 896 12 is_stmt 1              @ ../GUILib/src/draw/lv_draw_mask.c:896:12
	cmp	r2, r4
	bgt	.LBB13_15
.Ltmp460:
@ %bb.6:
	@DEBUG_VALUE: lv_draw_mask_angle:mask_buf <- $r8
	@DEBUG_VALUE: lv_draw_mask_angle:abs_x <- $r6
	@DEBUG_VALUE: lv_draw_mask_angle:abs_y <- $r4
	@DEBUG_VALUE: lv_draw_mask_angle:rel_y <- $r3
	@DEBUG_VALUE: lv_draw_mask_angle:p <- [DW_OP_plus_uconst 40] [$sp+0]
	.loc	5 901 56                        @ ../GUILib/src/draw/lv_draw_mask.c:901:56
	ldr	r2, [r7, #84]
	.loc	5 902 65                        @ ../GUILib/src/draw/lv_draw_mask.c:902:65
	ldr	r5, [r7, #40]
	.loc	5 901 42                        @ ../GUILib/src/draw/lv_draw_mask.c:901:42
	mul	lr, r2, r3
.Ltmp461:
	@DEBUG_VALUE: end_angle_first <- undef
	.loc	5 902 44                        @ ../GUILib/src/draw/lv_draw_mask.c:902:44
	adds	r2, r3, #1
	.loc	5 902 49 is_stmt 0              @ ../GUILib/src/draw/lv_draw_mask.c:902:49
	mul	r3, r5, r2
.Ltmp462:
	.loc	5 906 40 is_stmt 1              @ ../GUILib/src/draw/lv_draw_mask.c:906:40
	cmp	r0, #1
.Ltmp463:
	.loc	5 902 75                        @ ../GUILib/src/draw/lv_draw_mask.c:902:75
	asr.w	r2, r3, #10
.Ltmp464:
	@DEBUG_VALUE: start_angle_last <- $r2
	.loc	5 906 40                        @ ../GUILib/src/draw/lv_draw_mask.c:906:40
	blt.w	.LBB13_50
.Ltmp465:
@ %bb.7:
	@DEBUG_VALUE: lv_draw_mask_angle:mask_buf <- $r8
	@DEBUG_VALUE: lv_draw_mask_angle:abs_x <- $r6
	@DEBUG_VALUE: lv_draw_mask_angle:abs_y <- $r4
	@DEBUG_VALUE: start_angle_last <- $r2
	@DEBUG_VALUE: lv_draw_mask_angle:p <- [DW_OP_plus_uconst 40] [$sp+0]
	.loc	5 906 68 is_stmt 0              @ ../GUILib/src/draw/lv_draw_mask.c:906:68
	cmp	r0, #90
	bgt.w	.LBB13_48
.Ltmp466:
@ %bb.8:
	@DEBUG_VALUE: lv_draw_mask_angle:mask_buf <- $r8
	@DEBUG_VALUE: lv_draw_mask_angle:abs_x <- $r6
	@DEBUG_VALUE: lv_draw_mask_angle:abs_y <- $r4
	@DEBUG_VALUE: start_angle_last <- $r2
	@DEBUG_VALUE: lv_draw_mask_angle:p <- [DW_OP_plus_uconst 40] [$sp+0]
	cmp	r3, #0
	bpl.w	.LBB13_48
.Ltmp467:
@ %bb.9:
	@DEBUG_VALUE: lv_draw_mask_angle:mask_buf <- $r8
	@DEBUG_VALUE: lv_draw_mask_angle:abs_x <- $r6
	@DEBUG_VALUE: lv_draw_mask_angle:abs_y <- $r4
	@DEBUG_VALUE: start_angle_last <- $r2
	@DEBUG_VALUE: lv_draw_mask_angle:p <- [DW_OP_plus_uconst 40] [$sp+0]
	.loc	5 0 68                          @ ../GUILib/src/draw/lv_draw_mask.c:0:68
	movs	r2, #0
	b	.LBB13_50
.Ltmp468:
.LBB13_10:
	@DEBUG_VALUE: lv_draw_mask_angle:mask_buf <- $r8
	@DEBUG_VALUE: lv_draw_mask_angle:abs_x <- $r6
	@DEBUG_VALUE: lv_draw_mask_angle:abs_y <- $r4
	@DEBUG_VALUE: lv_draw_mask_angle:rel_y <- $r3
	@DEBUG_VALUE: lv_draw_mask_angle:p <- [DW_OP_plus_uconst 40] [$sp+0]
	.loc	5 936 38 is_stmt 1              @ ../GUILib/src/draw/lv_draw_mask.c:936:38
	cmp	r5, #180
	bne	.LBB13_12
.Ltmp469:
@ %bb.11:
	@DEBUG_VALUE: lv_draw_mask_angle:mask_buf <- $r8
	@DEBUG_VALUE: lv_draw_mask_angle:abs_x <- $r6
	@DEBUG_VALUE: lv_draw_mask_angle:abs_y <- $r4
	@DEBUG_VALUE: lv_draw_mask_angle:rel_y <- $r3
	@DEBUG_VALUE: lv_draw_mask_angle:p <- [DW_OP_plus_uconst 40] [$sp+0]
	.loc	5 0 38 is_stmt 0                @ ../GUILib/src/draw/lv_draw_mask.c:0:38
	movs	r5, #3
.Ltmp470:
	.loc	5 984 16 is_stmt 1              @ ../GUILib/src/draw/lv_draw_mask.c:984:16
	cmp	r2, r4
	it	gt
	movgt	r5, #1
	b	.LBB13_21
.Ltmp471:
.LBB13_12:
	@DEBUG_VALUE: lv_draw_mask_angle:mask_buf <- $r8
	@DEBUG_VALUE: lv_draw_mask_angle:abs_x <- $r6
	@DEBUG_VALUE: lv_draw_mask_angle:abs_y <- $r4
	@DEBUG_VALUE: lv_draw_mask_angle:rel_y <- $r3
	@DEBUG_VALUE: lv_draw_mask_angle:p <- [DW_OP_plus_uconst 40] [$sp+0]
	.loc	5 936 48                        @ ../GUILib/src/draw/lv_draw_mask.c:936:48
	ldrsh.w	r1, [r7, #14]
	.loc	5 936 64 is_stmt 0              @ ../GUILib/src/draw/lv_draw_mask.c:936:64
	cmp	r1, #181
	blt	.LBB13_17
.Ltmp472:
@ %bb.13:
	@DEBUG_VALUE: lv_draw_mask_angle:mask_buf <- $r8
	@DEBUG_VALUE: lv_draw_mask_angle:abs_x <- $r6
	@DEBUG_VALUE: lv_draw_mask_angle:abs_y <- $r4
	@DEBUG_VALUE: lv_draw_mask_angle:rel_y <- $r3
	@DEBUG_VALUE: lv_draw_mask_angle:p <- [DW_OP_plus_uconst 40] [$sp+0]
	sxth	r0, r5
	cmp	r0, r1
	ble	.LBB13_17
.Ltmp473:
@ %bb.14:
	@DEBUG_VALUE: lv_draw_mask_angle:mask_buf <- $r8
	@DEBUG_VALUE: lv_draw_mask_angle:abs_x <- $r6
	@DEBUG_VALUE: lv_draw_mask_angle:abs_y <- $r4
	@DEBUG_VALUE: lv_draw_mask_angle:rel_y <- $r3
	@DEBUG_VALUE: lv_draw_mask_angle:p <- [DW_OP_plus_uconst 40] [$sp+0]
	.loc	5 938 12 is_stmt 1              @ ../GUILib/src/draw/lv_draw_mask.c:938:12
	cmp	r2, r4
	bge	.LBB13_36
.Ltmp474:
.LBB13_15:
	@DEBUG_VALUE: lv_draw_mask_angle:mask_buf <- $r8
	@DEBUG_VALUE: lv_draw_mask_angle:abs_x <- $r6
	@DEBUG_VALUE: lv_draw_mask_angle:abs_y <- $r4
	@DEBUG_VALUE: lv_draw_mask_angle:rel_y <- $r3
	@DEBUG_VALUE: lv_draw_mask_angle:p <- [DW_OP_plus_uconst 40] [$sp+0]
	.loc	5 0 12 is_stmt 0                @ ../GUILib/src/draw/lv_draw_mask.c:0:12
	movs	r7, #1
	b	.LBB13_64
.Ltmp475:
.LBB13_16:
	@DEBUG_VALUE: lv_draw_mask_angle:mask_buf <- $r8
	@DEBUG_VALUE: lv_draw_mask_angle:abs_x <- $r6
	@DEBUG_VALUE: lv_draw_mask_angle:abs_y <- $r4
	@DEBUG_VALUE: lv_draw_mask_angle:rel_y <- $r3
	@DEBUG_VALUE: lv_draw_mask_angle:p <- [DW_OP_plus_uconst 40] [$sp+0]
	@DEBUG_VALUE: res1 <- 1
	@DEBUG_VALUE: res2 <- 1
	.loc	5 983 12 is_stmt 1              @ ../GUILib/src/draw/lv_draw_mask.c:983:12
	cbz	r5, .LBB13_20
.Ltmp476:
.LBB13_17:
	@DEBUG_VALUE: lv_draw_mask_angle:mask_buf <- $r8
	@DEBUG_VALUE: lv_draw_mask_angle:abs_x <- $r6
	@DEBUG_VALUE: lv_draw_mask_angle:abs_y <- $r4
	@DEBUG_VALUE: lv_draw_mask_angle:rel_y <- $r3
	@DEBUG_VALUE: lv_draw_mask_angle:p <- [DW_OP_plus_uconst 40] [$sp+0]
	.loc	5 892 15                        @ ../GUILib/src/draw/lv_draw_mask.c:892:15
	sxth	r0, r5
	.loc	5 892 27 is_stmt 0              @ ../GUILib/src/draw/lv_draw_mask.c:892:27
	cmp	r0, #180
	mov.w	r0, #0
	mov.w	r1, #0
	it	lt
	movlt	r0, #1
	cmp	r2, r4
	it	gt
	movgt	r1, #1
.Ltmp477:
	.loc	5 991 43 is_stmt 1              @ ../GUILib/src/draw/lv_draw_mask.c:991:43
	cmp	r1, r0
	beq	.LBB13_19
.Ltmp478:
@ %bb.18:
	@DEBUG_VALUE: lv_draw_mask_angle:mask_buf <- $r8
	@DEBUG_VALUE: lv_draw_mask_angle:abs_x <- $r6
	@DEBUG_VALUE: lv_draw_mask_angle:abs_y <- $r4
	@DEBUG_VALUE: lv_draw_mask_angle:rel_y <- $r3
	@DEBUG_VALUE: lv_draw_mask_angle:p <- [DW_OP_plus_uconst 40] [$sp+0]
	.loc	5 996 71                        @ ../GUILib/src/draw/lv_draw_mask.c:996:71
	add.w	r5, r7, #16
	.loc	5 996 20 is_stmt 0              @ ../GUILib/src/draw/lv_draw_mask.c:996:20
	mov	r0, r8
	mov	r1, r6
	mov	r2, r4
	mov	r3, r9
.Ltmp479:
	str	r5, [sp]
	bl	lv_draw_mask_line
.Ltmp480:
	mov	r5, r0
.Ltmp481:
	@DEBUG_VALUE: res1 <- undef
	.loc	5 0 20                          @ ../GUILib/src/draw/lv_draw_mask.c:0:20
	b	.LBB13_21
.Ltmp482:
.LBB13_19:
	@DEBUG_VALUE: lv_draw_mask_angle:mask_buf <- $r8
	@DEBUG_VALUE: lv_draw_mask_angle:abs_x <- $r6
	@DEBUG_VALUE: lv_draw_mask_angle:abs_y <- $r4
	@DEBUG_VALUE: lv_draw_mask_angle:rel_y <- $r3
	@DEBUG_VALUE: lv_draw_mask_angle:p <- [DW_OP_plus_uconst 40] [$sp+0]
	movs	r5, #3
	b	.LBB13_21
.Ltmp483:
.LBB13_20:
	@DEBUG_VALUE: lv_draw_mask_angle:mask_buf <- $r8
	@DEBUG_VALUE: lv_draw_mask_angle:abs_x <- $r6
	@DEBUG_VALUE: lv_draw_mask_angle:abs_y <- $r4
	@DEBUG_VALUE: lv_draw_mask_angle:rel_y <- $r3
	@DEBUG_VALUE: lv_draw_mask_angle:p <- [DW_OP_plus_uconst 40] [$sp+0]
	@DEBUG_VALUE: res2 <- 1
	@DEBUG_VALUE: res1 <- 1
	movs	r5, #1
.Ltmp484:
	.loc	5 988 16 is_stmt 1              @ ../GUILib/src/draw/lv_draw_mask.c:988:16
	cmp	r2, r4
	it	gt
	movgt	r5, #3
.Ltmp485:
.LBB13_21:
	@DEBUG_VALUE: lv_draw_mask_angle:mask_buf <- $r8
	@DEBUG_VALUE: lv_draw_mask_angle:abs_x <- $r6
	@DEBUG_VALUE: lv_draw_mask_angle:abs_y <- $r4
	@DEBUG_VALUE: lv_draw_mask_angle:p <- [DW_OP_plus_uconst 40] [$sp+0]
	@DEBUG_VALUE: res1 <- undef
	.loc	5 999 19                        @ ../GUILib/src/draw/lv_draw_mask.c:999:19
	ldrh	r0, [r7, #14]
.Ltmp486:
	.loc	5 999 12 is_stmt 0              @ ../GUILib/src/draw/lv_draw_mask.c:999:12
	cbz	r0, .LBB13_24
.Ltmp487:
@ %bb.22:
	@DEBUG_VALUE: lv_draw_mask_angle:mask_buf <- $r8
	@DEBUG_VALUE: lv_draw_mask_angle:abs_x <- $r6
	@DEBUG_VALUE: lv_draw_mask_angle:abs_y <- $r4
	@DEBUG_VALUE: lv_draw_mask_angle:p <- [DW_OP_plus_uconst 40] [$sp+0]
	cmp	r0, #180
	bne	.LBB13_25
.Ltmp488:
@ %bb.23:
	@DEBUG_VALUE: lv_draw_mask_angle:mask_buf <- $r8
	@DEBUG_VALUE: lv_draw_mask_angle:abs_x <- $r6
	@DEBUG_VALUE: lv_draw_mask_angle:abs_y <- $r4
	@DEBUG_VALUE: lv_draw_mask_angle:p <- [DW_OP_plus_uconst 40] [$sp+0]
	.loc	5 1000 40 is_stmt 1             @ ../GUILib/src/draw/lv_draw_mask.c:1000:40
	ldrsh.w	r1, [r7, #10]
	movs	r0, #1
.Ltmp489:
	.loc	5 1000 16 is_stmt 0             @ ../GUILib/src/draw/lv_draw_mask.c:1000:16
	cmp	r1, r4
	it	gt
	movgt	r0, #3
	b	.LBB13_31
.Ltmp490:
.LBB13_24:
	@DEBUG_VALUE: lv_draw_mask_angle:mask_buf <- $r8
	@DEBUG_VALUE: lv_draw_mask_angle:abs_x <- $r6
	@DEBUG_VALUE: lv_draw_mask_angle:abs_y <- $r4
	@DEBUG_VALUE: lv_draw_mask_angle:p <- [DW_OP_plus_uconst 40] [$sp+0]
	.loc	5 1004 40 is_stmt 1             @ ../GUILib/src/draw/lv_draw_mask.c:1004:40
	ldrsh.w	r1, [r7, #10]
	movs	r0, #3
.Ltmp491:
	.loc	5 1004 16 is_stmt 0             @ ../GUILib/src/draw/lv_draw_mask.c:1004:16
	cmp	r1, r4
	it	gt
	movgt	r0, #1
	b	.LBB13_31
.Ltmp492:
.LBB13_25:
	@DEBUG_VALUE: lv_draw_mask_angle:mask_buf <- $r8
	@DEBUG_VALUE: lv_draw_mask_angle:abs_x <- $r6
	@DEBUG_VALUE: lv_draw_mask_angle:abs_y <- $r4
	@DEBUG_VALUE: lv_draw_mask_angle:p <- [DW_OP_plus_uconst 40] [$sp+0]
	.loc	5 999 19 is_stmt 1              @ ../GUILib/src/draw/lv_draw_mask.c:999:19
	sxth	r1, r0
.Ltmp493:
	.loc	5 1007 41                       @ ../GUILib/src/draw/lv_draw_mask.c:1007:41
	cmp	r1, #179
	bgt	.LBB13_27
.Ltmp494:
@ %bb.26:
	@DEBUG_VALUE: lv_draw_mask_angle:mask_buf <- $r8
	@DEBUG_VALUE: lv_draw_mask_angle:abs_x <- $r6
	@DEBUG_VALUE: lv_draw_mask_angle:abs_y <- $r4
	@DEBUG_VALUE: lv_draw_mask_angle:p <- [DW_OP_plus_uconst 40] [$sp+0]
	.loc	5 1007 68 is_stmt 0             @ ../GUILib/src/draw/lv_draw_mask.c:1007:68
	ldrsh.w	r0, [r7, #10]
	.loc	5 1007 71                       @ ../GUILib/src/draw/lv_draw_mask.c:1007:71
	cmp	r0, r4
	ble	.LBB13_29
	b	.LBB13_30
.Ltmp495:
.LBB13_27:
	@DEBUG_VALUE: lv_draw_mask_angle:mask_buf <- $r8
	@DEBUG_VALUE: lv_draw_mask_angle:abs_x <- $r6
	@DEBUG_VALUE: lv_draw_mask_angle:abs_y <- $r4
	@DEBUG_VALUE: lv_draw_mask_angle:p <- [DW_OP_plus_uconst 40] [$sp+0]
	.loc	5 1008 41 is_stmt 1             @ ../GUILib/src/draw/lv_draw_mask.c:1008:41
	cmp	r0, #180
	beq	.LBB13_29
.Ltmp496:
@ %bb.28:
	@DEBUG_VALUE: lv_draw_mask_angle:mask_buf <- $r8
	@DEBUG_VALUE: lv_draw_mask_angle:abs_x <- $r6
	@DEBUG_VALUE: lv_draw_mask_angle:abs_y <- $r4
	@DEBUG_VALUE: lv_draw_mask_angle:p <- [DW_OP_plus_uconst 40] [$sp+0]
	.loc	5 1008 69 is_stmt 0             @ ../GUILib/src/draw/lv_draw_mask.c:1008:69
	ldrsh.w	r0, [r7, #10]
.Ltmp497:
	.loc	5 1007 17 is_stmt 1             @ ../GUILib/src/draw/lv_draw_mask.c:1007:17
	cmp	r0, r4
	ble	.LBB13_30
.Ltmp498:
.LBB13_29:
	@DEBUG_VALUE: lv_draw_mask_angle:mask_buf <- $r8
	@DEBUG_VALUE: lv_draw_mask_angle:abs_x <- $r6
	@DEBUG_VALUE: lv_draw_mask_angle:abs_y <- $r4
	@DEBUG_VALUE: lv_draw_mask_angle:p <- [DW_OP_plus_uconst 40] [$sp+0]
	.loc	5 1012 71                       @ ../GUILib/src/draw/lv_draw_mask.c:1012:71
	adds	r7, #60
	.loc	5 1012 20 is_stmt 0             @ ../GUILib/src/draw/lv_draw_mask.c:1012:20
	mov	r0, r8
	mov	r1, r6
	mov	r2, r4
	mov	r3, r9
	str	r7, [sp]
	bl	lv_draw_mask_line
.Ltmp499:
	@DEBUG_VALUE: res2 <- undef
	.loc	5 0 20                          @ ../GUILib/src/draw/lv_draw_mask.c:0:20
	b	.LBB13_31
.Ltmp500:
.LBB13_30:
	@DEBUG_VALUE: lv_draw_mask_angle:mask_buf <- $r8
	@DEBUG_VALUE: lv_draw_mask_angle:abs_x <- $r6
	@DEBUG_VALUE: lv_draw_mask_angle:abs_y <- $r4
	@DEBUG_VALUE: lv_draw_mask_angle:p <- [DW_OP_plus_uconst 40] [$sp+0]
	movs	r0, #3
.Ltmp501:
.LBB13_31:
	@DEBUG_VALUE: lv_draw_mask_angle:mask_buf <- $r8
	@DEBUG_VALUE: lv_draw_mask_angle:abs_x <- $r6
	@DEBUG_VALUE: lv_draw_mask_angle:abs_y <- $r4
	@DEBUG_VALUE: lv_draw_mask_angle:p <- [DW_OP_plus_uconst 40] [$sp+0]
	@DEBUG_VALUE: res2 <- undef
	.loc	5 1015 44 is_stmt 1             @ ../GUILib/src/draw/lv_draw_mask.c:1015:44
	cmp	r5, #0
	mov.w	r7, #0
	beq.w	.LBB13_64
.Ltmp502:
@ %bb.32:
	@DEBUG_VALUE: lv_draw_mask_angle:mask_buf <- $r8
	@DEBUG_VALUE: lv_draw_mask_angle:abs_x <- $r6
	@DEBUG_VALUE: lv_draw_mask_angle:abs_y <- $r4
	@DEBUG_VALUE: lv_draw_mask_angle:p <- [DW_OP_plus_uconst 40] [$sp+0]
	cmp	r0, #0
	beq.w	.LBB13_64
.Ltmp503:
@ %bb.33:
	@DEBUG_VALUE: lv_draw_mask_angle:mask_buf <- $r8
	@DEBUG_VALUE: lv_draw_mask_angle:abs_x <- $r6
	@DEBUG_VALUE: lv_draw_mask_angle:abs_y <- $r4
	@DEBUG_VALUE: lv_draw_mask_angle:p <- [DW_OP_plus_uconst 40] [$sp+0]
	.loc	5 1016 50                       @ ../GUILib/src/draw/lv_draw_mask.c:1016:50
	cmp	r5, #3
	it	eq
	cmpeq	r0, #3
	beq	.LBB13_35
.Ltmp504:
@ %bb.34:
	@DEBUG_VALUE: lv_draw_mask_angle:mask_buf <- $r8
	@DEBUG_VALUE: lv_draw_mask_angle:abs_x <- $r6
	@DEBUG_VALUE: lv_draw_mask_angle:abs_y <- $r4
	@DEBUG_VALUE: lv_draw_mask_angle:p <- [DW_OP_plus_uconst 40] [$sp+0]
	.loc	5 1017 22                       @ ../GUILib/src/draw/lv_draw_mask.c:1017:22
	eor	r1, r5, #1
	eor	r0, r0, #1
	.loc	5 1017 53 is_stmt 0             @ ../GUILib/src/draw/lv_draw_mask.c:1017:53
	orrs	r0, r1
	mov.w	r0, #2
	it	eq
	moveq	r0, #1
	b	.LBB13_65
.Ltmp505:
.LBB13_35:
	@DEBUG_VALUE: lv_draw_mask_angle:mask_buf <- $r8
	@DEBUG_VALUE: lv_draw_mask_angle:abs_x <- $r6
	@DEBUG_VALUE: lv_draw_mask_angle:abs_y <- $r4
	@DEBUG_VALUE: lv_draw_mask_angle:p <- [DW_OP_plus_uconst 40] [$sp+0]
	.loc	5 0 53                          @ ../GUILib/src/draw/lv_draw_mask.c:0:53
	movs	r7, #0
	b	.LBB13_64
.Ltmp506:
.LBB13_36:
	@DEBUG_VALUE: lv_draw_mask_angle:mask_buf <- $r8
	@DEBUG_VALUE: lv_draw_mask_angle:abs_x <- $r6
	@DEBUG_VALUE: lv_draw_mask_angle:abs_y <- $r4
	@DEBUG_VALUE: lv_draw_mask_angle:rel_y <- $r3
	@DEBUG_VALUE: lv_draw_mask_angle:p <- [DW_OP_plus_uconst 40] [$sp+0]
	.loc	5 943 56 is_stmt 1              @ ../GUILib/src/draw/lv_draw_mask.c:943:56
	ldr	r2, [r7, #84]
	.loc	5 944 65                        @ ../GUILib/src/draw/lv_draw_mask.c:944:65
	ldr	r5, [r7, #40]
	.loc	5 943 42                        @ ../GUILib/src/draw/lv_draw_mask.c:943:42
	mul	lr, r2, r3
.Ltmp507:
	@DEBUG_VALUE: end_angle_first <- undef
	.loc	5 944 44                        @ ../GUILib/src/draw/lv_draw_mask.c:944:44
	adds	r2, r3, #1
.Ltmp508:
	.loc	5 947 37                        @ ../GUILib/src/draw/lv_draw_mask.c:947:37
	cmp.w	r0, #270
.Ltmp509:
	.loc	5 944 49                        @ ../GUILib/src/draw/lv_draw_mask.c:944:49
	mul	r2, r5, r2
.Ltmp510:
	@DEBUG_VALUE: start_angle_last <- undef
	.loc	5 947 37                        @ ../GUILib/src/draw/lv_draw_mask.c:947:37
	ble	.LBB13_40
.Ltmp511:
@ %bb.37:
	@DEBUG_VALUE: lv_draw_mask_angle:mask_buf <- $r8
	@DEBUG_VALUE: lv_draw_mask_angle:abs_x <- $r6
	@DEBUG_VALUE: lv_draw_mask_angle:abs_y <- $r4
	@DEBUG_VALUE: lv_draw_mask_angle:rel_y <- $r3
	@DEBUG_VALUE: lv_draw_mask_angle:p <- [DW_OP_plus_uconst 40] [$sp+0]
	.loc	5 947 66 is_stmt 0              @ ../GUILib/src/draw/lv_draw_mask.c:947:66
	cmp.w	r0, #360
	bge	.LBB13_40
.Ltmp512:
@ %bb.38:
	@DEBUG_VALUE: lv_draw_mask_angle:mask_buf <- $r8
	@DEBUG_VALUE: lv_draw_mask_angle:abs_x <- $r6
	@DEBUG_VALUE: lv_draw_mask_angle:abs_y <- $r4
	@DEBUG_VALUE: lv_draw_mask_angle:rel_y <- $r3
	@DEBUG_VALUE: lv_draw_mask_angle:p <- [DW_OP_plus_uconst 40] [$sp+0]
	cmp	r2, #0
	bpl	.LBB13_40
.Ltmp513:
@ %bb.39:
	@DEBUG_VALUE: lv_draw_mask_angle:mask_buf <- $r8
	@DEBUG_VALUE: lv_draw_mask_angle:abs_x <- $r6
	@DEBUG_VALUE: lv_draw_mask_angle:abs_y <- $r4
	@DEBUG_VALUE: lv_draw_mask_angle:rel_y <- $r3
	@DEBUG_VALUE: lv_draw_mask_angle:p <- [DW_OP_plus_uconst 40] [$sp+0]
	.loc	5 0 66                          @ ../GUILib/src/draw/lv_draw_mask.c:0:66
	movs	r2, #0
	b	.LBB13_41
.Ltmp514:
.LBB13_40:
	@DEBUG_VALUE: lv_draw_mask_angle:mask_buf <- $r8
	@DEBUG_VALUE: lv_draw_mask_angle:abs_x <- $r6
	@DEBUG_VALUE: lv_draw_mask_angle:abs_y <- $r4
	@DEBUG_VALUE: lv_draw_mask_angle:rel_y <- $r3
	@DEBUG_VALUE: lv_draw_mask_angle:p <- [DW_OP_plus_uconst 40] [$sp+0]
	asrs	r3, r2, #10
.Ltmp515:
	@DEBUG_VALUE: start_angle_last <- $r3
	.loc	5 949 69 is_stmt 1              @ ../GUILib/src/draw/lv_draw_mask.c:949:69
	cmp.w	r2, #1024
	mov	r2, r3
	it	ge
	movge	r2, #0
	cmp.w	r0, #270
	it	ge
	movge	r2, r3
.Ltmp516:
.LBB13_41:
	@DEBUG_VALUE: lv_draw_mask_angle:mask_buf <- $r8
	@DEBUG_VALUE: lv_draw_mask_angle:abs_x <- $r6
	@DEBUG_VALUE: lv_draw_mask_angle:abs_y <- $r4
	@DEBUG_VALUE: lv_draw_mask_angle:p <- [DW_OP_plus_uconst 40] [$sp+0]
	.loc	5 0 0 is_stmt 0                 @ ../GUILib/src/draw/lv_draw_mask.c:0:0
	add.w	r10, r7, #16
.Ltmp517:
	.loc	5 951 35 is_stmt 1              @ ../GUILib/src/draw/lv_draw_mask.c:951:35
	cmp.w	r1, #270
.Ltmp518:
	.loc	5 0 0 is_stmt 0                 @ ../GUILib/src/draw/lv_draw_mask.c:0:0
	asr.w	r0, lr, #10
.Ltmp519:
	@DEBUG_VALUE: start_angle_last <- $r2
	@DEBUG_VALUE: end_angle_first <- $r0
	.loc	5 951 35                        @ ../GUILib/src/draw/lv_draw_mask.c:951:35
	ble	.LBB13_45
.Ltmp520:
@ %bb.42:
	@DEBUG_VALUE: lv_draw_mask_angle:mask_buf <- $r8
	@DEBUG_VALUE: lv_draw_mask_angle:abs_x <- $r6
	@DEBUG_VALUE: lv_draw_mask_angle:abs_y <- $r4
	@DEBUG_VALUE: start_angle_last <- $r2
	@DEBUG_VALUE: end_angle_first <- $r0
	@DEBUG_VALUE: lv_draw_mask_angle:p <- [DW_OP_plus_uconst 40] [$sp+0]
	.loc	5 951 62                        @ ../GUILib/src/draw/lv_draw_mask.c:951:62
	cmp.w	r1, #360
	bge	.LBB13_45
.Ltmp521:
@ %bb.43:
	@DEBUG_VALUE: lv_draw_mask_angle:mask_buf <- $r8
	@DEBUG_VALUE: lv_draw_mask_angle:abs_x <- $r6
	@DEBUG_VALUE: lv_draw_mask_angle:abs_y <- $r4
	@DEBUG_VALUE: start_angle_last <- $r2
	@DEBUG_VALUE: end_angle_first <- $r0
	@DEBUG_VALUE: lv_draw_mask_angle:p <- [DW_OP_plus_uconst 40] [$sp+0]
	cmp	r2, #0
	bpl	.LBB13_45
.Ltmp522:
@ %bb.44:
	@DEBUG_VALUE: lv_draw_mask_angle:mask_buf <- $r8
	@DEBUG_VALUE: lv_draw_mask_angle:abs_x <- $r6
	@DEBUG_VALUE: lv_draw_mask_angle:abs_y <- $r4
	@DEBUG_VALUE: start_angle_last <- $r2
	@DEBUG_VALUE: end_angle_first <- $r0
	@DEBUG_VALUE: lv_draw_mask_angle:p <- [DW_OP_plus_uconst 40] [$sp+0]
	.loc	5 0 62                          @ ../GUILib/src/draw/lv_draw_mask.c:0:62
	movs	r3, #0
	b	.LBB13_46
.Ltmp523:
.LBB13_45:
	@DEBUG_VALUE: lv_draw_mask_angle:mask_buf <- $r8
	@DEBUG_VALUE: lv_draw_mask_angle:abs_x <- $r6
	@DEBUG_VALUE: lv_draw_mask_angle:abs_y <- $r4
	@DEBUG_VALUE: start_angle_last <- $r2
	@DEBUG_VALUE: end_angle_first <- $r0
	@DEBUG_VALUE: lv_draw_mask_angle:p <- [DW_OP_plus_uconst 40] [$sp+0]
	.loc	5 953 66 is_stmt 1              @ ../GUILib/src/draw/lv_draw_mask.c:953:66
	mov	r3, r2
	cmp	r2, #0
	it	gt
	movgt	r3, #0
	cmp.w	r1, #270
	it	ge
	movge	r3, r2
.Ltmp524:
.LBB13_46:
	@DEBUG_VALUE: lv_draw_mask_angle:mask_buf <- $r8
	@DEBUG_VALUE: lv_draw_mask_angle:abs_x <- $r6
	@DEBUG_VALUE: lv_draw_mask_angle:abs_y <- $r4
	@DEBUG_VALUE: start_angle_last <- $r2
	@DEBUG_VALUE: end_angle_first <- $r0
	@DEBUG_VALUE: lv_draw_mask_angle:p <- [DW_OP_plus_uconst 40] [$sp+0]
	@DEBUG_VALUE: start_angle_last <- $r3
	.loc	5 955 41                        @ ../GUILib/src/draw/lv_draw_mask.c:955:41
	subs	r0, r0, r3
.Ltmp525:
	@DEBUG_VALUE: res2 <- 1
	@DEBUG_VALUE: res1 <- 1
	@DEBUG_VALUE: dist <- undef
	.loc	5 960 40                        @ ../GUILib/src/draw/lv_draw_mask.c:960:40
	add.w	r1, r3, r12
	.loc	5 960 47 is_stmt 0              @ ../GUILib/src/draw/lv_draw_mask.c:960:47
	add.w	r5, r1, r0, asr #1
.Ltmp526:
	@DEBUG_VALUE: tmp <- $r5
	.loc	5 961 12 is_stmt 1              @ ../GUILib/src/draw/lv_draw_mask.c:961:12
	cmp	r5, r9
	it	gt
	movgt	r5, r9
.Ltmp527:
	@DEBUG_VALUE: tmp <- $r5
	.loc	5 962 12                        @ ../GUILib/src/draw/lv_draw_mask.c:962:12
	cmp	r5, #1
	blt	.LBB13_59
.Ltmp528:
@ %bb.47:
	@DEBUG_VALUE: lv_draw_mask_angle:mask_buf <- $r8
	@DEBUG_VALUE: lv_draw_mask_angle:abs_x <- $r6
	@DEBUG_VALUE: tmp <- $r5
	@DEBUG_VALUE: lv_draw_mask_angle:abs_y <- $r4
	@DEBUG_VALUE: start_angle_last <- $r3
	@DEBUG_VALUE: lv_draw_mask_angle:p <- [DW_OP_plus_uconst 40] [$sp+0]
	@DEBUG_VALUE: res1 <- 1
	@DEBUG_VALUE: res2 <- 1
	.loc	5 0 0 is_stmt 0                 @ ../GUILib/src/draw/lv_draw_mask.c:0:0
	adds	r7, #60
	b	.LBB13_57
.Ltmp529:
.LBB13_48:
	@DEBUG_VALUE: lv_draw_mask_angle:mask_buf <- $r8
	@DEBUG_VALUE: lv_draw_mask_angle:abs_x <- $r6
	@DEBUG_VALUE: lv_draw_mask_angle:abs_y <- $r4
	@DEBUG_VALUE: start_angle_last <- $r2
	@DEBUG_VALUE: lv_draw_mask_angle:p <- [DW_OP_plus_uconst 40] [$sp+0]
	.loc	5 907 41 is_stmt 1              @ ../GUILib/src/draw/lv_draw_mask.c:907:41
	cmp	r0, #91
	blt	.LBB13_50
.Ltmp530:
@ %bb.49:
	@DEBUG_VALUE: lv_draw_mask_angle:mask_buf <- $r8
	@DEBUG_VALUE: lv_draw_mask_angle:abs_x <- $r6
	@DEBUG_VALUE: lv_draw_mask_angle:abs_y <- $r4
	@DEBUG_VALUE: start_angle_last <- $r2
	@DEBUG_VALUE: lv_draw_mask_angle:p <- [DW_OP_plus_uconst 40] [$sp+0]
	.loc	5 907 69 is_stmt 0              @ ../GUILib/src/draw/lv_draw_mask.c:907:69
	cmp.w	r3, #1024
	it	ge
	movge	r2, #0
.Ltmp531:
.LBB13_50:
	@DEBUG_VALUE: lv_draw_mask_angle:mask_buf <- $r8
	@DEBUG_VALUE: lv_draw_mask_angle:abs_x <- $r6
	@DEBUG_VALUE: lv_draw_mask_angle:abs_y <- $r4
	@DEBUG_VALUE: lv_draw_mask_angle:p <- [DW_OP_plus_uconst 40] [$sp+0]
	.loc	5 0 0                           @ ../GUILib/src/draw/lv_draw_mask.c:0:0
	add.w	r10, r7, #60
.Ltmp532:
	.loc	5 910 38 is_stmt 1              @ ../GUILib/src/draw/lv_draw_mask.c:910:38
	cmp	r1, #1
.Ltmp533:
	.loc	5 0 0 is_stmt 0                 @ ../GUILib/src/draw/lv_draw_mask.c:0:0
	asr.w	r0, lr, #10
.Ltmp534:
	@DEBUG_VALUE: start_angle_last <- $r2
	@DEBUG_VALUE: end_angle_first <- $r0
	.loc	5 910 38                        @ ../GUILib/src/draw/lv_draw_mask.c:910:38
	blt	.LBB13_55
.Ltmp535:
@ %bb.51:
	@DEBUG_VALUE: lv_draw_mask_angle:mask_buf <- $r8
	@DEBUG_VALUE: lv_draw_mask_angle:abs_x <- $r6
	@DEBUG_VALUE: lv_draw_mask_angle:abs_y <- $r4
	@DEBUG_VALUE: start_angle_last <- $r2
	@DEBUG_VALUE: end_angle_first <- $r0
	@DEBUG_VALUE: lv_draw_mask_angle:p <- [DW_OP_plus_uconst 40] [$sp+0]
	.loc	5 910 66                        @ ../GUILib/src/draw/lv_draw_mask.c:910:66
	cmp	r1, #90
	bgt	.LBB13_54
.Ltmp536:
@ %bb.52:
	@DEBUG_VALUE: lv_draw_mask_angle:mask_buf <- $r8
	@DEBUG_VALUE: lv_draw_mask_angle:abs_x <- $r6
	@DEBUG_VALUE: lv_draw_mask_angle:abs_y <- $r4
	@DEBUG_VALUE: start_angle_last <- $r2
	@DEBUG_VALUE: end_angle_first <- $r0
	@DEBUG_VALUE: lv_draw_mask_angle:p <- [DW_OP_plus_uconst 40] [$sp+0]
	cmp	r2, #0
	bpl	.LBB13_54
.Ltmp537:
@ %bb.53:
	@DEBUG_VALUE: lv_draw_mask_angle:mask_buf <- $r8
	@DEBUG_VALUE: lv_draw_mask_angle:abs_x <- $r6
	@DEBUG_VALUE: lv_draw_mask_angle:abs_y <- $r4
	@DEBUG_VALUE: start_angle_last <- $r2
	@DEBUG_VALUE: end_angle_first <- $r0
	@DEBUG_VALUE: lv_draw_mask_angle:p <- [DW_OP_plus_uconst 40] [$sp+0]
	.loc	5 0 66                          @ ../GUILib/src/draw/lv_draw_mask.c:0:66
	movs	r2, #0
.Ltmp538:
	b	.LBB13_55
.Ltmp539:
.LBB13_54:
	@DEBUG_VALUE: lv_draw_mask_angle:mask_buf <- $r8
	@DEBUG_VALUE: lv_draw_mask_angle:abs_x <- $r6
	@DEBUG_VALUE: lv_draw_mask_angle:abs_y <- $r4
	@DEBUG_VALUE: start_angle_last <- $r2
	@DEBUG_VALUE: end_angle_first <- $r0
	@DEBUG_VALUE: lv_draw_mask_angle:p <- [DW_OP_plus_uconst 40] [$sp+0]
	.loc	5 911 39 is_stmt 1              @ ../GUILib/src/draw/lv_draw_mask.c:911:39
	cmp	r1, #91
	.loc	5 911 66 is_stmt 0              @ ../GUILib/src/draw/lv_draw_mask.c:911:66
	it	ge
	andge.w	r2, r2, r2, asr #31
.Ltmp540:
.LBB13_55:
	@DEBUG_VALUE: lv_draw_mask_angle:mask_buf <- $r8
	@DEBUG_VALUE: lv_draw_mask_angle:abs_x <- $r6
	@DEBUG_VALUE: lv_draw_mask_angle:abs_y <- $r4
	@DEBUG_VALUE: end_angle_first <- $r0
	@DEBUG_VALUE: lv_draw_mask_angle:p <- [DW_OP_plus_uconst 40] [$sp+0]
	@DEBUG_VALUE: start_angle_last <- $r2
	.loc	5 913 41 is_stmt 1              @ ../GUILib/src/draw/lv_draw_mask.c:913:41
	subs	r0, r0, r2
.Ltmp541:
	@DEBUG_VALUE: res2 <- 1
	@DEBUG_VALUE: res1 <- 1
	@DEBUG_VALUE: dist <- undef
	.loc	5 918 40                        @ ../GUILib/src/draw/lv_draw_mask.c:918:40
	add.w	r1, r2, r12
	.loc	5 918 47 is_stmt 0              @ ../GUILib/src/draw/lv_draw_mask.c:918:47
	add.w	r5, r1, r0, asr #1
.Ltmp542:
	@DEBUG_VALUE: tmp <- $r5
	.loc	5 919 12 is_stmt 1              @ ../GUILib/src/draw/lv_draw_mask.c:919:12
	cmp	r5, r9
	it	gt
	movgt	r5, r9
.Ltmp543:
	@DEBUG_VALUE: tmp <- $r5
	.loc	5 920 12                        @ ../GUILib/src/draw/lv_draw_mask.c:920:12
	cmp	r5, #1
	blt	.LBB13_59
.Ltmp544:
@ %bb.56:
	@DEBUG_VALUE: lv_draw_mask_angle:mask_buf <- $r8
	@DEBUG_VALUE: lv_draw_mask_angle:abs_x <- $r6
	@DEBUG_VALUE: tmp <- $r5
	@DEBUG_VALUE: lv_draw_mask_angle:abs_y <- $r4
	@DEBUG_VALUE: start_angle_last <- $r2
	@DEBUG_VALUE: lv_draw_mask_angle:p <- [DW_OP_plus_uconst 40] [$sp+0]
	@DEBUG_VALUE: res1 <- 1
	@DEBUG_VALUE: res2 <- 1
	.loc	5 0 0 is_stmt 0                 @ ../GUILib/src/draw/lv_draw_mask.c:0:0
	adds	r7, #16
.Ltmp545:
.LBB13_57:
	@DEBUG_VALUE: lv_draw_mask_angle:mask_buf <- $r8
	@DEBUG_VALUE: lv_draw_mask_angle:abs_x <- $r6
	@DEBUG_VALUE: lv_draw_mask_angle:abs_y <- $r4
	@DEBUG_VALUE: lv_draw_mask_angle:p <- [DW_OP_plus_uconst 40] [$sp+0]
	sxth	r3, r5
	mov	r0, r8
	mov	r1, r6
	mov	r2, r4
	str	r7, [sp]
	bl	lv_draw_mask_line
.Ltmp546:
	@DEBUG_VALUE: res1 <- $r0
	cbz	r0, .LBB13_60
.Ltmp547:
@ %bb.58:
	@DEBUG_VALUE: lv_draw_mask_angle:mask_buf <- $r8
	@DEBUG_VALUE: lv_draw_mask_angle:abs_x <- $r6
	@DEBUG_VALUE: lv_draw_mask_angle:abs_y <- $r4
	@DEBUG_VALUE: res1 <- $r0
	@DEBUG_VALUE: lv_draw_mask_angle:p <- [DW_OP_plus_uconst 40] [$sp+0]
	mov	r7, r0
	@DEBUG_VALUE: res1 <- $r7
	@DEBUG_VALUE: res1 <- $r7
	b	.LBB13_61
.Ltmp548:
.LBB13_59:
	@DEBUG_VALUE: lv_draw_mask_angle:mask_buf <- $r8
	@DEBUG_VALUE: lv_draw_mask_angle:abs_x <- $r6
	@DEBUG_VALUE: lv_draw_mask_angle:abs_y <- $r4
	@DEBUG_VALUE: lv_draw_mask_angle:p <- [DW_OP_plus_uconst 40] [$sp+0]
	movs	r7, #1
	movs	r5, #0
	b	.LBB13_61
.Ltmp549:
.LBB13_60:
	@DEBUG_VALUE: lv_draw_mask_angle:mask_buf <- $r8
	@DEBUG_VALUE: lv_draw_mask_angle:abs_x <- $r6
	@DEBUG_VALUE: lv_draw_mask_angle:abs_y <- $r4
	@DEBUG_VALUE: res1 <- $r0
	@DEBUG_VALUE: lv_draw_mask_angle:p <- [DW_OP_plus_uconst 40] [$sp+0]
	mov	r0, r8
	mov	r1, r5
	bl	lv_memset_00
.Ltmp550:
	movs	r7, #0
.Ltmp551:
.LBB13_61:
	@DEBUG_VALUE: lv_draw_mask_angle:mask_buf <- $r8
	@DEBUG_VALUE: lv_draw_mask_angle:abs_x <- $r6
	@DEBUG_VALUE: lv_draw_mask_angle:abs_y <- $r4
	@DEBUG_VALUE: lv_draw_mask_angle:p <- [DW_OP_plus_uconst 40] [$sp+0]
	@DEBUG_VALUE: res1 <- $r7
	@DEBUG_VALUE: tmp <- $r5
	add	r8, r5
.Ltmp552:
	adds	r0, r5, r6
	sub.w	r5, r9, r5
	sxth	r1, r0
	sxth	r3, r5
	mov	r0, r8
	mov	r2, r4
	str.w	r10, [sp]
	bl	lv_draw_mask_line
.Ltmp553:
	mov	r4, r0
.Ltmp554:
	@DEBUG_VALUE: res2 <- $r4
	cbnz	r0, .LBB13_63
.Ltmp555:
@ %bb.62:
	@DEBUG_VALUE: res1 <- $r7
	@DEBUG_VALUE: lv_draw_mask_angle:abs_x <- $r6
	@DEBUG_VALUE: res2 <- $r4
	@DEBUG_VALUE: lv_draw_mask_angle:p <- [DW_OP_plus_uconst 40] [$sp+0]
	mov	r0, r8
	mov	r1, r5
	bl	lv_memset_00
.Ltmp556:
.LBB13_63:
	@DEBUG_VALUE: res1 <- $r7
	@DEBUG_VALUE: lv_draw_mask_angle:abs_x <- $r6
	@DEBUG_VALUE: res2 <- $r4
	@DEBUG_VALUE: lv_draw_mask_angle:p <- [DW_OP_plus_uconst 40] [$sp+0]
	cmp	r7, r4
	it	ne
	movne	r7, #2
.Ltmp557:
.LBB13_64:
	@DEBUG_VALUE: lv_draw_mask_angle:abs_x <- $r6
	@DEBUG_VALUE: lv_draw_mask_angle:p <- [DW_OP_plus_uconst 40] [$sp+0]
	.loc	5 1020 1 is_stmt 1              @ ../GUILib/src/draw/lv_draw_mask.c:1020:1
	mov	r0, r7
.Ltmp558:
.LBB13_65:
	@DEBUG_VALUE: lv_draw_mask_angle:abs_x <- $r6
	@DEBUG_VALUE: lv_draw_mask_angle:p <- [DW_OP_plus_uconst 40] [$sp+0]
	.loc	5 0 0 is_stmt 0                 @ ../GUILib/src/draw/lv_draw_mask.c:0:0
	add	sp, #8
	pop.w	{r4, r5, r6, r7, r8, r9, r10, pc}
.Ltmp559:
.Lfunc_end13:
	.size	lv_draw_mask_angle, .Lfunc_end13-lv_draw_mask_angle
	.cfi_endproc
	.cantunwind
	.fnend
                                        @ -- End function
	.section	.text.lv_draw_mask_radius_init,"ax",%progbits
	.hidden	lv_draw_mask_radius_init        @ -- Begin function lv_draw_mask_radius_init
	.globl	lv_draw_mask_radius_init
	.p2align	1
	.type	lv_draw_mask_radius_init,%function
	.code	16                              @ @lv_draw_mask_radius_init
	.thumb_func
lv_draw_mask_radius_init:
.Lfunc_begin14:
	.loc	5 471 0 is_stmt 1               @ ../GUILib/src/draw/lv_draw_mask.c:471:0
	.fnstart
	.cfi_startproc
@ %bb.0:
	@DEBUG_VALUE: lv_draw_mask_radius_init:param <- $r0
	@DEBUG_VALUE: lv_draw_mask_radius_init:rect <- $r1
	@DEBUG_VALUE: lv_draw_mask_radius_init:rect <- $r1
	@DEBUG_VALUE: lv_draw_mask_radius_init:radius <- $r2
	@DEBUG_VALUE: lv_draw_mask_radius_init:radius <- $r2
	@DEBUG_VALUE: lv_draw_mask_radius_init:inv <- [DW_OP_LLVM_convert 1 7, DW_OP_LLVM_convert 8 7, DW_OP_stack_value] $r3
	@DEBUG_VALUE: lv_draw_mask_radius_init:inv <- [DW_OP_LLVM_convert 1 7, DW_OP_LLVM_convert 8 7, DW_OP_stack_value] $r3
	.save	{r4, r5, r6, r7, r8, r9, r10, r11, lr}
	push.w	{r4, r5, r6, r7, r8, r9, r10, r11, lr}
	.cfi_def_cfa_offset 36
	.cfi_offset lr, -4
	.cfi_offset r11, -8
	.cfi_offset r10, -12
	.cfi_offset r9, -16
	.cfi_offset r8, -20
	.cfi_offset r7, -24
	.cfi_offset r6, -28
	.cfi_offset r5, -32
	.cfi_offset r4, -36
	.pad	#60
	sub	sp, #60
	.cfi_def_cfa_offset 96
.Ltmp560:
	.loc	4 125 33 prologue_end           @ ../GUILib/src/draw/../misc/../core/../misc/lv_area.h:125:33
	ldrh	r7, [r1, #4]
	.loc	4 125 46 is_stmt 0              @ ../GUILib/src/draw/../misc/../core/../misc/lv_area.h:125:46
	ldrh	r4, [r1]
.Ltmp561:
	.loc	4 135 33 is_stmt 1              @ ../GUILib/src/draw/../misc/../core/../misc/lv_area.h:135:33
	ldrh	r6, [r1, #6]
	.loc	4 135 46 is_stmt 0              @ ../GUILib/src/draw/../misc/../core/../misc/lv_area.h:135:46
	ldrh	r1, [r1, #2]
.Ltmp562:
	@DEBUG_VALUE: lv_draw_mask_radius_init:rect <- [DW_OP_LLVM_entry_value 1] $r1
	.loc	4 0 46                          @ ../GUILib/src/draw/../misc/../core/../misc/lv_area.h:0:46
	mov	r8, r0
.Ltmp563:
	@DEBUG_VALUE: lv_draw_mask_radius_init:param <- $r8
	@DEBUG_VALUE: lv_area_get_width:area_p <- $r1
	@DEBUG_VALUE: lv_draw_mask_radius_init:param <- $r8
	.loc	4 125 49 is_stmt 1              @ ../GUILib/src/draw/../misc/../core/../misc/lv_area.h:125:49
	subs	r0, r7, r4
.Ltmp564:
	.loc	4 135 49                        @ ../GUILib/src/draw/../misc/../core/../misc/lv_area.h:135:49
	subs	r5, r6, r1
.Ltmp565:
	.loc	4 125 49                        @ ../GUILib/src/draw/../misc/../core/../misc/lv_area.h:125:49
	adds	r0, #1
.Ltmp566:
	@DEBUG_VALUE: lv_area_get_height:area_p <- undef
	@DEBUG_VALUE: lv_draw_mask_radius_init:w <- $r0
	.loc	4 135 49                        @ ../GUILib/src/draw/../misc/../core/../misc/lv_area.h:135:49
	adds	r5, #1
.Ltmp567:
	@DEBUG_VALUE: lv_draw_mask_radius_init:h <- $r5
	.loc	5 474 8                         @ ../GUILib/src/draw/lv_draw_mask.c:474:8
	bic.w	r10, r2, r2, asr #31
.Ltmp568:
	@DEBUG_VALUE: lv_draw_mask_radius_init:radius <- $r10
	.loc	5 475 26                        @ ../GUILib/src/draw/lv_draw_mask.c:475:26
	sxth	r0, r0
.Ltmp569:
	sxth	r2, r5
	cmp	r0, r2
	it	lt
	movlt	r2, r0
.Ltmp570:
	@DEBUG_VALUE: lv_draw_mask_radius_init:short_side <- $r2
	.loc	5 476 8                         @ ../GUILib/src/draw/lv_draw_mask.c:476:8
	uxth.w	r0, r10
.Ltmp571:
	.loc	5 476 8 is_stmt 0               @ ../GUILib/src/draw/lv_draw_mask.c:476:8
	cmp.w	r0, r2, asr #1
	it	gt
	asrgt.w	r10, r2, #1
.Ltmp572:
	@DEBUG_VALUE: lv_area_copy:src <- undef
	@DEBUG_VALUE: lv_area_copy:dest <- [DW_OP_plus_uconst 8, DW_OP_stack_value] $r8
	@DEBUG_VALUE: lv_draw_mask_radius_init:radius <- $r10
	.loc	5 480 22 is_stmt 1              @ ../GUILib/src/draw/lv_draw_mask.c:480:22
	ldrb.w	r0, [r8, #18]
	.loc	5 484 8                         @ ../GUILib/src/draw/lv_draw_mask.c:484:8
	cmp.w	r10, #0
	.loc	5 480 22                        @ ../GUILib/src/draw/lv_draw_mask.c:480:22
	and	r0, r0, #254
	add	r0, r3
	strb.w	r0, [r8, #18]
	.loc	5 481 19                        @ ../GUILib/src/draw/lv_draw_mask.c:481:19
	movw	r0, :lower16:lv_draw_mask_radius
	movt	r0, :upper16:lv_draw_mask_radius
	str.w	r0, [r8]
	mov.w	r0, #2
.Ltmp573:
	.loc	4 112 14                        @ ../GUILib/src/draw/../misc/../core/../misc/lv_area.h:112:14
	strh.w	r4, [r8, #8]
	.loc	4 113 14                        @ ../GUILib/src/draw/../misc/../core/../misc/lv_area.h:113:14
	strh.w	r1, [r8, #10]
	.loc	4 114 14                        @ ../GUILib/src/draw/../misc/../core/../misc/lv_area.h:114:14
	strh.w	r7, [r8, #12]
	.loc	4 115 14                        @ ../GUILib/src/draw/../misc/../core/../misc/lv_area.h:115:14
	strh.w	r6, [r8, #14]
.Ltmp574:
	.loc	5 479 23                        @ ../GUILib/src/draw/lv_draw_mask.c:479:23
	strh.w	r10, [r8, #16]
	.loc	5 482 21                        @ ../GUILib/src/draw/lv_draw_mask.c:482:21
	strb.w	r0, [r8, #4]
	.loc	5 484 8                         @ ../GUILib/src/draw/lv_draw_mask.c:484:8
	beq	.LBB14_12
.Ltmp575:
@ %bb.1:
	@DEBUG_VALUE: lv_draw_mask_radius_init:radius <- $r10
	@DEBUG_VALUE: lv_area_copy:dest <- [DW_OP_plus_uconst 8, DW_OP_stack_value] $r8
	@DEBUG_VALUE: lv_draw_mask_radius_init:param <- $r8
	@DEBUG_VALUE: lv_draw_mask_radius_init:h <- $r5
	@DEBUG_VALUE: lv_draw_mask_radius_init:inv <- [DW_OP_LLVM_convert 1 7, DW_OP_LLVM_convert 8 7, DW_OP_stack_value] $r3
	@DEBUG_VALUE: lv_draw_mask_radius_init:short_side <- $r2
	@DEBUG_VALUE: lv_area_get_width:area_p <- $r1
	@DEBUG_VALUE: lv_draw_mask_radius_init:rect <- [DW_OP_LLVM_entry_value 1] $r1
	.loc	5 0 8 is_stmt 0                 @ ../GUILib/src/draw/lv_draw_mask.c:0:8
	movw	r0, :lower16:_lv_circle_cache
	movs	r2, #0
.Ltmp576:
	movt	r0, :upper16:_lv_circle_cache
.Ltmp577:
	.p2align	2
.LBB14_2:                               @ =>This Inner Loop Header: Depth=1
	@DEBUG_VALUE: lv_draw_mask_radius_init:radius <- $r10
	@DEBUG_VALUE: lv_draw_mask_radius_init:param <- $r8
	@DEBUG_VALUE: lv_draw_mask_radius_init:h <- $r5
	@DEBUG_VALUE: lv_draw_mask_radius_init:rect <- [DW_OP_LLVM_entry_value 1] $r1
	@DEBUG_VALUE: lv_draw_mask_radius_init:i <- undef
	.loc	5 493 44 is_stmt 1              @ ../GUILib/src/draw/lv_draw_mask.c:493:44
	adds	r1, r0, r2
	ldrh	r3, [r1, #24]
	.loc	5 493 51 is_stmt 0              @ ../GUILib/src/draw/lv_draw_mask.c:493:51
	uxth.w	r7, r10
.Ltmp578:
	.loc	5 493 12                        @ ../GUILib/src/draw/lv_draw_mask.c:493:12
	cmp	r3, r7
	beq	.LBB14_13
.Ltmp579:
@ %bb.3:                                @   in Loop: Header=BB14_2 Depth=1
	@DEBUG_VALUE: lv_draw_mask_radius_init:radius <- $r10
	@DEBUG_VALUE: lv_draw_mask_radius_init:param <- $r8
	@DEBUG_VALUE: lv_draw_mask_radius_init:h <- $r5
	@DEBUG_VALUE: lv_draw_mask_radius_init:rect <- [DW_OP_LLVM_entry_value 1] $r1
	@DEBUG_VALUE: lv_draw_mask_radius_init:i <- [DW_OP_plus_uconst 1, DW_OP_stack_value] undef
	.loc	5 492 18 is_stmt 1              @ ../GUILib/src/draw/lv_draw_mask.c:492:18
	adds	r2, #28
.Ltmp580:
	.loc	5 492 5 is_stmt 0               @ ../GUILib/src/draw/lv_draw_mask.c:492:5
	cmp	r2, #112
	bne	.LBB14_2
.Ltmp581:
@ %bb.4:
	@DEBUG_VALUE: lv_draw_mask_radius_init:radius <- $r10
	@DEBUG_VALUE: lv_draw_mask_radius_init:param <- $r8
	@DEBUG_VALUE: lv_draw_mask_radius_init:h <- $r5
	@DEBUG_VALUE: lv_draw_mask_radius_init:rect <- [DW_OP_LLVM_entry_value 1] $r1
	.loc	5 0 5                           @ ../GUILib/src/draw/lv_draw_mask.c:0:5
	movs	r1, #0
	movs	r4, #0
.Ltmp582:
	.p2align	2
.LBB14_5:                               @ =>This Inner Loop Header: Depth=1
	@DEBUG_VALUE: lv_draw_mask_radius_init:radius <- $r10
	@DEBUG_VALUE: lv_draw_mask_radius_init:param <- $r8
	@DEBUG_VALUE: lv_draw_mask_radius_init:h <- $r5
	@DEBUG_VALUE: lv_draw_mask_radius_init:rect <- [DW_OP_LLVM_entry_value 1] $r1
	@DEBUG_VALUE: lv_draw_mask_radius_init:i <- undef
	@DEBUG_VALUE: lv_draw_mask_radius_init:entry <- $r4
	.loc	5 504 44 is_stmt 1              @ ../GUILib/src/draw/lv_draw_mask.c:504:44
	adds	r2, r0, r1
	ldr	r3, [r2, #20]
.Ltmp583:
	.loc	5 504 12 is_stmt 0              @ ../GUILib/src/draw/lv_draw_mask.c:504:12
	cbnz	r3, .LBB14_9
.Ltmp584:
@ %bb.6:                                @   in Loop: Header=BB14_5 Depth=1
	@DEBUG_VALUE: lv_draw_mask_radius_init:radius <- $r10
	@DEBUG_VALUE: lv_draw_mask_radius_init:param <- $r8
	@DEBUG_VALUE: lv_draw_mask_radius_init:h <- $r5
	@DEBUG_VALUE: lv_draw_mask_radius_init:entry <- $r4
	@DEBUG_VALUE: lv_draw_mask_radius_init:rect <- [DW_OP_LLVM_entry_value 1] $r1
	.loc	5 505 16 is_stmt 1              @ ../GUILib/src/draw/lv_draw_mask.c:505:16
	cbz	r4, .LBB14_8
.Ltmp585:
@ %bb.7:                                @   in Loop: Header=BB14_5 Depth=1
	@DEBUG_VALUE: lv_draw_mask_radius_init:radius <- $r10
	@DEBUG_VALUE: lv_draw_mask_radius_init:param <- $r8
	@DEBUG_VALUE: lv_draw_mask_radius_init:h <- $r5
	@DEBUG_VALUE: lv_draw_mask_radius_init:entry <- $r4
	@DEBUG_VALUE: lv_draw_mask_radius_init:rect <- [DW_OP_LLVM_entry_value 1] $r1
	.loc	5 506 53                        @ ../GUILib/src/draw/lv_draw_mask.c:506:53
	ldr	r3, [r2, #16]
	.loc	5 506 67 is_stmt 0              @ ../GUILib/src/draw/lv_draw_mask.c:506:67
	ldr	r6, [r4, #16]
.Ltmp586:
	.loc	5 506 21                        @ ../GUILib/src/draw/lv_draw_mask.c:506:21
	cmp	r3, r6
	it	lt
	movlt	r4, r2
.Ltmp587:
	.loc	5 0 21                          @ ../GUILib/src/draw/lv_draw_mask.c:0:21
	b	.LBB14_9
.Ltmp588:
.LBB14_8:                               @   in Loop: Header=BB14_5 Depth=1
	@DEBUG_VALUE: lv_draw_mask_radius_init:radius <- $r10
	@DEBUG_VALUE: lv_draw_mask_radius_init:param <- $r8
	@DEBUG_VALUE: lv_draw_mask_radius_init:h <- $r5
	@DEBUG_VALUE: lv_draw_mask_radius_init:entry <- $r4
	@DEBUG_VALUE: lv_draw_mask_radius_init:rect <- [DW_OP_LLVM_entry_value 1] $r1
	mov	r4, r2
.Ltmp589:
	.p2align	2
.LBB14_9:                               @   in Loop: Header=BB14_5 Depth=1
	@DEBUG_VALUE: lv_draw_mask_radius_init:radius <- $r10
	@DEBUG_VALUE: lv_draw_mask_radius_init:param <- $r8
	@DEBUG_VALUE: lv_draw_mask_radius_init:h <- $r5
	@DEBUG_VALUE: lv_draw_mask_radius_init:rect <- [DW_OP_LLVM_entry_value 1] $r1
	@DEBUG_VALUE: lv_draw_mask_radius_init:i <- [DW_OP_plus_uconst 1, DW_OP_stack_value] undef
	@DEBUG_VALUE: lv_draw_mask_radius_init:entry <- $r4
	.loc	5 503 18 is_stmt 1              @ ../GUILib/src/draw/lv_draw_mask.c:503:18
	adds	r1, #28
.Ltmp590:
	.loc	5 503 5 is_stmt 0               @ ../GUILib/src/draw/lv_draw_mask.c:503:5
	cmp	r1, #112
	bne	.LBB14_5
.Ltmp591:
@ %bb.10:
	@DEBUG_VALUE: lv_draw_mask_radius_init:radius <- $r10
	@DEBUG_VALUE: lv_draw_mask_radius_init:param <- $r8
	@DEBUG_VALUE: lv_draw_mask_radius_init:h <- $r5
	@DEBUG_VALUE: lv_draw_mask_radius_init:entry <- $r4
	@DEBUG_VALUE: lv_draw_mask_radius_init:rect <- [DW_OP_LLVM_entry_value 1] $r1
	.loc	5 510 8 is_stmt 1               @ ../GUILib/src/draw/lv_draw_mask.c:510:8
	cbz	r4, .LBB14_14
.Ltmp592:
@ %bb.11:
	@DEBUG_VALUE: lv_draw_mask_radius_init:radius <- $r10
	@DEBUG_VALUE: lv_draw_mask_radius_init:param <- $r8
	@DEBUG_VALUE: lv_draw_mask_radius_init:h <- $r5
	@DEBUG_VALUE: lv_draw_mask_radius_init:entry <- $r4
	@DEBUG_VALUE: lv_draw_mask_radius_init:rect <- [DW_OP_LLVM_entry_value 1] $r1
	.loc	5 517 24                        @ ../GUILib/src/draw/lv_draw_mask.c:517:24
	ldr	r0, [r4, #20]
	.loc	5 519 9                         @ ../GUILib/src/draw/lv_draw_mask.c:519:9
	sxth.w	r1, r10
	asr.w	r2, r10, #4
	.loc	5 517 24                        @ ../GUILib/src/draw/lv_draw_mask.c:517:24
	adds	r0, #1
	.loc	5 519 9                         @ ../GUILib/src/draw/lv_draw_mask.c:519:9
	cmp	r1, #16
	it	lt
	movlt	r2, #1
	cmp.w	r2, #1000
	it	ge
	movge.w	r2, #1000
	strd	r2, r0, [r4, #16]
	b	.LBB14_16
.Ltmp593:
.LBB14_12:
	@DEBUG_VALUE: lv_draw_mask_radius_init:radius <- $r10
	@DEBUG_VALUE: lv_draw_mask_radius_init:param <- $r8
	@DEBUG_VALUE: lv_draw_mask_radius_init:h <- $r5
	@DEBUG_VALUE: lv_draw_mask_radius_init:inv <- [DW_OP_LLVM_convert 1 7, DW_OP_LLVM_convert 8 7, DW_OP_stack_value] $r3
	@DEBUG_VALUE: lv_draw_mask_radius_init:short_side <- $r2
	@DEBUG_VALUE: lv_draw_mask_radius_init:rect <- [DW_OP_LLVM_entry_value 1] $r1
	.loc	5 0 9 is_stmt 0                 @ ../GUILib/src/draw/lv_draw_mask.c:0:9
	movs	r0, #0
.Ltmp594:
	.loc	5 485 23 is_stmt 1              @ ../GUILib/src/draw/lv_draw_mask.c:485:23
	str.w	r0, [r8, #20]
	b	.LBB14_59
.Ltmp595:
.LBB14_13:
	@DEBUG_VALUE: lv_draw_mask_radius_init:radius <- $r10
	@DEBUG_VALUE: lv_draw_mask_radius_init:param <- $r8
	@DEBUG_VALUE: lv_draw_mask_radius_init:h <- $r5
	@DEBUG_VALUE: lv_draw_mask_radius_init:rect <- [DW_OP_LLVM_entry_value 1] $r1
	.loc	5 495 13                        @ ../GUILib/src/draw/lv_draw_mask.c:495:13
	ldrd	r2, r0, [r1, #16]
	sxth.w	r3, r10
	asr.w	r7, r10, #4
	.loc	5 494 53                        @ ../GUILib/src/draw/lv_draw_mask.c:494:53
	adds	r0, #1
	.loc	5 495 13                        @ ../GUILib/src/draw/lv_draw_mask.c:495:13
	cmp	r3, #16
	it	lt
	movlt	r7, #1
	add	r2, r7
	cmp.w	r2, #1000
	it	ge
	movge.w	r2, #1000
	strd	r2, r0, [r1, #16]
	.loc	5 496 27                        @ ../GUILib/src/draw/lv_draw_mask.c:496:27
	str.w	r1, [r8, #20]
	b	.LBB14_59
.Ltmp596:
.LBB14_14:
	@DEBUG_VALUE: lv_draw_mask_radius_init:radius <- $r10
	@DEBUG_VALUE: lv_draw_mask_radius_init:param <- $r8
	@DEBUG_VALUE: lv_draw_mask_radius_init:h <- $r5
	@DEBUG_VALUE: lv_draw_mask_radius_init:entry <- $r4
	@DEBUG_VALUE: lv_draw_mask_radius_init:rect <- [DW_OP_LLVM_entry_value 1] $r1
	.loc	5 511 17                        @ ../GUILib/src/draw/lv_draw_mask.c:511:17
	movs	r0, #28
	bl	lv_mem_alloc
.Ltmp597:
	@DEBUG_VALUE: lv_draw_mask_radius_init:entry <- $r0
	.loc	5 512 9                         @ ../GUILib/src/draw/lv_draw_mask.c:512:9
	cbz	r0, .LBB14_22
.Ltmp598:
@ %bb.15:
	@DEBUG_VALUE: lv_draw_mask_radius_init:radius <- $r10
	@DEBUG_VALUE: lv_draw_mask_radius_init:param <- $r8
	@DEBUG_VALUE: lv_draw_mask_radius_init:h <- $r5
	@DEBUG_VALUE: lv_draw_mask_radius_init:entry <- $r0
	@DEBUG_VALUE: lv_draw_mask_radius_init:rect <- [DW_OP_LLVM_entry_value 1] $r1
	.loc	5 513 9                         @ ../GUILib/src/draw/lv_draw_mask.c:513:9
	movs	r1, #28
.Ltmp599:
	.loc	5 0 0 is_stmt 0                 @ ../GUILib/src/draw/lv_draw_mask.c:0:0
	mov	r4, r0
.Ltmp600:
	@DEBUG_VALUE: lv_draw_mask_radius_init:entry <- $r4
	@DEBUG_VALUE: lv_draw_mask_radius_init:entry <- $r4
	.loc	5 513 9                         @ ../GUILib/src/draw/lv_draw_mask.c:513:9
	bl	lv_memset_00
.Ltmp601:
	.loc	5 0 9                           @ ../GUILib/src/draw/lv_draw_mask.c:0:9
	mov.w	r0, #-1
	.loc	5 514 21 is_stmt 1              @ ../GUILib/src/draw/lv_draw_mask.c:514:21
	str	r0, [r4, #16]
.Ltmp602:
.LBB14_16:
	@DEBUG_VALUE: lv_draw_mask_radius_init:radius <- $r10
	@DEBUG_VALUE: lv_draw_mask_radius_init:param <- $r8
	@DEBUG_VALUE: lv_draw_mask_radius_init:h <- $r5
	@DEBUG_VALUE: lv_draw_mask_radius_init:entry <- $r4
	@DEBUG_VALUE: lv_draw_mask_radius_init:rect <- [DW_OP_LLVM_entry_value 1] $r1
	@DEBUG_VALUE: lv_draw_mask_radius_init:entry <- $r4
	.loc	5 522 19                        @ ../GUILib/src/draw/lv_draw_mask.c:522:19
	str.w	r4, [r8, #20]
.Ltmp603:
	@DEBUG_VALUE: circ_calc_aa4:radius <- $r10
	@DEBUG_VALUE: circ_calc_aa4:c <- $r4
	.loc	5 1268 11                       @ ../GUILib/src/draw/lv_draw_mask.c:1268:11
	ldr	r0, [r4]
.Ltmp604:
	.loc	5 1265 15                       @ ../GUILib/src/draw/lv_draw_mask.c:1265:15
	strh.w	r10, [r4, #24]
	.loc	5 1268 8                        @ ../GUILib/src/draw/lv_draw_mask.c:1268:8
	cbz	r0, .LBB14_18
.Ltmp605:
@ %bb.17:
	@DEBUG_VALUE: circ_calc_aa4:radius <- $r10
	@DEBUG_VALUE: lv_draw_mask_radius_init:radius <- $r10
	@DEBUG_VALUE: lv_draw_mask_radius_init:param <- $r8
	@DEBUG_VALUE: lv_draw_mask_radius_init:h <- $r5
	@DEBUG_VALUE: circ_calc_aa4:c <- $r4
	@DEBUG_VALUE: lv_draw_mask_radius_init:entry <- $r4
	@DEBUG_VALUE: lv_draw_mask_radius_init:rect <- [DW_OP_LLVM_entry_value 1] $r1
	.loc	5 1268 16 is_stmt 0             @ ../GUILib/src/draw/lv_draw_mask.c:1268:16
	bl	lv_mem_free
.Ltmp606:
.LBB14_18:
	@DEBUG_VALUE: circ_calc_aa4:radius <- $r10
	@DEBUG_VALUE: lv_draw_mask_radius_init:radius <- $r10
	@DEBUG_VALUE: lv_draw_mask_radius_init:param <- $r8
	@DEBUG_VALUE: lv_draw_mask_radius_init:h <- $r5
	@DEBUG_VALUE: circ_calc_aa4:c <- $r4
	@DEBUG_VALUE: lv_draw_mask_radius_init:entry <- $r4
	@DEBUG_VALUE: lv_draw_mask_radius_init:rect <- [DW_OP_LLVM_entry_value 1] $r1
	.loc	5 1270 34 is_stmt 1             @ ../GUILib/src/draw/lv_draw_mask.c:1270:34
	add.w	r0, r10, r10, lsl #1
	movs	r1, #6
	.loc	5 1270 38 is_stmt 0             @ ../GUILib/src/draw/lv_draw_mask.c:1270:38
	add.w	r0, r1, r0, lsl #1
	.loc	5 1270 14                       @ ../GUILib/src/draw/lv_draw_mask.c:1270:14
	bl	lv_mem_alloc
.Ltmp607:
	.loc	5 1270 12                       @ ../GUILib/src/draw/lv_draw_mask.c:1270:12
	str	r0, [r4]
.Ltmp608:
	.loc	5 1271 5 is_stmt 1              @ ../GUILib/src/draw/lv_draw_mask.c:1271:5
	cbz	r0, .LBB14_21
.Ltmp609:
@ %bb.19:
	@DEBUG_VALUE: circ_calc_aa4:radius <- $r10
	@DEBUG_VALUE: lv_draw_mask_radius_init:radius <- $r10
	@DEBUG_VALUE: lv_draw_mask_radius_init:param <- $r8
	@DEBUG_VALUE: lv_draw_mask_radius_init:h <- $r5
	@DEBUG_VALUE: circ_calc_aa4:c <- $r4
	@DEBUG_VALUE: lv_draw_mask_radius_init:entry <- $r4
	@DEBUG_VALUE: lv_draw_mask_radius_init:rect <- [DW_OP_LLVM_entry_value 1] $r1
	.loc	5 1273 45                       @ ../GUILib/src/draw/lv_draw_mask.c:1273:45
	add.w	r1, r0, r10, lsl #1
	.loc	5 1274 43                       @ ../GUILib/src/draw/lv_draw_mask.c:1274:43
	add.w	r2, r0, r10, lsl #2
	.loc	5 1273 58                       @ ../GUILib/src/draw/lv_draw_mask.c:1273:58
	adds	r1, #2
	.loc	5 1274 56                       @ ../GUILib/src/draw/lv_draw_mask.c:1274:56
	adds	r2, #4
	.loc	5 1277 8                        @ ../GUILib/src/draw/lv_draw_mask.c:1277:8
	cmp	r7, #1
	.loc	5 1272 16                       @ ../GUILib/src/draw/lv_draw_mask.c:1272:16
	strd	r0, r2, [r4, #4]
	.loc	5 1273 23                       @ ../GUILib/src/draw/lv_draw_mask.c:1273:23
	str	r1, [r4, #12]
	.loc	5 1277 8                        @ ../GUILib/src/draw/lv_draw_mask.c:1277:8
	bne	.LBB14_23
.Ltmp610:
@ %bb.20:
	@DEBUG_VALUE: circ_calc_aa4:radius <- $r10
	@DEBUG_VALUE: lv_draw_mask_radius_init:radius <- $r10
	@DEBUG_VALUE: lv_draw_mask_radius_init:param <- $r8
	@DEBUG_VALUE: lv_draw_mask_radius_init:h <- $r5
	@DEBUG_VALUE: circ_calc_aa4:c <- $r4
	@DEBUG_VALUE: lv_draw_mask_radius_init:entry <- $r4
	@DEBUG_VALUE: lv_draw_mask_radius_init:rect <- [DW_OP_LLVM_entry_value 1] $r1
	.loc	5 0 8 is_stmt 0                 @ ../GUILib/src/draw/lv_draw_mask.c:0:8
	movs	r1, #180
.Ltmp611:
	.loc	5 1278 23 is_stmt 1             @ ../GUILib/src/draw/lv_draw_mask.c:1278:23
	strb	r1, [r0]
	.loc	5 1281 12                       @ ../GUILib/src/draw/lv_draw_mask.c:1281:12
	ldrd	r0, r1, [r4, #8]
	mov.w	r2, #65536
	.loc	5 1279 30                       @ ../GUILib/src/draw/lv_draw_mask.c:1279:30
	str	r2, [r1]
	movs	r1, #0
	.loc	5 1281 28                       @ ../GUILib/src/draw/lv_draw_mask.c:1281:28
	strh	r1, [r0]
	b	.LBB14_59
.Ltmp612:
	.p2align	2
.LBB14_21:                              @ =>This Inner Loop Header: Depth=1
	@DEBUG_VALUE: circ_calc_aa4:radius <- $r10
	@DEBUG_VALUE: lv_draw_mask_radius_init:radius <- $r10
	@DEBUG_VALUE: lv_draw_mask_radius_init:param <- $r8
	@DEBUG_VALUE: lv_draw_mask_radius_init:h <- $r5
	@DEBUG_VALUE: circ_calc_aa4:c <- $r4
	@DEBUG_VALUE: lv_draw_mask_radius_init:entry <- $r4
	@DEBUG_VALUE: lv_draw_mask_radius_init:rect <- [DW_OP_LLVM_entry_value 1] $r1
	.loc	5 1271 5                        @ ../GUILib/src/draw/lv_draw_mask.c:1271:5
	b	.LBB14_21
.Ltmp613:
	.p2align	2
.LBB14_22:                              @ =>This Inner Loop Header: Depth=1
	@DEBUG_VALUE: lv_draw_mask_radius_init:radius <- $r10
	@DEBUG_VALUE: lv_draw_mask_radius_init:param <- $r8
	@DEBUG_VALUE: lv_draw_mask_radius_init:h <- $r5
	@DEBUG_VALUE: lv_draw_mask_radius_init:entry <- $r0
	@DEBUG_VALUE: lv_draw_mask_radius_init:rect <- [DW_OP_LLVM_entry_value 1] $r1
	.loc	5 512 9                         @ ../GUILib/src/draw/lv_draw_mask.c:512:9
	b	.LBB14_22
.Ltmp614:
.LBB14_23:
	@DEBUG_VALUE: circ_calc_aa4:radius <- $r10
	@DEBUG_VALUE: lv_draw_mask_radius_init:radius <- $r10
	@DEBUG_VALUE: lv_draw_mask_radius_init:param <- $r8
	@DEBUG_VALUE: lv_draw_mask_radius_init:h <- $r5
	@DEBUG_VALUE: circ_calc_aa4:c <- $r4
	@DEBUG_VALUE: lv_draw_mask_radius_init:entry <- $r4
	@DEBUG_VALUE: lv_draw_mask_radius_init:rect <- [DW_OP_LLVM_entry_value 1] $r1
	.loc	5 0 0 is_stmt 0                 @ ../GUILib/src/draw/lv_draw_mask.c:0:0
	lsl.w	r0, r10, #1
	.loc	5 1285 54 is_stmt 1             @ ../GUILib/src/draw/lv_draw_mask.c:1285:54
	adds	r6, r0, #2
	.loc	5 1285 62 is_stmt 0             @ ../GUILib/src/draw/lv_draw_mask.c:1285:62
	lsls	r0, r6, #2
	.loc	5 0 0                           @ ../GUILib/src/draw/lv_draw_mask.c:0:0
	lsl.w	r5, r10, #2
.Ltmp615:
	.loc	5 1285 26                       @ ../GUILib/src/draw/lv_draw_mask.c:1285:26
	bl	lv_mem_buf_get
.Ltmp616:
	@DEBUG_VALUE: circ_calc_aa4:cir_x <- $r0
	.loc	5 1291 26 is_stmt 1             @ ../GUILib/src/draw/lv_draw_mask.c:1291:26
	sxth	r1, r5
.Ltmp617:
	@DEBUG_VALUE: circ_calc_aa4:cir_size <- 0
	@DEBUG_VALUE: circ_calc_aa4:cp <- [DW_OP_LLVM_fragment 16 16] 0
	@DEBUG_VALUE: circ_init:tmp <- undef
	@DEBUG_VALUE: circ_init:c <- undef
	.loc	5 1297 21                       @ ../GUILib/src/draw/lv_draw_mask.c:1297:21
	asrs	r2, r1, #2
	.loc	5 1286 27                       @ ../GUILib/src/draw/lv_draw_mask.c:1286:27
	add.w	r11, r0, r6, lsl #1
.Ltmp618:
	@DEBUG_VALUE: circ_calc_aa4:cp <- [DW_OP_LLVM_fragment 0 16] $r5
	@DEBUG_VALUE: circ_init:radius <- $r5
	@DEBUG_VALUE: circ_calc_aa4:y_8th_cnt <- 0
	@DEBUG_VALUE: circ_calc_aa4:cir_y <- $r11
	.loc	5 1297 14                       @ ../GUILib/src/draw/lv_draw_mask.c:1297:14
	str	r2, [sp, #44]
	movs	r2, #0
	.loc	5 1301 5                        @ ../GUILib/src/draw/lv_draw_mask.c:1301:5
	cmp	r1, #0
	.loc	5 1298 16                       @ ../GUILib/src/draw/lv_draw_mask.c:1298:16
	str	r2, [sp, #28]
.Ltmp619:
	@DEBUG_VALUE: circ_cont:c <- undef
	.loc	5 1301 5                        @ ../GUILib/src/draw/lv_draw_mask.c:1301:5
	bmi.w	.LBB14_40
.Ltmp620:
@ %bb.24:
	@DEBUG_VALUE: circ_calc_aa4:cir_y <- $r11
	@DEBUG_VALUE: circ_calc_aa4:radius <- $r10
	@DEBUG_VALUE: lv_draw_mask_radius_init:radius <- $r10
	@DEBUG_VALUE: lv_draw_mask_radius_init:param <- $r8
	@DEBUG_VALUE: circ_init:radius <- $r5
	@DEBUG_VALUE: circ_calc_aa4:cp <- [DW_OP_LLVM_fragment 0 16] $r5
	@DEBUG_VALUE: circ_calc_aa4:c <- $r4
	@DEBUG_VALUE: lv_draw_mask_radius_init:entry <- $r4
	@DEBUG_VALUE: circ_calc_aa4:cir_x <- $r0
	@DEBUG_VALUE: circ_calc_aa4:y_8th_cnt <- 0
	@DEBUG_VALUE: circ_calc_aa4:cp <- [DW_OP_LLVM_fragment 16 16] 0
	@DEBUG_VALUE: circ_calc_aa4:cir_size <- 0
	@DEBUG_VALUE: lv_draw_mask_radius_init:rect <- [DW_OP_LLVM_entry_value 1] $r1
	@DEBUG_VALUE: circ_init:radius <- $r5
	@DEBUG_VALUE: circ_calc_aa4:cp <- [DW_OP_LLVM_fragment 0 16] $r5
	.loc	5 0 5 is_stmt 0                 @ ../GUILib/src/draw/lv_draw_mask.c:0:5
	movs	r1, #0
.Ltmp621:
	.loc	5 1231 14 is_stmt 1             @ ../GUILib/src/draw/lv_draw_mask.c:1231:14
	rsb.w	r8, r5, #1
.Ltmp622:
	.loc	5 0 14 is_stmt 0                @ ../GUILib/src/draw/lv_draw_mask.c:0:14
	str	r1, [sp, #24]                   @ 4-byte Spill
	add.w	lr, sp, #44
	add.w	r9, sp, #28
	movs	r2, #0
	movs	r1, #0
.Ltmp623:
.LBB14_25:                              @ =>This Loop Header: Depth=1
                                        @     Child Loop BB14_26 Depth 2
	@DEBUG_VALUE: circ_calc_aa4:cir_y <- $r11
	@DEBUG_VALUE: circ_calc_aa4:radius <- $r10
	@DEBUG_VALUE: lv_draw_mask_radius_init:radius <- $r10
	@DEBUG_VALUE: circ_calc_aa4:cp <- [DW_OP_LLVM_fragment 0 16] $r5
	@DEBUG_VALUE: circ_calc_aa4:c <- $r4
	@DEBUG_VALUE: lv_draw_mask_radius_init:entry <- $r4
	@DEBUG_VALUE: circ_calc_aa4:cir_x <- $r0
	@DEBUG_VALUE: lv_draw_mask_radius_init:rect <- [DW_OP_LLVM_entry_value 1] $r1
	@DEBUG_VALUE: circ_calc_aa4:y_8th_cnt <- [DW_OP_plus_uconst 24] [$sp+0]
	@DEBUG_VALUE: circ_calc_aa4:cp <- [DW_OP_LLVM_fragment 0 16] $r5
	@DEBUG_VALUE: circ_calc_aa4:cp <- [DW_OP_LLVM_fragment 16 16] $r1
	@DEBUG_VALUE: circ_calc_aa4:cir_size <- $r2
	@DEBUG_VALUE: circ_calc_aa4:i <- 0
	.loc	5 1303 9 is_stmt 1              @ ../GUILib/src/draw/lv_draw_mask.c:1303:9
	adds	r3, r1, #4
	sxth	r3, r3
	str	r3, [sp, #20]                   @ 4-byte Spill
	movs	r3, #0
.Ltmp624:
	.p2align	2
.LBB14_26:                              @   Parent Loop BB14_25 Depth=1
                                        @ =>  This Inner Loop Header: Depth=2
	@DEBUG_VALUE: circ_calc_aa4:cir_y <- $r11
	@DEBUG_VALUE: circ_calc_aa4:radius <- $r10
	@DEBUG_VALUE: lv_draw_mask_radius_init:radius <- $r10
	@DEBUG_VALUE: circ_calc_aa4:cp <- [DW_OP_LLVM_fragment 0 16] $r5
	@DEBUG_VALUE: circ_calc_aa4:c <- $r4
	@DEBUG_VALUE: lv_draw_mask_radius_init:entry <- $r4
	@DEBUG_VALUE: circ_calc_aa4:cir_size <- $r2
	@DEBUG_VALUE: circ_calc_aa4:cp <- [DW_OP_LLVM_fragment 16 16] $r1
	@DEBUG_VALUE: circ_calc_aa4:cir_x <- $r0
	@DEBUG_VALUE: circ_calc_aa4:y_8th_cnt <- [DW_OP_plus_uconst 24] [$sp+0]
	@DEBUG_VALUE: lv_draw_mask_radius_init:rect <- [DW_OP_LLVM_entry_value 1] $r1
	@DEBUG_VALUE: circ_calc_aa4:cp <- [DW_OP_LLVM_fragment 0 16] $r5
	@DEBUG_VALUE: circ_calc_aa4:cp <- [DW_OP_LLVM_fragment 16 16] $r1
	@DEBUG_VALUE: circ_calc_aa4:i <- $r3
	@DEBUG_VALUE: circ_next:c <- undef
	@DEBUG_VALUE: circ_next:tmp <- undef
	.loc	5 1252 13                       @ ../GUILib/src/draw/lv_draw_mask.c:1252:13
	sxth.w	r6, r8
.Ltmp625:
	.loc	5 1252 8 is_stmt 0              @ ../GUILib/src/draw/lv_draw_mask.c:1252:8
	cmp	r6, #0
	ble	.LBB14_28
.Ltmp626:
@ %bb.27:                               @   in Loop: Header=BB14_26 Depth=2
	@DEBUG_VALUE: circ_calc_aa4:cir_y <- $r11
	@DEBUG_VALUE: circ_calc_aa4:radius <- $r10
	@DEBUG_VALUE: lv_draw_mask_radius_init:radius <- $r10
	@DEBUG_VALUE: circ_calc_aa4:cp <- [DW_OP_LLVM_fragment 0 16] $r5
	@DEBUG_VALUE: circ_calc_aa4:c <- $r4
	@DEBUG_VALUE: lv_draw_mask_radius_init:entry <- $r4
	@DEBUG_VALUE: circ_calc_aa4:i <- $r3
	@DEBUG_VALUE: circ_calc_aa4:cir_size <- $r2
	@DEBUG_VALUE: circ_calc_aa4:cp <- [DW_OP_LLVM_fragment 16 16] $r1
	@DEBUG_VALUE: circ_calc_aa4:cir_x <- $r0
	@DEBUG_VALUE: circ_calc_aa4:y_8th_cnt <- [DW_OP_plus_uconst 24] [$sp+0]
	@DEBUG_VALUE: lv_draw_mask_radius_init:rect <- [DW_OP_LLVM_entry_value 1] $r1
	.loc	5 1256 29 is_stmt 1             @ ../GUILib/src/draw/lv_draw_mask.c:1256:29
	subs	r6, r1, r5
	.loc	5 1256 37 is_stmt 0             @ ../GUILib/src/draw/lv_draw_mask.c:1256:37
	add.w	r6, r8, r6, lsl #1
	.loc	5 1256 16                       @ ../GUILib/src/draw/lv_draw_mask.c:1256:16
	add.w	r8, r6, #5
	.loc	5 1257 13 is_stmt 1             @ ../GUILib/src/draw/lv_draw_mask.c:1257:13
	subs	r5, #1
.Ltmp627:
	@DEBUG_VALUE: circ_calc_aa4:cp <- [DW_OP_LLVM_fragment 0 16] $r5
	.loc	5 0 13 is_stmt 0                @ ../GUILib/src/draw/lv_draw_mask.c:0:13
	b	.LBB14_29
.Ltmp628:
	.p2align	2
.LBB14_28:                              @   in Loop: Header=BB14_26 Depth=2
	@DEBUG_VALUE: circ_calc_aa4:cir_y <- $r11
	@DEBUG_VALUE: circ_calc_aa4:radius <- $r10
	@DEBUG_VALUE: lv_draw_mask_radius_init:radius <- $r10
	@DEBUG_VALUE: circ_calc_aa4:cp <- [DW_OP_LLVM_fragment 0 16] $r5
	@DEBUG_VALUE: circ_calc_aa4:c <- $r4
	@DEBUG_VALUE: lv_draw_mask_radius_init:entry <- $r4
	@DEBUG_VALUE: circ_calc_aa4:i <- $r3
	@DEBUG_VALUE: circ_calc_aa4:cir_size <- $r2
	@DEBUG_VALUE: circ_calc_aa4:cp <- [DW_OP_LLVM_fragment 16 16] $r1
	@DEBUG_VALUE: circ_calc_aa4:cir_x <- $r0
	@DEBUG_VALUE: circ_calc_aa4:y_8th_cnt <- [DW_OP_plus_uconst 24] [$sp+0]
	@DEBUG_VALUE: lv_draw_mask_radius_init:rect <- [DW_OP_LLVM_entry_value 1] $r1
	.loc	5 1253 28 is_stmt 1             @ ../GUILib/src/draw/lv_draw_mask.c:1253:28
	add.w	r6, r8, r1, lsl #1
	.loc	5 1253 16 is_stmt 0             @ ../GUILib/src/draw/lv_draw_mask.c:1253:16
	add.w	r8, r6, #3
.Ltmp629:
.LBB14_29:                              @   in Loop: Header=BB14_26 Depth=2
	@DEBUG_VALUE: circ_calc_aa4:cir_y <- $r11
	@DEBUG_VALUE: circ_calc_aa4:radius <- $r10
	@DEBUG_VALUE: lv_draw_mask_radius_init:radius <- $r10
	@DEBUG_VALUE: circ_calc_aa4:cp <- [DW_OP_LLVM_fragment 0 16] $r5
	@DEBUG_VALUE: circ_calc_aa4:c <- $r4
	@DEBUG_VALUE: lv_draw_mask_radius_init:entry <- $r4
	@DEBUG_VALUE: circ_calc_aa4:i <- $r3
	@DEBUG_VALUE: circ_calc_aa4:cir_size <- $r2
	@DEBUG_VALUE: circ_calc_aa4:cp <- [DW_OP_LLVM_fragment 16 16] $r1
	@DEBUG_VALUE: circ_calc_aa4:cir_x <- $r0
	@DEBUG_VALUE: circ_calc_aa4:y_8th_cnt <- [DW_OP_plus_uconst 24] [$sp+0]
	@DEBUG_VALUE: lv_draw_mask_radius_init:rect <- [DW_OP_LLVM_entry_value 1] $r1
	@DEBUG_VALUE: circ_calc_aa4:cp <- [DW_OP_LLVM_fragment 0 16] $r5
	.loc	5 1259 9 is_stmt 1              @ ../GUILib/src/draw/lv_draw_mask.c:1259:9
	adds	r1, #1
.Ltmp630:
	@DEBUG_VALUE: circ_calc_aa4:cp <- [DW_OP_LLVM_fragment 16 16] $r1
	sxth	r1, r1
.Ltmp631:
	@DEBUG_VALUE: circ_cont:c <- undef
	.loc	5 1241 17                       @ ../GUILib/src/draw/lv_draw_mask.c:1241:17
	sxth	r7, r5
.Ltmp632:
	.loc	5 1305 16                       @ ../GUILib/src/draw/lv_draw_mask.c:1305:16
	cmp	r1, r7
	bgt.w	.LBB14_40
.Ltmp633:
@ %bb.30:                               @   in Loop: Header=BB14_26 Depth=2
	@DEBUG_VALUE: circ_calc_aa4:cir_y <- $r11
	@DEBUG_VALUE: circ_calc_aa4:radius <- $r10
	@DEBUG_VALUE: lv_draw_mask_radius_init:radius <- $r10
	@DEBUG_VALUE: circ_calc_aa4:cp <- [DW_OP_LLVM_fragment 0 16] $r5
	@DEBUG_VALUE: circ_calc_aa4:c <- $r4
	@DEBUG_VALUE: lv_draw_mask_radius_init:entry <- $r4
	@DEBUG_VALUE: circ_calc_aa4:i <- $r3
	@DEBUG_VALUE: circ_calc_aa4:cir_size <- $r2
	@DEBUG_VALUE: circ_calc_aa4:cir_x <- $r0
	@DEBUG_VALUE: circ_calc_aa4:y_8th_cnt <- [DW_OP_plus_uconst 24] [$sp+0]
	@DEBUG_VALUE: lv_draw_mask_radius_init:rect <- [DW_OP_LLVM_entry_value 1] $r1
	.loc	5 1306 29                       @ ../GUILib/src/draw/lv_draw_mask.c:1306:29
	asrs	r6, r7, #2
	.loc	5 1306 22 is_stmt 0             @ ../GUILib/src/draw/lv_draw_mask.c:1306:22
	str.w	r6, [lr, r3, lsl #2]
	.loc	5 1307 31 is_stmt 1             @ ../GUILib/src/draw/lv_draw_mask.c:1307:31
	and	r6, r5, #3
	.loc	5 1307 24 is_stmt 0             @ ../GUILib/src/draw/lv_draw_mask.c:1307:24
	str.w	r6, [r9, r3, lsl #2]
.Ltmp634:
	.loc	5 1303 28 is_stmt 1             @ ../GUILib/src/draw/lv_draw_mask.c:1303:28
	adds	r3, #1
.Ltmp635:
	@DEBUG_VALUE: circ_calc_aa4:i <- $r3
	@DEBUG_VALUE: circ_calc_aa4:cp <- [DW_OP_LLVM_fragment 16 16] $r1
	@DEBUG_VALUE: circ_calc_aa4:cp <- [DW_OP_LLVM_fragment 0 16] $r5
	.loc	5 1303 9 is_stmt 0              @ ../GUILib/src/draw/lv_draw_mask.c:1303:9
	cmp	r3, #4
	bne	.LBB14_26
.Ltmp636:
@ %bb.31:                               @   in Loop: Header=BB14_25 Depth=1
	@DEBUG_VALUE: circ_calc_aa4:cir_y <- $r11
	@DEBUG_VALUE: circ_calc_aa4:radius <- $r10
	@DEBUG_VALUE: lv_draw_mask_radius_init:radius <- $r10
	@DEBUG_VALUE: circ_calc_aa4:cp <- [DW_OP_LLVM_fragment 0 16] $r5
	@DEBUG_VALUE: circ_calc_aa4:c <- $r4
	@DEBUG_VALUE: lv_draw_mask_radius_init:entry <- $r4
	@DEBUG_VALUE: circ_calc_aa4:i <- $r3
	@DEBUG_VALUE: circ_calc_aa4:cir_size <- $r2
	@DEBUG_VALUE: circ_calc_aa4:cp <- [DW_OP_LLVM_fragment 16 16] $r1
	@DEBUG_VALUE: circ_calc_aa4:cir_x <- $r0
	@DEBUG_VALUE: circ_calc_aa4:y_8th_cnt <- [DW_OP_plus_uconst 24] [$sp+0]
	@DEBUG_VALUE: lv_draw_mask_radius_init:rect <- [DW_OP_LLVM_entry_value 1] $r1
	@DEBUG_VALUE: circ_calc_aa4:cp <- [DW_OP_LLVM_fragment 0 16] $r5
	@DEBUG_VALUE: circ_calc_aa4:cp <- [DW_OP_plus_uconst 20, DW_OP_LLVM_fragment 16 16] [$sp+0]
	.loc	5 1312 12 is_stmt 1             @ ../GUILib/src/draw/lv_draw_mask.c:1312:12
	ldr	r1, [sp, #44]
	.loc	5 1312 24 is_stmt 0             @ ../GUILib/src/draw/lv_draw_mask.c:1312:24
	ldr	r3, [sp, #56]
.Ltmp637:
	.loc	5 0 24                          @ ../GUILib/src/draw/lv_draw_mask.c:0:24
	mov	r12, r1
.Ltmp638:
	.loc	5 1312 12                       @ ../GUILib/src/draw/lv_draw_mask.c:1312:12
	cmp	r1, r3
	bne	.LBB14_33
.Ltmp639:
@ %bb.32:                               @   in Loop: Header=BB14_25 Depth=1
	@DEBUG_VALUE: circ_calc_aa4:cir_y <- $r11
	@DEBUG_VALUE: circ_calc_aa4:radius <- $r10
	@DEBUG_VALUE: lv_draw_mask_radius_init:radius <- $r10
	@DEBUG_VALUE: circ_calc_aa4:cp <- [DW_OP_LLVM_fragment 0 16] $r5
	@DEBUG_VALUE: circ_calc_aa4:c <- $r4
	@DEBUG_VALUE: lv_draw_mask_radius_init:entry <- $r4
	@DEBUG_VALUE: circ_calc_aa4:cir_size <- $r2
	@DEBUG_VALUE: circ_calc_aa4:cir_x <- $r0
	@DEBUG_VALUE: circ_calc_aa4:cp <- [DW_OP_plus_uconst 20, DW_OP_LLVM_fragment 16 16] [$sp+0]
	@DEBUG_VALUE: circ_calc_aa4:y_8th_cnt <- [DW_OP_plus_uconst 24] [$sp+0]
	@DEBUG_VALUE: lv_draw_mask_radius_init:rect <- [DW_OP_LLVM_entry_value 1] $r1
	.loc	5 1314 29 is_stmt 1             @ ../GUILib/src/draw/lv_draw_mask.c:1314:29
	ldr	r1, [sp, #24]                   @ 4-byte Reload
	.loc	5 1313 13                       @ ../GUILib/src/draw/lv_draw_mask.c:1313:13
	sxth	r6, r2
	.loc	5 1313 29 is_stmt 0             @ ../GUILib/src/draw/lv_draw_mask.c:1313:29
	strh.w	r12, [r0, r6, lsl #1]
	.loc	5 1314 29 is_stmt 1             @ ../GUILib/src/draw/lv_draw_mask.c:1314:29
	strh.w	r1, [r11, r6, lsl #1]
	.loc	5 1315 36                       @ ../GUILib/src/draw/lv_draw_mask.c:1315:36
	ldr	r1, [sp, #28]
	.loc	5 1315 49 is_stmt 0             @ ../GUILib/src/draw/lv_draw_mask.c:1315:49
	str	r1, [sp, #16]                   @ 4-byte Spill
	ldrd	r3, r1, [sp, #32]
	.loc	5 1315 75                       @ ../GUILib/src/draw/lv_draw_mask.c:1315:75
	str	r1, [sp, #12]                   @ 4-byte Spill
	ldr	r1, [sp, #40]
	.loc	5 1315 47                       @ ../GUILib/src/draw/lv_draw_mask.c:1315:47
	str	r1, [sp, #8]                    @ 4-byte Spill
	ldr	r1, [sp, #16]                   @ 4-byte Reload
	add	r3, r1
	.loc	5 1315 60                       @ ../GUILib/src/draw/lv_draw_mask.c:1315:60
	ldr	r1, [sp, #12]                   @ 4-byte Reload
	add	r1, r3
	.loc	5 1315 73                       @ ../GUILib/src/draw/lv_draw_mask.c:1315:73
	ldr	r3, [sp, #8]                    @ 4-byte Reload
	add	r3, r1
	movs	r1, #1
.Ltmp640:
	@DEBUG_VALUE: circ_calc_aa4:cir_size <- undef
	.loc	5 0 73                          @ ../GUILib/src/draw/lv_draw_mask.c:0:73
	b	.LBB14_39
.Ltmp641:
.LBB14_33:                              @   in Loop: Header=BB14_25 Depth=1
	@DEBUG_VALUE: circ_calc_aa4:cir_y <- $r11
	@DEBUG_VALUE: circ_calc_aa4:radius <- $r10
	@DEBUG_VALUE: lv_draw_mask_radius_init:radius <- $r10
	@DEBUG_VALUE: circ_calc_aa4:cp <- [DW_OP_LLVM_fragment 0 16] $r5
	@DEBUG_VALUE: circ_calc_aa4:c <- $r4
	@DEBUG_VALUE: lv_draw_mask_radius_init:entry <- $r4
	@DEBUG_VALUE: circ_calc_aa4:cir_size <- $r2
	@DEBUG_VALUE: circ_calc_aa4:cir_x <- $r0
	@DEBUG_VALUE: circ_calc_aa4:cp <- [DW_OP_plus_uconst 20, DW_OP_LLVM_fragment 16 16] [$sp+0]
	@DEBUG_VALUE: circ_calc_aa4:y_8th_cnt <- [DW_OP_plus_uconst 24] [$sp+0]
	@DEBUG_VALUE: lv_draw_mask_radius_init:rect <- [DW_OP_LLVM_entry_value 1] $r1
	.loc	5 1320 29 is_stmt 1             @ ../GUILib/src/draw/lv_draw_mask.c:1320:29
	ldr	r3, [sp, #48]
.Ltmp642:
	.loc	5 1320 17 is_stmt 0             @ ../GUILib/src/draw/lv_draw_mask.c:1320:17
	str.w	r12, [sp, #12]                  @ 4-byte Spill
	cmp	r12, r3
	bne	.LBB14_36
.Ltmp643:
@ %bb.34:                               @   in Loop: Header=BB14_25 Depth=1
	@DEBUG_VALUE: circ_calc_aa4:cir_y <- $r11
	@DEBUG_VALUE: circ_calc_aa4:radius <- $r10
	@DEBUG_VALUE: lv_draw_mask_radius_init:radius <- $r10
	@DEBUG_VALUE: circ_calc_aa4:cp <- [DW_OP_LLVM_fragment 0 16] $r5
	@DEBUG_VALUE: circ_calc_aa4:c <- $r4
	@DEBUG_VALUE: lv_draw_mask_radius_init:entry <- $r4
	@DEBUG_VALUE: circ_calc_aa4:cir_size <- $r2
	@DEBUG_VALUE: circ_calc_aa4:cir_x <- $r0
	@DEBUG_VALUE: circ_calc_aa4:cp <- [DW_OP_plus_uconst 20, DW_OP_LLVM_fragment 16 16] [$sp+0]
	@DEBUG_VALUE: circ_calc_aa4:y_8th_cnt <- [DW_OP_plus_uconst 24] [$sp+0]
	@DEBUG_VALUE: lv_draw_mask_radius_init:rect <- [DW_OP_LLVM_entry_value 1] $r1
	.loc	5 0 17                          @ ../GUILib/src/draw/lv_draw_mask.c:0:17
	mov	r1, r12
.Ltmp644:
	ldr	r1, [sp, #24]                   @ 4-byte Reload
	.loc	5 1334 29 is_stmt 1             @ ../GUILib/src/draw/lv_draw_mask.c:1334:29
	ldr	r3, [sp, #52]
	.loc	5 0 0 is_stmt 0                 @ ../GUILib/src/draw/lv_draw_mask.c:0:0
	sxth	r6, r2
	strh.w	r12, [r0, r6, lsl #1]
	str	r6, [sp, #16]                   @ 4-byte Spill
	strh.w	r1, [r11, r6, lsl #1]
	ldr	r6, [sp, #28]
	str	r3, [sp, #8]                    @ 4-byte Spill
	ldr	r3, [sp, #32]
	str	r6, [sp, #4]                    @ 4-byte Spill
.Ltmp645:
	.loc	5 1334 17                       @ ../GUILib/src/draw/lv_draw_mask.c:1334:17
	ldrd	r6, r1, [sp, #8]                @ 8-byte Folded Reload
	str	r3, [sp]                        @ 4-byte Spill
	cmp	r1, r6
.Ltmp646:
	.loc	5 0 0                           @ ../GUILib/src/draw/lv_draw_mask.c:0:0
	ldrd	r3, r6, [sp]                    @ 8-byte Folded Reload
	add	r6, r3
.Ltmp647:
	.loc	5 1334 17                       @ ../GUILib/src/draw/lv_draw_mask.c:1334:17
	bne	.LBB14_37
.Ltmp648:
@ %bb.35:                               @   in Loop: Header=BB14_25 Depth=1
	@DEBUG_VALUE: circ_calc_aa4:cir_y <- $r11
	@DEBUG_VALUE: circ_calc_aa4:radius <- $r10
	@DEBUG_VALUE: lv_draw_mask_radius_init:radius <- $r10
	@DEBUG_VALUE: circ_calc_aa4:cp <- [DW_OP_LLVM_fragment 0 16] $r5
	@DEBUG_VALUE: circ_calc_aa4:c <- $r4
	@DEBUG_VALUE: lv_draw_mask_radius_init:entry <- $r4
	@DEBUG_VALUE: circ_calc_aa4:cir_size <- $r2
	@DEBUG_VALUE: circ_calc_aa4:cir_x <- $r0
	@DEBUG_VALUE: circ_calc_aa4:cp <- [DW_OP_plus_uconst 20, DW_OP_LLVM_fragment 16 16] [$sp+0]
	@DEBUG_VALUE: circ_calc_aa4:y_8th_cnt <- [DW_OP_plus_uconst 24] [$sp+0]
	@DEBUG_VALUE: lv_draw_mask_radius_init:rect <- [DW_OP_LLVM_entry_value 1] $r1
	.loc	5 1351 62 is_stmt 1             @ ../GUILib/src/draw/lv_draw_mask.c:1351:62
	ldr	r3, [sp, #36]
	.loc	5 1351 16 is_stmt 0             @ ../GUILib/src/draw/lv_draw_mask.c:1351:16
	ldr	r1, [r4, #4]
	.loc	5 1351 60                       @ ../GUILib/src/draw/lv_draw_mask.c:1351:60
	add	r6, r3
	.loc	5 1351 34                       @ ../GUILib/src/draw/lv_draw_mask.c:1351:34
	ldr	r3, [sp, #16]                   @ 4-byte Reload
	strb	r6, [r1, r3]
	.loc	5 1352 16 is_stmt 1             @ ../GUILib/src/draw/lv_draw_mask.c:1352:16
	ldr	r6, [r4, #4]
	.loc	5 1352 34 is_stmt 0             @ ../GUILib/src/draw/lv_draw_mask.c:1352:34
	ldr	r1, [sp, #16]                   @ 4-byte Reload
	str	r6, [sp, #8]                    @ 4-byte Spill
	ldr	r3, [sp, #8]                    @ 4-byte Reload
	ldr	r6, [sp, #16]                   @ 4-byte Reload
	ldrb	r6, [r3, r6]
	ldr	r3, [sp, #8]                    @ 4-byte Reload
	lsls	r6, r6, #4
	strb	r6, [r3, r1]
	.loc	5 1353 21 is_stmt 1             @ ../GUILib/src/draw/lv_draw_mask.c:1353:21
	adds	r3, r2, #1
.Ltmp649:
	@DEBUG_VALUE: circ_calc_aa4:cir_size <- $r3
	.loc	5 1355 31                       @ ../GUILib/src/draw/lv_draw_mask.c:1355:31
	sub.w	r1, r12, #1
	.loc	5 1355 13 is_stmt 0             @ ../GUILib/src/draw/lv_draw_mask.c:1355:13
	sxth	r6, r3
	.loc	5 1355 29                       @ ../GUILib/src/draw/lv_draw_mask.c:1355:29
	strh.w	r1, [r0, r6, lsl #1]
	.loc	5 1357 44 is_stmt 1             @ ../GUILib/src/draw/lv_draw_mask.c:1357:44
	ldrb.w	r1, [sp, #40]
	.loc	5 1356 29                       @ ../GUILib/src/draw/lv_draw_mask.c:1356:29
	ldr	r3, [sp, #24]                   @ 4-byte Reload
.Ltmp650:
	strh.w	r3, [r11, r6, lsl #1]
	.loc	5 1357 36                       @ ../GUILib/src/draw/lv_draw_mask.c:1357:36
	add.w	r3, r1, #12
	b	.LBB14_38
.Ltmp651:
.LBB14_36:                              @   in Loop: Header=BB14_25 Depth=1
	@DEBUG_VALUE: circ_calc_aa4:cir_y <- $r11
	@DEBUG_VALUE: circ_calc_aa4:radius <- $r10
	@DEBUG_VALUE: lv_draw_mask_radius_init:radius <- $r10
	@DEBUG_VALUE: circ_calc_aa4:cp <- [DW_OP_LLVM_fragment 0 16] $r5
	@DEBUG_VALUE: circ_calc_aa4:c <- $r4
	@DEBUG_VALUE: lv_draw_mask_radius_init:entry <- $r4
	@DEBUG_VALUE: circ_calc_aa4:cir_size <- $r2
	@DEBUG_VALUE: circ_calc_aa4:cir_x <- $r0
	@DEBUG_VALUE: circ_calc_aa4:cp <- [DW_OP_plus_uconst 20, DW_OP_LLVM_fragment 16 16] [$sp+0]
	@DEBUG_VALUE: circ_calc_aa4:y_8th_cnt <- [DW_OP_plus_uconst 24] [$sp+0]
	@DEBUG_VALUE: lv_draw_mask_radius_init:rect <- [DW_OP_LLVM_entry_value 1] $r1
	.loc	5 1322 29                       @ ../GUILib/src/draw/lv_draw_mask.c:1322:29
	ldr	r1, [sp, #24]                   @ 4-byte Reload
	.loc	5 1321 13                       @ ../GUILib/src/draw/lv_draw_mask.c:1321:13
	sxth	r3, r2
	.loc	5 1321 29 is_stmt 0             @ ../GUILib/src/draw/lv_draw_mask.c:1321:29
	strh.w	r12, [r0, r3, lsl #1]
	.loc	5 1322 29 is_stmt 1             @ ../GUILib/src/draw/lv_draw_mask.c:1322:29
	strh.w	r1, [r11, r3, lsl #1]
	.loc	5 1323 16                       @ ../GUILib/src/draw/lv_draw_mask.c:1323:16
	ldr	r6, [r4, #4]
	.loc	5 1323 36 is_stmt 0             @ ../GUILib/src/draw/lv_draw_mask.c:1323:36
	str	r6, [sp, #16]                   @ 4-byte Spill
	ldr	r6, [sp, #28]
	.loc	5 1329 44 is_stmt 1             @ ../GUILib/src/draw/lv_draw_mask.c:1329:44
	str	r6, [sp, #4]                    @ 4-byte Spill
	ldr	r6, [sp, #32]
	.loc	5 1323 34                       @ ../GUILib/src/draw/lv_draw_mask.c:1323:34
	ldr.w	r12, [sp, #4]                   @ 4-byte Reload
	str	r6, [sp, #8]                    @ 4-byte Spill
	ldr	r6, [sp, #16]                   @ 4-byte Reload
	strb.w	r12, [r6, r3]
	.loc	5 1324 16                       @ ../GUILib/src/draw/lv_draw_mask.c:1324:16
	ldr	r6, [r4, #4]
	.loc	5 1329 57                       @ ../GUILib/src/draw/lv_draw_mask.c:1329:57
	str	r6, [sp, #16]                   @ 4-byte Spill
	ldr	r6, [sp, #36]
	.loc	5 1324 34                       @ ../GUILib/src/draw/lv_draw_mask.c:1324:34
	ldr.w	r12, [sp, #16]                  @ 4-byte Reload
	str	r6, [sp, #4]                    @ 4-byte Spill
	ldr	r6, [sp, #16]                   @ 4-byte Reload
	ldrb	r1, [r6, r3]
	.loc	5 1329 70                       @ ../GUILib/src/draw/lv_draw_mask.c:1329:70
	ldr	r6, [sp, #40]
	.loc	5 1324 34                       @ ../GUILib/src/draw/lv_draw_mask.c:1324:34
	str	r6, [sp]                        @ 4-byte Spill
	lsls	r6, r1, #4
	.loc	5 1327 31                       @ ../GUILib/src/draw/lv_draw_mask.c:1327:31
	ldr	r1, [sp, #12]                   @ 4-byte Reload
	.loc	5 1324 34                       @ ../GUILib/src/draw/lv_draw_mask.c:1324:34
	strb.w	r6, [r12, r3]
	.loc	5 1325 21                       @ ../GUILib/src/draw/lv_draw_mask.c:1325:21
	adds	r3, r2, #1
.Ltmp652:
	@DEBUG_VALUE: circ_calc_aa4:cir_size <- $r3
	.loc	5 1327 31                       @ ../GUILib/src/draw/lv_draw_mask.c:1327:31
	subs	r1, #1
	.loc	5 1327 13 is_stmt 0             @ ../GUILib/src/draw/lv_draw_mask.c:1327:13
	sxth	r6, r3
	.loc	5 1327 29                       @ ../GUILib/src/draw/lv_draw_mask.c:1327:29
	strh.w	r1, [r0, r6, lsl #1]
	.loc	5 1328 29 is_stmt 1             @ ../GUILib/src/draw/lv_draw_mask.c:1328:29
	ldr	r1, [sp, #24]                   @ 4-byte Reload
	strh.w	r1, [r11, r6, lsl #1]
	.loc	5 1329 42                       @ ../GUILib/src/draw/lv_draw_mask.c:1329:42
	ldrd	r3, r1, [sp, #4]                @ 8-byte Folded Reload
.Ltmp653:
	add	r1, r3
	.loc	5 1329 55 is_stmt 0             @ ../GUILib/src/draw/lv_draw_mask.c:1329:55
	ldr	r3, [sp]                        @ 4-byte Reload
	add	r1, r3
	.loc	5 1329 68                       @ ../GUILib/src/draw/lv_draw_mask.c:1329:68
	adds	r3, r1, #4
	b	.LBB14_38
.Ltmp654:
.LBB14_37:                              @   in Loop: Header=BB14_25 Depth=1
	@DEBUG_VALUE: circ_calc_aa4:cir_y <- $r11
	@DEBUG_VALUE: circ_calc_aa4:radius <- $r10
	@DEBUG_VALUE: lv_draw_mask_radius_init:radius <- $r10
	@DEBUG_VALUE: circ_calc_aa4:cp <- [DW_OP_LLVM_fragment 0 16] $r5
	@DEBUG_VALUE: circ_calc_aa4:c <- $r4
	@DEBUG_VALUE: lv_draw_mask_radius_init:entry <- $r4
	@DEBUG_VALUE: circ_calc_aa4:cir_size <- $r2
	@DEBUG_VALUE: circ_calc_aa4:cir_x <- $r0
	@DEBUG_VALUE: circ_calc_aa4:cp <- [DW_OP_plus_uconst 20, DW_OP_LLVM_fragment 16 16] [$sp+0]
	@DEBUG_VALUE: circ_calc_aa4:y_8th_cnt <- [DW_OP_plus_uconst 24] [$sp+0]
	@DEBUG_VALUE: lv_draw_mask_radius_init:rect <- [DW_OP_LLVM_entry_value 1] $r1
	.loc	5 0 68                          @ ../GUILib/src/draw/lv_draw_mask.c:0:68
	mov	r1, r6
.Ltmp655:
	.loc	5 1337 16 is_stmt 1             @ ../GUILib/src/draw/lv_draw_mask.c:1337:16
	ldr	r6, [r4, #4]
	.loc	5 1337 34 is_stmt 0             @ ../GUILib/src/draw/lv_draw_mask.c:1337:34
	ldr	r3, [sp, #16]                   @ 4-byte Reload
	strb	r1, [r6, r3]
	.loc	5 1338 16 is_stmt 1             @ ../GUILib/src/draw/lv_draw_mask.c:1338:16
	ldr	r6, [r4, #4]
	.loc	5 1338 34 is_stmt 0             @ ../GUILib/src/draw/lv_draw_mask.c:1338:34
	ldr	r1, [sp, #16]                   @ 4-byte Reload
	str	r6, [sp, #8]                    @ 4-byte Spill
	ldr	r3, [sp, #8]                    @ 4-byte Reload
	ldr	r6, [sp, #16]                   @ 4-byte Reload
	ldrb	r6, [r3, r6]
	ldr	r3, [sp, #8]                    @ 4-byte Reload
	lsls	r6, r6, #4
	strb	r6, [r3, r1]
	.loc	5 1339 21 is_stmt 1             @ ../GUILib/src/draw/lv_draw_mask.c:1339:21
	adds	r3, r2, #1
.Ltmp656:
	@DEBUG_VALUE: circ_calc_aa4:cir_size <- $r3
	.loc	5 1341 31                       @ ../GUILib/src/draw/lv_draw_mask.c:1341:31
	sub.w	r1, r12, #1
	.loc	5 1341 13 is_stmt 0             @ ../GUILib/src/draw/lv_draw_mask.c:1341:13
	sxth	r6, r3
	.loc	5 1341 29                       @ ../GUILib/src/draw/lv_draw_mask.c:1341:29
	strh.w	r1, [r0, r6, lsl #1]
	.loc	5 1343 44 is_stmt 1             @ ../GUILib/src/draw/lv_draw_mask.c:1343:44
	ldrd	r12, r3, [sp, #36]
.Ltmp657:
	.loc	5 1342 29                       @ ../GUILib/src/draw/lv_draw_mask.c:1342:29
	ldr	r1, [sp, #24]                   @ 4-byte Reload
	strh.w	r1, [r11, r6, lsl #1]
	.loc	5 1343 42                       @ ../GUILib/src/draw/lv_draw_mask.c:1343:42
	add.w	r1, r12, r3
	.loc	5 1343 55 is_stmt 0             @ ../GUILib/src/draw/lv_draw_mask.c:1343:55
	add.w	r3, r1, #8
.Ltmp658:
.LBB14_38:                              @   in Loop: Header=BB14_25 Depth=1
	@DEBUG_VALUE: circ_calc_aa4:cir_y <- $r11
	@DEBUG_VALUE: circ_calc_aa4:radius <- $r10
	@DEBUG_VALUE: lv_draw_mask_radius_init:radius <- $r10
	@DEBUG_VALUE: circ_calc_aa4:cp <- [DW_OP_LLVM_fragment 0 16] $r5
	@DEBUG_VALUE: circ_calc_aa4:c <- $r4
	@DEBUG_VALUE: lv_draw_mask_radius_init:entry <- $r4
	@DEBUG_VALUE: circ_calc_aa4:cir_x <- $r0
	@DEBUG_VALUE: circ_calc_aa4:cp <- [DW_OP_plus_uconst 20, DW_OP_LLVM_fragment 16 16] [$sp+0]
	@DEBUG_VALUE: circ_calc_aa4:y_8th_cnt <- [DW_OP_plus_uconst 24] [$sp+0]
	@DEBUG_VALUE: lv_draw_mask_radius_init:rect <- [DW_OP_LLVM_entry_value 1] $r1
	.loc	5 0 55                          @ ../GUILib/src/draw/lv_draw_mask.c:0:55
	movs	r1, #2
.Ltmp659:
.LBB14_39:                              @   in Loop: Header=BB14_25 Depth=1
	@DEBUG_VALUE: circ_calc_aa4:cir_y <- $r11
	@DEBUG_VALUE: circ_calc_aa4:radius <- $r10
	@DEBUG_VALUE: lv_draw_mask_radius_init:radius <- $r10
	@DEBUG_VALUE: circ_calc_aa4:cp <- [DW_OP_LLVM_fragment 0 16] $r5
	@DEBUG_VALUE: circ_calc_aa4:c <- $r4
	@DEBUG_VALUE: lv_draw_mask_radius_init:entry <- $r4
	@DEBUG_VALUE: circ_calc_aa4:cir_x <- $r0
	@DEBUG_VALUE: circ_calc_aa4:cp <- [DW_OP_plus_uconst 20, DW_OP_LLVM_fragment 16 16] [$sp+0]
	@DEBUG_VALUE: circ_calc_aa4:y_8th_cnt <- [DW_OP_plus_uconst 24] [$sp+0]
	@DEBUG_VALUE: lv_draw_mask_radius_init:rect <- [DW_OP_LLVM_entry_value 1] $r1
	str	r1, [sp, #16]                   @ 4-byte Spill
	ldr	r1, [r4, #4]
	strb	r3, [r1, r6]
	ldr	r1, [r4, #4]
	ldrb	r3, [r1, r6]
	lsls	r3, r3, #4
	strb	r3, [r1, r6]
	ldr	r1, [sp, #16]                   @ 4-byte Reload
.Ltmp660:
	.loc	5 1362 18 is_stmt 1             @ ../GUILib/src/draw/lv_draw_mask.c:1362:18
	ldr	r3, [sp, #24]                   @ 4-byte Reload
.Ltmp661:
	.loc	5 0 0 is_stmt 0                 @ ../GUILib/src/draw/lv_draw_mask.c:0:0
	add	r2, r1
.Ltmp662:
	@DEBUG_VALUE: circ_calc_aa4:cir_size <- $r2
	ldr	r1, [sp, #20]                   @ 4-byte Reload
.Ltmp663:
	.loc	5 1362 18                       @ ../GUILib/src/draw/lv_draw_mask.c:1362:18
	adds	r3, #1
.Ltmp664:
	@DEBUG_VALUE: circ_cont:c <- undef
	@DEBUG_VALUE: circ_calc_aa4:cp <- [DW_OP_LLVM_fragment 16 16] $r1
	@DEBUG_VALUE: circ_calc_aa4:cp <- [DW_OP_LLVM_fragment 0 16] $r5
	@DEBUG_VALUE: circ_calc_aa4:y_8th_cnt <- $r3
	.loc	5 1301 5 is_stmt 1              @ ../GUILib/src/draw/lv_draw_mask.c:1301:5
	cmp	r1, r7
	str	r3, [sp, #24]                   @ 4-byte Spill
.Ltmp665:
	@DEBUG_VALUE: circ_calc_aa4:y_8th_cnt <- [DW_OP_plus_uconst 24] [$sp+0]
	@DEBUG_VALUE: circ_calc_aa4:y_8th_cnt <- [DW_OP_plus_uconst 24] [$sp+0]
	ble.w	.LBB14_25
.Ltmp666:
.LBB14_40:
	@DEBUG_VALUE: circ_calc_aa4:cir_y <- $r11
	@DEBUG_VALUE: circ_calc_aa4:radius <- $r10
	@DEBUG_VALUE: lv_draw_mask_radius_init:radius <- $r10
	@DEBUG_VALUE: circ_calc_aa4:cp <- [DW_OP_LLVM_fragment 0 16] $r5
	@DEBUG_VALUE: circ_calc_aa4:c <- $r4
	@DEBUG_VALUE: lv_draw_mask_radius_init:entry <- $r4
	@DEBUG_VALUE: circ_calc_aa4:cir_x <- $r0
	@DEBUG_VALUE: lv_draw_mask_radius_init:rect <- [DW_OP_LLVM_entry_value 1] $r1
	.loc	5 1368 14                       @ ../GUILib/src/draw/lv_draw_mask.c:1368:14
	sxth.w	r8, r2
	.loc	5 1368 23 is_stmt 0             @ ../GUILib/src/draw/lv_draw_mask.c:1368:23
	sub.w	r7, r8, #1
	movw	r1, #723
	.loc	5 1368 8                        @ ../GUILib/src/draw/lv_draw_mask.c:1368:8
	ldrsh.w	r6, [r0, r7, lsl #1]
.Ltmp667:
	.loc	5 1366 26 is_stmt 1             @ ../GUILib/src/draw/lv_draw_mask.c:1366:26
	mul	r3, r10, r1
.Ltmp668:
	@DEBUG_VALUE: circ_calc_aa4:mid <- $r3
	.loc	5 1368 39                       @ ../GUILib/src/draw/lv_draw_mask.c:1368:39
	cmp.w	r6, r3, asr #10
.Ltmp669:
	.loc	5 1367 27                       @ ../GUILib/src/draw/lv_draw_mask.c:1367:27
	asr.w	r1, r3, #10
.Ltmp670:
	@DEBUG_VALUE: circ_calc_aa4:mid_int <- $r1
	.loc	5 1368 39                       @ ../GUILib/src/draw/lv_draw_mask.c:1368:39
	bne	.LBB14_42
.Ltmp671:
@ %bb.41:
	@DEBUG_VALUE: circ_calc_aa4:cir_y <- $r11
	@DEBUG_VALUE: circ_calc_aa4:radius <- $r10
	@DEBUG_VALUE: lv_draw_mask_radius_init:radius <- $r10
	@DEBUG_VALUE: circ_calc_aa4:cp <- [DW_OP_LLVM_fragment 0 16] $r5
	@DEBUG_VALUE: circ_calc_aa4:c <- $r4
	@DEBUG_VALUE: lv_draw_mask_radius_init:entry <- $r4
	@DEBUG_VALUE: circ_calc_aa4:mid <- $r3
	@DEBUG_VALUE: circ_calc_aa4:mid_int <- $r1
	@DEBUG_VALUE: circ_calc_aa4:cir_x <- $r0
	@DEBUG_VALUE: lv_draw_mask_radius_init:rect <- [DW_OP_LLVM_entry_value 1] $r1
	.loc	5 1368 42 is_stmt 0             @ ../GUILib/src/draw/lv_draw_mask.c:1368:42
	ldrsh.w	r7, [r11, r7, lsl #1]
.Ltmp672:
	.loc	5 1368 8                        @ ../GUILib/src/draw/lv_draw_mask.c:1368:8
	cmp	r1, r7
	beq	.LBB14_46
.Ltmp673:
.LBB14_42:
	@DEBUG_VALUE: circ_calc_aa4:cir_y <- $r11
	@DEBUG_VALUE: circ_calc_aa4:radius <- $r10
	@DEBUG_VALUE: lv_draw_mask_radius_init:radius <- $r10
	@DEBUG_VALUE: circ_calc_aa4:cp <- [DW_OP_LLVM_fragment 0 16] $r5
	@DEBUG_VALUE: circ_calc_aa4:c <- $r4
	@DEBUG_VALUE: lv_draw_mask_radius_init:entry <- $r4
	@DEBUG_VALUE: circ_calc_aa4:mid <- $r3
	@DEBUG_VALUE: circ_calc_aa4:mid_int <- $r1
	@DEBUG_VALUE: circ_calc_aa4:cir_x <- $r0
	@DEBUG_VALUE: lv_draw_mask_radius_init:rect <- [DW_OP_LLVM_entry_value 1] $r1
	.loc	5 1369 31 is_stmt 1             @ ../GUILib/src/draw/lv_draw_mask.c:1369:31
	bfc	r3, #10, #22
.Ltmp674:
	@DEBUG_VALUE: tmp_val <- $r3
	.loc	5 1370 12                       @ ../GUILib/src/draw/lv_draw_mask.c:1370:12
	cmp.w	r3, #512
	bhi	.LBB14_44
.Ltmp675:
@ %bb.43:
	@DEBUG_VALUE: circ_calc_aa4:cir_y <- $r11
	@DEBUG_VALUE: circ_calc_aa4:radius <- $r10
	@DEBUG_VALUE: lv_draw_mask_radius_init:radius <- $r10
	@DEBUG_VALUE: circ_calc_aa4:cp <- [DW_OP_LLVM_fragment 0 16] $r5
	@DEBUG_VALUE: circ_calc_aa4:c <- $r4
	@DEBUG_VALUE: lv_draw_mask_radius_init:entry <- $r4
	@DEBUG_VALUE: tmp_val <- $r3
	@DEBUG_VALUE: circ_calc_aa4:mid_int <- $r1
	@DEBUG_VALUE: circ_calc_aa4:cir_x <- $r0
	@DEBUG_VALUE: lv_draw_mask_radius_init:rect <- [DW_OP_LLVM_entry_value 1] $r1
	.loc	5 1371 31                       @ ../GUILib/src/draw/lv_draw_mask.c:1371:31
	muls	r3, r3, r3
.Ltmp676:
	@DEBUG_VALUE: tmp_val <- [DW_OP_constu 1, DW_OP_shl, DW_OP_stack_value] $r3
	.loc	5 1372 31                       @ ../GUILib/src/draw/lv_draw_mask.c:1372:31
	lsrs	r3, r3, #15
.Ltmp677:
	@DEBUG_VALUE: tmp_val <- $r3
	.loc	5 0 31 is_stmt 0                @ ../GUILib/src/draw/lv_draw_mask.c:0:31
	b	.LBB14_45
.Ltmp678:
.LBB14_44:
	@DEBUG_VALUE: circ_calc_aa4:cir_y <- $r11
	@DEBUG_VALUE: circ_calc_aa4:radius <- $r10
	@DEBUG_VALUE: lv_draw_mask_radius_init:radius <- $r10
	@DEBUG_VALUE: circ_calc_aa4:cp <- [DW_OP_LLVM_fragment 0 16] $r5
	@DEBUG_VALUE: circ_calc_aa4:c <- $r4
	@DEBUG_VALUE: lv_draw_mask_radius_init:entry <- $r4
	@DEBUG_VALUE: tmp_val <- $r3
	@DEBUG_VALUE: circ_calc_aa4:mid_int <- $r1
	@DEBUG_VALUE: circ_calc_aa4:cir_x <- $r0
	@DEBUG_VALUE: lv_draw_mask_radius_init:rect <- [DW_OP_LLVM_entry_value 1] $r1
	.loc	5 1375 28 is_stmt 1             @ ../GUILib/src/draw/lv_draw_mask.c:1375:28
	rsb.w	r3, r3, #1024
.Ltmp679:
	@DEBUG_VALUE: tmp_val <- $r3
	.loc	5 1376 31                       @ ../GUILib/src/draw/lv_draw_mask.c:1376:31
	muls	r3, r3, r3
.Ltmp680:
	@DEBUG_VALUE: tmp_val <- [DW_OP_constu 1, DW_OP_shl, DW_OP_stack_value] $r3
	.loc	5 0 31 is_stmt 0                @ ../GUILib/src/draw/lv_draw_mask.c:0:31
	movs	r7, #15
.Ltmp681:
	@DEBUG_VALUE: tmp_val <- undef
	.loc	5 1378 26 is_stmt 1             @ ../GUILib/src/draw/lv_draw_mask.c:1378:26
	sub.w	r3, r7, r3, lsr #15
.Ltmp682:
	@DEBUG_VALUE: tmp_val <- $r3
.LBB14_45:
	@DEBUG_VALUE: circ_calc_aa4:cir_y <- $r11
	@DEBUG_VALUE: circ_calc_aa4:radius <- $r10
	@DEBUG_VALUE: lv_draw_mask_radius_init:radius <- $r10
	@DEBUG_VALUE: circ_calc_aa4:cp <- [DW_OP_LLVM_fragment 0 16] $r5
	@DEBUG_VALUE: circ_calc_aa4:c <- $r4
	@DEBUG_VALUE: lv_draw_mask_radius_init:entry <- $r4
	@DEBUG_VALUE: tmp_val <- $r3
	@DEBUG_VALUE: circ_calc_aa4:mid_int <- $r1
	@DEBUG_VALUE: circ_calc_aa4:cir_x <- $r0
	@DEBUG_VALUE: lv_draw_mask_radius_init:rect <- [DW_OP_LLVM_entry_value 1] $r1
	@DEBUG_VALUE: tmp_val <- $r3
	.loc	5 1381 25                       @ ../GUILib/src/draw/lv_draw_mask.c:1381:25
	strh.w	r1, [r0, r8, lsl #1]
	.loc	5 1382 25                       @ ../GUILib/src/draw/lv_draw_mask.c:1382:25
	strh.w	r1, [r11, r8, lsl #1]
	.loc	5 1383 12                       @ ../GUILib/src/draw/lv_draw_mask.c:1383:12
	ldr	r1, [r4, #4]
.Ltmp683:
	.loc	5 1385 17                       @ ../GUILib/src/draw/lv_draw_mask.c:1385:17
	adds	r2, #1
.Ltmp684:
	@DEBUG_VALUE: circ_calc_aa4:cir_size <- $r2
	.loc	5 1383 30                       @ ../GUILib/src/draw/lv_draw_mask.c:1383:30
	strb.w	r3, [r1, r8]
	.loc	5 1384 12                       @ ../GUILib/src/draw/lv_draw_mask.c:1384:12
	ldr	r1, [r4, #4]
	.loc	5 1384 30 is_stmt 0             @ ../GUILib/src/draw/lv_draw_mask.c:1384:30
	ldrb.w	r3, [r1, r8]
.Ltmp685:
	lsls	r3, r3, #4
	strb.w	r3, [r1, r8]
.Ltmp686:
	.loc	5 1389 13 is_stmt 1             @ ../GUILib/src/draw/lv_draw_mask.c:1389:13
	sxth.w	r8, r2
.Ltmp687:
.LBB14_46:
	@DEBUG_VALUE: circ_calc_aa4:cir_y <- $r11
	@DEBUG_VALUE: circ_calc_aa4:radius <- $r10
	@DEBUG_VALUE: lv_draw_mask_radius_init:radius <- $r10
	@DEBUG_VALUE: circ_calc_aa4:cp <- [DW_OP_LLVM_fragment 0 16] $r5
	@DEBUG_VALUE: circ_calc_aa4:c <- $r4
	@DEBUG_VALUE: lv_draw_mask_radius_init:entry <- $r4
	@DEBUG_VALUE: circ_calc_aa4:cir_x <- $r0
	@DEBUG_VALUE: lv_draw_mask_radius_init:rect <- [DW_OP_LLVM_entry_value 1] $r1
	@DEBUG_VALUE: circ_calc_aa4:cir_size <- $r2
	@DEBUG_VALUE: circ_calc_aa4:i <- [DW_OP_constu 2, DW_OP_minus, DW_OP_stack_value] $r8
	.loc	5 1389 29 is_stmt 0             @ ../GUILib/src/draw/lv_draw_mask.c:1389:29
	sxth	r1, r2
.Ltmp688:
	.loc	5 1389 5                        @ ../GUILib/src/draw/lv_draw_mask.c:1389:5
	cmp	r1, #2
	blt	.LBB14_50
.Ltmp689:
@ %bb.47:
	@DEBUG_VALUE: circ_calc_aa4:cir_y <- $r11
	@DEBUG_VALUE: circ_calc_aa4:radius <- $r10
	@DEBUG_VALUE: lv_draw_mask_radius_init:radius <- $r10
	@DEBUG_VALUE: circ_calc_aa4:i <- [DW_OP_constu 2, DW_OP_minus, DW_OP_stack_value] $r8
	@DEBUG_VALUE: circ_calc_aa4:cp <- [DW_OP_LLVM_fragment 0 16] $r5
	@DEBUG_VALUE: circ_calc_aa4:c <- $r4
	@DEBUG_VALUE: lv_draw_mask_radius_init:entry <- $r4
	@DEBUG_VALUE: circ_calc_aa4:cir_size <- $r2
	@DEBUG_VALUE: circ_calc_aa4:cir_x <- $r0
	@DEBUG_VALUE: lv_draw_mask_radius_init:rect <- [DW_OP_LLVM_entry_value 1] $r1
	@DEBUG_VALUE: circ_calc_aa4:i <- [DW_OP_constu 2, DW_OP_minus, DW_OP_stack_value] $r8
	subs	r1, r0, #4
	add.w	r7, r0, r10, lsl #2
.Ltmp690:
	.p2align	2
.LBB14_48:                              @ =>This Inner Loop Header: Depth=1
	@DEBUG_VALUE: circ_calc_aa4:cir_y <- $r11
	@DEBUG_VALUE: circ_calc_aa4:radius <- $r10
	@DEBUG_VALUE: lv_draw_mask_radius_init:radius <- $r10
	@DEBUG_VALUE: circ_calc_aa4:c <- $r4
	@DEBUG_VALUE: lv_draw_mask_radius_init:entry <- $r4
	@DEBUG_VALUE: circ_calc_aa4:cir_size <- $r2
	@DEBUG_VALUE: circ_calc_aa4:cir_x <- $r0
	@DEBUG_VALUE: lv_draw_mask_radius_init:rect <- [DW_OP_LLVM_entry_value 1] $r1
	@DEBUG_VALUE: circ_calc_aa4:cir_size <- $r2
	@DEBUG_VALUE: circ_calc_aa4:i <- [DW_OP_constu 2, DW_OP_minus, DW_OP_stack_value] $r8
	.loc	5 1390 27 is_stmt 1             @ ../GUILib/src/draw/lv_draw_mask.c:1390:27
	ldrh.w	r3, [r7, r8, lsl #1]
	.loc	5 1390 9 is_stmt 0              @ ../GUILib/src/draw/lv_draw_mask.c:1390:9
	sxth	r6, r2
	.loc	5 1390 25                       @ ../GUILib/src/draw/lv_draw_mask.c:1390:25
	strh.w	r3, [r0, r6, lsl #1]
	.loc	5 1391 27 is_stmt 1             @ ../GUILib/src/draw/lv_draw_mask.c:1391:27
	ldrh.w	r3, [r1, r8, lsl #1]
.Ltmp691:
	.loc	5 1389 48                       @ ../GUILib/src/draw/lv_draw_mask.c:1389:48
	adds	r2, #1
.Ltmp692:
	@DEBUG_VALUE: circ_calc_aa4:cir_size <- $r2
	.loc	5 1391 25                       @ ../GUILib/src/draw/lv_draw_mask.c:1391:25
	strh.w	r3, [r11, r6, lsl #1]
	.loc	5 1392 35                       @ ../GUILib/src/draw/lv_draw_mask.c:1392:35
	ldr	r3, [r4, #4]
	.loc	5 1392 32 is_stmt 0             @ ../GUILib/src/draw/lv_draw_mask.c:1392:32
	add.w	r5, r3, r8
	ldrb	r5, [r5, #-2]
	.loc	5 1392 30                       @ ../GUILib/src/draw/lv_draw_mask.c:1392:30
	strb	r5, [r3, r6]
.Ltmp693:
	@DEBUG_VALUE: circ_calc_aa4:i <- [DW_OP_constu 3, DW_OP_minus, DW_OP_stack_value] $r8
	.loc	5 1389 29 is_stmt 1             @ ../GUILib/src/draw/lv_draw_mask.c:1389:29
	sub.w	r3, r8, #2
	sub.w	r8, r8, #1
.Ltmp694:
	.loc	5 1389 5 is_stmt 0              @ ../GUILib/src/draw/lv_draw_mask.c:1389:5
	cmp	r3, #0
	bgt	.LBB14_48
.Ltmp695:
@ %bb.49:
	@DEBUG_VALUE: circ_calc_aa4:cir_y <- $r11
	@DEBUG_VALUE: circ_calc_aa4:radius <- $r10
	@DEBUG_VALUE: lv_draw_mask_radius_init:radius <- $r10
	@DEBUG_VALUE: circ_calc_aa4:c <- $r4
	@DEBUG_VALUE: lv_draw_mask_radius_init:entry <- $r4
	@DEBUG_VALUE: circ_calc_aa4:cir_size <- $r2
	@DEBUG_VALUE: circ_calc_aa4:cir_x <- $r0
	@DEBUG_VALUE: lv_draw_mask_radius_init:rect <- [DW_OP_LLVM_entry_value 1] $r1
	.loc	5 1398 15 is_stmt 1             @ ../GUILib/src/draw/lv_draw_mask.c:1398:15
	sxth.w	r8, r2
.Ltmp696:
.LBB14_50:
	@DEBUG_VALUE: circ_calc_aa4:cir_y <- $r11
	@DEBUG_VALUE: circ_calc_aa4:radius <- $r10
	@DEBUG_VALUE: lv_draw_mask_radius_init:radius <- $r10
	@DEBUG_VALUE: circ_calc_aa4:c <- $r4
	@DEBUG_VALUE: lv_draw_mask_radius_init:entry <- $r4
	@DEBUG_VALUE: circ_calc_aa4:cir_size <- $r2
	@DEBUG_VALUE: circ_calc_aa4:cir_x <- $r0
	@DEBUG_VALUE: lv_draw_mask_radius_init:rect <- [DW_OP_LLVM_entry_value 1] $r1
	@DEBUG_VALUE: circ_calc_aa4:i <- 0
