	.text
	.syntax unified
	.eabi_attribute	67, "2.09"	@ Tag_conformance
	.cpu	cortex-m4
	.eabi_attribute	6, 13	@ Tag_CPU_arch
	.eabi_attribute	7, 77	@ Tag_CPU_arch_profile
	.eabi_attribute	8, 0	@ Tag_ARM_ISA_use
	.eabi_attribute	9, 2	@ Tag_THUMB_ISA_use
	.fpu	fpv4-sp-d16
	.eabi_attribute	27, 1	@ Tag_ABI_HardFP_use
	.eabi_attribute	36, 1	@ Tag_FP_HP_extension
	.eabi_attribute	34, 1	@ Tag_CPU_unaligned_access
	.eabi_attribute	17, 1	@ Tag_ABI_PCS_GOT_use
	.eabi_attribute	20, 2	@ Tag_ABI_FP_denormal
	.eabi_attribute	21, 0	@ Tag_ABI_FP_exceptions
	.eabi_attribute	23, 1	@ Tag_ABI_FP_number_model
	.eabi_attribute	24, 1	@ Tag_ABI_align_needed
	.eabi_attribute	25, 1	@ Tag_ABI_align_preserved
	.eabi_attribute	28, 1	@ Tag_ABI_VFP_args
	.eabi_attribute	38, 1	@ Tag_ABI_FP_16bit_format
	.eabi_attribute	18, 2	@ Tag_ABI_PCS_wchar_t
	.eabi_attribute	26, 1	@ Tag_ABI_enum_size
	.eabi_attribute	14, 0	@ Tag_ABI_PCS_R9_use
	.file	"lv_draw_blend.c"
	.file	1 "C:\\Users\\Hyacincher\\Desktop\\HyTelectrl\\Code\\Project" "../GUILib/src/draw/lv_draw_mask.h"
	.file	2 "C:\\Users\\Hyacincher\\Desktop\\HyTelectrl\\Code\\Project" "../GUILib/src/draw/../core/lv_event.h"
	.file	3 "C:\\Users\\Hyacincher\\Desktop\\HyTelectrl\\Code\\Project" "../GUILib/src/draw/../core/../misc/lv_style.h"
	.file	4 "C:\\Users\\Hyacincher\\Desktop\\HyTelectrl\\Code\\Project" "../GUILib/src/draw/../core/../misc/lv_color.h"
	.file	5 "D:\\Keil MDK\\ARM\\ARMCLANG\\Bin\\..\\include" "stdint.h"
	.file	6 "C:\\Users\\Hyacincher\\Desktop\\HyTelectrl\\Code\\Project" "../GUILib/src/draw/../core/../misc/lv_area.h"
	.file	7 "C:\\Users\\Hyacincher\\Desktop\\HyTelectrl\\Code\\Project" "../GUILib/src/draw/../core/../misc/lv_types.h"
	.section	.text._lv_blend_fill,"ax",%progbits
	.hidden	_lv_blend_fill                  @ -- Begin function _lv_blend_fill
	.globl	_lv_blend_fill
	.p2align	1
	.type	_lv_blend_fill,%function
	.code	16                              @ @_lv_blend_fill
	.thumb_func
_lv_blend_fill:
.Lfunc_begin0:
	.file	8 "C:\\Users\\Hyacincher\\Desktop\\HyTelectrl\\Code\\Project" "../GUILib/src/draw/lv_draw_blend.c"
	.loc	8 132 0                         @ ../GUILib/src/draw/lv_draw_blend.c:132:0
	.fnstart
	.cfi_sections .debug_frame
	.cfi_startproc
@ %bb.0:
	@DEBUG_VALUE: _lv_blend_fill:clip_area <- $r0
	@DEBUG_VALUE: _lv_blend_fill:fill_area <- $r1
	@DEBUG_VALUE: _lv_blend_fill:mask <- $r3
	.save	{r4, r5, r6, r7, r8, r9, r10, r11, lr}
	push.w	{r4, r5, r6, r7, r8, r9, r10, r11, lr}
	.cfi_def_cfa_offset 36
	.cfi_offset lr, -4
	.cfi_offset r11, -8
	.cfi_offset r10, -12
	.cfi_offset r9, -16
	.cfi_offset r8, -20
	.cfi_offset r7, -24
	.cfi_offset r6, -28
	.cfi_offset r5, -32
	.cfi_offset r4, -36
	.pad	#44
	sub	sp, #44
	.cfi_def_cfa_offset 80
	ldr	r5, [sp, #80]
.Ltmp0:
	@DEBUG_VALUE: _lv_blend_fill:color <- [DW_OP_LLVM_convert 32 7, DW_OP_LLVM_convert 16 7, DW_OP_stack_value] $r2
	@DEBUG_VALUE: _lv_blend_fill:mask_res <- $r5
	@DEBUG_VALUE: _lv_blend_fill:mask <- $r3
	@DEBUG_VALUE: _lv_blend_fill:fill_area <- $r1
	.loc	8 134 8 prologue_end            @ ../GUILib/src/draw/lv_draw_blend.c:134:8
	cmp	r5, #0
	@DEBUG_VALUE: _lv_blend_fill:opa <- undef
	@DEBUG_VALUE: _lv_blend_fill:mode <- undef
	@DEBUG_VALUE: _lv_blend_fill:clip_area <- $r0
	beq.w	.LBB0_31
.Ltmp1:
@ %bb.1:
	@DEBUG_VALUE: _lv_blend_fill:mask_res <- $r5
	@DEBUG_VALUE: _lv_blend_fill:mask <- $r3
	@DEBUG_VALUE: _lv_blend_fill:color <- [DW_OP_LLVM_convert 32 7, DW_OP_LLVM_convert 16 7, DW_OP_stack_value] $r2
	@DEBUG_VALUE: _lv_blend_fill:fill_area <- $r1
	@DEBUG_VALUE: _lv_blend_fill:clip_area <- $r0
	@DEBUG_VALUE: _lv_blend_fill:mask <- $r3
	@DEBUG_VALUE: _lv_blend_fill:color <- [DW_OP_LLVM_convert 32 7, DW_OP_LLVM_convert 16 7, DW_OP_stack_value] $r2
	@DEBUG_VALUE: _lv_blend_fill:fill_area <- $r1
	.loc	8 0 8 is_stmt 0                 @ ../GUILib/src/draw/lv_draw_blend.c:0:8
	mov	r4, r0
.Ltmp2:
	@DEBUG_VALUE: _lv_blend_fill:clip_area <- $r4
	@DEBUG_VALUE: _lv_blend_fill:clip_area <- $r4
	@DEBUG_VALUE: _lv_blend_fill:mode <- undef
	ldr	r0, [sp, #84]
.Ltmp3:
	@DEBUG_VALUE: _lv_blend_fill:opa <- $r0
	.loc	8 134 8                         @ ../GUILib/src/draw/lv_draw_blend.c:134:8
	cmp	r0, #2
	blo.w	.LBB0_31
.Ltmp4:
@ %bb.2:
	@DEBUG_VALUE: _lv_blend_fill:mask_res <- $r5
	@DEBUG_VALUE: _lv_blend_fill:clip_area <- $r4
	@DEBUG_VALUE: _lv_blend_fill:mask <- $r3
	@DEBUG_VALUE: _lv_blend_fill:color <- [DW_OP_LLVM_convert 32 7, DW_OP_LLVM_convert 16 7, DW_OP_stack_value] $r2
	@DEBUG_VALUE: _lv_blend_fill:fill_area <- $r1
	@DEBUG_VALUE: _lv_blend_fill:opa <- $r0
	.loc	8 0 8                           @ ../GUILib/src/draw/lv_draw_blend.c:0:8
	mov	r11, r3
.Ltmp5:
	@DEBUG_VALUE: _lv_blend_fill:mask <- $r11
	@DEBUG_VALUE: _lv_blend_fill:mask <- $r11
	mov	r8, r2
.Ltmp6:
	@DEBUG_VALUE: _lv_blend_fill:color <- [DW_OP_LLVM_convert 32 7, DW_OP_LLVM_convert 16 7, DW_OP_stack_value] $r8
	@DEBUG_VALUE: _lv_blend_fill:color <- [DW_OP_LLVM_convert 32 7, DW_OP_LLVM_convert 16 7, DW_OP_stack_value] $r8
	mov	r7, r1
.Ltmp7:
	@DEBUG_VALUE: _lv_blend_fill:fill_area <- $r7
	@DEBUG_VALUE: _lv_blend_fill:fill_area <- $r7
	@DEBUG_VALUE: _lv_blend_fill:mode <- undef
	.loc	8 137 24 is_stmt 1              @ ../GUILib/src/draw/lv_draw_blend.c:137:24
	bl	_lv_refr_get_disp_refreshing
.Ltmp8:
	mov	r10, r0
.Ltmp9:
	@DEBUG_VALUE: _lv_blend_fill:disp <- $r10
	.loc	8 138 37                        @ ../GUILib/src/draw/lv_draw_blend.c:138:37
	bl	lv_disp_get_draw_buf
.Ltmp10:
	.loc	8 142 14                        @ ../GUILib/src/draw/lv_draw_blend.c:142:14
	ldr.w	r1, [r10]
.Ltmp11:
	.loc	8 138 37                        @ ../GUILib/src/draw/lv_draw_blend.c:138:37
	mov	r6, r0
.Ltmp12:
	@DEBUG_VALUE: _lv_blend_fill:disp_area <- [DW_OP_plus_uconst 16, DW_OP_stack_value] $r6
	@DEBUG_VALUE: _lv_blend_fill:draw_buf <- $r6
	.loc	8 142 22                        @ ../GUILib/src/draw/lv_draw_blend.c:142:22
	ldr	r2, [r1, #44]
.Ltmp13:
	.loc	8 140 39                        @ ../GUILib/src/draw/lv_draw_blend.c:140:39
	ldr	r0, [r0, #8]
.Ltmp14:
	@DEBUG_VALUE: _lv_blend_fill:disp_buf <- $r0
	.loc	8 142 8                         @ ../GUILib/src/draw/lv_draw_blend.c:142:8
	str	r0, [sp, #32]                   @ 4-byte Spill
.Ltmp15:
	@DEBUG_VALUE: _lv_blend_fill:disp_buf <- [DW_OP_plus_uconst 32] [$sp+0]
	@DEBUG_VALUE: _lv_blend_fill:disp_buf <- [DW_OP_plus_uconst 32] [$sp+0]
	cbz	r2, .LBB0_4
.Ltmp16:
@ %bb.3:
	@DEBUG_VALUE: _lv_blend_fill:mask <- $r11
	@DEBUG_VALUE: _lv_blend_fill:disp <- $r10
	@DEBUG_VALUE: _lv_blend_fill:color <- [DW_OP_LLVM_convert 32 7, DW_OP_LLVM_convert 16 7, DW_OP_stack_value] $r8
	@DEBUG_VALUE: _lv_blend_fill:fill_area <- $r7
	@DEBUG_VALUE: _lv_blend_fill:draw_buf <- $r6
	@DEBUG_VALUE: _lv_blend_fill:disp_area <- [DW_OP_plus_uconst 16, DW_OP_stack_value] $r6
	@DEBUG_VALUE: _lv_blend_fill:mask_res <- $r5
	@DEBUG_VALUE: _lv_blend_fill:clip_area <- $r4
	@DEBUG_VALUE: _lv_blend_fill:disp_buf <- [DW_OP_plus_uconst 32] [$sp+0]
	.loc	8 142 35 is_stmt 0              @ ../GUILib/src/draw/lv_draw_blend.c:142:35
	mov	r0, r1
	blx	r2
.Ltmp17:
.LBB0_4:
	@DEBUG_VALUE: _lv_blend_fill:mask <- $r11
	@DEBUG_VALUE: _lv_blend_fill:disp <- $r10
	@DEBUG_VALUE: _lv_blend_fill:color <- [DW_OP_LLVM_convert 32 7, DW_OP_LLVM_convert 16 7, DW_OP_stack_value] $r8
	@DEBUG_VALUE: _lv_blend_fill:fill_area <- $r7
	@DEBUG_VALUE: _lv_blend_fill:draw_buf <- $r6
	@DEBUG_VALUE: _lv_blend_fill:disp_area <- [DW_OP_plus_uconst 16, DW_OP_stack_value] $r6
	@DEBUG_VALUE: _lv_blend_fill:mask_res <- $r5
	@DEBUG_VALUE: _lv_blend_fill:clip_area <- $r4
	@DEBUG_VALUE: _lv_blend_fill:disp_buf <- [DW_OP_plus_uconst 32] [$sp+0]
	@DEBUG_VALUE: _lv_blend_fill:mode <- undef
	.loc	8 0 35                          @ ../GUILib/src/draw/lv_draw_blend.c:0:35
	add	r0, sp, #36
.Ltmp18:
	.loc	8 147 9 is_stmt 1               @ ../GUILib/src/draw/lv_draw_blend.c:147:9
	mov	r1, r4
	mov	r2, r7
	bl	_lv_area_intersect
.Ltmp19:
	.loc	8 147 8 is_stmt 0               @ ../GUILib/src/draw/lv_draw_blend.c:147:8
	cmp	r0, #0
	beq.w	.LBB0_31
.Ltmp20:
@ %bb.5:
	@DEBUG_VALUE: _lv_blend_fill:mask <- $r11
	@DEBUG_VALUE: _lv_blend_fill:disp <- $r10
	@DEBUG_VALUE: _lv_blend_fill:color <- [DW_OP_LLVM_convert 32 7, DW_OP_LLVM_convert 16 7, DW_OP_stack_value] $r8
	@DEBUG_VALUE: _lv_blend_fill:fill_area <- $r7
	@DEBUG_VALUE: _lv_blend_fill:draw_buf <- $r6
	@DEBUG_VALUE: _lv_blend_fill:disp_area <- [DW_OP_plus_uconst 16, DW_OP_stack_value] $r6
	@DEBUG_VALUE: _lv_blend_fill:mask_res <- $r5
	@DEBUG_VALUE: _lv_blend_fill:clip_area <- $r4
	@DEBUG_VALUE: _lv_blend_fill:disp_buf <- [DW_OP_plus_uconst 32] [$sp+0]
	@DEBUG_VALUE: _lv_blend_fill:mode <- undef
	.loc	8 151 42 is_stmt 1              @ ../GUILib/src/draw/lv_draw_blend.c:151:42
	ldrh	r0, [r6, #16]
	.loc	8 151 58 is_stmt 0              @ ../GUILib/src/draw/lv_draw_blend.c:151:58
	ldrh	r1, [r6, #18]
	.loc	8 151 30                        @ ../GUILib/src/draw/lv_draw_blend.c:151:30
	rsbs	r0, r0, #0
	.loc	8 151 46                        @ ../GUILib/src/draw/lv_draw_blend.c:151:46
	rsbs	r2, r1, #0
	.loc	8 151 5                         @ ../GUILib/src/draw/lv_draw_blend.c:151:5
	sxth	r1, r0
	sxth	r2, r2
	add	r0, sp, #36
	bl	lv_area_move
.Ltmp21:
	.loc	8 154 13 is_stmt 1              @ ../GUILib/src/draw/lv_draw_blend.c:154:13
	cmp.w	r11, #0
	beq	.LBB0_10
.Ltmp22:
@ %bb.6:
	@DEBUG_VALUE: _lv_blend_fill:mask <- $r11
	@DEBUG_VALUE: _lv_blend_fill:disp <- $r10
	@DEBUG_VALUE: _lv_blend_fill:color <- [DW_OP_LLVM_convert 32 7, DW_OP_LLVM_convert 16 7, DW_OP_stack_value] $r8
	@DEBUG_VALUE: _lv_blend_fill:fill_area <- $r7
	@DEBUG_VALUE: _lv_blend_fill:draw_buf <- $r6
	@DEBUG_VALUE: _lv_blend_fill:disp_area <- [DW_OP_plus_uconst 16, DW_OP_stack_value] $r6
	@DEBUG_VALUE: _lv_blend_fill:mask_res <- $r5
	@DEBUG_VALUE: _lv_blend_fill:clip_area <- $r4
	@DEBUG_VALUE: _lv_blend_fill:disp_buf <- [DW_OP_plus_uconst 32] [$sp+0]
	.loc	8 154 22 is_stmt 0              @ ../GUILib/src/draw/lv_draw_blend.c:154:22
	ldr.w	r0, [r10]
	.loc	8 154 48                        @ ../GUILib/src/draw/lv_draw_blend.c:154:48
	ldrb	r0, [r0, #16]
	lsls	r0, r0, #28
	bmi	.LBB0_10
.Ltmp23:
@ %bb.7:
	@DEBUG_VALUE: _lv_blend_fill:mask <- $r11
	@DEBUG_VALUE: _lv_blend_fill:disp <- $r10
	@DEBUG_VALUE: _lv_blend_fill:color <- [DW_OP_LLVM_convert 32 7, DW_OP_LLVM_convert 16 7, DW_OP_stack_value] $r8
	@DEBUG_VALUE: _lv_blend_fill:fill_area <- $r7
	@DEBUG_VALUE: _lv_blend_fill:draw_buf <- $r6
	@DEBUG_VALUE: _lv_blend_fill:disp_area <- [DW_OP_plus_uconst 16, DW_OP_stack_value] $r6
	@DEBUG_VALUE: _lv_blend_fill:mask_res <- $r5
	@DEBUG_VALUE: _lv_blend_fill:clip_area <- $r4
	@DEBUG_VALUE: _lv_blend_fill:disp_buf <- [DW_OP_plus_uconst 32] [$sp+0]
	@DEBUG_VALUE: lv_area_get_width:area_p <- [DW_OP_plus_uconst 36, DW_OP_stack_value] $sp
	.loc	6 125 33 is_stmt 1              @ ../GUILib/src/draw/../core/../misc/lv_area.h:125:33
	ldrh.w	r0, [sp, #40]
	.loc	6 125 46 is_stmt 0              @ ../GUILib/src/draw/../core/../misc/lv_area.h:125:46
	ldrh.w	r1, [sp, #36]
	.loc	6 125 49                        @ ../GUILib/src/draw/../core/../misc/lv_area.h:125:49
	subs	r0, r0, r1
	adds	r0, #1
	sxth	r0, r0
.Ltmp24:
	@DEBUG_VALUE: i <- 0
	@DEBUG_VALUE: mask_w <- $r0
	.loc	8 157 9 is_stmt 1               @ ../GUILib/src/draw/lv_draw_blend.c:157:9
	cmp	r0, #1
	blt	.LBB0_10
.Ltmp25:
@ %bb.8:
	@DEBUG_VALUE: _lv_blend_fill:mask <- $r11
	@DEBUG_VALUE: _lv_blend_fill:disp <- $r10
	@DEBUG_VALUE: _lv_blend_fill:color <- [DW_OP_LLVM_convert 32 7, DW_OP_LLVM_convert 16 7, DW_OP_stack_value] $r8
	@DEBUG_VALUE: _lv_blend_fill:fill_area <- $r7
	@DEBUG_VALUE: _lv_blend_fill:draw_buf <- $r6
	@DEBUG_VALUE: _lv_blend_fill:disp_area <- [DW_OP_plus_uconst 16, DW_OP_stack_value] $r6
	@DEBUG_VALUE: _lv_blend_fill:mask_res <- $r5
	@DEBUG_VALUE: _lv_blend_fill:clip_area <- $r4
	@DEBUG_VALUE: mask_w <- $r0
	@DEBUG_VALUE: lv_area_get_width:area_p <- [DW_OP_plus_uconst 36, DW_OP_stack_value] $sp
	@DEBUG_VALUE: _lv_blend_fill:disp_buf <- [DW_OP_plus_uconst 32] [$sp+0]
	@DEBUG_VALUE: i <- 0
	.loc	8 0 9 is_stmt 0                 @ ../GUILib/src/draw/lv_draw_blend.c:0:9
	mov	r1, r11
.Ltmp26:
	.p2align	2
.LBB0_9:                                @ =>This Inner Loop Header: Depth=1
	@DEBUG_VALUE: _lv_blend_fill:mask <- $r11
	@DEBUG_VALUE: _lv_blend_fill:disp <- $r10
	@DEBUG_VALUE: _lv_blend_fill:color <- [DW_OP_LLVM_convert 32 7, DW_OP_LLVM_convert 16 7, DW_OP_stack_value] $r8
	@DEBUG_VALUE: _lv_blend_fill:fill_area <- $r7
	@DEBUG_VALUE: _lv_blend_fill:draw_buf <- $r6
	@DEBUG_VALUE: _lv_blend_fill:disp_area <- [DW_OP_plus_uconst 16, DW_OP_stack_value] $r6
	@DEBUG_VALUE: _lv_blend_fill:mask_res <- $r5
	@DEBUG_VALUE: _lv_blend_fill:clip_area <- $r4
	@DEBUG_VALUE: _lv_blend_fill:disp_buf <- [DW_OP_plus_uconst 32] [$sp+0]
	@DEBUG_VALUE: i <- undef
	.loc	8 157 48                        @ ../GUILib/src/draw/lv_draw_blend.c:157:48
	ldrb	r2, [r1]
	cmp	r2, #128
	mov.w	r2, #0
	it	hi
	movhi.w	r2, #-1
	.loc	8 157 22                        @ ../GUILib/src/draw/lv_draw_blend.c:157:22
	subs	r0, #1
	.loc	8 157 46                        @ ../GUILib/src/draw/lv_draw_blend.c:157:46
	strb	r2, [r1], #1
.Ltmp27:
	@DEBUG_VALUE: i <- [DW_OP_plus_uconst 1, DW_OP_stack_value] undef
	.loc	8 157 9                         @ ../GUILib/src/draw/lv_draw_blend.c:157:9
	bne	.LBB0_9
.Ltmp28:
.LBB0_10:
	@DEBUG_VALUE: _lv_blend_fill:mask <- $r11
	@DEBUG_VALUE: _lv_blend_fill:disp <- $r10
	@DEBUG_VALUE: _lv_blend_fill:color <- [DW_OP_LLVM_convert 32 7, DW_OP_LLVM_convert 16 7, DW_OP_stack_value] $r8
	@DEBUG_VALUE: _lv_blend_fill:fill_area <- $r7
	@DEBUG_VALUE: _lv_blend_fill:draw_buf <- $r6
	@DEBUG_VALUE: _lv_blend_fill:disp_area <- [DW_OP_plus_uconst 16, DW_OP_stack_value] $r6
	@DEBUG_VALUE: _lv_blend_fill:mask_res <- $r5
	@DEBUG_VALUE: _lv_blend_fill:clip_area <- $r4
	@DEBUG_VALUE: _lv_blend_fill:disp_buf <- [DW_OP_plus_uconst 32] [$sp+0]
	@DEBUG_VALUE: _lv_blend_fill:mode <- undef
	.loc	8 160 14 is_stmt 1              @ ../GUILib/src/draw/lv_draw_blend.c:160:14
	ldr.w	r0, [r10]
	.loc	8 160 22 is_stmt 0              @ ../GUILib/src/draw/lv_draw_blend.c:160:22
	ldr	r0, [r0, #28]
.Ltmp29:
	.loc	8 160 8                         @ ../GUILib/src/draw/lv_draw_blend.c:160:8
	cmp	r0, #0
	beq	.LBB0_19
.Ltmp30:
@ %bb.11:
	@DEBUG_VALUE: _lv_blend_fill:mask <- $r11
	@DEBUG_VALUE: _lv_blend_fill:disp <- $r10
	@DEBUG_VALUE: _lv_blend_fill:color <- [DW_OP_LLVM_convert 32 7, DW_OP_LLVM_convert 16 7, DW_OP_stack_value] $r8
	@DEBUG_VALUE: _lv_blend_fill:fill_area <- $r7
	@DEBUG_VALUE: _lv_blend_fill:draw_buf <- $r6
	@DEBUG_VALUE: _lv_blend_fill:disp_area <- [DW_OP_plus_uconst 16, DW_OP_stack_value] $r6
	@DEBUG_VALUE: _lv_blend_fill:mask_res <- $r5
	@DEBUG_VALUE: _lv_blend_fill:clip_area <- $r4
	@DEBUG_VALUE: _lv_blend_fill:disp_buf <- [DW_OP_plus_uconst 32] [$sp+0]
	.loc	8 161 9 is_stmt 1               @ ../GUILib/src/draw/lv_draw_blend.c:161:9
	uxth.w	r8, r8
.Ltmp31:
	@DEBUG_VALUE: fill_set_px:mask_res <- $r5
	@DEBUG_VALUE: fill_set_px:mask <- $r11
	@DEBUG_VALUE: fill_set_px:opa <- undef
	@DEBUG_VALUE: fill_set_px:draw_area <- [DW_OP_plus_uconst 36, DW_OP_stack_value] $sp
	@DEBUG_VALUE: fill_set_px:disp_buf <- [DW_OP_plus_uconst 32] [$sp+0]
	@DEBUG_VALUE: fill_set_px:disp_area <- [DW_OP_plus_uconst 16, DW_OP_stack_value] $r6
	@DEBUG_VALUE: fill_set_px:color <- [DW_OP_LLVM_convert 32 7, DW_OP_LLVM_convert 16 7, DW_OP_stack_value] $r8
	.loc	8 244 24                        @ ../GUILib/src/draw/lv_draw_blend.c:244:24
	bl	_lv_refr_get_disp_refreshing
.Ltmp32:
	.loc	6 125 33                        @ ../GUILib/src/draw/../core/../misc/lv_area.h:125:33
	ldrh	r1, [r6, #20]
	.loc	6 125 46 is_stmt 0              @ ../GUILib/src/draw/../core/../misc/lv_area.h:125:46
	ldrh	r2, [r6, #16]
.Ltmp33:
	.loc	8 244 24 is_stmt 1              @ ../GUILib/src/draw/lv_draw_blend.c:244:24
	mov	r9, r0
.Ltmp34:
	@DEBUG_VALUE: lv_area_get_width:area_p <- [DW_OP_plus_uconst 16, DW_OP_stack_value] undef
	@DEBUG_VALUE: fill_set_px:disp <- $r9
	.loc	6 125 49                        @ ../GUILib/src/draw/../core/../misc/lv_area.h:125:49
	subs	r0, r1, r2
.Ltmp35:
	.loc	8 252 8                         @ ../GUILib/src/draw/lv_draw_blend.c:252:8
	cmp	r5, #1
.Ltmp36:
	.loc	6 125 49                        @ ../GUILib/src/draw/../core/../misc/lv_area.h:125:49
	add.w	r10, r0, #1
.Ltmp37:
	@DEBUG_VALUE: fill_set_px:disp_w <- [DW_OP_LLVM_convert 16 5, DW_OP_LLVM_convert 32 5, DW_OP_stack_value] $r10
	.loc	8 252 8                         @ ../GUILib/src/draw/lv_draw_blend.c:252:8
	bne.w	.LBB0_30
.Ltmp38:
@ %bb.12:
	@DEBUG_VALUE: fill_set_px:mask <- $r11
	@DEBUG_VALUE: _lv_blend_fill:mask <- $r11
	@DEBUG_VALUE: fill_set_px:disp_w <- [DW_OP_LLVM_convert 16 5, DW_OP_LLVM_convert 32 5, DW_OP_stack_value] $r10
	@DEBUG_VALUE: fill_set_px:disp <- $r9
	@DEBUG_VALUE: fill_set_px:color <- [DW_OP_LLVM_convert 32 7, DW_OP_LLVM_convert 16 7, DW_OP_stack_value] $r8
	@DEBUG_VALUE: _lv_blend_fill:fill_area <- $r7
	@DEBUG_VALUE: fill_set_px:disp_area <- [DW_OP_plus_uconst 16, DW_OP_stack_value] $r6
	@DEBUG_VALUE: _lv_blend_fill:draw_buf <- $r6
	@DEBUG_VALUE: _lv_blend_fill:disp_area <- [DW_OP_plus_uconst 16, DW_OP_stack_value] $r6
	@DEBUG_VALUE: fill_set_px:mask_res <- $r5
	@DEBUG_VALUE: _lv_blend_fill:mask_res <- $r5
	@DEBUG_VALUE: _lv_blend_fill:clip_area <- $r4
	@DEBUG_VALUE: fill_set_px:disp_buf <- [DW_OP_plus_uconst 32] [$sp+0]
	@DEBUG_VALUE: fill_set_px:draw_area <- [DW_OP_plus_uconst 36, DW_OP_stack_value] $sp
	@DEBUG_VALUE: _lv_blend_fill:disp_buf <- [DW_OP_plus_uconst 32] [$sp+0]
	.loc	8 253 28                        @ ../GUILib/src/draw/lv_draw_blend.c:253:28
	ldrsh.w	r6, [sp, #38]
.Ltmp39:
	@DEBUG_VALUE: fill_set_px:y <- [DW_OP_LLVM_convert 16 5, DW_OP_LLVM_convert 32 5, DW_OP_stack_value] undef
	.loc	8 253 48 is_stmt 0              @ ../GUILib/src/draw/lv_draw_blend.c:253:48
	ldrsh.w	r0, [sp, #42]
.Ltmp40:
	.loc	8 253 9                         @ ../GUILib/src/draw/lv_draw_blend.c:253:9
	cmp	r6, r0
	bgt.w	.LBB0_31
.Ltmp41:
@ %bb.13:
	@DEBUG_VALUE: fill_set_px:mask <- $r11
	@DEBUG_VALUE: _lv_blend_fill:mask <- $r11
	@DEBUG_VALUE: fill_set_px:disp_w <- [DW_OP_LLVM_convert 16 5, DW_OP_LLVM_convert 32 5, DW_OP_stack_value] $r10
	@DEBUG_VALUE: fill_set_px:disp <- $r9
	@DEBUG_VALUE: fill_set_px:color <- [DW_OP_LLVM_convert 32 7, DW_OP_LLVM_convert 16 7, DW_OP_stack_value] $r8
	@DEBUG_VALUE: _lv_blend_fill:fill_area <- $r7
	@DEBUG_VALUE: fill_set_px:mask_res <- $r5
	@DEBUG_VALUE: _lv_blend_fill:mask_res <- $r5
	@DEBUG_VALUE: _lv_blend_fill:clip_area <- $r4
	@DEBUG_VALUE: fill_set_px:disp_buf <- [DW_OP_plus_uconst 32] [$sp+0]
	@DEBUG_VALUE: fill_set_px:draw_area <- [DW_OP_plus_uconst 36, DW_OP_stack_value] $sp
	@DEBUG_VALUE: _lv_blend_fill:disp_buf <- [DW_OP_plus_uconst 32] [$sp+0]
	@DEBUG_VALUE: fill_set_px:y <- $r6
	.loc	8 254 52 is_stmt 1              @ ../GUILib/src/draw/lv_draw_blend.c:254:52
	ldrh.w	r1, [sp, #40]
	movw	r3, #65535
                                        @ implicit-def: $r4
.Ltmp42:
	.p2align	2
.LBB0_14:                               @ =>This Loop Header: Depth=1
                                        @     Child Loop BB0_16 Depth 2
	@DEBUG_VALUE: fill_set_px:disp_w <- [DW_OP_LLVM_convert 16 5, DW_OP_LLVM_convert 32 5, DW_OP_stack_value] $r10
	@DEBUG_VALUE: fill_set_px:disp <- $r9
	@DEBUG_VALUE: fill_set_px:color <- [DW_OP_LLVM_convert 32 7, DW_OP_LLVM_convert 16 7, DW_OP_stack_value] $r8
	@DEBUG_VALUE: fill_set_px:y <- $r6
	@DEBUG_VALUE: fill_set_px:disp_buf <- [DW_OP_plus_uconst 32] [$sp+0]
	@DEBUG_VALUE: fill_set_px:draw_area <- [DW_OP_plus_uconst 36, DW_OP_stack_value] $sp
	@DEBUG_VALUE: _lv_blend_fill:disp_buf <- [DW_OP_plus_uconst 32] [$sp+0]
	@DEBUG_VALUE: fill_set_px:y <- $r6
	.loc	8 254 32 is_stmt 0              @ ../GUILib/src/draw/lv_draw_blend.c:254:32
	ldrsh.w	r7, [sp, #36]
.Ltmp43:
	@DEBUG_VALUE: _lv_blend_fill:fill_area <- [DW_OP_LLVM_entry_value 1] $r1
	@DEBUG_VALUE: fill_set_px:x <- [DW_OP_LLVM_convert 16 5, DW_OP_LLVM_convert 32 5, DW_OP_stack_value] undef
	.loc	8 254 38                        @ ../GUILib/src/draw/lv_draw_blend.c:254:38
	sxth	r2, r1
.Ltmp44:
	.loc	8 254 13                        @ ../GUILib/src/draw/lv_draw_blend.c:254:13
	cmp	r7, r2
	bgt	.LBB0_18
.Ltmp45:
@ %bb.15:                               @   in Loop: Header=BB0_14 Depth=1
	@DEBUG_VALUE: fill_set_px:disp_w <- [DW_OP_LLVM_convert 16 5, DW_OP_LLVM_convert 32 5, DW_OP_stack_value] $r10
	@DEBUG_VALUE: fill_set_px:disp <- $r9
	@DEBUG_VALUE: fill_set_px:color <- [DW_OP_LLVM_convert 32 7, DW_OP_LLVM_convert 16 7, DW_OP_stack_value] $r8
	@DEBUG_VALUE: fill_set_px:y <- $r6
	@DEBUG_VALUE: fill_set_px:disp_buf <- [DW_OP_plus_uconst 32] [$sp+0]
	@DEBUG_VALUE: fill_set_px:draw_area <- [DW_OP_plus_uconst 36, DW_OP_stack_value] $sp
	@DEBUG_VALUE: _lv_blend_fill:disp_buf <- [DW_OP_plus_uconst 32] [$sp+0]
	@DEBUG_VALUE: fill_set_px:x <- $r7
	.loc	8 0 13                          @ ../GUILib/src/draw/lv_draw_blend.c:0:13
	mov	r11, r10
.Ltmp46:
	@DEBUG_VALUE: fill_set_px:disp_w <- [DW_OP_LLVM_convert 16 5, DW_OP_LLVM_convert 32 5, DW_OP_stack_value] $r11
	@DEBUG_VALUE: fill_set_px:disp_w <- [DW_OP_LLVM_convert 16 5, DW_OP_LLVM_convert 32 5, DW_OP_stack_value] $r11
	@DEBUG_VALUE: _lv_blend_fill:mask <- [DW_OP_LLVM_entry_value 1] $r3
	mov	r10, r9
.Ltmp47:
	@DEBUG_VALUE: fill_set_px:disp <- $r10
	@DEBUG_VALUE: fill_set_px:disp <- $r10
	mov	r9, r8
.Ltmp48:
	@DEBUG_VALUE: fill_set_px:color <- [DW_OP_LLVM_convert 32 7, DW_OP_LLVM_convert 16 7, DW_OP_stack_value] $r9
	@DEBUG_VALUE: fill_set_px:color <- [DW_OP_LLVM_convert 32 7, DW_OP_LLVM_convert 16 7, DW_OP_stack_value] $r9
	ldr.w	r8, [sp, #32]                   @ 4-byte Reload
.Ltmp49:
	.p2align	2
.LBB0_16:                               @   Parent Loop BB0_14 Depth=1
                                        @ =>  This Inner Loop Header: Depth=2
	@DEBUG_VALUE: fill_set_px:disp_w <- [DW_OP_LLVM_convert 16 5, DW_OP_LLVM_convert 32 5, DW_OP_stack_value] $r11
	@DEBUG_VALUE: fill_set_px:disp <- $r10
	@DEBUG_VALUE: fill_set_px:color <- [DW_OP_LLVM_convert 32 7, DW_OP_LLVM_convert 16 7, DW_OP_stack_value] $r9
	@DEBUG_VALUE: fill_set_px:x <- $r7
	@DEBUG_VALUE: fill_set_px:y <- $r6
	@DEBUG_VALUE: fill_set_px:disp_buf <- [DW_OP_plus_uconst 32] [$sp+0]
	@DEBUG_VALUE: fill_set_px:draw_area <- [DW_OP_plus_uconst 36, DW_OP_stack_value] $sp
	@DEBUG_VALUE: _lv_blend_fill:disp_buf <- [DW_OP_plus_uconst 32] [$sp+0]
	@DEBUG_VALUE: fill_set_px:x <- $r7
	.loc	8 255 23 is_stmt 1              @ ../GUILib/src/draw/lv_draw_blend.c:255:23
	ldr.w	r0, [r10]
	.loc	8 255 17 is_stmt 0              @ ../GUILib/src/draw/lv_draw_blend.c:255:17
	bic.w	r1, r4, r3
	.loc	8 255 31                        @ ../GUILib/src/draw/lv_draw_blend.c:255:31
	ldr.w	r12, [r0, #28]
	.loc	8 255 17                        @ ../GUILib/src/draw/lv_draw_blend.c:255:17
	add.w	r4, r1, r9
.Ltmp50:
	@DEBUG_VALUE: _lv_blend_fill:clip_area <- [DW_OP_LLVM_entry_value 1] $r0
	sxth	r1, r6
	ldr	r5, [sp, #84]
	strd	r1, r4, [sp]
	sxth.w	r2, r11
	sxth	r3, r7
	mov	r1, r8
	str	r5, [sp, #8]
	blx	r12
.Ltmp51:
	.loc	8 254 41 is_stmt 1              @ ../GUILib/src/draw/lv_draw_blend.c:254:41
	ldrsh.w	r1, [sp, #40]
	movw	r3, #65535
.Ltmp52:
	.loc	8 254 13 is_stmt 0              @ ../GUILib/src/draw/lv_draw_blend.c:254:13
	cmp	r7, r1
.Ltmp53:
	.loc	8 254 57                        @ ../GUILib/src/draw/lv_draw_blend.c:254:57
	add.w	r7, r7, #1
.Ltmp54:
	@DEBUG_VALUE: fill_set_px:x <- $r7
	@DEBUG_VALUE: fill_set_px:x <- $r7
	.loc	8 254 13                        @ ../GUILib/src/draw/lv_draw_blend.c:254:13
	blt	.LBB0_16
.Ltmp55:
@ %bb.17:                               @   in Loop: Header=BB0_14 Depth=1
	@DEBUG_VALUE: fill_set_px:disp_w <- [DW_OP_LLVM_convert 16 5, DW_OP_LLVM_convert 32 5, DW_OP_stack_value] $r11
	@DEBUG_VALUE: fill_set_px:disp <- $r10
	@DEBUG_VALUE: fill_set_px:color <- [DW_OP_LLVM_convert 32 7, DW_OP_LLVM_convert 16 7, DW_OP_stack_value] $r9
	@DEBUG_VALUE: fill_set_px:x <- $r7
	@DEBUG_VALUE: fill_set_px:y <- $r6
	@DEBUG_VALUE: fill_set_px:disp_buf <- [DW_OP_plus_uconst 32] [$sp+0]
	@DEBUG_VALUE: fill_set_px:draw_area <- [DW_OP_plus_uconst 36, DW_OP_stack_value] $sp
	@DEBUG_VALUE: _lv_blend_fill:disp_buf <- [DW_OP_plus_uconst 32] [$sp+0]
	.loc	8 253 48 is_stmt 1              @ ../GUILib/src/draw/lv_draw_blend.c:253:48
	ldrh.w	r0, [sp, #42]
	.loc	8 0 0 is_stmt 0                 @ ../GUILib/src/draw/lv_draw_blend.c:0:0
	uxth	r1, r1
	mov	r8, r9
.Ltmp56:
	@DEBUG_VALUE: fill_set_px:color <- [DW_OP_LLVM_convert 32 7, DW_OP_LLVM_convert 16 7, DW_OP_stack_value] $r8
	@DEBUG_VALUE: fill_set_px:color <- [DW_OP_LLVM_convert 32 7, DW_OP_LLVM_convert 16 7, DW_OP_stack_value] $r8
	mov	r9, r10
.Ltmp57:
	@DEBUG_VALUE: fill_set_px:disp <- $r9
	@DEBUG_VALUE: fill_set_px:disp <- $r9
	mov	r10, r11
.Ltmp58:
	@DEBUG_VALUE: fill_set_px:disp_w <- [DW_OP_LLVM_convert 16 5, DW_OP_LLVM_convert 32 5, DW_OP_stack_value] $r10
	@DEBUG_VALUE: fill_set_px:disp_w <- [DW_OP_LLVM_convert 16 5, DW_OP_LLVM_convert 32 5, DW_OP_stack_value] $r10
.LBB0_18:                               @   in Loop: Header=BB0_14 Depth=1
	@DEBUG_VALUE: fill_set_px:disp_w <- [DW_OP_LLVM_convert 16 5, DW_OP_LLVM_convert 32 5, DW_OP_stack_value] $r10
	@DEBUG_VALUE: fill_set_px:disp <- $r9
	@DEBUG_VALUE: fill_set_px:color <- [DW_OP_LLVM_convert 32 7, DW_OP_LLVM_convert 16 7, DW_OP_stack_value] $r8
	@DEBUG_VALUE: fill_set_px:y <- $r6
	@DEBUG_VALUE: fill_set_px:disp_buf <- [DW_OP_plus_uconst 32] [$sp+0]
	@DEBUG_VALUE: fill_set_px:draw_area <- [DW_OP_plus_uconst 36, DW_OP_stack_value] $sp
	@DEBUG_VALUE: _lv_blend_fill:disp_buf <- [DW_OP_plus_uconst 32] [$sp+0]
	.loc	8 253 37                        @ ../GUILib/src/draw/lv_draw_blend.c:253:37
	sxth	r2, r0
.Ltmp59:
	.loc	8 253 9                         @ ../GUILib/src/draw/lv_draw_blend.c:253:9
	cmp	r6, r2
.Ltmp60:
	.loc	8 253 53                        @ ../GUILib/src/draw/lv_draw_blend.c:253:53
	add.w	r6, r6, #1
.Ltmp61:
	@DEBUG_VALUE: fill_set_px:y <- $r6
	@DEBUG_VALUE: fill_set_px:y <- $r6
	.loc	8 253 9                         @ ../GUILib/src/draw/lv_draw_blend.c:253:9
	blt	.LBB0_14
	b	.LBB0_31
.Ltmp62:
.LBB0_19:
	@DEBUG_VALUE: _lv_blend_fill:mask <- $r11
	@DEBUG_VALUE: _lv_blend_fill:disp <- $r10
	@DEBUG_VALUE: _lv_blend_fill:color <- [DW_OP_LLVM_convert 32 7, DW_OP_LLVM_convert 16 7, DW_OP_stack_value] $r8
	@DEBUG_VALUE: _lv_blend_fill:fill_area <- $r7
	@DEBUG_VALUE: _lv_blend_fill:draw_buf <- $r6
	@DEBUG_VALUE: _lv_blend_fill:disp_area <- [DW_OP_plus_uconst 16, DW_OP_stack_value] $r6
	@DEBUG_VALUE: _lv_blend_fill:mask_res <- $r5
	@DEBUG_VALUE: _lv_blend_fill:clip_area <- $r4
	@DEBUG_VALUE: _lv_blend_fill:disp_buf <- [DW_OP_plus_uconst 32] [$sp+0]
	.loc	8 0 9                           @ ../GUILib/src/draw/lv_draw_blend.c:0:9
	ldr	r0, [sp, #88]
.Ltmp63:
	@DEBUG_VALUE: _lv_blend_fill:mode <- $r0
	uxth.w	r1, r8
.Ltmp64:
	.loc	8 163 13 is_stmt 1              @ ../GUILib/src/draw/lv_draw_blend.c:163:13
	cmp	r0, #0
	str	r1, [sp, #28]                   @ 4-byte Spill
	beq.w	.LBB0_40
.Ltmp65:
@ %bb.20:
	@DEBUG_VALUE: _lv_blend_fill:mask <- $r11
	@DEBUG_VALUE: _lv_blend_fill:disp <- $r10
	@DEBUG_VALUE: _lv_blend_fill:color <- [DW_OP_LLVM_convert 32 7, DW_OP_LLVM_convert 16 7, DW_OP_stack_value] $r8
	@DEBUG_VALUE: _lv_blend_fill:fill_area <- $r7
	@DEBUG_VALUE: _lv_blend_fill:draw_buf <- $r6
	@DEBUG_VALUE: _lv_blend_fill:disp_area <- [DW_OP_plus_uconst 16, DW_OP_stack_value] $r6
	@DEBUG_VALUE: _lv_blend_fill:mask_res <- $r5
	@DEBUG_VALUE: _lv_blend_fill:clip_area <- $r4
	@DEBUG_VALUE: _lv_blend_fill:mode <- $r0
	@DEBUG_VALUE: _lv_blend_fill:disp_buf <- [DW_OP_plus_uconst 32] [$sp+0]
	@DEBUG_VALUE: fill_blended:color <- [DW_OP_plus_uconst 28, DW_OP_deref_size 4, DW_OP_LLVM_convert 32 7, DW_OP_LLVM_convert 16 7, DW_OP_stack_value] $sp
	@DEBUG_VALUE: fill_blended:disp_area <- [DW_OP_plus_uconst 16, DW_OP_stack_value] $r6
	@DEBUG_VALUE: fill_blended:disp_buf <- [DW_OP_plus_uconst 32] [$sp+0]
	@DEBUG_VALUE: fill_blended:draw_area <- [DW_OP_plus_uconst 36, DW_OP_stack_value] $sp
	@DEBUG_VALUE: fill_blended:opa <- undef
	@DEBUG_VALUE: fill_blended:mask <- $r11
	@DEBUG_VALUE: fill_blended:mask_res <- $r5
	@DEBUG_VALUE: fill_blended:mode <- $r0
	@DEBUG_VALUE: lv_area_get_width:area_p <- [DW_OP_plus_uconst 16, DW_OP_stack_value] $r6
	@DEBUG_VALUE: fill_blended:disp_w <- undef
	@DEBUG_VALUE: fill_blended:disp_buf_tmp <- undef
	.loc	8 515 5                         @ ../GUILib/src/draw/lv_draw_blend.c:515:5
	subs	r0, #1
.Ltmp66:
	uxtb	r1, r0
	cmp	r1, #2
	bhi	.LBB0_31
.Ltmp67:
@ %bb.21:
	@DEBUG_VALUE: fill_blended:mask <- $r11
	@DEBUG_VALUE: _lv_blend_fill:mask <- $r11
	@DEBUG_VALUE: _lv_blend_fill:disp <- $r10
	@DEBUG_VALUE: _lv_blend_fill:color <- [DW_OP_LLVM_convert 32 7, DW_OP_LLVM_convert 16 7, DW_OP_stack_value] $r8
	@DEBUG_VALUE: _lv_blend_fill:fill_area <- $r7
	@DEBUG_VALUE: fill_blended:disp_area <- [DW_OP_plus_uconst 16, DW_OP_stack_value] $r6
	@DEBUG_VALUE: _lv_blend_fill:draw_buf <- $r6
	@DEBUG_VALUE: _lv_blend_fill:disp_area <- [DW_OP_plus_uconst 16, DW_OP_stack_value] $r6
	@DEBUG_VALUE: fill_blended:mask_res <- $r5
	@DEBUG_VALUE: _lv_blend_fill:mask_res <- $r5
	@DEBUG_VALUE: _lv_blend_fill:clip_area <- $r4
	@DEBUG_VALUE: fill_blended:draw_area <- [DW_OP_plus_uconst 36, DW_OP_stack_value] $sp
	@DEBUG_VALUE: fill_blended:disp_buf <- [DW_OP_plus_uconst 32] [$sp+0]
	@DEBUG_VALUE: fill_blended:color <- [DW_OP_plus_uconst 28, DW_OP_deref_size 4, DW_OP_LLVM_convert 32 7, DW_OP_LLVM_convert 16 7, DW_OP_stack_value] $sp
	@DEBUG_VALUE: _lv_blend_fill:disp_buf <- [DW_OP_plus_uconst 32] [$sp+0]
	.loc	8 0 0 is_stmt 0                 @ ../GUILib/src/draw/lv_draw_blend.c:0:0
	ldrh	r1, [r6, #20]
	ldrh	r2, [r6, #16]
	ldrsh.w	r4, [sp, #38]
.Ltmp68:
	@DEBUG_VALUE: _lv_blend_fill:clip_area <- [DW_OP_LLVM_entry_value 1] $r0
	subs	r1, r1, r2
	adds	r2, r1, #1
	.loc	8 515 5                         @ ../GUILib/src/draw/lv_draw_blend.c:515:5
	movw	r1, :lower16:.Lswitch.table._lv_blend_map
	sxtb	r0, r0
	movt	r1, :upper16:.Lswitch.table._lv_blend_map
	ldr.w	r10, [r1, r0, lsl #2]
.Ltmp69:
	@DEBUG_VALUE: fill_blended:blend_fp <- $r10
	.loc	8 0 0                           @ ../GUILib/src/draw/lv_draw_blend.c:0:0
	sxth	r1, r2
.Ltmp70:
	@DEBUG_VALUE: fill_blended:disp_w <- $r1
	smulbb	r0, r4, r2
	ldr	r2, [sp, #32]                   @ 4-byte Reload
	.loc	8 534 8 is_stmt 1               @ ../GUILib/src/draw/lv_draw_blend.c:534:8
	cmp	r5, #1
	.loc	8 0 0 is_stmt 0                 @ ../GUILib/src/draw/lv_draw_blend.c:0:0
	add.w	r9, r2, r0, lsl #1
.Ltmp71:
	@DEBUG_VALUE: fill_blended:disp_buf_tmp <- $r9
	.loc	8 534 8                         @ ../GUILib/src/draw/lv_draw_blend.c:534:8
	bne.w	.LBB0_82
.Ltmp72:
@ %bb.22:
	@DEBUG_VALUE: fill_blended:mask <- $r11
	@DEBUG_VALUE: _lv_blend_fill:mask <- $r11
	@DEBUG_VALUE: fill_blended:blend_fp <- $r10
	@DEBUG_VALUE: fill_blended:disp_buf_tmp <- $r9
	@DEBUG_VALUE: _lv_blend_fill:color <- [DW_OP_LLVM_convert 32 7, DW_OP_LLVM_convert 16 7, DW_OP_stack_value] $r8
	@DEBUG_VALUE: _lv_blend_fill:fill_area <- $r7
	@DEBUG_VALUE: fill_blended:disp_area <- [DW_OP_plus_uconst 16, DW_OP_stack_value] $r6
	@DEBUG_VALUE: _lv_blend_fill:draw_buf <- $r6
	@DEBUG_VALUE: _lv_blend_fill:disp_area <- [DW_OP_plus_uconst 16, DW_OP_stack_value] $r6
	@DEBUG_VALUE: fill_blended:mask_res <- $r5
	@DEBUG_VALUE: _lv_blend_fill:mask_res <- $r5
	@DEBUG_VALUE: fill_blended:disp_w <- $r1
	@DEBUG_VALUE: fill_blended:draw_area <- [DW_OP_plus_uconst 36, DW_OP_stack_value] $sp
	@DEBUG_VALUE: fill_blended:disp_buf <- [DW_OP_plus_uconst 32] [$sp+0]
	@DEBUG_VALUE: fill_blended:color <- [DW_OP_plus_uconst 28, DW_OP_deref_size 4, DW_OP_LLVM_convert 32 7, DW_OP_LLVM_convert 16 7, DW_OP_stack_value] $sp
	@DEBUG_VALUE: _lv_blend_fill:disp_buf <- [DW_OP_plus_uconst 32] [$sp+0]
	@DEBUG_VALUE: _lv_blend_fill:clip_area <- [DW_OP_LLVM_entry_value 1] $r0
	@DEBUG_VALUE: fill_blended:disp_buf_tmp <- $r9
	@DEBUG_VALUE: last_dest_color <- 0
	@DEBUG_VALUE: lv_color_mix:c1 <- [DW_OP_plus_uconst 28, DW_OP_deref_size 4, DW_OP_LLVM_convert 32 7, DW_OP_LLVM_convert 16 7, DW_OP_stack_value] $sp
	@DEBUG_VALUE: lv_color_mix:c2 <- [DW_OP_LLVM_convert 32 7, DW_OP_LLVM_convert 16 7, DW_OP_stack_value] 0
	@DEBUG_VALUE: lv_color_mix:mix <- [DW_OP_LLVM_convert 16 7, DW_OP_LLVM_convert 8 7, DW_OP_stack_value] undef
	@DEBUG_VALUE: lv_color_mix:bg <- 0
	@DEBUG_VALUE: lv_color_mix:fg <- undef
	@DEBUG_VALUE: lv_color_mix:result <- undef
	@DEBUG_VALUE: lv_color_mix:ret <- [DW_OP_LLVM_convert 32 7, DW_OP_LLVM_convert 16 7, DW_OP_stack_value] undef
	@DEBUG_VALUE: last_res_color <- [DW_OP_LLVM_convert 32 7, DW_OP_LLVM_convert 16 7, DW_OP_stack_value] undef
	@DEBUG_VALUE: fill_blended:y <- $r4
	.loc	8 537 48 is_stmt 1              @ ../GUILib/src/draw/lv_draw_blend.c:537:48
	ldrsh.w	r2, [sp, #42]
.Ltmp73:
	.loc	8 537 9 is_stmt 0               @ ../GUILib/src/draw/lv_draw_blend.c:537:9
	cmp	r4, r2
	@DEBUG_VALUE: fill_blended:y <- $r4
	bgt	.LBB0_31
.Ltmp74:
@ %bb.23:
	@DEBUG_VALUE: fill_blended:mask <- $r11
	@DEBUG_VALUE: _lv_blend_fill:mask <- $r11
	@DEBUG_VALUE: fill_blended:blend_fp <- $r10
	@DEBUG_VALUE: fill_blended:disp_buf_tmp <- $r9
	@DEBUG_VALUE: _lv_blend_fill:color <- [DW_OP_LLVM_convert 32 7, DW_OP_LLVM_convert 16 7, DW_OP_stack_value] $r8
	@DEBUG_VALUE: _lv_blend_fill:fill_area <- $r7
	@DEBUG_VALUE: fill_blended:disp_area <- [DW_OP_plus_uconst 16, DW_OP_stack_value] $r6
	@DEBUG_VALUE: _lv_blend_fill:draw_buf <- $r6
	@DEBUG_VALUE: _lv_blend_fill:disp_area <- [DW_OP_plus_uconst 16, DW_OP_stack_value] $r6
	@DEBUG_VALUE: fill_blended:mask_res <- $r5
	@DEBUG_VALUE: _lv_blend_fill:mask_res <- $r5
	@DEBUG_VALUE: fill_blended:y <- $r4
	@DEBUG_VALUE: fill_blended:disp_w <- $r1
	@DEBUG_VALUE: lv_color_mix:c1 <- [DW_OP_plus_uconst 28, DW_OP_deref_size 4, DW_OP_LLVM_convert 32 7, DW_OP_LLVM_convert 16 7, DW_OP_stack_value] $sp
	@DEBUG_VALUE: fill_blended:draw_area <- [DW_OP_plus_uconst 36, DW_OP_stack_value] $sp
	@DEBUG_VALUE: fill_blended:disp_buf <- [DW_OP_plus_uconst 32] [$sp+0]
	@DEBUG_VALUE: fill_blended:color <- [DW_OP_plus_uconst 28, DW_OP_deref_size 4, DW_OP_LLVM_convert 32 7, DW_OP_LLVM_convert 16 7, DW_OP_stack_value] $sp
	@DEBUG_VALUE: _lv_blend_fill:disp_buf <- [DW_OP_plus_uconst 32] [$sp+0]
	@DEBUG_VALUE: lv_color_mix:bg <- 0
	@DEBUG_VALUE: lv_color_mix:c2 <- [DW_OP_LLVM_convert 32 7, DW_OP_LLVM_convert 16 7, DW_OP_stack_value] 0
	@DEBUG_VALUE: last_dest_color <- 0
	@DEBUG_VALUE: _lv_blend_fill:clip_area <- [DW_OP_LLVM_entry_value 1] $r0
	.loc	8 0 9                           @ ../GUILib/src/draw/lv_draw_blend.c:0:9
	ldr	r0, [sp, #84]
	ldr	r7, [sp, #28]                   @ 4-byte Reload
.Ltmp75:
	@DEBUG_VALUE: _lv_blend_fill:fill_area <- [DW_OP_LLVM_entry_value 1] $r1
	movw	r3, #63519
	adds	r0, #4
	and.w	r3, r3, r8
	and	r7, r7, #2016
	lsrs	r0, r0, #3
	@DEBUG_VALUE: lv_color_mix:mix <- [DW_OP_LLVM_convert 16 7, DW_OP_LLVM_convert 8 7, DW_OP_stack_value] $r0
	orr.w	r3, r3, r7, lsl #16
	@DEBUG_VALUE: lv_color_mix:fg <- $r3
	muls	r0, r3, r0
	movw	r3, #63519
	movt	r3, #2016
	and.w	r0, r3, r0, lsr #5
.Ltmp76:
	@DEBUG_VALUE: lv_color_mix:result <- $r0
	.loc	8 538 52 is_stmt 1              @ ../GUILib/src/draw/lv_draw_blend.c:538:52
	ldrh.w	r3, [sp, #40]
.Ltmp77:
	.loc	8 537 9                         @ ../GUILib/src/draw/lv_draw_blend.c:537:9
	lsls	r1, r1, #1
.Ltmp78:
	.loc	4 454 42                        @ ../GUILib/src/draw/../core/../misc/lv_color.h:454:42
	orr.w	r0, r0, r0, lsr #16
.Ltmp79:
	@DEBUG_VALUE: last_res_color <- undef
	@DEBUG_VALUE: lv_color_mix:ret <- undef
	.loc	4 0 42 is_stmt 0                @ ../GUILib/src/draw/../core/../misc/lv_color.h:0:42
	str	r1, [sp, #32]                   @ 4-byte Spill
	movs	r1, #0
	movw	r11, #65535
.Ltmp80:
	@DEBUG_VALUE: _lv_blend_fill:mask <- [DW_OP_LLVM_entry_value 1] $r3
                                        @ implicit-def: $r5
                                        @ implicit-def: $r6
	.p2align	2
.LBB0_24:                               @ =>This Loop Header: Depth=1
                                        @     Child Loop BB0_25 Depth 2
	@DEBUG_VALUE: fill_blended:blend_fp <- $r10
	@DEBUG_VALUE: fill_blended:y <- $r4
	@DEBUG_VALUE: fill_blended:draw_area <- [DW_OP_plus_uconst 36, DW_OP_stack_value] $sp
	@DEBUG_VALUE: fill_blended:disp_buf <- [DW_OP_plus_uconst 32] [$sp+0]
	@DEBUG_VALUE: fill_blended:color <- [DW_OP_plus_uconst 28, DW_OP_deref_size 4, DW_OP_LLVM_convert 32 7, DW_OP_LLVM_convert 16 7, DW_OP_stack_value] $sp
	@DEBUG_VALUE: _lv_blend_fill:disp_buf <- [DW_OP_plus_uconst 32] [$sp+0]
	@DEBUG_VALUE: _lv_blend_fill:mask <- [DW_OP_LLVM_entry_value 1] $r3
	@DEBUG_VALUE: _lv_blend_fill:clip_area <- [DW_OP_LLVM_entry_value 1] $r0
	@DEBUG_VALUE: _lv_blend_fill:fill_area <- [DW_OP_LLVM_entry_value 1] $r1
	@DEBUG_VALUE: fill_blended:disp_buf_tmp <- $r9
	@DEBUG_VALUE: last_dest_color <- $r1
	@DEBUG_VALUE: last_res_color <- $r0
	@DEBUG_VALUE: fill_blended:y <- $r4
	mov	r8, r4
.Ltmp81:
	@DEBUG_VALUE: fill_blended:y <- $r8
	@DEBUG_VALUE: fill_blended:y <- $r8
	@DEBUG_VALUE: fill_blended:y <- $r8
	.loc	8 538 32 is_stmt 1              @ ../GUILib/src/draw/lv_draw_blend.c:538:32
	ldrsh.w	r4, [sp, #36]
.Ltmp82:
	@DEBUG_VALUE: fill_blended:x <- [DW_OP_LLVM_convert 16 5, DW_OP_LLVM_convert 32 5, DW_OP_stack_value] undef
	.loc	8 538 38 is_stmt 0              @ ../GUILib/src/draw/lv_draw_blend.c:538:38
	sxth	r7, r3
.Ltmp83:
	.loc	8 538 13                        @ ../GUILib/src/draw/lv_draw_blend.c:538:13
	cmp	r4, r7
	bgt	.LBB0_29
.Ltmp84:
	.p2align	2
.LBB0_25:                               @   Parent Loop BB0_24 Depth=1
                                        @ =>  This Inner Loop Header: Depth=2
	@DEBUG_VALUE: fill_blended:blend_fp <- $r10
	@DEBUG_VALUE: fill_blended:disp_buf_tmp <- $r9
	@DEBUG_VALUE: fill_blended:y <- $r8
	@DEBUG_VALUE: last_dest_color <- $r1
	@DEBUG_VALUE: last_res_color <- $r0
	@DEBUG_VALUE: fill_blended:draw_area <- [DW_OP_plus_uconst 36, DW_OP_stack_value] $sp
	@DEBUG_VALUE: fill_blended:disp_buf <- [DW_OP_plus_uconst 32] [$sp+0]
	@DEBUG_VALUE: fill_blended:color <- [DW_OP_plus_uconst 28, DW_OP_deref_size 4, DW_OP_LLVM_convert 32 7, DW_OP_LLVM_convert 16 7, DW_OP_stack_value] $sp
	@DEBUG_VALUE: _lv_blend_fill:disp_buf <- [DW_OP_plus_uconst 32] [$sp+0]
	@DEBUG_VALUE: _lv_blend_fill:mask <- [DW_OP_LLVM_entry_value 1] $r3
	@DEBUG_VALUE: _lv_blend_fill:clip_area <- [DW_OP_LLVM_entry_value 1] $r0
	@DEBUG_VALUE: _lv_blend_fill:fill_area <- [DW_OP_LLVM_entry_value 1] $r1
	@DEBUG_VALUE: last_dest_color <- $r1
	@DEBUG_VALUE: last_res_color <- $r0
	@DEBUG_VALUE: fill_blended:x <- $r4
	.loc	8 539 60 is_stmt 1              @ ../GUILib/src/draw/lv_draw_blend.c:539:60
	ldrh.w	r7, [r9, r4, lsl #1]
.Ltmp85:
	.loc	8 539 20 is_stmt 0              @ ../GUILib/src/draw/lv_draw_blend.c:539:20
	cmp	r1, r7
	beq	.LBB0_27
.Ltmp86:
@ %bb.26:                               @   in Loop: Header=BB0_25 Depth=2
	@DEBUG_VALUE: fill_blended:blend_fp <- $r10
	@DEBUG_VALUE: fill_blended:disp_buf_tmp <- $r9
	@DEBUG_VALUE: fill_blended:y <- $r8
	@DEBUG_VALUE: fill_blended:x <- $r4
	@DEBUG_VALUE: last_dest_color <- $r1
	@DEBUG_VALUE: last_res_color <- $r0
	@DEBUG_VALUE: fill_blended:draw_area <- [DW_OP_plus_uconst 36, DW_OP_stack_value] $sp
	@DEBUG_VALUE: fill_blended:disp_buf <- [DW_OP_plus_uconst 32] [$sp+0]
	@DEBUG_VALUE: fill_blended:color <- [DW_OP_plus_uconst 28, DW_OP_deref_size 4, DW_OP_LLVM_convert 32 7, DW_OP_LLVM_convert 16 7, DW_OP_stack_value] $sp
	@DEBUG_VALUE: _lv_blend_fill:disp_buf <- [DW_OP_plus_uconst 32] [$sp+0]
	@DEBUG_VALUE: _lv_blend_fill:mask <- [DW_OP_LLVM_entry_value 1] $r3
	@DEBUG_VALUE: _lv_blend_fill:clip_area <- [DW_OP_LLVM_entry_value 1] $r0
	@DEBUG_VALUE: _lv_blend_fill:fill_area <- [DW_OP_LLVM_entry_value 1] $r1
	.loc	8 541 38 is_stmt 1              @ ../GUILib/src/draw/lv_draw_blend.c:541:38
	ldr	r1, [sp, #28]                   @ 4-byte Reload
.Ltmp87:
	bic.w	r0, r6, r11
.Ltmp88:
	bfc	r5, #0, #16
	adds	r6, r0, r1
	add	r5, r7
	ldr	r2, [sp, #84]
	mov	r0, r6
	mov	r1, r5
	blx	r10
.Ltmp89:
	@DEBUG_VALUE: last_res_color <- undef
	@DEBUG_VALUE: last_dest_color <- undef
	.loc	8 0 0 is_stmt 0                 @ ../GUILib/src/draw/lv_draw_blend.c:0:0
	mov	r1, r7
.Ltmp90:
.LBB0_27:                               @   in Loop: Header=BB0_25 Depth=2
	@DEBUG_VALUE: fill_blended:blend_fp <- $r10
	@DEBUG_VALUE: fill_blended:disp_buf_tmp <- $r9
	@DEBUG_VALUE: fill_blended:y <- $r8
	@DEBUG_VALUE: fill_blended:x <- $r4
	@DEBUG_VALUE: fill_blended:draw_area <- [DW_OP_plus_uconst 36, DW_OP_stack_value] $sp
	@DEBUG_VALUE: fill_blended:disp_buf <- [DW_OP_plus_uconst 32] [$sp+0]
	@DEBUG_VALUE: fill_blended:color <- [DW_OP_plus_uconst 28, DW_OP_deref_size 4, DW_OP_LLVM_convert 32 7, DW_OP_LLVM_convert 16 7, DW_OP_stack_value] $sp
	@DEBUG_VALUE: _lv_blend_fill:disp_buf <- [DW_OP_plus_uconst 32] [$sp+0]
	@DEBUG_VALUE: _lv_blend_fill:mask <- [DW_OP_LLVM_entry_value 1] $r3
	@DEBUG_VALUE: _lv_blend_fill:clip_area <- [DW_OP_LLVM_entry_value 1] $r0
	@DEBUG_VALUE: _lv_blend_fill:fill_area <- [DW_OP_LLVM_entry_value 1] $r1
	@DEBUG_VALUE: last_dest_color <- $r1
	@DEBUG_VALUE: last_res_color <- $r0
	.loc	8 543 35 is_stmt 1              @ ../GUILib/src/draw/lv_draw_blend.c:543:35
	strh.w	r0, [r9, r4, lsl #1]
.Ltmp91:
	.loc	8 538 41                        @ ../GUILib/src/draw/lv_draw_blend.c:538:41
	ldrsh.w	r3, [sp, #40]
.Ltmp92:
	.loc	8 538 13 is_stmt 0              @ ../GUILib/src/draw/lv_draw_blend.c:538:13
	cmp	r4, r3
.Ltmp93:
	.loc	8 538 57                        @ ../GUILib/src/draw/lv_draw_blend.c:538:57
	add.w	r4, r4, #1
.Ltmp94:
	@DEBUG_VALUE: fill_blended:x <- $r4
	@DEBUG_VALUE: fill_blended:x <- $r4
	.loc	8 538 13                        @ ../GUILib/src/draw/lv_draw_blend.c:538:13
	blt	.LBB0_25
.Ltmp95:
@ %bb.28:                               @   in Loop: Header=BB0_24 Depth=1
	@DEBUG_VALUE: fill_blended:blend_fp <- $r10
	@DEBUG_VALUE: fill_blended:disp_buf_tmp <- $r9
	@DEBUG_VALUE: fill_blended:y <- $r8
	@DEBUG_VALUE: fill_blended:x <- $r4
	@DEBUG_VALUE: last_dest_color <- $r1
	@DEBUG_VALUE: last_res_color <- $r0
	@DEBUG_VALUE: fill_blended:draw_area <- [DW_OP_plus_uconst 36, DW_OP_stack_value] $sp
	@DEBUG_VALUE: fill_blended:disp_buf <- [DW_OP_plus_uconst 32] [$sp+0]
	@DEBUG_VALUE: fill_blended:color <- [DW_OP_plus_uconst 28, DW_OP_deref_size 4, DW_OP_LLVM_convert 32 7, DW_OP_LLVM_convert 16 7, DW_OP_stack_value] $sp
	@DEBUG_VALUE: _lv_blend_fill:disp_buf <- [DW_OP_plus_uconst 32] [$sp+0]
	@DEBUG_VALUE: _lv_blend_fill:mask <- [DW_OP_LLVM_entry_value 1] $r3
	@DEBUG_VALUE: _lv_blend_fill:clip_area <- [DW_OP_LLVM_entry_value 1] $r0
	@DEBUG_VALUE: _lv_blend_fill:fill_area <- [DW_OP_LLVM_entry_value 1] $r1
	.loc	8 537 48 is_stmt 1              @ ../GUILib/src/draw/lv_draw_blend.c:537:48
	ldrh.w	r2, [sp, #42]
	.loc	8 0 0 is_stmt 0                 @ ../GUILib/src/draw/lv_draw_blend.c:0:0
	uxth	r3, r3
.Ltmp96:
.LBB0_29:                               @   in Loop: Header=BB0_24 Depth=1
	@DEBUG_VALUE: fill_blended:blend_fp <- $r10
	@DEBUG_VALUE: fill_blended:disp_buf_tmp <- $r9
	@DEBUG_VALUE: fill_blended:y <- $r8
	@DEBUG_VALUE: last_dest_color <- $r1
	@DEBUG_VALUE: last_res_color <- $r0
	@DEBUG_VALUE: fill_blended:draw_area <- [DW_OP_plus_uconst 36, DW_OP_stack_value] $sp
	@DEBUG_VALUE: fill_blended:disp_buf <- [DW_OP_plus_uconst 32] [$sp+0]
	@DEBUG_VALUE: fill_blended:color <- [DW_OP_plus_uconst 28, DW_OP_deref_size 4, DW_OP_LLVM_convert 32 7, DW_OP_LLVM_convert 16 7, DW_OP_stack_value] $sp
	@DEBUG_VALUE: _lv_blend_fill:disp_buf <- [DW_OP_plus_uconst 32] [$sp+0]
	@DEBUG_VALUE: _lv_blend_fill:mask <- [DW_OP_LLVM_entry_value 1] $r3
	@DEBUG_VALUE: _lv_blend_fill:clip_area <- [DW_OP_LLVM_entry_value 1] $r0
	@DEBUG_VALUE: _lv_blend_fill:fill_area <- [DW_OP_LLVM_entry_value 1] $r1
	@DEBUG_VALUE: fill_blended:disp_buf_tmp <- undef
	.loc	8 537 37                        @ ../GUILib/src/draw/lv_draw_blend.c:537:37
	sxth	r7, r2
.Ltmp97:
	.loc	8 537 9                         @ ../GUILib/src/draw/lv_draw_blend.c:537:9
	ldr	r4, [sp, #32]                   @ 4-byte Reload
	cmp	r8, r7
.Ltmp98:
	.loc	8 537 53                        @ ../GUILib/src/draw/lv_draw_blend.c:537:53
	add.w	r7, r8, #1
.Ltmp99:
	@DEBUG_VALUE: fill_blended:y <- $r7
	@DEBUG_VALUE: last_res_color <- $r0
	@DEBUG_VALUE: last_dest_color <- $r1
	.loc	8 537 9                         @ ../GUILib/src/draw/lv_draw_blend.c:537:9
	add	r9, r4
	mov	r4, r7
.Ltmp100:
	@DEBUG_VALUE: fill_blended:y <- $r4
	@DEBUG_VALUE: fill_blended:y <- $r4
	.loc	8 0 9                           @ ../GUILib/src/draw/lv_draw_blend.c:0:9
	blt	.LBB0_24
	b	.LBB0_31
.Ltmp101:
.LBB0_30:
	@DEBUG_VALUE: fill_set_px:mask <- $r11
	@DEBUG_VALUE: _lv_blend_fill:mask <- $r11
	@DEBUG_VALUE: fill_set_px:disp_w <- [DW_OP_LLVM_convert 16 5, DW_OP_LLVM_convert 32 5, DW_OP_stack_value] $r10
	@DEBUG_VALUE: fill_set_px:disp <- $r9
	@DEBUG_VALUE: fill_set_px:color <- [DW_OP_LLVM_convert 32 7, DW_OP_LLVM_convert 16 7, DW_OP_stack_value] $r8
	@DEBUG_VALUE: _lv_blend_fill:fill_area <- $r7
	@DEBUG_VALUE: fill_set_px:disp_area <- [DW_OP_plus_uconst 16, DW_OP_stack_value] $r6
	@DEBUG_VALUE: _lv_blend_fill:draw_buf <- $r6
	@DEBUG_VALUE: _lv_blend_fill:disp_area <- [DW_OP_plus_uconst 16, DW_OP_stack_value] $r6
	@DEBUG_VALUE: fill_set_px:mask_res <- $r5
	@DEBUG_VALUE: _lv_blend_fill:mask_res <- $r5
	@DEBUG_VALUE: _lv_blend_fill:clip_area <- $r4
	@DEBUG_VALUE: fill_set_px:disp_buf <- [DW_OP_plus_uconst 32] [$sp+0]
	@DEBUG_VALUE: fill_set_px:draw_area <- [DW_OP_plus_uconst 36, DW_OP_stack_value] $sp
	@DEBUG_VALUE: _lv_blend_fill:disp_buf <- [DW_OP_plus_uconst 32] [$sp+0]
	.loc	8 268 28 is_stmt 1              @ ../GUILib/src/draw/lv_draw_blend.c:268:28
	ldrsh.w	r5, [sp, #38]
.Ltmp102:
	@DEBUG_VALUE: fill_set_px:y <- [DW_OP_LLVM_convert 16 5, DW_OP_LLVM_convert 32 5, DW_OP_stack_value] undef
	.loc	8 268 48 is_stmt 0              @ ../GUILib/src/draw/lv_draw_blend.c:268:48
	ldrsh.w	r1, [sp, #42]
.Ltmp103:
	@DEBUG_VALUE: draw_area_w <- undef
	@DEBUG_VALUE: lv_area_get_width:area_p <- [DW_OP_plus_uconst 36, DW_OP_stack_value] $sp
	@DEBUG_VALUE: mask_tmp <- undef
	.loc	8 268 9                         @ ../GUILib/src/draw/lv_draw_blend.c:268:9
	cmp	r5, r1
	ble	.LBB0_32
.Ltmp104:
.LBB0_31:
	.loc	8 171 1 is_stmt 1               @ ../GUILib/src/draw/lv_draw_blend.c:171:1
	add	sp, #44
	pop.w	{r4, r5, r6, r7, r8, r9, r10, r11, pc}
.LBB0_32:
.Ltmp105:
	@DEBUG_VALUE: fill_set_px:mask <- $r11
	@DEBUG_VALUE: _lv_blend_fill:mask <- $r11
	@DEBUG_VALUE: fill_set_px:disp_w <- [DW_OP_LLVM_convert 16 5, DW_OP_LLVM_convert 32 5, DW_OP_stack_value] $r10
	@DEBUG_VALUE: fill_set_px:disp <- $r9
	@DEBUG_VALUE: fill_set_px:color <- [DW_OP_LLVM_convert 32 7, DW_OP_LLVM_convert 16 7, DW_OP_stack_value] $r8
	@DEBUG_VALUE: _lv_blend_fill:fill_area <- $r7
	@DEBUG_VALUE: fill_set_px:disp_area <- [DW_OP_plus_uconst 16, DW_OP_stack_value] $r6
	@DEBUG_VALUE: _lv_blend_fill:draw_buf <- $r6
	@DEBUG_VALUE: _lv_blend_fill:disp_area <- [DW_OP_plus_uconst 16, DW_OP_stack_value] $r6
	@DEBUG_VALUE: _lv_blend_fill:clip_area <- $r4
	@DEBUG_VALUE: fill_set_px:disp_buf <- [DW_OP_plus_uconst 32] [$sp+0]
	@DEBUG_VALUE: fill_set_px:draw_area <- [DW_OP_plus_uconst 36, DW_OP_stack_value] $sp
	@DEBUG_VALUE: _lv_blend_fill:disp_buf <- [DW_OP_plus_uconst 32] [$sp+0]
	.loc	8 0 0 is_stmt 0                 @ ../GUILib/src/draw/lv_draw_blend.c:0:0
	ldrsh.w	r3, [sp, #36]
	ldrh.w	r0, [sp, #40]
	uxth	r2, r3
	subs	r7, r0, r3
.Ltmp106:
	@DEBUG_VALUE: _lv_blend_fill:fill_area <- [DW_OP_LLVM_entry_value 1] $r1
	adds	r7, #1
	sxth	r7, r7
.Ltmp107:
	@DEBUG_VALUE: fill_set_px:y <- $r5
	.loc	8 263 42 is_stmt 1              @ ../GUILib/src/draw/lv_draw_blend.c:263:42
	sub.w	r6, r11, r3
.Ltmp108:
	@DEBUG_VALUE: mask_tmp <- $r6
	str	r7, [sp, #28]                   @ 4-byte Spill
.Ltmp109:
	@DEBUG_VALUE: draw_area_w <- [DW_OP_plus_uconst 28] [$sp+0]
                                        @ implicit-def: $r11
	.p2align	2
.LBB0_33:                               @ =>This Loop Header: Depth=1
                                        @     Child Loop BB0_34 Depth 2
	@DEBUG_VALUE: fill_set_px:disp_w <- [DW_OP_LLVM_convert 16 5, DW_OP_LLVM_convert 32 5, DW_OP_stack_value] $r10
	@DEBUG_VALUE: fill_set_px:disp <- $r9
	@DEBUG_VALUE: fill_set_px:color <- [DW_OP_LLVM_convert 32 7, DW_OP_LLVM_convert 16 7, DW_OP_stack_value] $r8
	@DEBUG_VALUE: mask_tmp <- $r6
	@DEBUG_VALUE: fill_set_px:y <- $r5
	@DEBUG_VALUE: draw_area_w <- [DW_OP_plus_uconst 28] [$sp+0]
	@DEBUG_VALUE: fill_set_px:disp_buf <- [DW_OP_plus_uconst 32] [$sp+0]
	@DEBUG_VALUE: fill_set_px:draw_area <- [DW_OP_plus_uconst 36, DW_OP_stack_value] $sp
	@DEBUG_VALUE: _lv_blend_fill:disp_buf <- [DW_OP_plus_uconst 32] [$sp+0]
	@DEBUG_VALUE: _lv_blend_fill:fill_area <- [DW_OP_LLVM_entry_value 1] $r1
	@DEBUG_VALUE: fill_set_px:y <- $r5
	@DEBUG_VALUE: fill_set_px:x <- [DW_OP_LLVM_convert 16 5, DW_OP_LLVM_convert 32 5, DW_OP_stack_value] $r2
	@DEBUG_VALUE: mask_tmp <- $r6
	.loc	8 269 38                        @ ../GUILib/src/draw/lv_draw_blend.c:269:38
	sxth	r3, r0
	sxth	r4, r2
.Ltmp110:
	@DEBUG_VALUE: _lv_blend_fill:clip_area <- [DW_OP_LLVM_entry_value 1] $r0
	.loc	8 269 13 is_stmt 0              @ ../GUILib/src/draw/lv_draw_blend.c:269:13
	cmp	r4, r3
	bgt	.LBB0_38
.Ltmp111:
	.p2align	2
.LBB0_34:                               @   Parent Loop BB0_33 Depth=1
                                        @ =>  This Inner Loop Header: Depth=2
	@DEBUG_VALUE: fill_set_px:disp_w <- [DW_OP_LLVM_convert 16 5, DW_OP_LLVM_convert 32 5, DW_OP_stack_value] $r10
	@DEBUG_VALUE: fill_set_px:disp <- $r9
	@DEBUG_VALUE: fill_set_px:color <- [DW_OP_LLVM_convert 32 7, DW_OP_LLVM_convert 16 7, DW_OP_stack_value] $r8
	@DEBUG_VALUE: mask_tmp <- $r6
	@DEBUG_VALUE: fill_set_px:y <- $r5
	@DEBUG_VALUE: draw_area_w <- [DW_OP_plus_uconst 28] [$sp+0]
	@DEBUG_VALUE: fill_set_px:disp_buf <- [DW_OP_plus_uconst 32] [$sp+0]
	@DEBUG_VALUE: fill_set_px:draw_area <- [DW_OP_plus_uconst 36, DW_OP_stack_value] $sp
	@DEBUG_VALUE: _lv_blend_fill:disp_buf <- [DW_OP_plus_uconst 32] [$sp+0]
	@DEBUG_VALUE: _lv_blend_fill:fill_area <- [DW_OP_LLVM_entry_value 1] $r1
	@DEBUG_VALUE: fill_set_px:x <- $r4
	.loc	8 270 20 is_stmt 1              @ ../GUILib/src/draw/lv_draw_blend.c:270:20
	ldrb	r1, [r6, r4]
.Ltmp112:
	.loc	8 270 20 is_stmt 0              @ ../GUILib/src/draw/lv_draw_blend.c:270:20
	cbz	r1, .LBB0_36
.Ltmp113:
@ %bb.35:                               @   in Loop: Header=BB0_34 Depth=2
	@DEBUG_VALUE: fill_set_px:disp_w <- [DW_OP_LLVM_convert 16 5, DW_OP_LLVM_convert 32 5, DW_OP_stack_value] $r10
	@DEBUG_VALUE: fill_set_px:disp <- $r9
	@DEBUG_VALUE: fill_set_px:color <- [DW_OP_LLVM_convert 32 7, DW_OP_LLVM_convert 16 7, DW_OP_stack_value] $r8
	@DEBUG_VALUE: mask_tmp <- $r6
	@DEBUG_VALUE: fill_set_px:y <- $r5
	@DEBUG_VALUE: fill_set_px:x <- $r4
	@DEBUG_VALUE: draw_area_w <- [DW_OP_plus_uconst 28] [$sp+0]
	@DEBUG_VALUE: fill_set_px:disp_buf <- [DW_OP_plus_uconst 32] [$sp+0]
	@DEBUG_VALUE: fill_set_px:draw_area <- [DW_OP_plus_uconst 36, DW_OP_stack_value] $sp
	@DEBUG_VALUE: _lv_blend_fill:disp_buf <- [DW_OP_plus_uconst 32] [$sp+0]
	@DEBUG_VALUE: _lv_blend_fill:fill_area <- [DW_OP_LLVM_entry_value 1] $r1
	.loc	8 272 70 is_stmt 1              @ ../GUILib/src/draw/lv_draw_blend.c:272:70
	ldr	r2, [sp, #84]
	.loc	8 271 27                        @ ../GUILib/src/draw/lv_draw_blend.c:271:27
	ldr.w	r0, [r9]
	.loc	8 272 70                        @ ../GUILib/src/draw/lv_draw_blend.c:272:70
	muls	r1, r2, r1
	.loc	8 271 21                        @ ../GUILib/src/draw/lv_draw_blend.c:271:21
	movw	r2, #65535
	.loc	8 272 85                        @ ../GUILib/src/draw/lv_draw_blend.c:272:85
	lsrs	r1, r1, #8
	.loc	8 271 21                        @ ../GUILib/src/draw/lv_draw_blend.c:271:21
	bic.w	r2, r11, r2
	.loc	8 271 35 is_stmt 0              @ ../GUILib/src/draw/lv_draw_blend.c:271:35
	ldr	r7, [r0, #28]
	.loc	8 271 21                        @ ../GUILib/src/draw/lv_draw_blend.c:271:21
	add.w	r11, r2, r8
.Ltmp114:
	@DEBUG_VALUE: _lv_blend_fill:mask <- [DW_OP_LLVM_entry_value 1] $r3
	sxth	r2, r5
	str	r1, [sp, #8]
	ldr	r1, [sp, #32]                   @ 4-byte Reload
	str	r2, [sp]
	sxth.w	r2, r10
	sxth	r3, r4
	str.w	r11, [sp, #4]
	blx	r7
.Ltmp115:
	.loc	8 269 52 is_stmt 1              @ ../GUILib/src/draw/lv_draw_blend.c:269:52
	ldrh.w	r0, [sp, #40]
.Ltmp116:
.LBB0_36:                               @   in Loop: Header=BB0_34 Depth=2
	@DEBUG_VALUE: fill_set_px:disp_w <- [DW_OP_LLVM_convert 16 5, DW_OP_LLVM_convert 32 5, DW_OP_stack_value] $r10
	@DEBUG_VALUE: fill_set_px:disp <- $r9
	@DEBUG_VALUE: fill_set_px:color <- [DW_OP_LLVM_convert 32 7, DW_OP_LLVM_convert 16 7, DW_OP_stack_value] $r8
	@DEBUG_VALUE: mask_tmp <- $r6
	@DEBUG_VALUE: fill_set_px:y <- $r5
	@DEBUG_VALUE: fill_set_px:x <- $r4
	@DEBUG_VALUE: draw_area_w <- [DW_OP_plus_uconst 28] [$sp+0]
	@DEBUG_VALUE: fill_set_px:disp_buf <- [DW_OP_plus_uconst 32] [$sp+0]
	@DEBUG_VALUE: fill_set_px:draw_area <- [DW_OP_plus_uconst 36, DW_OP_stack_value] $sp
	@DEBUG_VALUE: _lv_blend_fill:disp_buf <- [DW_OP_plus_uconst 32] [$sp+0]
	@DEBUG_VALUE: _lv_blend_fill:fill_area <- [DW_OP_LLVM_entry_value 1] $r1
	.loc	8 269 41 is_stmt 0              @ ../GUILib/src/draw/lv_draw_blend.c:269:41
	sxth	r1, r0
.Ltmp117:
	.loc	8 269 13                        @ ../GUILib/src/draw/lv_draw_blend.c:269:13
	cmp	r4, r1
.Ltmp118:
	.loc	8 269 57                        @ ../GUILib/src/draw/lv_draw_blend.c:269:57
	add.w	r4, r4, #1
.Ltmp119:
	@DEBUG_VALUE: fill_set_px:x <- $r4
	@DEBUG_VALUE: fill_set_px:x <- $r4
	.loc	8 269 13                        @ ../GUILib/src/draw/lv_draw_blend.c:269:13
	blt	.LBB0_34
.Ltmp120:
@ %bb.37:                               @   in Loop: Header=BB0_33 Depth=1
	@DEBUG_VALUE: fill_set_px:disp_w <- [DW_OP_LLVM_convert 16 5, DW_OP_LLVM_convert 32 5, DW_OP_stack_value] $r10
	@DEBUG_VALUE: fill_set_px:disp <- $r9
	@DEBUG_VALUE: fill_set_px:color <- [DW_OP_LLVM_convert 32 7, DW_OP_LLVM_convert 16 7, DW_OP_stack_value] $r8
	@DEBUG_VALUE: mask_tmp <- $r6
	@DEBUG_VALUE: fill_set_px:y <- $r5
	@DEBUG_VALUE: fill_set_px:x <- $r4
	@DEBUG_VALUE: draw_area_w <- [DW_OP_plus_uconst 28] [$sp+0]
	@DEBUG_VALUE: fill_set_px:disp_buf <- [DW_OP_plus_uconst 32] [$sp+0]
	@DEBUG_VALUE: fill_set_px:draw_area <- [DW_OP_plus_uconst 36, DW_OP_stack_value] $sp
	@DEBUG_VALUE: _lv_blend_fill:disp_buf <- [DW_OP_plus_uconst 32] [$sp+0]
	@DEBUG_VALUE: _lv_blend_fill:fill_area <- [DW_OP_LLVM_entry_value 1] $r1
	.loc	8 268 48 is_stmt 1              @ ../GUILib/src/draw/lv_draw_blend.c:268:48
	ldrh.w	r1, [sp, #42]
.Ltmp121:
.LBB0_38:                               @   in Loop: Header=BB0_33 Depth=1
	@DEBUG_VALUE: fill_set_px:disp_w <- [DW_OP_LLVM_convert 16 5, DW_OP_LLVM_convert 32 5, DW_OP_stack_value] $r10
	@DEBUG_VALUE: fill_set_px:disp <- $r9
	@DEBUG_VALUE: fill_set_px:color <- [DW_OP_LLVM_convert 32 7, DW_OP_LLVM_convert 16 7, DW_OP_stack_value] $r8
	@DEBUG_VALUE: mask_tmp <- $r6
	@DEBUG_VALUE: fill_set_px:y <- $r5
	@DEBUG_VALUE: draw_area_w <- [DW_OP_plus_uconst 28] [$sp+0]
	@DEBUG_VALUE: fill_set_px:disp_buf <- [DW_OP_plus_uconst 32] [$sp+0]
	@DEBUG_VALUE: fill_set_px:draw_area <- [DW_OP_plus_uconst 36, DW_OP_stack_value] $sp
	@DEBUG_VALUE: _lv_blend_fill:disp_buf <- [DW_OP_plus_uconst 32] [$sp+0]
	@DEBUG_VALUE: _lv_blend_fill:fill_area <- [DW_OP_LLVM_entry_value 1] $r1
	@DEBUG_VALUE: fill_set_px:y <- [DW_OP_plus_uconst 1, DW_OP_stack_value] $r5
	@DEBUG_VALUE: mask_tmp <- undef
	.loc	8 268 37 is_stmt 0              @ ../GUILib/src/draw/lv_draw_blend.c:268:37
	sxth	r2, r1
.Ltmp122:
	.loc	8 268 9                         @ ../GUILib/src/draw/lv_draw_blend.c:268:9
	cmp	r5, r2
	bge	.LBB0_31
.Ltmp123:
@ %bb.39:                               @   in Loop: Header=BB0_33 Depth=1
	@DEBUG_VALUE: fill_set_px:disp_w <- [DW_OP_LLVM_convert 16 5, DW_OP_LLVM_convert 32 5, DW_OP_stack_value] $r10
	@DEBUG_VALUE: fill_set_px:disp <- $r9
	@DEBUG_VALUE: fill_set_px:color <- [DW_OP_LLVM_convert 32 7, DW_OP_LLVM_convert 16 7, DW_OP_stack_value] $r8
	@DEBUG_VALUE: fill_set_px:y <- [DW_OP_plus_uconst 1, DW_OP_stack_value] $r5
	@DEBUG_VALUE: draw_area_w <- [DW_OP_plus_uconst 28] [$sp+0]
	@DEBUG_VALUE: fill_set_px:disp_buf <- [DW_OP_plus_uconst 32] [$sp+0]
	@DEBUG_VALUE: fill_set_px:draw_area <- [DW_OP_plus_uconst 36, DW_OP_stack_value] $sp
	@DEBUG_VALUE: _lv_blend_fill:disp_buf <- [DW_OP_plus_uconst 32] [$sp+0]
	@DEBUG_VALUE: _lv_blend_fill:fill_area <- [DW_OP_LLVM_entry_value 1] $r1
	.loc	8 275 22 is_stmt 1              @ ../GUILib/src/draw/lv_draw_blend.c:275:22
	ldr	r3, [sp, #28]                   @ 4-byte Reload
.Ltmp124:
	.loc	8 269 32                        @ ../GUILib/src/draw/lv_draw_blend.c:269:32
	ldrh.w	r2, [sp, #36]
.Ltmp125:
	.loc	8 268 53                        @ ../GUILib/src/draw/lv_draw_blend.c:268:53
	adds	r5, #1
.Ltmp126:
	@DEBUG_VALUE: fill_set_px:y <- $r5
	.loc	8 275 22                        @ ../GUILib/src/draw/lv_draw_blend.c:275:22
	add	r6, r3
.Ltmp127:
	@DEBUG_VALUE: mask_tmp <- $r6
	.loc	8 0 22 is_stmt 0                @ ../GUILib/src/draw/lv_draw_blend.c:0:22
	b	.LBB0_33
.Ltmp128:
.LBB0_40:
	@DEBUG_VALUE: _lv_blend_fill:mask <- $r11
	@DEBUG_VALUE: _lv_blend_fill:disp <- $r10
	@DEBUG_VALUE: _lv_blend_fill:color <- [DW_OP_LLVM_convert 32 7, DW_OP_LLVM_convert 16 7, DW_OP_stack_value] $r8
	@DEBUG_VALUE: _lv_blend_fill:fill_area <- $r7
	@DEBUG_VALUE: _lv_blend_fill:draw_buf <- $r6
	@DEBUG_VALUE: _lv_blend_fill:disp_area <- [DW_OP_plus_uconst 16, DW_OP_stack_value] $r6
	@DEBUG_VALUE: _lv_blend_fill:mask_res <- $r5
	@DEBUG_VALUE: _lv_blend_fill:clip_area <- $r4
	@DEBUG_VALUE: _lv_blend_fill:mode <- $r0
	@DEBUG_VALUE: _lv_blend_fill:disp_buf <- [DW_OP_plus_uconst 32] [$sp+0]
	@DEBUG_VALUE: fill_normal:color <- [DW_OP_plus_uconst 28] [$sp+0]
	@DEBUG_VALUE: fill_normal:disp_area <- [DW_OP_plus_uconst 16, DW_OP_stack_value] $r6
	@DEBUG_VALUE: fill_normal:disp_buf <- [DW_OP_plus_uconst 32] [$sp+0]
	@DEBUG_VALUE: fill_normal:draw_area <- [DW_OP_plus_uconst 36, DW_OP_stack_value] $sp
	@DEBUG_VALUE: fill_normal:opa <- undef
	@DEBUG_VALUE: fill_normal:mask <- $r11
	@DEBUG_VALUE: fill_normal:mask_res <- $r5
	.loc	8 300 24 is_stmt 1              @ ../GUILib/src/draw/lv_draw_blend.c:300:24
	bl	_lv_refr_get_disp_refreshing
.Ltmp129:
	.loc	6 125 33                        @ ../GUILib/src/draw/../core/../misc/lv_area.h:125:33
	ldrh	r1, [r6, #20]
	.loc	6 125 46 is_stmt 0              @ ../GUILib/src/draw/../core/../misc/lv_area.h:125:46
	ldrh	r2, [r6, #16]
.Ltmp130:
	.loc	8 300 24 is_stmt 1              @ ../GUILib/src/draw/lv_draw_blend.c:300:24
	mov	r9, r0
.Ltmp131:
	@DEBUG_VALUE: lv_area_get_width:area_p <- [DW_OP_plus_uconst 16, DW_OP_stack_value] undef
	@DEBUG_VALUE: fill_normal:disp <- $r9
	.loc	6 125 49                        @ ../GUILib/src/draw/../core/../misc/lv_area.h:125:49
	subs	r0, r1, r2
.Ltmp132:
	.loc	6 125 33 is_stmt 0              @ ../GUILib/src/draw/../core/../misc/lv_area.h:125:33
	ldrh.w	r2, [sp, #40]
.Ltmp133:
	.loc	8 309 71 is_stmt 1              @ ../GUILib/src/draw/lv_draw_blend.c:309:71
	ldrsh.w	r3, [sp, #36]
.Ltmp134:
	.loc	6 125 49                        @ ../GUILib/src/draw/../core/../misc/lv_area.h:125:49
	adds	r1, r0, #1
.Ltmp135:
	.loc	6 135 46                        @ ../GUILib/src/draw/../core/../misc/lv_area.h:135:46
	ldrsh.w	r4, [sp, #38]
.Ltmp136:
	@DEBUG_VALUE: _lv_blend_fill:clip_area <- [DW_OP_LLVM_entry_value 1] $r0
	@DEBUG_VALUE: lv_area_get_height:area_p <- [DW_OP_plus_uconst 36, DW_OP_stack_value] $sp
	.loc	6 135 33 is_stmt 0              @ ../GUILib/src/draw/../core/../misc/lv_area.h:135:33
	ldrsh.w	r0, [sp, #42]
.Ltmp137:
	.loc	6 125 49 is_stmt 1              @ ../GUILib/src/draw/../core/../misc/lv_area.h:125:49
	subs	r2, r2, r3
.Ltmp138:
	@DEBUG_VALUE: lv_area_get_width:area_p <- [DW_OP_plus_uconst 36, DW_OP_stack_value] $sp
	adds	r2, #1
	ldr	r6, [sp, #32]                   @ 4-byte Reload
.Ltmp139:
	@DEBUG_VALUE: fill_normal:disp_buf <- $r6
	.loc	8 303 22                        @ ../GUILib/src/draw/lv_draw_blend.c:303:22
	sxth.w	lr, r1
	@DEBUG_VALUE: lv_area_get_width:area_p <- [DW_OP_plus_uconst 36, DW_OP_stack_value] $sp
.Ltmp140:
	@DEBUG_VALUE: fill_normal:disp_w <- $lr
	.loc	6 125 49                        @ ../GUILib/src/draw/../core/../misc/lv_area.h:125:49
	sxth.w	r10, r2
.Ltmp141:
	@DEBUG_VALUE: fill_normal:draw_area_w <- $r10
	.loc	6 135 49                        @ ../GUILib/src/draw/../core/../misc/lv_area.h:135:49
	subs	r2, r0, r4
.Ltmp142:
	@DEBUG_VALUE: lv_area_get_height:area_p <- [DW_OP_plus_uconst 36, DW_OP_stack_value] $sp
	.loc	8 309 53                        @ ../GUILib/src/draw/lv_draw_blend.c:309:53
	smulbb	r1, r4, r1
.Ltmp143:
	.loc	6 135 49                        @ ../GUILib/src/draw/../core/../misc/lv_area.h:135:49
	adds	r2, #1
.Ltmp144:
	.loc	8 309 44                        @ ../GUILib/src/draw/lv_draw_blend.c:309:44
	add.w	r1, r6, r1, lsl #1
.Ltmp145:
	.loc	6 135 49                        @ ../GUILib/src/draw/../core/../misc/lv_area.h:135:49
	sxth	r2, r2
.Ltmp146:
	@DEBUG_VALUE: fill_normal:draw_area_h <- $r2
	.loc	8 315 8                         @ ../GUILib/src/draw/lv_draw_blend.c:315:8
	cmp	r5, #1
	.loc	8 309 69                        @ ../GUILib/src/draw/lv_draw_blend.c:309:69
	add.w	r7, r1, r3, lsl #1
.Ltmp147:
	@DEBUG_VALUE: _lv_blend_fill:fill_area <- [DW_OP_LLVM_entry_value 1] $r1
	@DEBUG_VALUE: fill_normal:disp_buf_first <- $r7
	.loc	8 309 53 is_stmt 0              @ ../GUILib/src/draw/lv_draw_blend.c:309:53
	str	r2, [sp, #20]                   @ 4-byte Spill
.Ltmp148:
	@DEBUG_VALUE: fill_normal:draw_area_h <- [DW_OP_plus_uconst 20] [$sp+0]
	@DEBUG_VALUE: fill_normal:draw_area_h <- [DW_OP_plus_uconst 20] [$sp+0]
	.loc	8 315 8 is_stmt 1               @ ../GUILib/src/draw/lv_draw_blend.c:315:8
	bne	.LBB0_45
.Ltmp149:
@ %bb.41:
	@DEBUG_VALUE: fill_normal:mask <- $r11
	@DEBUG_VALUE: _lv_blend_fill:mask <- $r11
	@DEBUG_VALUE: fill_normal:draw_area_w <- $r10
	@DEBUG_VALUE: fill_normal:disp <- $r9
	@DEBUG_VALUE: _lv_blend_fill:color <- [DW_OP_LLVM_convert 32 7, DW_OP_LLVM_convert 16 7, DW_OP_stack_value] $r8
	@DEBUG_VALUE: fill_normal:disp_buf_first <- $r7
	@DEBUG_VALUE: fill_normal:disp_buf <- $r6
	@DEBUG_VALUE: fill_normal:mask_res <- $r5
	@DEBUG_VALUE: _lv_blend_fill:mask_res <- $r5
	@DEBUG_VALUE: fill_normal:draw_area_h <- [DW_OP_plus_uconst 20] [$sp+0]
	@DEBUG_VALUE: fill_normal:draw_area <- [DW_OP_plus_uconst 36, DW_OP_stack_value] $sp
	@DEBUG_VALUE: fill_normal:color <- [DW_OP_plus_uconst 28] [$sp+0]
	@DEBUG_VALUE: _lv_blend_fill:disp_buf <- [DW_OP_plus_uconst 32] [$sp+0]
	@DEBUG_VALUE: fill_normal:disp_w <- $lr
	@DEBUG_VALUE: _lv_blend_fill:clip_area <- [DW_OP_LLVM_entry_value 1] $r0
	@DEBUG_VALUE: _lv_blend_fill:fill_area <- [DW_OP_LLVM_entry_value 1] $r1
	.loc	8 316 12                        @ ../GUILib/src/draw/lv_draw_blend.c:316:12
	ldr	r0, [sp, #84]
	cmp	r0, #254
	blo.w	.LBB0_94
.Ltmp150:
@ %bb.42:
	@DEBUG_VALUE: fill_normal:mask <- $r11
	@DEBUG_VALUE: _lv_blend_fill:mask <- $r11
	@DEBUG_VALUE: fill_normal:draw_area_w <- $r10
	@DEBUG_VALUE: fill_normal:disp <- $r9
	@DEBUG_VALUE: _lv_blend_fill:color <- [DW_OP_LLVM_convert 32 7, DW_OP_LLVM_convert 16 7, DW_OP_stack_value] $r8
	@DEBUG_VALUE: fill_normal:disp_buf_first <- $r7
	@DEBUG_VALUE: fill_normal:disp_buf <- $r6
	@DEBUG_VALUE: fill_normal:mask_res <- $r5
	@DEBUG_VALUE: _lv_blend_fill:mask_res <- $r5
	@DEBUG_VALUE: fill_normal:draw_area_h <- [DW_OP_plus_uconst 20] [$sp+0]
	@DEBUG_VALUE: fill_normal:draw_area <- [DW_OP_plus_uconst 36, DW_OP_stack_value] $sp
	@DEBUG_VALUE: fill_normal:color <- [DW_OP_plus_uconst 28] [$sp+0]
	@DEBUG_VALUE: _lv_blend_fill:disp_buf <- [DW_OP_plus_uconst 32] [$sp+0]
	@DEBUG_VALUE: fill_normal:disp_w <- $lr
	@DEBUG_VALUE: _lv_blend_fill:clip_area <- [DW_OP_LLVM_entry_value 1] $r0
	@DEBUG_VALUE: _lv_blend_fill:fill_area <- [DW_OP_LLVM_entry_value 1] $r1
	.loc	8 335 22                        @ ../GUILib/src/draw/lv_draw_blend.c:335:22
	ldr.w	r0, [r9]
	.loc	8 335 30 is_stmt 0              @ ../GUILib/src/draw/lv_draw_blend.c:335:30
	ldr	r0, [r0, #52]
	.loc	8 335 42                        @ ../GUILib/src/draw/lv_draw_blend.c:335:42
	cmp	r0, #0
	beq.w	.LBB0_117
.Ltmp151:
@ %bb.43:
	@DEBUG_VALUE: fill_normal:mask <- $r11
	@DEBUG_VALUE: _lv_blend_fill:mask <- $r11
	@DEBUG_VALUE: fill_normal:draw_area_w <- $r10
	@DEBUG_VALUE: fill_normal:disp <- $r9
	@DEBUG_VALUE: _lv_blend_fill:color <- [DW_OP_LLVM_convert 32 7, DW_OP_LLVM_convert 16 7, DW_OP_stack_value] $r8
	@DEBUG_VALUE: fill_normal:disp_buf_first <- $r7
	@DEBUG_VALUE: fill_normal:disp_buf <- $r6
	@DEBUG_VALUE: fill_normal:mask_res <- $r5
	@DEBUG_VALUE: _lv_blend_fill:mask_res <- $r5
	@DEBUG_VALUE: fill_normal:draw_area_h <- [DW_OP_plus_uconst 20] [$sp+0]
	@DEBUG_VALUE: fill_normal:draw_area <- [DW_OP_plus_uconst 36, DW_OP_stack_value] $sp
	@DEBUG_VALUE: fill_normal:color <- [DW_OP_plus_uconst 28] [$sp+0]
	@DEBUG_VALUE: _lv_blend_fill:disp_buf <- [DW_OP_plus_uconst 32] [$sp+0]
	@DEBUG_VALUE: fill_normal:disp_w <- $lr
	@DEBUG_VALUE: _lv_blend_fill:clip_area <- [DW_OP_LLVM_entry_value 1] $r0
	@DEBUG_VALUE: _lv_blend_fill:fill_area <- [DW_OP_LLVM_entry_value 1] $r1
	.loc	8 0 42                          @ ../GUILib/src/draw/lv_draw_blend.c:0:42
	add	r0, sp, #36
	mov	r4, lr
.Ltmp152:
	@DEBUG_VALUE: fill_normal:disp_w <- $r4
	.loc	8 335 45                        @ ../GUILib/src/draw/lv_draw_blend.c:335:45
	bl	lv_area_get_size
.Ltmp153:
	.loc	8 0 45                          @ ../GUILib/src/draw/lv_draw_blend.c:0:45
	mov	lr, r4
.Ltmp154:
	@DEBUG_VALUE: fill_normal:disp_w <- $lr
	.loc	8 335 16                        @ ../GUILib/src/draw/lv_draw_blend.c:335:16
	cmp	r0, #241
	blo.w	.LBB0_117
.Ltmp155:
@ %bb.44:
	@DEBUG_VALUE: fill_normal:mask <- $r11
	@DEBUG_VALUE: _lv_blend_fill:mask <- $r11
	@DEBUG_VALUE: fill_normal:draw_area_w <- $r10
	@DEBUG_VALUE: fill_normal:disp <- $r9
	@DEBUG_VALUE: _lv_blend_fill:color <- [DW_OP_LLVM_convert 32 7, DW_OP_LLVM_convert 16 7, DW_OP_stack_value] $r8
	@DEBUG_VALUE: fill_normal:disp_buf_first <- $r7
	@DEBUG_VALUE: fill_normal:disp_buf <- $r6
	@DEBUG_VALUE: fill_normal:mask_res <- $r5
	@DEBUG_VALUE: _lv_blend_fill:mask_res <- $r5
	@DEBUG_VALUE: fill_normal:draw_area_h <- [DW_OP_plus_uconst 20] [$sp+0]
	@DEBUG_VALUE: fill_normal:draw_area <- [DW_OP_plus_uconst 36, DW_OP_stack_value] $sp
	@DEBUG_VALUE: fill_normal:color <- [DW_OP_plus_uconst 28] [$sp+0]
	@DEBUG_VALUE: _lv_blend_fill:disp_buf <- [DW_OP_plus_uconst 32] [$sp+0]
	@DEBUG_VALUE: fill_normal:disp_w <- $lr
	@DEBUG_VALUE: _lv_blend_fill:clip_area <- [DW_OP_LLVM_entry_value 1] $r0
	@DEBUG_VALUE: _lv_blend_fill:fill_area <- [DW_OP_LLVM_entry_value 1] $r1
	.loc	8 336 23 is_stmt 1              @ ../GUILib/src/draw/lv_draw_blend.c:336:23
	ldr.w	r0, [r9]
	.loc	8 336 17 is_stmt 0              @ ../GUILib/src/draw/lv_draw_blend.c:336:17
	mov	r1, r6
	.loc	8 336 31                        @ ../GUILib/src/draw/lv_draw_blend.c:336:31
	ldr	r7, [r0, #52]
.Ltmp156:
	.loc	8 336 17                        @ ../GUILib/src/draw/lv_draw_blend.c:336:17
	ldr	r6, [sp, #28]                   @ 4-byte Reload
.Ltmp157:
	.loc	8 0 17                          @ ../GUILib/src/draw/lv_draw_blend.c:0:17
	add	r3, sp, #36
	.loc	8 336 17                        @ ../GUILib/src/draw/lv_draw_blend.c:336:17
	mov	r2, lr
	str	r6, [sp]
	blx	r7
.Ltmp158:
	.loc	8 0 17                          @ ../GUILib/src/draw/lv_draw_blend.c:0:17
	b	.LBB0_31
.Ltmp159:
.LBB0_45:
	@DEBUG_VALUE: fill_normal:mask <- $r11
	@DEBUG_VALUE: _lv_blend_fill:mask <- $r11
	@DEBUG_VALUE: fill_normal:draw_area_w <- $r10
	@DEBUG_VALUE: fill_normal:disp <- $r9
	@DEBUG_VALUE: _lv_blend_fill:color <- [DW_OP_LLVM_convert 32 7, DW_OP_LLVM_convert 16 7, DW_OP_stack_value] $r8
	@DEBUG_VALUE: fill_normal:disp_buf_first <- $r7
	@DEBUG_VALUE: fill_normal:disp_buf <- $r6
	@DEBUG_VALUE: fill_normal:mask_res <- $r5
	@DEBUG_VALUE: _lv_blend_fill:mask_res <- $r5
	@DEBUG_VALUE: fill_normal:draw_area_h <- [DW_OP_plus_uconst 20] [$sp+0]
	@DEBUG_VALUE: fill_normal:draw_area <- [DW_OP_plus_uconst 36, DW_OP_stack_value] $sp
	@DEBUG_VALUE: fill_normal:color <- [DW_OP_plus_uconst 28] [$sp+0]
	@DEBUG_VALUE: _lv_blend_fill:disp_buf <- [DW_OP_plus_uconst 32] [$sp+0]
	@DEBUG_VALUE: fill_normal:disp_w <- $lr
	@DEBUG_VALUE: _lv_blend_fill:clip_area <- [DW_OP_LLVM_entry_value 1] $r0
	@DEBUG_VALUE: _lv_blend_fill:fill_area <- [DW_OP_LLVM_entry_value 1] $r1
	@DEBUG_VALUE: x_end4 <- undef
	.loc	8 399 12 is_stmt 1              @ ../GUILib/src/draw/lv_draw_blend.c:399:12
	ldr	r1, [sp, #84]
	cmp	r1, #254
	.loc	8 395 59                        @ ../GUILib/src/draw/lv_draw_blend.c:395:59
	ldr	r1, [sp, #28]                   @ 4-byte Reload
	lsl.w	r3, r1, #16
.Ltmp160:
	@DEBUG_VALUE: c32 <- undef
	.loc	8 399 12                        @ ../GUILib/src/draw/lv_draw_blend.c:399:12
	blo.w	.LBB0_102
.Ltmp161:
@ %bb.46:
	@DEBUG_VALUE: fill_normal:mask <- $r11
	@DEBUG_VALUE: _lv_blend_fill:mask <- $r11
	@DEBUG_VALUE: fill_normal:draw_area_w <- $r10
	@DEBUG_VALUE: fill_normal:disp <- $r9
	@DEBUG_VALUE: _lv_blend_fill:color <- [DW_OP_LLVM_convert 32 7, DW_OP_LLVM_convert 16 7, DW_OP_stack_value] $r8
	@DEBUG_VALUE: fill_normal:disp_buf_first <- $r7
	@DEBUG_VALUE: fill_normal:disp_buf <- $r6
	@DEBUG_VALUE: fill_normal:mask_res <- $r5
	@DEBUG_VALUE: _lv_blend_fill:mask_res <- $r5
	@DEBUG_VALUE: fill_normal:draw_area_h <- [DW_OP_plus_uconst 20] [$sp+0]
	@DEBUG_VALUE: fill_normal:draw_area <- [DW_OP_plus_uconst 36, DW_OP_stack_value] $sp
	@DEBUG_VALUE: fill_normal:color <- [DW_OP_plus_uconst 28] [$sp+0]
	@DEBUG_VALUE: _lv_blend_fill:disp_buf <- [DW_OP_plus_uconst 32] [$sp+0]
	@DEBUG_VALUE: fill_normal:disp_w <- $lr
	@DEBUG_VALUE: _lv_blend_fill:clip_area <- [DW_OP_LLVM_entry_value 1] $r0
	@DEBUG_VALUE: _lv_blend_fill:fill_area <- [DW_OP_LLVM_entry_value 1] $r1
	@DEBUG_VALUE: fill_normal:mask <- $r11
	@DEBUG_VALUE: fill_normal:disp_buf_first <- $r7
	@DEBUG_VALUE: fill_normal:y <- 0
	@DEBUG_VALUE: x_end4 <- undef
	@DEBUG_VALUE: c32 <- undef
	.loc	8 400 13                        @ ../GUILib/src/draw/lv_draw_blend.c:400:13
	ldr	r0, [sp, #20]                   @ 4-byte Reload
	cmp	r0, #1
	blt.w	.LBB0_31
.Ltmp162:
@ %bb.47:
	@DEBUG_VALUE: fill_normal:mask <- $r11
	@DEBUG_VALUE: _lv_blend_fill:mask <- $r11
	@DEBUG_VALUE: fill_normal:draw_area_w <- $r10
	@DEBUG_VALUE: fill_normal:disp <- $r9
	@DEBUG_VALUE: _lv_blend_fill:color <- [DW_OP_LLVM_convert 32 7, DW_OP_LLVM_convert 16 7, DW_OP_stack_value] $r8
	@DEBUG_VALUE: fill_normal:disp_buf_first <- $r7
	@DEBUG_VALUE: fill_normal:disp_buf <- $r6
	@DEBUG_VALUE: fill_normal:mask_res <- $r5
	@DEBUG_VALUE: _lv_blend_fill:mask_res <- $r5
	@DEBUG_VALUE: fill_normal:draw_area_h <- [DW_OP_plus_uconst 20] [$sp+0]
	@DEBUG_VALUE: fill_normal:draw_area <- [DW_OP_plus_uconst 36, DW_OP_stack_value] $sp
	@DEBUG_VALUE: fill_normal:color <- [DW_OP_plus_uconst 28] [$sp+0]
	@DEBUG_VALUE: _lv_blend_fill:disp_buf <- [DW_OP_plus_uconst 32] [$sp+0]
	@DEBUG_VALUE: fill_normal:disp_w <- $lr
	@DEBUG_VALUE: fill_normal:y <- 0
	@DEBUG_VALUE: _lv_blend_fill:clip_area <- [DW_OP_LLVM_entry_value 1] $r0
	@DEBUG_VALUE: _lv_blend_fill:fill_area <- [DW_OP_LLVM_entry_value 1] $r1
	.loc	8 0 13 is_stmt 0                @ ../GUILib/src/draw/lv_draw_blend.c:0:13
	ldr	r0, [sp, #28]                   @ 4-byte Reload
	mov	r1, r8
	orr.w	r0, r0, r0, lsl #16
.Ltmp163:
	@DEBUG_VALUE: c32 <- $r0
	str	r0, [sp, #32]                   @ 4-byte Spill
.Ltmp164:
	@DEBUG_VALUE: c32 <- [DW_OP_plus_uconst 32] [$sp+0]
	@DEBUG_VALUE: c32 <- [DW_OP_plus_uconst 32] [$sp+0]
	movw	r0, #63519
	movw	r8, #63519
.Ltmp165:
	ands	r0, r1
	and	r1, r3, #132120576
	sub.w	r12, r10, #4
.Ltmp166:
	@DEBUG_VALUE: x_end4 <- $r12
	movt	r8, #2016
	add.w	r9, r1, r0
.Ltmp167:
	sub.w	r4, lr, r10
	movs	r5, #0
.Ltmp168:
	str.w	r10, [sp, #24]                  @ 4-byte Spill
	str	r4, [sp, #12]                   @ 4-byte Spill
.Ltmp169:
.LBB0_48:                               @ =>This Loop Header: Depth=1
                                        @     Child Loop BB0_51 Depth 2
                                        @     Child Loop BB0_58 Depth 2
                                        @     Child Loop BB0_77 Depth 2
	@DEBUG_VALUE: fill_normal:mask <- $r11
	@DEBUG_VALUE: fill_normal:disp_buf_first <- $r7
	@DEBUG_VALUE: c32 <- [DW_OP_plus_uconst 32] [$sp+0]
	@DEBUG_VALUE: fill_normal:draw_area_h <- [DW_OP_plus_uconst 20] [$sp+0]
	@DEBUG_VALUE: fill_normal:draw_area <- [DW_OP_plus_uconst 36, DW_OP_stack_value] $sp
	@DEBUG_VALUE: fill_normal:color <- [DW_OP_plus_uconst 28] [$sp+0]
	@DEBUG_VALUE: _lv_blend_fill:disp_buf <- [DW_OP_plus_uconst 32] [$sp+0]
	@DEBUG_VALUE: _lv_blend_fill:clip_area <- [DW_OP_LLVM_entry_value 1] $r0
	@DEBUG_VALUE: _lv_blend_fill:fill_area <- [DW_OP_LLVM_entry_value 1] $r1
	@DEBUG_VALUE: fill_normal:mask <- $r11
	@DEBUG_VALUE: fill_normal:disp_buf_first <- $r7
	@DEBUG_VALUE: fill_normal:y <- $r5
	@DEBUG_VALUE: fill_normal:x <- 0
	str	r5, [sp, #16]                   @ 4-byte Spill
.Ltmp170:
	@DEBUG_VALUE: fill_normal:y <- [DW_OP_plus_uconst 16] [$sp+0]
	@DEBUG_VALUE: fill_normal:y <- [DW_OP_plus_uconst 16] [$sp+0]
	@DEBUG_VALUE: fill_normal:y <- [DW_OP_plus_uconst 16] [$sp+0]
	.loc	8 401 17 is_stmt 1              @ ../GUILib/src/draw/lv_draw_blend.c:401:17
	cmp.w	r10, #1
	mov.w	r5, #0
	blt	.LBB0_56
.Ltmp171:
@ %bb.49:                               @   in Loop: Header=BB0_48 Depth=1
	@DEBUG_VALUE: fill_normal:mask <- $r11
	@DEBUG_VALUE: fill_normal:disp_buf_first <- $r7
	@DEBUG_VALUE: fill_normal:y <- [DW_OP_plus_uconst 16] [$sp+0]
	@DEBUG_VALUE: c32 <- [DW_OP_plus_uconst 32] [$sp+0]
	@DEBUG_VALUE: fill_normal:draw_area_h <- [DW_OP_plus_uconst 20] [$sp+0]
	@DEBUG_VALUE: fill_normal:draw_area <- [DW_OP_plus_uconst 36, DW_OP_stack_value] $sp
	@DEBUG_VALUE: fill_normal:color <- [DW_OP_plus_uconst 28] [$sp+0]
	@DEBUG_VALUE: _lv_blend_fill:disp_buf <- [DW_OP_plus_uconst 32] [$sp+0]
	@DEBUG_VALUE: fill_normal:x <- 0
	@DEBUG_VALUE: _lv_blend_fill:clip_area <- [DW_OP_LLVM_entry_value 1] $r0
	@DEBUG_VALUE: _lv_blend_fill:fill_area <- [DW_OP_LLVM_entry_value 1] $r1
	.loc	8 0 0 is_stmt 0                 @ ../GUILib/src/draw/lv_draw_blend.c:0:0
	ands	r0, r11, #3
	.loc	8 401 17                        @ ../GUILib/src/draw/lv_draw_blend.c:401:17
	beq	.LBB0_56
.Ltmp172:
@ %bb.50:                               @   in Loop: Header=BB0_48 Depth=1
	@DEBUG_VALUE: fill_normal:mask <- $r11
	@DEBUG_VALUE: fill_normal:disp_buf_first <- $r7
	@DEBUG_VALUE: fill_normal:y <- [DW_OP_plus_uconst 16] [$sp+0]
	@DEBUG_VALUE: c32 <- [DW_OP_plus_uconst 32] [$sp+0]
	@DEBUG_VALUE: fill_normal:draw_area_h <- [DW_OP_plus_uconst 20] [$sp+0]
	@DEBUG_VALUE: fill_normal:draw_area <- [DW_OP_plus_uconst 36, DW_OP_stack_value] $sp
	@DEBUG_VALUE: fill_normal:color <- [DW_OP_plus_uconst 28] [$sp+0]
	@DEBUG_VALUE: _lv_blend_fill:disp_buf <- [DW_OP_plus_uconst 32] [$sp+0]
	@DEBUG_VALUE: fill_normal:x <- 0
	@DEBUG_VALUE: _lv_blend_fill:clip_area <- [DW_OP_LLVM_entry_value 1] $r0
	@DEBUG_VALUE: _lv_blend_fill:fill_area <- [DW_OP_LLVM_entry_value 1] $r1
	.loc	8 0 17                          @ ../GUILib/src/draw/lv_draw_blend.c:0:17
	movs	r5, #1
.Ltmp173:
	.p2align	2
.LBB0_51:                               @   Parent Loop BB0_48 Depth=1
                                        @ =>  This Inner Loop Header: Depth=2
	@DEBUG_VALUE: fill_normal:y <- [DW_OP_plus_uconst 16] [$sp+0]
	@DEBUG_VALUE: c32 <- [DW_OP_plus_uconst 32] [$sp+0]
	@DEBUG_VALUE: fill_normal:draw_area_h <- [DW_OP_plus_uconst 20] [$sp+0]
	@DEBUG_VALUE: fill_normal:draw_area <- [DW_OP_plus_uconst 36, DW_OP_stack_value] $sp
	@DEBUG_VALUE: fill_normal:color <- [DW_OP_plus_uconst 28] [$sp+0]
	@DEBUG_VALUE: _lv_blend_fill:disp_buf <- [DW_OP_plus_uconst 32] [$sp+0]
	@DEBUG_VALUE: _lv_blend_fill:clip_area <- [DW_OP_LLVM_entry_value 1] $r0
	@DEBUG_VALUE: _lv_blend_fill:fill_area <- [DW_OP_LLVM_entry_value 1] $r1
	@DEBUG_VALUE: fill_normal:mask <- undef
	@DEBUG_VALUE: fill_normal:disp_buf_first <- $r7
	@DEBUG_VALUE: fill_normal:x <- [DW_OP_constu 1, DW_OP_minus, DW_OP_stack_value] $r5
	.loc	8 402 21 is_stmt 1              @ ../GUILib/src/draw/lv_draw_blend.c:402:21
	add.w	r6, r11, r5
	ldrb	r0, [r6, #-1]
	ldr	r1, [sp, #28]                   @ 4-byte Reload
.Ltmp174:
	.loc	8 402 21 is_stmt 0              @ ../GUILib/src/draw/lv_draw_blend.c:402:21
	cmp	r0, #255
	beq	.LBB0_53
.Ltmp175:
@ %bb.52:                               @   in Loop: Header=BB0_51 Depth=2
	@DEBUG_VALUE: fill_normal:disp_buf_first <- $r7
	@DEBUG_VALUE: fill_normal:x <- [DW_OP_constu 1, DW_OP_minus, DW_OP_stack_value] $r5
	@DEBUG_VALUE: fill_normal:y <- [DW_OP_plus_uconst 16] [$sp+0]
	@DEBUG_VALUE: c32 <- [DW_OP_plus_uconst 32] [$sp+0]
	@DEBUG_VALUE: fill_normal:draw_area_h <- [DW_OP_plus_uconst 20] [$sp+0]
	@DEBUG_VALUE: fill_normal:draw_area <- [DW_OP_plus_uconst 36, DW_OP_stack_value] $sp
	@DEBUG_VALUE: fill_normal:color <- [DW_OP_plus_uconst 28] [$sp+0]
	@DEBUG_VALUE: _lv_blend_fill:disp_buf <- [DW_OP_plus_uconst 32] [$sp+0]
	@DEBUG_VALUE: _lv_blend_fill:clip_area <- [DW_OP_LLVM_entry_value 1] $r0
	@DEBUG_VALUE: _lv_blend_fill:fill_area <- [DW_OP_LLVM_entry_value 1] $r1
	.loc	8 402 21                        @ ../GUILib/src/draw/lv_draw_blend.c:402:21
	ldrh	r1, [r7]
.Ltmp176:
	@DEBUG_VALUE: lv_color_mix:c2 <- [DW_OP_LLVM_convert 32 7, DW_OP_LLVM_convert 16 7, DW_OP_stack_value] undef
	@DEBUG_VALUE: lv_color_mix:c1 <- [DW_OP_LLVM_convert 32 7, DW_OP_LLVM_convert 16 7, DW_OP_stack_value] undef
	.loc	4 449 16 is_stmt 1              @ ../GUILib/src/draw/../core/../misc/lv_color.h:449:16
	adds	r0, #4
	.loc	4 450 77                        @ ../GUILib/src/draw/../core/../misc/lv_color.h:450:77
	orr.w	r1, r1, r1, lsl #16
	and.w	r1, r1, r8
.Ltmp177:
	@DEBUG_VALUE: lv_color_mix:fg <- $r9
	@DEBUG_VALUE: lv_color_mix:bg <- $r1
	.loc	4 449 21                        @ ../GUILib/src/draw/../core/../misc/lv_color.h:449:21
	lsrs	r0, r0, #3
.Ltmp178:
	@DEBUG_VALUE: lv_color_mix:mix <- undef
	.loc	4 453 30                        @ ../GUILib/src/draw/../core/../misc/lv_color.h:453:30
	sub.w	r2, r9, r1
	.loc	4 453 36 is_stmt 0              @ ../GUILib/src/draw/../core/../misc/lv_color.h:453:36
	muls	r0, r2, r0
	.loc	4 453 49                        @ ../GUILib/src/draw/../core/../misc/lv_color.h:453:49
	add.w	r0, r1, r0, lsr #5
	.loc	4 453 55                        @ ../GUILib/src/draw/../core/../misc/lv_color.h:453:55
	and.w	r0, r0, r8
.Ltmp179:
	@DEBUG_VALUE: lv_color_mix:result <- $r0
	.loc	4 454 42 is_stmt 1              @ ../GUILib/src/draw/../core/../misc/lv_color.h:454:42
	orr.w	r0, r0, r0, lsr #16
.Ltmp180:
	.loc	4 454 16 is_stmt 0              @ ../GUILib/src/draw/../core/../misc/lv_color.h:454:16
	uxth	r1, r0
.Ltmp181:
	@DEBUG_VALUE: lv_color_mix:ret <- $r1
.LBB0_53:                               @   in Loop: Header=BB0_51 Depth=2
	@DEBUG_VALUE: fill_normal:disp_buf_first <- $r7
	@DEBUG_VALUE: fill_normal:x <- [DW_OP_constu 1, DW_OP_minus, DW_OP_stack_value] $r5
	@DEBUG_VALUE: fill_normal:y <- [DW_OP_plus_uconst 16] [$sp+0]
	@DEBUG_VALUE: c32 <- [DW_OP_plus_uconst 32] [$sp+0]
	@DEBUG_VALUE: fill_normal:draw_area_h <- [DW_OP_plus_uconst 20] [$sp+0]
	@DEBUG_VALUE: fill_normal:draw_area <- [DW_OP_plus_uconst 36, DW_OP_stack_value] $sp
	@DEBUG_VALUE: fill_normal:color <- [DW_OP_plus_uconst 28] [$sp+0]
	@DEBUG_VALUE: _lv_blend_fill:disp_buf <- [DW_OP_plus_uconst 32] [$sp+0]
	@DEBUG_VALUE: _lv_blend_fill:clip_area <- [DW_OP_LLVM_entry_value 1] $r0
	@DEBUG_VALUE: _lv_blend_fill:fill_area <- [DW_OP_LLVM_entry_value 1] $r1
	.loc	8 402 21 is_stmt 1              @ ../GUILib/src/draw/lv_draw_blend.c:402:21
	strh	r1, [r7], #2
.Ltmp182:
	@DEBUG_VALUE: fill_normal:x <- $r5
	@DEBUG_VALUE: fill_normal:disp_buf_first <- undef
	@DEBUG_VALUE: fill_normal:mask <- [DW_OP_plus_uconst 1, DW_OP_stack_value] undef
	.loc	8 401 17                        @ ../GUILib/src/draw/lv_draw_blend.c:401:17
	cmp	r5, r10
	add.w	r1, r5, #1
	bge	.LBB0_55
.Ltmp183:
@ %bb.54:                               @   in Loop: Header=BB0_51 Depth=2
	@DEBUG_VALUE: fill_normal:x <- $r5
	@DEBUG_VALUE: fill_normal:y <- [DW_OP_plus_uconst 16] [$sp+0]
	@DEBUG_VALUE: c32 <- [DW_OP_plus_uconst 32] [$sp+0]
	@DEBUG_VALUE: fill_normal:draw_area_h <- [DW_OP_plus_uconst 20] [$sp+0]
	@DEBUG_VALUE: fill_normal:draw_area <- [DW_OP_plus_uconst 36, DW_OP_stack_value] $sp
	@DEBUG_VALUE: fill_normal:color <- [DW_OP_plus_uconst 28] [$sp+0]
	@DEBUG_VALUE: _lv_blend_fill:disp_buf <- [DW_OP_plus_uconst 32] [$sp+0]
	@DEBUG_VALUE: _lv_blend_fill:clip_area <- [DW_OP_LLVM_entry_value 1] $r0
	@DEBUG_VALUE: _lv_blend_fill:fill_area <- [DW_OP_LLVM_entry_value 1] $r1
	.loc	8 0 0 is_stmt 0                 @ ../GUILib/src/draw/lv_draw_blend.c:0:0
	ands	r0, r6, #3
	mov	r5, r1
.Ltmp184:
	.loc	8 401 17                        @ ../GUILib/src/draw/lv_draw_blend.c:401:17
	bne	.LBB0_51
.Ltmp185:
.LBB0_55:                               @   in Loop: Header=BB0_48 Depth=1
	@DEBUG_VALUE: fill_normal:y <- [DW_OP_plus_uconst 16] [$sp+0]
	@DEBUG_VALUE: c32 <- [DW_OP_plus_uconst 32] [$sp+0]
	@DEBUG_VALUE: fill_normal:draw_area_h <- [DW_OP_plus_uconst 20] [$sp+0]
	@DEBUG_VALUE: fill_normal:draw_area <- [DW_OP_plus_uconst 36, DW_OP_stack_value] $sp
	@DEBUG_VALUE: fill_normal:color <- [DW_OP_plus_uconst 28] [$sp+0]
	@DEBUG_VALUE: _lv_blend_fill:disp_buf <- [DW_OP_plus_uconst 32] [$sp+0]
	@DEBUG_VALUE: _lv_blend_fill:clip_area <- [DW_OP_LLVM_entry_value 1] $r0
	@DEBUG_VALUE: _lv_blend_fill:fill_area <- [DW_OP_LLVM_entry_value 1] $r1
	.loc	8 405 25 is_stmt 1              @ ../GUILib/src/draw/lv_draw_blend.c:405:25
	add.w	r0, r11, r1
	sub.w	r11, r0, #1
.Ltmp186:
	@DEBUG_VALUE: _lv_blend_fill:mask <- [DW_OP_LLVM_entry_value 1] $r3
	subs	r5, r1, #1
.Ltmp187:
.LBB0_56:                               @   in Loop: Header=BB0_48 Depth=1
	@DEBUG_VALUE: fill_normal:y <- [DW_OP_plus_uconst 16] [$sp+0]
	@DEBUG_VALUE: c32 <- [DW_OP_plus_uconst 32] [$sp+0]
	@DEBUG_VALUE: fill_normal:draw_area_h <- [DW_OP_plus_uconst 20] [$sp+0]
	@DEBUG_VALUE: fill_normal:draw_area <- [DW_OP_plus_uconst 36, DW_OP_stack_value] $sp
	@DEBUG_VALUE: fill_normal:color <- [DW_OP_plus_uconst 28] [$sp+0]
	@DEBUG_VALUE: _lv_blend_fill:disp_buf <- [DW_OP_plus_uconst 32] [$sp+0]
	@DEBUG_VALUE: _lv_blend_fill:clip_area <- [DW_OP_LLVM_entry_value 1] $r0
	@DEBUG_VALUE: _lv_blend_fill:fill_area <- [DW_OP_LLVM_entry_value 1] $r1
	@DEBUG_VALUE: fill_normal:mask <- $r11
	@DEBUG_VALUE: fill_normal:disp_buf_first <- $r7
	@DEBUG_VALUE: fill_normal:x <- $r5
	.loc	8 405 17 is_stmt 0              @ ../GUILib/src/draw/lv_draw_blend.c:405:17
	cmp	r5, r12
	bgt.w	.LBB0_75
.Ltmp188:
@ %bb.57:                               @   in Loop: Header=BB0_48 Depth=1
	@DEBUG_VALUE: fill_normal:mask <- $r11
	@DEBUG_VALUE: fill_normal:disp_buf_first <- $r7
	@DEBUG_VALUE: fill_normal:x <- $r5
	@DEBUG_VALUE: fill_normal:y <- [DW_OP_plus_uconst 16] [$sp+0]
	@DEBUG_VALUE: c32 <- [DW_OP_plus_uconst 32] [$sp+0]
	@DEBUG_VALUE: fill_normal:draw_area_h <- [DW_OP_plus_uconst 20] [$sp+0]
	@DEBUG_VALUE: fill_normal:draw_area <- [DW_OP_plus_uconst 36, DW_OP_stack_value] $sp
	@DEBUG_VALUE: fill_normal:color <- [DW_OP_plus_uconst 28] [$sp+0]
	@DEBUG_VALUE: _lv_blend_fill:disp_buf <- [DW_OP_plus_uconst 32] [$sp+0]
	@DEBUG_VALUE: _lv_blend_fill:clip_area <- [DW_OP_LLVM_entry_value 1] $r0
	@DEBUG_VALUE: _lv_blend_fill:fill_area <- [DW_OP_LLVM_entry_value 1] $r1
	.loc	8 0 17                          @ ../GUILib/src/draw/lv_draw_blend.c:0:17
	movs	r6, #0
	movs	r4, #0
.Ltmp189:
	.p2align	2
.LBB0_58:                               @   Parent Loop BB0_48 Depth=1
                                        @ =>  This Inner Loop Header: Depth=2
	@DEBUG_VALUE: fill_normal:y <- [DW_OP_plus_uconst 16] [$sp+0]
	@DEBUG_VALUE: c32 <- [DW_OP_plus_uconst 32] [$sp+0]
	@DEBUG_VALUE: fill_normal:draw_area_h <- [DW_OP_plus_uconst 20] [$sp+0]
	@DEBUG_VALUE: fill_normal:draw_area <- [DW_OP_plus_uconst 36, DW_OP_stack_value] $sp
	@DEBUG_VALUE: fill_normal:color <- [DW_OP_plus_uconst 28] [$sp+0]
	@DEBUG_VALUE: _lv_blend_fill:disp_buf <- [DW_OP_plus_uconst 32] [$sp+0]
	@DEBUG_VALUE: _lv_blend_fill:clip_area <- [DW_OP_LLVM_entry_value 1] $r0
	@DEBUG_VALUE: _lv_blend_fill:fill_area <- [DW_OP_LLVM_entry_value 1] $r1
	@DEBUG_VALUE: fill_normal:mask <- undef
	@DEBUG_VALUE: fill_normal:disp_buf_first <- undef
	@DEBUG_VALUE: fill_normal:x <- undef
	.loc	8 406 39 is_stmt 1              @ ../GUILib/src/draw/lv_draw_blend.c:406:39
	ldr.w	r1, [r11, r4]
.Ltmp190:
	@DEBUG_VALUE: mask32 <- $r1
	.loc	8 407 24                        @ ../GUILib/src/draw/lv_draw_blend.c:407:24
	cmp	r1, #0
	beq.w	.LBB0_73
.Ltmp191:
@ %bb.59:                               @   in Loop: Header=BB0_58 Depth=2
	@DEBUG_VALUE: mask32 <- $r1
	@DEBUG_VALUE: fill_normal:y <- [DW_OP_plus_uconst 16] [$sp+0]
	@DEBUG_VALUE: c32 <- [DW_OP_plus_uconst 32] [$sp+0]
	@DEBUG_VALUE: fill_normal:draw_area_h <- [DW_OP_plus_uconst 20] [$sp+0]
	@DEBUG_VALUE: fill_normal:draw_area <- [DW_OP_plus_uconst 36, DW_OP_stack_value] $sp
	@DEBUG_VALUE: fill_normal:color <- [DW_OP_plus_uconst 28] [$sp+0]
	@DEBUG_VALUE: _lv_blend_fill:disp_buf <- [DW_OP_plus_uconst 32] [$sp+0]
	@DEBUG_VALUE: _lv_blend_fill:clip_area <- [DW_OP_LLVM_entry_value 1] $r0
	@DEBUG_VALUE: _lv_blend_fill:fill_area <- [DW_OP_LLVM_entry_value 1] $r1
	adds	r0, r1, #1
	bne	.LBB0_62
.Ltmp192:
@ %bb.60:                               @   in Loop: Header=BB0_58 Depth=2
	@DEBUG_VALUE: mask32 <- $r1
	@DEBUG_VALUE: fill_normal:y <- [DW_OP_plus_uconst 16] [$sp+0]
	@DEBUG_VALUE: c32 <- [DW_OP_plus_uconst 32] [$sp+0]
	@DEBUG_VALUE: fill_normal:draw_area_h <- [DW_OP_plus_uconst 20] [$sp+0]
	@DEBUG_VALUE: fill_normal:draw_area <- [DW_OP_plus_uconst 36, DW_OP_stack_value] $sp
	@DEBUG_VALUE: fill_normal:color <- [DW_OP_plus_uconst 28] [$sp+0]
	@DEBUG_VALUE: _lv_blend_fill:disp_buf <- [DW_OP_plus_uconst 32] [$sp+0]
	@DEBUG_VALUE: _lv_blend_fill:clip_area <- [DW_OP_LLVM_entry_value 1] $r0
	@DEBUG_VALUE: _lv_blend_fill:fill_area <- [DW_OP_LLVM_entry_value 1] $r1
	.loc	8 409 57                        @ ../GUILib/src/draw/lv_draw_blend.c:409:57
	adds	r0, r7, r6
.Ltmp193:
	.loc	8 409 28 is_stmt 0              @ ../GUILib/src/draw/lv_draw_blend.c:409:28
	lsls	r0, r0, #30
	beq	.LBB0_70
.Ltmp194:
@ %bb.61:                               @   in Loop: Header=BB0_58 Depth=2
	@DEBUG_VALUE: mask32 <- $r1
	@DEBUG_VALUE: fill_normal:y <- [DW_OP_plus_uconst 16] [$sp+0]
	@DEBUG_VALUE: c32 <- [DW_OP_plus_uconst 32] [$sp+0]
	@DEBUG_VALUE: fill_normal:draw_area_h <- [DW_OP_plus_uconst 20] [$sp+0]
	@DEBUG_VALUE: fill_normal:draw_area <- [DW_OP_plus_uconst 36, DW_OP_stack_value] $sp
	@DEBUG_VALUE: fill_normal:color <- [DW_OP_plus_uconst 28] [$sp+0]
	@DEBUG_VALUE: _lv_blend_fill:disp_buf <- [DW_OP_plus_uconst 32] [$sp+0]
	@DEBUG_VALUE: _lv_blend_fill:clip_area <- [DW_OP_LLVM_entry_value 1] $r0
	@DEBUG_VALUE: _lv_blend_fill:fill_area <- [DW_OP_LLVM_entry_value 1] $r1
	.loc	8 0 28                          @ ../GUILib/src/draw/lv_draw_blend.c:0:28
	ldr	r1, [sp, #28]                   @ 4-byte Reload
.Ltmp195:
	.loc	8 412 32 is_stmt 1              @ ../GUILib/src/draw/lv_draw_blend.c:412:32
	ldr	r2, [sp, #32]                   @ 4-byte Reload
	.loc	8 410 53                        @ ../GUILib/src/draw/lv_draw_blend.c:410:53
	add.w	r0, r7, r4, lsl #1
	strh.w	r1, [r7, r4, lsl #1]
.Ltmp196:
	@DEBUG_VALUE: d <- [DW_OP_plus_uconst 2, DW_OP_stack_value] undef
	.loc	8 412 32                        @ ../GUILib/src/draw/lv_draw_blend.c:412:32
	str.w	r2, [r0, #2]
	.loc	8 413 53                        @ ../GUILib/src/draw/lv_draw_blend.c:413:53
	strh	r1, [r0, #6]
	b	.LBB0_73
.Ltmp197:
	.p2align	2
.LBB0_62:                               @   in Loop: Header=BB0_58 Depth=2
	@DEBUG_VALUE: mask32 <- $r1
	@DEBUG_VALUE: fill_normal:y <- [DW_OP_plus_uconst 16] [$sp+0]
	@DEBUG_VALUE: c32 <- [DW_OP_plus_uconst 32] [$sp+0]
	@DEBUG_VALUE: fill_normal:draw_area_h <- [DW_OP_plus_uconst 20] [$sp+0]
	@DEBUG_VALUE: fill_normal:draw_area <- [DW_OP_plus_uconst 36, DW_OP_stack_value] $sp
	@DEBUG_VALUE: fill_normal:color <- [DW_OP_plus_uconst 28] [$sp+0]
	@DEBUG_VALUE: _lv_blend_fill:disp_buf <- [DW_OP_plus_uconst 32] [$sp+0]
	@DEBUG_VALUE: _lv_blend_fill:clip_area <- [DW_OP_LLVM_entry_value 1] $r0
	@DEBUG_VALUE: _lv_blend_fill:fill_area <- [DW_OP_LLVM_entry_value 1] $r1
	.loc	8 407 24                        @ ../GUILib/src/draw/lv_draw_blend.c:407:24
	uxtb	r0, r1
.Ltmp198:
	.loc	8 430 25                        @ ../GUILib/src/draw/lv_draw_blend.c:430:25
	cmp	r0, #255
	ldr	r0, [sp, #28]                   @ 4-byte Reload
	mov	r10, r12
.Ltmp199:
	@DEBUG_VALUE: x_end4 <- $r10
	beq	.LBB0_64
.Ltmp200:
@ %bb.63:                               @   in Loop: Header=BB0_58 Depth=2
	@DEBUG_VALUE: mask32 <- $r1
	@DEBUG_VALUE: fill_normal:y <- [DW_OP_plus_uconst 16] [$sp+0]
	@DEBUG_VALUE: c32 <- [DW_OP_plus_uconst 32] [$sp+0]
	@DEBUG_VALUE: fill_normal:draw_area_h <- [DW_OP_plus_uconst 20] [$sp+0]
	@DEBUG_VALUE: fill_normal:draw_area <- [DW_OP_plus_uconst 36, DW_OP_stack_value] $sp
	@DEBUG_VALUE: fill_normal:color <- [DW_OP_plus_uconst 28] [$sp+0]
	@DEBUG_VALUE: _lv_blend_fill:disp_buf <- [DW_OP_plus_uconst 32] [$sp+0]
	@DEBUG_VALUE: _lv_blend_fill:clip_area <- [DW_OP_LLVM_entry_value 1] $r0
	@DEBUG_VALUE: _lv_blend_fill:fill_area <- [DW_OP_LLVM_entry_value 1] $r1
	.loc	8 430 25 is_stmt 0              @ ../GUILib/src/draw/lv_draw_blend.c:430:25
	ldrh.w	r0, [r7, r4, lsl #1]
.Ltmp201:
	@DEBUG_VALUE: lv_color_mix:c2 <- [DW_OP_LLVM_convert 32 7, DW_OP_LLVM_convert 16 7, DW_OP_stack_value] undef
	@DEBUG_VALUE: lv_color_mix:c1 <- [DW_OP_LLVM_convert 32 7, DW_OP_LLVM_convert 16 7, DW_OP_stack_value] undef
	.loc	4 449 16 is_stmt 1              @ ../GUILib/src/draw/../core/../misc/lv_color.h:449:16
	movs	r2, #4
	.loc	4 450 77                        @ ../GUILib/src/draw/../core/../misc/lv_color.h:450:77
	orr.w	r0, r0, r0, lsl #16
	.loc	4 449 16                        @ ../GUILib/src/draw/../core/../misc/lv_color.h:449:16
	uxtab	r1, r2, r1
.Ltmp202:
	.loc	4 450 77                        @ ../GUILib/src/draw/../core/../misc/lv_color.h:450:77
	and.w	r0, r0, r8
.Ltmp203:
	@DEBUG_VALUE: lv_color_mix:fg <- $r9
	@DEBUG_VALUE: lv_color_mix:bg <- $r0
	.loc	4 449 21                        @ ../GUILib/src/draw/../core/../misc/lv_color.h:449:21
	lsrs	r1, r1, #3
.Ltmp204:
	@DEBUG_VALUE: lv_color_mix:mix <- [DW_OP_LLVM_convert 32 7, DW_OP_LLVM_convert 8 7, DW_OP_stack_value] undef
	.loc	4 453 30                        @ ../GUILib/src/draw/../core/../misc/lv_color.h:453:30
	sub.w	r2, r9, r0
	.loc	4 453 36 is_stmt 0              @ ../GUILib/src/draw/../core/../misc/lv_color.h:453:36
	muls	r1, r2, r1
	.loc	4 453 49                        @ ../GUILib/src/draw/../core/../misc/lv_color.h:453:49
	add.w	r0, r0, r1, lsr #5
.Ltmp205:
	.loc	4 453 55                        @ ../GUILib/src/draw/../core/../misc/lv_color.h:453:55
	and.w	r0, r0, r8
.Ltmp206:
	@DEBUG_VALUE: lv_color_mix:result <- $r0
	.loc	4 454 42 is_stmt 1              @ ../GUILib/src/draw/../core/../misc/lv_color.h:454:42
	orr.w	r0, r0, r0, lsr #16
.Ltmp207:
	.loc	4 454 16 is_stmt 0              @ ../GUILib/src/draw/../core/../misc/lv_color.h:454:16
	uxth	r0, r0
.Ltmp208:
	@DEBUG_VALUE: lv_color_mix:ret <- $r0
.LBB0_64:                               @   in Loop: Header=BB0_58 Depth=2
	@DEBUG_VALUE: fill_normal:y <- [DW_OP_plus_uconst 16] [$sp+0]
	@DEBUG_VALUE: c32 <- [DW_OP_plus_uconst 32] [$sp+0]
	@DEBUG_VALUE: fill_normal:draw_area_h <- [DW_OP_plus_uconst 20] [$sp+0]
	@DEBUG_VALUE: fill_normal:draw_area <- [DW_OP_plus_uconst 36, DW_OP_stack_value] $sp
	@DEBUG_VALUE: fill_normal:color <- [DW_OP_plus_uconst 28] [$sp+0]
	@DEBUG_VALUE: _lv_blend_fill:disp_buf <- [DW_OP_plus_uconst 32] [$sp+0]
	@DEBUG_VALUE: _lv_blend_fill:clip_area <- [DW_OP_LLVM_entry_value 1] $r0
	@DEBUG_VALUE: _lv_blend_fill:fill_area <- [DW_OP_LLVM_entry_value 1] $r1
	.loc	8 430 25 is_stmt 1              @ ../GUILib/src/draw/lv_draw_blend.c:430:25
	strh.w	r0, [r7, r4, lsl #1]
.Ltmp209:
	@DEBUG_VALUE: fill_normal:disp_buf_first <- [DW_OP_plus_uconst 2, DW_OP_stack_value] undef
	@DEBUG_VALUE: fill_normal:mask <- [DW_OP_plus_uconst 1, DW_OP_stack_value] undef
	.loc	8 431 25                        @ ../GUILib/src/draw/lv_draw_blend.c:431:25
	add.w	r12, r11, r4
	ldrb.w	lr, [r12, #1]
	ldr	r0, [sp, #28]                   @ 4-byte Reload
.Ltmp210:
	.loc	8 431 25 is_stmt 0              @ ../GUILib/src/draw/lv_draw_blend.c:431:25
	add.w	r1, r7, r4, lsl #1
	cmp.w	lr, #255
	beq	.LBB0_66
.Ltmp211:
@ %bb.65:                               @   in Loop: Header=BB0_58 Depth=2
	@DEBUG_VALUE: fill_normal:y <- [DW_OP_plus_uconst 16] [$sp+0]
	@DEBUG_VALUE: c32 <- [DW_OP_plus_uconst 32] [$sp+0]
	@DEBUG_VALUE: fill_normal:draw_area_h <- [DW_OP_plus_uconst 20] [$sp+0]
	@DEBUG_VALUE: fill_normal:draw_area <- [DW_OP_plus_uconst 36, DW_OP_stack_value] $sp
	@DEBUG_VALUE: fill_normal:color <- [DW_OP_plus_uconst 28] [$sp+0]
	@DEBUG_VALUE: _lv_blend_fill:disp_buf <- [DW_OP_plus_uconst 32] [$sp+0]
	@DEBUG_VALUE: _lv_blend_fill:clip_area <- [DW_OP_LLVM_entry_value 1] $r0
	@DEBUG_VALUE: _lv_blend_fill:fill_area <- [DW_OP_LLVM_entry_value 1] $r1
	.loc	8 431 25                        @ ../GUILib/src/draw/lv_draw_blend.c:431:25
	ldrh	r0, [r1, #2]
.Ltmp212:
	@DEBUG_VALUE: lv_color_mix:c2 <- [DW_OP_LLVM_convert 32 7, DW_OP_LLVM_convert 16 7, DW_OP_stack_value] undef
	@DEBUG_VALUE: lv_color_mix:c1 <- [DW_OP_LLVM_convert 32 7, DW_OP_LLVM_convert 16 7, DW_OP_stack_value] undef
	.loc	4 449 16 is_stmt 1              @ ../GUILib/src/draw/../core/../misc/lv_color.h:449:16
	add.w	r2, lr, #4
	.loc	4 450 77                        @ ../GUILib/src/draw/../core/../misc/lv_color.h:450:77
	orr.w	r0, r0, r0, lsl #16
	and.w	r0, r0, r8
.Ltmp213:
	@DEBUG_VALUE: lv_color_mix:fg <- $r9
	@DEBUG_VALUE: lv_color_mix:bg <- $r0
	.loc	4 449 21                        @ ../GUILib/src/draw/../core/../misc/lv_color.h:449:21
	lsrs	r2, r2, #3
.Ltmp214:
	@DEBUG_VALUE: lv_color_mix:mix <- undef
	.loc	4 453 30                        @ ../GUILib/src/draw/../core/../misc/lv_color.h:453:30
	sub.w	r3, r9, r0
	.loc	4 453 36 is_stmt 0              @ ../GUILib/src/draw/../core/../misc/lv_color.h:453:36
	muls	r2, r3, r2
	.loc	4 453 49                        @ ../GUILib/src/draw/../core/../misc/lv_color.h:453:49
	add.w	r0, r0, r2, lsr #5
.Ltmp215:
	.loc	4 453 55                        @ ../GUILib/src/draw/../core/../misc/lv_color.h:453:55
	and.w	r0, r0, r8
.Ltmp216:
	@DEBUG_VALUE: lv_color_mix:result <- $r0
	.loc	4 454 42 is_stmt 1              @ ../GUILib/src/draw/../core/../misc/lv_color.h:454:42
	orr.w	r0, r0, r0, lsr #16
.Ltmp217:
	.loc	4 454 16 is_stmt 0              @ ../GUILib/src/draw/../core/../misc/lv_color.h:454:16
	uxth	r0, r0
.Ltmp218:
	@DEBUG_VALUE: lv_color_mix:ret <- $r0
.LBB0_66:                               @   in Loop: Header=BB0_58 Depth=2
	@DEBUG_VALUE: fill_normal:y <- [DW_OP_plus_uconst 16] [$sp+0]
	@DEBUG_VALUE: c32 <- [DW_OP_plus_uconst 32] [$sp+0]
	@DEBUG_VALUE: fill_normal:draw_area_h <- [DW_OP_plus_uconst 20] [$sp+0]
	@DEBUG_VALUE: fill_normal:draw_area <- [DW_OP_plus_uconst 36, DW_OP_stack_value] $sp
	@DEBUG_VALUE: fill_normal:color <- [DW_OP_plus_uconst 28] [$sp+0]
	@DEBUG_VALUE: _lv_blend_fill:disp_buf <- [DW_OP_plus_uconst 32] [$sp+0]
	@DEBUG_VALUE: _lv_blend_fill:clip_area <- [DW_OP_LLVM_entry_value 1] $r0
	@DEBUG_VALUE: _lv_blend_fill:fill_area <- [DW_OP_LLVM_entry_value 1] $r1
	.loc	8 431 25 is_stmt 1              @ ../GUILib/src/draw/lv_draw_blend.c:431:25
	strh	r0, [r1, #2]
.Ltmp219:
	@DEBUG_VALUE: fill_normal:disp_buf_first <- [DW_OP_plus_uconst 4, DW_OP_stack_value] undef
	@DEBUG_VALUE: fill_normal:mask <- [DW_OP_plus_uconst 2, DW_OP_stack_value] undef
	.loc	8 432 25                        @ ../GUILib/src/draw/lv_draw_blend.c:432:25
	ldrb.w	r0, [r12, #2]
	ldr	r2, [sp, #28]                   @ 4-byte Reload
.Ltmp220:
	.loc	8 432 25 is_stmt 0              @ ../GUILib/src/draw/lv_draw_blend.c:432:25
	cmp	r0, #255
	beq	.LBB0_68
.Ltmp221:
@ %bb.67:                               @   in Loop: Header=BB0_58 Depth=2
	@DEBUG_VALUE: fill_normal:y <- [DW_OP_plus_uconst 16] [$sp+0]
	@DEBUG_VALUE: c32 <- [DW_OP_plus_uconst 32] [$sp+0]
	@DEBUG_VALUE: fill_normal:draw_area_h <- [DW_OP_plus_uconst 20] [$sp+0]
	@DEBUG_VALUE: fill_normal:draw_area <- [DW_OP_plus_uconst 36, DW_OP_stack_value] $sp
	@DEBUG_VALUE: fill_normal:color <- [DW_OP_plus_uconst 28] [$sp+0]
	@DEBUG_VALUE: _lv_blend_fill:disp_buf <- [DW_OP_plus_uconst 32] [$sp+0]
	@DEBUG_VALUE: _lv_blend_fill:clip_area <- [DW_OP_LLVM_entry_value 1] $r0
	@DEBUG_VALUE: _lv_blend_fill:fill_area <- [DW_OP_LLVM_entry_value 1] $r1
	.loc	8 432 25                        @ ../GUILib/src/draw/lv_draw_blend.c:432:25
	ldrh	r2, [r1, #4]
.Ltmp222:
	@DEBUG_VALUE: lv_color_mix:c2 <- [DW_OP_LLVM_convert 32 7, DW_OP_LLVM_convert 16 7, DW_OP_stack_value] undef
	@DEBUG_VALUE: lv_color_mix:c1 <- [DW_OP_LLVM_convert 32 7, DW_OP_LLVM_convert 16 7, DW_OP_stack_value] undef
	.loc	4 449 16 is_stmt 1              @ ../GUILib/src/draw/../core/../misc/lv_color.h:449:16
	adds	r0, #4
	.loc	4 450 77                        @ ../GUILib/src/draw/../core/../misc/lv_color.h:450:77
	orr.w	r2, r2, r2, lsl #16
	and.w	r2, r2, r8
.Ltmp223:
	@DEBUG_VALUE: lv_color_mix:fg <- $r9
	@DEBUG_VALUE: lv_color_mix:bg <- $r2
	.loc	4 449 21                        @ ../GUILib/src/draw/../core/../misc/lv_color.h:449:21
	lsrs	r0, r0, #3
.Ltmp224:
	@DEBUG_VALUE: lv_color_mix:mix <- undef
	.loc	4 453 30                        @ ../GUILib/src/draw/../core/../misc/lv_color.h:453:30
	sub.w	r3, r9, r2
	.loc	4 453 36 is_stmt 0              @ ../GUILib/src/draw/../core/../misc/lv_color.h:453:36
	muls	r0, r3, r0
	.loc	4 453 49                        @ ../GUILib/src/draw/../core/../misc/lv_color.h:453:49
	add.w	r0, r2, r0, lsr #5
	.loc	4 453 55                        @ ../GUILib/src/draw/../core/../misc/lv_color.h:453:55
	and.w	r0, r0, r8
.Ltmp225:
	@DEBUG_VALUE: lv_color_mix:result <- $r0
	.loc	4 454 42 is_stmt 1              @ ../GUILib/src/draw/../core/../misc/lv_color.h:454:42
	orr.w	r0, r0, r0, lsr #16
.Ltmp226:
	.loc	4 454 16 is_stmt 0              @ ../GUILib/src/draw/../core/../misc/lv_color.h:454:16
	uxth	r2, r0
.Ltmp227:
	@DEBUG_VALUE: lv_color_mix:ret <- $r2
.LBB0_68:                               @   in Loop: Header=BB0_58 Depth=2
	@DEBUG_VALUE: fill_normal:y <- [DW_OP_plus_uconst 16] [$sp+0]
	@DEBUG_VALUE: c32 <- [DW_OP_plus_uconst 32] [$sp+0]
	@DEBUG_VALUE: fill_normal:draw_area_h <- [DW_OP_plus_uconst 20] [$sp+0]
	@DEBUG_VALUE: fill_normal:draw_area <- [DW_OP_plus_uconst 36, DW_OP_stack_value] $sp
	@DEBUG_VALUE: fill_normal:color <- [DW_OP_plus_uconst 28] [$sp+0]
	@DEBUG_VALUE: _lv_blend_fill:disp_buf <- [DW_OP_plus_uconst 32] [$sp+0]
	@DEBUG_VALUE: _lv_blend_fill:clip_area <- [DW_OP_LLVM_entry_value 1] $r0
	@DEBUG_VALUE: _lv_blend_fill:fill_area <- [DW_OP_LLVM_entry_value 1] $r1
	.loc	8 432 25 is_stmt 1              @ ../GUILib/src/draw/lv_draw_blend.c:432:25
	strh	r2, [r1, #4]
.Ltmp228:
	@DEBUG_VALUE: fill_normal:disp_buf_first <- [DW_OP_plus_uconst 6, DW_OP_stack_value] undef
	@DEBUG_VALUE: fill_normal:mask <- [DW_OP_plus_uconst 3, DW_OP_stack_value] undef
	.loc	8 433 25                        @ ../GUILib/src/draw/lv_draw_blend.c:433:25
	ldrb.w	r0, [r12, #3]
.Ltmp229:
	.loc	8 433 25 is_stmt 0              @ ../GUILib/src/draw/lv_draw_blend.c:433:25
	cmp	r0, #255
	beq	.LBB0_71
.Ltmp230:
@ %bb.69:                               @   in Loop: Header=BB0_58 Depth=2
	@DEBUG_VALUE: fill_normal:y <- [DW_OP_plus_uconst 16] [$sp+0]
	@DEBUG_VALUE: c32 <- [DW_OP_plus_uconst 32] [$sp+0]
	@DEBUG_VALUE: fill_normal:draw_area_h <- [DW_OP_plus_uconst 20] [$sp+0]
	@DEBUG_VALUE: fill_normal:draw_area <- [DW_OP_plus_uconst 36, DW_OP_stack_value] $sp
	@DEBUG_VALUE: fill_normal:color <- [DW_OP_plus_uconst 28] [$sp+0]
	@DEBUG_VALUE: _lv_blend_fill:disp_buf <- [DW_OP_plus_uconst 32] [$sp+0]
	@DEBUG_VALUE: _lv_blend_fill:clip_area <- [DW_OP_LLVM_entry_value 1] $r0
	@DEBUG_VALUE: _lv_blend_fill:fill_area <- [DW_OP_LLVM_entry_value 1] $r1
	.loc	8 433 25                        @ ../GUILib/src/draw/lv_draw_blend.c:433:25
	ldrh	r2, [r1, #6]
.Ltmp231:
	@DEBUG_VALUE: lv_color_mix:c2 <- [DW_OP_LLVM_convert 32 7, DW_OP_LLVM_convert 16 7, DW_OP_stack_value] undef
	@DEBUG_VALUE: lv_color_mix:c1 <- [DW_OP_LLVM_convert 32 7, DW_OP_LLVM_convert 16 7, DW_OP_stack_value] undef
	.loc	4 449 16 is_stmt 1              @ ../GUILib/src/draw/../core/../misc/lv_color.h:449:16
	adds	r0, #4
	.loc	4 450 77                        @ ../GUILib/src/draw/../core/../misc/lv_color.h:450:77
	orr.w	r2, r2, r2, lsl #16
	and.w	r2, r2, r8
.Ltmp232:
	@DEBUG_VALUE: lv_color_mix:fg <- $r9
	@DEBUG_VALUE: lv_color_mix:bg <- $r2
	.loc	4 449 21                        @ ../GUILib/src/draw/../core/../misc/lv_color.h:449:21
	lsrs	r0, r0, #3
.Ltmp233:
	@DEBUG_VALUE: lv_color_mix:mix <- undef
	.loc	4 453 30                        @ ../GUILib/src/draw/../core/../misc/lv_color.h:453:30
	sub.w	r3, r9, r2
	.loc	4 453 36 is_stmt 0              @ ../GUILib/src/draw/../core/../misc/lv_color.h:453:36
	muls	r0, r3, r0
	.loc	4 453 49                        @ ../GUILib/src/draw/../core/../misc/lv_color.h:453:49
	add.w	r0, r2, r0, lsr #5
	.loc	4 453 55                        @ ../GUILib/src/draw/../core/../misc/lv_color.h:453:55
	and.w	r0, r0, r8
.Ltmp234:
	@DEBUG_VALUE: lv_color_mix:result <- $r0
	.loc	4 454 42 is_stmt 1              @ ../GUILib/src/draw/../core/../misc/lv_color.h:454:42
	orr.w	r0, r0, r0, lsr #16
.Ltmp235:
	@DEBUG_VALUE: lv_color_mix:ret <- undef
	.loc	4 0 42 is_stmt 0                @ ../GUILib/src/draw/../core/../misc/lv_color.h:0:42
	b	.LBB0_72
.Ltmp236:
.LBB0_70:                               @   in Loop: Header=BB0_58 Depth=2
	@DEBUG_VALUE: mask32 <- $r1
	@DEBUG_VALUE: fill_normal:y <- [DW_OP_plus_uconst 16] [$sp+0]
	@DEBUG_VALUE: c32 <- [DW_OP_plus_uconst 32] [$sp+0]
	@DEBUG_VALUE: fill_normal:draw_area_h <- [DW_OP_plus_uconst 20] [$sp+0]
	@DEBUG_VALUE: fill_normal:draw_area <- [DW_OP_plus_uconst 36, DW_OP_stack_value] $sp
	@DEBUG_VALUE: fill_normal:color <- [DW_OP_plus_uconst 28] [$sp+0]
	@DEBUG_VALUE: _lv_blend_fill:disp_buf <- [DW_OP_plus_uconst 32] [$sp+0]
	@DEBUG_VALUE: _lv_blend_fill:clip_area <- [DW_OP_LLVM_entry_value 1] $r0
	@DEBUG_VALUE: _lv_blend_fill:fill_area <- [DW_OP_LLVM_entry_value 1] $r1
	@DEBUG_VALUE: d <- undef
	ldr	r1, [sp, #32]                   @ 4-byte Reload
.Ltmp237:
	.loc	8 417 32 is_stmt 1              @ ../GUILib/src/draw/lv_draw_blend.c:417:32
	add.w	r0, r7, r4, lsl #1
	str.w	r1, [r7, r4, lsl #1]
	.loc	8 418 38                        @ ../GUILib/src/draw/lv_draw_blend.c:418:38
	str	r1, [r0, #4]
	b	.LBB0_73
.Ltmp238:
.LBB0_71:                               @   in Loop: Header=BB0_58 Depth=2
	@DEBUG_VALUE: fill_normal:y <- [DW_OP_plus_uconst 16] [$sp+0]
	@DEBUG_VALUE: c32 <- [DW_OP_plus_uconst 32] [$sp+0]
	@DEBUG_VALUE: fill_normal:draw_area_h <- [DW_OP_plus_uconst 20] [$sp+0]
	@DEBUG_VALUE: fill_normal:draw_area <- [DW_OP_plus_uconst 36, DW_OP_stack_value] $sp
	@DEBUG_VALUE: fill_normal:color <- [DW_OP_plus_uconst 28] [$sp+0]
	@DEBUG_VALUE: _lv_blend_fill:disp_buf <- [DW_OP_plus_uconst 32] [$sp+0]
	@DEBUG_VALUE: _lv_blend_fill:clip_area <- [DW_OP_LLVM_entry_value 1] $r0
	@DEBUG_VALUE: _lv_blend_fill:fill_area <- [DW_OP_LLVM_entry_value 1] $r1
	.loc	8 433 25                        @ ../GUILib/src/draw/lv_draw_blend.c:433:25
	ldr	r0, [sp, #28]                   @ 4-byte Reload
.Ltmp239:
.LBB0_72:                               @   in Loop: Header=BB0_58 Depth=2
	@DEBUG_VALUE: fill_normal:y <- [DW_OP_plus_uconst 16] [$sp+0]
	@DEBUG_VALUE: c32 <- [DW_OP_plus_uconst 32] [$sp+0]
	@DEBUG_VALUE: fill_normal:draw_area_h <- [DW_OP_plus_uconst 20] [$sp+0]
	@DEBUG_VALUE: fill_normal:draw_area <- [DW_OP_plus_uconst 36, DW_OP_stack_value] $sp
	@DEBUG_VALUE: fill_normal:color <- [DW_OP_plus_uconst 28] [$sp+0]
	@DEBUG_VALUE: _lv_blend_fill:disp_buf <- [DW_OP_plus_uconst 32] [$sp+0]
	@DEBUG_VALUE: _lv_blend_fill:clip_area <- [DW_OP_LLVM_entry_value 1] $r0
	@DEBUG_VALUE: _lv_blend_fill:fill_area <- [DW_OP_LLVM_entry_value 1] $r1
	.loc	8 0 25 is_stmt 0                @ ../GUILib/src/draw/lv_draw_blend.c:0:25
	mov	r12, r10
	ldr.w	r10, [sp, #24]                  @ 4-byte Reload
	.loc	8 433 25                        @ ../GUILib/src/draw/lv_draw_blend.c:433:25
	strh	r0, [r1, #6]
.Ltmp240:
.LBB0_73:                               @   in Loop: Header=BB0_58 Depth=2
	@DEBUG_VALUE: fill_normal:y <- [DW_OP_plus_uconst 16] [$sp+0]
	@DEBUG_VALUE: c32 <- [DW_OP_plus_uconst 32] [$sp+0]
	@DEBUG_VALUE: fill_normal:draw_area_h <- [DW_OP_plus_uconst 20] [$sp+0]
	@DEBUG_VALUE: fill_normal:draw_area <- [DW_OP_plus_uconst 36, DW_OP_stack_value] $sp
	@DEBUG_VALUE: fill_normal:color <- [DW_OP_plus_uconst 28] [$sp+0]
	@DEBUG_VALUE: _lv_blend_fill:disp_buf <- [DW_OP_plus_uconst 32] [$sp+0]
	@DEBUG_VALUE: _lv_blend_fill:clip_area <- [DW_OP_LLVM_entry_value 1] $r0
	@DEBUG_VALUE: _lv_blend_fill:fill_area <- [DW_OP_LLVM_entry_value 1] $r1
	@DEBUG_VALUE: fill_normal:mask <- [DW_OP_plus_uconst 4, DW_OP_stack_value] undef
	@DEBUG_VALUE: fill_normal:disp_buf_first <- [DW_OP_plus_uconst 8, DW_OP_stack_value] undef
	@DEBUG_VALUE: fill_normal:x <- [DW_OP_plus_uconst 4, DW_OP_stack_value] undef
	.loc	8 405 25 is_stmt 1              @ ../GUILib/src/draw/lv_draw_blend.c:405:25
	adds	r4, #4
	adds	r1, r5, r4
.Ltmp241:
	.loc	8 405 17 is_stmt 0              @ ../GUILib/src/draw/lv_draw_blend.c:405:17
	cmp	r1, r12
.Ltmp242:
	.loc	8 405 25                        @ ../GUILib/src/draw/lv_draw_blend.c:405:25
	add.w	r6, r6, #8
.Ltmp243:
	.loc	8 405 17                        @ ../GUILib/src/draw/lv_draw_blend.c:405:17
	ble.w	.LBB0_58
.Ltmp244:
@ %bb.74:                               @   in Loop: Header=BB0_48 Depth=1
	@DEBUG_VALUE: fill_normal:y <- [DW_OP_plus_uconst 16] [$sp+0]
	@DEBUG_VALUE: c32 <- [DW_OP_plus_uconst 32] [$sp+0]
	@DEBUG_VALUE: fill_normal:draw_area_h <- [DW_OP_plus_uconst 20] [$sp+0]
	@DEBUG_VALUE: fill_normal:draw_area <- [DW_OP_plus_uconst 36, DW_OP_stack_value] $sp
	@DEBUG_VALUE: fill_normal:color <- [DW_OP_plus_uconst 28] [$sp+0]
	@DEBUG_VALUE: _lv_blend_fill:disp_buf <- [DW_OP_plus_uconst 32] [$sp+0]
	@DEBUG_VALUE: _lv_blend_fill:clip_area <- [DW_OP_LLVM_entry_value 1] $r0
	@DEBUG_VALUE: _lv_blend_fill:fill_area <- [DW_OP_LLVM_entry_value 1] $r1
	.loc	8 441 25 is_stmt 1              @ ../GUILib/src/draw/lv_draw_blend.c:441:25
	add	r11, r4
	ldr	r4, [sp, #12]                   @ 4-byte Reload
	add	r7, r6
.Ltmp245:
	.loc	8 0 0 is_stmt 0                 @ ../GUILib/src/draw/lv_draw_blend.c:0:0
	mov	r5, r1
.Ltmp246:
.LBB0_75:                               @   in Loop: Header=BB0_48 Depth=1
	@DEBUG_VALUE: fill_normal:y <- [DW_OP_plus_uconst 16] [$sp+0]
	@DEBUG_VALUE: c32 <- [DW_OP_plus_uconst 32] [$sp+0]
	@DEBUG_VALUE: fill_normal:draw_area_h <- [DW_OP_plus_uconst 20] [$sp+0]
	@DEBUG_VALUE: fill_normal:draw_area <- [DW_OP_plus_uconst 36, DW_OP_stack_value] $sp
	@DEBUG_VALUE: fill_normal:color <- [DW_OP_plus_uconst 28] [$sp+0]
	@DEBUG_VALUE: _lv_blend_fill:disp_buf <- [DW_OP_plus_uconst 32] [$sp+0]
	@DEBUG_VALUE: _lv_blend_fill:clip_area <- [DW_OP_LLVM_entry_value 1] $r0
	@DEBUG_VALUE: _lv_blend_fill:fill_area <- [DW_OP_LLVM_entry_value 1] $r1
	@DEBUG_VALUE: fill_normal:mask <- $r11
	@DEBUG_VALUE: fill_normal:disp_buf_first <- $r7
	@DEBUG_VALUE: fill_normal:x <- $r5
	.loc	8 441 17                        @ ../GUILib/src/draw/lv_draw_blend.c:441:17
	cmp	r5, r10
	bge	.LBB0_80
.Ltmp247:
@ %bb.76:                               @   in Loop: Header=BB0_48 Depth=1
	@DEBUG_VALUE: fill_normal:mask <- $r11
	@DEBUG_VALUE: fill_normal:disp_buf_first <- $r7
	@DEBUG_VALUE: fill_normal:x <- $r5
	@DEBUG_VALUE: fill_normal:y <- [DW_OP_plus_uconst 16] [$sp+0]
	@DEBUG_VALUE: c32 <- [DW_OP_plus_uconst 32] [$sp+0]
	@DEBUG_VALUE: fill_normal:draw_area_h <- [DW_OP_plus_uconst 20] [$sp+0]
	@DEBUG_VALUE: fill_normal:draw_area <- [DW_OP_plus_uconst 36, DW_OP_stack_value] $sp
	@DEBUG_VALUE: fill_normal:color <- [DW_OP_plus_uconst 28] [$sp+0]
	@DEBUG_VALUE: _lv_blend_fill:disp_buf <- [DW_OP_plus_uconst 32] [$sp+0]
	@DEBUG_VALUE: _lv_blend_fill:clip_area <- [DW_OP_LLVM_entry_value 1] $r0
	@DEBUG_VALUE: _lv_blend_fill:fill_area <- [DW_OP_LLVM_entry_value 1] $r1
	sub.w	r1, r10, r5
	ldr	r5, [sp, #16]                   @ 4-byte Reload
.Ltmp248:
	.p2align	2
.LBB0_77:                               @   Parent Loop BB0_48 Depth=1
                                        @ =>  This Inner Loop Header: Depth=2
	@DEBUG_VALUE: fill_normal:mask <- $r11
	@DEBUG_VALUE: fill_normal:disp_buf_first <- $r7
	@DEBUG_VALUE: fill_normal:y <- [DW_OP_plus_uconst 16] [$sp+0]
	@DEBUG_VALUE: c32 <- [DW_OP_plus_uconst 32] [$sp+0]
	@DEBUG_VALUE: fill_normal:draw_area_h <- [DW_OP_plus_uconst 20] [$sp+0]
	@DEBUG_VALUE: fill_normal:draw_area <- [DW_OP_plus_uconst 36, DW_OP_stack_value] $sp
	@DEBUG_VALUE: fill_normal:color <- [DW_OP_plus_uconst 28] [$sp+0]
	@DEBUG_VALUE: _lv_blend_fill:disp_buf <- [DW_OP_plus_uconst 32] [$sp+0]
	@DEBUG_VALUE: _lv_blend_fill:clip_area <- [DW_OP_LLVM_entry_value 1] $r0
	@DEBUG_VALUE: _lv_blend_fill:fill_area <- [DW_OP_LLVM_entry_value 1] $r1
	@DEBUG_VALUE: fill_normal:mask <- $r11
	@DEBUG_VALUE: fill_normal:disp_buf_first <- $r7
	@DEBUG_VALUE: fill_normal:x <- undef
	.loc	8 442 21 is_stmt 1              @ ../GUILib/src/draw/lv_draw_blend.c:442:21
	ldrb.w	r0, [r11]
	ldr	r6, [sp, #28]                   @ 4-byte Reload
.Ltmp249:
	.loc	8 442 21 is_stmt 0              @ ../GUILib/src/draw/lv_draw_blend.c:442:21
	cmp	r0, #255
	beq	.LBB0_79
.Ltmp250:
@ %bb.78:                               @   in Loop: Header=BB0_77 Depth=2
	@DEBUG_VALUE: fill_normal:mask <- $r11
	@DEBUG_VALUE: fill_normal:disp_buf_first <- $r7
	@DEBUG_VALUE: fill_normal:y <- [DW_OP_plus_uconst 16] [$sp+0]
	@DEBUG_VALUE: c32 <- [DW_OP_plus_uconst 32] [$sp+0]
	@DEBUG_VALUE: fill_normal:draw_area_h <- [DW_OP_plus_uconst 20] [$sp+0]
	@DEBUG_VALUE: fill_normal:draw_area <- [DW_OP_plus_uconst 36, DW_OP_stack_value] $sp
	@DEBUG_VALUE: fill_normal:color <- [DW_OP_plus_uconst 28] [$sp+0]
	@DEBUG_VALUE: _lv_blend_fill:disp_buf <- [DW_OP_plus_uconst 32] [$sp+0]
	@DEBUG_VALUE: _lv_blend_fill:clip_area <- [DW_OP_LLVM_entry_value 1] $r0
	@DEBUG_VALUE: _lv_blend_fill:fill_area <- [DW_OP_LLVM_entry_value 1] $r1
	.loc	8 442 21                        @ ../GUILib/src/draw/lv_draw_blend.c:442:21
	ldrh	r2, [r7]
.Ltmp251:
	@DEBUG_VALUE: lv_color_mix:c2 <- [DW_OP_LLVM_convert 32 7, DW_OP_LLVM_convert 16 7, DW_OP_stack_value] undef
	@DEBUG_VALUE: lv_color_mix:c1 <- [DW_OP_LLVM_convert 32 7, DW_OP_LLVM_convert 16 7, DW_OP_stack_value] undef
	.loc	4 449 16 is_stmt 1              @ ../GUILib/src/draw/../core/../misc/lv_color.h:449:16
	adds	r0, #4
	.loc	4 450 77                        @ ../GUILib/src/draw/../core/../misc/lv_color.h:450:77
	orr.w	r2, r2, r2, lsl #16
	and.w	r2, r2, r8
.Ltmp252:
	@DEBUG_VALUE: lv_color_mix:fg <- $r9
	@DEBUG_VALUE: lv_color_mix:bg <- $r2
	.loc	4 449 21                        @ ../GUILib/src/draw/../core/../misc/lv_color.h:449:21
	lsrs	r0, r0, #3
.Ltmp253:
	@DEBUG_VALUE: lv_color_mix:mix <- undef
	.loc	4 453 30                        @ ../GUILib/src/draw/../core/../misc/lv_color.h:453:30
	sub.w	r3, r9, r2
	.loc	4 453 36 is_stmt 0              @ ../GUILib/src/draw/../core/../misc/lv_color.h:453:36
	muls	r0, r3, r0
	.loc	4 453 49                        @ ../GUILib/src/draw/../core/../misc/lv_color.h:453:49
	add.w	r0, r2, r0, lsr #5
	.loc	4 453 55                        @ ../GUILib/src/draw/../core/../misc/lv_color.h:453:55
	and.w	r0, r0, r8
.Ltmp254:
	@DEBUG_VALUE: lv_color_mix:result <- $r0
	.loc	4 454 42 is_stmt 1              @ ../GUILib/src/draw/../core/../misc/lv_color.h:454:42
	orr.w	r0, r0, r0, lsr #16
.Ltmp255:
	.loc	4 454 16 is_stmt 0              @ ../GUILib/src/draw/../core/../misc/lv_color.h:454:16
	uxth	r6, r0
.Ltmp256:
	@DEBUG_VALUE: lv_color_mix:ret <- $r6
.LBB0_79:                               @   in Loop: Header=BB0_77 Depth=2
	@DEBUG_VALUE: fill_normal:mask <- $r11
	@DEBUG_VALUE: fill_normal:disp_buf_first <- $r7
	@DEBUG_VALUE: fill_normal:y <- [DW_OP_plus_uconst 16] [$sp+0]
	@DEBUG_VALUE: c32 <- [DW_OP_plus_uconst 32] [$sp+0]
	@DEBUG_VALUE: fill_normal:draw_area_h <- [DW_OP_plus_uconst 20] [$sp+0]
	@DEBUG_VALUE: fill_normal:draw_area <- [DW_OP_plus_uconst 36, DW_OP_stack_value] $sp
	@DEBUG_VALUE: fill_normal:color <- [DW_OP_plus_uconst 28] [$sp+0]
	@DEBUG_VALUE: _lv_blend_fill:disp_buf <- [DW_OP_plus_uconst 32] [$sp+0]
	@DEBUG_VALUE: _lv_blend_fill:clip_area <- [DW_OP_LLVM_entry_value 1] $r0
	@DEBUG_VALUE: _lv_blend_fill:fill_area <- [DW_OP_LLVM_entry_value 1] $r1
	.loc	8 442 21 is_stmt 1              @ ../GUILib/src/draw/lv_draw_blend.c:442:21
	strh	r6, [r7], #2
.Ltmp257:
	.loc	8 441 25                        @ ../GUILib/src/draw/lv_draw_blend.c:441:25
	subs	r1, #1
.Ltmp258:
	.loc	8 442 21                        @ ../GUILib/src/draw/lv_draw_blend.c:442:21
	add.w	r11, r11, #1
.Ltmp259:
	@DEBUG_VALUE: fill_normal:x <- [DW_OP_plus_uconst 1, DW_OP_stack_value] undef
	@DEBUG_VALUE: fill_normal:disp_buf_first <- $r7
	@DEBUG_VALUE: fill_normal:mask <- $r11
	.loc	8 441 17                        @ ../GUILib/src/draw/lv_draw_blend.c:441:17
	bne	.LBB0_77
	b	.LBB0_81
.Ltmp260:
.LBB0_80:                               @   in Loop: Header=BB0_48 Depth=1
	@DEBUG_VALUE: fill_normal:mask <- $r11
	@DEBUG_VALUE: fill_normal:disp_buf_first <- $r7
	@DEBUG_VALUE: fill_normal:x <- $r5
	@DEBUG_VALUE: fill_normal:y <- [DW_OP_plus_uconst 16] [$sp+0]
	@DEBUG_VALUE: c32 <- [DW_OP_plus_uconst 32] [$sp+0]
	@DEBUG_VALUE: fill_normal:draw_area_h <- [DW_OP_plus_uconst 20] [$sp+0]
	@DEBUG_VALUE: fill_normal:draw_area <- [DW_OP_plus_uconst 36, DW_OP_stack_value] $sp
	@DEBUG_VALUE: fill_normal:color <- [DW_OP_plus_uconst 28] [$sp+0]
	@DEBUG_VALUE: _lv_blend_fill:disp_buf <- [DW_OP_plus_uconst 32] [$sp+0]
	@DEBUG_VALUE: _lv_blend_fill:clip_area <- [DW_OP_LLVM_entry_value 1] $r0
	@DEBUG_VALUE: _lv_blend_fill:fill_area <- [DW_OP_LLVM_entry_value 1] $r1
	.loc	8 0 17 is_stmt 0                @ ../GUILib/src/draw/lv_draw_blend.c:0:17
	ldr	r5, [sp, #16]                   @ 4-byte Reload
.Ltmp261:
.LBB0_81:                               @   in Loop: Header=BB0_48 Depth=1
	@DEBUG_VALUE: fill_normal:mask <- $r11
	@DEBUG_VALUE: fill_normal:disp_buf_first <- $r7
	@DEBUG_VALUE: fill_normal:y <- [DW_OP_plus_uconst 16] [$sp+0]
	@DEBUG_VALUE: c32 <- [DW_OP_plus_uconst 32] [$sp+0]
	@DEBUG_VALUE: fill_normal:draw_area_h <- [DW_OP_plus_uconst 20] [$sp+0]
	@DEBUG_VALUE: fill_normal:draw_area <- [DW_OP_plus_uconst 36, DW_OP_stack_value] $sp
	@DEBUG_VALUE: fill_normal:color <- [DW_OP_plus_uconst 28] [$sp+0]
	@DEBUG_VALUE: _lv_blend_fill:disp_buf <- [DW_OP_plus_uconst 32] [$sp+0]
	@DEBUG_VALUE: _lv_blend_fill:clip_area <- [DW_OP_LLVM_entry_value 1] $r0
	@DEBUG_VALUE: _lv_blend_fill:fill_area <- [DW_OP_LLVM_entry_value 1] $r1
	.loc	8 400 13 is_stmt 1              @ ../GUILib/src/draw/lv_draw_blend.c:400:13
	ldr	r0, [sp, #20]                   @ 4-byte Reload
.Ltmp262:
	.loc	8 400 42 is_stmt 0              @ ../GUILib/src/draw/lv_draw_blend.c:400:42
	adds	r5, #1
.Ltmp263:
	@DEBUG_VALUE: fill_normal:y <- $r5
	@DEBUG_VALUE: fill_normal:mask <- $r11
	.loc	8 400 13                        @ ../GUILib/src/draw/lv_draw_blend.c:400:13
	cmp	r5, r0
.Ltmp264:
	.loc	8 444 32 is_stmt 1              @ ../GUILib/src/draw/lv_draw_blend.c:444:32
	add.w	r7, r7, r4, lsl #1
.Ltmp265:
	@DEBUG_VALUE: fill_normal:disp_buf_first <- $r7
	.loc	8 0 32 is_stmt 0                @ ../GUILib/src/draw/lv_draw_blend.c:0:32
	bne.w	.LBB0_48
	b	.LBB0_31
.Ltmp266:
.LBB0_82:
	@DEBUG_VALUE: fill_blended:mask <- $r11
	@DEBUG_VALUE: _lv_blend_fill:mask <- $r11
	@DEBUG_VALUE: fill_blended:blend_fp <- $r10
	@DEBUG_VALUE: fill_blended:disp_buf_tmp <- $r9
	@DEBUG_VALUE: _lv_blend_fill:color <- [DW_OP_LLVM_convert 32 7, DW_OP_LLVM_convert 16 7, DW_OP_stack_value] $r8
	@DEBUG_VALUE: _lv_blend_fill:fill_area <- $r7
	@DEBUG_VALUE: fill_blended:disp_area <- [DW_OP_plus_uconst 16, DW_OP_stack_value] $r6
	@DEBUG_VALUE: _lv_blend_fill:draw_buf <- $r6
	@DEBUG_VALUE: _lv_blend_fill:disp_area <- [DW_OP_plus_uconst 16, DW_OP_stack_value] $r6
	@DEBUG_VALUE: fill_blended:mask_res <- $r5
	@DEBUG_VALUE: _lv_blend_fill:mask_res <- $r5
	@DEBUG_VALUE: fill_blended:disp_w <- $r1
	@DEBUG_VALUE: fill_blended:draw_area <- [DW_OP_plus_uconst 36, DW_OP_stack_value] $sp
	@DEBUG_VALUE: fill_blended:disp_buf <- [DW_OP_plus_uconst 32] [$sp+0]
	@DEBUG_VALUE: fill_blended:color <- [DW_OP_plus_uconst 28, DW_OP_deref_size 4, DW_OP_LLVM_convert 32 7, DW_OP_LLVM_convert 16 7, DW_OP_stack_value] $sp
	@DEBUG_VALUE: _lv_blend_fill:disp_buf <- [DW_OP_plus_uconst 32] [$sp+0]
	@DEBUG_VALUE: _lv_blend_fill:clip_area <- [DW_OP_LLVM_entry_value 1] $r0
	@DEBUG_VALUE: fill_blended:disp_buf_tmp <- $r9
	@DEBUG_VALUE: fill_blended:y <- $r4
	@DEBUG_VALUE: lv_area_get_width:area_p <- [DW_OP_plus_uconst 36, DW_OP_stack_value] $sp
	@DEBUG_VALUE: last_dest_color <- undef
	@DEBUG_VALUE: last_res_color <- undef
	.loc	8 565 48 is_stmt 1              @ ../GUILib/src/draw/lv_draw_blend.c:565:48
	ldrsh.w	r12, [sp, #42]
.Ltmp267:
	@DEBUG_VALUE: last_mask <- 0
	@DEBUG_VALUE: mask_tmp <- undef
	@DEBUG_VALUE: draw_area_w <- undef
	.loc	8 565 9 is_stmt 0               @ ../GUILib/src/draw/lv_draw_blend.c:565:9
	cmp	r4, r12
	@DEBUG_VALUE: fill_blended:y <- $r4
	bgt.w	.LBB0_31
.Ltmp268:
@ %bb.83:
	@DEBUG_VALUE: fill_blended:mask <- $r11
	@DEBUG_VALUE: _lv_blend_fill:mask <- $r11
	@DEBUG_VALUE: fill_blended:blend_fp <- $r10
	@DEBUG_VALUE: fill_blended:disp_buf_tmp <- $r9
	@DEBUG_VALUE: _lv_blend_fill:color <- [DW_OP_LLVM_convert 32 7, DW_OP_LLVM_convert 16 7, DW_OP_stack_value] $r8
	@DEBUG_VALUE: _lv_blend_fill:fill_area <- $r7
	@DEBUG_VALUE: fill_blended:disp_area <- [DW_OP_plus_uconst 16, DW_OP_stack_value] $r6
	@DEBUG_VALUE: _lv_blend_fill:draw_buf <- $r6
	@DEBUG_VALUE: _lv_blend_fill:disp_area <- [DW_OP_plus_uconst 16, DW_OP_stack_value] $r6
	@DEBUG_VALUE: fill_blended:mask_res <- $r5
	@DEBUG_VALUE: _lv_blend_fill:mask_res <- $r5
	@DEBUG_VALUE: fill_blended:y <- $r4
	@DEBUG_VALUE: fill_blended:disp_w <- $r1
	@DEBUG_VALUE: fill_blended:draw_area <- [DW_OP_plus_uconst 36, DW_OP_stack_value] $sp
	@DEBUG_VALUE: fill_blended:disp_buf <- [DW_OP_plus_uconst 32] [$sp+0]
	@DEBUG_VALUE: fill_blended:color <- [DW_OP_plus_uconst 28, DW_OP_deref_size 4, DW_OP_LLVM_convert 32 7, DW_OP_LLVM_convert 16 7, DW_OP_stack_value] $sp
	@DEBUG_VALUE: _lv_blend_fill:disp_buf <- [DW_OP_plus_uconst 32] [$sp+0]
	@DEBUG_VALUE: last_mask <- 0
	@DEBUG_VALUE: _lv_blend_fill:clip_area <- [DW_OP_LLVM_entry_value 1] $r0
	.loc	8 0 0                           @ ../GUILib/src/draw/lv_draw_blend.c:0:0
	ldrsh.w	r2, [sp, #36]
	ldrh.w	r3, [sp, #40]
.Ltmp269:
	.loc	8 565 9                         @ ../GUILib/src/draw/lv_draw_blend.c:565:9
	lsls	r1, r1, #1
.Ltmp270:
	.loc	8 0 0                           @ ../GUILib/src/draw/lv_draw_blend.c:0:0
	subs	r0, r3, r2
	adds	r0, #1
	sxth	r0, r0
.Ltmp271:
	@DEBUG_VALUE: draw_area_w <- $r0
	str	r0, [sp, #24]                   @ 4-byte Spill
.Ltmp272:
	@DEBUG_VALUE: draw_area_w <- [DW_OP_plus_uconst 24] [$sp+0]
	@DEBUG_VALUE: draw_area_w <- [DW_OP_plus_uconst 24] [$sp+0]
	ldrh.w	r0, [r9]
	str	r4, [sp, #32]                   @ 4-byte Spill
.Ltmp273:
	@DEBUG_VALUE: fill_blended:y <- [DW_OP_plus_uconst 32] [$sp+0]
	uxth	r6, r2
.Ltmp274:
	.loc	8 556 42 is_stmt 1              @ ../GUILib/src/draw/lv_draw_blend.c:556:42
	sub.w	r4, r11, r2
.Ltmp275:
	@DEBUG_VALUE: mask_tmp <- $r4
	.loc	8 0 42 is_stmt 0                @ ../GUILib/src/draw/lv_draw_blend.c:0:42
	str	r1, [sp, #20]                   @ 4-byte Spill
	movs	r1, #0
	movw	r11, #65535
.Ltmp276:
	@DEBUG_VALUE: _lv_blend_fill:mask <- [DW_OP_LLVM_entry_value 1] $r3
	mov	lr, r0
                                        @ implicit-def: $r5
                                        @ implicit-def: $r8
.Ltmp277:
	.p2align	2
.LBB0_84:                               @ =>This Loop Header: Depth=1
                                        @     Child Loop BB0_85 Depth 2
	@DEBUG_VALUE: fill_blended:y <- [DW_OP_plus_uconst 32] [$sp+0]
	@DEBUG_VALUE: fill_blended:blend_fp <- $r10
	@DEBUG_VALUE: mask_tmp <- $r4
	@DEBUG_VALUE: draw_area_w <- [DW_OP_plus_uconst 24] [$sp+0]
	@DEBUG_VALUE: fill_blended:draw_area <- [DW_OP_plus_uconst 36, DW_OP_stack_value] $sp
	@DEBUG_VALUE: fill_blended:disp_buf <- [DW_OP_plus_uconst 32] [$sp+0]
	@DEBUG_VALUE: fill_blended:color <- [DW_OP_plus_uconst 28, DW_OP_deref_size 4, DW_OP_LLVM_convert 32 7, DW_OP_LLVM_convert 16 7, DW_OP_stack_value] $sp
	@DEBUG_VALUE: _lv_blend_fill:disp_buf <- [DW_OP_plus_uconst 32] [$sp+0]
	@DEBUG_VALUE: _lv_blend_fill:mask <- [DW_OP_LLVM_entry_value 1] $r3
	@DEBUG_VALUE: _lv_blend_fill:clip_area <- [DW_OP_LLVM_entry_value 1] $r0
	@DEBUG_VALUE: fill_blended:disp_buf_tmp <- $r9
	@DEBUG_VALUE: fill_blended:y <- [DW_OP_plus_uconst 32] [$sp+0]
	@DEBUG_VALUE: fill_blended:x <- [DW_OP_LLVM_convert 16 5, DW_OP_LLVM_convert 32 5, DW_OP_stack_value] $r6
	@DEBUG_VALUE: last_dest_color <- $lr
	@DEBUG_VALUE: last_res_color <- $r0
	@DEBUG_VALUE: mask_tmp <- $r4
	@DEBUG_VALUE: last_mask <- $r1
	.loc	8 566 38 is_stmt 1              @ ../GUILib/src/draw/lv_draw_blend.c:566:38
	sxth	r7, r3
.Ltmp278:
	@DEBUG_VALUE: _lv_blend_fill:fill_area <- [DW_OP_LLVM_entry_value 1] $r1
	sxth	r6, r6
.Ltmp279:
	.loc	8 566 13 is_stmt 0              @ ../GUILib/src/draw/lv_draw_blend.c:566:13
	cmp	r6, r7
	bgt	.LBB0_92
.Ltmp280:
	.p2align	2
.LBB0_85:                               @   Parent Loop BB0_84 Depth=1
                                        @ =>  This Inner Loop Header: Depth=2
	@DEBUG_VALUE: fill_blended:blend_fp <- $r10
	@DEBUG_VALUE: fill_blended:disp_buf_tmp <- $r9
	@DEBUG_VALUE: mask_tmp <- $r4
	@DEBUG_VALUE: last_mask <- $r1
	@DEBUG_VALUE: last_res_color <- $r0
	@DEBUG_VALUE: fill_blended:y <- [DW_OP_plus_uconst 32] [$sp+0]
	@DEBUG_VALUE: draw_area_w <- [DW_OP_plus_uconst 24] [$sp+0]
	@DEBUG_VALUE: fill_blended:draw_area <- [DW_OP_plus_uconst 36, DW_OP_stack_value] $sp
	@DEBUG_VALUE: fill_blended:disp_buf <- [DW_OP_plus_uconst 32] [$sp+0]
	@DEBUG_VALUE: fill_blended:color <- [DW_OP_plus_uconst 28, DW_OP_deref_size 4, DW_OP_LLVM_convert 32 7, DW_OP_LLVM_convert 16 7, DW_OP_stack_value] $sp
	@DEBUG_VALUE: _lv_blend_fill:disp_buf <- [DW_OP_plus_uconst 32] [$sp+0]
	@DEBUG_VALUE: last_dest_color <- $lr
	@DEBUG_VALUE: _lv_blend_fill:mask <- [DW_OP_LLVM_entry_value 1] $r3
	@DEBUG_VALUE: _lv_blend_fill:clip_area <- [DW_OP_LLVM_entry_value 1] $r0
	@DEBUG_VALUE: fill_blended:x <- $r6
	@DEBUG_VALUE: last_dest_color <- $lr
	@DEBUG_VALUE: last_res_color <- $r0
	@DEBUG_VALUE: last_mask <- $r1
	.loc	8 567 20 is_stmt 1              @ ../GUILib/src/draw/lv_draw_blend.c:567:20
	ldrb	r7, [r4, r6]
.Ltmp281:
	.loc	8 567 20 is_stmt 0              @ ../GUILib/src/draw/lv_draw_blend.c:567:20
	cbz	r7, .LBB0_90
.Ltmp282:
@ %bb.86:                               @   in Loop: Header=BB0_85 Depth=2
	@DEBUG_VALUE: fill_blended:blend_fp <- $r10
	@DEBUG_VALUE: fill_blended:disp_buf_tmp <- $r9
	@DEBUG_VALUE: fill_blended:x <- $r6
	@DEBUG_VALUE: mask_tmp <- $r4
	@DEBUG_VALUE: last_mask <- $r1
	@DEBUG_VALUE: last_res_color <- $r0
	@DEBUG_VALUE: fill_blended:y <- [DW_OP_plus_uconst 32] [$sp+0]
	@DEBUG_VALUE: draw_area_w <- [DW_OP_plus_uconst 24] [$sp+0]
	@DEBUG_VALUE: fill_blended:draw_area <- [DW_OP_plus_uconst 36, DW_OP_stack_value] $sp
	@DEBUG_VALUE: fill_blended:disp_buf <- [DW_OP_plus_uconst 32] [$sp+0]
	@DEBUG_VALUE: fill_blended:color <- [DW_OP_plus_uconst 28, DW_OP_deref_size 4, DW_OP_LLVM_convert 32 7, DW_OP_LLVM_convert 16 7, DW_OP_stack_value] $sp
	@DEBUG_VALUE: _lv_blend_fill:disp_buf <- [DW_OP_plus_uconst 32] [$sp+0]
	@DEBUG_VALUE: last_dest_color <- $lr
	@DEBUG_VALUE: _lv_blend_fill:mask <- [DW_OP_LLVM_entry_value 1] $r3
	@DEBUG_VALUE: _lv_blend_fill:clip_area <- [DW_OP_LLVM_entry_value 1] $r0
	.loc	8 0 0                           @ ../GUILib/src/draw/lv_draw_blend.c:0:0
	ldrh.w	r3, [r9, r6, lsl #1]
	.loc	8 568 45 is_stmt 1              @ ../GUILib/src/draw/lv_draw_blend.c:568:45
	cmp	r7, r1
	bne	.LBB0_88
.Ltmp283:
@ %bb.87:                               @   in Loop: Header=BB0_85 Depth=2
	@DEBUG_VALUE: fill_blended:blend_fp <- $r10
	@DEBUG_VALUE: fill_blended:disp_buf_tmp <- $r9
	@DEBUG_VALUE: fill_blended:x <- $r6
	@DEBUG_VALUE: mask_tmp <- $r4
	@DEBUG_VALUE: last_mask <- $r1
	@DEBUG_VALUE: last_res_color <- $r0
	@DEBUG_VALUE: fill_blended:y <- [DW_OP_plus_uconst 32] [$sp+0]
	@DEBUG_VALUE: draw_area_w <- [DW_OP_plus_uconst 24] [$sp+0]
	@DEBUG_VALUE: fill_blended:draw_area <- [DW_OP_plus_uconst 36, DW_OP_stack_value] $sp
	@DEBUG_VALUE: fill_blended:disp_buf <- [DW_OP_plus_uconst 32] [$sp+0]
	@DEBUG_VALUE: fill_blended:color <- [DW_OP_plus_uconst 28, DW_OP_deref_size 4, DW_OP_LLVM_convert 32 7, DW_OP_LLVM_convert 16 7, DW_OP_stack_value] $sp
	@DEBUG_VALUE: _lv_blend_fill:disp_buf <- [DW_OP_plus_uconst 32] [$sp+0]
	@DEBUG_VALUE: last_dest_color <- $lr
	@DEBUG_VALUE: _lv_blend_fill:mask <- [DW_OP_LLVM_entry_value 1] $r3
	@DEBUG_VALUE: _lv_blend_fill:clip_area <- [DW_OP_LLVM_entry_value 1] $r0
	.loc	8 0 45 is_stmt 0                @ ../GUILib/src/draw/lv_draw_blend.c:0:45
	uxth.w	r2, lr
	.loc	8 568 45                        @ ../GUILib/src/draw/lv_draw_blend.c:568:45
	cmp	r2, r3
	beq	.LBB0_89
.Ltmp284:
.LBB0_88:                               @   in Loop: Header=BB0_85 Depth=2
	@DEBUG_VALUE: fill_blended:blend_fp <- $r10
	@DEBUG_VALUE: fill_blended:disp_buf_tmp <- $r9
	@DEBUG_VALUE: fill_blended:x <- $r6
	@DEBUG_VALUE: mask_tmp <- $r4
	@DEBUG_VALUE: last_mask <- $r1
	@DEBUG_VALUE: last_res_color <- $r0
	@DEBUG_VALUE: fill_blended:y <- [DW_OP_plus_uconst 32] [$sp+0]
	@DEBUG_VALUE: draw_area_w <- [DW_OP_plus_uconst 24] [$sp+0]
	@DEBUG_VALUE: fill_blended:draw_area <- [DW_OP_plus_uconst 36, DW_OP_stack_value] $sp
	@DEBUG_VALUE: fill_blended:disp_buf <- [DW_OP_plus_uconst 32] [$sp+0]
	@DEBUG_VALUE: fill_blended:color <- [DW_OP_plus_uconst 28, DW_OP_deref_size 4, DW_OP_LLVM_convert 32 7, DW_OP_LLVM_convert 16 7, DW_OP_stack_value] $sp
	@DEBUG_VALUE: _lv_blend_fill:disp_buf <- [DW_OP_plus_uconst 32] [$sp+0]
	@DEBUG_VALUE: last_dest_color <- $lr
	@DEBUG_VALUE: _lv_blend_fill:mask <- [DW_OP_LLVM_entry_value 1] $r3
	@DEBUG_VALUE: _lv_blend_fill:clip_area <- [DW_OP_LLVM_entry_value 1] $r0
	.loc	8 0 45                          @ ../GUILib/src/draw/lv_draw_blend.c:0:45
	ldr	r2, [sp, #84]
.Ltmp285:
	.loc	8 569 40 is_stmt 1              @ ../GUILib/src/draw/lv_draw_blend.c:569:40
	cmp	r7, #252
	mul	r0, r7, r2
.Ltmp286:
	it	ls
	lsrls	r2, r0, #8
.Ltmp287:
	@DEBUG_VALUE: opa_tmp <- $r2
	.loc	8 571 38                        @ ../GUILib/src/draw/lv_draw_blend.c:571:38
	ldr	r1, [sp, #28]                   @ 4-byte Reload
.Ltmp288:
	bic.w	r0, r8, r11
	bfc	r5, #0, #16
	add.w	r8, r0, r1
	add	r5, r3
	mov	r0, r8
	mov	r1, r5
	blx	r10
.Ltmp289:
	.loc	8 572 33                        @ ../GUILib/src/draw/lv_draw_blend.c:572:33
	ldrb	r1, [r4, r6]
.Ltmp290:
	@DEBUG_VALUE: last_mask <- undef
	.loc	8 573 60                        @ ../GUILib/src/draw/lv_draw_blend.c:573:60
	ldrh.w	lr, [r9, r6, lsl #1]
.Ltmp291:
	@DEBUG_VALUE: last_res_color <- undef
	@DEBUG_VALUE: last_dest_color <- undef
.LBB0_89:                               @   in Loop: Header=BB0_85 Depth=2
	@DEBUG_VALUE: fill_blended:blend_fp <- $r10
	@DEBUG_VALUE: fill_blended:disp_buf_tmp <- $r9
	@DEBUG_VALUE: fill_blended:x <- $r6
	@DEBUG_VALUE: mask_tmp <- $r4
	@DEBUG_VALUE: fill_blended:y <- [DW_OP_plus_uconst 32] [$sp+0]
	@DEBUG_VALUE: draw_area_w <- [DW_OP_plus_uconst 24] [$sp+0]
	@DEBUG_VALUE: fill_blended:draw_area <- [DW_OP_plus_uconst 36, DW_OP_stack_value] $sp
	@DEBUG_VALUE: fill_blended:disp_buf <- [DW_OP_plus_uconst 32] [$sp+0]
	@DEBUG_VALUE: fill_blended:color <- [DW_OP_plus_uconst 28, DW_OP_deref_size 4, DW_OP_LLVM_convert 32 7, DW_OP_LLVM_convert 16 7, DW_OP_stack_value] $sp
	@DEBUG_VALUE: _lv_blend_fill:disp_buf <- [DW_OP_plus_uconst 32] [$sp+0]
	@DEBUG_VALUE: _lv_blend_fill:mask <- [DW_OP_LLVM_entry_value 1] $r3
	@DEBUG_VALUE: _lv_blend_fill:clip_area <- [DW_OP_LLVM_entry_value 1] $r0
	@DEBUG_VALUE: last_dest_color <- $lr
	@DEBUG_VALUE: last_res_color <- $r0
	@DEBUG_VALUE: last_mask <- $r1
	.loc	8 575 35                        @ ../GUILib/src/draw/lv_draw_blend.c:575:35
	strh.w	r0, [r9, r6, lsl #1]
.Ltmp292:
	.loc	8 566 52                        @ ../GUILib/src/draw/lv_draw_blend.c:566:52
	ldrh.w	r3, [sp, #40]
.Ltmp293:
.LBB0_90:                               @   in Loop: Header=BB0_85 Depth=2
	@DEBUG_VALUE: fill_blended:blend_fp <- $r10
	@DEBUG_VALUE: fill_blended:disp_buf_tmp <- $r9
	@DEBUG_VALUE: fill_blended:x <- $r6
	@DEBUG_VALUE: mask_tmp <- $r4
	@DEBUG_VALUE: last_mask <- $r1
	@DEBUG_VALUE: last_res_color <- $r0
	@DEBUG_VALUE: fill_blended:y <- [DW_OP_plus_uconst 32] [$sp+0]
	@DEBUG_VALUE: draw_area_w <- [DW_OP_plus_uconst 24] [$sp+0]
	@DEBUG_VALUE: fill_blended:draw_area <- [DW_OP_plus_uconst 36, DW_OP_stack_value] $sp
	@DEBUG_VALUE: fill_blended:disp_buf <- [DW_OP_plus_uconst 32] [$sp+0]
	@DEBUG_VALUE: fill_blended:color <- [DW_OP_plus_uconst 28, DW_OP_deref_size 4, DW_OP_LLVM_convert 32 7, DW_OP_LLVM_convert 16 7, DW_OP_stack_value] $sp
	@DEBUG_VALUE: _lv_blend_fill:disp_buf <- [DW_OP_plus_uconst 32] [$sp+0]
	@DEBUG_VALUE: last_dest_color <- $lr
	@DEBUG_VALUE: _lv_blend_fill:mask <- [DW_OP_LLVM_entry_value 1] $r3
	@DEBUG_VALUE: _lv_blend_fill:clip_area <- [DW_OP_LLVM_entry_value 1] $r0
	@DEBUG_VALUE: last_dest_color <- $lr
	@DEBUG_VALUE: last_res_color <- $r0
	@DEBUG_VALUE: last_mask <- $r1
	.loc	8 566 41 is_stmt 0              @ ../GUILib/src/draw/lv_draw_blend.c:566:41
	sxth	r2, r3
.Ltmp294:
	.loc	8 566 13                        @ ../GUILib/src/draw/lv_draw_blend.c:566:13
	cmp	r6, r2
.Ltmp295:
	.loc	8 566 57                        @ ../GUILib/src/draw/lv_draw_blend.c:566:57
	add.w	r6, r6, #1
.Ltmp296:
	@DEBUG_VALUE: fill_blended:x <- $r6
	@DEBUG_VALUE: fill_blended:x <- $r6
	.loc	8 566 13                        @ ../GUILib/src/draw/lv_draw_blend.c:566:13
	blt	.LBB0_85
.Ltmp297:
@ %bb.91:                               @   in Loop: Header=BB0_84 Depth=1
	@DEBUG_VALUE: fill_blended:blend_fp <- $r10
	@DEBUG_VALUE: fill_blended:disp_buf_tmp <- $r9
	@DEBUG_VALUE: fill_blended:x <- $r6
	@DEBUG_VALUE: mask_tmp <- $r4
	@DEBUG_VALUE: last_mask <- $r1
	@DEBUG_VALUE: last_res_color <- $r0
	@DEBUG_VALUE: fill_blended:y <- [DW_OP_plus_uconst 32] [$sp+0]
	@DEBUG_VALUE: draw_area_w <- [DW_OP_plus_uconst 24] [$sp+0]
	@DEBUG_VALUE: fill_blended:draw_area <- [DW_OP_plus_uconst 36, DW_OP_stack_value] $sp
	@DEBUG_VALUE: fill_blended:disp_buf <- [DW_OP_plus_uconst 32] [$sp+0]
	@DEBUG_VALUE: fill_blended:color <- [DW_OP_plus_uconst 28, DW_OP_deref_size 4, DW_OP_LLVM_convert 32 7, DW_OP_LLVM_convert 16 7, DW_OP_stack_value] $sp
	@DEBUG_VALUE: _lv_blend_fill:disp_buf <- [DW_OP_plus_uconst 32] [$sp+0]
	@DEBUG_VALUE: last_dest_color <- $lr
	@DEBUG_VALUE: _lv_blend_fill:mask <- [DW_OP_LLVM_entry_value 1] $r3
	@DEBUG_VALUE: _lv_blend_fill:clip_area <- [DW_OP_LLVM_entry_value 1] $r0
	.loc	8 565 48 is_stmt 1              @ ../GUILib/src/draw/lv_draw_blend.c:565:48
	ldrh.w	r12, [sp, #42]
.Ltmp298:
.LBB0_92:                               @   in Loop: Header=BB0_84 Depth=1
	@DEBUG_VALUE: fill_blended:blend_fp <- $r10
	@DEBUG_VALUE: fill_blended:disp_buf_tmp <- $r9
	@DEBUG_VALUE: mask_tmp <- $r4
	@DEBUG_VALUE: last_mask <- $r1
	@DEBUG_VALUE: last_res_color <- $r0
	@DEBUG_VALUE: fill_blended:y <- [DW_OP_plus_uconst 32] [$sp+0]
	@DEBUG_VALUE: draw_area_w <- [DW_OP_plus_uconst 24] [$sp+0]
	@DEBUG_VALUE: fill_blended:draw_area <- [DW_OP_plus_uconst 36, DW_OP_stack_value] $sp
	@DEBUG_VALUE: fill_blended:disp_buf <- [DW_OP_plus_uconst 32] [$sp+0]
	@DEBUG_VALUE: fill_blended:color <- [DW_OP_plus_uconst 28, DW_OP_deref_size 4, DW_OP_LLVM_convert 32 7, DW_OP_LLVM_convert 16 7, DW_OP_stack_value] $sp
	@DEBUG_VALUE: _lv_blend_fill:disp_buf <- [DW_OP_plus_uconst 32] [$sp+0]
	@DEBUG_VALUE: last_dest_color <- $lr
	@DEBUG_VALUE: _lv_blend_fill:mask <- [DW_OP_LLVM_entry_value 1] $r3
	@DEBUG_VALUE: _lv_blend_fill:clip_area <- [DW_OP_LLVM_entry_value 1] $r0
	@DEBUG_VALUE: fill_blended:disp_buf_tmp <- undef
	@DEBUG_VALUE: fill_blended:y <- [DW_OP_plus_uconst 32, DW_OP_deref_size 4, DW_OP_plus_uconst 1, DW_OP_stack_value] $sp
	@DEBUG_VALUE: last_dest_color <- $lr
	@DEBUG_VALUE: last_res_color <- $r0
	@DEBUG_VALUE: mask_tmp <- undef
	@DEBUG_VALUE: last_mask <- $r1
	.loc	8 0 48 is_stmt 0                @ ../GUILib/src/draw/lv_draw_blend.c:0:48
	ldr	r6, [sp, #32]                   @ 4-byte Reload
.Ltmp299:
	@DEBUG_VALUE: fill_blended:y <- [DW_OP_plus_uconst 1, DW_OP_stack_value] $r6
	.loc	8 565 37                        @ ../GUILib/src/draw/lv_draw_blend.c:565:37
	sxth.w	r2, r12
.Ltmp300:
	.loc	8 565 9                         @ ../GUILib/src/draw/lv_draw_blend.c:565:9
	cmp	r6, r2
	bge.w	.LBB0_31
.Ltmp301:
@ %bb.93:                               @   in Loop: Header=BB0_84 Depth=1
	@DEBUG_VALUE: fill_blended:blend_fp <- $r10
	@DEBUG_VALUE: fill_blended:y <- [DW_OP_plus_uconst 1, DW_OP_stack_value] $r6
	@DEBUG_VALUE: last_mask <- $r1
	@DEBUG_VALUE: last_res_color <- $r0
	@DEBUG_VALUE: draw_area_w <- [DW_OP_plus_uconst 24] [$sp+0]
	@DEBUG_VALUE: fill_blended:draw_area <- [DW_OP_plus_uconst 36, DW_OP_stack_value] $sp
	@DEBUG_VALUE: fill_blended:disp_buf <- [DW_OP_plus_uconst 32] [$sp+0]
	@DEBUG_VALUE: fill_blended:color <- [DW_OP_plus_uconst 28, DW_OP_deref_size 4, DW_OP_LLVM_convert 32 7, DW_OP_LLVM_convert 16 7, DW_OP_stack_value] $sp
	@DEBUG_VALUE: _lv_blend_fill:disp_buf <- [DW_OP_plus_uconst 32] [$sp+0]
	@DEBUG_VALUE: last_dest_color <- $lr
	@DEBUG_VALUE: _lv_blend_fill:mask <- [DW_OP_LLVM_entry_value 1] $r3
	@DEBUG_VALUE: _lv_blend_fill:clip_area <- [DW_OP_LLVM_entry_value 1] $r0
	.loc	8 578 22 is_stmt 1              @ ../GUILib/src/draw/lv_draw_blend.c:578:22
	ldr	r2, [sp, #24]                   @ 4-byte Reload
.Ltmp302:
	@DEBUG_VALUE: fill_blended:y <- [DW_OP_plus_uconst 32] [$sp+0]
	.loc	8 565 53                        @ ../GUILib/src/draw/lv_draw_blend.c:565:53
	adds	r6, #1
.Ltmp303:
	@DEBUG_VALUE: fill_blended:y <- $r6
	.loc	8 578 22                        @ ../GUILib/src/draw/lv_draw_blend.c:578:22
	add	r4, r2
.Ltmp304:
	@DEBUG_VALUE: mask_tmp <- $r4
	@DEBUG_VALUE: fill_blended:disp_buf_tmp <- undef
	.loc	8 565 9                         @ ../GUILib/src/draw/lv_draw_blend.c:565:9
	ldr	r2, [sp, #20]                   @ 4-byte Reload
	str	r6, [sp, #32]                   @ 4-byte Spill
.Ltmp305:
	@DEBUG_VALUE: fill_blended:y <- [DW_OP_plus_uconst 32] [$sp+0]
	@DEBUG_VALUE: fill_blended:y <- [DW_OP_plus_uconst 32] [$sp+0]
	.loc	8 566 32                        @ ../GUILib/src/draw/lv_draw_blend.c:566:32
	ldrh.w	r6, [sp, #36]
.Ltmp306:
	.loc	8 565 9                         @ ../GUILib/src/draw/lv_draw_blend.c:565:9
	add	r9, r2
	b	.LBB0_84
.Ltmp307:
.LBB0_94:
	@DEBUG_VALUE: fill_normal:mask <- $r11
	@DEBUG_VALUE: _lv_blend_fill:mask <- $r11
	@DEBUG_VALUE: fill_normal:draw_area_w <- $r10
	@DEBUG_VALUE: fill_normal:disp <- $r9
	@DEBUG_VALUE: _lv_blend_fill:color <- [DW_OP_LLVM_convert 32 7, DW_OP_LLVM_convert 16 7, DW_OP_stack_value] $r8
	@DEBUG_VALUE: fill_normal:disp_buf_first <- $r7
	@DEBUG_VALUE: fill_normal:disp_buf <- $r6
	@DEBUG_VALUE: fill_normal:mask_res <- $r5
	@DEBUG_VALUE: _lv_blend_fill:mask_res <- $r5
	@DEBUG_VALUE: fill_normal:draw_area_h <- [DW_OP_plus_uconst 20] [$sp+0]
	@DEBUG_VALUE: fill_normal:draw_area <- [DW_OP_plus_uconst 36, DW_OP_stack_value] $sp
	@DEBUG_VALUE: fill_normal:color <- [DW_OP_plus_uconst 28] [$sp+0]
	@DEBUG_VALUE: _lv_blend_fill:disp_buf <- [DW_OP_plus_uconst 32] [$sp+0]
	@DEBUG_VALUE: fill_normal:disp_w <- $lr
	@DEBUG_VALUE: _lv_blend_fill:clip_area <- [DW_OP_LLVM_entry_value 1] $r0
	@DEBUG_VALUE: _lv_blend_fill:fill_area <- [DW_OP_LLVM_entry_value 1] $r1
	@DEBUG_VALUE: fill_normal:disp_buf_first <- $r7
	@DEBUG_VALUE: fill_normal:y <- 0
	@DEBUG_VALUE: last_dest_color <- 0
	@DEBUG_VALUE: lv_color_mix:c1 <- [DW_OP_constu 65535, DW_OP_and, DW_OP_constu 65535, DW_OP_and, DW_OP_LLVM_convert 32 7, DW_OP_LLVM_convert 16 7, DW_OP_stack_value] $r8
	@DEBUG_VALUE: lv_color_mix:c2 <- [DW_OP_LLVM_convert 32 7, DW_OP_LLVM_convert 16 7, DW_OP_stack_value] 0
	@DEBUG_VALUE: lv_color_mix:mix <- [DW_OP_LLVM_convert 16 7, DW_OP_LLVM_convert 8 7, DW_OP_stack_value] undef
	@DEBUG_VALUE: lv_color_mix:bg <- 0
	@DEBUG_VALUE: lv_color_mix:fg <- undef
	@DEBUG_VALUE: lv_color_mix:result <- undef
	@DEBUG_VALUE: lv_color_mix:ret <- [DW_OP_LLVM_convert 32 7, DW_OP_LLVM_convert 16 7, DW_OP_stack_value] undef
	@DEBUG_VALUE: last_res_color <- [DW_OP_LLVM_convert 32 7, DW_OP_LLVM_convert 16 7, DW_OP_stack_value] undef
	@DEBUG_VALUE: lv_color_premult:c <- [DW_OP_constu 65535, DW_OP_and, DW_OP_constu 65535, DW_OP_and, DW_OP_LLVM_convert 32 7, DW_OP_LLVM_convert 16 7, DW_OP_stack_value] $r8
	@DEBUG_VALUE: lv_color_premult:mix <- undef
	@DEBUG_VALUE: lv_color_premult:out <- undef
	@DEBUG_VALUE: color_premult <- [DW_OP_LLVM_convert 32 7, DW_OP_LLVM_convert 16 7, DW_OP_stack_value, DW_OP_LLVM_fragment 0 16] undef
	@DEBUG_VALUE: color_premult <- [DW_OP_LLVM_convert 32 7, DW_OP_LLVM_convert 16 7, DW_OP_stack_value, DW_OP_LLVM_fragment 16 16] undef
	@DEBUG_VALUE: color_premult <- [DW_OP_LLVM_convert 32 7, DW_OP_LLVM_convert 16 7, DW_OP_stack_value, DW_OP_LLVM_fragment 32 16] undef
	@DEBUG_VALUE: opa_inv <- [DW_OP_constu 18446744073709551615, DW_OP_xor, DW_OP_stack_value] undef
	.loc	8 368 13                        @ ../GUILib/src/draw/lv_draw_blend.c:368:13
	ldr	r0, [sp, #20]                   @ 4-byte Reload
	cmp	r0, #1
	blt.w	.LBB0_31
.Ltmp308:
@ %bb.95:
	@DEBUG_VALUE: fill_normal:mask <- $r11
	@DEBUG_VALUE: _lv_blend_fill:mask <- $r11
	@DEBUG_VALUE: fill_normal:draw_area_w <- $r10
	@DEBUG_VALUE: fill_normal:disp <- $r9
	@DEBUG_VALUE: lv_color_mix:c1 <- [DW_OP_constu 65535, DW_OP_and, DW_OP_constu 65535, DW_OP_and, DW_OP_LLVM_convert 32 7, DW_OP_LLVM_convert 16 7, DW_OP_stack_value] $r8
	@DEBUG_VALUE: _lv_blend_fill:color <- [DW_OP_LLVM_convert 32 7, DW_OP_LLVM_convert 16 7, DW_OP_stack_value] $r8
	@DEBUG_VALUE: fill_normal:disp_buf_first <- $r7
	@DEBUG_VALUE: fill_normal:disp_buf <- $r6
	@DEBUG_VALUE: fill_normal:mask_res <- $r5
	@DEBUG_VALUE: _lv_blend_fill:mask_res <- $r5
	@DEBUG_VALUE: fill_normal:draw_area_h <- [DW_OP_plus_uconst 20] [$sp+0]
	@DEBUG_VALUE: fill_normal:draw_area <- [DW_OP_plus_uconst 36, DW_OP_stack_value] $sp
	@DEBUG_VALUE: fill_normal:color <- [DW_OP_plus_uconst 28] [$sp+0]
	@DEBUG_VALUE: _lv_blend_fill:disp_buf <- [DW_OP_plus_uconst 32] [$sp+0]
	@DEBUG_VALUE: fill_normal:disp_w <- $lr
	@DEBUG_VALUE: lv_color_mix:bg <- 0
	@DEBUG_VALUE: lv_color_mix:c2 <- [DW_OP_LLVM_convert 32 7, DW_OP_LLVM_convert 16 7, DW_OP_stack_value] 0
	@DEBUG_VALUE: last_dest_color <- 0
	@DEBUG_VALUE: fill_normal:y <- 0
	@DEBUG_VALUE: _lv_blend_fill:clip_area <- [DW_OP_LLVM_entry_value 1] $r0
	@DEBUG_VALUE: _lv_blend_fill:fill_area <- [DW_OP_LLVM_entry_value 1] $r1
	.loc	8 0 13 is_stmt 0                @ ../GUILib/src/draw/lv_draw_blend.c:0:13
	ldr	r6, [sp, #84]
.Ltmp309:
	ldr	r3, [sp, #28]                   @ 4-byte Reload
	movw	r1, #63519
	adds	r0, r6, #4
	and.w	r1, r1, r8
	and	r2, r3, #2016
	lsrs	r0, r0, #3
	@DEBUG_VALUE: lv_color_mix:mix <- [DW_OP_LLVM_convert 16 7, DW_OP_LLVM_convert 8 7, DW_OP_stack_value] $r0
	orr.w	r1, r1, r2, lsl #16
	@DEBUG_VALUE: lv_color_mix:fg <- $r1
	muls	r0, r1, r0
	movw	r1, #63519
	movt	r1, #2016
	and.w	r0, r1, r0, lsr #5
	lsrs	r1, r3, #11
	mul	r9, r1, r6
.Ltmp310:
	@DEBUG_VALUE: color_premult <- [DW_OP_LLVM_convert 32 7, DW_OP_LLVM_convert 16 7, DW_OP_stack_value, DW_OP_LLVM_fragment 0 16] $r9
	ubfx	r1, r8, #5, #6
	mul	r11, r1, r6
.Ltmp311:
	@DEBUG_VALUE: _lv_blend_fill:mask <- [DW_OP_LLVM_entry_value 1] $r3
	@DEBUG_VALUE: color_premult <- [DW_OP_LLVM_convert 32 7, DW_OP_LLVM_convert 16 7, DW_OP_stack_value, DW_OP_LLVM_fragment 16 16] $r11
	and	r1, r8, #31
	mov	r2, lr
	movw	r8, #16512
.Ltmp312:
	mul	lr, r1, r6
.Ltmp313:
	@DEBUG_VALUE: color_premult <- [DW_OP_LLVM_convert 32 7, DW_OP_LLVM_convert 16 7, DW_OP_stack_value, DW_OP_LLVM_fragment 32 16] $lr
	movt	r8, #64
.Ltmp314:
	@DEBUG_VALUE: opa_inv <- undef
	@DEBUG_VALUE: lv_color_mix:result <- $r0
	.loc	4 454 42 is_stmt 1              @ ../GUILib/src/draw/../core/../misc/lv_color.h:454:42
	orr.w	r4, r0, r0, lsr #16
.Ltmp315:
	@DEBUG_VALUE: last_res_color <- undef
	@DEBUG_VALUE: lv_color_mix:ret <- undef
	.loc	4 0 42 is_stmt 0                @ ../GUILib/src/draw/../core/../misc/lv_color.h:0:42
	eor	r6, r6, #255
.Ltmp316:
	.loc	8 368 13 is_stmt 1              @ ../GUILib/src/draw/lv_draw_blend.c:368:13
	lsls	r0, r2, #1
.Ltmp317:
	.loc	8 0 13 is_stmt 0                @ ../GUILib/src/draw/lv_draw_blend.c:0:13
	movs	r1, #0
	movw	r5, #32897
.Ltmp318:
	mov.w	r12, #0
	str	r0, [sp, #28]                   @ 4-byte Spill
.Ltmp319:
.LBB0_96:                               @ =>This Loop Header: Depth=1
                                        @     Child Loop BB0_98 Depth 2
	@DEBUG_VALUE: color_premult <- [DW_OP_LLVM_convert 32 7, DW_OP_LLVM_convert 16 7, DW_OP_stack_value, DW_OP_LLVM_fragment 16 16] $r11
	@DEBUG_VALUE: fill_normal:draw_area_w <- $r10
	@DEBUG_VALUE: color_premult <- [DW_OP_LLVM_convert 32 7, DW_OP_LLVM_convert 16 7, DW_OP_stack_value, DW_OP_LLVM_fragment 0 16] $r9
	@DEBUG_VALUE: fill_normal:draw_area_h <- [DW_OP_plus_uconst 20] [$sp+0]
	@DEBUG_VALUE: fill_normal:draw_area <- [DW_OP_plus_uconst 36, DW_OP_stack_value] $sp
	@DEBUG_VALUE: fill_normal:color <- [DW_OP_plus_uconst 28] [$sp+0]
	@DEBUG_VALUE: _lv_blend_fill:disp_buf <- [DW_OP_plus_uconst 32] [$sp+0]
	@DEBUG_VALUE: color_premult <- [DW_OP_LLVM_convert 32 7, DW_OP_LLVM_convert 16 7, DW_OP_stack_value, DW_OP_LLVM_fragment 32 16] $lr
	@DEBUG_VALUE: _lv_blend_fill:mask <- [DW_OP_LLVM_entry_value 1] $r3
	@DEBUG_VALUE: _lv_blend_fill:clip_area <- [DW_OP_LLVM_entry_value 1] $r0
	@DEBUG_VALUE: _lv_blend_fill:fill_area <- [DW_OP_LLVM_entry_value 1] $r1
	@DEBUG_VALUE: fill_normal:disp_buf_first <- $r7
	@DEBUG_VALUE: fill_normal:y <- $r1
	@DEBUG_VALUE: last_dest_color <- $r12
	@DEBUG_VALUE: last_res_color <- $r4
	@DEBUG_VALUE: fill_normal:x <- 0
	.loc	8 369 17 is_stmt 1              @ ../GUILib/src/draw/lv_draw_blend.c:369:17
	cmp.w	r10, #1
	str	r1, [sp, #32]                   @ 4-byte Spill
.Ltmp320:
	@DEBUG_VALUE: fill_normal:y <- [DW_OP_plus_uconst 32] [$sp+0]
	@DEBUG_VALUE: fill_normal:y <- [DW_OP_plus_uconst 32] [$sp+0]
	blt	.LBB0_101
.Ltmp321:
@ %bb.97:                               @   in Loop: Header=BB0_96 Depth=1
	@DEBUG_VALUE: fill_normal:y <- [DW_OP_plus_uconst 32] [$sp+0]
	@DEBUG_VALUE: last_dest_color <- $r12
	@DEBUG_VALUE: color_premult <- [DW_OP_LLVM_convert 32 7, DW_OP_LLVM_convert 16 7, DW_OP_stack_value, DW_OP_LLVM_fragment 16 16] $r11
	@DEBUG_VALUE: fill_normal:draw_area_w <- $r10
	@DEBUG_VALUE: color_premult <- [DW_OP_LLVM_convert 32 7, DW_OP_LLVM_convert 16 7, DW_OP_stack_value, DW_OP_LLVM_fragment 0 16] $r9
	@DEBUG_VALUE: fill_normal:disp_buf_first <- $r7
	@DEBUG_VALUE: last_res_color <- $r4
	@DEBUG_VALUE: fill_normal:draw_area_h <- [DW_OP_plus_uconst 20] [$sp+0]
	@DEBUG_VALUE: fill_normal:draw_area <- [DW_OP_plus_uconst 36, DW_OP_stack_value] $sp
	@DEBUG_VALUE: fill_normal:color <- [DW_OP_plus_uconst 28] [$sp+0]
	@DEBUG_VALUE: _lv_blend_fill:disp_buf <- [DW_OP_plus_uconst 32] [$sp+0]
	@DEBUG_VALUE: color_premult <- [DW_OP_LLVM_convert 32 7, DW_OP_LLVM_convert 16 7, DW_OP_stack_value, DW_OP_LLVM_fragment 32 16] $lr
	@DEBUG_VALUE: fill_normal:x <- 0
	@DEBUG_VALUE: _lv_blend_fill:mask <- [DW_OP_LLVM_entry_value 1] $r3
	@DEBUG_VALUE: _lv_blend_fill:clip_area <- [DW_OP_LLVM_entry_value 1] $r0
	@DEBUG_VALUE: _lv_blend_fill:fill_area <- [DW_OP_LLVM_entry_value 1] $r1
	.loc	8 0 17 is_stmt 0                @ ../GUILib/src/draw/lv_draw_blend.c:0:17
	movs	r1, #0
.Ltmp322:
	.p2align	2
.LBB0_98:                               @   Parent Loop BB0_96 Depth=1
                                        @ =>  This Inner Loop Header: Depth=2
	@DEBUG_VALUE: fill_normal:y <- [DW_OP_plus_uconst 32] [$sp+0]
	@DEBUG_VALUE: last_dest_color <- $r12
	@DEBUG_VALUE: color_premult <- [DW_OP_LLVM_convert 32 7, DW_OP_LLVM_convert 16 7, DW_OP_stack_value, DW_OP_LLVM_fragment 16 16] $r11
	@DEBUG_VALUE: fill_normal:draw_area_w <- $r10
	@DEBUG_VALUE: color_premult <- [DW_OP_LLVM_convert 32 7, DW_OP_LLVM_convert 16 7, DW_OP_stack_value, DW_OP_LLVM_fragment 0 16] $r9
	@DEBUG_VALUE: fill_normal:disp_buf_first <- $r7
	@DEBUG_VALUE: last_res_color <- $r4
	@DEBUG_VALUE: fill_normal:draw_area_h <- [DW_OP_plus_uconst 20] [$sp+0]
	@DEBUG_VALUE: fill_normal:draw_area <- [DW_OP_plus_uconst 36, DW_OP_stack_value] $sp
	@DEBUG_VALUE: fill_normal:color <- [DW_OP_plus_uconst 28] [$sp+0]
	@DEBUG_VALUE: _lv_blend_fill:disp_buf <- [DW_OP_plus_uconst 32] [$sp+0]
	@DEBUG_VALUE: color_premult <- [DW_OP_LLVM_convert 32 7, DW_OP_LLVM_convert 16 7, DW_OP_stack_value, DW_OP_LLVM_fragment 32 16] $lr
	@DEBUG_VALUE: _lv_blend_fill:mask <- [DW_OP_LLVM_entry_value 1] $r3
	@DEBUG_VALUE: _lv_blend_fill:clip_area <- [DW_OP_LLVM_entry_value 1] $r0
	@DEBUG_VALUE: _lv_blend_fill:fill_area <- [DW_OP_LLVM_entry_value 1] $r1
	@DEBUG_VALUE: last_dest_color <- $r12
	@DEBUG_VALUE: last_res_color <- $r4
	@DEBUG_VALUE: fill_normal:x <- $r1
	.loc	8 370 66 is_stmt 1              @ ../GUILib/src/draw/lv_draw_blend.c:370:66
	ldrh.w	r0, [r7, r1, lsl #1]
.Ltmp323:
	.loc	8 370 24 is_stmt 0              @ ../GUILib/src/draw/lv_draw_blend.c:370:24
	cmp	r12, r0
	beq	.LBB0_100
.Ltmp324:
@ %bb.99:                               @   in Loop: Header=BB0_98 Depth=2
	@DEBUG_VALUE: fill_normal:y <- [DW_OP_plus_uconst 32] [$sp+0]
	@DEBUG_VALUE: last_dest_color <- $r12
	@DEBUG_VALUE: color_premult <- [DW_OP_LLVM_convert 32 7, DW_OP_LLVM_convert 16 7, DW_OP_stack_value, DW_OP_LLVM_fragment 16 16] $r11
	@DEBUG_VALUE: fill_normal:draw_area_w <- $r10
	@DEBUG_VALUE: color_premult <- [DW_OP_LLVM_convert 32 7, DW_OP_LLVM_convert 16 7, DW_OP_stack_value, DW_OP_LLVM_fragment 0 16] $r9
	@DEBUG_VALUE: fill_normal:disp_buf_first <- $r7
	@DEBUG_VALUE: last_res_color <- $r4
	@DEBUG_VALUE: fill_normal:x <- $r1
	@DEBUG_VALUE: fill_normal:draw_area_h <- [DW_OP_plus_uconst 20] [$sp+0]
	@DEBUG_VALUE: fill_normal:draw_area <- [DW_OP_plus_uconst 36, DW_OP_stack_value] $sp
	@DEBUG_VALUE: fill_normal:color <- [DW_OP_plus_uconst 28] [$sp+0]
	@DEBUG_VALUE: _lv_blend_fill:disp_buf <- [DW_OP_plus_uconst 32] [$sp+0]
	@DEBUG_VALUE: color_premult <- [DW_OP_LLVM_convert 32 7, DW_OP_LLVM_convert 16 7, DW_OP_stack_value, DW_OP_LLVM_fragment 32 16] $lr
	@DEBUG_VALUE: _lv_blend_fill:mask <- [DW_OP_LLVM_entry_value 1] $r3
	@DEBUG_VALUE: _lv_blend_fill:clip_area <- [DW_OP_LLVM_entry_value 1] $r0
	@DEBUG_VALUE: _lv_blend_fill:fill_area <- [DW_OP_LLVM_entry_value 1] $r1
	@DEBUG_VALUE: lv_color_mix_premult:c2 <- [DW_OP_LLVM_convert 32 7, DW_OP_LLVM_convert 16 7, DW_OP_stack_value] undef
	@DEBUG_VALUE: lv_color_mix_premult:premult_c1 <- undef
	@DEBUG_VALUE: lv_color_mix_premult:mix <- [DW_OP_constu 18446744073709551615, DW_OP_xor, DW_OP_stack_value] undef
	.loc	4 502 5 is_stmt 1               @ ../GUILib/src/draw/../core/../misc/lv_color.h:502:5
	lsrs	r4, r0, #11
.Ltmp325:
	smlabb	r4, r4, r6, r9
	mla	r4, r4, r5, r8
	movw	r2, #63488
	movt	r2, #15
	.loc	4 504 5                         @ ../GUILib/src/draw/../core/../misc/lv_color.h:504:5
	and	r3, r0, #31
	.loc	4 502 5                         @ ../GUILib/src/draw/../core/../misc/lv_color.h:502:5
	and.w	r4, r2, r4, lsr #12
.Ltmp326:
	@DEBUG_VALUE: lv_color_mix_premult:ret <- $r4
	.loc	4 503 5                         @ ../GUILib/src/draw/../core/../misc/lv_color.h:503:5
	ubfx	r2, r0, #5, #6
	.loc	4 504 5                         @ ../GUILib/src/draw/../core/../misc/lv_color.h:504:5
	smlabb	r3, r3, r6, lr
	.loc	4 503 5                         @ ../GUILib/src/draw/../core/../misc/lv_color.h:503:5
	smlabb	r2, r2, r6, r11
	.loc	4 504 5                         @ ../GUILib/src/draw/../core/../misc/lv_color.h:504:5
	mla	r3, r3, r5, r8
	.loc	4 503 5                         @ ../GUILib/src/draw/../core/../misc/lv_color.h:503:5
	mla	r2, r2, r5, r8
	.loc	4 504 5                         @ ../GUILib/src/draw/../core/../misc/lv_color.h:504:5
	ubfx	r3, r3, #23, #5
	.loc	4 503 5                         @ ../GUILib/src/draw/../core/../misc/lv_color.h:503:5
	ubfx	r2, r2, #23, #6
.Ltmp327:
	@DEBUG_VALUE: lv_color_mix_premult:ret <- undef
	add	r3, r4
	.loc	4 504 5                         @ ../GUILib/src/draw/../core/../misc/lv_color.h:504:5
	orr.w	r4, r3, r2, lsl #5
.Ltmp328:
	@DEBUG_VALUE: lv_color_mix_premult:ret <- $r4
	@DEBUG_VALUE: last_res_color <- $r4
	@DEBUG_VALUE: last_dest_color <- undef
	.loc	8 0 0 is_stmt 0                 @ ../GUILib/src/draw/lv_draw_blend.c:0:0
	mov	r12, r0
.Ltmp329:
.LBB0_100:                              @   in Loop: Header=BB0_98 Depth=2
	@DEBUG_VALUE: fill_normal:y <- [DW_OP_plus_uconst 32] [$sp+0]
	@DEBUG_VALUE: color_premult <- [DW_OP_LLVM_convert 32 7, DW_OP_LLVM_convert 16 7, DW_OP_stack_value, DW_OP_LLVM_fragment 16 16] $r11
	@DEBUG_VALUE: fill_normal:draw_area_w <- $r10
	@DEBUG_VALUE: color_premult <- [DW_OP_LLVM_convert 32 7, DW_OP_LLVM_convert 16 7, DW_OP_stack_value, DW_OP_LLVM_fragment 0 16] $r9
	@DEBUG_VALUE: fill_normal:disp_buf_first <- $r7
	@DEBUG_VALUE: last_res_color <- $r4
	@DEBUG_VALUE: fill_normal:x <- $r1
	@DEBUG_VALUE: fill_normal:draw_area_h <- [DW_OP_plus_uconst 20] [$sp+0]
	@DEBUG_VALUE: fill_normal:draw_area <- [DW_OP_plus_uconst 36, DW_OP_stack_value] $sp
	@DEBUG_VALUE: fill_normal:color <- [DW_OP_plus_uconst 28] [$sp+0]
	@DEBUG_VALUE: _lv_blend_fill:disp_buf <- [DW_OP_plus_uconst 32] [$sp+0]
	@DEBUG_VALUE: color_premult <- [DW_OP_LLVM_convert 32 7, DW_OP_LLVM_convert 16 7, DW_OP_stack_value, DW_OP_LLVM_fragment 32 16] $lr
	@DEBUG_VALUE: _lv_blend_fill:mask <- [DW_OP_LLVM_entry_value 1] $r3
	@DEBUG_VALUE: _lv_blend_fill:clip_area <- [DW_OP_LLVM_entry_value 1] $r0
	@DEBUG_VALUE: _lv_blend_fill:fill_area <- [DW_OP_LLVM_entry_value 1] $r1
	@DEBUG_VALUE: last_dest_color <- $r12
	@DEBUG_VALUE: last_res_color <- $r4
	.loc	8 384 41 is_stmt 1              @ ../GUILib/src/draw/lv_draw_blend.c:384:41
	strh.w	r4, [r7, r1, lsl #1]
.Ltmp330:
	.loc	8 369 46                        @ ../GUILib/src/draw/lv_draw_blend.c:369:46
	adds	r1, #1
.Ltmp331:
	@DEBUG_VALUE: fill_normal:x <- $r1
	.loc	8 369 17 is_stmt 0              @ ../GUILib/src/draw/lv_draw_blend.c:369:17
	cmp	r10, r1
	bne	.LBB0_98
.Ltmp332:
.LBB0_101:                              @   in Loop: Header=BB0_96 Depth=1
	@DEBUG_VALUE: fill_normal:y <- [DW_OP_plus_uconst 32] [$sp+0]
	@DEBUG_VALUE: last_dest_color <- $r12
	@DEBUG_VALUE: color_premult <- [DW_OP_LLVM_convert 32 7, DW_OP_LLVM_convert 16 7, DW_OP_stack_value, DW_OP_LLVM_fragment 16 16] $r11
	@DEBUG_VALUE: fill_normal:draw_area_w <- $r10
	@DEBUG_VALUE: color_premult <- [DW_OP_LLVM_convert 32 7, DW_OP_LLVM_convert 16 7, DW_OP_stack_value, DW_OP_LLVM_fragment 0 16] $r9
	@DEBUG_VALUE: fill_normal:disp_buf_first <- $r7
	@DEBUG_VALUE: last_res_color <- $r4
	@DEBUG_VALUE: fill_normal:draw_area_h <- [DW_OP_plus_uconst 20] [$sp+0]
	@DEBUG_VALUE: fill_normal:draw_area <- [DW_OP_plus_uconst 36, DW_OP_stack_value] $sp
	@DEBUG_VALUE: fill_normal:color <- [DW_OP_plus_uconst 28] [$sp+0]
	@DEBUG_VALUE: _lv_blend_fill:disp_buf <- [DW_OP_plus_uconst 32] [$sp+0]
	@DEBUG_VALUE: color_premult <- [DW_OP_LLVM_convert 32 7, DW_OP_LLVM_convert 16 7, DW_OP_stack_value, DW_OP_LLVM_fragment 32 16] $lr
	@DEBUG_VALUE: _lv_blend_fill:mask <- [DW_OP_LLVM_entry_value 1] $r3
	@DEBUG_VALUE: _lv_blend_fill:clip_area <- [DW_OP_LLVM_entry_value 1] $r0
	@DEBUG_VALUE: _lv_blend_fill:fill_area <- [DW_OP_LLVM_entry_value 1] $r1
	@DEBUG_VALUE: fill_normal:disp_buf_first <- undef
	.loc	8 0 17                          @ ../GUILib/src/draw/lv_draw_blend.c:0:17
	ldr	r1, [sp, #32]                   @ 4-byte Reload
.Ltmp333:
	@DEBUG_VALUE: fill_normal:y <- $r1
	.loc	8 368 13 is_stmt 1              @ ../GUILib/src/draw/lv_draw_blend.c:368:13
	ldr	r0, [sp, #20]                   @ 4-byte Reload
.Ltmp334:
	.loc	8 368 42 is_stmt 0              @ ../GUILib/src/draw/lv_draw_blend.c:368:42
	adds	r1, #1
.Ltmp335:
	@DEBUG_VALUE: last_res_color <- $r4
	@DEBUG_VALUE: last_dest_color <- $r12
	@DEBUG_VALUE: fill_normal:y <- $r1
	.loc	8 368 13                        @ ../GUILib/src/draw/lv_draw_blend.c:368:13
	cmp	r1, r0
	ldr	r0, [sp, #28]                   @ 4-byte Reload
	add	r7, r0
	bne	.LBB0_96
	b	.LBB0_31
.Ltmp336:
.LBB0_102:
	@DEBUG_VALUE: fill_normal:mask <- $r11
	@DEBUG_VALUE: _lv_blend_fill:mask <- $r11
	@DEBUG_VALUE: fill_normal:draw_area_w <- $r10
	@DEBUG_VALUE: fill_normal:disp <- $r9
	@DEBUG_VALUE: _lv_blend_fill:color <- [DW_OP_LLVM_convert 32 7, DW_OP_LLVM_convert 16 7, DW_OP_stack_value] $r8
	@DEBUG_VALUE: fill_normal:disp_buf_first <- $r7
	@DEBUG_VALUE: fill_normal:disp_buf <- $r6
	@DEBUG_VALUE: fill_normal:mask_res <- $r5
	@DEBUG_VALUE: _lv_blend_fill:mask_res <- $r5
	@DEBUG_VALUE: fill_normal:draw_area_h <- [DW_OP_plus_uconst 20] [$sp+0]
	@DEBUG_VALUE: fill_normal:draw_area <- [DW_OP_plus_uconst 36, DW_OP_stack_value] $sp
	@DEBUG_VALUE: fill_normal:color <- [DW_OP_plus_uconst 28] [$sp+0]
	@DEBUG_VALUE: _lv_blend_fill:disp_buf <- [DW_OP_plus_uconst 32] [$sp+0]
	@DEBUG_VALUE: fill_normal:disp_w <- $lr
	@DEBUG_VALUE: _lv_blend_fill:clip_area <- [DW_OP_LLVM_entry_value 1] $r0
	@DEBUG_VALUE: _lv_blend_fill:fill_area <- [DW_OP_LLVM_entry_value 1] $r1
	@DEBUG_VALUE: fill_normal:mask <- $r11
	@DEBUG_VALUE: fill_normal:disp_buf_first <- $r7
	@DEBUG_VALUE: fill_normal:y <- $r4
	@DEBUG_VALUE: last_mask <- 0
	@DEBUG_VALUE: last_dest_color <- undef
	@DEBUG_VALUE: last_res_color <- undef
	@DEBUG_VALUE: opa_tmp <- 0
	.loc	8 457 13 is_stmt 1              @ ../GUILib/src/draw/lv_draw_blend.c:457:13
	cmp	r4, r0
	str	r4, [sp, #32]                   @ 4-byte Spill
.Ltmp337:
	@DEBUG_VALUE: fill_normal:y <- [DW_OP_plus_uconst 32] [$sp+0]
	@DEBUG_VALUE: fill_normal:y <- [DW_OP_plus_uconst 32] [$sp+0]
	bgt.w	.LBB0_31
.Ltmp338:
@ %bb.103:
	@DEBUG_VALUE: fill_normal:mask <- $r11
	@DEBUG_VALUE: _lv_blend_fill:mask <- $r11
	@DEBUG_VALUE: fill_normal:draw_area_w <- $r10
	@DEBUG_VALUE: fill_normal:disp <- $r9
	@DEBUG_VALUE: _lv_blend_fill:color <- [DW_OP_LLVM_convert 32 7, DW_OP_LLVM_convert 16 7, DW_OP_stack_value] $r8
	@DEBUG_VALUE: fill_normal:disp_buf_first <- $r7
	@DEBUG_VALUE: fill_normal:disp_buf <- $r6
	@DEBUG_VALUE: fill_normal:mask_res <- $r5
	@DEBUG_VALUE: _lv_blend_fill:mask_res <- $r5
	@DEBUG_VALUE: fill_normal:y <- [DW_OP_plus_uconst 32] [$sp+0]
	@DEBUG_VALUE: fill_normal:draw_area_h <- [DW_OP_plus_uconst 20] [$sp+0]
	@DEBUG_VALUE: fill_normal:draw_area <- [DW_OP_plus_uconst 36, DW_OP_stack_value] $sp
	@DEBUG_VALUE: fill_normal:color <- [DW_OP_plus_uconst 28] [$sp+0]
	@DEBUG_VALUE: _lv_blend_fill:disp_buf <- [DW_OP_plus_uconst 32] [$sp+0]
	@DEBUG_VALUE: fill_normal:disp_w <- $lr
	@DEBUG_VALUE: opa_tmp <- 0
	@DEBUG_VALUE: last_mask <- 0
	@DEBUG_VALUE: _lv_blend_fill:clip_area <- [DW_OP_LLVM_entry_value 1] $r0
	@DEBUG_VALUE: _lv_blend_fill:fill_area <- [DW_OP_LLVM_entry_value 1] $r1
	@DEBUG_VALUE: fill_normal:y <- [DW_OP_plus_uconst 32] [$sp+0]
	.loc	8 0 13 is_stmt 0                @ ../GUILib/src/draw/lv_draw_blend.c:0:13
	ldrh	r4, [r7]
	movw	r2, #63519
	movw	r9, #63519
.Ltmp339:
	and.w	r2, r2, r8
	and	r3, r3, #132120576
	movt	r9, #2016
	add.w	r12, r3, r2
	.loc	8 457 13                        @ ../GUILib/src/draw/lv_draw_blend.c:457:13
	lsl.w	r1, lr, #1
	movs	r6, #0
.Ltmp340:
	.loc	8 0 13                          @ ../GUILib/src/draw/lv_draw_blend.c:0:13
	mov.w	r8, #0
.Ltmp341:
	mov	r3, r4
	str	r1, [sp, #20]                   @ 4-byte Spill
.Ltmp342:
.LBB0_104:                              @ =>This Loop Header: Depth=1
                                        @     Child Loop BB0_106 Depth 2
	@DEBUG_VALUE: fill_normal:mask <- $r11
	@DEBUG_VALUE: fill_normal:draw_area_w <- $r10
	@DEBUG_VALUE: fill_normal:y <- [DW_OP_plus_uconst 32] [$sp+0]
	@DEBUG_VALUE: fill_normal:draw_area_h <- [DW_OP_plus_uconst 20] [$sp+0]
	@DEBUG_VALUE: fill_normal:draw_area <- [DW_OP_plus_uconst 36, DW_OP_stack_value] $sp
	@DEBUG_VALUE: fill_normal:color <- [DW_OP_plus_uconst 28] [$sp+0]
	@DEBUG_VALUE: _lv_blend_fill:disp_buf <- [DW_OP_plus_uconst 32] [$sp+0]
	@DEBUG_VALUE: _lv_blend_fill:clip_area <- [DW_OP_LLVM_entry_value 1] $r0
	@DEBUG_VALUE: _lv_blend_fill:fill_area <- [DW_OP_LLVM_entry_value 1] $r1
	@DEBUG_VALUE: fill_normal:mask <- $r11
	@DEBUG_VALUE: fill_normal:disp_buf_first <- $r7
	@DEBUG_VALUE: fill_normal:y <- [DW_OP_plus_uconst 32] [$sp+0]
	@DEBUG_VALUE: fill_normal:x <- 0
	@DEBUG_VALUE: last_mask <- $r8
	@DEBUG_VALUE: last_dest_color <- $r3
	@DEBUG_VALUE: last_res_color <- $r4
	@DEBUG_VALUE: opa_tmp <- $r6
	@DEBUG_VALUE: mask_tmp_x <- $r11
	.loc	8 459 17 is_stmt 1              @ ../GUILib/src/draw/lv_draw_blend.c:459:17
	cmp.w	r10, #1
	blt	.LBB0_116
.Ltmp343:
@ %bb.105:                              @   in Loop: Header=BB0_104 Depth=1
	@DEBUG_VALUE: mask_tmp_x <- $r11
	@DEBUG_VALUE: fill_normal:mask <- $r11
	@DEBUG_VALUE: fill_normal:draw_area_w <- $r10
	@DEBUG_VALUE: last_mask <- $r8
	@DEBUG_VALUE: fill_normal:disp_buf_first <- $r7
	@DEBUG_VALUE: opa_tmp <- $r6
	@DEBUG_VALUE: last_res_color <- $r4
	@DEBUG_VALUE: last_dest_color <- $r3
	@DEBUG_VALUE: fill_normal:y <- [DW_OP_plus_uconst 32] [$sp+0]
	@DEBUG_VALUE: fill_normal:draw_area_h <- [DW_OP_plus_uconst 20] [$sp+0]
	@DEBUG_VALUE: fill_normal:draw_area <- [DW_OP_plus_uconst 36, DW_OP_stack_value] $sp
	@DEBUG_VALUE: fill_normal:color <- [DW_OP_plus_uconst 28] [$sp+0]
	@DEBUG_VALUE: _lv_blend_fill:disp_buf <- [DW_OP_plus_uconst 32] [$sp+0]
	@DEBUG_VALUE: fill_normal:x <- 0
	@DEBUG_VALUE: _lv_blend_fill:clip_area <- [DW_OP_LLVM_entry_value 1] $r0
	@DEBUG_VALUE: _lv_blend_fill:fill_area <- [DW_OP_LLVM_entry_value 1] $r1
	.loc	8 0 17 is_stmt 0                @ ../GUILib/src/draw/lv_draw_blend.c:0:17
	movs	r0, #0
.Ltmp344:
	.p2align	2
.LBB0_106:                              @   Parent Loop BB0_104 Depth=1
                                        @ =>  This Inner Loop Header: Depth=2
	@DEBUG_VALUE: fill_normal:mask <- $r11
	@DEBUG_VALUE: fill_normal:draw_area_w <- $r10
	@DEBUG_VALUE: last_mask <- $r8
	@DEBUG_VALUE: fill_normal:disp_buf_first <- $r7
	@DEBUG_VALUE: opa_tmp <- $r6
	@DEBUG_VALUE: last_res_color <- $r4
	@DEBUG_VALUE: last_dest_color <- $r3
	@DEBUG_VALUE: fill_normal:y <- [DW_OP_plus_uconst 32] [$sp+0]
	@DEBUG_VALUE: fill_normal:draw_area_h <- [DW_OP_plus_uconst 20] [$sp+0]
	@DEBUG_VALUE: fill_normal:draw_area <- [DW_OP_plus_uconst 36, DW_OP_stack_value] $sp
	@DEBUG_VALUE: fill_normal:color <- [DW_OP_plus_uconst 28] [$sp+0]
	@DEBUG_VALUE: _lv_blend_fill:disp_buf <- [DW_OP_plus_uconst 32] [$sp+0]
	@DEBUG_VALUE: _lv_blend_fill:clip_area <- [DW_OP_LLVM_entry_value 1] $r0
	@DEBUG_VALUE: _lv_blend_fill:fill_area <- [DW_OP_LLVM_entry_value 1] $r1
	@DEBUG_VALUE: fill_normal:x <- $r0
	@DEBUG_VALUE: last_mask <- $r8
	@DEBUG_VALUE: last_dest_color <- $r3
	@DEBUG_VALUE: last_res_color <- $r4
	@DEBUG_VALUE: opa_tmp <- $r6
	@DEBUG_VALUE: mask_tmp_x <- undef
	.loc	8 460 24 is_stmt 1              @ ../GUILib/src/draw/lv_draw_blend.c:460:24
	ldrb.w	r5, [r11, r0]
.Ltmp345:
	.loc	8 460 24 is_stmt 0              @ ../GUILib/src/draw/lv_draw_blend.c:460:24
	cbz	r5, .LBB0_114
.Ltmp346:
@ %bb.107:                              @   in Loop: Header=BB0_106 Depth=2
	@DEBUG_VALUE: fill_normal:mask <- $r11
	@DEBUG_VALUE: fill_normal:draw_area_w <- $r10
	@DEBUG_VALUE: last_mask <- $r8
	@DEBUG_VALUE: fill_normal:disp_buf_first <- $r7
	@DEBUG_VALUE: opa_tmp <- $r6
	@DEBUG_VALUE: last_res_color <- $r4
	@DEBUG_VALUE: last_dest_color <- $r3
	@DEBUG_VALUE: fill_normal:x <- $r0
	@DEBUG_VALUE: fill_normal:y <- [DW_OP_plus_uconst 32] [$sp+0]
	@DEBUG_VALUE: fill_normal:draw_area_h <- [DW_OP_plus_uconst 20] [$sp+0]
	@DEBUG_VALUE: fill_normal:draw_area <- [DW_OP_plus_uconst 36, DW_OP_stack_value] $sp
	@DEBUG_VALUE: fill_normal:color <- [DW_OP_plus_uconst 28] [$sp+0]
	@DEBUG_VALUE: _lv_blend_fill:disp_buf <- [DW_OP_plus_uconst 32] [$sp+0]
	@DEBUG_VALUE: _lv_blend_fill:clip_area <- [DW_OP_LLVM_entry_value 1] $r0
	@DEBUG_VALUE: _lv_blend_fill:fill_area <- [DW_OP_LLVM_entry_value 1] $r1
	.loc	8 0 24                          @ ../GUILib/src/draw/lv_draw_blend.c:0:24
	ldr.w	lr, [sp, #84]
.Ltmp347:
	.loc	8 461 28 is_stmt 1              @ ../GUILib/src/draw/lv_draw_blend.c:461:28
	cmp	r5, #255
	mul	r1, r5, lr
	it	ne
	lsrne.w	lr, r1, #8
	cmp	r5, r8
	it	ne
	movne	r6, lr
.Ltmp348:
	@DEBUG_VALUE: opa_tmp <- $r6
	.loc	8 463 53                        @ ../GUILib/src/draw/lv_draw_blend.c:463:53
	bne	.LBB0_109
.Ltmp349:
@ %bb.108:                              @   in Loop: Header=BB0_106 Depth=2
	@DEBUG_VALUE: fill_normal:mask <- $r11
	@DEBUG_VALUE: fill_normal:draw_area_w <- $r10
	@DEBUG_VALUE: last_mask <- $r8
	@DEBUG_VALUE: fill_normal:disp_buf_first <- $r7
	@DEBUG_VALUE: opa_tmp <- $r6
	@DEBUG_VALUE: last_res_color <- $r4
	@DEBUG_VALUE: last_dest_color <- $r3
	@DEBUG_VALUE: fill_normal:x <- $r0
	@DEBUG_VALUE: fill_normal:y <- [DW_OP_plus_uconst 32] [$sp+0]
	@DEBUG_VALUE: fill_normal:draw_area_h <- [DW_OP_plus_uconst 20] [$sp+0]
	@DEBUG_VALUE: fill_normal:draw_area <- [DW_OP_plus_uconst 36, DW_OP_stack_value] $sp
	@DEBUG_VALUE: fill_normal:color <- [DW_OP_plus_uconst 28] [$sp+0]
	@DEBUG_VALUE: _lv_blend_fill:disp_buf <- [DW_OP_plus_uconst 32] [$sp+0]
	@DEBUG_VALUE: _lv_blend_fill:clip_area <- [DW_OP_LLVM_entry_value 1] $r0
	@DEBUG_VALUE: _lv_blend_fill:fill_area <- [DW_OP_LLVM_entry_value 1] $r1
	.loc	8 463 98 is_stmt 0              @ ../GUILib/src/draw/lv_draw_blend.c:463:98
	ldrh.w	r1, [r7, r0, lsl #1]
.Ltmp350:
	.loc	8 463 28                        @ ../GUILib/src/draw/lv_draw_blend.c:463:28
	cmp	r3, r1
	beq	.LBB0_113
.Ltmp351:
.LBB0_109:                              @   in Loop: Header=BB0_106 Depth=2
	@DEBUG_VALUE: fill_normal:mask <- $r11
	@DEBUG_VALUE: fill_normal:draw_area_w <- $r10
	@DEBUG_VALUE: last_mask <- $r8
	@DEBUG_VALUE: fill_normal:disp_buf_first <- $r7
	@DEBUG_VALUE: opa_tmp <- $r6
	@DEBUG_VALUE: last_res_color <- $r4
	@DEBUG_VALUE: last_dest_color <- $r3
	@DEBUG_VALUE: fill_normal:x <- $r0
	@DEBUG_VALUE: fill_normal:y <- [DW_OP_plus_uconst 32] [$sp+0]
	@DEBUG_VALUE: fill_normal:draw_area_h <- [DW_OP_plus_uconst 20] [$sp+0]
	@DEBUG_VALUE: fill_normal:draw_area <- [DW_OP_plus_uconst 36, DW_OP_stack_value] $sp
	@DEBUG_VALUE: fill_normal:color <- [DW_OP_plus_uconst 28] [$sp+0]
	@DEBUG_VALUE: _lv_blend_fill:disp_buf <- [DW_OP_plus_uconst 32] [$sp+0]
	@DEBUG_VALUE: _lv_blend_fill:clip_area <- [DW_OP_LLVM_entry_value 1] $r0
	@DEBUG_VALUE: _lv_blend_fill:fill_area <- [DW_OP_LLVM_entry_value 1] $r1
	.loc	8 472 44 is_stmt 1              @ ../GUILib/src/draw/lv_draw_blend.c:472:44
	uxtb	r1, r6
.Ltmp352:
	.loc	8 0 0 is_stmt 0                 @ ../GUILib/src/draw/lv_draw_blend.c:0:0
	ldrh.w	r3, [r7, r0, lsl #1]
.Ltmp353:
	.loc	8 472 36                        @ ../GUILib/src/draw/lv_draw_blend.c:472:36
	cmp	r1, #255
	beq	.LBB0_111
.Ltmp354:
@ %bb.110:                              @   in Loop: Header=BB0_106 Depth=2
	@DEBUG_VALUE: fill_normal:mask <- $r11
	@DEBUG_VALUE: fill_normal:draw_area_w <- $r10
	@DEBUG_VALUE: last_mask <- $r8
	@DEBUG_VALUE: fill_normal:disp_buf_first <- $r7
	@DEBUG_VALUE: opa_tmp <- $r6
	@DEBUG_VALUE: last_res_color <- $r4
	@DEBUG_VALUE: fill_normal:x <- $r0
	@DEBUG_VALUE: fill_normal:y <- [DW_OP_plus_uconst 32] [$sp+0]
	@DEBUG_VALUE: fill_normal:draw_area_h <- [DW_OP_plus_uconst 20] [$sp+0]
	@DEBUG_VALUE: fill_normal:draw_area <- [DW_OP_plus_uconst 36, DW_OP_stack_value] $sp
	@DEBUG_VALUE: fill_normal:color <- [DW_OP_plus_uconst 28] [$sp+0]
	@DEBUG_VALUE: _lv_blend_fill:disp_buf <- [DW_OP_plus_uconst 32] [$sp+0]
	@DEBUG_VALUE: _lv_blend_fill:clip_area <- [DW_OP_LLVM_entry_value 1] $r0
	@DEBUG_VALUE: _lv_blend_fill:fill_area <- [DW_OP_LLVM_entry_value 1] $r1
	@DEBUG_VALUE: lv_color_mix:c1 <- [DW_OP_LLVM_convert 32 7, DW_OP_LLVM_convert 16 7, DW_OP_stack_value] undef
	@DEBUG_VALUE: lv_color_mix:c2 <- [DW_OP_LLVM_convert 32 7, DW_OP_LLVM_convert 16 7, DW_OP_stack_value] undef
	@DEBUG_VALUE: lv_color_mix:mix <- $r6
	.loc	4 449 16 is_stmt 1              @ ../GUILib/src/draw/../core/../misc/lv_color.h:449:16
	movs	r1, #4
	.loc	4 450 77                        @ ../GUILib/src/draw/../core/../misc/lv_color.h:450:77
	orr.w	r4, r3, r3, lsl #16
.Ltmp355:
	.loc	4 449 16                        @ ../GUILib/src/draw/../core/../misc/lv_color.h:449:16
	uxtab	r1, r1, r6
	.loc	4 450 77                        @ ../GUILib/src/draw/../core/../misc/lv_color.h:450:77
	and.w	r4, r4, r9
.Ltmp356:
	@DEBUG_VALUE: lv_color_mix:fg <- $r12
	@DEBUG_VALUE: lv_color_mix:bg <- $r4
	.loc	4 449 21                        @ ../GUILib/src/draw/../core/../misc/lv_color.h:449:21
	lsrs	r1, r1, #3
.Ltmp357:
	@DEBUG_VALUE: lv_color_mix:mix <- [DW_OP_LLVM_convert 16 7, DW_OP_LLVM_convert 8 7, DW_OP_stack_value] $r1
	.loc	4 453 30                        @ ../GUILib/src/draw/../core/../misc/lv_color.h:453:30
	sub.w	r2, r12, r4
	.loc	4 453 36 is_stmt 0              @ ../GUILib/src/draw/../core/../misc/lv_color.h:453:36
	muls	r1, r2, r1
.Ltmp358:
	.loc	4 453 49                        @ ../GUILib/src/draw/../core/../misc/lv_color.h:453:49
	add.w	r1, r4, r1, lsr #5
	.loc	4 453 55                        @ ../GUILib/src/draw/../core/../misc/lv_color.h:453:55
	and.w	r1, r1, r9
.Ltmp359:
	@DEBUG_VALUE: lv_color_mix:result <- $r1
	.loc	4 454 42 is_stmt 1              @ ../GUILib/src/draw/../core/../misc/lv_color.h:454:42
	orr.w	r1, r1, r1, lsr #16
.Ltmp360:
	.loc	4 454 16 is_stmt 0              @ ../GUILib/src/draw/../core/../misc/lv_color.h:454:16
	uxth	r4, r1
.Ltmp361:
	@DEBUG_VALUE: lv_color_mix:ret <- $r4
	@DEBUG_VALUE: last_res_color <- $r4
	.loc	4 0 16                          @ ../GUILib/src/draw/../core/../misc/lv_color.h:0:16
	b	.LBB0_112
.Ltmp362:
.LBB0_111:                              @   in Loop: Header=BB0_106 Depth=2
	@DEBUG_VALUE: fill_normal:mask <- $r11
	@DEBUG_VALUE: fill_normal:draw_area_w <- $r10
	@DEBUG_VALUE: last_mask <- $r8
	@DEBUG_VALUE: fill_normal:disp_buf_first <- $r7
	@DEBUG_VALUE: opa_tmp <- $r6
	@DEBUG_VALUE: last_res_color <- $r4
	@DEBUG_VALUE: fill_normal:x <- $r0
	@DEBUG_VALUE: fill_normal:y <- [DW_OP_plus_uconst 32] [$sp+0]
	@DEBUG_VALUE: fill_normal:draw_area_h <- [DW_OP_plus_uconst 20] [$sp+0]
	@DEBUG_VALUE: fill_normal:draw_area <- [DW_OP_plus_uconst 36, DW_OP_stack_value] $sp
	@DEBUG_VALUE: fill_normal:color <- [DW_OP_plus_uconst 28] [$sp+0]
	@DEBUG_VALUE: _lv_blend_fill:disp_buf <- [DW_OP_plus_uconst 32] [$sp+0]
	@DEBUG_VALUE: _lv_blend_fill:clip_area <- [DW_OP_LLVM_entry_value 1] $r0
	@DEBUG_VALUE: _lv_blend_fill:fill_area <- [DW_OP_LLVM_entry_value 1] $r1
	ldr	r4, [sp, #28]                   @ 4-byte Reload
.Ltmp363:
.LBB0_112:                              @   in Loop: Header=BB0_106 Depth=2
	@DEBUG_VALUE: fill_normal:mask <- $r11
	@DEBUG_VALUE: fill_normal:draw_area_w <- $r10
	@DEBUG_VALUE: last_mask <- $r8
	@DEBUG_VALUE: fill_normal:disp_buf_first <- $r7
	@DEBUG_VALUE: opa_tmp <- $r6
	@DEBUG_VALUE: fill_normal:x <- $r0
	@DEBUG_VALUE: fill_normal:y <- [DW_OP_plus_uconst 32] [$sp+0]
	@DEBUG_VALUE: fill_normal:draw_area_h <- [DW_OP_plus_uconst 20] [$sp+0]
	@DEBUG_VALUE: fill_normal:draw_area <- [DW_OP_plus_uconst 36, DW_OP_stack_value] $sp
	@DEBUG_VALUE: fill_normal:color <- [DW_OP_plus_uconst 28] [$sp+0]
	@DEBUG_VALUE: _lv_blend_fill:disp_buf <- [DW_OP_plus_uconst 32] [$sp+0]
	@DEBUG_VALUE: _lv_blend_fill:clip_area <- [DW_OP_LLVM_entry_value 1] $r0
	@DEBUG_VALUE: _lv_blend_fill:fill_area <- [DW_OP_LLVM_entry_value 1] $r1
	mov	r8, r5
.Ltmp364:
.LBB0_113:                              @   in Loop: Header=BB0_106 Depth=2
	@DEBUG_VALUE: fill_normal:mask <- $r11
	@DEBUG_VALUE: fill_normal:draw_area_w <- $r10
	@DEBUG_VALUE: fill_normal:disp_buf_first <- $r7
	@DEBUG_VALUE: opa_tmp <- $r6
	@DEBUG_VALUE: fill_normal:x <- $r0
	@DEBUG_VALUE: fill_normal:y <- [DW_OP_plus_uconst 32] [$sp+0]
	@DEBUG_VALUE: fill_normal:draw_area_h <- [DW_OP_plus_uconst 20] [$sp+0]
	@DEBUG_VALUE: fill_normal:draw_area <- [DW_OP_plus_uconst 36, DW_OP_stack_value] $sp
	@DEBUG_VALUE: fill_normal:color <- [DW_OP_plus_uconst 28] [$sp+0]
	@DEBUG_VALUE: _lv_blend_fill:disp_buf <- [DW_OP_plus_uconst 32] [$sp+0]
	@DEBUG_VALUE: _lv_blend_fill:clip_area <- [DW_OP_LLVM_entry_value 1] $r0
	@DEBUG_VALUE: _lv_blend_fill:fill_area <- [DW_OP_LLVM_entry_value 1] $r1
	@DEBUG_VALUE: last_mask <- $r8
	@DEBUG_VALUE: last_dest_color <- $r3
	@DEBUG_VALUE: last_res_color <- $r4
	.loc	8 478 45 is_stmt 1              @ ../GUILib/src/draw/lv_draw_blend.c:478:45
	strh.w	r4, [r7, r0, lsl #1]
.Ltmp365:
.LBB0_114:                              @   in Loop: Header=BB0_106 Depth=2
	@DEBUG_VALUE: fill_normal:mask <- $r11
	@DEBUG_VALUE: fill_normal:draw_area_w <- $r10
	@DEBUG_VALUE: last_mask <- $r8
	@DEBUG_VALUE: fill_normal:disp_buf_first <- $r7
	@DEBUG_VALUE: opa_tmp <- $r6
	@DEBUG_VALUE: last_res_color <- $r4
	@DEBUG_VALUE: last_dest_color <- $r3
	@DEBUG_VALUE: fill_normal:x <- $r0
	@DEBUG_VALUE: fill_normal:y <- [DW_OP_plus_uconst 32] [$sp+0]
	@DEBUG_VALUE: fill_normal:draw_area_h <- [DW_OP_plus_uconst 20] [$sp+0]
	@DEBUG_VALUE: fill_normal:draw_area <- [DW_OP_plus_uconst 36, DW_OP_stack_value] $sp
	@DEBUG_VALUE: fill_normal:color <- [DW_OP_plus_uconst 28] [$sp+0]
	@DEBUG_VALUE: _lv_blend_fill:disp_buf <- [DW_OP_plus_uconst 32] [$sp+0]
	@DEBUG_VALUE: _lv_blend_fill:clip_area <- [DW_OP_LLVM_entry_value 1] $r0
	@DEBUG_VALUE: _lv_blend_fill:fill_area <- [DW_OP_LLVM_entry_value 1] $r1
	@DEBUG_VALUE: last_mask <- $r8
	@DEBUG_VALUE: last_dest_color <- $r3
	@DEBUG_VALUE: last_res_color <- $r4
	@DEBUG_VALUE: opa_tmp <- $r6
	@DEBUG_VALUE: mask_tmp_x <- [DW_OP_plus_uconst 1, DW_OP_stack_value] undef
	.loc	8 459 46                        @ ../GUILib/src/draw/lv_draw_blend.c:459:46
	adds	r0, #1
.Ltmp366:
	@DEBUG_VALUE: fill_normal:x <- $r0
	.loc	8 459 17 is_stmt 0              @ ../GUILib/src/draw/lv_draw_blend.c:459:17
	cmp	r10, r0
	bne	.LBB0_106
.Ltmp367:
@ %bb.115:                              @   in Loop: Header=BB0_104 Depth=1
	@DEBUG_VALUE: fill_normal:mask <- $r11
	@DEBUG_VALUE: fill_normal:draw_area_w <- $r10
	@DEBUG_VALUE: last_mask <- $r8
	@DEBUG_VALUE: fill_normal:disp_buf_first <- $r7
	@DEBUG_VALUE: opa_tmp <- $r6
	@DEBUG_VALUE: last_res_color <- $r4
	@DEBUG_VALUE: last_dest_color <- $r3
	@DEBUG_VALUE: fill_normal:x <- $r0
	@DEBUG_VALUE: fill_normal:y <- [DW_OP_plus_uconst 32] [$sp+0]
	@DEBUG_VALUE: fill_normal:draw_area_h <- [DW_OP_plus_uconst 20] [$sp+0]
	@DEBUG_VALUE: fill_normal:draw_area <- [DW_OP_plus_uconst 36, DW_OP_stack_value] $sp
	@DEBUG_VALUE: fill_normal:color <- [DW_OP_plus_uconst 28] [$sp+0]
	@DEBUG_VALUE: _lv_blend_fill:disp_buf <- [DW_OP_plus_uconst 32] [$sp+0]
	@DEBUG_VALUE: _lv_blend_fill:clip_area <- [DW_OP_LLVM_entry_value 1] $r0
	@DEBUG_VALUE: _lv_blend_fill:fill_area <- [DW_OP_LLVM_entry_value 1] $r1
	.loc	8 457 52 is_stmt 1              @ ../GUILib/src/draw/lv_draw_blend.c:457:52
	ldrh.w	r0, [sp, #42]
.Ltmp368:
.LBB0_116:                              @   in Loop: Header=BB0_104 Depth=1
	@DEBUG_VALUE: fill_normal:mask <- $r11
	@DEBUG_VALUE: fill_normal:draw_area_w <- $r10
	@DEBUG_VALUE: last_mask <- $r8
	@DEBUG_VALUE: fill_normal:disp_buf_first <- $r7
	@DEBUG_VALUE: opa_tmp <- $r6
	@DEBUG_VALUE: last_res_color <- $r4
	@DEBUG_VALUE: last_dest_color <- $r3
	@DEBUG_VALUE: fill_normal:y <- [DW_OP_plus_uconst 32] [$sp+0]
	@DEBUG_VALUE: fill_normal:draw_area_h <- [DW_OP_plus_uconst 20] [$sp+0]
	@DEBUG_VALUE: fill_normal:draw_area <- [DW_OP_plus_uconst 36, DW_OP_stack_value] $sp
	@DEBUG_VALUE: fill_normal:color <- [DW_OP_plus_uconst 28] [$sp+0]
	@DEBUG_VALUE: _lv_blend_fill:disp_buf <- [DW_OP_plus_uconst 32] [$sp+0]
	@DEBUG_VALUE: _lv_blend_fill:clip_area <- [DW_OP_LLVM_entry_value 1] $r0
	@DEBUG_VALUE: _lv_blend_fill:fill_area <- [DW_OP_LLVM_entry_value 1] $r1
	@DEBUG_VALUE: fill_normal:disp_buf_first <- undef
	.loc	8 0 52 is_stmt 0                @ ../GUILib/src/draw/lv_draw_blend.c:0:52
	ldr	r2, [sp, #32]                   @ 4-byte Reload
	.loc	8 457 41                        @ ../GUILib/src/draw/lv_draw_blend.c:457:41
	sxth	r1, r0
.Ltmp369:
	.loc	8 457 13                        @ ../GUILib/src/draw/lv_draw_blend.c:457:13
	cmp	r2, r1
.Ltmp370:
	.loc	8 457 57                        @ ../GUILib/src/draw/lv_draw_blend.c:457:57
	add.w	r1, r2, #1
.Ltmp371:
	@DEBUG_VALUE: opa_tmp <- $r6
	@DEBUG_VALUE: last_res_color <- $r4
	@DEBUG_VALUE: last_dest_color <- $r3
	@DEBUG_VALUE: last_mask <- $r8
	@DEBUG_VALUE: fill_normal:y <- $r1
	.loc	8 457 13                        @ ../GUILib/src/draw/lv_draw_blend.c:457:13
	ldr	r2, [sp, #20]                   @ 4-byte Reload
.Ltmp372:
	.loc	8 483 22 is_stmt 1              @ ../GUILib/src/draw/lv_draw_blend.c:483:22
	add	r11, r10
.Ltmp373:
	@DEBUG_VALUE: _lv_blend_fill:mask <- [DW_OP_LLVM_entry_value 1] $r3
	@DEBUG_VALUE: fill_normal:mask <- $r11
	.loc	8 457 13                        @ ../GUILib/src/draw/lv_draw_blend.c:457:13
	add	r7, r2
	str	r1, [sp, #32]                   @ 4-byte Spill
.Ltmp374:
	@DEBUG_VALUE: fill_normal:y <- [DW_OP_plus_uconst 32] [$sp+0]
	@DEBUG_VALUE: fill_normal:y <- [DW_OP_plus_uconst 32] [$sp+0]
	@DEBUG_VALUE: fill_normal:y <- [DW_OP_plus_uconst 32] [$sp+0]
	.loc	8 0 13 is_stmt 0                @ ../GUILib/src/draw/lv_draw_blend.c:0:13
	blt	.LBB0_104
	b	.LBB0_31
.Ltmp375:
.LBB0_117:
	@DEBUG_VALUE: fill_normal:mask <- $r11
	@DEBUG_VALUE: _lv_blend_fill:mask <- $r11
	@DEBUG_VALUE: fill_normal:draw_area_w <- $r10
	@DEBUG_VALUE: fill_normal:disp <- $r9
	@DEBUG_VALUE: _lv_blend_fill:color <- [DW_OP_LLVM_convert 32 7, DW_OP_LLVM_convert 16 7, DW_OP_stack_value] $r8
	@DEBUG_VALUE: fill_normal:disp_buf_first <- $r7
	@DEBUG_VALUE: fill_normal:disp_buf <- $r6
	@DEBUG_VALUE: fill_normal:mask_res <- $r5
	@DEBUG_VALUE: _lv_blend_fill:mask_res <- $r5
	@DEBUG_VALUE: fill_normal:draw_area_h <- [DW_OP_plus_uconst 20] [$sp+0]
	@DEBUG_VALUE: fill_normal:draw_area <- [DW_OP_plus_uconst 36, DW_OP_stack_value] $sp
	@DEBUG_VALUE: fill_normal:color <- [DW_OP_plus_uconst 28] [$sp+0]
	@DEBUG_VALUE: _lv_blend_fill:disp_buf <- [DW_OP_plus_uconst 32] [$sp+0]
	@DEBUG_VALUE: fill_normal:disp_w <- $lr
	@DEBUG_VALUE: _lv_blend_fill:clip_area <- [DW_OP_LLVM_entry_value 1] $r0
	@DEBUG_VALUE: _lv_blend_fill:fill_area <- [DW_OP_LLVM_entry_value 1] $r1
	@DEBUG_VALUE: fill_normal:disp_buf_first <- $r7
	@DEBUG_VALUE: fill_normal:y <- 0
	.loc	8 341 13 is_stmt 1              @ ../GUILib/src/draw/lv_draw_blend.c:341:13
	ldr	r0, [sp, #20]                   @ 4-byte Reload
	cmp	r0, #1
	blt.w	.LBB0_31
.Ltmp376:
@ %bb.118:
	@DEBUG_VALUE: fill_normal:mask <- $r11
	@DEBUG_VALUE: _lv_blend_fill:mask <- $r11
	@DEBUG_VALUE: fill_normal:draw_area_w <- $r10
	@DEBUG_VALUE: fill_normal:disp <- $r9
	@DEBUG_VALUE: _lv_blend_fill:color <- [DW_OP_LLVM_convert 32 7, DW_OP_LLVM_convert 16 7, DW_OP_stack_value] $r8
	@DEBUG_VALUE: fill_normal:disp_buf_first <- $r7
	@DEBUG_VALUE: fill_normal:disp_buf <- $r6
	@DEBUG_VALUE: fill_normal:mask_res <- $r5
	@DEBUG_VALUE: _lv_blend_fill:mask_res <- $r5
	@DEBUG_VALUE: fill_normal:draw_area_h <- [DW_OP_plus_uconst 20] [$sp+0]
	@DEBUG_VALUE: fill_normal:draw_area <- [DW_OP_plus_uconst 36, DW_OP_stack_value] $sp
	@DEBUG_VALUE: fill_normal:color <- [DW_OP_plus_uconst 28] [$sp+0]
	@DEBUG_VALUE: _lv_blend_fill:disp_buf <- [DW_OP_plus_uconst 32] [$sp+0]
	@DEBUG_VALUE: fill_normal:disp_w <- $lr
	@DEBUG_VALUE: fill_normal:y <- 0
	@DEBUG_VALUE: _lv_blend_fill:clip_area <- [DW_OP_LLVM_entry_value 1] $r0
	@DEBUG_VALUE: _lv_blend_fill:fill_area <- [DW_OP_LLVM_entry_value 1] $r1
	lsl.w	r5, lr, #1
.Ltmp377:
	.loc	8 0 13 is_stmt 0                @ ../GUILib/src/draw/lv_draw_blend.c:0:13
	movw	r6, #65535
.Ltmp378:
                                        @ implicit-def: $r4
.LBB0_119:                              @ =>This Inner Loop Header: Depth=1
	@DEBUG_VALUE: fill_normal:mask <- $r11
	@DEBUG_VALUE: _lv_blend_fill:mask <- $r11
	@DEBUG_VALUE: fill_normal:draw_area_w <- $r10
	@DEBUG_VALUE: fill_normal:disp <- $r9
	@DEBUG_VALUE: _lv_blend_fill:color <- [DW_OP_LLVM_convert 32 7, DW_OP_LLVM_convert 16 7, DW_OP_stack_value] $r8
	@DEBUG_VALUE: fill_normal:draw_area_h <- [DW_OP_plus_uconst 20] [$sp+0]
	@DEBUG_VALUE: fill_normal:draw_area <- [DW_OP_plus_uconst 36, DW_OP_stack_value] $sp
	@DEBUG_VALUE: fill_normal:color <- [DW_OP_plus_uconst 28] [$sp+0]
	@DEBUG_VALUE: _lv_blend_fill:disp_buf <- [DW_OP_plus_uconst 32] [$sp+0]
	@DEBUG_VALUE: _lv_blend_fill:clip_area <- [DW_OP_LLVM_entry_value 1] $r0
	@DEBUG_VALUE: _lv_blend_fill:fill_area <- [DW_OP_LLVM_entry_value 1] $r1
	@DEBUG_VALUE: fill_normal:disp_buf_first <- $r7
	@DEBUG_VALUE: fill_normal:y <- undef
	.loc	8 342 17 is_stmt 1              @ ../GUILib/src/draw/lv_draw_blend.c:342:17
	ldr	r1, [sp, #28]                   @ 4-byte Reload
	bic.w	r0, r4, r6
	adds	r4, r0, r1
	mov	r0, r7
	mov	r1, r4
	mov	r2, r10
	bl	lv_color_fill
.Ltmp379:
	@DEBUG_VALUE: fill_normal:y <- [DW_OP_plus_uconst 1, DW_OP_stack_value] undef
	@DEBUG_VALUE: fill_normal:disp_buf_first <- undef
	.loc	8 341 26                        @ ../GUILib/src/draw/lv_draw_blend.c:341:26
	ldr	r0, [sp, #20]                   @ 4-byte Reload
	add	r7, r5
	subs	r0, #1
	str	r0, [sp, #20]                   @ 4-byte Spill
.Ltmp380:
	.loc	8 341 13 is_stmt 0              @ ../GUILib/src/draw/lv_draw_blend.c:341:13
	bne	.LBB0_119
	b	.LBB0_31
.Ltmp381:
.Lfunc_end0:
	.size	_lv_blend_fill, .Lfunc_end0-_lv_blend_fill
	.cfi_endproc
	.file	9 "C:\\Users\\Hyacincher\\Desktop\\HyTelectrl\\Code\\Project" "../GUILib/src/hal/lv_hal_disp.h"
	.file	10 "C:\\Users\\Hyacincher\\Desktop\\HyTelectrl\\Code\\Project" "../GUILib/src/hal/../misc/lv_timer.h"
	.file	11 "C:\\Users\\Hyacincher\\Desktop\\HyTelectrl\\Code\\Project" "../GUILib/src/draw/../core/lv_obj_class.h"
	.file	12 "C:\\Users\\Hyacincher\\Desktop\\HyTelectrl\\Code\\Project" "../GUILib/src/draw/../core/lv_obj.h"
	.file	13 "C:\\Users\\Hyacincher\\Desktop\\HyTelectrl\\Code\\Project" "../GUILib/src/draw/../core/../misc/lv_ll.h"
	.file	14 "C:\\Users\\Hyacincher\\Desktop\\HyTelectrl\\Code\\Project" "../GUILib/src/draw/../core/lv_group.h"
	.file	15 "C:\\Users\\Hyacincher\\Desktop\\HyTelectrl\\Code\\Project" "../GUILib/src/draw/../core/lv_obj_scroll.h"
	.file	16 "C:\\Users\\Hyacincher\\Desktop\\HyTelectrl\\Code\\Project" "../GUILib/src/draw/../core/lv_obj_style.h"
	.cantunwind
	.fnend
                                        @ -- End function
	.section	.text._lv_blend_map,"ax",%progbits
	.hidden	_lv_blend_map                   @ -- Begin function _lv_blend_map
	.globl	_lv_blend_map
	.p2align	1
	.type	_lv_blend_map,%function
	.code	16                              @ @_lv_blend_map
	.thumb_func
_lv_blend_map:
.Lfunc_begin1:
	.loc	8 190 0 is_stmt 1               @ ../GUILib/src/draw/lv_draw_blend.c:190:0
	.fnstart
	.cfi_startproc
@ %bb.0:
	@DEBUG_VALUE: _lv_blend_map:clip_area <- $r0
	@DEBUG_VALUE: _lv_blend_map:map_area <- $r1
	@DEBUG_VALUE: _lv_blend_map:map_buf <- $r2
	@DEBUG_VALUE: _lv_blend_map:mask <- $r3
	.save	{r4, r5, r6, r7, r8, r9, r10, r11, lr}
	push.w	{r4, r5, r6, r7, r8, r9, r10, r11, lr}
	.cfi_def_cfa_offset 36
	.cfi_offset lr, -4
	.cfi_offset r11, -8
	.cfi_offset r10, -12
	.cfi_offset r9, -16
	.cfi_offset r8, -20
	.cfi_offset r7, -24
	.cfi_offset r6, -28
	.cfi_offset r5, -32
	.cfi_offset r4, -36
	.pad	#68
	sub	sp, #68
	.cfi_def_cfa_offset 104
	ldr.w	r9, [sp, #104]
.Ltmp382:
	@DEBUG_VALUE: _lv_blend_map:mask_res <- $r9
	@DEBUG_VALUE: _lv_blend_map:mask <- $r3
	@DEBUG_VALUE: _lv_blend_map:map_buf <- $r2
	@DEBUG_VALUE: _lv_blend_map:map_area <- $r1
	.loc	8 192 8 prologue_end            @ ../GUILib/src/draw/lv_draw_blend.c:192:8
	cmp.w	r9, #0
	@DEBUG_VALUE: _lv_blend_map:opa <- undef
	@DEBUG_VALUE: _lv_blend_map:mode <- undef
	@DEBUG_VALUE: _lv_blend_map:clip_area <- $r0
	beq.w	.LBB1_33
.Ltmp383:
@ %bb.1:
	@DEBUG_VALUE: _lv_blend_map:mask_res <- $r9
	@DEBUG_VALUE: _lv_blend_map:mask <- $r3
	@DEBUG_VALUE: _lv_blend_map:map_buf <- $r2
	@DEBUG_VALUE: _lv_blend_map:map_area <- $r1
	@DEBUG_VALUE: _lv_blend_map:clip_area <- $r0
	@DEBUG_VALUE: _lv_blend_map:map_buf <- $r2
	.loc	8 0 8 is_stmt 0                 @ ../GUILib/src/draw/lv_draw_blend.c:0:8
	mov	r4, r1
.Ltmp384:
	@DEBUG_VALUE: _lv_blend_map:map_area <- $r4
	@DEBUG_VALUE: _lv_blend_map:map_area <- $r4
	mov	r1, r0
.Ltmp385:
	@DEBUG_VALUE: _lv_blend_map:clip_area <- $r1
	@DEBUG_VALUE: _lv_blend_map:mode <- undef
	ldr	r0, [sp, #108]
.Ltmp386:
	@DEBUG_VALUE: _lv_blend_map:opa <- $r0
	.loc	8 192 8                         @ ../GUILib/src/draw/lv_draw_blend.c:192:8
	cmp	r0, #2
	blo.w	.LBB1_33
.Ltmp387:
@ %bb.2:
	@DEBUG_VALUE: _lv_blend_map:mask_res <- $r9
	@DEBUG_VALUE: _lv_blend_map:map_area <- $r4
	@DEBUG_VALUE: _lv_blend_map:mask <- $r3
	@DEBUG_VALUE: _lv_blend_map:map_buf <- $r2
	@DEBUG_VALUE: _lv_blend_map:clip_area <- $r1
	@DEBUG_VALUE: _lv_blend_map:opa <- $r0
	.loc	8 0 8                           @ ../GUILib/src/draw/lv_draw_blend.c:0:8
	mov	r10, r2
.Ltmp388:
	@DEBUG_VALUE: _lv_blend_map:map_buf <- $r10
	@DEBUG_VALUE: _lv_blend_map:map_buf <- $r10
	@DEBUG_VALUE: _lv_blend_map:mode <- undef
	add	r0, sp, #60
.Ltmp389:
	.loc	8 199 17 is_stmt 1              @ ../GUILib/src/draw/lv_draw_blend.c:199:17
	mov	r2, r4
	str	r3, [sp, #44]                   @ 4-byte Spill
.Ltmp390:
	@DEBUG_VALUE: _lv_blend_map:mask <- [DW_OP_plus_uconst 44] [$sp+0]
	bl	_lv_area_intersect
.Ltmp391:
	@DEBUG_VALUE: _lv_blend_map:is_common <- [DW_OP_LLVM_convert 1 7, DW_OP_LLVM_convert 8 7, DW_OP_stack_value] undef
	.loc	8 200 8                         @ ../GUILib/src/draw/lv_draw_blend.c:200:8
	cmp	r0, #0
	beq.w	.LBB1_33
.Ltmp392:
@ %bb.3:
	@DEBUG_VALUE: _lv_blend_map:mask <- [DW_OP_plus_uconst 44] [$sp+0]
	@DEBUG_VALUE: _lv_blend_map:map_buf <- $r10
	@DEBUG_VALUE: _lv_blend_map:mask_res <- $r9
	@DEBUG_VALUE: _lv_blend_map:map_area <- $r4
	@DEBUG_VALUE: _lv_blend_map:mode <- undef
	.loc	8 202 24                        @ ../GUILib/src/draw/lv_draw_blend.c:202:24
	bl	_lv_refr_get_disp_refreshing
.Ltmp393:
	mov	r7, r0
.Ltmp394:
	@DEBUG_VALUE: _lv_blend_map:disp <- $r7
	.loc	8 203 37                        @ ../GUILib/src/draw/lv_draw_blend.c:203:37
	bl	lv_disp_get_draw_buf
.Ltmp395:
	.loc	8 207 14                        @ ../GUILib/src/draw/lv_draw_blend.c:207:14
	ldr	r1, [r7]
.Ltmp396:
	.loc	8 205 39                        @ ../GUILib/src/draw/lv_draw_blend.c:205:39
	ldr.w	r8, [r0, #8]
.Ltmp397:
	@DEBUG_VALUE: _lv_blend_map:disp_buf <- $r8
	.loc	8 207 22                        @ ../GUILib/src/draw/lv_draw_blend.c:207:22
	ldr	r2, [r1, #44]
.Ltmp398:
	.loc	8 203 37                        @ ../GUILib/src/draw/lv_draw_blend.c:203:37
	mov	r5, r0
.Ltmp399:
	@DEBUG_VALUE: _lv_blend_map:disp_area <- [DW_OP_plus_uconst 16, DW_OP_stack_value] $r5
	@DEBUG_VALUE: _lv_blend_map:draw_buf <- $r5
	.loc	8 207 8                         @ ../GUILib/src/draw/lv_draw_blend.c:207:8
	cbz	r2, .LBB1_5
.Ltmp400:
@ %bb.4:
	@DEBUG_VALUE: _lv_blend_map:mask <- [DW_OP_plus_uconst 44] [$sp+0]
	@DEBUG_VALUE: _lv_blend_map:map_buf <- $r10
	@DEBUG_VALUE: _lv_blend_map:mask_res <- $r9
	@DEBUG_VALUE: _lv_blend_map:disp_buf <- $r8
	@DEBUG_VALUE: _lv_blend_map:disp <- $r7
	@DEBUG_VALUE: _lv_blend_map:draw_buf <- $r5
	@DEBUG_VALUE: _lv_blend_map:disp_area <- [DW_OP_plus_uconst 16, DW_OP_stack_value] $r5
	@DEBUG_VALUE: _lv_blend_map:map_area <- $r4
	.loc	8 207 35 is_stmt 0              @ ../GUILib/src/draw/lv_draw_blend.c:207:35
	mov	r0, r1
	blx	r2
.Ltmp401:
.LBB1_5:
	@DEBUG_VALUE: _lv_blend_map:mask <- [DW_OP_plus_uconst 44] [$sp+0]
	@DEBUG_VALUE: _lv_blend_map:map_buf <- $r10
	@DEBUG_VALUE: _lv_blend_map:mask_res <- $r9
	@DEBUG_VALUE: _lv_blend_map:disp_buf <- $r8
	@DEBUG_VALUE: _lv_blend_map:disp <- $r7
	@DEBUG_VALUE: _lv_blend_map:draw_buf <- $r5
	@DEBUG_VALUE: _lv_blend_map:disp_area <- [DW_OP_plus_uconst 16, DW_OP_stack_value] $r5
	@DEBUG_VALUE: _lv_blend_map:map_area <- $r4
	@DEBUG_VALUE: _lv_blend_map:mode <- undef
	.loc	8 211 32 is_stmt 1              @ ../GUILib/src/draw/lv_draw_blend.c:211:32
	ldrh	r0, [r5, #16]
	.loc	8 211 18 is_stmt 0              @ ../GUILib/src/draw/lv_draw_blend.c:211:18
	ldrh.w	r1, [sp, #60]
	.loc	8 212 18 is_stmt 1              @ ../GUILib/src/draw/lv_draw_blend.c:212:18
	ldrh.w	r2, [sp, #62]
	.loc	8 211 18                        @ ../GUILib/src/draw/lv_draw_blend.c:211:18
	sub.w	r11, r1, r0
	.loc	8 212 32                        @ ../GUILib/src/draw/lv_draw_blend.c:212:32
	ldrh	r1, [r5, #18]
	.loc	8 213 18                        @ ../GUILib/src/draw/lv_draw_blend.c:213:18
	ldrh.w	r3, [sp, #64]
	.loc	8 212 18                        @ ../GUILib/src/draw/lv_draw_blend.c:212:18
	sub.w	r12, r2, r1
	.loc	8 213 18                        @ ../GUILib/src/draw/lv_draw_blend.c:213:18
	subs	r0, r3, r0
	.loc	8 214 18                        @ ../GUILib/src/draw/lv_draw_blend.c:214:18
	ldrh.w	r3, [sp, #66]
	ldr	r2, [sp, #44]                   @ 4-byte Reload
.Ltmp402:
	@DEBUG_VALUE: _lv_blend_map:mask <- $r2
	subs	r3, r3, r1
	.loc	8 211 18                        @ ../GUILib/src/draw/lv_draw_blend.c:211:18
	strh.w	r11, [sp, #60]
	.loc	8 212 18                        @ ../GUILib/src/draw/lv_draw_blend.c:212:18
	strh.w	r12, [sp, #62]
	.loc	8 213 18                        @ ../GUILib/src/draw/lv_draw_blend.c:213:18
	strh.w	r0, [sp, #64]
	.loc	8 214 18                        @ ../GUILib/src/draw/lv_draw_blend.c:214:18
	strh.w	r3, [sp, #66]
.Ltmp403:
	.loc	8 217 13                        @ ../GUILib/src/draw/lv_draw_blend.c:217:13
	cbz	r2, .LBB1_10
.Ltmp404:
@ %bb.6:
	@DEBUG_VALUE: _lv_blend_map:map_buf <- $r10
	@DEBUG_VALUE: _lv_blend_map:mask_res <- $r9
	@DEBUG_VALUE: _lv_blend_map:disp_buf <- $r8
	@DEBUG_VALUE: _lv_blend_map:disp <- $r7
	@DEBUG_VALUE: _lv_blend_map:draw_buf <- $r5
	@DEBUG_VALUE: _lv_blend_map:disp_area <- [DW_OP_plus_uconst 16, DW_OP_stack_value] $r5
	@DEBUG_VALUE: _lv_blend_map:map_area <- $r4
	@DEBUG_VALUE: _lv_blend_map:mask <- $r2
	.loc	8 217 22 is_stmt 0              @ ../GUILib/src/draw/lv_draw_blend.c:217:22
	ldr	r1, [r7]
.Ltmp405:
	.loc	8 217 8                         @ ../GUILib/src/draw/lv_draw_blend.c:217:8
	ldrb	r1, [r1, #16]
	lsls	r1, r1, #28
	bmi	.LBB1_10
.Ltmp406:
@ %bb.7:
	@DEBUG_VALUE: _lv_blend_map:map_buf <- $r10
	@DEBUG_VALUE: _lv_blend_map:mask_res <- $r9
	@DEBUG_VALUE: _lv_blend_map:disp_buf <- $r8
	@DEBUG_VALUE: _lv_blend_map:disp <- $r7
	@DEBUG_VALUE: _lv_blend_map:draw_buf <- $r5
	@DEBUG_VALUE: _lv_blend_map:disp_area <- [DW_OP_plus_uconst 16, DW_OP_stack_value] $r5
	@DEBUG_VALUE: _lv_blend_map:map_area <- $r4
	@DEBUG_VALUE: _lv_blend_map:mask <- $r2
	@DEBUG_VALUE: lv_area_get_width:area_p <- [DW_OP_plus_uconst 60, DW_OP_stack_value] $sp
	.loc	6 125 49 is_stmt 1              @ ../GUILib/src/draw/../core/../misc/lv_area.h:125:49
	sub.w	r1, r0, r11
	adds	r1, #1
	sxth	r6, r1
.Ltmp407:
	@DEBUG_VALUE: i <- 0
	@DEBUG_VALUE: mask_w <- $r6
	.loc	8 220 9                         @ ../GUILib/src/draw/lv_draw_blend.c:220:9
	cmp	r6, #1
	blt	.LBB1_10
.Ltmp408:
@ %bb.8:
	@DEBUG_VALUE: _lv_blend_map:map_buf <- $r10
	@DEBUG_VALUE: _lv_blend_map:mask_res <- $r9
	@DEBUG_VALUE: _lv_blend_map:disp_buf <- $r8
	@DEBUG_VALUE: _lv_blend_map:disp <- $r7
	@DEBUG_VALUE: mask_w <- $r6
	@DEBUG_VALUE: _lv_blend_map:draw_buf <- $r5
	@DEBUG_VALUE: _lv_blend_map:disp_area <- [DW_OP_plus_uconst 16, DW_OP_stack_value] $r5
	@DEBUG_VALUE: _lv_blend_map:map_area <- $r4
	@DEBUG_VALUE: _lv_blend_map:mask <- $r2
	@DEBUG_VALUE: lv_area_get_width:area_p <- [DW_OP_plus_uconst 60, DW_OP_stack_value] $sp
	@DEBUG_VALUE: i <- 0
	.loc	8 0 9 is_stmt 0                 @ ../GUILib/src/draw/lv_draw_blend.c:0:9
	mov	r1, r2
.Ltmp409:
	.p2align	2
.LBB1_9:                                @ =>This Inner Loop Header: Depth=1
	@DEBUG_VALUE: _lv_blend_map:map_buf <- $r10
	@DEBUG_VALUE: _lv_blend_map:mask_res <- $r9
	@DEBUG_VALUE: _lv_blend_map:disp_buf <- $r8
	@DEBUG_VALUE: _lv_blend_map:disp <- $r7
	@DEBUG_VALUE: _lv_blend_map:draw_buf <- $r5
	@DEBUG_VALUE: _lv_blend_map:disp_area <- [DW_OP_plus_uconst 16, DW_OP_stack_value] $r5
	@DEBUG_VALUE: _lv_blend_map:map_area <- $r4
	@DEBUG_VALUE: i <- undef
	.loc	8 220 48                        @ ../GUILib/src/draw/lv_draw_blend.c:220:48
	ldrb	r2, [r1]
.Ltmp410:
	@DEBUG_VALUE: _lv_blend_map:mask <- [DW_OP_LLVM_entry_value 1] $r3
	cmp	r2, #128
	mov.w	r2, #0
	it	hi
	movhi.w	r2, #-1
	.loc	8 220 22                        @ ../GUILib/src/draw/lv_draw_blend.c:220:22
	subs	r6, #1
	.loc	8 220 46                        @ ../GUILib/src/draw/lv_draw_blend.c:220:46
	strb	r2, [r1], #1
.Ltmp411:
	@DEBUG_VALUE: i <- [DW_OP_plus_uconst 1, DW_OP_stack_value] undef
	.loc	8 220 9                         @ ../GUILib/src/draw/lv_draw_blend.c:220:9
	bne	.LBB1_9
.Ltmp412:
.LBB1_10:
	@DEBUG_VALUE: _lv_blend_map:map_buf <- $r10
	@DEBUG_VALUE: _lv_blend_map:mask_res <- $r9
	@DEBUG_VALUE: _lv_blend_map:disp_buf <- $r8
	@DEBUG_VALUE: _lv_blend_map:disp <- $r7
	@DEBUG_VALUE: _lv_blend_map:draw_buf <- $r5
	@DEBUG_VALUE: _lv_blend_map:disp_area <- [DW_OP_plus_uconst 16, DW_OP_stack_value] $r5
	@DEBUG_VALUE: _lv_blend_map:map_area <- $r4
	@DEBUG_VALUE: _lv_blend_map:mode <- undef
	.loc	8 222 14 is_stmt 1              @ ../GUILib/src/draw/lv_draw_blend.c:222:14
	ldr	r1, [r7]
	str.w	r8, [sp, #52]                   @ 4-byte Spill
	.loc	8 222 22 is_stmt 0              @ ../GUILib/src/draw/lv_draw_blend.c:222:22
	ldr	r1, [r1, #28]
.Ltmp413:
	.loc	8 222 8                         @ ../GUILib/src/draw/lv_draw_blend.c:222:8
	cmp	r1, #0
	beq	.LBB1_20
.Ltmp414:
@ %bb.11:
	@DEBUG_VALUE: _lv_blend_map:map_buf <- $r10
	@DEBUG_VALUE: _lv_blend_map:mask_res <- $r9
	@DEBUG_VALUE: _lv_blend_map:disp_buf <- $r8
	@DEBUG_VALUE: _lv_blend_map:disp <- $r7
	@DEBUG_VALUE: _lv_blend_map:draw_buf <- $r5
	@DEBUG_VALUE: _lv_blend_map:disp_area <- [DW_OP_plus_uconst 16, DW_OP_stack_value] $r5
	@DEBUG_VALUE: _lv_blend_map:map_area <- $r4
	@DEBUG_VALUE: map_set_px:disp_area <- [DW_OP_plus_uconst 16, DW_OP_stack_value] $r5
	@DEBUG_VALUE: map_set_px:disp_buf <- [DW_OP_plus_uconst 52] [$sp+0]
	@DEBUG_VALUE: map_set_px:draw_area <- [DW_OP_plus_uconst 60, DW_OP_stack_value] $sp
	@DEBUG_VALUE: map_set_px:map_area <- $r4
	@DEBUG_VALUE: map_set_px:map_buf <- $r10
	@DEBUG_VALUE: map_set_px:opa <- undef
	@DEBUG_VALUE: map_set_px:mask <- [DW_OP_plus_uconst 44] [$sp+0]
	@DEBUG_VALUE: map_set_px:mask_res <- $r9
	.loc	8 590 24 is_stmt 1              @ ../GUILib/src/draw/lv_draw_blend.c:590:24
	bl	_lv_refr_get_disp_refreshing
.Ltmp415:
	.loc	6 125 33                        @ ../GUILib/src/draw/../core/../misc/lv_area.h:125:33
	ldrh	r1, [r4, #4]
.Ltmp416:
	.loc	8 604 38                        @ ../GUILib/src/draw/lv_draw_blend.c:604:38
	ldrsh.w	r3, [r4]
	.loc	8 602 84                        @ ../GUILib/src/draw/lv_draw_blend.c:602:84
	ldrsh.w	r7, [r4, #2]
.Ltmp417:
	.loc	8 602 68 is_stmt 0              @ ../GUILib/src/draw/lv_draw_blend.c:602:68
	ldrsh.w	r11, [sp, #62]
	.loc	8 602 100                       @ ../GUILib/src/draw/lv_draw_blend.c:602:100
	ldrsh.w	lr, [r5, #18]
.Ltmp418:
	.loc	6 125 49 is_stmt 1              @ ../GUILib/src/draw/../core/../misc/lv_area.h:125:49
	subs	r1, r1, r3
.Ltmp419:
	.loc	8 590 24                        @ ../GUILib/src/draw/lv_draw_blend.c:590:24
	str	r0, [sp, #48]                   @ 4-byte Spill
.Ltmp420:
	@DEBUG_VALUE: lv_area_get_width:area_p <- [DW_OP_plus_uconst 16, DW_OP_stack_value] $r5
	@DEBUG_VALUE: map_set_px:disp <- [DW_OP_plus_uconst 48] [$sp+0]
	.loc	6 125 33                        @ ../GUILib/src/draw/../core/../misc/lv_area.h:125:33
	ldrh	r0, [r5, #20]
.Ltmp421:
	.loc	8 604 53                        @ ../GUILib/src/draw/lv_draw_blend.c:604:53
	ldrsh.w	r6, [r5, #16]
.Ltmp422:
	.loc	6 125 46                        @ ../GUILib/src/draw/../core/../misc/lv_area.h:125:46
	ldrh.w	r2, [sp, #60]
.Ltmp423:
	@DEBUG_VALUE: lv_area_get_width:area_p <- $r4
	@DEBUG_VALUE: map_set_px:draw_area_w <- undef
	.loc	6 125 49 is_stmt 0              @ ../GUILib/src/draw/../core/../misc/lv_area.h:125:49
	adds	r1, #1
.Ltmp424:
	.loc	8 602 87 is_stmt 1              @ ../GUILib/src/draw/lv_draw_blend.c:602:87
	sub.w	r7, r11, r7
	.loc	8 599 21                        @ ../GUILib/src/draw/lv_draw_blend.c:599:21
	sxth.w	r12, r1
.Ltmp425:
	@DEBUG_VALUE: map_set_px:map_w <- $r12
	.loc	8 602 71                        @ ../GUILib/src/draw/lv_draw_blend.c:602:71
	add	r7, lr
.Ltmp426:
	.loc	6 125 49                        @ ../GUILib/src/draw/../core/../misc/lv_area.h:125:49
	subs	r0, r0, r6
.Ltmp427:
	.loc	8 602 54                        @ ../GUILib/src/draw/lv_draw_blend.c:602:54
	mul	r7, r7, r12
	.loc	8 604 51                        @ ../GUILib/src/draw/lv_draw_blend.c:604:51
	sxtah	r6, r6, r2
	.loc	8 602 46                        @ ../GUILib/src/draw/lv_draw_blend.c:602:46
	add.w	r7, r10, r7, lsl #1
.Ltmp428:
	@DEBUG_VALUE: map_set_px:map_buf_tmp <- $r7
	.loc	8 604 35                        @ ../GUILib/src/draw/lv_draw_blend.c:604:35
	subs	r3, r6, r3
.Ltmp429:
	.loc	6 125 49                        @ ../GUILib/src/draw/../core/../misc/lv_area.h:125:49
	add.w	r8, r0, #1
.Ltmp430:
	@DEBUG_VALUE: lv_area_get_width:area_p <- [DW_OP_plus_uconst 60, DW_OP_stack_value] $sp
	@DEBUG_VALUE: map_set_px:disp_w <- [DW_OP_LLVM_convert 16 5, DW_OP_LLVM_convert 32 5, DW_OP_stack_value] $r8
	.loc	6 125 33 is_stmt 0              @ ../GUILib/src/draw/../core/../misc/lv_area.h:125:33
	ldrh.w	r0, [sp, #64]
.Ltmp431:
	.loc	8 0 0                           @ ../GUILib/src/draw/lv_draw_blend.c:0:0
	ldrsh.w	r1, [sp, #66]
.Ltmp432:
	.loc	8 604 21 is_stmt 1              @ ../GUILib/src/draw/lv_draw_blend.c:604:21
	sxth.w	lr, r2
	.loc	8 604 17 is_stmt 0              @ ../GUILib/src/draw/lv_draw_blend.c:604:17
	add.w	r3, r7, r3, lsl #1
.Ltmp433:
	@DEBUG_VALUE: map_set_px:map_buf_tmp <- $r3
	.loc	8 609 8 is_stmt 1               @ ../GUILib/src/draw/lv_draw_blend.c:609:8
	cmp.w	r9, #1
	.loc	8 605 17                        @ ../GUILib/src/draw/lv_draw_blend.c:605:17
	sub.w	r6, r3, lr, lsl #1
.Ltmp434:
	@DEBUG_VALUE: map_set_px:map_buf_tmp <- $r6
	.loc	8 609 8                         @ ../GUILib/src/draw/lv_draw_blend.c:609:8
	bne.w	.LBB1_32
.Ltmp435:
@ %bb.12:
	@DEBUG_VALUE: map_set_px:map_w <- $r12
	@DEBUG_VALUE: map_set_px:map_buf <- $r10
	@DEBUG_VALUE: _lv_blend_map:map_buf <- $r10
	@DEBUG_VALUE: map_set_px:mask_res <- $r9
	@DEBUG_VALUE: _lv_blend_map:mask_res <- $r9
	@DEBUG_VALUE: map_set_px:disp_w <- [DW_OP_LLVM_convert 16 5, DW_OP_LLVM_convert 32 5, DW_OP_stack_value] $r8
	@DEBUG_VALUE: map_set_px:map_buf_tmp <- $r6
	@DEBUG_VALUE: map_set_px:disp_area <- [DW_OP_plus_uconst 16, DW_OP_stack_value] $r5
	@DEBUG_VALUE: _lv_blend_map:draw_buf <- $r5
	@DEBUG_VALUE: _lv_blend_map:disp_area <- [DW_OP_plus_uconst 16, DW_OP_stack_value] $r5
	@DEBUG_VALUE: map_set_px:map_area <- $r4
	@DEBUG_VALUE: _lv_blend_map:map_area <- $r4
	@DEBUG_VALUE: map_set_px:disp <- [DW_OP_plus_uconst 48] [$sp+0]
	@DEBUG_VALUE: map_set_px:mask <- [DW_OP_plus_uconst 44] [$sp+0]
	@DEBUG_VALUE: map_set_px:draw_area <- [DW_OP_plus_uconst 60, DW_OP_stack_value] $sp
	@DEBUG_VALUE: map_set_px:disp_buf <- [DW_OP_plus_uconst 52] [$sp+0]
	@DEBUG_VALUE: map_set_px:map_buf_tmp <- $r6
	@DEBUG_VALUE: map_set_px:y <- $r11
	.loc	8 610 9                         @ ../GUILib/src/draw/lv_draw_blend.c:610:9
	cmp	r11, r1
	bgt.w	.LBB1_33
.Ltmp436:
@ %bb.13:
	@DEBUG_VALUE: map_set_px:map_w <- $r12
	@DEBUG_VALUE: map_set_px:y <- $r11
	@DEBUG_VALUE: map_set_px:map_buf <- $r10
	@DEBUG_VALUE: _lv_blend_map:map_buf <- $r10
	@DEBUG_VALUE: map_set_px:mask_res <- $r9
	@DEBUG_VALUE: _lv_blend_map:mask_res <- $r9
	@DEBUG_VALUE: map_set_px:disp_w <- [DW_OP_LLVM_convert 16 5, DW_OP_LLVM_convert 32 5, DW_OP_stack_value] $r8
	@DEBUG_VALUE: map_set_px:map_buf_tmp <- $r6
	@DEBUG_VALUE: map_set_px:disp_area <- [DW_OP_plus_uconst 16, DW_OP_stack_value] $r5
	@DEBUG_VALUE: _lv_blend_map:draw_buf <- $r5
	@DEBUG_VALUE: _lv_blend_map:disp_area <- [DW_OP_plus_uconst 16, DW_OP_stack_value] $r5
	@DEBUG_VALUE: map_set_px:map_area <- $r4
	@DEBUG_VALUE: _lv_blend_map:map_area <- $r4
	@DEBUG_VALUE: map_set_px:disp <- [DW_OP_plus_uconst 48] [$sp+0]
	@DEBUG_VALUE: map_set_px:mask <- [DW_OP_plus_uconst 44] [$sp+0]
	@DEBUG_VALUE: map_set_px:draw_area <- [DW_OP_plus_uconst 60, DW_OP_stack_value] $sp
	@DEBUG_VALUE: map_set_px:disp_buf <- [DW_OP_plus_uconst 52] [$sp+0]
	lsl.w	r3, r12, #1
	movw	r4, #65535
.Ltmp437:
	@DEBUG_VALUE: _lv_blend_map:map_area <- [DW_OP_LLVM_entry_value 1] $r1
	.loc	8 0 9 is_stmt 0                 @ ../GUILib/src/draw/lv_draw_blend.c:0:9
	str	r3, [sp, #44]                   @ 4-byte Spill
                                        @ implicit-def: $r7
.Ltmp438:
	.p2align	2
.LBB1_14:                               @ =>This Loop Header: Depth=1
                                        @     Child Loop BB1_16 Depth 2
	@DEBUG_VALUE: map_set_px:y <- $r11
	@DEBUG_VALUE: map_set_px:disp_w <- [DW_OP_LLVM_convert 16 5, DW_OP_LLVM_convert 32 5, DW_OP_stack_value] $r8
	@DEBUG_VALUE: map_set_px:disp <- [DW_OP_plus_uconst 48] [$sp+0]
	@DEBUG_VALUE: map_set_px:mask <- [DW_OP_plus_uconst 44] [$sp+0]
	@DEBUG_VALUE: map_set_px:draw_area <- [DW_OP_plus_uconst 60, DW_OP_stack_value] $sp
	@DEBUG_VALUE: map_set_px:disp_buf <- [DW_OP_plus_uconst 52] [$sp+0]
	@DEBUG_VALUE: _lv_blend_map:map_area <- [DW_OP_LLVM_entry_value 1] $r1
	@DEBUG_VALUE: map_set_px:map_buf_tmp <- $r6
	@DEBUG_VALUE: map_set_px:y <- $r11
	@DEBUG_VALUE: map_set_px:x <- [DW_OP_LLVM_convert 16 5, DW_OP_LLVM_convert 32 5, DW_OP_stack_value] $r2
	.loc	8 611 38 is_stmt 1              @ ../GUILib/src/draw/lv_draw_blend.c:611:38
	sxth	r3, r0
	sxth.w	r9, r2
.Ltmp439:
	.loc	8 611 13 is_stmt 0              @ ../GUILib/src/draw/lv_draw_blend.c:611:13
	cmp	r9, r3
	bgt	.LBB1_18
.Ltmp440:
@ %bb.15:                               @   in Loop: Header=BB1_14 Depth=1
	@DEBUG_VALUE: map_set_px:y <- $r11
	@DEBUG_VALUE: map_set_px:disp_w <- [DW_OP_LLVM_convert 16 5, DW_OP_LLVM_convert 32 5, DW_OP_stack_value] $r8
	@DEBUG_VALUE: map_set_px:map_buf_tmp <- $r6
	@DEBUG_VALUE: map_set_px:x <- [DW_OP_LLVM_convert 16 5, DW_OP_LLVM_convert 32 5, DW_OP_stack_value] $r2
	@DEBUG_VALUE: map_set_px:disp <- [DW_OP_plus_uconst 48] [$sp+0]
	@DEBUG_VALUE: map_set_px:mask <- [DW_OP_plus_uconst 44] [$sp+0]
	@DEBUG_VALUE: map_set_px:draw_area <- [DW_OP_plus_uconst 60, DW_OP_stack_value] $sp
	@DEBUG_VALUE: map_set_px:disp_buf <- [DW_OP_plus_uconst 52] [$sp+0]
	@DEBUG_VALUE: _lv_blend_map:map_area <- [DW_OP_LLVM_entry_value 1] $r1
	@DEBUG_VALUE: map_set_px:x <- $r9
	.loc	8 0 13                          @ ../GUILib/src/draw/lv_draw_blend.c:0:13
	mov	r10, r11
.Ltmp441:
	@DEBUG_VALUE: map_set_px:y <- $r10
	@DEBUG_VALUE: map_set_px:y <- $r10
	@DEBUG_VALUE: _lv_blend_map:map_buf <- [DW_OP_LLVM_entry_value 1] $r2
	str	r6, [sp, #56]                   @ 4-byte Spill
.Ltmp442:
	@DEBUG_VALUE: map_set_px:map_buf_tmp <- [DW_OP_plus_uconst 56] [$sp+0]
	@DEBUG_VALUE: map_set_px:map_buf_tmp <- [DW_OP_plus_uconst 56] [$sp+0]
	mov	r6, r8
.Ltmp443:
	@DEBUG_VALUE: map_set_px:disp_w <- [DW_OP_LLVM_convert 16 5, DW_OP_LLVM_convert 32 5, DW_OP_stack_value] $r6
	@DEBUG_VALUE: map_set_px:disp_w <- [DW_OP_LLVM_convert 16 5, DW_OP_LLVM_convert 32 5, DW_OP_stack_value] $r6
	ldrd	r8, r11, [sp, #48]              @ 8-byte Folded Reload
.Ltmp444:
	.p2align	2
.LBB1_16:                               @   Parent Loop BB1_14 Depth=1
                                        @ =>  This Inner Loop Header: Depth=2
	@DEBUG_VALUE: map_set_px:y <- $r10
	@DEBUG_VALUE: map_set_px:x <- $r9
	@DEBUG_VALUE: map_set_px:disp_w <- [DW_OP_LLVM_convert 16 5, DW_OP_LLVM_convert 32 5, DW_OP_stack_value] $r6
	@DEBUG_VALUE: map_set_px:disp <- [DW_OP_plus_uconst 48] [$sp+0]
	@DEBUG_VALUE: map_set_px:mask <- [DW_OP_plus_uconst 44] [$sp+0]
	@DEBUG_VALUE: map_set_px:draw_area <- [DW_OP_plus_uconst 60, DW_OP_stack_value] $sp
	@DEBUG_VALUE: map_set_px:disp_buf <- [DW_OP_plus_uconst 52] [$sp+0]
	@DEBUG_VALUE: _lv_blend_map:map_area <- [DW_OP_LLVM_entry_value 1] $r1
	@DEBUG_VALUE: map_set_px:x <- $r9
	.loc	8 612 17 is_stmt 1              @ ../GUILib/src/draw/lv_draw_blend.c:612:17
	ldr	r1, [sp, #56]                   @ 4-byte Reload
.Ltmp445:
	@DEBUG_VALUE: map_set_px:map_buf_tmp <- $r1
	.loc	8 612 23 is_stmt 0              @ ../GUILib/src/draw/lv_draw_blend.c:612:23
	ldr.w	r0, [r8]
	.loc	8 612 17                        @ ../GUILib/src/draw/lv_draw_blend.c:612:17
	ldrh.w	r1, [r1, r9, lsl #1]
.Ltmp446:
	bic.w	r2, r7, r4
	.loc	8 612 31                        @ ../GUILib/src/draw/lv_draw_blend.c:612:31
	ldr	r5, [r0, #28]
	.loc	8 612 17                        @ ../GUILib/src/draw/lv_draw_blend.c:612:17
	adds	r7, r2, r1
	sxth.w	r1, r10
	ldr	r4, [sp, #108]
	strd	r1, r7, [sp]
	sxth	r2, r6
	sxth.w	r3, r9
	mov	r1, r11
	str	r4, [sp, #8]
	blx	r5
.Ltmp447:
	.loc	8 611 41 is_stmt 1              @ ../GUILib/src/draw/lv_draw_blend.c:611:41
	ldrsh.w	r0, [sp, #64]
	movw	r4, #65535
.Ltmp448:
	.loc	8 611 13 is_stmt 0              @ ../GUILib/src/draw/lv_draw_blend.c:611:13
	cmp	r9, r0
.Ltmp449:
	.loc	8 611 57                        @ ../GUILib/src/draw/lv_draw_blend.c:611:57
	add.w	r9, r9, #1
.Ltmp450:
	@DEBUG_VALUE: map_set_px:x <- $r9
	@DEBUG_VALUE: map_set_px:x <- $r9
	.loc	8 611 13                        @ ../GUILib/src/draw/lv_draw_blend.c:611:13
	blt	.LBB1_16
.Ltmp451:
@ %bb.17:                               @   in Loop: Header=BB1_14 Depth=1
	@DEBUG_VALUE: map_set_px:y <- $r10
	@DEBUG_VALUE: map_set_px:x <- $r9
	@DEBUG_VALUE: map_set_px:disp_w <- [DW_OP_LLVM_convert 16 5, DW_OP_LLVM_convert 32 5, DW_OP_stack_value] $r6
	@DEBUG_VALUE: map_set_px:disp <- [DW_OP_plus_uconst 48] [$sp+0]
	@DEBUG_VALUE: map_set_px:mask <- [DW_OP_plus_uconst 44] [$sp+0]
	@DEBUG_VALUE: map_set_px:draw_area <- [DW_OP_plus_uconst 60, DW_OP_stack_value] $sp
	@DEBUG_VALUE: map_set_px:disp_buf <- [DW_OP_plus_uconst 52] [$sp+0]
	@DEBUG_VALUE: _lv_blend_map:map_area <- [DW_OP_LLVM_entry_value 1] $r1
	.loc	8 610 48 is_stmt 1              @ ../GUILib/src/draw/lv_draw_blend.c:610:48
	ldrh.w	r1, [sp, #66]
	mov	r8, r6
.Ltmp452:
	@DEBUG_VALUE: map_set_px:disp_w <- [DW_OP_LLVM_convert 16 5, DW_OP_LLVM_convert 32 5, DW_OP_stack_value] $r8
	@DEBUG_VALUE: map_set_px:disp_w <- [DW_OP_LLVM_convert 16 5, DW_OP_LLVM_convert 32 5, DW_OP_stack_value] $r8
	.loc	8 0 48 is_stmt 0                @ ../GUILib/src/draw/lv_draw_blend.c:0:48
	ldr	r6, [sp, #56]                   @ 4-byte Reload
	uxth	r0, r0
	mov	r11, r10
.Ltmp453:
	@DEBUG_VALUE: map_set_px:y <- $r11
	@DEBUG_VALUE: map_set_px:y <- $r11
.LBB1_18:                               @   in Loop: Header=BB1_14 Depth=1
	@DEBUG_VALUE: map_set_px:y <- $r11
	@DEBUG_VALUE: map_set_px:disp_w <- [DW_OP_LLVM_convert 16 5, DW_OP_LLVM_convert 32 5, DW_OP_stack_value] $r8
	@DEBUG_VALUE: map_set_px:disp <- [DW_OP_plus_uconst 48] [$sp+0]
	@DEBUG_VALUE: map_set_px:mask <- [DW_OP_plus_uconst 44] [$sp+0]
	@DEBUG_VALUE: map_set_px:draw_area <- [DW_OP_plus_uconst 60, DW_OP_stack_value] $sp
	@DEBUG_VALUE: map_set_px:disp_buf <- [DW_OP_plus_uconst 52] [$sp+0]
	@DEBUG_VALUE: _lv_blend_map:map_area <- [DW_OP_LLVM_entry_value 1] $r1
	@DEBUG_VALUE: map_set_px:map_buf_tmp <- undef
	@DEBUG_VALUE: map_set_px:y <- [DW_OP_plus_uconst 1, DW_OP_stack_value] $r11
	.loc	8 610 37                        @ ../GUILib/src/draw/lv_draw_blend.c:610:37
	sxth	r2, r1
.Ltmp454:
	.loc	8 610 9                         @ ../GUILib/src/draw/lv_draw_blend.c:610:9
	cmp	r11, r2
	bge.w	.LBB1_33
.Ltmp455:
@ %bb.19:                               @   in Loop: Header=BB1_14 Depth=1
	@DEBUG_VALUE: map_set_px:y <- [DW_OP_plus_uconst 1, DW_OP_stack_value] $r11
	@DEBUG_VALUE: map_set_px:disp_w <- [DW_OP_LLVM_convert 16 5, DW_OP_LLVM_convert 32 5, DW_OP_stack_value] $r8
	@DEBUG_VALUE: map_set_px:disp <- [DW_OP_plus_uconst 48] [$sp+0]
	@DEBUG_VALUE: map_set_px:mask <- [DW_OP_plus_uconst 44] [$sp+0]
	@DEBUG_VALUE: map_set_px:draw_area <- [DW_OP_plus_uconst 60, DW_OP_stack_value] $sp
	@DEBUG_VALUE: map_set_px:disp_buf <- [DW_OP_plus_uconst 52] [$sp+0]
	@DEBUG_VALUE: _lv_blend_map:map_area <- [DW_OP_LLVM_entry_value 1] $r1
	ldr	r3, [sp, #44]                   @ 4-byte Reload
.Ltmp456:
	.loc	8 611 32 is_stmt 1              @ ../GUILib/src/draw/lv_draw_blend.c:611:32
	ldrh.w	r2, [sp, #60]
.Ltmp457:
	.loc	8 610 53                        @ ../GUILib/src/draw/lv_draw_blend.c:610:53
	add.w	r11, r11, #1
.Ltmp458:
	@DEBUG_VALUE: map_set_px:y <- $r11
	@DEBUG_VALUE: map_set_px:map_buf_tmp <- undef
	.loc	8 610 9 is_stmt 0               @ ../GUILib/src/draw/lv_draw_blend.c:610:9
	add	r6, r3
	b	.LBB1_14
.Ltmp459:
.LBB1_20:
	@DEBUG_VALUE: _lv_blend_map:map_buf <- $r10
	@DEBUG_VALUE: _lv_blend_map:mask_res <- $r9
	@DEBUG_VALUE: _lv_blend_map:disp_buf <- $r8
	@DEBUG_VALUE: _lv_blend_map:disp <- $r7
	@DEBUG_VALUE: _lv_blend_map:draw_buf <- $r5
	@DEBUG_VALUE: _lv_blend_map:disp_area <- [DW_OP_plus_uconst 16, DW_OP_stack_value] $r5
	@DEBUG_VALUE: _lv_blend_map:map_area <- $r4
	.loc	8 0 9                           @ ../GUILib/src/draw/lv_draw_blend.c:0:9
	sxth.w	lr, r3
.Ltmp460:
	ldrh	r7, [r5, #20]
.Ltmp461:
	.loc	8 925 57 is_stmt 1              @ ../GUILib/src/draw/lv_draw_blend.c:925:57
	ldrsh.w	r3, [r5, #16]
	ldr	r1, [sp, #112]
.Ltmp462:
	@DEBUG_VALUE: _lv_blend_map:mode <- $r1
	.loc	8 0 0 is_stmt 0                 @ ../GUILib/src/draw/lv_draw_blend.c:0:0
	subs	r7, r7, r3
	sub.w	r6, r0, r11
	adds	r7, #1
	adds	r6, #1
	sxth.w	r2, r12
	sxth	r7, r7
.Ltmp463:
	.loc	8 225 13 is_stmt 1              @ ../GUILib/src/draw/lv_draw_blend.c:225:13
	cmp	r1, #0
.Ltmp464:
	.loc	8 0 0 is_stmt 0                 @ ../GUILib/src/draw/lv_draw_blend.c:0:0
	sxth.w	r12, r6
	str.w	r12, [sp, #48]                  @ 4-byte Spill
.Ltmp465:
	.loc	8 225 13                        @ ../GUILib/src/draw/lv_draw_blend.c:225:13
	beq.w	.LBB1_42
.Ltmp466:
@ %bb.21:
	@DEBUG_VALUE: _lv_blend_map:map_buf <- $r10
	@DEBUG_VALUE: _lv_blend_map:mask_res <- $r9
	@DEBUG_VALUE: _lv_blend_map:disp_buf <- $r8
	@DEBUG_VALUE: _lv_blend_map:draw_buf <- $r5
	@DEBUG_VALUE: _lv_blend_map:disp_area <- [DW_OP_plus_uconst 16, DW_OP_stack_value] $r5
	@DEBUG_VALUE: _lv_blend_map:map_area <- $r4
	@DEBUG_VALUE: _lv_blend_map:mode <- $r1
	@DEBUG_VALUE: map_blended:disp_area <- [DW_OP_plus_uconst 16, DW_OP_stack_value] $r5
	@DEBUG_VALUE: map_blended:disp_buf <- [DW_OP_plus_uconst 52] [$sp+0]
	@DEBUG_VALUE: map_blended:draw_area <- [DW_OP_plus_uconst 60, DW_OP_stack_value] $sp
	@DEBUG_VALUE: map_blended:map_area <- $r4
	@DEBUG_VALUE: map_blended:map_buf <- $r10
	@DEBUG_VALUE: map_blended:opa <- undef
	@DEBUG_VALUE: map_blended:mask <- [DW_OP_plus_uconst 44] [$sp+0]
	@DEBUG_VALUE: map_blended:mask_res <- $r9
	@DEBUG_VALUE: map_blended:mode <- $r1
	@DEBUG_VALUE: lv_area_get_width:area_p <- [DW_OP_plus_uconst 16, DW_OP_stack_value] $r5
	@DEBUG_VALUE: map_blended:disp_w <- $r7
	@DEBUG_VALUE: lv_area_get_width:area_p <- [DW_OP_plus_uconst 60, DW_OP_stack_value] $sp
	@DEBUG_VALUE: map_blended:draw_area_w <- [DW_OP_plus_uconst 48] [$sp+0]
	@DEBUG_VALUE: lv_area_get_width:area_p <- $r4
	@DEBUG_VALUE: map_blended:map_w <- undef
	@DEBUG_VALUE: map_blended:disp_buf_tmp <- undef
	@DEBUG_VALUE: map_blended:map_buf_tmp <- undef
	@DEBUG_VALUE: map_blended:disp_w <- [DW_OP_plus_uconst 36] [$sp+0]
	.loc	8 904 5 is_stmt 1               @ ../GUILib/src/draw/lv_draw_blend.c:904:5
	subs	r6, r1, #1
	uxtb	r1, r6
.Ltmp467:
	cmp	r1, #2
	strd	r7, r11, [sp, #36]              @ 8-byte Folded Spill
	bhi	.LBB1_33
.Ltmp468:
@ %bb.22:
	@DEBUG_VALUE: map_blended:map_buf <- $r10
	@DEBUG_VALUE: _lv_blend_map:map_buf <- $r10
	@DEBUG_VALUE: map_blended:mask_res <- $r9
	@DEBUG_VALUE: _lv_blend_map:mask_res <- $r9
	@DEBUG_VALUE: _lv_blend_map:disp_buf <- $r8
	@DEBUG_VALUE: map_blended:disp_area <- [DW_OP_plus_uconst 16, DW_OP_stack_value] $r5
	@DEBUG_VALUE: _lv_blend_map:draw_buf <- $r5
	@DEBUG_VALUE: _lv_blend_map:disp_area <- [DW_OP_plus_uconst 16, DW_OP_stack_value] $r5
	@DEBUG_VALUE: map_blended:map_area <- $r4
	@DEBUG_VALUE: _lv_blend_map:map_area <- $r4
	@DEBUG_VALUE: map_blended:disp_w <- [DW_OP_plus_uconst 36] [$sp+0]
	@DEBUG_VALUE: map_blended:draw_area_w <- [DW_OP_plus_uconst 48] [$sp+0]
	@DEBUG_VALUE: map_blended:mask <- [DW_OP_plus_uconst 44] [$sp+0]
	@DEBUG_VALUE: map_blended:draw_area <- [DW_OP_plus_uconst 60, DW_OP_stack_value] $sp
	@DEBUG_VALUE: map_blended:disp_buf <- [DW_OP_plus_uconst 52] [$sp+0]
	.loc	8 0 0 is_stmt 0                 @ ../GUILib/src/draw/lv_draw_blend.c:0:0
	str	r2, [sp, #56]                   @ 4-byte Spill
	ldrh	r1, [r4, #4]
	mov	r2, r9
	ldrsh.w	r9, [r4]
.Ltmp469:
	ldr	r7, [sp, #36]                   @ 4-byte Reload
	sub.w	r1, r1, r9
	adds	r1, #1
	sxth.w	r11, r1
.Ltmp470:
	@DEBUG_VALUE: map_blended:map_w <- $r11
	ldr	r1, [sp, #56]                   @ 4-byte Reload
	ldrsh.w	r4, [r4, #2]
.Ltmp471:
	@DEBUG_VALUE: _lv_blend_map:map_area <- [DW_OP_LLVM_entry_value 1] $r1
	muls	r7, r1, r7
	ldr	r1, [sp, #52]                   @ 4-byte Reload
	ldrsh.w	r5, [r5, #18]
.Ltmp472:
	add.w	r7, r1, r7, lsl #1
.Ltmp473:
	@DEBUG_VALUE: map_blended:disp_buf_tmp <- $r7
	ldr	r1, [sp, #56]                   @ 4-byte Reload
	.loc	8 923 8 is_stmt 1               @ ../GUILib/src/draw/lv_draw_blend.c:923:8
	cmp	r2, #1
	.loc	8 0 0 is_stmt 0                 @ ../GUILib/src/draw/lv_draw_blend.c:0:0
	sub.w	r4, r1, r4
	add	r4, r5
	.loc	8 904 5 is_stmt 1               @ ../GUILib/src/draw/lv_draw_blend.c:904:5
	sxtb	r5, r6
	movw	r6, :lower16:.Lswitch.table._lv_blend_map
	movt	r6, :upper16:.Lswitch.table._lv_blend_map
.Ltmp474:
	.loc	8 0 0 is_stmt 0                 @ ../GUILib/src/draw/lv_draw_blend.c:0:0
	ldr	r2, [sp, #40]                   @ 4-byte Reload
.Ltmp475:
	mul	r4, r4, r11
	.loc	8 904 5                         @ ../GUILib/src/draw/lv_draw_blend.c:904:5
	ldr.w	r8, [r6, r5, lsl #2]
.Ltmp476:
	@DEBUG_VALUE: map_blended:blend_fp <- $r8
	.loc	8 0 0                           @ ../GUILib/src/draw/lv_draw_blend.c:0:0
	add.w	r4, r10, r4, lsl #1
.Ltmp477:
	@DEBUG_VALUE: map_blended:map_buf_tmp <- $r4
	sxth	r5, r2
.Ltmp478:
	.loc	8 923 8 is_stmt 1               @ ../GUILib/src/draw/lv_draw_blend.c:923:8
	bne.w	.LBB1_96
.Ltmp479:
@ %bb.23:
	@DEBUG_VALUE: map_blended:map_w <- $r11
	@DEBUG_VALUE: map_blended:map_buf <- $r10
	@DEBUG_VALUE: _lv_blend_map:map_buf <- $r10
	@DEBUG_VALUE: map_blended:blend_fp <- $r8
	@DEBUG_VALUE: map_blended:disp_buf_tmp <- $r7
	@DEBUG_VALUE: map_blended:map_buf_tmp <- $r4
	@DEBUG_VALUE: map_blended:disp_w <- [DW_OP_plus_uconst 36] [$sp+0]
	@DEBUG_VALUE: map_blended:draw_area_w <- [DW_OP_plus_uconst 48] [$sp+0]
	@DEBUG_VALUE: map_blended:mask <- [DW_OP_plus_uconst 44] [$sp+0]
	@DEBUG_VALUE: map_blended:draw_area <- [DW_OP_plus_uconst 60, DW_OP_stack_value] $sp
	@DEBUG_VALUE: map_blended:disp_buf <- [DW_OP_plus_uconst 52] [$sp+0]
	@DEBUG_VALUE: _lv_blend_map:map_area <- [DW_OP_LLVM_entry_value 1] $r1
	@DEBUG_VALUE: map_blended:disp_buf_tmp <- $r7
	@DEBUG_VALUE: map_blended:map_buf_tmp <- undef
	@DEBUG_VALUE: map_blended:y <- [DW_OP_plus_uconst 56] [$sp+0]
	.loc	8 930 9                         @ ../GUILib/src/draw/lv_draw_blend.c:930:9
	cmp	r1, lr
	bgt	.LBB1_33
.Ltmp480:
@ %bb.24:
	@DEBUG_VALUE: map_blended:map_w <- $r11
	@DEBUG_VALUE: map_blended:map_buf <- $r10
	@DEBUG_VALUE: _lv_blend_map:map_buf <- $r10
	@DEBUG_VALUE: map_blended:blend_fp <- $r8
	@DEBUG_VALUE: map_blended:disp_buf_tmp <- $r7
	@DEBUG_VALUE: map_blended:y <- [DW_OP_plus_uconst 56] [$sp+0]
	@DEBUG_VALUE: map_blended:disp_w <- [DW_OP_plus_uconst 36] [$sp+0]
	@DEBUG_VALUE: map_blended:draw_area_w <- [DW_OP_plus_uconst 48] [$sp+0]
	@DEBUG_VALUE: map_blended:mask <- [DW_OP_plus_uconst 44] [$sp+0]
	@DEBUG_VALUE: map_blended:draw_area <- [DW_OP_plus_uconst 60, DW_OP_stack_value] $sp
	@DEBUG_VALUE: map_blended:disp_buf <- [DW_OP_plus_uconst 52] [$sp+0]
	@DEBUG_VALUE: _lv_blend_map:map_area <- [DW_OP_LLVM_entry_value 1] $r1
	.loc	8 925 55                        @ ../GUILib/src/draw/lv_draw_blend.c:925:55
	add	r3, r5
.Ltmp481:
	.loc	8 930 9                         @ ../GUILib/src/draw/lv_draw_blend.c:930:9
	ldr	r1, [sp, #36]                   @ 4-byte Reload
.Ltmp482:
	.loc	8 925 39                        @ ../GUILib/src/draw/lv_draw_blend.c:925:39
	sub.w	r3, r3, r9
	.loc	8 925 21 is_stmt 0              @ ../GUILib/src/draw/lv_draw_blend.c:925:21
	add.w	r3, r4, r3, lsl #1
.Ltmp483:
	@DEBUG_VALUE: map_blended:map_buf_tmp <- $r3
	.loc	8 930 9 is_stmt 1               @ ../GUILib/src/draw/lv_draw_blend.c:930:9
	lsls	r1, r1, #1
	ldr	r2, [sp, #40]                   @ 4-byte Reload
.Ltmp484:
	.loc	8 928 21                        @ ../GUILib/src/draw/lv_draw_blend.c:928:21
	sub.w	r4, r3, r5, lsl #1
.Ltmp485:
	@DEBUG_VALUE: map_blended:map_buf_tmp <- $r4
	.loc	8 930 9                         @ ../GUILib/src/draw/lv_draw_blend.c:930:9
	str	r1, [sp, #52]                   @ 4-byte Spill
	lsl.w	r1, r11, #1
	movw	r11, #65535
.Ltmp486:
	.loc	8 0 9 is_stmt 0                 @ ../GUILib/src/draw/lv_draw_blend.c:0:9
	str	r1, [sp, #48]                   @ 4-byte Spill
                                        @ implicit-def: $r5
                                        @ implicit-def: $r6
.Ltmp487:
	.p2align	2
.LBB1_25:                               @ =>This Loop Header: Depth=1
                                        @     Child Loop BB1_28 Depth 2
	@DEBUG_VALUE: map_blended:blend_fp <- $r8
	@DEBUG_VALUE: map_blended:y <- [DW_OP_plus_uconst 56] [$sp+0]
	@DEBUG_VALUE: map_blended:disp_w <- [DW_OP_plus_uconst 36] [$sp+0]
	@DEBUG_VALUE: map_blended:draw_area_w <- [DW_OP_plus_uconst 48] [$sp+0]
	@DEBUG_VALUE: map_blended:mask <- [DW_OP_plus_uconst 44] [$sp+0]
	@DEBUG_VALUE: map_blended:draw_area <- [DW_OP_plus_uconst 60, DW_OP_stack_value] $sp
	@DEBUG_VALUE: map_blended:disp_buf <- [DW_OP_plus_uconst 52] [$sp+0]
	@DEBUG_VALUE: _lv_blend_map:map_area <- [DW_OP_LLVM_entry_value 1] $r1
	@DEBUG_VALUE: map_blended:disp_buf_tmp <- $r7
	@DEBUG_VALUE: map_blended:map_buf_tmp <- $r4
	@DEBUG_VALUE: map_blended:y <- [DW_OP_plus_uconst 56] [$sp+0]
	@DEBUG_VALUE: map_blended:x <- [DW_OP_LLVM_convert 16 5, DW_OP_LLVM_convert 32 5, DW_OP_stack_value] $r2
	.loc	8 931 38 is_stmt 1              @ ../GUILib/src/draw/lv_draw_blend.c:931:38
	sxth	r1, r0
	sxth.w	r9, r2
.Ltmp488:
	.loc	8 931 13 is_stmt 0              @ ../GUILib/src/draw/lv_draw_blend.c:931:13
	cmp	r9, r1
	ble	.LBB1_27
.Ltmp489:
@ %bb.26:                               @   in Loop: Header=BB1_25 Depth=1
	@DEBUG_VALUE: map_blended:blend_fp <- $r8
	@DEBUG_VALUE: map_blended:disp_buf_tmp <- $r7
	@DEBUG_VALUE: map_blended:map_buf_tmp <- $r4
	@DEBUG_VALUE: map_blended:x <- [DW_OP_LLVM_convert 16 5, DW_OP_LLVM_convert 32 5, DW_OP_stack_value] $r2
	@DEBUG_VALUE: map_blended:y <- [DW_OP_plus_uconst 56] [$sp+0]
	@DEBUG_VALUE: map_blended:disp_w <- [DW_OP_plus_uconst 36] [$sp+0]
	@DEBUG_VALUE: map_blended:draw_area_w <- [DW_OP_plus_uconst 48] [$sp+0]
	@DEBUG_VALUE: map_blended:mask <- [DW_OP_plus_uconst 44] [$sp+0]
	@DEBUG_VALUE: map_blended:draw_area <- [DW_OP_plus_uconst 60, DW_OP_stack_value] $sp
	@DEBUG_VALUE: map_blended:disp_buf <- [DW_OP_plus_uconst 52] [$sp+0]
	@DEBUG_VALUE: _lv_blend_map:map_area <- [DW_OP_LLVM_entry_value 1] $r1
	.loc	8 0 13                          @ ../GUILib/src/draw/lv_draw_blend.c:0:13
	mov	r1, lr
	b	.LBB1_30
.Ltmp490:
.LBB1_27:                               @   in Loop: Header=BB1_25 Depth=1
	@DEBUG_VALUE: map_blended:blend_fp <- $r8
	@DEBUG_VALUE: map_blended:disp_buf_tmp <- $r7
	@DEBUG_VALUE: map_blended:map_buf_tmp <- $r4
	@DEBUG_VALUE: map_blended:x <- [DW_OP_LLVM_convert 16 5, DW_OP_LLVM_convert 32 5, DW_OP_stack_value] $r2
	@DEBUG_VALUE: map_blended:y <- [DW_OP_plus_uconst 56] [$sp+0]
	@DEBUG_VALUE: map_blended:disp_w <- [DW_OP_plus_uconst 36] [$sp+0]
	@DEBUG_VALUE: map_blended:draw_area_w <- [DW_OP_plus_uconst 48] [$sp+0]
	@DEBUG_VALUE: map_blended:mask <- [DW_OP_plus_uconst 44] [$sp+0]
	@DEBUG_VALUE: map_blended:draw_area <- [DW_OP_plus_uconst 60, DW_OP_stack_value] $sp
	@DEBUG_VALUE: map_blended:disp_buf <- [DW_OP_plus_uconst 52] [$sp+0]
	@DEBUG_VALUE: _lv_blend_map:map_area <- [DW_OP_LLVM_entry_value 1] $r1
	@DEBUG_VALUE: map_blended:x <- $r9
	ldr.w	r10, [sp, #108]
.Ltmp491:
	@DEBUG_VALUE: _lv_blend_map:map_buf <- [DW_OP_LLVM_entry_value 1] $r2
	.p2align	2
.LBB1_28:                               @   Parent Loop BB1_25 Depth=1
                                        @ =>  This Inner Loop Header: Depth=2
	@DEBUG_VALUE: map_blended:x <- $r9
	@DEBUG_VALUE: map_blended:blend_fp <- $r8
	@DEBUG_VALUE: map_blended:disp_buf_tmp <- $r7
	@DEBUG_VALUE: map_blended:map_buf_tmp <- $r4
	@DEBUG_VALUE: map_blended:y <- [DW_OP_plus_uconst 56] [$sp+0]
	@DEBUG_VALUE: map_blended:disp_w <- [DW_OP_plus_uconst 36] [$sp+0]
	@DEBUG_VALUE: map_blended:draw_area_w <- [DW_OP_plus_uconst 48] [$sp+0]
	@DEBUG_VALUE: map_blended:mask <- [DW_OP_plus_uconst 44] [$sp+0]
	@DEBUG_VALUE: map_blended:draw_area <- [DW_OP_plus_uconst 60, DW_OP_stack_value] $sp
	@DEBUG_VALUE: map_blended:disp_buf <- [DW_OP_plus_uconst 52] [$sp+0]
	@DEBUG_VALUE: _lv_blend_map:map_area <- [DW_OP_LLVM_entry_value 1] $r1
	@DEBUG_VALUE: map_blended:x <- $r9
	.loc	8 932 35 is_stmt 1              @ ../GUILib/src/draw/lv_draw_blend.c:932:35
	ldrh.w	r0, [r4, r9, lsl #1]
	bic.w	r1, r6, r11
	adds	r6, r1, r0
	ldrh.w	r0, [r7, r9, lsl #1]
	bfc	r5, #0, #16
	add	r5, r0
	mov	r0, r6
	mov	r1, r5
	mov	r2, r10
	blx	r8
.Ltmp492:
	strh.w	r0, [r7, r9, lsl #1]
.Ltmp493:
	.loc	8 931 41                        @ ../GUILib/src/draw/lv_draw_blend.c:931:41
	ldrsh.w	r0, [sp, #64]
.Ltmp494:
	.loc	8 931 13 is_stmt 0              @ ../GUILib/src/draw/lv_draw_blend.c:931:13
	cmp	r9, r0
.Ltmp495:
	.loc	8 931 57                        @ ../GUILib/src/draw/lv_draw_blend.c:931:57
	add.w	r9, r9, #1
.Ltmp496:
	@DEBUG_VALUE: map_blended:x <- $r9
	@DEBUG_VALUE: map_blended:x <- $r9
	.loc	8 931 13                        @ ../GUILib/src/draw/lv_draw_blend.c:931:13
	blt	.LBB1_28
.Ltmp497:
@ %bb.29:                               @   in Loop: Header=BB1_25 Depth=1
	@DEBUG_VALUE: map_blended:x <- $r9
	@DEBUG_VALUE: map_blended:blend_fp <- $r8
	@DEBUG_VALUE: map_blended:disp_buf_tmp <- $r7
	@DEBUG_VALUE: map_blended:map_buf_tmp <- $r4
	@DEBUG_VALUE: map_blended:y <- [DW_OP_plus_uconst 56] [$sp+0]
	@DEBUG_VALUE: map_blended:disp_w <- [DW_OP_plus_uconst 36] [$sp+0]
	@DEBUG_VALUE: map_blended:draw_area_w <- [DW_OP_plus_uconst 48] [$sp+0]
	@DEBUG_VALUE: map_blended:mask <- [DW_OP_plus_uconst 44] [$sp+0]
	@DEBUG_VALUE: map_blended:draw_area <- [DW_OP_plus_uconst 60, DW_OP_stack_value] $sp
	@DEBUG_VALUE: map_blended:disp_buf <- [DW_OP_plus_uconst 52] [$sp+0]
	@DEBUG_VALUE: _lv_blend_map:map_area <- [DW_OP_LLVM_entry_value 1] $r1
	.loc	8 930 48 is_stmt 1              @ ../GUILib/src/draw/lv_draw_blend.c:930:48
	ldrh.w	r1, [sp, #66]
	.loc	8 0 0 is_stmt 0                 @ ../GUILib/src/draw/lv_draw_blend.c:0:0
	uxth	r0, r0
.Ltmp498:
.LBB1_30:                               @   in Loop: Header=BB1_25 Depth=1
	@DEBUG_VALUE: map_blended:blend_fp <- $r8
	@DEBUG_VALUE: map_blended:disp_buf_tmp <- $r7
	@DEBUG_VALUE: map_blended:map_buf_tmp <- $r4
	@DEBUG_VALUE: map_blended:y <- [DW_OP_plus_uconst 56] [$sp+0]
	@DEBUG_VALUE: map_blended:disp_w <- [DW_OP_plus_uconst 36] [$sp+0]
	@DEBUG_VALUE: map_blended:draw_area_w <- [DW_OP_plus_uconst 48] [$sp+0]
	@DEBUG_VALUE: map_blended:mask <- [DW_OP_plus_uconst 44] [$sp+0]
	@DEBUG_VALUE: map_blended:draw_area <- [DW_OP_plus_uconst 60, DW_OP_stack_value] $sp
	@DEBUG_VALUE: map_blended:disp_buf <- [DW_OP_plus_uconst 52] [$sp+0]
	@DEBUG_VALUE: _lv_blend_map:map_area <- [DW_OP_LLVM_entry_value 1] $r1
	@DEBUG_VALUE: map_blended:disp_buf_tmp <- undef
	@DEBUG_VALUE: map_blended:map_buf_tmp <- undef
	@DEBUG_VALUE: map_blended:y <- [DW_OP_plus_uconst 56, DW_OP_deref_size 4, DW_OP_plus_uconst 1, DW_OP_stack_value] $sp
	ldr	r2, [sp, #56]                   @ 4-byte Reload
.Ltmp499:
	@DEBUG_VALUE: map_blended:y <- [DW_OP_plus_uconst 1, DW_OP_stack_value] $r2
	@DEBUG_VALUE: map_blended:y <- [DW_OP_plus_uconst 1, DW_OP_stack_value] $r2
	mov	lr, r1
	.loc	8 930 37                        @ ../GUILib/src/draw/lv_draw_blend.c:930:37
	sxth	r1, r1
.Ltmp500:
	.loc	8 930 9                         @ ../GUILib/src/draw/lv_draw_blend.c:930:9
	cmp	r2, r1
	@DEBUG_VALUE: map_blended:y <- [DW_OP_plus_uconst 1, DW_OP_stack_value] $r2
	bge	.LBB1_33
.Ltmp501:
@ %bb.31:                               @   in Loop: Header=BB1_25 Depth=1
	@DEBUG_VALUE: map_blended:blend_fp <- $r8
	@DEBUG_VALUE: map_blended:y <- [DW_OP_plus_uconst 1, DW_OP_stack_value] $r2
	@DEBUG_VALUE: map_blended:disp_w <- [DW_OP_plus_uconst 36] [$sp+0]
	@DEBUG_VALUE: map_blended:draw_area_w <- [DW_OP_plus_uconst 48] [$sp+0]
	@DEBUG_VALUE: map_blended:mask <- [DW_OP_plus_uconst 44] [$sp+0]
	@DEBUG_VALUE: map_blended:draw_area <- [DW_OP_plus_uconst 60, DW_OP_stack_value] $sp
	@DEBUG_VALUE: map_blended:disp_buf <- [DW_OP_plus_uconst 52] [$sp+0]
	@DEBUG_VALUE: _lv_blend_map:map_area <- [DW_OP_LLVM_entry_value 1] $r1
	.loc	8 0 9                           @ ../GUILib/src/draw/lv_draw_blend.c:0:9
	mov	r1, r2
.Ltmp502:
	@DEBUG_VALUE: map_blended:y <- [DW_OP_plus_uconst 1, DW_OP_stack_value] $r1
	.loc	8 930 53                        @ ../GUILib/src/draw/lv_draw_blend.c:930:53
	adds	r1, r2, #1
.Ltmp503:
	@DEBUG_VALUE: map_blended:y <- $r1
	@DEBUG_VALUE: map_blended:map_buf_tmp <- undef
	@DEBUG_VALUE: map_blended:disp_buf_tmp <- undef
	.loc	8 0 53                          @ ../GUILib/src/draw/lv_draw_blend.c:0:53
	str	r1, [sp, #56]                   @ 4-byte Spill
.Ltmp504:
	@DEBUG_VALUE: map_blended:y <- [DW_OP_plus_uconst 56] [$sp+0]
	@DEBUG_VALUE: map_blended:y <- [DW_OP_plus_uconst 56] [$sp+0]
	.loc	8 930 9                         @ ../GUILib/src/draw/lv_draw_blend.c:930:9
	ldr	r1, [sp, #52]                   @ 4-byte Reload
.Ltmp505:
	.loc	8 931 32 is_stmt 1              @ ../GUILib/src/draw/lv_draw_blend.c:931:32
	ldrh.w	r2, [sp, #60]
.Ltmp506:
	.loc	8 930 9                         @ ../GUILib/src/draw/lv_draw_blend.c:930:9
	add	r7, r1
	ldr	r1, [sp, #48]                   @ 4-byte Reload
	add	r4, r1
	b	.LBB1_25
.Ltmp507:
.LBB1_32:
	@DEBUG_VALUE: map_set_px:map_w <- $r12
	@DEBUG_VALUE: map_set_px:map_buf <- $r10
	@DEBUG_VALUE: _lv_blend_map:map_buf <- $r10
	@DEBUG_VALUE: map_set_px:mask_res <- $r9
	@DEBUG_VALUE: _lv_blend_map:mask_res <- $r9
	@DEBUG_VALUE: map_set_px:disp_w <- [DW_OP_LLVM_convert 16 5, DW_OP_LLVM_convert 32 5, DW_OP_stack_value] $r8
	@DEBUG_VALUE: map_set_px:map_buf_tmp <- $r6
	@DEBUG_VALUE: map_set_px:disp_area <- [DW_OP_plus_uconst 16, DW_OP_stack_value] $r5
	@DEBUG_VALUE: _lv_blend_map:draw_buf <- $r5
	@DEBUG_VALUE: _lv_blend_map:disp_area <- [DW_OP_plus_uconst 16, DW_OP_stack_value] $r5
	@DEBUG_VALUE: map_set_px:map_area <- $r4
	@DEBUG_VALUE: _lv_blend_map:map_area <- $r4
	@DEBUG_VALUE: map_set_px:disp <- [DW_OP_plus_uconst 48] [$sp+0]
	@DEBUG_VALUE: map_set_px:mask <- [DW_OP_plus_uconst 44] [$sp+0]
	@DEBUG_VALUE: map_set_px:draw_area <- [DW_OP_plus_uconst 60, DW_OP_stack_value] $sp
	@DEBUG_VALUE: map_set_px:disp_buf <- [DW_OP_plus_uconst 52] [$sp+0]
	@DEBUG_VALUE: map_set_px:draw_area_w <- undef
	@DEBUG_VALUE: map_set_px:map_buf_tmp <- $r6
	@DEBUG_VALUE: map_set_px:y <- $r11
	@DEBUG_VALUE: mask_tmp <- undef
	.loc	8 623 9                         @ ../GUILib/src/draw/lv_draw_blend.c:623:9
	cmp	r11, r1
	ble	.LBB1_34
.Ltmp508:
.LBB1_33:
	.loc	8 233 1                         @ ../GUILib/src/draw/lv_draw_blend.c:233:1
	add	sp, #68
	pop.w	{r4, r5, r6, r7, r8, r9, r10, r11, pc}
.LBB1_34:
.Ltmp509:
	@DEBUG_VALUE: map_set_px:map_w <- $r12
	@DEBUG_VALUE: map_set_px:y <- $r11
	@DEBUG_VALUE: map_set_px:map_buf <- $r10
	@DEBUG_VALUE: _lv_blend_map:map_buf <- $r10
	@DEBUG_VALUE: map_set_px:mask_res <- $r9
	@DEBUG_VALUE: _lv_blend_map:mask_res <- $r9
	@DEBUG_VALUE: map_set_px:disp_w <- [DW_OP_LLVM_convert 16 5, DW_OP_LLVM_convert 32 5, DW_OP_stack_value] $r8
	@DEBUG_VALUE: map_set_px:map_buf_tmp <- $r6
	@DEBUG_VALUE: map_set_px:disp_area <- [DW_OP_plus_uconst 16, DW_OP_stack_value] $r5
	@DEBUG_VALUE: _lv_blend_map:draw_buf <- $r5
	@DEBUG_VALUE: _lv_blend_map:disp_area <- [DW_OP_plus_uconst 16, DW_OP_stack_value] $r5
	@DEBUG_VALUE: map_set_px:map_area <- $r4
	@DEBUG_VALUE: _lv_blend_map:map_area <- $r4
	@DEBUG_VALUE: map_set_px:disp <- [DW_OP_plus_uconst 48] [$sp+0]
	@DEBUG_VALUE: map_set_px:mask <- [DW_OP_plus_uconst 44] [$sp+0]
	@DEBUG_VALUE: map_set_px:draw_area <- [DW_OP_plus_uconst 60, DW_OP_stack_value] $sp
	@DEBUG_VALUE: map_set_px:disp_buf <- [DW_OP_plus_uconst 52] [$sp+0]
	.loc	8 0 0 is_stmt 0                 @ ../GUILib/src/draw/lv_draw_blend.c:0:0
	subs	r3, r0, r2
	adds	r3, #1
	sxth	r3, r3
.Ltmp510:
	@DEBUG_VALUE: map_set_px:draw_area_w <- $r3
	.loc	8 621 42 is_stmt 1              @ ../GUILib/src/draw/lv_draw_blend.c:621:42
	ldr	r7, [sp, #44]                   @ 4-byte Reload
.Ltmp511:
	.loc	8 0 0 is_stmt 0                 @ ../GUILib/src/draw/lv_draw_blend.c:0:0
	str	r3, [sp, #56]                   @ 4-byte Spill
.Ltmp512:
	@DEBUG_VALUE: map_set_px:draw_area_w <- [DW_OP_plus_uconst 56] [$sp+0]
	@DEBUG_VALUE: map_set_px:draw_area_w <- [DW_OP_plus_uconst 56] [$sp+0]
	rsb.w	r3, lr, #0
.Ltmp513:
	.loc	8 621 42                        @ ../GUILib/src/draw/lv_draw_blend.c:621:42
	add	r7, r3
.Ltmp514:
	@DEBUG_VALUE: mask_tmp <- $r7
	.loc	8 623 9 is_stmt 1               @ ../GUILib/src/draw/lv_draw_blend.c:623:9
	lsl.w	r3, r12, #1
	str	r3, [sp, #44]                   @ 4-byte Spill
                                        @ implicit-def: $r9
.Ltmp515:
	.p2align	2
.LBB1_35:                               @ =>This Loop Header: Depth=1
                                        @     Child Loop BB1_36 Depth 2
	@DEBUG_VALUE: map_set_px:y <- $r11
	@DEBUG_VALUE: map_set_px:disp_w <- [DW_OP_LLVM_convert 16 5, DW_OP_LLVM_convert 32 5, DW_OP_stack_value] $r8
	@DEBUG_VALUE: mask_tmp <- $r7
	@DEBUG_VALUE: map_set_px:draw_area_w <- [DW_OP_plus_uconst 56] [$sp+0]
	@DEBUG_VALUE: map_set_px:disp <- [DW_OP_plus_uconst 48] [$sp+0]
	@DEBUG_VALUE: map_set_px:mask <- [DW_OP_plus_uconst 44] [$sp+0]
	@DEBUG_VALUE: map_set_px:draw_area <- [DW_OP_plus_uconst 60, DW_OP_stack_value] $sp
	@DEBUG_VALUE: map_set_px:disp_buf <- [DW_OP_plus_uconst 52] [$sp+0]
	.loc	8 0 9 is_stmt 0                 @ ../GUILib/src/draw/lv_draw_blend.c:0:9
	ldr	r4, [sp, #48]                   @ 4-byte Reload
.Ltmp516:
	@DEBUG_VALUE: _lv_blend_map:map_area <- [DW_OP_LLVM_entry_value 1] $r1
	@DEBUG_VALUE: map_set_px:map_buf_tmp <- $r6
	@DEBUG_VALUE: map_set_px:y <- $r11
	@DEBUG_VALUE: map_set_px:x <- [DW_OP_LLVM_convert 16 5, DW_OP_LLVM_convert 32 5, DW_OP_stack_value] $r2
	@DEBUG_VALUE: mask_tmp <- $r7
	.loc	8 624 38 is_stmt 1              @ ../GUILib/src/draw/lv_draw_blend.c:624:38
	sxth	r3, r0
	sxth.w	r10, r2
.Ltmp517:
	@DEBUG_VALUE: _lv_blend_map:map_buf <- [DW_OP_LLVM_entry_value 1] $r2
	.loc	8 624 13 is_stmt 0              @ ../GUILib/src/draw/lv_draw_blend.c:624:13
	cmp	r10, r3
	bgt	.LBB1_40
.Ltmp518:
	.p2align	2
.LBB1_36:                               @   Parent Loop BB1_35 Depth=1
                                        @ =>  This Inner Loop Header: Depth=2
	@DEBUG_VALUE: map_set_px:y <- $r11
	@DEBUG_VALUE: map_set_px:disp_w <- [DW_OP_LLVM_convert 16 5, DW_OP_LLVM_convert 32 5, DW_OP_stack_value] $r8
	@DEBUG_VALUE: mask_tmp <- $r7
	@DEBUG_VALUE: map_set_px:map_buf_tmp <- $r6
	@DEBUG_VALUE: map_set_px:draw_area_w <- [DW_OP_plus_uconst 56] [$sp+0]
	@DEBUG_VALUE: map_set_px:disp <- [DW_OP_plus_uconst 48] [$sp+0]
	@DEBUG_VALUE: map_set_px:mask <- [DW_OP_plus_uconst 44] [$sp+0]
	@DEBUG_VALUE: map_set_px:draw_area <- [DW_OP_plus_uconst 60, DW_OP_stack_value] $sp
	@DEBUG_VALUE: map_set_px:disp_buf <- [DW_OP_plus_uconst 52] [$sp+0]
	@DEBUG_VALUE: map_set_px:x <- $r10
	.loc	8 625 20 is_stmt 1              @ ../GUILib/src/draw/lv_draw_blend.c:625:20
	ldrb.w	r1, [r7, r10]
.Ltmp519:
	.loc	8 625 20 is_stmt 0              @ ../GUILib/src/draw/lv_draw_blend.c:625:20
	cbz	r1, .LBB1_38
.Ltmp520:
@ %bb.37:                               @   in Loop: Header=BB1_36 Depth=2
	@DEBUG_VALUE: map_set_px:y <- $r11
	@DEBUG_VALUE: map_set_px:x <- $r10
	@DEBUG_VALUE: map_set_px:disp_w <- [DW_OP_LLVM_convert 16 5, DW_OP_LLVM_convert 32 5, DW_OP_stack_value] $r8
	@DEBUG_VALUE: mask_tmp <- $r7
	@DEBUG_VALUE: map_set_px:map_buf_tmp <- $r6
	@DEBUG_VALUE: map_set_px:draw_area_w <- [DW_OP_plus_uconst 56] [$sp+0]
	@DEBUG_VALUE: map_set_px:disp <- [DW_OP_plus_uconst 48] [$sp+0]
	@DEBUG_VALUE: map_set_px:mask <- [DW_OP_plus_uconst 44] [$sp+0]
	@DEBUG_VALUE: map_set_px:draw_area <- [DW_OP_plus_uconst 60, DW_OP_stack_value] $sp
	@DEBUG_VALUE: map_set_px:disp_buf <- [DW_OP_plus_uconst 52] [$sp+0]
	.loc	8 627 70 is_stmt 1              @ ../GUILib/src/draw/lv_draw_blend.c:627:70
	ldr	r2, [sp, #108]
	.loc	8 626 27                        @ ../GUILib/src/draw/lv_draw_blend.c:626:27
	ldr	r0, [r4]
	.loc	8 627 70                        @ ../GUILib/src/draw/lv_draw_blend.c:627:70
	muls	r1, r2, r1
	.loc	8 626 21                        @ ../GUILib/src/draw/lv_draw_blend.c:626:21
	ldrh.w	r2, [r6, r10, lsl #1]
	movw	r3, #65535
	.loc	8 627 85                        @ ../GUILib/src/draw/lv_draw_blend.c:627:85
	lsrs	r1, r1, #8
	.loc	8 626 21                        @ ../GUILib/src/draw/lv_draw_blend.c:626:21
	bic.w	r3, r9, r3
	.loc	8 626 35 is_stmt 0              @ ../GUILib/src/draw/lv_draw_blend.c:626:35
	ldr	r5, [r0, #28]
	.loc	8 626 21                        @ ../GUILib/src/draw/lv_draw_blend.c:626:21
	add.w	r9, r3, r2
	sxth.w	r2, r11
	str	r1, [sp, #8]
	ldr	r1, [sp, #52]                   @ 4-byte Reload
	str	r2, [sp]
	sxth.w	r2, r8
	sxth.w	r3, r10
	str.w	r9, [sp, #4]
	blx	r5
.Ltmp521:
	.loc	8 624 52 is_stmt 1              @ ../GUILib/src/draw/lv_draw_blend.c:624:52
	ldrh.w	r0, [sp, #64]
.Ltmp522:
.LBB1_38:                               @   in Loop: Header=BB1_36 Depth=2
	@DEBUG_VALUE: map_set_px:y <- $r11
	@DEBUG_VALUE: map_set_px:x <- $r10
	@DEBUG_VALUE: map_set_px:disp_w <- [DW_OP_LLVM_convert 16 5, DW_OP_LLVM_convert 32 5, DW_OP_stack_value] $r8
	@DEBUG_VALUE: mask_tmp <- $r7
	@DEBUG_VALUE: map_set_px:map_buf_tmp <- $r6
	@DEBUG_VALUE: map_set_px:draw_area_w <- [DW_OP_plus_uconst 56] [$sp+0]
	@DEBUG_VALUE: map_set_px:disp <- [DW_OP_plus_uconst 48] [$sp+0]
	@DEBUG_VALUE: map_set_px:mask <- [DW_OP_plus_uconst 44] [$sp+0]
	@DEBUG_VALUE: map_set_px:draw_area <- [DW_OP_plus_uconst 60, DW_OP_stack_value] $sp
	@DEBUG_VALUE: map_set_px:disp_buf <- [DW_OP_plus_uconst 52] [$sp+0]
	.loc	8 624 41 is_stmt 0              @ ../GUILib/src/draw/lv_draw_blend.c:624:41
	sxth	r1, r0
.Ltmp523:
	.loc	8 624 13                        @ ../GUILib/src/draw/lv_draw_blend.c:624:13
	cmp	r10, r1
.Ltmp524:
	.loc	8 624 57                        @ ../GUILib/src/draw/lv_draw_blend.c:624:57
	add.w	r10, r10, #1
.Ltmp525:
	@DEBUG_VALUE: map_set_px:x <- $r10
	@DEBUG_VALUE: map_set_px:x <- $r10
	.loc	8 624 13                        @ ../GUILib/src/draw/lv_draw_blend.c:624:13
	blt	.LBB1_36
.Ltmp526:
@ %bb.39:                               @   in Loop: Header=BB1_35 Depth=1
	@DEBUG_VALUE: map_set_px:y <- $r11
	@DEBUG_VALUE: map_set_px:x <- $r10
	@DEBUG_VALUE: map_set_px:disp_w <- [DW_OP_LLVM_convert 16 5, DW_OP_LLVM_convert 32 5, DW_OP_stack_value] $r8
	@DEBUG_VALUE: mask_tmp <- $r7
	@DEBUG_VALUE: map_set_px:map_buf_tmp <- $r6
	@DEBUG_VALUE: map_set_px:draw_area_w <- [DW_OP_plus_uconst 56] [$sp+0]
	@DEBUG_VALUE: map_set_px:disp <- [DW_OP_plus_uconst 48] [$sp+0]
	@DEBUG_VALUE: map_set_px:mask <- [DW_OP_plus_uconst 44] [$sp+0]
	@DEBUG_VALUE: map_set_px:draw_area <- [DW_OP_plus_uconst 60, DW_OP_stack_value] $sp
	@DEBUG_VALUE: map_set_px:disp_buf <- [DW_OP_plus_uconst 52] [$sp+0]
	.loc	8 623 48 is_stmt 1              @ ../GUILib/src/draw/lv_draw_blend.c:623:48
	ldrh.w	r1, [sp, #66]
.Ltmp527:
.LBB1_40:                               @   in Loop: Header=BB1_35 Depth=1
	@DEBUG_VALUE: map_set_px:y <- $r11
	@DEBUG_VALUE: map_set_px:disp_w <- [DW_OP_LLVM_convert 16 5, DW_OP_LLVM_convert 32 5, DW_OP_stack_value] $r8
	@DEBUG_VALUE: mask_tmp <- $r7
	@DEBUG_VALUE: map_set_px:map_buf_tmp <- $r6
	@DEBUG_VALUE: map_set_px:draw_area_w <- [DW_OP_plus_uconst 56] [$sp+0]
	@DEBUG_VALUE: map_set_px:disp <- [DW_OP_plus_uconst 48] [$sp+0]
	@DEBUG_VALUE: map_set_px:mask <- [DW_OP_plus_uconst 44] [$sp+0]
	@DEBUG_VALUE: map_set_px:draw_area <- [DW_OP_plus_uconst 60, DW_OP_stack_value] $sp
	@DEBUG_VALUE: map_set_px:disp_buf <- [DW_OP_plus_uconst 52] [$sp+0]
	@DEBUG_VALUE: map_set_px:map_buf_tmp <- undef
	@DEBUG_VALUE: map_set_px:y <- [DW_OP_plus_uconst 1, DW_OP_stack_value] $r11
	@DEBUG_VALUE: mask_tmp <- undef
	.loc	8 623 37 is_stmt 0              @ ../GUILib/src/draw/lv_draw_blend.c:623:37
	sxth	r2, r1
.Ltmp528:
	.loc	8 623 9                         @ ../GUILib/src/draw/lv_draw_blend.c:623:9
	cmp	r11, r2
	bge	.LBB1_33
.Ltmp529:
@ %bb.41:                               @   in Loop: Header=BB1_35 Depth=1
	@DEBUG_VALUE: map_set_px:y <- [DW_OP_plus_uconst 1, DW_OP_stack_value] $r11
	@DEBUG_VALUE: map_set_px:disp_w <- [DW_OP_LLVM_convert 16 5, DW_OP_LLVM_convert 32 5, DW_OP_stack_value] $r8
	@DEBUG_VALUE: map_set_px:draw_area_w <- [DW_OP_plus_uconst 56] [$sp+0]
	@DEBUG_VALUE: map_set_px:disp <- [DW_OP_plus_uconst 48] [$sp+0]
	@DEBUG_VALUE: map_set_px:mask <- [DW_OP_plus_uconst 44] [$sp+0]
	@DEBUG_VALUE: map_set_px:draw_area <- [DW_OP_plus_uconst 60, DW_OP_stack_value] $sp
	@DEBUG_VALUE: map_set_px:disp_buf <- [DW_OP_plus_uconst 52] [$sp+0]
	.loc	8 630 22 is_stmt 1              @ ../GUILib/src/draw/lv_draw_blend.c:630:22
	ldr	r2, [sp, #56]                   @ 4-byte Reload
.Ltmp530:
	.loc	8 623 9                         @ ../GUILib/src/draw/lv_draw_blend.c:623:9
	ldr	r3, [sp, #44]                   @ 4-byte Reload
.Ltmp531:
	.loc	8 630 22                        @ ../GUILib/src/draw/lv_draw_blend.c:630:22
	add	r7, r2
.Ltmp532:
	@DEBUG_VALUE: mask_tmp <- $r7
	.loc	8 624 32                        @ ../GUILib/src/draw/lv_draw_blend.c:624:32
	ldrh.w	r2, [sp, #60]
.Ltmp533:
	.loc	8 623 53                        @ ../GUILib/src/draw/lv_draw_blend.c:623:53
	add.w	r11, r11, #1
.Ltmp534:
	@DEBUG_VALUE: map_set_px:y <- $r11
	@DEBUG_VALUE: map_set_px:map_buf_tmp <- undef
	.loc	8 623 9 is_stmt 0               @ ../GUILib/src/draw/lv_draw_blend.c:623:9
	add	r6, r3
	b	.LBB1_35
.Ltmp535:
.LBB1_42:
	@DEBUG_VALUE: _lv_blend_map:map_buf <- $r10
	@DEBUG_VALUE: _lv_blend_map:mask_res <- $r9
	@DEBUG_VALUE: _lv_blend_map:disp_buf <- $r8
	@DEBUG_VALUE: _lv_blend_map:draw_buf <- $r5
	@DEBUG_VALUE: _lv_blend_map:disp_area <- [DW_OP_plus_uconst 16, DW_OP_stack_value] $r5
	@DEBUG_VALUE: _lv_blend_map:map_area <- $r4
	@DEBUG_VALUE: _lv_blend_map:mode <- $r1
	@DEBUG_VALUE: map_normal:disp_area <- [DW_OP_plus_uconst 16, DW_OP_stack_value] $r5
	@DEBUG_VALUE: map_normal:disp_buf <- $r8
	@DEBUG_VALUE: map_normal:draw_area <- [DW_OP_plus_uconst 60, DW_OP_stack_value] $sp
	@DEBUG_VALUE: map_normal:map_area <- $r4
	@DEBUG_VALUE: map_normal:map_buf <- $r10
	@DEBUG_VALUE: map_normal:opa <- undef
	@DEBUG_VALUE: map_normal:mask <- [DW_OP_plus_uconst 44] [$sp+0]
	@DEBUG_VALUE: map_normal:mask_res <- $r9
	@DEBUG_VALUE: lv_area_get_width:area_p <- [DW_OP_plus_uconst 16, DW_OP_stack_value] $r5
	@DEBUG_VALUE: map_normal:disp_w <- $r7
	@DEBUG_VALUE: lv_area_get_width:area_p <- [DW_OP_plus_uconst 60, DW_OP_stack_value] $sp
	@DEBUG_VALUE: map_normal:draw_area_w <- [DW_OP_plus_uconst 48] [$sp+0]
	@DEBUG_VALUE: lv_area_get_height:area_p <- [DW_OP_plus_uconst 60, DW_OP_stack_value] $sp
	.loc	6 135 49 is_stmt 1              @ ../GUILib/src/draw/../core/../misc/lv_area.h:135:49
	sub.w	r0, lr, r2
	adds	r0, #1
	sxth	r0, r0
.Ltmp536:
	@DEBUG_VALUE: map_normal:draw_area_h <- $r0
	.loc	6 125 33                        @ ../GUILib/src/draw/../core/../misc/lv_area.h:125:33
	str	r0, [sp, #52]                   @ 4-byte Spill
.Ltmp537:
	@DEBUG_VALUE: map_normal:draw_area_h <- [DW_OP_plus_uconst 52] [$sp+0]
	@DEBUG_VALUE: lv_area_get_width:area_p <- $r4
	@DEBUG_VALUE: map_normal:draw_area_h <- [DW_OP_plus_uconst 52] [$sp+0]
	ldrh	r0, [r4, #4]
.Ltmp538:
	.loc	8 669 40                        @ ../GUILib/src/draw/lv_draw_blend.c:669:40
	ldrsh.w	lr, [r4]
	.loc	8 668 86                        @ ../GUILib/src/draw/lv_draw_blend.c:668:86
	ldrsh.w	r9, [r4, #2]
.Ltmp539:
	@DEBUG_VALUE: map_normal:mask_res <- $r9
	.loc	6 125 49                        @ ../GUILib/src/draw/../core/../misc/lv_area.h:125:49
	sub.w	r0, r0, lr
	adds	r0, #1
.Ltmp540:
	@DEBUG_VALUE: map_normal:mask_res <- undef
	.loc	8 662 21                        @ ../GUILib/src/draw/lv_draw_blend.c:662:21
	sxth	r1, r0
.Ltmp541:
	@DEBUG_VALUE: map_normal:map_w <- $r1
	.loc	8 665 53                        @ ../GUILib/src/draw/lv_draw_blend.c:665:53
	mul	r0, r7, r2
	.loc	8 665 44 is_stmt 0              @ ../GUILib/src/draw/lv_draw_blend.c:665:44
	add.w	r0, r8, r0, lsl #1
	.loc	8 665 71                        @ ../GUILib/src/draw/lv_draw_blend.c:665:71
	sxth.w	r8, r11
.Ltmp542:
	.loc	8 668 102 is_stmt 1             @ ../GUILib/src/draw/lv_draw_blend.c:668:102
	ldrsh.w	r5, [r5, #18]
.Ltmp543:
	.loc	8 665 69                        @ ../GUILib/src/draw/lv_draw_blend.c:665:69
	add.w	r6, r0, r8, lsl #1
.Ltmp544:
	@DEBUG_VALUE: map_normal:disp_buf_first <- $r6
	.loc	8 668 89                        @ ../GUILib/src/draw/lv_draw_blend.c:668:89
	sub.w	r0, r2, r9
	.loc	8 668 73 is_stmt 0              @ ../GUILib/src/draw/lv_draw_blend.c:668:73
	add	r0, r5
	str	r1, [sp, #56]                   @ 4-byte Spill
.Ltmp545:
	@DEBUG_VALUE: map_normal:map_w <- [DW_OP_plus_uconst 56] [$sp+0]
	.loc	8 668 56                        @ ../GUILib/src/draw/lv_draw_blend.c:668:56
	muls	r0, r1, r0
	.loc	8 669 53 is_stmt 1              @ ../GUILib/src/draw/lv_draw_blend.c:669:53
	sxtah	r1, r3, r11
	.loc	8 679 8                         @ ../GUILib/src/draw/lv_draw_blend.c:679:8
	ldr	r4, [sp, #104]
.Ltmp546:
	@DEBUG_VALUE: _lv_blend_map:map_area <- [DW_OP_LLVM_entry_value 1] $r1
	@DEBUG_VALUE: map_normal:mask_res <- $r4
	.loc	8 668 48                        @ ../GUILib/src/draw/lv_draw_blend.c:668:48
	add.w	r0, r10, r0, lsl #1
.Ltmp547:
	@DEBUG_VALUE: map_normal:map_buf_first <- $r0
	.loc	8 669 37                        @ ../GUILib/src/draw/lv_draw_blend.c:669:37
	sub.w	r1, r1, lr
	.loc	8 679 8                         @ ../GUILib/src/draw/lv_draw_blend.c:679:8
	cmp	r4, #1
	.loc	8 669 19                        @ ../GUILib/src/draw/lv_draw_blend.c:669:19
	add.w	r11, r0, r1, lsl #1
.Ltmp548:
	@DEBUG_VALUE: map_normal:map_buf_first <- $r11
	@DEBUG_VALUE: map_normal:disp_w <- $r7
	.loc	8 679 8                         @ ../GUILib/src/draw/lv_draw_blend.c:679:8
	bne	.LBB1_47
.Ltmp549:
@ %bb.43:
	@DEBUG_VALUE: map_normal:map_buf_first <- $r11
	@DEBUG_VALUE: map_normal:map_buf <- $r10
	@DEBUG_VALUE: _lv_blend_map:map_buf <- $r10
	@DEBUG_VALUE: map_normal:disp_w <- $r7
	@DEBUG_VALUE: map_normal:disp_buf_first <- $r6
	@DEBUG_VALUE: map_normal:mask_res <- $r4
	@DEBUG_VALUE: map_normal:map_w <- [DW_OP_plus_uconst 56] [$sp+0]
	@DEBUG_VALUE: map_normal:draw_area_h <- [DW_OP_plus_uconst 52] [$sp+0]
	@DEBUG_VALUE: map_normal:draw_area_w <- [DW_OP_plus_uconst 48] [$sp+0]
	@DEBUG_VALUE: map_normal:mask <- [DW_OP_plus_uconst 44] [$sp+0]
	@DEBUG_VALUE: map_normal:draw_area <- [DW_OP_plus_uconst 60, DW_OP_stack_value] $sp
	@DEBUG_VALUE: _lv_blend_map:map_area <- [DW_OP_LLVM_entry_value 1] $r1
	@DEBUG_VALUE: map_normal:disp_buf_first <- $r6
	@DEBUG_VALUE: map_normal:map_buf_first <- $r11
	@DEBUG_VALUE: map_normal:y <- 0
	.loc	8 680 12                        @ ../GUILib/src/draw/lv_draw_blend.c:680:12
	ldr	r0, [sp, #108]
	cmp	r0, #253
	bls.w	.LBB1_107
.Ltmp550:
@ %bb.44:
	@DEBUG_VALUE: map_normal:map_buf_first <- $r11
	@DEBUG_VALUE: map_normal:map_buf <- $r10
	@DEBUG_VALUE: _lv_blend_map:map_buf <- $r10
	@DEBUG_VALUE: map_normal:disp_w <- $r7
	@DEBUG_VALUE: map_normal:disp_buf_first <- $r6
	@DEBUG_VALUE: map_normal:mask_res <- $r4
	@DEBUG_VALUE: map_normal:map_w <- [DW_OP_plus_uconst 56] [$sp+0]
	@DEBUG_VALUE: map_normal:draw_area_h <- [DW_OP_plus_uconst 52] [$sp+0]
	@DEBUG_VALUE: map_normal:draw_area_w <- [DW_OP_plus_uconst 48] [$sp+0]
	@DEBUG_VALUE: map_normal:mask <- [DW_OP_plus_uconst 44] [$sp+0]
	@DEBUG_VALUE: map_normal:draw_area <- [DW_OP_plus_uconst 60, DW_OP_stack_value] $sp
	@DEBUG_VALUE: map_normal:y <- 0
	@DEBUG_VALUE: _lv_blend_map:map_area <- [DW_OP_LLVM_entry_value 1] $r1
	.loc	8 724 13                        @ ../GUILib/src/draw/lv_draw_blend.c:724:13
	ldr	r0, [sp, #52]                   @ 4-byte Reload
	cmp	r0, #1
	blt	.LBB1_33
.Ltmp551:
@ %bb.45:
	@DEBUG_VALUE: map_normal:map_buf_first <- $r11
	@DEBUG_VALUE: map_normal:map_buf <- $r10
	@DEBUG_VALUE: _lv_blend_map:map_buf <- $r10
	@DEBUG_VALUE: map_normal:disp_w <- $r7
	@DEBUG_VALUE: map_normal:disp_buf_first <- $r6
	@DEBUG_VALUE: map_normal:mask_res <- $r4
	@DEBUG_VALUE: map_normal:map_w <- [DW_OP_plus_uconst 56] [$sp+0]
	@DEBUG_VALUE: map_normal:draw_area_h <- [DW_OP_plus_uconst 52] [$sp+0]
	@DEBUG_VALUE: map_normal:draw_area_w <- [DW_OP_plus_uconst 48] [$sp+0]
	@DEBUG_VALUE: map_normal:mask <- [DW_OP_plus_uconst 44] [$sp+0]
	@DEBUG_VALUE: map_normal:draw_area <- [DW_OP_plus_uconst 60, DW_OP_stack_value] $sp
	@DEBUG_VALUE: map_normal:y <- 0
	@DEBUG_VALUE: _lv_blend_map:map_area <- [DW_OP_LLVM_entry_value 1] $r1
	ldr	r0, [sp, #56]                   @ 4-byte Reload
	lsl.w	r8, r12, #1
	lsls	r5, r7, #1
	lsls	r4, r0, #1
.Ltmp552:
.LBB1_46:                               @ =>This Inner Loop Header: Depth=1
	@DEBUG_VALUE: map_normal:map_buf <- $r10
	@DEBUG_VALUE: _lv_blend_map:map_buf <- $r10
	@DEBUG_VALUE: map_normal:disp_w <- $r7
	@DEBUG_VALUE: map_normal:map_w <- [DW_OP_plus_uconst 56] [$sp+0]
	@DEBUG_VALUE: map_normal:draw_area_h <- [DW_OP_plus_uconst 52] [$sp+0]
	@DEBUG_VALUE: map_normal:draw_area_w <- [DW_OP_plus_uconst 48] [$sp+0]
	@DEBUG_VALUE: map_normal:mask <- [DW_OP_plus_uconst 44] [$sp+0]
	@DEBUG_VALUE: map_normal:draw_area <- [DW_OP_plus_uconst 60, DW_OP_stack_value] $sp
	@DEBUG_VALUE: _lv_blend_map:map_area <- [DW_OP_LLVM_entry_value 1] $r1
	@DEBUG_VALUE: map_normal:disp_buf_first <- $r6
	@DEBUG_VALUE: map_normal:map_buf_first <- $r11
	@DEBUG_VALUE: map_normal:y <- undef
	.loc	8 725 17                        @ ../GUILib/src/draw/lv_draw_blend.c:725:17
	mov	r0, r6
	mov	r1, r11
	mov	r2, r8
	bl	lv_memcpy
.Ltmp553:
	@DEBUG_VALUE: map_normal:y <- [DW_OP_plus_uconst 1, DW_OP_stack_value] undef
	@DEBUG_VALUE: map_normal:map_buf_first <- undef
	@DEBUG_VALUE: map_normal:disp_buf_first <- undef
	.loc	8 724 26                        @ ../GUILib/src/draw/lv_draw_blend.c:724:26
	ldr	r0, [sp, #52]                   @ 4-byte Reload
	add	r6, r5
	subs	r0, #1
	add	r11, r4
	str	r0, [sp, #52]                   @ 4-byte Spill
.Ltmp554:
	.loc	8 724 13 is_stmt 0              @ ../GUILib/src/draw/lv_draw_blend.c:724:13
	bne	.LBB1_46
	b	.LBB1_33
.Ltmp555:
.LBB1_47:
	@DEBUG_VALUE: map_normal:map_buf_first <- $r11
	@DEBUG_VALUE: map_normal:map_buf <- $r10
	@DEBUG_VALUE: _lv_blend_map:map_buf <- $r10
	@DEBUG_VALUE: map_normal:disp_w <- $r7
	@DEBUG_VALUE: map_normal:disp_buf_first <- $r6
	@DEBUG_VALUE: map_normal:mask_res <- $r4
	@DEBUG_VALUE: map_normal:map_w <- [DW_OP_plus_uconst 56] [$sp+0]
	@DEBUG_VALUE: map_normal:draw_area_h <- [DW_OP_plus_uconst 52] [$sp+0]
	@DEBUG_VALUE: map_normal:draw_area_w <- [DW_OP_plus_uconst 48] [$sp+0]
	@DEBUG_VALUE: map_normal:mask <- [DW_OP_plus_uconst 44] [$sp+0]
	@DEBUG_VALUE: map_normal:draw_area <- [DW_OP_plus_uconst 60, DW_OP_stack_value] $sp
	@DEBUG_VALUE: _lv_blend_map:map_area <- [DW_OP_LLVM_entry_value 1] $r1
	.loc	8 796 12 is_stmt 1              @ ../GUILib/src/draw/lv_draw_blend.c:796:12
	ldr	r0, [sp, #108]
	str.w	lr, [sp, #40]                   @ 4-byte Spill
	cmp	r0, #253
	bls.w	.LBB1_113
.Ltmp556:
@ %bb.48:
	@DEBUG_VALUE: map_normal:map_buf_first <- $r11
	@DEBUG_VALUE: map_normal:map_buf <- $r10
	@DEBUG_VALUE: _lv_blend_map:map_buf <- $r10
	@DEBUG_VALUE: map_normal:disp_w <- $r7
	@DEBUG_VALUE: map_normal:disp_buf_first <- $r6
	@DEBUG_VALUE: map_normal:mask_res <- $r4
	@DEBUG_VALUE: map_normal:map_w <- [DW_OP_plus_uconst 56] [$sp+0]
	@DEBUG_VALUE: map_normal:draw_area_h <- [DW_OP_plus_uconst 52] [$sp+0]
	@DEBUG_VALUE: map_normal:draw_area_w <- [DW_OP_plus_uconst 48] [$sp+0]
	@DEBUG_VALUE: map_normal:mask <- [DW_OP_plus_uconst 44] [$sp+0]
	@DEBUG_VALUE: map_normal:draw_area <- [DW_OP_plus_uconst 60, DW_OP_stack_value] $sp
	@DEBUG_VALUE: _lv_blend_map:map_area <- [DW_OP_LLVM_entry_value 1] $r1
	@DEBUG_VALUE: map_normal:mask <- [DW_OP_plus_uconst 44] [$sp+0]
	@DEBUG_VALUE: map_normal:disp_buf_first <- $r6
	@DEBUG_VALUE: map_normal:map_buf_first <- $r11
	@DEBUG_VALUE: map_normal:y <- 0
	@DEBUG_VALUE: x_end4 <- undef
	.loc	8 801 13                        @ ../GUILib/src/draw/lv_draw_blend.c:801:13
	ldr	r0, [sp, #52]                   @ 4-byte Reload
	cmp	r0, #1
	blt.w	.LBB1_33
.Ltmp557:
@ %bb.49:
	@DEBUG_VALUE: map_normal:map_buf_first <- $r11
	@DEBUG_VALUE: map_normal:map_buf <- $r10
	@DEBUG_VALUE: _lv_blend_map:map_buf <- $r10
	@DEBUG_VALUE: map_normal:disp_w <- $r7
	@DEBUG_VALUE: map_normal:disp_buf_first <- $r6
	@DEBUG_VALUE: map_normal:mask_res <- $r4
	@DEBUG_VALUE: map_normal:map_w <- [DW_OP_plus_uconst 56] [$sp+0]
	@DEBUG_VALUE: map_normal:draw_area_h <- [DW_OP_plus_uconst 52] [$sp+0]
	@DEBUG_VALUE: map_normal:draw_area_w <- [DW_OP_plus_uconst 48] [$sp+0]
	@DEBUG_VALUE: map_normal:mask <- [DW_OP_plus_uconst 44] [$sp+0]
	@DEBUG_VALUE: map_normal:draw_area <- [DW_OP_plus_uconst 60, DW_OP_stack_value] $sp
	@DEBUG_VALUE: map_normal:y <- 0
	@DEBUG_VALUE: _lv_blend_map:map_area <- [DW_OP_LLVM_entry_value 1] $r1
	.loc	8 0 13 is_stmt 0                @ ../GUILib/src/draw/lv_draw_blend.c:0:13
	mov	r1, r7
	.loc	8 801 13                        @ ../GUILib/src/draw/lv_draw_blend.c:801:13
	lsl.w	lr, r1, #1
	ldr	r1, [sp, #56]                   @ 4-byte Reload
	mov	r4, r10
.Ltmp558:
	@DEBUG_VALUE: _lv_blend_map:map_buf <- $r4
	lsls	r0, r1, #1
	str	r0, [sp, #28]                   @ 4-byte Spill
	adds	r0, r5, r2
	sub.w	r0, r0, r9
	mla	r0, r0, r1, r3
	ldr	r1, [sp, #44]                   @ 4-byte Reload
	add	r0, r8
	add.w	r9, r1, #1
	ldr	r1, [sp, #40]                   @ 4-byte Reload
	movw	r7, #63519
.Ltmp559:
	subs	r0, r0, r1
	add.w	r0, r4, r0, lsl #1
	sub.w	r10, r12, #4
.Ltmp560:
	@DEBUG_VALUE: x_end4 <- $r10
	.loc	8 0 13                          @ ../GUILib/src/draw/lv_draw_blend.c:0:13
	movt	r7, #2016
	.loc	8 801 13                        @ ../GUILib/src/draw/lv_draw_blend.c:801:13
	add.w	r8, r0, #6
	movs	r3, #0
	str.w	lr, [sp, #16]                   @ 4-byte Spill
.Ltmp561:
.LBB1_50:                               @ =>This Loop Header: Depth=1
                                        @     Child Loop BB1_53 Depth 2
                                        @     Child Loop BB1_64 Depth 2
                                        @     Child Loop BB1_89 Depth 2
	@DEBUG_VALUE: map_normal:map_w <- [DW_OP_plus_uconst 56] [$sp+0]
	@DEBUG_VALUE: map_normal:draw_area_h <- [DW_OP_plus_uconst 52] [$sp+0]
	@DEBUG_VALUE: map_normal:draw_area_w <- [DW_OP_plus_uconst 48] [$sp+0]
	@DEBUG_VALUE: map_normal:mask <- [DW_OP_plus_uconst 44] [$sp+0]
	@DEBUG_VALUE: map_normal:draw_area <- [DW_OP_plus_uconst 60, DW_OP_stack_value] $sp
	@DEBUG_VALUE: _lv_blend_map:map_area <- [DW_OP_LLVM_entry_value 1] $r1
	@DEBUG_VALUE: map_normal:mask <- [DW_OP_plus_uconst 44] [$sp+0]
	@DEBUG_VALUE: map_normal:disp_buf_first <- $r6
	@DEBUG_VALUE: map_normal:map_buf_first <- $r11
	@DEBUG_VALUE: map_normal:y <- $r3
	@DEBUG_VALUE: map_normal:x <- 0
	@DEBUG_VALUE: mask_tmp_x <- [DW_OP_plus_uconst 44] [$sp+0]
	.loc	8 808 17 is_stmt 1              @ ../GUILib/src/draw/lv_draw_blend.c:808:17
	cmp.w	r12, #1
	mov.w	r2, #0
	str	r3, [sp, #32]                   @ 4-byte Spill
.Ltmp562:
	@DEBUG_VALUE: map_normal:y <- [DW_OP_plus_uconst 32] [$sp+0]
	@DEBUG_VALUE: map_normal:y <- [DW_OP_plus_uconst 32] [$sp+0]
	blt	.LBB1_61
.Ltmp563:
@ %bb.51:                               @   in Loop: Header=BB1_50 Depth=1
	@DEBUG_VALUE: map_normal:y <- [DW_OP_plus_uconst 32] [$sp+0]
	@DEBUG_VALUE: map_normal:map_buf_first <- $r11
	@DEBUG_VALUE: map_normal:disp_buf_first <- $r6
	@DEBUG_VALUE: mask_tmp_x <- [DW_OP_plus_uconst 44] [$sp+0]
	@DEBUG_VALUE: map_normal:map_w <- [DW_OP_plus_uconst 56] [$sp+0]
	@DEBUG_VALUE: map_normal:draw_area_h <- [DW_OP_plus_uconst 52] [$sp+0]
	@DEBUG_VALUE: map_normal:draw_area_w <- [DW_OP_plus_uconst 48] [$sp+0]
	@DEBUG_VALUE: map_normal:mask <- [DW_OP_plus_uconst 44] [$sp+0]
	@DEBUG_VALUE: map_normal:draw_area <- [DW_OP_plus_uconst 60, DW_OP_stack_value] $sp
	@DEBUG_VALUE: map_normal:x <- 0
	@DEBUG_VALUE: _lv_blend_map:map_area <- [DW_OP_LLVM_entry_value 1] $r1
	.loc	8 0 17 is_stmt 0                @ ../GUILib/src/draw/lv_draw_blend.c:0:17
	ldr	r4, [sp, #44]                   @ 4-byte Reload
.Ltmp564:
	@DEBUG_VALUE: _lv_blend_map:map_buf <- [DW_OP_LLVM_entry_value 1] $r2
	ands	r0, r4, #3
.Ltmp565:
	mov	r5, r4
.Ltmp566:
	.loc	8 808 17                        @ ../GUILib/src/draw/lv_draw_blend.c:808:17
	beq	.LBB1_62
.Ltmp567:
@ %bb.52:                               @   in Loop: Header=BB1_50 Depth=1
	@DEBUG_VALUE: map_normal:y <- [DW_OP_plus_uconst 32] [$sp+0]
	@DEBUG_VALUE: map_normal:map_buf_first <- $r11
	@DEBUG_VALUE: map_normal:disp_buf_first <- $r6
	@DEBUG_VALUE: mask_tmp_x <- [DW_OP_plus_uconst 44] [$sp+0]
	@DEBUG_VALUE: map_normal:map_w <- [DW_OP_plus_uconst 56] [$sp+0]
	@DEBUG_VALUE: map_normal:draw_area_h <- [DW_OP_plus_uconst 52] [$sp+0]
	@DEBUG_VALUE: map_normal:draw_area_w <- [DW_OP_plus_uconst 48] [$sp+0]
	@DEBUG_VALUE: map_normal:mask <- [DW_OP_plus_uconst 44] [$sp+0]
	@DEBUG_VALUE: map_normal:draw_area <- [DW_OP_plus_uconst 60, DW_OP_stack_value] $sp
	@DEBUG_VALUE: map_normal:x <- 0
	@DEBUG_VALUE: _lv_blend_map:map_area <- [DW_OP_LLVM_entry_value 1] $r1
	.loc	8 0 17                          @ ../GUILib/src/draw/lv_draw_blend.c:0:17
	movs	r3, #0
.Ltmp568:
	.p2align	2
.LBB1_53:                               @   Parent Loop BB1_50 Depth=1
                                        @ =>  This Inner Loop Header: Depth=2
	@DEBUG_VALUE: map_normal:y <- [DW_OP_plus_uconst 32] [$sp+0]
	@DEBUG_VALUE: map_normal:map_buf_first <- $r11
	@DEBUG_VALUE: map_normal:disp_buf_first <- $r6
	@DEBUG_VALUE: map_normal:map_w <- [DW_OP_plus_uconst 56] [$sp+0]
	@DEBUG_VALUE: map_normal:draw_area_h <- [DW_OP_plus_uconst 52] [$sp+0]
	@DEBUG_VALUE: map_normal:draw_area_w <- [DW_OP_plus_uconst 48] [$sp+0]
	@DEBUG_VALUE: map_normal:mask <- [DW_OP_plus_uconst 44] [$sp+0]
	@DEBUG_VALUE: map_normal:draw_area <- [DW_OP_plus_uconst 60, DW_OP_stack_value] $sp
	@DEBUG_VALUE: _lv_blend_map:map_area <- [DW_OP_LLVM_entry_value 1] $r1
	@DEBUG_VALUE: map_normal:x <- $r3
	@DEBUG_VALUE: mask_tmp_x <- undef
	.loc	8 812 21 is_stmt 1              @ ../GUILib/src/draw/lv_draw_blend.c:812:21
	ldrb	r0, [r4, r3]
.Ltmp569:
	.loc	8 812 21 is_stmt 0              @ ../GUILib/src/draw/lv_draw_blend.c:812:21
	cbz	r0, .LBB1_58
.Ltmp570:
@ %bb.54:                               @   in Loop: Header=BB1_53 Depth=2
	@DEBUG_VALUE: map_normal:y <- [DW_OP_plus_uconst 32] [$sp+0]
