	.text
	.syntax unified
	.eabi_attribute	67, "2.09"	@ Tag_conformance
	.cpu	cortex-m4
	.eabi_attribute	6, 13	@ Tag_CPU_arch
	.eabi_attribute	7, 77	@ Tag_CPU_arch_profile
	.eabi_attribute	8, 0	@ Tag_ARM_ISA_use
	.eabi_attribute	9, 2	@ Tag_THUMB_ISA_use
	.fpu	fpv4-sp-d16
	.eabi_attribute	27, 1	@ Tag_ABI_HardFP_use
	.eabi_attribute	36, 1	@ Tag_FP_HP_extension
	.eabi_attribute	34, 1	@ Tag_CPU_unaligned_access
	.eabi_attribute	17, 1	@ Tag_ABI_PCS_GOT_use
	.eabi_attribute	20, 2	@ Tag_ABI_FP_denormal
	.eabi_attribute	21, 0	@ Tag_ABI_FP_exceptions
	.eabi_attribute	23, 1	@ Tag_ABI_FP_number_model
	.eabi_attribute	24, 1	@ Tag_ABI_align_needed
	.eabi_attribute	25, 1	@ Tag_ABI_align_preserved
	.eabi_attribute	28, 1	@ Tag_ABI_VFP_args
	.eabi_attribute	38, 1	@ Tag_ABI_FP_16bit_format
	.eabi_attribute	18, 2	@ Tag_ABI_PCS_wchar_t
	.eabi_attribute	26, 1	@ Tag_ABI_enum_size
	.eabi_attribute	14, 0	@ Tag_ABI_PCS_R9_use
	.file	"lv_font_loader.c"
	.file	1 "C:\\Users\\Hyacincher\\Desktop\\HyTelectrl\\Code\\Project" "../GUILib/src/font/../misc/lv_fs.h"
	.file	2 "C:\\Users\\Hyacincher\\Desktop\\HyTelectrl\\Code\\Project" "../GUILib/src/font/lv_font_fmt_txt.h"
	.file	3 "D:\\Keil MDK\\ARM\\ARMCLANG\\Bin\\..\\include" "stdint.h"
	.section	.text.lv_font_load,"ax",%progbits
	.hidden	lv_font_load                    @ -- Begin function lv_font_load
	.globl	lv_font_load
	.p2align	2
	.type	lv_font_load,%function
	.code	16                              @ @lv_font_load
	.thumb_func
lv_font_load:
.Lfunc_begin0:
	.file	4 "C:\\Users\\Hyacincher\\Desktop\\HyTelectrl\\Code\\Project" "../GUILib/src/font/lv_font_loader.c"
	.loc	4 87 0                          @ ../GUILib/src/font/lv_font_loader.c:87:0
	.fnstart
	.cfi_sections .debug_frame
	.cfi_startproc
@ %bb.0:
	@DEBUG_VALUE: lv_font_load:font_name <- $r0
	.save	{r4, r5, r6, r7, r8, r9, r10, r11, lr}
	push.w	{r4, r5, r6, r7, r8, r9, r10, r11, lr}
	.cfi_def_cfa_offset 36
	.cfi_offset lr, -4
	.cfi_offset r11, -8
	.cfi_offset r10, -12
	.cfi_offset r9, -16
	.cfi_offset r8, -20
	.cfi_offset r7, -24
	.cfi_offset r6, -28
	.cfi_offset r5, -32
	.cfi_offset r4, -36
	.pad	#100
	sub	sp, #100
	.cfi_def_cfa_offset 136
	mov	r1, r0
.Ltmp0:
	@DEBUG_VALUE: lv_font_load:font_name <- $r1
	add	r0, sp, #36
	@DEBUG_VALUE: lv_font_load:font_name <- $r1
.Ltmp1:
	.loc	4 89 23 prologue_end            @ ../GUILib/src/font/lv_font_loader.c:89:23
	movs	r2, #2
	bl	lv_fs_open
.Ltmp2:
	@DEBUG_VALUE: lv_font_load:res <- $r0
	.loc	4 90 8                          @ ../GUILib/src/font/lv_font_loader.c:90:8
	cbz	r0, .LBB0_2
.Ltmp3:
@ %bb.1:
	@DEBUG_VALUE: lv_font_load:res <- $r0
	.loc	4 0 8 is_stmt 0                 @ ../GUILib/src/font/lv_font_loader.c:0:8
	movs	r4, #0
	b	.LBB0_8
.Ltmp4:
.LBB0_2:
	@DEBUG_VALUE: lv_font_load:res <- $r0
	.loc	4 93 24 is_stmt 1               @ ../GUILib/src/font/lv_font_loader.c:93:24
	movs	r0, #24
.Ltmp5:
	bl	lv_mem_alloc
.Ltmp6:
	@DEBUG_VALUE: lv_font_load:font <- $r0
	.loc	4 94 8                          @ ../GUILib/src/font/lv_font_loader.c:94:8
	cbz	r0, .LBB0_6
.Ltmp7:
@ %bb.3:
	@DEBUG_VALUE: lv_font_load:font <- $r0
	.loc	4 95 9                          @ ../GUILib/src/font/lv_font_loader.c:95:9
	movs	r1, #24
.Ltmp8:
	.loc	4 0 0 is_stmt 0                 @ ../GUILib/src/font/lv_font_loader.c:0:0
	mov	r4, r0
.Ltmp9:
	@DEBUG_VALUE: lv_font_load:font <- $r4
	.loc	4 95 9                          @ ../GUILib/src/font/lv_font_loader.c:95:9
	bl	__aeabi_memclr4
.Ltmp10:
	@DEBUG_VALUE: lvgl_load_font:font <- $r4
	@DEBUG_VALUE: lvgl_load_font:fp <- [DW_OP_plus_uconst 36, DW_OP_stack_value] $sp
	.loc	4 486 40 is_stmt 1              @ ../GUILib/src/font/lv_font_loader.c:486:40
	movs	r0, #24
	bl	lv_mem_alloc
.Ltmp11:
	.loc	4 488 5                         @ ../GUILib/src/font/lv_font_loader.c:488:5
	movs	r1, #24
	.loc	4 486 40                        @ ../GUILib/src/font/lv_font_loader.c:486:40
	mov	r5, r0
.Ltmp12:
	@DEBUG_VALUE: lvgl_load_font:font_dsc <- $r5
	.loc	4 488 5                         @ ../GUILib/src/font/lv_font_loader.c:488:5
	bl	__aeabi_memclr4
.Ltmp13:
	.loc	4 493 29                        @ ../GUILib/src/font/lv_font_loader.c:493:29
	adr.w	r2, .LCPI0_0
	add	r0, sp, #36
	movs	r1, #0
	.loc	4 490 15                        @ ../GUILib/src/font/lv_font_loader.c:490:15
	str	r5, [r4, #16]
	.loc	4 493 29                        @ ../GUILib/src/font/lv_font_loader.c:493:29
	bl	read_label
.Ltmp14:
	@DEBUG_VALUE: lvgl_load_font:header_length <- $r0
	.loc	4 494 8                         @ ../GUILib/src/font/lv_font_loader.c:494:8
	cmp	r0, #0
	bmi	.LBB0_5
.Ltmp15:
@ %bb.4:
	@DEBUG_VALUE: lvgl_load_font:font_dsc <- $r5
	@DEBUG_VALUE: lvgl_load_font:font <- $r4
	@DEBUG_VALUE: lv_font_load:font <- $r4
	@DEBUG_VALUE: lvgl_load_font:header_length <- $r0
	@DEBUG_VALUE: lvgl_load_font:fp <- [DW_OP_plus_uconst 36, DW_OP_stack_value] $sp
	.loc	4 0 0 is_stmt 0                 @ ../GUILib/src/font/lv_font_loader.c:0:0
	mov	r6, r0
.Ltmp16:
	@DEBUG_VALUE: lvgl_load_font:header_length <- $r6
	@DEBUG_VALUE: lvgl_load_font:header_length <- $r6
	add	r0, sp, #36
	add	r1, sp, #48
.Ltmp17:
	.loc	4 499 8 is_stmt 1               @ ../GUILib/src/font/lv_font_loader.c:499:8
	movs	r2, #40
	movs	r3, #0
	bl	lv_fs_read
.Ltmp18:
	.loc	4 499 8 is_stmt 0               @ ../GUILib/src/font/lv_font_loader.c:499:8
	cbz	r0, .LBB0_9
.Ltmp19:
.LBB0_5:
	@DEBUG_VALUE: lv_font_load:font <- $r4
	.loc	4 103 13 is_stmt 1              @ ../GUILib/src/font/lv_font_loader.c:103:13
	mov	r0, r4
	bl	lv_font_free
.Ltmp20:
.LBB0_6:
	.loc	4 0 13 is_stmt 0                @ ../GUILib/src/font/lv_font_loader.c:0:13
	movs	r4, #0
.Ltmp21:
	@DEBUG_VALUE: lv_font_load:font <- 0
.LBB0_7:
	@DEBUG_VALUE: lv_font_load:font <- $r4
	add	r0, sp, #36
	.loc	4 108 5 is_stmt 1               @ ../GUILib/src/font/lv_font_loader.c:108:5
	bl	lv_fs_close
.Ltmp22:
.LBB0_8:
	.loc	4 111 1                         @ ../GUILib/src/font/lv_font_loader.c:111:1
	mov	r0, r4
	add	sp, #100
	pop.w	{r4, r5, r6, r7, r8, r9, r10, r11, pc}
.LBB0_9:
.Ltmp23:
	@DEBUG_VALUE: lvgl_load_font:header_length <- $r6
	@DEBUG_VALUE: lvgl_load_font:font_dsc <- $r5
	@DEBUG_VALUE: lvgl_load_font:font <- $r4
	@DEBUG_VALUE: lv_font_load:font <- $r4
	@DEBUG_VALUE: lvgl_load_font:fp <- [DW_OP_plus_uconst 36, DW_OP_stack_value] $sp
	.loc	4 503 36                        @ ../GUILib/src/font/lv_font_loader.c:503:36
	ldrh.w	r0, [sp, #58]
	.loc	4 504 37                        @ ../GUILib/src/font/lv_font_loader.c:504:37
	ldrh.w	r2, [sp, #56]
	.loc	4 503 23                        @ ../GUILib/src/font/lv_font_loader.c:503:23
	rsbs	r1, r0, #0
	.loc	4 504 44                        @ ../GUILib/src/font/lv_font_loader.c:504:44
	subs	r0, r2, r0
	.loc	4 503 21                        @ ../GUILib/src/font/lv_font_loader.c:503:21
	strh	r1, [r4, #10]
	.loc	4 504 23                        @ ../GUILib/src/font/lv_font_loader.c:504:23
	strh	r0, [r4, #8]
	.loc	4 505 25                        @ ../GUILib/src/font/lv_font_loader.c:505:25
	movw	r0, :lower16:lv_font_get_glyph_dsc_fmt_txt
	.loc	4 506 28                        @ ../GUILib/src/font/lv_font_loader.c:506:28
	movw	r1, :lower16:lv_font_get_bitmap_fmt_txt
	.loc	4 505 25                        @ ../GUILib/src/font/lv_font_loader.c:505:25
	movt	r0, :upper16:lv_font_get_glyph_dsc_fmt_txt
	.loc	4 506 28                        @ ../GUILib/src/font/lv_font_loader.c:506:28
	movt	r1, :upper16:lv_font_get_bitmap_fmt_txt
	.loc	4 505 25                        @ ../GUILib/src/font/lv_font_loader.c:505:25
	strd	r0, r1, [r4]
	.loc	4 507 31                        @ ../GUILib/src/font/lv_font_loader.c:507:31
	ldrb.w	r0, [sp, #82]
	.loc	4 507 17 is_stmt 0              @ ../GUILib/src/font/lv_font_loader.c:507:17
	ldrb	r1, [r4, #12]
	and	r0, r0, #3
	and	r1, r1, #252
	add	r0, r1
	strb	r0, [r4, #12]
	.loc	4 508 44 is_stmt 1              @ ../GUILib/src/font/lv_font_loader.c:508:44
	ldrb.w	r1, [sp, #84]
	.loc	4 509 45                        @ ../GUILib/src/font/lv_font_loader.c:509:45
	ldrb.w	r2, [sp, #86]
	.loc	4 511 33                        @ ../GUILib/src/font/lv_font_loader.c:511:33
	ldrb.w	r0, [sp, #77]
	.loc	4 508 30                        @ ../GUILib/src/font/lv_font_loader.c:508:30
	strb	r1, [r4, #13]
	.loc	4 509 31                        @ ../GUILib/src/font/lv_font_loader.c:509:31
	strb	r2, [r4, #14]
	.loc	4 511 19                        @ ../GUILib/src/font/lv_font_loader.c:511:19
	ldrh	r1, [r5, #18]
	and	r0, r0, #15
	bic	r1, r1, #7680
	orr.w	r0, r1, r0, lsl #9
	strh	r0, [r5, #18]
	.loc	4 512 40                        @ ../GUILib/src/font/lv_font_loader.c:512:40
	ldrh.w	r1, [sp, #72]
	.loc	4 513 29                        @ ../GUILib/src/font/lv_font_loader.c:513:29
	bfc	r0, #14, #18
	.loc	4 512 26                        @ ../GUILib/src/font/lv_font_loader.c:512:26
	strh	r1, [r5, #16]
	.loc	4 513 29                        @ ../GUILib/src/font/lv_font_loader.c:513:29
	ldrb.w	r1, [sp, #81]
.Ltmp24:
	.loc	4 311 28                        @ ../GUILib/src/font/lv_font_loader.c:311:28
	adr.w	r2, .LCPI0_1
.Ltmp25:
	.loc	4 513 29                        @ ../GUILib/src/font/lv_font_loader.c:513:29
	orr.w	r0, r0, r1, lsl #14
	strh	r0, [r5, #18]
.Ltmp26:
	@DEBUG_VALUE: load_cmaps:cmaps_start <- $r6
	@DEBUG_VALUE: load_cmaps:font_dsc <- $r5
	@DEBUG_VALUE: load_cmaps:fp <- [DW_OP_plus_uconst 36, DW_OP_stack_value] $sp
	@DEBUG_VALUE: lvgl_load_font:cmaps_start <- $r6
	.loc	4 0 29 is_stmt 0                @ ../GUILib/src/font/lv_font_loader.c:0:29
	add	r0, sp, #36
.Ltmp27:
	.loc	4 311 28 is_stmt 1              @ ../GUILib/src/font/lv_font_loader.c:311:28
	mov	r1, r6
	bl	read_label
.Ltmp28:
	@DEBUG_VALUE: load_cmaps:cmaps_length <- $r0
	.loc	4 312 8                         @ ../GUILib/src/font/lv_font_loader.c:312:8
	cmp	r0, #0
	bmi	.LBB0_5
.Ltmp29:
@ %bb.10:
	@DEBUG_VALUE: lvgl_load_font:cmaps_start <- $r6
	@DEBUG_VALUE: load_cmaps:cmaps_start <- $r6
	@DEBUG_VALUE: lvgl_load_font:header_length <- $r6
	@DEBUG_VALUE: load_cmaps:font_dsc <- $r5
	@DEBUG_VALUE: lvgl_load_font:font_dsc <- $r5
	@DEBUG_VALUE: lvgl_load_font:font <- $r4
	@DEBUG_VALUE: lv_font_load:font <- $r4
	@DEBUG_VALUE: load_cmaps:cmaps_length <- $r0
	@DEBUG_VALUE: load_cmaps:fp <- [DW_OP_plus_uconst 36, DW_OP_stack_value] $sp
	@DEBUG_VALUE: lvgl_load_font:fp <- [DW_OP_plus_uconst 36, DW_OP_stack_value] $sp
	.loc	4 0 0 is_stmt 0                 @ ../GUILib/src/font/lv_font_loader.c:0:0
	mov	r7, r0
.Ltmp30:
	@DEBUG_VALUE: load_cmaps:cmaps_length <- $r7
	@DEBUG_VALUE: load_cmaps:cmaps_length <- $r7
	@DEBUG_VALUE: load_cmaps:cmaps_subtables_count <- [DW_OP_plus_uconst 88, DW_OP_deref] $sp
	add	r0, sp, #36
	add	r1, sp, #88
.Ltmp31:
	.loc	4 317 8 is_stmt 1               @ ../GUILib/src/font/lv_font_loader.c:317:8
	movs	r2, #4
	movs	r3, #0
	bl	lv_fs_read
.Ltmp32:
	.loc	4 317 8 is_stmt 0               @ ../GUILib/src/font/lv_font_loader.c:317:8
	cmp	r0, #0
	bne	.LBB0_5
.Ltmp33:
@ %bb.11:
	@DEBUG_VALUE: load_cmaps:cmaps_length <- $r7
	@DEBUG_VALUE: lvgl_load_font:cmaps_start <- $r6
	@DEBUG_VALUE: load_cmaps:cmaps_start <- $r6
	@DEBUG_VALUE: lvgl_load_font:header_length <- $r6
	@DEBUG_VALUE: load_cmaps:font_dsc <- $r5
	@DEBUG_VALUE: lvgl_load_font:font_dsc <- $r5
	@DEBUG_VALUE: lvgl_load_font:font <- $r4
	@DEBUG_VALUE: lv_font_load:font <- $r4
	@DEBUG_VALUE: load_cmaps:cmaps_subtables_count <- [DW_OP_plus_uconst 88, DW_OP_deref] $sp
	@DEBUG_VALUE: load_cmaps:fp <- [DW_OP_plus_uconst 36, DW_OP_stack_value] $sp
	@DEBUG_VALUE: lvgl_load_font:fp <- [DW_OP_plus_uconst 36, DW_OP_stack_value] $sp
	.loc	4 322 22 is_stmt 1              @ ../GUILib/src/font/lv_font_loader.c:322:22
	ldr	r0, [sp, #88]
.Ltmp34:
	@DEBUG_VALUE: load_cmaps:cmaps_subtables_count <- $r0
	.loc	4 0 22 is_stmt 0                @ ../GUILib/src/font/lv_font_loader.c:0:22
	str	r7, [sp, #24]                   @ 4-byte Spill
.Ltmp35:
	@DEBUG_VALUE: load_cmaps:cmaps_length <- [DW_OP_plus_uconst 24] [$sp+0]
	.loc	4 322 44                        @ ../GUILib/src/font/lv_font_loader.c:322:44
	add.w	r0, r0, r0, lsl #2
.Ltmp36:
	lsls	r0, r0, #2
	.loc	4 322 9                         @ ../GUILib/src/font/lv_font_loader.c:322:9
	bl	lv_mem_alloc
.Ltmp37:
	.loc	4 324 22 is_stmt 1              @ ../GUILib/src/font/lv_font_loader.c:324:22
	ldr	r1, [sp, #88]
.Ltmp38:
	@DEBUG_VALUE: load_cmaps:cmaps_subtables_count <- $r1
	.loc	4 322 9                         @ ../GUILib/src/font/lv_font_loader.c:322:9
	mov	r7, r0
.Ltmp39:
	@DEBUG_VALUE: load_cmaps:cmaps <- $r7
	.loc	4 324 44                        @ ../GUILib/src/font/lv_font_loader.c:324:44
	add.w	r0, r1, r1, lsl #2
	lsls	r1, r0, #2
.Ltmp40:
	.loc	4 324 5 is_stmt 0               @ ../GUILib/src/font/lv_font_loader.c:324:5
	mov	r0, r7
	bl	__aeabi_memclr4
.Ltmp41:
	.loc	4 327 26 is_stmt 1              @ ../GUILib/src/font/lv_font_loader.c:327:26
	ldrh.w	r0, [sp, #88]
.Ltmp42:
	@DEBUG_VALUE: load_cmaps:cmaps_subtables_count <- undef
	.loc	4 327 24 is_stmt 0              @ ../GUILib/src/font/lv_font_loader.c:327:24
	ldrh	r1, [r5, #18]
	bfc	r0, #9, #23
	and	r1, r1, #65024
	add	r1, r0
	.loc	4 329 77 is_stmt 1              @ ../GUILib/src/font/lv_font_loader.c:329:77
	lsls	r0, r0, #4
	.loc	4 326 21                        @ ../GUILib/src/font/lv_font_loader.c:326:21
	str	r7, [r5, #8]
	.loc	4 327 24                        @ ../GUILib/src/font/lv_font_loader.c:327:24
	strh	r1, [r5, #18]
	.loc	4 329 39                        @ ../GUILib/src/font/lv_font_loader.c:329:39
	bl	lv_mem_alloc
.Ltmp43:
	mov	r3, r0
.Ltmp44:
	@DEBUG_VALUE: load_cmaps_tables:cmaps_start <- undef
	@DEBUG_VALUE: load_cmaps:cmaps_tables <- $r3
	.loc	4 245 45                        @ ../GUILib/src/font/lv_font_loader.c:245:45
	ldrh	r0, [r5, #18]
	movw	r1, #8176
	.loc	4 245 54 is_stmt 0              @ ../GUILib/src/font/lv_font_loader.c:245:54
	and.w	r2, r1, r0, lsl #4
	add	r0, sp, #36
	mov	r1, r3
.Ltmp45:
	@DEBUG_VALUE: load_cmaps_tables:cmap_table <- $r1
	@DEBUG_VALUE: load_cmaps:cmaps_tables <- $r1
	.loc	4 245 8                         @ ../GUILib/src/font/lv_font_loader.c:245:8
	str	r3, [sp, #28]                   @ 4-byte Spill
.Ltmp46:
	@DEBUG_VALUE: load_cmaps_tables:cmap_table <- [DW_OP_plus_uconst 28] [$sp+0]
	@DEBUG_VALUE: load_cmaps:cmaps_tables <- [DW_OP_plus_uconst 28] [$sp+0]
	movs	r3, #0
	str	r5, [sp, #32]                   @ 4-byte Spill
.Ltmp47:
	@DEBUG_VALUE: lvgl_load_font:font_dsc <- [DW_OP_plus_uconst 32] [$sp+0]
	@DEBUG_VALUE: load_cmaps_tables:font_dsc <- [DW_OP_plus_uconst 32] [$sp+0]
	@DEBUG_VALUE: load_cmaps_tables:fp <- [DW_OP_plus_uconst 36, DW_OP_stack_value] $sp
	@DEBUG_VALUE: load_cmaps_tables:cmap_table <- $r3
	bl	lv_fs_read
.Ltmp48:
	.loc	4 245 8                         @ ../GUILib/src/font/lv_font_loader.c:245:8
	cbz	r0, .LBB0_13
.Ltmp49:
.LBB0_12:
	@DEBUG_VALUE: lvgl_load_font:font <- $r4
	@DEBUG_VALUE: lv_font_load:font <- $r4
	@DEBUG_VALUE: lvgl_load_font:fp <- [DW_OP_plus_uconst 36, DW_OP_stack_value] $sp
	@DEBUG_VALUE: load_cmaps:success <- [DW_OP_LLVM_convert 1 7, DW_OP_LLVM_convert 8 7, DW_OP_stack_value] -1
	.loc	4 0 0                           @ ../GUILib/src/font/lv_font_loader.c:0:0
	ldr	r0, [sp, #28]                   @ 4-byte Reload
	bl	lv_mem_free
.Ltmp50:
	b	.LBB0_5
.Ltmp51:
.LBB0_13:
	@DEBUG_VALUE: lvgl_load_font:font_dsc <- [DW_OP_plus_uconst 32] [$sp+0]
	@DEBUG_VALUE: load_cmaps:cmaps_length <- [DW_OP_plus_uconst 24] [$sp+0]
	@DEBUG_VALUE: load_cmaps:cmaps <- $r7
	@DEBUG_VALUE: lvgl_load_font:cmaps_start <- $r6
	@DEBUG_VALUE: load_cmaps:cmaps_start <- $r6
	@DEBUG_VALUE: lvgl_load_font:header_length <- $r6
	@DEBUG_VALUE: load_cmaps:font_dsc <- $r5
	@DEBUG_VALUE: lvgl_load_font:font <- $r4
	@DEBUG_VALUE: lv_font_load:font <- $r4
	@DEBUG_VALUE: load_cmaps_tables:fp <- [DW_OP_plus_uconst 36, DW_OP_stack_value] $sp
	@DEBUG_VALUE: load_cmaps_tables:font_dsc <- [DW_OP_plus_uconst 32] [$sp+0]
	@DEBUG_VALUE: load_cmaps:cmaps_tables <- [DW_OP_plus_uconst 28] [$sp+0]
	@DEBUG_VALUE: load_cmaps:fp <- [DW_OP_plus_uconst 36, DW_OP_stack_value] $sp
	@DEBUG_VALUE: lvgl_load_font:fp <- [DW_OP_plus_uconst 36, DW_OP_stack_value] $sp
	@DEBUG_VALUE: i <- 0
	ldr	r7, [sp, #32]                   @ 4-byte Reload
.Ltmp52:
	@DEBUG_VALUE: lvgl_load_font:font_dsc <- $r7
	.loc	4 249 43 is_stmt 1              @ ../GUILib/src/font/lv_font_loader.c:249:43
	ldrh	r0, [r7, #18]
.Ltmp53:
	.loc	4 249 5 is_stmt 0               @ ../GUILib/src/font/lv_font_loader.c:249:5
	lsls	r0, r0, #23
	beq	.LBB0_25
.Ltmp54:
@ %bb.14:
	@DEBUG_VALUE: load_cmaps:cmaps_length <- [DW_OP_plus_uconst 24] [$sp+0]
	@DEBUG_VALUE: lvgl_load_font:font_dsc <- $r7
	@DEBUG_VALUE: lvgl_load_font:cmaps_start <- $r6
	@DEBUG_VALUE: load_cmaps:cmaps_start <- $r6
	@DEBUG_VALUE: lvgl_load_font:header_length <- $r6
	@DEBUG_VALUE: load_cmaps:font_dsc <- $r5
	@DEBUG_VALUE: lvgl_load_font:font <- $r4
	@DEBUG_VALUE: lv_font_load:font <- $r4
	@DEBUG_VALUE: load_cmaps_tables:fp <- [DW_OP_plus_uconst 36, DW_OP_stack_value] $sp
	@DEBUG_VALUE: load_cmaps_tables:font_dsc <- [DW_OP_plus_uconst 32] [$sp+0]
	@DEBUG_VALUE: load_cmaps:cmaps_tables <- [DW_OP_plus_uconst 28] [$sp+0]
	@DEBUG_VALUE: load_cmaps:fp <- [DW_OP_plus_uconst 36, DW_OP_stack_value] $sp
	@DEBUG_VALUE: lvgl_load_font:fp <- [DW_OP_plus_uconst 36, DW_OP_stack_value] $sp
	@DEBUG_VALUE: i <- 0
	ldr	r0, [sp, #28]                   @ 4-byte Reload
	mov.w	r9, #0
	add.w	r5, r0, #8
.Ltmp55:
	.loc	4 0 5                           @ ../GUILib/src/font/lv_font_loader.c:0:5
	mov.w	r8, #12
.Ltmp56:
.LBB0_15:                               @ =>This Inner Loop Header: Depth=1
	@DEBUG_VALUE: load_cmaps:cmaps_length <- [DW_OP_plus_uconst 24] [$sp+0]
	@DEBUG_VALUE: lvgl_load_font:cmaps_start <- $r6
	@DEBUG_VALUE: load_cmaps:cmaps_start <- $r6
	@DEBUG_VALUE: lvgl_load_font:header_length <- $r6
	@DEBUG_VALUE: lvgl_load_font:font <- $r4
	@DEBUG_VALUE: lv_font_load:font <- $r4
	@DEBUG_VALUE: load_cmaps_tables:fp <- [DW_OP_plus_uconst 36, DW_OP_stack_value] $sp
	@DEBUG_VALUE: load_cmaps_tables:font_dsc <- [DW_OP_plus_uconst 32] [$sp+0]
	@DEBUG_VALUE: load_cmaps:cmaps_tables <- [DW_OP_plus_uconst 28] [$sp+0]
	@DEBUG_VALUE: load_cmaps:fp <- [DW_OP_plus_uconst 36, DW_OP_stack_value] $sp
	@DEBUG_VALUE: lvgl_load_font:fp <- [DW_OP_plus_uconst 36, DW_OP_stack_value] $sp
	@DEBUG_VALUE: i <- $r9
	.loc	4 250 70 is_stmt 1              @ ../GUILib/src/font/lv_font_loader.c:250:70
	ldr	r0, [r5, #-8]
	.loc	4 250 27 is_stmt 0              @ ../GUILib/src/font/lv_font_loader.c:250:27
	movs	r2, #0
	.loc	4 250 54                        @ ../GUILib/src/font/lv_font_loader.c:250:54
	adds	r1, r0, r6
	.loc	4 250 27                        @ ../GUILib/src/font/lv_font_loader.c:250:27
	add	r0, sp, #36
	bl	lv_fs_seek
.Ltmp57:
	@DEBUG_VALUE: res <- $r0
	.loc	4 251 12 is_stmt 1              @ ../GUILib/src/font/lv_font_loader.c:251:12
	cmp	r0, #0
	bne	.LBB0_12
.Ltmp58:
@ %bb.16:                               @   in Loop: Header=BB0_15 Depth=1
	@DEBUG_VALUE: load_cmaps:cmaps_length <- [DW_OP_plus_uconst 24] [$sp+0]
	@DEBUG_VALUE: i <- $r9
	@DEBUG_VALUE: lvgl_load_font:cmaps_start <- $r6
	@DEBUG_VALUE: load_cmaps:cmaps_start <- $r6
	@DEBUG_VALUE: lvgl_load_font:header_length <- $r6
	@DEBUG_VALUE: lvgl_load_font:font <- $r4
	@DEBUG_VALUE: lv_font_load:font <- $r4
	@DEBUG_VALUE: res <- $r0
	@DEBUG_VALUE: load_cmaps_tables:fp <- [DW_OP_plus_uconst 36, DW_OP_stack_value] $sp
	@DEBUG_VALUE: load_cmaps_tables:font_dsc <- [DW_OP_plus_uconst 32] [$sp+0]
	@DEBUG_VALUE: load_cmaps:cmaps_tables <- [DW_OP_plus_uconst 28] [$sp+0]
	@DEBUG_VALUE: load_cmaps:fp <- [DW_OP_plus_uconst 36, DW_OP_stack_value] $sp
	@DEBUG_VALUE: lvgl_load_font:fp <- [DW_OP_plus_uconst 36, DW_OP_stack_value] $sp
	.loc	4 255 81                        @ ../GUILib/src/font/lv_font_loader.c:255:81
	ldr	r0, [sp, #32]                   @ 4-byte Reload
.Ltmp59:
	ldr.w	r11, [r0, #8]
.Ltmp60:
	@DEBUG_VALUE: cmap <- undef
	.loc	4 257 43                        @ ../GUILib/src/font/lv_font_loader.c:257:43
	ldr	r0, [r5, #-4]
	.loc	4 257 27 is_stmt 0              @ ../GUILib/src/font/lv_font_loader.c:257:27
	add.w	r10, r11, r8
	str	r0, [r10, #-12]
	.loc	4 258 44 is_stmt 1              @ ../GUILib/src/font/lv_font_loader.c:258:44
	ldr	r0, [r5]
	.loc	4 258 28 is_stmt 0              @ ../GUILib/src/font/lv_font_loader.c:258:28
	str	r0, [r10, #-8]
	.loc	4 260 36 is_stmt 1              @ ../GUILib/src/font/lv_font_loader.c:260:36
	ldrb	r0, [r5, #6]
	.loc	4 262 9                         @ ../GUILib/src/font/lv_font_loader.c:262:9
	cmp	r0, #3
	.loc	4 260 20                        @ ../GUILib/src/font/lv_font_loader.c:260:20
	strb.w	r0, [r10, #6]
	.loc	4 262 9                         @ ../GUILib/src/font/lv_font_loader.c:262:9
	bhi	.LBB0_12
.Ltmp61:
@ %bb.17:                               @   in Loop: Header=BB0_15 Depth=1
	@DEBUG_VALUE: load_cmaps:cmaps_length <- [DW_OP_plus_uconst 24] [$sp+0]
	@DEBUG_VALUE: i <- $r9
	@DEBUG_VALUE: lvgl_load_font:cmaps_start <- $r6
	@DEBUG_VALUE: load_cmaps:cmaps_start <- $r6
	@DEBUG_VALUE: lvgl_load_font:header_length <- $r6
	@DEBUG_VALUE: lvgl_load_font:font <- $r4
	@DEBUG_VALUE: lv_font_load:font <- $r4
	@DEBUG_VALUE: load_cmaps_tables:fp <- [DW_OP_plus_uconst 36, DW_OP_stack_value] $sp
	@DEBUG_VALUE: load_cmaps_tables:font_dsc <- [DW_OP_plus_uconst 32] [$sp+0]
	@DEBUG_VALUE: load_cmaps:cmaps_tables <- [DW_OP_plus_uconst 28] [$sp+0]
	@DEBUG_VALUE: load_cmaps:fp <- [DW_OP_plus_uconst 36, DW_OP_stack_value] $sp
	@DEBUG_VALUE: lvgl_load_font:fp <- [DW_OP_plus_uconst 36, DW_OP_stack_value] $sp
	.loc	4 0 9 is_stmt 0                 @ ../GUILib/src/font/lv_font_loader.c:0:9
.LCPI0_4:
	tbb	[pc, r0]
.Ltmp62:
@ %bb.18:
.LJTI0_0:
	.byte	(.LBB0_22-(.LCPI0_4+4))/2
	.byte	(.LBB0_19-(.LCPI0_4+4))/2
	.byte	(.LBB0_24-(.LCPI0_4+4))/2
	.byte	(.LBB0_19-(.LCPI0_4+4))/2
	.p2align	1
.LBB0_19:                               @   in Loop: Header=BB0_15 Depth=1
.Ltmp63:
	@DEBUG_VALUE: load_cmaps:cmaps_length <- [DW_OP_plus_uconst 24] [$sp+0]
	@DEBUG_VALUE: i <- $r9
	@DEBUG_VALUE: lvgl_load_font:cmaps_start <- $r6
	@DEBUG_VALUE: load_cmaps:cmaps_start <- $r6
	@DEBUG_VALUE: lvgl_load_font:header_length <- $r6
	@DEBUG_VALUE: lvgl_load_font:font <- $r4
	@DEBUG_VALUE: lv_font_load:font <- $r4
	@DEBUG_VALUE: load_cmaps_tables:fp <- [DW_OP_plus_uconst 36, DW_OP_stack_value] $sp
	@DEBUG_VALUE: load_cmaps_tables:font_dsc <- [DW_OP_plus_uconst 32] [$sp+0]
	@DEBUG_VALUE: load_cmaps:cmaps_tables <- [DW_OP_plus_uconst 28] [$sp+0]
	@DEBUG_VALUE: load_cmaps:fp <- [DW_OP_plus_uconst 36, DW_OP_stack_value] $sp
	@DEBUG_VALUE: lvgl_load_font:fp <- [DW_OP_plus_uconst 36, DW_OP_stack_value] $sp
	.loc	4 280 75 is_stmt 1              @ ../GUILib/src/font/lv_font_loader.c:280:75
	ldrh	r0, [r5, #4]
	.loc	4 280 59 is_stmt 0              @ ../GUILib/src/font/lv_font_loader.c:280:59
	lsls	r7, r0, #1
.Ltmp64:
	@DEBUG_VALUE: list_size <- $r7
	.loc	4 281 59 is_stmt 1              @ ../GUILib/src/font/lv_font_loader.c:281:59
	mov	r0, r7
	bl	lv_mem_alloc
.Ltmp65:
	.loc	4 283 40                        @ ../GUILib/src/font/lv_font_loader.c:283:40
	str	r0, [r10, #-4]
	.loc	4 281 59                        @ ../GUILib/src/font/lv_font_loader.c:281:59
	mov	r1, r0
.Ltmp66:
	@DEBUG_VALUE: unicode_list <- $r1
	.loc	4 284 55                        @ ../GUILib/src/font/lv_font_loader.c:284:55
	ldrh	r0, [r5, #4]
.Ltmp67:
	.loc	4 286 24                        @ ../GUILib/src/font/lv_font_loader.c:286:24
	mov	r2, r7
.Ltmp68:
	.loc	4 284 39                        @ ../GUILib/src/font/lv_font_loader.c:284:39
	strh.w	r0, [r10, #4]
.Ltmp69:
	.loc	4 286 24                        @ ../GUILib/src/font/lv_font_loader.c:286:24
	add	r0, sp, #36
	movs	r3, #0
	bl	lv_fs_read
.Ltmp70:
	.loc	4 286 24 is_stmt 0              @ ../GUILib/src/font/lv_font_loader.c:286:24
	cmp	r0, #0
	bne	.LBB0_12
.Ltmp71:
@ %bb.20:                               @   in Loop: Header=BB0_15 Depth=1
	@DEBUG_VALUE: load_cmaps:cmaps_length <- [DW_OP_plus_uconst 24] [$sp+0]
	@DEBUG_VALUE: i <- $r9
	@DEBUG_VALUE: list_size <- $r7
	@DEBUG_VALUE: lvgl_load_font:cmaps_start <- $r6
	@DEBUG_VALUE: load_cmaps:cmaps_start <- $r6
	@DEBUG_VALUE: lvgl_load_font:header_length <- $r6
	@DEBUG_VALUE: lvgl_load_font:font <- $r4
	@DEBUG_VALUE: lv_font_load:font <- $r4
	@DEBUG_VALUE: load_cmaps_tables:fp <- [DW_OP_plus_uconst 36, DW_OP_stack_value] $sp
	@DEBUG_VALUE: load_cmaps_tables:font_dsc <- [DW_OP_plus_uconst 32] [$sp+0]
	@DEBUG_VALUE: load_cmaps:cmaps_tables <- [DW_OP_plus_uconst 28] [$sp+0]
	@DEBUG_VALUE: load_cmaps:fp <- [DW_OP_plus_uconst 36, DW_OP_stack_value] $sp
	@DEBUG_VALUE: lvgl_load_font:fp <- [DW_OP_plus_uconst 36, DW_OP_stack_value] $sp
	.loc	4 290 38 is_stmt 1              @ ../GUILib/src/font/lv_font_loader.c:290:38
	ldrb	r0, [r5, #6]
.Ltmp72:
	.loc	4 290 24 is_stmt 0              @ ../GUILib/src/font/lv_font_loader.c:290:24
	cmp	r0, #1
	bne	.LBB0_24
.Ltmp73:
@ %bb.21:                               @   in Loop: Header=BB0_15 Depth=1
	@DEBUG_VALUE: load_cmaps:cmaps_length <- [DW_OP_plus_uconst 24] [$sp+0]
	@DEBUG_VALUE: i <- $r9
	@DEBUG_VALUE: list_size <- $r7
	@DEBUG_VALUE: lvgl_load_font:cmaps_start <- $r6
	@DEBUG_VALUE: load_cmaps:cmaps_start <- $r6
	@DEBUG_VALUE: lvgl_load_font:header_length <- $r6
	@DEBUG_VALUE: lvgl_load_font:font <- $r4
	@DEBUG_VALUE: lv_font_load:font <- $r4
	@DEBUG_VALUE: load_cmaps_tables:fp <- [DW_OP_plus_uconst 36, DW_OP_stack_value] $sp
	@DEBUG_VALUE: load_cmaps_tables:font_dsc <- [DW_OP_plus_uconst 32] [$sp+0]
	@DEBUG_VALUE: load_cmaps:cmaps_tables <- [DW_OP_plus_uconst 28] [$sp+0]
	@DEBUG_VALUE: load_cmaps:fp <- [DW_OP_plus_uconst 36, DW_OP_stack_value] $sp
	@DEBUG_VALUE: lvgl_load_font:fp <- [DW_OP_plus_uconst 36, DW_OP_stack_value] $sp
	.loc	4 291 80 is_stmt 1              @ ../GUILib/src/font/lv_font_loader.c:291:80
	ldrh.w	r0, [r10, #4]
	.loc	4 291 72 is_stmt 0              @ ../GUILib/src/font/lv_font_loader.c:291:72
	lsls	r0, r0, #1
	.loc	4 291 42                        @ ../GUILib/src/font/lv_font_loader.c:291:42
	bl	lv_mem_alloc
.Ltmp74:
	mov	r1, r0
.Ltmp75:
	@DEBUG_VALUE: buf <- $r1
	.loc	4 295 73 is_stmt 1              @ ../GUILib/src/font/lv_font_loader.c:295:73
	ldrh.w	r0, [r10, #4]
	.loc	4 295 28 is_stmt 0              @ ../GUILib/src/font/lv_font_loader.c:295:28
	movs	r3, #0
	.loc	4 295 65                        @ ../GUILib/src/font/lv_font_loader.c:295:65
	lsls	r2, r0, #1
	.loc	4 295 28                        @ ../GUILib/src/font/lv_font_loader.c:295:28
	add	r0, sp, #36
.Ltmp76:
	.loc	4 293 49 is_stmt 1              @ ../GUILib/src/font/lv_font_loader.c:293:49
	str.w	r1, [r11, r8]
.Ltmp77:
	.loc	4 295 28                        @ ../GUILib/src/font/lv_font_loader.c:295:28
	bl	lv_fs_read
.Ltmp78:
	.loc	4 0 28 is_stmt 0                @ ../GUILib/src/font/lv_font_loader.c:0:28
	cbz	r0, .LBB0_24
	b	.LBB0_12
.Ltmp79:
.LBB0_22:                               @   in Loop: Header=BB0_15 Depth=1
	@DEBUG_VALUE: load_cmaps:cmaps_length <- [DW_OP_plus_uconst 24] [$sp+0]
	@DEBUG_VALUE: i <- $r9
	@DEBUG_VALUE: lvgl_load_font:cmaps_start <- $r6
	@DEBUG_VALUE: load_cmaps:cmaps_start <- $r6
	@DEBUG_VALUE: lvgl_load_font:header_length <- $r6
	@DEBUG_VALUE: lvgl_load_font:font <- $r4
	@DEBUG_VALUE: lv_font_load:font <- $r4
	@DEBUG_VALUE: load_cmaps_tables:fp <- [DW_OP_plus_uconst 36, DW_OP_stack_value] $sp
	@DEBUG_VALUE: load_cmaps_tables:font_dsc <- [DW_OP_plus_uconst 32] [$sp+0]
	@DEBUG_VALUE: load_cmaps:cmaps_tables <- [DW_OP_plus_uconst 28] [$sp+0]
	@DEBUG_VALUE: load_cmaps:fp <- [DW_OP_plus_uconst 36, DW_OP_stack_value] $sp
	@DEBUG_VALUE: lvgl_load_font:fp <- [DW_OP_plus_uconst 36, DW_OP_stack_value] $sp
	.loc	4 264 72 is_stmt 1              @ ../GUILib/src/font/lv_font_loader.c:264:72
	ldrb	r7, [r5, #4]
.Ltmp80:
	@DEBUG_VALUE: ids_size <- [DW_OP_LLVM_convert 16 7, DW_OP_LLVM_convert 32 7, DW_OP_stack_value] undef
	.loc	4 265 51                        @ ../GUILib/src/font/lv_font_loader.c:265:51
	mov	r0, r7
	bl	lv_mem_alloc
.Ltmp81:
	mov	r1, r0
.Ltmp82:
	@DEBUG_VALUE: glyph_id_ofs_list <- $r1
	.loc	4 267 45                        @ ../GUILib/src/font/lv_font_loader.c:267:45
	str.w	r0, [r11, r8]
.Ltmp83:
	.loc	4 269 24                        @ ../GUILib/src/font/lv_font_loader.c:269:24
	add	r0, sp, #36
	mov	r2, r7
	movs	r3, #0
	bl	lv_fs_read
.Ltmp84:
	.loc	4 269 24 is_stmt 0              @ ../GUILib/src/font/lv_font_loader.c:269:24
	cmp	r0, #0
	bne	.LBB0_12
.Ltmp85:
@ %bb.23:                               @   in Loop: Header=BB0_15 Depth=1
	@DEBUG_VALUE: load_cmaps:cmaps_length <- [DW_OP_plus_uconst 24] [$sp+0]
	@DEBUG_VALUE: i <- $r9
	@DEBUG_VALUE: lvgl_load_font:cmaps_start <- $r6
	@DEBUG_VALUE: load_cmaps:cmaps_start <- $r6
	@DEBUG_VALUE: lvgl_load_font:header_length <- $r6
	@DEBUG_VALUE: lvgl_load_font:font <- $r4
	@DEBUG_VALUE: lv_font_load:font <- $r4
	@DEBUG_VALUE: load_cmaps_tables:fp <- [DW_OP_plus_uconst 36, DW_OP_stack_value] $sp
	@DEBUG_VALUE: load_cmaps_tables:font_dsc <- [DW_OP_plus_uconst 32] [$sp+0]
	@DEBUG_VALUE: load_cmaps:cmaps_tables <- [DW_OP_plus_uconst 28] [$sp+0]
	@DEBUG_VALUE: load_cmaps:fp <- [DW_OP_plus_uconst 36, DW_OP_stack_value] $sp
	@DEBUG_VALUE: lvgl_load_font:fp <- [DW_OP_plus_uconst 36, DW_OP_stack_value] $sp
	.loc	4 273 47 is_stmt 1              @ ../GUILib/src/font/lv_font_loader.c:273:47
	ldrh	r0, [r10, #-8]
	.loc	4 273 39 is_stmt 0              @ ../GUILib/src/font/lv_font_loader.c:273:39
	strh.w	r0, [r10, #4]
.Ltmp86:
.LBB0_24:                               @   in Loop: Header=BB0_15 Depth=1
	@DEBUG_VALUE: load_cmaps:cmaps_length <- [DW_OP_plus_uconst 24] [$sp+0]
	@DEBUG_VALUE: i <- $r9
	@DEBUG_VALUE: lvgl_load_font:cmaps_start <- $r6
	@DEBUG_VALUE: load_cmaps:cmaps_start <- $r6
	@DEBUG_VALUE: lvgl_load_font:header_length <- $r6
	@DEBUG_VALUE: lvgl_load_font:font <- $r4
	@DEBUG_VALUE: lv_font_load:font <- $r4
	@DEBUG_VALUE: load_cmaps_tables:fp <- [DW_OP_plus_uconst 36, DW_OP_stack_value] $sp
	@DEBUG_VALUE: load_cmaps_tables:font_dsc <- [DW_OP_plus_uconst 32] [$sp+0]
	@DEBUG_VALUE: load_cmaps:cmaps_tables <- [DW_OP_plus_uconst 28] [$sp+0]
	@DEBUG_VALUE: load_cmaps:fp <- [DW_OP_plus_uconst 36, DW_OP_stack_value] $sp
	@DEBUG_VALUE: lvgl_load_font:fp <- [DW_OP_plus_uconst 36, DW_OP_stack_value] $sp
	.loc	4 0 39                          @ ../GUILib/src/font/lv_font_loader.c:0:39
	ldr	r7, [sp, #32]                   @ 4-byte Reload
	.loc	4 249 53 is_stmt 1              @ ../GUILib/src/font/lv_font_loader.c:249:53
	add.w	r9, r9, #1
.Ltmp87:
	@DEBUG_VALUE: i <- $r9
	.loc	4 249 43 is_stmt 0              @ ../GUILib/src/font/lv_font_loader.c:249:43
	ldrh	r0, [r7, #18]
	.loc	4 249 31                        @ ../GUILib/src/font/lv_font_loader.c:249:31
	add.w	r8, r8, #20
	.loc	4 249 33                        @ ../GUILib/src/font/lv_font_loader.c:249:33
	bfc	r0, #9, #23
.Ltmp88:
	.loc	4 249 5                         @ ../GUILib/src/font/lv_font_loader.c:249:5
	cmp	r9, r0
.Ltmp89:
	.loc	4 249 31                        @ ../GUILib/src/font/lv_font_loader.c:249:31
	add.w	r5, r5, #16
.Ltmp90:
	.loc	4 249 5                         @ ../GUILib/src/font/lv_font_loader.c:249:5
	blo	.LBB0_15
.Ltmp91:
.LBB0_25:
	@DEBUG_VALUE: load_cmaps:cmaps_length <- [DW_OP_plus_uconst 24] [$sp+0]
	@DEBUG_VALUE: lvgl_load_font:cmaps_start <- $r6
	@DEBUG_VALUE: load_cmaps:cmaps_start <- $r6
	@DEBUG_VALUE: lvgl_load_font:header_length <- $r6
	@DEBUG_VALUE: lvgl_load_font:font <- $r4
	@DEBUG_VALUE: lv_font_load:font <- $r4
	@DEBUG_VALUE: load_cmaps:cmaps_tables <- [DW_OP_plus_uconst 28] [$sp+0]
	@DEBUG_VALUE: load_cmaps:fp <- [DW_OP_plus_uconst 36, DW_OP_stack_value] $sp
	@DEBUG_VALUE: lvgl_load_font:fp <- [DW_OP_plus_uconst 36, DW_OP_stack_value] $sp
	@DEBUG_VALUE: load_cmaps:success <- [DW_OP_LLVM_convert 1 7, DW_OP_LLVM_convert 8 7, DW_OP_stack_value] -1
	.loc	4 333 5 is_stmt 1               @ ../GUILib/src/font/lv_font_loader.c:333:5
	ldr	r0, [sp, #28]                   @ 4-byte Reload
	bl	lv_mem_free
.Ltmp92:
	@DEBUG_VALUE: lvgl_load_font:cmaps_length <- [DW_OP_plus_uconst 24] [$sp+0]
	.loc	4 523 39                        @ ../GUILib/src/font/lv_font_loader.c:523:39
	ldr	r0, [sp, #24]                   @ 4-byte Reload
.Ltmp93:
	@DEBUG_VALUE: load_cmaps:cmaps_length <- $r0
	@DEBUG_VALUE: lvgl_load_font:cmaps_length <- $r0
	.loc	4 524 27                        @ ../GUILib/src/font/lv_font_loader.c:524:27
	adr.w	r2, .LCPI0_2
	.loc	4 523 39                        @ ../GUILib/src/font/lv_font_loader.c:523:39
	add.w	r10, r0, r6
.Ltmp94:
	@DEBUG_VALUE: lvgl_load_font:loca_start <- $r10
	.loc	4 0 39 is_stmt 0                @ ../GUILib/src/font/lv_font_loader.c:0:39
	add	r0, sp, #36
.Ltmp95:
	.loc	4 524 27 is_stmt 1              @ ../GUILib/src/font/lv_font_loader.c:524:27
	mov	r1, r10
	bl	read_label
.Ltmp96:
	@DEBUG_VALUE: lvgl_load_font:loca_length <- $r0
	.loc	4 525 8                         @ ../GUILib/src/font/lv_font_loader.c:525:8
	cmp	r0, #0
	bmi.w	.LBB0_5
.Ltmp97:
@ %bb.26:
	@DEBUG_VALUE: lvgl_load_font:loca_start <- $r10
	@DEBUG_VALUE: lvgl_load_font:cmaps_start <- $r6
	@DEBUG_VALUE: lvgl_load_font:header_length <- $r6
	@DEBUG_VALUE: lvgl_load_font:font <- $r4
	@DEBUG_VALUE: lv_font_load:font <- $r4
	@DEBUG_VALUE: lvgl_load_font:loca_length <- $r0
	@DEBUG_VALUE: lvgl_load_font:fp <- [DW_OP_plus_uconst 36, DW_OP_stack_value] $sp
	.loc	4 0 0 is_stmt 0                 @ ../GUILib/src/font/lv_font_loader.c:0:0
	mov	r6, r0
.Ltmp98:
	@DEBUG_VALUE: lvgl_load_font:loca_length <- $r6
	@DEBUG_VALUE: lvgl_load_font:loca_length <- $r6
	@DEBUG_VALUE: lvgl_load_font:loca_count <- [DW_OP_plus_uconst 44, DW_OP_deref] $sp
	add	r0, sp, #36
	add	r1, sp, #44
.Ltmp99:
	.loc	4 530 8 is_stmt 1               @ ../GUILib/src/font/lv_font_loader.c:530:8
	movs	r2, #4
	movs	r3, #0
	movs	r5, #4
	bl	lv_fs_read
.Ltmp100:
	.loc	4 530 8 is_stmt 0               @ ../GUILib/src/font/lv_font_loader.c:530:8
	cmp	r0, #0
	bne.w	.LBB0_5
.Ltmp101:
@ %bb.27:
	@DEBUG_VALUE: lvgl_load_font:loca_start <- $r10
	@DEBUG_VALUE: lvgl_load_font:loca_length <- $r6
	@DEBUG_VALUE: lvgl_load_font:font <- $r4
	@DEBUG_VALUE: lv_font_load:font <- $r4
	@DEBUG_VALUE: lvgl_load_font:loca_count <- [DW_OP_plus_uconst 44, DW_OP_deref] $sp
	@DEBUG_VALUE: lvgl_load_font:fp <- [DW_OP_plus_uconst 36, DW_OP_stack_value] $sp
	@DEBUG_VALUE: lvgl_load_font:failed <- 0
	.loc	4 535 64 is_stmt 1              @ ../GUILib/src/font/lv_font_loader.c:535:64
	ldr	r0, [sp, #44]
.Ltmp102:
	@DEBUG_VALUE: lvgl_load_font:loca_count <- $r0
	.loc	4 535 61 is_stmt 0              @ ../GUILib/src/font/lv_font_loader.c:535:61
	add.w	r0, r5, r0, lsl #2
.Ltmp103:
	.loc	4 535 31                        @ ../GUILib/src/font/lv_font_loader.c:535:31
	bl	lv_mem_alloc
.Ltmp104:
	.loc	4 537 20 is_stmt 1              @ ../GUILib/src/font/lv_font_loader.c:537:20
	ldrb.w	r1, [sp, #74]
.Ltmp105:
	.loc	4 535 31                        @ ../GUILib/src/font/lv_font_loader.c:535:31
	str	r0, [sp, #28]                   @ 4-byte Spill
.Ltmp106:
	@DEBUG_VALUE: lvgl_load_font:glyph_offset <- [DW_OP_plus_uconst 28] [$sp+0]
	.loc	4 537 8                         @ ../GUILib/src/font/lv_font_loader.c:537:8
	cmp	r1, #1
	beq	.LBB0_33
.Ltmp107:
@ %bb.28:
	@DEBUG_VALUE: lvgl_load_font:loca_start <- $r10
	@DEBUG_VALUE: lvgl_load_font:loca_length <- $r6
	@DEBUG_VALUE: lvgl_load_font:font <- $r4
	@DEBUG_VALUE: lv_font_load:font <- $r4
	@DEBUG_VALUE: lvgl_load_font:glyph_offset <- [DW_OP_plus_uconst 28] [$sp+0]
	@DEBUG_VALUE: lvgl_load_font:fp <- [DW_OP_plus_uconst 36, DW_OP_stack_value] $sp
	@DEBUG_VALUE: lvgl_load_font:failed <- 0
	cmp	r1, #0
	bne.w	.LBB0_12
.Ltmp108:
@ %bb.29:
	@DEBUG_VALUE: lvgl_load_font:loca_start <- $r10
	@DEBUG_VALUE: lvgl_load_font:loca_length <- $r6
	@DEBUG_VALUE: lvgl_load_font:font <- $r4
	@DEBUG_VALUE: lv_font_load:font <- $r4
	@DEBUG_VALUE: lvgl_load_font:glyph_offset <- [DW_OP_plus_uconst 28] [$sp+0]
	@DEBUG_VALUE: lvgl_load_font:fp <- [DW_OP_plus_uconst 36, DW_OP_stack_value] $sp
	@DEBUG_VALUE: lvgl_load_font:failed <- 0
	@DEBUG_VALUE: lvgl_load_font:failed <- 0
	@DEBUG_VALUE: i <- 0
	.loc	4 538 37                        @ ../GUILib/src/font/lv_font_loader.c:538:37
	ldr	r0, [sp, #44]
.Ltmp109:
	@DEBUG_VALUE: lvgl_load_font:loca_count <- $r0
	.loc	4 538 9 is_stmt 0               @ ../GUILib/src/font/lv_font_loader.c:538:9
	cbz	r0, .LBB0_35
.Ltmp110:
@ %bb.30:
	@DEBUG_VALUE: lvgl_load_font:loca_start <- $r10
	@DEBUG_VALUE: lvgl_load_font:loca_length <- $r6
	@DEBUG_VALUE: lvgl_load_font:font <- $r4
	@DEBUG_VALUE: lv_font_load:font <- $r4
	@DEBUG_VALUE: lvgl_load_font:loca_count <- $r0
	@DEBUG_VALUE: lvgl_load_font:glyph_offset <- [DW_OP_plus_uconst 28] [$sp+0]
	@DEBUG_VALUE: lvgl_load_font:fp <- [DW_OP_plus_uconst 36, DW_OP_stack_value] $sp
	@DEBUG_VALUE: i <- 0
	@DEBUG_VALUE: lvgl_load_font:failed <- 0
	.loc	4 0 9                           @ ../GUILib/src/font/lv_font_loader.c:0:9
	movs	r5, #0
	add.w	r8, sp, #36
	add.w	r9, sp, #88
.Ltmp111:
.LBB0_31:                               @ =>This Inner Loop Header: Depth=1
	@DEBUG_VALUE: lvgl_load_font:loca_start <- $r10
	@DEBUG_VALUE: lvgl_load_font:loca_length <- $r6
	@DEBUG_VALUE: lvgl_load_font:font <- $r4
	@DEBUG_VALUE: lv_font_load:font <- $r4
	@DEBUG_VALUE: lvgl_load_font:glyph_offset <- [DW_OP_plus_uconst 28] [$sp+0]
	@DEBUG_VALUE: lvgl_load_font:fp <- [DW_OP_plus_uconst 36, DW_OP_stack_value] $sp
	@DEBUG_VALUE: lvgl_load_font:failed <- 0
	@DEBUG_VALUE: i <- $r5
	@DEBUG_VALUE: offset <- [DW_OP_plus_uconst 88, DW_OP_deref] $sp
	.loc	4 540 16 is_stmt 1              @ ../GUILib/src/font/lv_font_loader.c:540:16
	mov	r0, r8
	mov	r1, r9
	movs	r2, #2
	movs	r3, #0
	bl	lv_fs_read
.Ltmp112:
	.loc	4 540 16 is_stmt 0              @ ../GUILib/src/font/lv_font_loader.c:540:16
	cmp	r0, #0
	bne.w	.LBB0_12
.Ltmp113:
@ %bb.32:                               @   in Loop: Header=BB0_31 Depth=1
	@DEBUG_VALUE: lvgl_load_font:loca_start <- $r10
	@DEBUG_VALUE: lvgl_load_font:loca_length <- $r6
	@DEBUG_VALUE: i <- $r5
	@DEBUG_VALUE: lvgl_load_font:font <- $r4
	@DEBUG_VALUE: lv_font_load:font <- $r4
	@DEBUG_VALUE: offset <- [DW_OP_plus_uconst 88, DW_OP_deref] $sp
	@DEBUG_VALUE: lvgl_load_font:glyph_offset <- [DW_OP_plus_uconst 28] [$sp+0]
	@DEBUG_VALUE: lvgl_load_font:fp <- [DW_OP_plus_uconst 36, DW_OP_stack_value] $sp
	@DEBUG_VALUE: lvgl_load_font:failed <- 0
	.loc	4 544 31 is_stmt 1              @ ../GUILib/src/font/lv_font_loader.c:544:31
	ldrh.w	r0, [sp, #88]
.Ltmp114:
	@DEBUG_VALUE: offset <- undef
	.loc	4 544 29 is_stmt 0              @ ../GUILib/src/font/lv_font_loader.c:544:29
	ldr	r1, [sp, #28]                   @ 4-byte Reload
	str.w	r0, [r1, r5, lsl #2]
.Ltmp115:
	@DEBUG_VALUE: lvgl_load_font:failed <- undef
	.loc	4 538 37 is_stmt 1              @ ../GUILib/src/font/lv_font_loader.c:538:37
	ldr.w	r11, [sp, #44]
.Ltmp116:
	@DEBUG_VALUE: lvgl_load_font:loca_count <- $r11
	.loc	4 538 49 is_stmt 0              @ ../GUILib/src/font/lv_font_loader.c:538:49
	adds	r5, #1
.Ltmp117:
	@DEBUG_VALUE: i <- $r5
	@DEBUG_VALUE: lvgl_load_font:failed <- 0
	.loc	4 538 9                         @ ../GUILib/src/font/lv_font_loader.c:538:9
	cmp	r5, r11
	blo	.LBB0_31
	b	.LBB0_36
.Ltmp118:
.LBB0_33:
	@DEBUG_VALUE: lvgl_load_font:loca_start <- $r10
	@DEBUG_VALUE: lvgl_load_font:loca_length <- $r6
	@DEBUG_VALUE: lvgl_load_font:font <- $r4
	@DEBUG_VALUE: lv_font_load:font <- $r4
	@DEBUG_VALUE: lvgl_load_font:glyph_offset <- [DW_OP_plus_uconst 28] [$sp+0]
	@DEBUG_VALUE: lvgl_load_font:fp <- [DW_OP_plus_uconst 36, DW_OP_stack_value] $sp
	@DEBUG_VALUE: lvgl_load_font:failed <- 0
	.loc	4 548 41 is_stmt 1              @ ../GUILib/src/font/lv_font_loader.c:548:41
	ldr	r0, [sp, #44]
.Ltmp119:
	@DEBUG_VALUE: lvgl_load_font:loca_count <- $r0
	.loc	4 548 12 is_stmt 0              @ ../GUILib/src/font/lv_font_loader.c:548:12
	ldr	r1, [sp, #28]                   @ 4-byte Reload
	.loc	4 548 52                        @ ../GUILib/src/font/lv_font_loader.c:548:52
	lsls	r2, r0, #2
	add	r0, sp, #36
.Ltmp120:
	.loc	4 548 12                        @ ../GUILib/src/font/lv_font_loader.c:548:12
	movs	r3, #0
	bl	lv_fs_read
.Ltmp121:
	@DEBUG_VALUE: lvgl_load_font:failed <- undef
	.loc	4 557 8 is_stmt 1               @ ../GUILib/src/font/lv_font_loader.c:557:8
	cmp	r0, #0
	bne.w	.LBB0_12
.Ltmp122:
@ %bb.34:
	@DEBUG_VALUE: lvgl_load_font:loca_start <- $r10
	@DEBUG_VALUE: lvgl_load_font:loca_length <- $r6
	@DEBUG_VALUE: lvgl_load_font:font <- $r4
	@DEBUG_VALUE: lv_font_load:font <- $r4
	@DEBUG_VALUE: lvgl_load_font:glyph_offset <- [DW_OP_plus_uconst 28] [$sp+0]
	@DEBUG_VALUE: lvgl_load_font:fp <- [DW_OP_plus_uconst 36, DW_OP_stack_value] $sp
	.loc	4 565 73                        @ ../GUILib/src/font/lv_font_loader.c:565:73
	ldr.w	r11, [sp, #44]
	b	.LBB0_36
.Ltmp123:
.LBB0_35:
	@DEBUG_VALUE: lvgl_load_font:loca_start <- $r10
	@DEBUG_VALUE: lvgl_load_font:loca_length <- $r6
	@DEBUG_VALUE: lvgl_load_font:font <- $r4
	@DEBUG_VALUE: lv_font_load:font <- $r4
	@DEBUG_VALUE: lvgl_load_font:loca_count <- $r0
	@DEBUG_VALUE: lvgl_load_font:glyph_offset <- [DW_OP_plus_uconst 28] [$sp+0]
	@DEBUG_VALUE: lvgl_load_font:fp <- [DW_OP_plus_uconst 36, DW_OP_stack_value] $sp
	@DEBUG_VALUE: i <- 0
	@DEBUG_VALUE: lvgl_load_font:failed <- 0
	.loc	4 0 73 is_stmt 0                @ ../GUILib/src/font/lv_font_loader.c:0:73
	mov.w	r11, #0
.Ltmp124:
.LBB0_36:
	@DEBUG_VALUE: lvgl_load_font:loca_start <- $r10
	@DEBUG_VALUE: lvgl_load_font:loca_length <- $r6
	@DEBUG_VALUE: lvgl_load_font:font <- $r4
	@DEBUG_VALUE: lv_font_load:font <- $r4
	@DEBUG_VALUE: lvgl_load_font:glyph_offset <- [DW_OP_plus_uconst 28] [$sp+0]
	@DEBUG_VALUE: lvgl_load_font:fp <- [DW_OP_plus_uconst 36, DW_OP_stack_value] $sp
	.loc	4 563 39 is_stmt 1              @ ../GUILib/src/font/lv_font_loader.c:563:39
	add.w	r1, r6, r10
.Ltmp125:
	@DEBUG_VALUE: load_glyph:header <- [DW_OP_plus_uconst 48, DW_OP_stack_value] $sp
	@DEBUG_VALUE: load_glyph:loca_count <- $r11
	@DEBUG_VALUE: load_glyph:glyph_offset <- [DW_OP_plus_uconst 28] [$sp+0]
	@DEBUG_VALUE: load_glyph:font_dsc <- [DW_OP_plus_uconst 32] [$sp+0]
	@DEBUG_VALUE: load_glyph:fp <- [DW_OP_plus_uconst 36, DW_OP_stack_value] $sp
	@DEBUG_VALUE: load_glyph:start <- $r1
	@DEBUG_VALUE: lvgl_load_font:glyph_start <- $r1
	@DEBUG_VALUE: lvgl_load_font:loca_count <- $r11
	.loc	4 0 39 is_stmt 0                @ ../GUILib/src/font/lv_font_loader.c:0:39
	add	r6, sp, #36
.Ltmp126:
	.loc	4 341 28 is_stmt 1              @ ../GUILib/src/font/lv_font_loader.c:341:28
	adr	r2, .LCPI0_3
	mov	r0, r6
.Ltmp127:
	@DEBUG_VALUE: load_glyph:start <- $r3
	@DEBUG_VALUE: lvgl_load_font:glyph_start <- $r3
	str	r1, [sp, #12]                   @ 4-byte Spill
.Ltmp128:
	@DEBUG_VALUE: load_glyph:start <- [DW_OP_plus_uconst 12] [$sp+0]
	@DEBUG_VALUE: lvgl_load_font:glyph_start <- [DW_OP_plus_uconst 12] [$sp+0]
	bl	read_label
.Ltmp129:
	@DEBUG_VALUE: load_glyph:glyph_length <- $r0
	.loc	4 342 8                         @ ../GUILib/src/font/lv_font_loader.c:342:8
	cmp	r0, #0
	str	r0, [sp, #8]                    @ 4-byte Spill
.Ltmp130:
	@DEBUG_VALUE: load_glyph:glyph_length <- [DW_OP_plus_uconst 8] [$sp+0]
	@DEBUG_VALUE: load_glyph:glyph_length <- [DW_OP_plus_uconst 8] [$sp+0]
	bmi.w	.LBB0_12
.Ltmp131:
@ %bb.37:
	@DEBUG_VALUE: load_glyph:loca_count <- $r11
	@DEBUG_VALUE: lvgl_load_font:loca_count <- $r11
	@DEBUG_VALUE: lvgl_load_font:loca_start <- $r10
	@DEBUG_VALUE: lvgl_load_font:font <- $r4
	@DEBUG_VALUE: lv_font_load:font <- $r4
	@DEBUG_VALUE: load_glyph:glyph_length <- [DW_OP_plus_uconst 8] [$sp+0]
	@DEBUG_VALUE: lvgl_load_font:glyph_start <- [DW_OP_plus_uconst 12] [$sp+0]
	@DEBUG_VALUE: load_glyph:start <- [DW_OP_plus_uconst 12] [$sp+0]
	@DEBUG_VALUE: load_glyph:fp <- [DW_OP_plus_uconst 36, DW_OP_stack_value] $sp
	@DEBUG_VALUE: load_glyph:font_dsc <- [DW_OP_plus_uconst 32] [$sp+0]
	@DEBUG_VALUE: load_glyph:glyph_offset <- [DW_OP_plus_uconst 28] [$sp+0]
	@DEBUG_VALUE: load_glyph:header <- [DW_OP_plus_uconst 48, DW_OP_stack_value] $sp
	@DEBUG_VALUE: lvgl_load_font:glyph_offset <- [DW_OP_plus_uconst 28] [$sp+0]
	@DEBUG_VALUE: lvgl_load_font:fp <- [DW_OP_plus_uconst 36, DW_OP_stack_value] $sp
	.loc	4 347 71                        @ ../GUILib/src/font/lv_font_loader.c:347:71
	lsl.w	r8, r11, #3
	.loc	4 347 47 is_stmt 0              @ ../GUILib/src/font/lv_font_loader.c:347:47
	mov	r0, r8
	bl	lv_mem_alloc
.Ltmp132:
	.loc	4 349 5 is_stmt 1               @ ../GUILib/src/font/lv_font_loader.c:349:5
	mov	r1, r8
	.loc	4 347 47                        @ ../GUILib/src/font/lv_font_loader.c:347:47
	mov	r5, r0
.Ltmp133:
	@DEBUG_VALUE: load_glyph:glyph_dsc <- $r5
	.loc	4 349 5                         @ ../GUILib/src/font/lv_font_loader.c:349:5
	bl	__aeabi_memclr4
.Ltmp134:
	.loc	4 355 5                         @ ../GUILib/src/font/lv_font_loader.c:355:5
	cmp.w	r11, #0
	mov	r0, r5
.Ltmp135:
	@DEBUG_VALUE: load_glyph:glyph_dsc <- $r0
	.loc	4 351 25                        @ ../GUILib/src/font/lv_font_loader.c:351:25
	str	r5, [sp, #20]                   @ 4-byte Spill
.Ltmp136:
	@DEBUG_VALUE: load_glyph:glyph_dsc <- [DW_OP_plus_uconst 20] [$sp+0]
	str	r5, [r7, #4]
.Ltmp137:
	@DEBUG_VALUE: i <- 0
	@DEBUG_VALUE: load_glyph:cur_bmp_size <- 0
	.loc	4 355 5                         @ ../GUILib/src/font/lv_font_loader.c:355:5
	beq.w	.LBB0_70
.Ltmp138:
@ %bb.38:
	@DEBUG_VALUE: load_glyph:loca_count <- $r11
	@DEBUG_VALUE: lvgl_load_font:loca_count <- $r11
	@DEBUG_VALUE: lvgl_load_font:loca_start <- $r10
	@DEBUG_VALUE: lvgl_load_font:font <- $r4
	@DEBUG_VALUE: lv_font_load:font <- $r4
	@DEBUG_VALUE: load_glyph:glyph_dsc <- [DW_OP_plus_uconst 20] [$sp+0]
	@DEBUG_VALUE: load_glyph:glyph_length <- [DW_OP_plus_uconst 8] [$sp+0]
	@DEBUG_VALUE: lvgl_load_font:glyph_start <- [DW_OP_plus_uconst 12] [$sp+0]
	@DEBUG_VALUE: load_glyph:start <- [DW_OP_plus_uconst 12] [$sp+0]
	@DEBUG_VALUE: load_glyph:fp <- [DW_OP_plus_uconst 36, DW_OP_stack_value] $sp
	@DEBUG_VALUE: load_glyph:font_dsc <- [DW_OP_plus_uconst 32] [$sp+0]
	@DEBUG_VALUE: load_glyph:glyph_offset <- [DW_OP_plus_uconst 28] [$sp+0]
	@DEBUG_VALUE: load_glyph:header <- [DW_OP_plus_uconst 48, DW_OP_stack_value] $sp
	@DEBUG_VALUE: lvgl_load_font:glyph_offset <- [DW_OP_plus_uconst 28] [$sp+0]
	@DEBUG_VALUE: lvgl_load_font:fp <- [DW_OP_plus_uconst 36, DW_OP_stack_value] $sp
	@DEBUG_VALUE: load_glyph:cur_bmp_size <- 0
	@DEBUG_VALUE: i <- 0
	.loc	4 0 5 is_stmt 0                 @ ../GUILib/src/font/lv_font_loader.c:0:5
	sub.w	r0, r11, #1
	.loc	4 355 5                         @ ../GUILib/src/font/lv_font_loader.c:355:5
	str	r0, [sp, #4]                    @ 4-byte Spill
	ldr	r0, [sp, #28]                   @ 4-byte Reload
	movw	r10, #65535
.Ltmp139:
	.loc	4 0 5                           @ ../GUILib/src/font/lv_font_loader.c:0:5
	ldr.w	r8, [sp, #20]                   @ 4-byte Reload
	movt	r10, #15
	.loc	4 355 5                         @ ../GUILib/src/font/lv_font_loader.c:355:5
	adds	r0, #4
	movs	r7, #0
	add.w	r5, sp, #99
	mov.w	r9, #0
.Ltmp140:
.LBB0_39:                               @ =>This Inner Loop Header: Depth=1
	@DEBUG_VALUE: load_glyph:loca_count <- $r11
	@DEBUG_VALUE: lvgl_load_font:loca_count <- $r11
	@DEBUG_VALUE: lvgl_load_font:font <- $r4
	@DEBUG_VALUE: lv_font_load:font <- $r4
	@DEBUG_VALUE: load_glyph:glyph_dsc <- [DW_OP_plus_uconst 20] [$sp+0]
	@DEBUG_VALUE: load_glyph:glyph_length <- [DW_OP_plus_uconst 8] [$sp+0]
	@DEBUG_VALUE: lvgl_load_font:glyph_start <- [DW_OP_plus_uconst 12] [$sp+0]
	@DEBUG_VALUE: load_glyph:start <- [DW_OP_plus_uconst 12] [$sp+0]
	@DEBUG_VALUE: load_glyph:fp <- [DW_OP_plus_uconst 36, DW_OP_stack_value] $sp
	@DEBUG_VALUE: load_glyph:font_dsc <- [DW_OP_plus_uconst 32] [$sp+0]
	@DEBUG_VALUE: load_glyph:glyph_offset <- [DW_OP_plus_uconst 28] [$sp+0]
	@DEBUG_VALUE: load_glyph:header <- [DW_OP_plus_uconst 48, DW_OP_stack_value] $sp
	@DEBUG_VALUE: lvgl_load_font:glyph_offset <- [DW_OP_plus_uconst 28] [$sp+0]
	@DEBUG_VALUE: lvgl_load_font:fp <- [DW_OP_plus_uconst 36, DW_OP_stack_value] $sp
	@DEBUG_VALUE: load_glyph:cur_bmp_size <- $r7
	@DEBUG_VALUE: i <- $r9
	@DEBUG_VALUE: gdsc <- undef
	.loc	4 0 5                           @ ../GUILib/src/font/lv_font_loader.c:0:5
	str	r0, [sp, #24]                   @ 4-byte Spill
.Ltmp141:
	.loc	4 358 50 is_stmt 1              @ ../GUILib/src/font/lv_font_loader.c:358:50
	ldr	r0, [r0, #-4]
	.loc	4 358 48 is_stmt 0              @ ../GUILib/src/font/lv_font_loader.c:358:48
	ldr	r1, [sp, #12]                   @ 4-byte Reload
	.loc	4 358 27                        @ ../GUILib/src/font/lv_font_loader.c:358:27
	movs	r2, #0
	.loc	4 358 48                        @ ../GUILib/src/font/lv_font_loader.c:358:48
	add	r1, r0
	.loc	4 358 27                        @ ../GUILib/src/font/lv_font_loader.c:358:27
	mov	r0, r6
	bl	lv_fs_seek
.Ltmp142:
	@DEBUG_VALUE: res <- $r0
	.loc	4 359 12 is_stmt 1              @ ../GUILib/src/font/lv_font_loader.c:359:12
	cmp	r0, #0
	.loc	4 358 21                        @ ../GUILib/src/font/lv_font_loader.c:358:21
	strb.w	r0, [sp, #99]
	.loc	4 359 12                        @ ../GUILib/src/font/lv_font_loader.c:359:12
	bne.w	.LBB0_12
.Ltmp143:
@ %bb.40:                               @   in Loop: Header=BB0_39 Depth=1
	@DEBUG_VALUE: load_glyph:loca_count <- $r11
	@DEBUG_VALUE: lvgl_load_font:loca_count <- $r11
	@DEBUG_VALUE: i <- $r9
	@DEBUG_VALUE: load_glyph:cur_bmp_size <- $r7
	@DEBUG_VALUE: lvgl_load_font:font <- $r4
	@DEBUG_VALUE: lv_font_load:font <- $r4
	@DEBUG_VALUE: res <- $r0
	@DEBUG_VALUE: load_glyph:glyph_dsc <- [DW_OP_plus_uconst 20] [$sp+0]
	@DEBUG_VALUE: load_glyph:glyph_length <- [DW_OP_plus_uconst 8] [$sp+0]
	@DEBUG_VALUE: lvgl_load_font:glyph_start <- [DW_OP_plus_uconst 12] [$sp+0]
	@DEBUG_VALUE: load_glyph:start <- [DW_OP_plus_uconst 12] [$sp+0]
	@DEBUG_VALUE: load_glyph:fp <- [DW_OP_plus_uconst 36, DW_OP_stack_value] $sp
	@DEBUG_VALUE: load_glyph:font_dsc <- [DW_OP_plus_uconst 32] [$sp+0]
	@DEBUG_VALUE: load_glyph:glyph_offset <- [DW_OP_plus_uconst 28] [$sp+0]
	@DEBUG_VALUE: load_glyph:header <- [DW_OP_plus_uconst 48, DW_OP_stack_value] $sp
	@DEBUG_VALUE: lvgl_load_font:glyph_offset <- [DW_OP_plus_uconst 28] [$sp+0]
	@DEBUG_VALUE: lvgl_load_font:fp <- [DW_OP_plus_uconst 36, DW_OP_stack_value] $sp
	.loc	4 365 20                        @ ../GUILib/src/font/lv_font_loader.c:365:20
	ldrb.w	r1, [sp, #80]
.Ltmp144:
	@DEBUG_VALUE: init_bit_iterator:fp <- [DW_OP_plus_uconst 36, DW_OP_stack_value] $sp
	.loc	4 189 16                        @ ../GUILib/src/font/lv_font_loader.c:189:16
	movs	r0, #255
.Ltmp145:
	.loc	4 0 16 is_stmt 0                @ ../GUILib/src/font/lv_font_loader.c:0:16
	str	r7, [sp, #16]                   @ 4-byte Spill
.Ltmp146:
	@DEBUG_VALUE: load_glyph:cur_bmp_size <- [DW_OP_plus_uconst 16] [$sp+0]
	.loc	4 188 11 is_stmt 1              @ ../GUILib/src/font/lv_font_loader.c:188:11
	str	r6, [sp, #88]
	.loc	4 189 16                        @ ../GUILib/src/font/lv_font_loader.c:189:16
	strh.w	r0, [sp, #92]
.Ltmp147:
	@DEBUG_VALUE: init_bit_iterator:fp <- [DW_OP_plus_uconst 36, DW_OP_stack_value] $sp
	.loc	4 365 12                        @ ../GUILib/src/font/lv_font_loader.c:365:12
	cbz	r1, .LBB0_42
.Ltmp148:
@ %bb.41:                               @   in Loop: Header=BB0_39 Depth=1
	@DEBUG_VALUE: load_glyph:cur_bmp_size <- [DW_OP_plus_uconst 16] [$sp+0]
	@DEBUG_VALUE: load_glyph:loca_count <- $r11
	@DEBUG_VALUE: lvgl_load_font:loca_count <- $r11
	@DEBUG_VALUE: i <- $r9
	@DEBUG_VALUE: lvgl_load_font:font <- $r4
	@DEBUG_VALUE: lv_font_load:font <- $r4
	@DEBUG_VALUE: load_glyph:glyph_dsc <- [DW_OP_plus_uconst 20] [$sp+0]
	@DEBUG_VALUE: load_glyph:glyph_length <- [DW_OP_plus_uconst 8] [$sp+0]
	@DEBUG_VALUE: lvgl_load_font:glyph_start <- [DW_OP_plus_uconst 12] [$sp+0]
	@DEBUG_VALUE: load_glyph:start <- [DW_OP_plus_uconst 12] [$sp+0]
	@DEBUG_VALUE: load_glyph:fp <- [DW_OP_plus_uconst 36, DW_OP_stack_value] $sp
	@DEBUG_VALUE: load_glyph:font_dsc <- [DW_OP_plus_uconst 32] [$sp+0]
	@DEBUG_VALUE: load_glyph:glyph_offset <- [DW_OP_plus_uconst 28] [$sp+0]
	@DEBUG_VALUE: load_glyph:header <- [DW_OP_plus_uconst 48, DW_OP_stack_value] $sp
	@DEBUG_VALUE: lvgl_load_font:glyph_offset <- [DW_OP_plus_uconst 28] [$sp+0]
	@DEBUG_VALUE: lvgl_load_font:fp <- [DW_OP_plus_uconst 36, DW_OP_stack_value] $sp
	@DEBUG_VALUE: res <- [DW_OP_plus_uconst 99, DW_OP_deref] $sp
	.loc	4 0 12 is_stmt 0                @ ../GUILib/src/font/lv_font_loader.c:0:12
	add	r7, sp, #88
.Ltmp149:
	.loc	4 369 27 is_stmt 1              @ ../GUILib/src/font/lv_font_loader.c:369:27
	mov	r0, r7
	mov	r2, r5
	bl	read_bits
.Ltmp150:
	.loc	4 369 25 is_stmt 0              @ ../GUILib/src/font/lv_font_loader.c:369:25
	ldr.w	r1, [r8, r9, lsl #3]
.Ltmp151:
	.loc	4 370 16 is_stmt 1              @ ../GUILib/src/font/lv_font_loader.c:370:16
	ldrb.w	r2, [sp, #99]
.Ltmp152:
	@DEBUG_VALUE: res <- $r2
	.loc	4 369 25                        @ ../GUILib/src/font/lv_font_loader.c:369:25
	and.w	r1, r1, r10
	orr.w	r0, r1, r0, lsl #20
	str.w	r0, [r8, r9, lsl #3]
	cbz	r2, .LBB0_43
	b	.LBB0_12
.Ltmp153:
.LBB0_42:                               @   in Loop: Header=BB0_39 Depth=1
	@DEBUG_VALUE: load_glyph:cur_bmp_size <- [DW_OP_plus_uconst 16] [$sp+0]
	@DEBUG_VALUE: load_glyph:loca_count <- $r11
	@DEBUG_VALUE: lvgl_load_font:loca_count <- $r11
	@DEBUG_VALUE: i <- $r9
	@DEBUG_VALUE: lvgl_load_font:font <- $r4
	@DEBUG_VALUE: lv_font_load:font <- $r4
	@DEBUG_VALUE: load_glyph:glyph_dsc <- [DW_OP_plus_uconst 20] [$sp+0]
	@DEBUG_VALUE: load_glyph:glyph_length <- [DW_OP_plus_uconst 8] [$sp+0]
	@DEBUG_VALUE: lvgl_load_font:glyph_start <- [DW_OP_plus_uconst 12] [$sp+0]
	@DEBUG_VALUE: load_glyph:start <- [DW_OP_plus_uconst 12] [$sp+0]
	@DEBUG_VALUE: load_glyph:fp <- [DW_OP_plus_uconst 36, DW_OP_stack_value] $sp
	@DEBUG_VALUE: load_glyph:font_dsc <- [DW_OP_plus_uconst 32] [$sp+0]
	@DEBUG_VALUE: load_glyph:glyph_offset <- [DW_OP_plus_uconst 28] [$sp+0]
	@DEBUG_VALUE: load_glyph:header <- [DW_OP_plus_uconst 48, DW_OP_stack_value] $sp
	@DEBUG_VALUE: lvgl_load_font:glyph_offset <- [DW_OP_plus_uconst 28] [$sp+0]
	@DEBUG_VALUE: lvgl_load_font:fp <- [DW_OP_plus_uconst 36, DW_OP_stack_value] $sp
	.loc	4 366 25                        @ ../GUILib/src/font/lv_font_loader.c:366:25
	ldr.w	r0, [r8, r9, lsl #3]
	ldrh.w	r1, [sp, #70]
	and.w	r0, r0, r10
	orr.w	r0, r0, r1, lsl #20
	str.w	r0, [r8, r9, lsl #3]
	add	r7, sp, #88
.Ltmp154:
.LBB0_43:                               @   in Loop: Header=BB0_39 Depth=1
	@DEBUG_VALUE: load_glyph:cur_bmp_size <- [DW_OP_plus_uconst 16] [$sp+0]
	@DEBUG_VALUE: load_glyph:loca_count <- $r11
	@DEBUG_VALUE: lvgl_load_font:loca_count <- $r11
	@DEBUG_VALUE: i <- $r9
	@DEBUG_VALUE: lvgl_load_font:font <- $r4
	@DEBUG_VALUE: lv_font_load:font <- $r4
	@DEBUG_VALUE: load_glyph:glyph_dsc <- [DW_OP_plus_uconst 20] [$sp+0]
	@DEBUG_VALUE: load_glyph:glyph_length <- [DW_OP_plus_uconst 8] [$sp+0]
	@DEBUG_VALUE: lvgl_load_font:glyph_start <- [DW_OP_plus_uconst 12] [$sp+0]
	@DEBUG_VALUE: load_glyph:start <- [DW_OP_plus_uconst 12] [$sp+0]
	@DEBUG_VALUE: load_glyph:fp <- [DW_OP_plus_uconst 36, DW_OP_stack_value] $sp
	@DEBUG_VALUE: load_glyph:font_dsc <- [DW_OP_plus_uconst 32] [$sp+0]
	@DEBUG_VALUE: load_glyph:glyph_offset <- [DW_OP_plus_uconst 28] [$sp+0]
	@DEBUG_VALUE: load_glyph:header <- [DW_OP_plus_uconst 48, DW_OP_stack_value] $sp
	@DEBUG_VALUE: lvgl_load_font:glyph_offset <- [DW_OP_plus_uconst 28] [$sp+0]
	@DEBUG_VALUE: lvgl_load_font:fp <- [DW_OP_plus_uconst 36, DW_OP_stack_value] $sp
	.loc	4 375 20                        @ ../GUILib/src/font/lv_font_loader.c:375:20
	ldrb.w	r1, [sp, #76]
.Ltmp155:
	.loc	4 375 12 is_stmt 0              @ ../GUILib/src/font/lv_font_loader.c:375:12
	cbnz	r1, .LBB0_45
.Ltmp156:
@ %bb.44:                               @   in Loop: Header=BB0_39 Depth=1
	@DEBUG_VALUE: load_glyph:cur_bmp_size <- [DW_OP_plus_uconst 16] [$sp+0]
	@DEBUG_VALUE: load_glyph:loca_count <- $r11
	@DEBUG_VALUE: lvgl_load_font:loca_count <- $r11
	@DEBUG_VALUE: i <- $r9
	@DEBUG_VALUE: lvgl_load_font:font <- $r4
	@DEBUG_VALUE: lv_font_load:font <- $r4
	@DEBUG_VALUE: load_glyph:glyph_dsc <- [DW_OP_plus_uconst 20] [$sp+0]
	@DEBUG_VALUE: load_glyph:glyph_length <- [DW_OP_plus_uconst 8] [$sp+0]
	@DEBUG_VALUE: lvgl_load_font:glyph_start <- [DW_OP_plus_uconst 12] [$sp+0]
	@DEBUG_VALUE: load_glyph:start <- [DW_OP_plus_uconst 12] [$sp+0]
	@DEBUG_VALUE: load_glyph:fp <- [DW_OP_plus_uconst 36, DW_OP_stack_value] $sp
	@DEBUG_VALUE: load_glyph:font_dsc <- [DW_OP_plus_uconst 32] [$sp+0]
	@DEBUG_VALUE: load_glyph:glyph_offset <- [DW_OP_plus_uconst 28] [$sp+0]
	@DEBUG_VALUE: load_glyph:header <- [DW_OP_plus_uconst 48, DW_OP_stack_value] $sp
	@DEBUG_VALUE: lvgl_load_font:glyph_offset <- [DW_OP_plus_uconst 28] [$sp+0]
	@DEBUG_VALUE: lvgl_load_font:fp <- [DW_OP_plus_uconst 36, DW_OP_stack_value] $sp
	.loc	4 376 25 is_stmt 1              @ ../GUILib/src/font/lv_font_loader.c:376:25
	movw	r2, #65535
	movt	r2, #15
	and	r1, r0, #267386880
	ands	r0, r2
	orr.w	r0, r0, r1, lsl #4
	str.w	r0, [r8, r9, lsl #3]
.Ltmp157:
.LBB0_45:                               @   in Loop: Header=BB0_39 Depth=1
	@DEBUG_VALUE: load_glyph:cur_bmp_size <- [DW_OP_plus_uconst 16] [$sp+0]
	@DEBUG_VALUE: load_glyph:loca_count <- $r11
	@DEBUG_VALUE: lvgl_load_font:loca_count <- $r11
	@DEBUG_VALUE: i <- $r9
	@DEBUG_VALUE: lvgl_load_font:font <- $r4
	@DEBUG_VALUE: lv_font_load:font <- $r4
	@DEBUG_VALUE: load_glyph:glyph_dsc <- [DW_OP_plus_uconst 20] [$sp+0]
	@DEBUG_VALUE: load_glyph:glyph_length <- [DW_OP_plus_uconst 8] [$sp+0]
	@DEBUG_VALUE: lvgl_load_font:glyph_start <- [DW_OP_plus_uconst 12] [$sp+0]
	@DEBUG_VALUE: load_glyph:start <- [DW_OP_plus_uconst 12] [$sp+0]
	@DEBUG_VALUE: load_glyph:fp <- [DW_OP_plus_uconst 36, DW_OP_stack_value] $sp
	@DEBUG_VALUE: load_glyph:font_dsc <- [DW_OP_plus_uconst 32] [$sp+0]
	@DEBUG_VALUE: load_glyph:glyph_offset <- [DW_OP_plus_uconst 28] [$sp+0]
	@DEBUG_VALUE: load_glyph:header <- [DW_OP_plus_uconst 48, DW_OP_stack_value] $sp
	@DEBUG_VALUE: lvgl_load_font:glyph_offset <- [DW_OP_plus_uconst 28] [$sp+0]
	@DEBUG_VALUE: lvgl_load_font:fp <- [DW_OP_plus_uconst 36, DW_OP_stack_value] $sp
	.loc	4 379 57                        @ ../GUILib/src/font/lv_font_loader.c:379:57
	ldrb.w	r6, [sp, #78]
.Ltmp158:
	@DEBUG_VALUE: read_bits_signed:n_bits <- $r6
	@DEBUG_VALUE: read_bits_signed:res <- [DW_OP_plus_uconst 99, DW_OP_stack_value] $sp
	@DEBUG_VALUE: read_bits_signed:it <- [DW_OP_plus_uconst 88, DW_OP_stack_value] $sp
	@DEBUG_VALUE: res <- [DW_OP_plus_uconst 99, DW_OP_deref] $sp
	.loc	4 0 57 is_stmt 0                @ ../GUILib/src/font/lv_font_loader.c:0:57
	add.w	r5, sp, #99
.Ltmp159:
	.loc	4 218 26 is_stmt 1              @ ../GUILib/src/font/lv_font_loader.c:218:26
	mov	r0, r7
	mov	r1, r6
	mov	r2, r5
	bl	read_bits
.Ltmp160:
	@DEBUG_VALUE: read_bits_signed:value <- $r0
	.loc	4 219 30                        @ ../GUILib/src/font/lv_font_loader.c:219:30
	subs	r1, r6, #1
.Ltmp161:
	.loc	4 219 8 is_stmt 0               @ ../GUILib/src/font/lv_font_loader.c:219:8
	mov.w	r2, #-1
	lsr.w	r1, r0, r1
.Ltmp162:
	.loc	4 379 21 is_stmt 1              @ ../GUILib/src/font/lv_font_loader.c:379:21
	add.w	r10, r8, r9, lsl #3
.Ltmp163:
	.loc	4 219 8                         @ ../GUILib/src/font/lv_font_loader.c:219:8
	lsls	r2, r6
	lsls	r1, r1, #31
	it	ne
	orrne	r0, r2
.Ltmp164:
	@DEBUG_VALUE: read_bits_signed:value <- $r0
	.loc	4 379 21                        @ ../GUILib/src/font/lv_font_loader.c:379:21
	strb.w	r0, [r10, #6]
.Ltmp165:
	.loc	4 380 12                        @ ../GUILib/src/font/lv_font_loader.c:380:12
	ldrb.w	r0, [sp, #99]
.Ltmp166:
	@DEBUG_VALUE: res <- $r0
	.loc	4 380 12 is_stmt 0              @ ../GUILib/src/font/lv_font_loader.c:380:12
	cmp	r0, #0
	bne.w	.LBB0_12
.Ltmp167:
@ %bb.46:                               @   in Loop: Header=BB0_39 Depth=1
	@DEBUG_VALUE: load_glyph:cur_bmp_size <- [DW_OP_plus_uconst 16] [$sp+0]
	@DEBUG_VALUE: load_glyph:loca_count <- $r11
	@DEBUG_VALUE: lvgl_load_font:loca_count <- $r11
	@DEBUG_VALUE: i <- $r9
	@DEBUG_VALUE: lvgl_load_font:font <- $r4
	@DEBUG_VALUE: lv_font_load:font <- $r4
	@DEBUG_VALUE: res <- $r0
	@DEBUG_VALUE: load_glyph:glyph_dsc <- [DW_OP_plus_uconst 20] [$sp+0]
	@DEBUG_VALUE: load_glyph:glyph_length <- [DW_OP_plus_uconst 8] [$sp+0]
	@DEBUG_VALUE: lvgl_load_font:glyph_start <- [DW_OP_plus_uconst 12] [$sp+0]
	@DEBUG_VALUE: load_glyph:start <- [DW_OP_plus_uconst 12] [$sp+0]
	@DEBUG_VALUE: load_glyph:fp <- [DW_OP_plus_uconst 36, DW_OP_stack_value] $sp
	@DEBUG_VALUE: load_glyph:font_dsc <- [DW_OP_plus_uconst 32] [$sp+0]
	@DEBUG_VALUE: load_glyph:glyph_offset <- [DW_OP_plus_uconst 28] [$sp+0]
	@DEBUG_VALUE: load_glyph:header <- [DW_OP_plus_uconst 48, DW_OP_stack_value] $sp
	@DEBUG_VALUE: lvgl_load_font:glyph_offset <- [DW_OP_plus_uconst 28] [$sp+0]
	@DEBUG_VALUE: lvgl_load_font:fp <- [DW_OP_plus_uconst 36, DW_OP_stack_value] $sp
	.loc	4 384 57 is_stmt 1              @ ../GUILib/src/font/lv_font_loader.c:384:57
	ldrb.w	r6, [sp, #78]
.Ltmp168:
	@DEBUG_VALUE: read_bits_signed:n_bits <- $r6
	@DEBUG_VALUE: read_bits_signed:res <- [DW_OP_plus_uconst 99, DW_OP_stack_value] $sp
	@DEBUG_VALUE: read_bits_signed:it <- [DW_OP_plus_uconst 88, DW_OP_stack_value] $sp
	@DEBUG_VALUE: res <- [DW_OP_plus_uconst 99, DW_OP_deref] $sp
	.loc	4 218 26                        @ ../GUILib/src/font/lv_font_loader.c:218:26
	mov	r0, r7
	mov	r1, r6
	mov	r2, r5
	bl	read_bits
.Ltmp169:
	@DEBUG_VALUE: read_bits_signed:value <- $r0
	.loc	4 219 30                        @ ../GUILib/src/font/lv_font_loader.c:219:30
	subs	r1, r6, #1
.Ltmp170:
	.loc	4 219 8 is_stmt 0               @ ../GUILib/src/font/lv_font_loader.c:219:8
	mov.w	r2, #-1
	lsr.w	r1, r0, r1
	lsls	r2, r6
	lsls	r1, r1, #31
	it	ne
	orrne	r0, r2
.Ltmp171:
	@DEBUG_VALUE: read_bits_signed:value <- $r0
	.loc	4 384 21 is_stmt 1              @ ../GUILib/src/font/lv_font_loader.c:384:21
	strb.w	r0, [r10, #7]
.Ltmp172:
	.loc	4 385 12                        @ ../GUILib/src/font/lv_font_loader.c:385:12
	ldrb.w	r0, [sp, #99]
.Ltmp173:
	@DEBUG_VALUE: res <- $r0
	.loc	4 385 12 is_stmt 0              @ ../GUILib/src/font/lv_font_loader.c:385:12
	cmp	r0, #0
	bne.w	.LBB0_12
.Ltmp174:
@ %bb.47:                               @   in Loop: Header=BB0_39 Depth=1
	@DEBUG_VALUE: load_glyph:cur_bmp_size <- [DW_OP_plus_uconst 16] [$sp+0]
	@DEBUG_VALUE: load_glyph:loca_count <- $r11
	@DEBUG_VALUE: lvgl_load_font:loca_count <- $r11
	@DEBUG_VALUE: i <- $r9
	@DEBUG_VALUE: lvgl_load_font:font <- $r4
	@DEBUG_VALUE: lv_font_load:font <- $r4
	@DEBUG_VALUE: res <- $r0
	@DEBUG_VALUE: load_glyph:glyph_dsc <- [DW_OP_plus_uconst 20] [$sp+0]
	@DEBUG_VALUE: load_glyph:glyph_length <- [DW_OP_plus_uconst 8] [$sp+0]
	@DEBUG_VALUE: lvgl_load_font:glyph_start <- [DW_OP_plus_uconst 12] [$sp+0]
	@DEBUG_VALUE: load_glyph:start <- [DW_OP_plus_uconst 12] [$sp+0]
	@DEBUG_VALUE: load_glyph:fp <- [DW_OP_plus_uconst 36, DW_OP_stack_value] $sp
	@DEBUG_VALUE: load_glyph:font_dsc <- [DW_OP_plus_uconst 32] [$sp+0]
	@DEBUG_VALUE: load_glyph:glyph_offset <- [DW_OP_plus_uconst 28] [$sp+0]
	@DEBUG_VALUE: load_glyph:header <- [DW_OP_plus_uconst 48, DW_OP_stack_value] $sp
	@DEBUG_VALUE: lvgl_load_font:glyph_offset <- [DW_OP_plus_uconst 28] [$sp+0]
	@DEBUG_VALUE: lvgl_load_font:fp <- [DW_OP_plus_uconst 36, DW_OP_stack_value] $sp
	.loc	4 389 50 is_stmt 1              @ ../GUILib/src/font/lv_font_loader.c:389:50
	ldrb.w	r1, [sp, #79]
.Ltmp175:
	@DEBUG_VALUE: res <- [DW_OP_plus_uconst 99, DW_OP_deref] $sp
	.loc	4 389 23 is_stmt 0              @ ../GUILib/src/font/lv_font_loader.c:389:23
	mov	r0, r7
	mov	r2, r5
	bl	read_bits
.Ltmp176:
	.loc	4 389 21                        @ ../GUILib/src/font/lv_font_loader.c:389:21
	strb.w	r0, [r10, #4]
.Ltmp177:
	.loc	4 390 12 is_stmt 1              @ ../GUILib/src/font/lv_font_loader.c:390:12
	ldrb.w	r0, [sp, #99]
.Ltmp178:
	@DEBUG_VALUE: res <- $r0
	.loc	4 390 12 is_stmt 0              @ ../GUILib/src/font/lv_font_loader.c:390:12
	cmp	r0, #0
	bne.w	.LBB0_12
.Ltmp179:
@ %bb.48:                               @   in Loop: Header=BB0_39 Depth=1
	@DEBUG_VALUE: load_glyph:cur_bmp_size <- [DW_OP_plus_uconst 16] [$sp+0]
	@DEBUG_VALUE: load_glyph:loca_count <- $r11
	@DEBUG_VALUE: lvgl_load_font:loca_count <- $r11
	@DEBUG_VALUE: i <- $r9
	@DEBUG_VALUE: lvgl_load_font:font <- $r4
	@DEBUG_VALUE: lv_font_load:font <- $r4
	@DEBUG_VALUE: res <- $r0
	@DEBUG_VALUE: load_glyph:glyph_dsc <- [DW_OP_plus_uconst 20] [$sp+0]
	@DEBUG_VALUE: load_glyph:glyph_length <- [DW_OP_plus_uconst 8] [$sp+0]
	@DEBUG_VALUE: lvgl_load_font:glyph_start <- [DW_OP_plus_uconst 12] [$sp+0]
	@DEBUG_VALUE: load_glyph:start <- [DW_OP_plus_uconst 12] [$sp+0]
	@DEBUG_VALUE: load_glyph:fp <- [DW_OP_plus_uconst 36, DW_OP_stack_value] $sp
	@DEBUG_VALUE: load_glyph:font_dsc <- [DW_OP_plus_uconst 32] [$sp+0]
	@DEBUG_VALUE: load_glyph:glyph_offset <- [DW_OP_plus_uconst 28] [$sp+0]
	@DEBUG_VALUE: load_glyph:header <- [DW_OP_plus_uconst 48, DW_OP_stack_value] $sp
	@DEBUG_VALUE: lvgl_load_font:glyph_offset <- [DW_OP_plus_uconst 28] [$sp+0]
	@DEBUG_VALUE: lvgl_load_font:fp <- [DW_OP_plus_uconst 36, DW_OP_stack_value] $sp
	.loc	4 394 50 is_stmt 1              @ ../GUILib/src/font/lv_font_loader.c:394:50
	ldrb.w	r1, [sp, #79]
.Ltmp180:
	@DEBUG_VALUE: res <- [DW_OP_plus_uconst 99, DW_OP_deref] $sp
	.loc	4 394 23 is_stmt 0              @ ../GUILib/src/font/lv_font_loader.c:394:23
	mov	r0, r7
	mov	r2, r5
	bl	read_bits
.Ltmp181:
	.loc	4 394 21                        @ ../GUILib/src/font/lv_font_loader.c:394:21
	strb.w	r0, [r10, #5]
.Ltmp182:
	.loc	4 395 12 is_stmt 1              @ ../GUILib/src/font/lv_font_loader.c:395:12
	ldrb.w	r1, [sp, #99]
.Ltmp183:
	@DEBUG_VALUE: res <- $r1
	.loc	4 395 12 is_stmt 0              @ ../GUILib/src/font/lv_font_loader.c:395:12
	cmp	r1, #0
	bne.w	.LBB0_12
.Ltmp184:
@ %bb.49:                               @   in Loop: Header=BB0_39 Depth=1
	@DEBUG_VALUE: load_glyph:cur_bmp_size <- [DW_OP_plus_uconst 16] [$sp+0]
	@DEBUG_VALUE: load_glyph:loca_count <- $r11
	@DEBUG_VALUE: lvgl_load_font:loca_count <- $r11
	@DEBUG_VALUE: i <- $r9
	@DEBUG_VALUE: lvgl_load_font:font <- $r4
	@DEBUG_VALUE: lv_font_load:font <- $r4
	@DEBUG_VALUE: res <- $r1
	@DEBUG_VALUE: load_glyph:glyph_dsc <- [DW_OP_plus_uconst 20] [$sp+0]
	@DEBUG_VALUE: load_glyph:glyph_length <- [DW_OP_plus_uconst 8] [$sp+0]
	@DEBUG_VALUE: lvgl_load_font:glyph_start <- [DW_OP_plus_uconst 12] [$sp+0]
	@DEBUG_VALUE: load_glyph:start <- [DW_OP_plus_uconst 12] [$sp+0]
	@DEBUG_VALUE: load_glyph:fp <- [DW_OP_plus_uconst 36, DW_OP_stack_value] $sp
	@DEBUG_VALUE: load_glyph:font_dsc <- [DW_OP_plus_uconst 32] [$sp+0]
	@DEBUG_VALUE: load_glyph:glyph_offset <- [DW_OP_plus_uconst 28] [$sp+0]
	@DEBUG_VALUE: load_glyph:header <- [DW_OP_plus_uconst 48, DW_OP_stack_value] $sp
	@DEBUG_VALUE: lvgl_load_font:glyph_offset <- [DW_OP_plus_uconst 28] [$sp+0]
	@DEBUG_VALUE: lvgl_load_font:fp <- [DW_OP_plus_uconst 36, DW_OP_stack_value] $sp
	@DEBUG_VALUE: nbits <- undef
	.loc	4 400 27 is_stmt 1              @ ../GUILib/src/font/lv_font_loader.c:400:27
	ldr	r1, [sp, #4]                    @ 4-byte Reload
.Ltmp185:
	.loc	4 0 27 is_stmt 0                @ ../GUILib/src/font/lv_font_loader.c:0:27
	ldr	r2, [sp, #24]                   @ 4-byte Reload
	.loc	4 400 27                        @ ../GUILib/src/font/lv_font_loader.c:400:27
	cmp	r9, r1
	ldr	r1, [sp, #8]                    @ 4-byte Reload
	movw	lr, #65535
	.loc	4 400 50                        @ ../GUILib/src/font/lv_font_loader.c:400:50
	it	lo
	ldrlo	r1, [r2]
	ldrb.w	r12, [sp, #78]
	ldrb.w	r7, [sp, #79]
	ldrb.w	r3, [sp, #80]
.Ltmp186:
	@DEBUG_VALUE: next_offset <- $r1
	@DEBUG_VALUE: nbits <- undef
	.loc	4 401 38 is_stmt 1              @ ../GUILib/src/font/lv_font_loader.c:401:38
	ldr	r6, [r2, #-4]
.Ltmp187:
	@DEBUG_VALUE: bmp_size <- undef
	.loc	4 0 0 is_stmt 0                 @ ../GUILib/src/font/lv_font_loader.c:0:0
	ldr.w	r2, [r8, r9, lsl #3]
	movt	lr, #15
	.loc	4 403 12 is_stmt 1              @ ../GUILib/src/font/lv_font_loader.c:403:12
	cmp.w	r9, #0
	beq	.LBB0_51
.Ltmp188:
@ %bb.50:                               @   in Loop: Header=BB0_39 Depth=1
	@DEBUG_VALUE: load_glyph:cur_bmp_size <- [DW_OP_plus_uconst 16] [$sp+0]
	@DEBUG_VALUE: load_glyph:loca_count <- $r11
	@DEBUG_VALUE: lvgl_load_font:loca_count <- $r11
	@DEBUG_VALUE: i <- $r9
	@DEBUG_VALUE: lvgl_load_font:font <- $r4
	@DEBUG_VALUE: lv_font_load:font <- $r4
	@DEBUG_VALUE: next_offset <- $r1
	@DEBUG_VALUE: load_glyph:glyph_dsc <- [DW_OP_plus_uconst 20] [$sp+0]
	@DEBUG_VALUE: load_glyph:glyph_length <- [DW_OP_plus_uconst 8] [$sp+0]
	@DEBUG_VALUE: lvgl_load_font:glyph_start <- [DW_OP_plus_uconst 12] [$sp+0]
	@DEBUG_VALUE: load_glyph:start <- [DW_OP_plus_uconst 12] [$sp+0]
	@DEBUG_VALUE: load_glyph:fp <- [DW_OP_plus_uconst 36, DW_OP_stack_value] $sp
	@DEBUG_VALUE: load_glyph:font_dsc <- [DW_OP_plus_uconst 32] [$sp+0]
	@DEBUG_VALUE: load_glyph:glyph_offset <- [DW_OP_plus_uconst 28] [$sp+0]
	@DEBUG_VALUE: load_glyph:header <- [DW_OP_plus_uconst 48, DW_OP_stack_value] $sp
	@DEBUG_VALUE: lvgl_load_font:glyph_offset <- [DW_OP_plus_uconst 28] [$sp+0]
	@DEBUG_VALUE: lvgl_load_font:fp <- [DW_OP_plus_uconst 36, DW_OP_stack_value] $sp
	.loc	4 412 18                        @ ../GUILib/src/font/lv_font_loader.c:412:18
	ldrb.w	r5, [r10, #4]
	b	.LBB0_52
.Ltmp189:
.LBB0_51:                               @   in Loop: Header=BB0_39 Depth=1
	@DEBUG_VALUE: load_glyph:cur_bmp_size <- [DW_OP_plus_uconst 16] [$sp+0]
	@DEBUG_VALUE: load_glyph:loca_count <- $r11
	@DEBUG_VALUE: lvgl_load_font:loca_count <- $r11
	@DEBUG_VALUE: i <- $r9
	@DEBUG_VALUE: lvgl_load_font:font <- $r4
	@DEBUG_VALUE: lv_font_load:font <- $r4
	@DEBUG_VALUE: next_offset <- $r1
	@DEBUG_VALUE: load_glyph:glyph_dsc <- [DW_OP_plus_uconst 20] [$sp+0]
	@DEBUG_VALUE: load_glyph:glyph_length <- [DW_OP_plus_uconst 8] [$sp+0]
	@DEBUG_VALUE: lvgl_load_font:glyph_start <- [DW_OP_plus_uconst 12] [$sp+0]
	@DEBUG_VALUE: load_glyph:start <- [DW_OP_plus_uconst 12] [$sp+0]
	@DEBUG_VALUE: load_glyph:fp <- [DW_OP_plus_uconst 36, DW_OP_stack_value] $sp
	@DEBUG_VALUE: load_glyph:font_dsc <- [DW_OP_plus_uconst 32] [$sp+0]
	@DEBUG_VALUE: load_glyph:glyph_offset <- [DW_OP_plus_uconst 28] [$sp+0]
	@DEBUG_VALUE: load_glyph:header <- [DW_OP_plus_uconst 48, DW_OP_stack_value] $sp
	@DEBUG_VALUE: lvgl_load_font:glyph_offset <- [DW_OP_plus_uconst 28] [$sp+0]
	@DEBUG_VALUE: lvgl_load_font:fp <- [DW_OP_plus_uconst 36, DW_OP_stack_value] $sp
	.loc	4 404 25                        @ ../GUILib/src/font/lv_font_loader.c:404:25
	and.w	r2, r2, lr
	movs	r0, #0
.Ltmp190:
	.loc	4 412 18                        @ ../GUILib/src/font/lv_font_loader.c:412:18
	movs	r5, #0
.Ltmp191:
	.loc	4 404 25                        @ ../GUILib/src/font/lv_font_loader.c:404:25
	str.w	r2, [r8, r9, lsl #3]
	.loc	4 406 25                        @ ../GUILib/src/font/lv_font_loader.c:406:25
	str.w	r0, [r10, #4]
.Ltmp192:
.LBB0_52:                               @   in Loop: Header=BB0_39 Depth=1
	@DEBUG_VALUE: load_glyph:cur_bmp_size <- [DW_OP_plus_uconst 16] [$sp+0]
	@DEBUG_VALUE: load_glyph:loca_count <- $r11
	@DEBUG_VALUE: lvgl_load_font:loca_count <- $r11
	@DEBUG_VALUE: i <- $r9
	@DEBUG_VALUE: lvgl_load_font:font <- $r4
	@DEBUG_VALUE: lv_font_load:font <- $r4
	@DEBUG_VALUE: next_offset <- $r1
	@DEBUG_VALUE: load_glyph:glyph_dsc <- [DW_OP_plus_uconst 20] [$sp+0]
	@DEBUG_VALUE: load_glyph:glyph_length <- [DW_OP_plus_uconst 8] [$sp+0]
	@DEBUG_VALUE: lvgl_load_font:glyph_start <- [DW_OP_plus_uconst 12] [$sp+0]
	@DEBUG_VALUE: load_glyph:start <- [DW_OP_plus_uconst 12] [$sp+0]
	@DEBUG_VALUE: load_glyph:fp <- [DW_OP_plus_uconst 36, DW_OP_stack_value] $sp
	@DEBUG_VALUE: load_glyph:font_dsc <- [DW_OP_plus_uconst 32] [$sp+0]
	@DEBUG_VALUE: load_glyph:glyph_offset <- [DW_OP_plus_uconst 28] [$sp+0]
	@DEBUG_VALUE: load_glyph:header <- [DW_OP_plus_uconst 48, DW_OP_stack_value] $sp
	@DEBUG_VALUE: lvgl_load_font:glyph_offset <- [DW_OP_plus_uconst 28] [$sp+0]
	@DEBUG_VALUE: lvgl_load_font:fp <- [DW_OP_plus_uconst 36, DW_OP_stack_value] $sp
	.loc	4 0 25 is_stmt 0                @ ../GUILib/src/font/lv_font_loader.c:0:25
	add	r7, r12
	add.w	r3, r3, r7, lsl #1
.Ltmp193:
	@DEBUG_VALUE: nbits <- $r3
	ldr	r7, [sp, #16]                   @ 4-byte Reload
.Ltmp194:
	@DEBUG_VALUE: load_glyph:cur_bmp_size <- $r7
	sub.w	r1, r1, r3, lsr #3
.Ltmp195:
	.loc	4 411 28 is_stmt 1              @ ../GUILib/src/font/lv_font_loader.c:411:28
	and.w	r3, r7, lr
.Ltmp196:
	bfc	r2, #0, #20
	add	r2, r3
	ldr	r3, [sp, #20]                   @ 4-byte Reload
.Ltmp197:
	.loc	4 412 26                        @ ../GUILib/src/font/lv_font_loader.c:412:26
	uxtb	r0, r0
	.loc	4 412 24 is_stmt 0              @ ../GUILib/src/font/lv_font_loader.c:412:24
	muls	r0, r5, r0
.Ltmp198:
	.loc	4 0 0                           @ ../GUILib/src/font/lv_font_loader.c:0:0
	subs	r1, r1, r6
.Ltmp199:
	@DEBUG_VALUE: bmp_size <- $r1
	.loc	4 411 28 is_stmt 1              @ ../GUILib/src/font/lv_font_loader.c:411:28
	str.w	r2, [r3, r9, lsl #3]
	.loc	4 412 12                        @ ../GUILib/src/font/lv_font_loader.c:412:12
	cmp	r0, #0
	it	ne
	addne	r7, r1
.Ltmp200:
	@DEBUG_VALUE: load_glyph:cur_bmp_size <- $r7
	.loc	4 0 12 is_stmt 0                @ ../GUILib/src/font/lv_font_loader.c:0:12
	ldr	r0, [sp, #24]                   @ 4-byte Reload
.Ltmp201:
	.loc	4 355 45 is_stmt 1              @ ../GUILib/src/font/lv_font_loader.c:355:45
	add.w	r9, r9, #1
.Ltmp202:
	@DEBUG_VALUE: i <- $r9
	.loc	4 0 45 is_stmt 0                @ ../GUILib/src/font/lv_font_loader.c:0:45
	mov	r10, lr
.Ltmp203:
	.loc	4 355 5                         @ ../GUILib/src/font/lv_font_loader.c:355:5
	cmp	r11, r9
.Ltmp204:
	.loc	4 355 31                        @ ../GUILib/src/font/lv_font_loader.c:355:31
	add.w	r0, r0, #4
	add	r6, sp, #36
	add.w	r5, sp, #99
.Ltmp205:
	.loc	4 355 5                         @ ../GUILib/src/font/lv_font_loader.c:355:5
	bne.w	.LBB0_39
.Ltmp206:
@ %bb.53:
	@DEBUG_VALUE: load_glyph:loca_count <- $r11
	@DEBUG_VALUE: lvgl_load_font:loca_count <- $r11
	@DEBUG_VALUE: load_glyph:cur_bmp_size <- $r7
	@DEBUG_VALUE: lvgl_load_font:font <- $r4
	@DEBUG_VALUE: lv_font_load:font <- $r4
	@DEBUG_VALUE: load_glyph:glyph_dsc <- [DW_OP_plus_uconst 20] [$sp+0]
	@DEBUG_VALUE: load_glyph:glyph_length <- [DW_OP_plus_uconst 8] [$sp+0]
	@DEBUG_VALUE: lvgl_load_font:glyph_start <- [DW_OP_plus_uconst 12] [$sp+0]
	@DEBUG_VALUE: load_glyph:start <- [DW_OP_plus_uconst 12] [$sp+0]
	@DEBUG_VALUE: load_glyph:fp <- [DW_OP_plus_uconst 36, DW_OP_stack_value] $sp
	@DEBUG_VALUE: load_glyph:font_dsc <- [DW_OP_plus_uconst 32] [$sp+0]
	@DEBUG_VALUE: load_glyph:glyph_offset <- [DW_OP_plus_uconst 28] [$sp+0]
	@DEBUG_VALUE: load_glyph:header <- [DW_OP_plus_uconst 48, DW_OP_stack_value] $sp
	@DEBUG_VALUE: lvgl_load_font:glyph_offset <- [DW_OP_plus_uconst 28] [$sp+0]
	@DEBUG_VALUE: lvgl_load_font:fp <- [DW_OP_plus_uconst 36, DW_OP_stack_value] $sp
	@DEBUG_VALUE: load_glyph:cur_bmp_size <- $r7
	.loc	4 417 38 is_stmt 1              @ ../GUILib/src/font/lv_font_loader.c:417:38
	mov	r0, r7
	bl	lv_mem_alloc
.Ltmp207:
	mov	r1, r0
.Ltmp208:
	@DEBUG_VALUE: load_glyph:glyph_bmp <- $r1
	.loc	4 419 28                        @ ../GUILib/src/font/lv_font_loader.c:419:28
	ldr	r0, [sp, #32]                   @ 4-byte Reload
.Ltmp209:
	.loc	4 423 5                         @ ../GUILib/src/font/lv_font_loader.c:423:5
	cmp.w	r11, #2
	mov	r2, r1
.Ltmp210:
	@DEBUG_VALUE: load_glyph:glyph_bmp <- $r2
	.loc	4 419 28                        @ ../GUILib/src/font/lv_font_loader.c:419:28
	str	r1, [sp, #16]                   @ 4-byte Spill
.Ltmp211:
	@DEBUG_VALUE: load_glyph:glyph_bmp <- [DW_OP_plus_uconst 16] [$sp+0]
	str	r1, [r0]
.Ltmp212:
	@DEBUG_VALUE: i <- 1
	@DEBUG_VALUE: load_glyph:cur_bmp_size <- 0
	.loc	4 423 5                         @ ../GUILib/src/font/lv_font_loader.c:423:5
	blo.w	.LBB0_71
.Ltmp213:
@ %bb.54:
	@DEBUG_VALUE: load_glyph:loca_count <- $r11
	@DEBUG_VALUE: lvgl_load_font:loca_count <- $r11
	@DEBUG_VALUE: lvgl_load_font:font <- $r4
	@DEBUG_VALUE: lv_font_load:font <- $r4
	@DEBUG_VALUE: load_glyph:glyph_bmp <- [DW_OP_plus_uconst 16] [$sp+0]
	@DEBUG_VALUE: load_glyph:glyph_dsc <- [DW_OP_plus_uconst 20] [$sp+0]
	@DEBUG_VALUE: load_glyph:glyph_length <- [DW_OP_plus_uconst 8] [$sp+0]
	@DEBUG_VALUE: lvgl_load_font:glyph_start <- [DW_OP_plus_uconst 12] [$sp+0]
	@DEBUG_VALUE: load_glyph:start <- [DW_OP_plus_uconst 12] [$sp+0]
	@DEBUG_VALUE: load_glyph:fp <- [DW_OP_plus_uconst 36, DW_OP_stack_value] $sp
	@DEBUG_VALUE: load_glyph:font_dsc <- [DW_OP_plus_uconst 32] [$sp+0]
	@DEBUG_VALUE: load_glyph:glyph_offset <- [DW_OP_plus_uconst 28] [$sp+0]
	@DEBUG_VALUE: load_glyph:header <- [DW_OP_plus_uconst 48, DW_OP_stack_value] $sp
	@DEBUG_VALUE: lvgl_load_font:glyph_offset <- [DW_OP_plus_uconst 28] [$sp+0]
	@DEBUG_VALUE: lvgl_load_font:fp <- [DW_OP_plus_uconst 36, DW_OP_stack_value] $sp
	@DEBUG_VALUE: i <- 1
	@DEBUG_VALUE: load_glyph:cur_bmp_size <- 0
	.loc	4 0 5 is_stmt 0                 @ ../GUILib/src/font/lv_font_loader.c:0:5
	movs	r0, #0
	add.w	r10, sp, #99
	mov.w	r9, #1
	str	r0, [sp, #24]                   @ 4-byte Spill
.Ltmp214:
.LBB0_55:                               @ =>This Loop Header: Depth=1
                                        @     Child Loop BB0_63 Depth 2
	@DEBUG_VALUE: load_glyph:loca_count <- $r11
	@DEBUG_VALUE: lvgl_load_font:loca_count <- $r11
	@DEBUG_VALUE: lvgl_load_font:font <- $r4
	@DEBUG_VALUE: lv_font_load:font <- $r4
	@DEBUG_VALUE: load_glyph:glyph_bmp <- [DW_OP_plus_uconst 16] [$sp+0]
	@DEBUG_VALUE: load_glyph:glyph_dsc <- [DW_OP_plus_uconst 20] [$sp+0]
	@DEBUG_VALUE: load_glyph:glyph_length <- [DW_OP_plus_uconst 8] [$sp+0]
	@DEBUG_VALUE: lvgl_load_font:glyph_start <- [DW_OP_plus_uconst 12] [$sp+0]
	@DEBUG_VALUE: load_glyph:start <- [DW_OP_plus_uconst 12] [$sp+0]
	@DEBUG_VALUE: load_glyph:fp <- [DW_OP_plus_uconst 36, DW_OP_stack_value] $sp
	@DEBUG_VALUE: load_glyph:font_dsc <- [DW_OP_plus_uconst 32] [$sp+0]
	@DEBUG_VALUE: load_glyph:glyph_offset <- [DW_OP_plus_uconst 28] [$sp+0]
	@DEBUG_VALUE: load_glyph:header <- [DW_OP_plus_uconst 48, DW_OP_stack_value] $sp
	@DEBUG_VALUE: lvgl_load_font:glyph_offset <- [DW_OP_plus_uconst 28] [$sp+0]
	@DEBUG_VALUE: lvgl_load_font:fp <- [DW_OP_plus_uconst 36, DW_OP_stack_value] $sp
	@DEBUG_VALUE: load_glyph:cur_bmp_size <- [DW_OP_plus_uconst 24] [$sp+0]
	@DEBUG_VALUE: i <- $r9
	.loc	4 424 50 is_stmt 1              @ ../GUILib/src/font/lv_font_loader.c:424:50
	ldr	r0, [sp, #28]                   @ 4-byte Reload
	.loc	4 424 48 is_stmt 0              @ ../GUILib/src/font/lv_font_loader.c:424:48
	ldr	r1, [sp, #12]                   @ 4-byte Reload
	.loc	4 424 50                        @ ../GUILib/src/font/lv_font_loader.c:424:50
	ldr.w	r0, [r0, r9, lsl #2]
	.loc	4 424 27                        @ ../GUILib/src/font/lv_font_loader.c:424:27
	movs	r2, #0
	.loc	4 424 48                        @ ../GUILib/src/font/lv_font_loader.c:424:48
	add	r1, r0
	.loc	4 424 27                        @ ../GUILib/src/font/lv_font_loader.c:424:27
	add	r0, sp, #36
	bl	lv_fs_seek
.Ltmp215:
	@DEBUG_VALUE: res <- $r0
	.loc	4 425 12 is_stmt 1              @ ../GUILib/src/font/lv_font_loader.c:425:12
	cmp	r0, #0
	.loc	4 424 21                        @ ../GUILib/src/font/lv_font_loader.c:424:21
	strb.w	r0, [sp, #99]
	.loc	4 425 12                        @ ../GUILib/src/font/lv_font_loader.c:425:12
	bne.w	.LBB0_12
.Ltmp216:
@ %bb.56:                               @   in Loop: Header=BB0_55 Depth=1
	@DEBUG_VALUE: load_glyph:loca_count <- $r11
	@DEBUG_VALUE: lvgl_load_font:loca_count <- $r11
	@DEBUG_VALUE: i <- $r9
	@DEBUG_VALUE: lvgl_load_font:font <- $r4
	@DEBUG_VALUE: lv_font_load:font <- $r4
	@DEBUG_VALUE: res <- $r0
	@DEBUG_VALUE: load_glyph:cur_bmp_size <- [DW_OP_plus_uconst 24] [$sp+0]
	@DEBUG_VALUE: load_glyph:glyph_bmp <- [DW_OP_plus_uconst 16] [$sp+0]
	@DEBUG_VALUE: load_glyph:glyph_dsc <- [DW_OP_plus_uconst 20] [$sp+0]
	@DEBUG_VALUE: load_glyph:glyph_length <- [DW_OP_plus_uconst 8] [$sp+0]
	@DEBUG_VALUE: lvgl_load_font:glyph_start <- [DW_OP_plus_uconst 12] [$sp+0]
	@DEBUG_VALUE: load_glyph:start <- [DW_OP_plus_uconst 12] [$sp+0]
	@DEBUG_VALUE: load_glyph:fp <- [DW_OP_plus_uconst 36, DW_OP_stack_value] $sp
	@DEBUG_VALUE: load_glyph:font_dsc <- [DW_OP_plus_uconst 32] [$sp+0]
	@DEBUG_VALUE: load_glyph:glyph_offset <- [DW_OP_plus_uconst 28] [$sp+0]
	@DEBUG_VALUE: load_glyph:header <- [DW_OP_plus_uconst 48, DW_OP_stack_value] $sp
	@DEBUG_VALUE: lvgl_load_font:glyph_offset <- [DW_OP_plus_uconst 28] [$sp+0]
	@DEBUG_VALUE: lvgl_load_font:fp <- [DW_OP_plus_uconst 36, DW_OP_stack_value] $sp
	@DEBUG_VALUE: init_bit_iterator:fp <- [DW_OP_plus_uconst 36, DW_OP_stack_value] $sp
	.loc	4 188 11                        @ ../GUILib/src/font/lv_font_loader.c:188:11
	add	r0, sp, #36
.Ltmp217:
	str	r0, [sp, #88]
	.loc	4 189 16                        @ ../GUILib/src/font/lv_font_loader.c:189:16
	movs	r0, #255
	strh.w	r0, [sp, #92]
.Ltmp218:
	.loc	4 430 62                        @ ../GUILib/src/font/lv_font_loader.c:430:62
	ldrb.w	r0, [sp, #78]
	.loc	4 430 29 is_stmt 0              @ ../GUILib/src/font/lv_font_loader.c:430:29
	ldrb.w	r1, [sp, #80]
	.loc	4 430 84                        @ ../GUILib/src/font/lv_font_loader.c:430:84
	ldrb.w	r2, [sp, #79]
	.loc	4 430 48                        @ ../GUILib/src/font/lv_font_loader.c:430:48
	add.w	r0, r1, r0, lsl #1
	.loc	4 430 70                        @ ../GUILib/src/font/lv_font_loader.c:430:70
	add.w	r6, r0, r2, lsl #1
.Ltmp219:
	@DEBUG_VALUE: nbits <- $r6
	@DEBUG_VALUE: res <- [DW_OP_plus_uconst 99, DW_OP_deref] $sp
	.loc	4 432 9 is_stmt 1               @ ../GUILib/src/font/lv_font_loader.c:432:9
	add	r0, sp, #88
	mov	r1, r6
	mov	r2, r10
	bl	read_bits
.Ltmp220:
	.loc	4 433 12                        @ ../GUILib/src/font/lv_font_loader.c:433:12
	ldrb.w	r0, [sp, #99]
.Ltmp221:
	@DEBUG_VALUE: res <- $r0
	.loc	4 433 12 is_stmt 0              @ ../GUILib/src/font/lv_font_loader.c:433:12
	cmp	r0, #0
	bne.w	.LBB0_12
.Ltmp222:
@ %bb.57:                               @   in Loop: Header=BB0_55 Depth=1
	@DEBUG_VALUE: load_glyph:loca_count <- $r11
	@DEBUG_VALUE: lvgl_load_font:loca_count <- $r11
	@DEBUG_VALUE: i <- $r9
	@DEBUG_VALUE: nbits <- $r6
	@DEBUG_VALUE: lvgl_load_font:font <- $r4
	@DEBUG_VALUE: lv_font_load:font <- $r4
	@DEBUG_VALUE: res <- $r0
	@DEBUG_VALUE: load_glyph:cur_bmp_size <- [DW_OP_plus_uconst 24] [$sp+0]
	@DEBUG_VALUE: load_glyph:glyph_bmp <- [DW_OP_plus_uconst 16] [$sp+0]
	@DEBUG_VALUE: load_glyph:glyph_dsc <- [DW_OP_plus_uconst 20] [$sp+0]
	@DEBUG_VALUE: load_glyph:glyph_length <- [DW_OP_plus_uconst 8] [$sp+0]
	@DEBUG_VALUE: lvgl_load_font:glyph_start <- [DW_OP_plus_uconst 12] [$sp+0]
	@DEBUG_VALUE: load_glyph:start <- [DW_OP_plus_uconst 12] [$sp+0]
	@DEBUG_VALUE: load_glyph:fp <- [DW_OP_plus_uconst 36, DW_OP_stack_value] $sp
	@DEBUG_VALUE: load_glyph:font_dsc <- [DW_OP_plus_uconst 32] [$sp+0]
	@DEBUG_VALUE: load_glyph:glyph_offset <- [DW_OP_plus_uconst 28] [$sp+0]
	@DEBUG_VALUE: load_glyph:header <- [DW_OP_plus_uconst 48, DW_OP_stack_value] $sp
	@DEBUG_VALUE: lvgl_load_font:glyph_offset <- [DW_OP_plus_uconst 28] [$sp+0]
	@DEBUG_VALUE: lvgl_load_font:fp <- [DW_OP_plus_uconst 36, DW_OP_stack_value] $sp
	.loc	4 437 25 is_stmt 1              @ ../GUILib/src/font/lv_font_loader.c:437:25
	ldr	r0, [sp, #20]                   @ 4-byte Reload
.Ltmp223:
	add.w	r0, r0, r9, lsl #3
	ldrb	r1, [r0, #4]
	.loc	4 437 46 is_stmt 0              @ ../GUILib/src/font/lv_font_loader.c:437:46
	ldrb	r0, [r0, #5]
	.loc	4 437 31                        @ ../GUILib/src/font/lv_font_loader.c:437:31
	muls	r0, r1, r0
.Ltmp224:
	.loc	4 437 12                        @ ../GUILib/src/font/lv_font_loader.c:437:12
	cmp	r0, #0
	beq	.LBB0_69
.Ltmp225:
@ %bb.58:                               @   in Loop: Header=BB0_55 Depth=1
	@DEBUG_VALUE: load_glyph:loca_count <- $r11
	@DEBUG_VALUE: lvgl_load_font:loca_count <- $r11
	@DEBUG_VALUE: i <- $r9
	@DEBUG_VALUE: nbits <- $r6
	@DEBUG_VALUE: lvgl_load_font:font <- $r4
	@DEBUG_VALUE: lv_font_load:font <- $r4
	@DEBUG_VALUE: load_glyph:cur_bmp_size <- [DW_OP_plus_uconst 24] [$sp+0]
	@DEBUG_VALUE: load_glyph:glyph_bmp <- [DW_OP_plus_uconst 16] [$sp+0]
	@DEBUG_VALUE: load_glyph:glyph_dsc <- [DW_OP_plus_uconst 20] [$sp+0]
	@DEBUG_VALUE: load_glyph:glyph_length <- [DW_OP_plus_uconst 8] [$sp+0]
	@DEBUG_VALUE: lvgl_load_font:glyph_start <- [DW_OP_plus_uconst 12] [$sp+0]
	@DEBUG_VALUE: load_glyph:start <- [DW_OP_plus_uconst 12] [$sp+0]
	@DEBUG_VALUE: load_glyph:fp <- [DW_OP_plus_uconst 36, DW_OP_stack_value] $sp
	@DEBUG_VALUE: load_glyph:font_dsc <- [DW_OP_plus_uconst 32] [$sp+0]
	@DEBUG_VALUE: load_glyph:glyph_offset <- [DW_OP_plus_uconst 28] [$sp+0]
	@DEBUG_VALUE: load_glyph:header <- [DW_OP_plus_uconst 48, DW_OP_stack_value] $sp
	@DEBUG_VALUE: lvgl_load_font:glyph_offset <- [DW_OP_plus_uconst 28] [$sp+0]
	@DEBUG_VALUE: lvgl_load_font:fp <- [DW_OP_plus_uconst 36, DW_OP_stack_value] $sp
	.loc	4 441 27 is_stmt 1              @ ../GUILib/src/font/lv_font_loader.c:441:27
	ldr	r0, [sp, #4]                    @ 4-byte Reload
	cmp	r9, r0
	ldr	r0, [sp, #8]                    @ 4-byte Reload
	bhs	.LBB0_60
.Ltmp226:
@ %bb.59:                               @   in Loop: Header=BB0_55 Depth=1
	@DEBUG_VALUE: load_glyph:loca_count <- $r11
	@DEBUG_VALUE: lvgl_load_font:loca_count <- $r11
	@DEBUG_VALUE: i <- $r9
	@DEBUG_VALUE: nbits <- $r6
	@DEBUG_VALUE: lvgl_load_font:font <- $r4
	@DEBUG_VALUE: lv_font_load:font <- $r4
	@DEBUG_VALUE: load_glyph:cur_bmp_size <- [DW_OP_plus_uconst 24] [$sp+0]
	@DEBUG_VALUE: load_glyph:glyph_bmp <- [DW_OP_plus_uconst 16] [$sp+0]
	@DEBUG_VALUE: load_glyph:glyph_dsc <- [DW_OP_plus_uconst 20] [$sp+0]
	@DEBUG_VALUE: load_glyph:glyph_length <- [DW_OP_plus_uconst 8] [$sp+0]
	@DEBUG_VALUE: lvgl_load_font:glyph_start <- [DW_OP_plus_uconst 12] [$sp+0]
	@DEBUG_VALUE: load_glyph:start <- [DW_OP_plus_uconst 12] [$sp+0]
	@DEBUG_VALUE: load_glyph:fp <- [DW_OP_plus_uconst 36, DW_OP_stack_value] $sp
	@DEBUG_VALUE: load_glyph:font_dsc <- [DW_OP_plus_uconst 32] [$sp+0]
	@DEBUG_VALUE: load_glyph:glyph_offset <- [DW_OP_plus_uconst 28] [$sp+0]
	@DEBUG_VALUE: load_glyph:header <- [DW_OP_plus_uconst 48, DW_OP_stack_value] $sp
	@DEBUG_VALUE: lvgl_load_font:glyph_offset <- [DW_OP_plus_uconst 28] [$sp+0]
	@DEBUG_VALUE: lvgl_load_font:fp <- [DW_OP_plus_uconst 36, DW_OP_stack_value] $sp
	.loc	4 441 50 is_stmt 0              @ ../GUILib/src/font/lv_font_loader.c:441:50
	ldr	r0, [sp, #28]                   @ 4-byte Reload
	add.w	r0, r0, r9, lsl #2
	ldr	r0, [r0, #4]
.Ltmp227:
.LBB0_60:                               @   in Loop: Header=BB0_55 Depth=1
	@DEBUG_VALUE: load_glyph:loca_count <- $r11
	@DEBUG_VALUE: lvgl_load_font:loca_count <- $r11
	@DEBUG_VALUE: i <- $r9
	@DEBUG_VALUE: nbits <- $r6
	@DEBUG_VALUE: lvgl_load_font:font <- $r4
	@DEBUG_VALUE: lv_font_load:font <- $r4
	@DEBUG_VALUE: load_glyph:cur_bmp_size <- [DW_OP_plus_uconst 24] [$sp+0]
	@DEBUG_VALUE: load_glyph:glyph_bmp <- [DW_OP_plus_uconst 16] [$sp+0]
	@DEBUG_VALUE: load_glyph:glyph_dsc <- [DW_OP_plus_uconst 20] [$sp+0]
	@DEBUG_VALUE: load_glyph:glyph_length <- [DW_OP_plus_uconst 8] [$sp+0]
	@DEBUG_VALUE: lvgl_load_font:glyph_start <- [DW_OP_plus_uconst 12] [$sp+0]
	@DEBUG_VALUE: load_glyph:start <- [DW_OP_plus_uconst 12] [$sp+0]
	@DEBUG_VALUE: load_glyph:fp <- [DW_OP_plus_uconst 36, DW_OP_stack_value] $sp
	@DEBUG_VALUE: load_glyph:font_dsc <- [DW_OP_plus_uconst 32] [$sp+0]
	@DEBUG_VALUE: load_glyph:glyph_offset <- [DW_OP_plus_uconst 28] [$sp+0]
	@DEBUG_VALUE: load_glyph:header <- [DW_OP_plus_uconst 48, DW_OP_stack_value] $sp
	@DEBUG_VALUE: lvgl_load_font:glyph_offset <- [DW_OP_plus_uconst 28] [$sp+0]
	@DEBUG_VALUE: lvgl_load_font:fp <- [DW_OP_plus_uconst 36, DW_OP_stack_value] $sp
	@DEBUG_VALUE: next_offset <- $r0
	.loc	4 442 38 is_stmt 1              @ ../GUILib/src/font/lv_font_loader.c:442:38
	ldr	r1, [sp, #28]                   @ 4-byte Reload
.Ltmp228:
	.loc	4 444 18                        @ ../GUILib/src/font/lv_font_loader.c:444:18
	ands	r7, r6, #7
.Ltmp229:
	.loc	4 442 38                        @ ../GUILib/src/font/lv_font_loader.c:442:38
	ldr.w	r1, [r1, r9, lsl #2]
	.loc	4 442 36 is_stmt 0              @ ../GUILib/src/font/lv_font_loader.c:442:36
	sub.w	r2, r0, r1
	.loc	4 442 54                        @ ../GUILib/src/font/lv_font_loader.c:442:54
	sub.w	r8, r2, r6, lsr #3
.Ltmp230:
	@DEBUG_VALUE: bmp_size <- $r8
	.loc	4 444 12 is_stmt 1              @ ../GUILib/src/font/lv_font_loader.c:444:12
	beq	.LBB0_67
.Ltmp231:
@ %bb.61:                               @   in Loop: Header=BB0_55 Depth=1
	@DEBUG_VALUE: load_glyph:loca_count <- $r11
	@DEBUG_VALUE: lvgl_load_font:loca_count <- $r11
	@DEBUG_VALUE: i <- $r9
	@DEBUG_VALUE: bmp_size <- $r8
	@DEBUG_VALUE: nbits <- $r6
	@DEBUG_VALUE: lvgl_load_font:font <- $r4
	@DEBUG_VALUE: lv_font_load:font <- $r4
	@DEBUG_VALUE: next_offset <- $r0
	@DEBUG_VALUE: load_glyph:cur_bmp_size <- [DW_OP_plus_uconst 24] [$sp+0]
	@DEBUG_VALUE: load_glyph:glyph_bmp <- [DW_OP_plus_uconst 16] [$sp+0]
	@DEBUG_VALUE: load_glyph:glyph_dsc <- [DW_OP_plus_uconst 20] [$sp+0]
	@DEBUG_VALUE: load_glyph:glyph_length <- [DW_OP_plus_uconst 8] [$sp+0]
	@DEBUG_VALUE: lvgl_load_font:glyph_start <- [DW_OP_plus_uconst 12] [$sp+0]
	@DEBUG_VALUE: load_glyph:start <- [DW_OP_plus_uconst 12] [$sp+0]
	@DEBUG_VALUE: load_glyph:fp <- [DW_OP_plus_uconst 36, DW_OP_stack_value] $sp
	@DEBUG_VALUE: load_glyph:font_dsc <- [DW_OP_plus_uconst 32] [$sp+0]
	@DEBUG_VALUE: load_glyph:glyph_offset <- [DW_OP_plus_uconst 28] [$sp+0]
	@DEBUG_VALUE: load_glyph:header <- [DW_OP_plus_uconst 48, DW_OP_stack_value] $sp
	@DEBUG_VALUE: lvgl_load_font:glyph_offset <- [DW_OP_plus_uconst 28] [$sp+0]
	@DEBUG_VALUE: lvgl_load_font:fp <- [DW_OP_plus_uconst 36, DW_OP_stack_value] $sp
	@DEBUG_VALUE: k <- 0
	.loc	4 450 13                        @ ../GUILib/src/font/lv_font_loader.c:450:13
	cmp.w	r8, #2
	blt	.LBB0_65
.Ltmp232:
@ %bb.62:                               @   in Loop: Header=BB0_55 Depth=1
	@DEBUG_VALUE: load_glyph:loca_count <- $r11
	@DEBUG_VALUE: lvgl_load_font:loca_count <- $r11
	@DEBUG_VALUE: i <- $r9
	@DEBUG_VALUE: bmp_size <- $r8
	@DEBUG_VALUE: nbits <- $r6
	@DEBUG_VALUE: lvgl_load_font:font <- $r4
	@DEBUG_VALUE: lv_font_load:font <- $r4
	@DEBUG_VALUE: next_offset <- $r0
	@DEBUG_VALUE: load_glyph:cur_bmp_size <- [DW_OP_plus_uconst 24] [$sp+0]
	@DEBUG_VALUE: load_glyph:glyph_bmp <- [DW_OP_plus_uconst 16] [$sp+0]
	@DEBUG_VALUE: load_glyph:glyph_dsc <- [DW_OP_plus_uconst 20] [$sp+0]
	@DEBUG_VALUE: load_glyph:glyph_length <- [DW_OP_plus_uconst 8] [$sp+0]
	@DEBUG_VALUE: lvgl_load_font:glyph_start <- [DW_OP_plus_uconst 12] [$sp+0]
	@DEBUG_VALUE: load_glyph:start <- [DW_OP_plus_uconst 12] [$sp+0]
	@DEBUG_VALUE: load_glyph:fp <- [DW_OP_plus_uconst 36, DW_OP_stack_value] $sp
	@DEBUG_VALUE: load_glyph:font_dsc <- [DW_OP_plus_uconst 32] [$sp+0]
	@DEBUG_VALUE: load_glyph:glyph_offset <- [DW_OP_plus_uconst 28] [$sp+0]
	@DEBUG_VALUE: load_glyph:header <- [DW_OP_plus_uconst 48, DW_OP_stack_value] $sp
	@DEBUG_VALUE: lvgl_load_font:glyph_offset <- [DW_OP_plus_uconst 28] [$sp+0]
	@DEBUG_VALUE: lvgl_load_font:fp <- [DW_OP_plus_uconst 36, DW_OP_stack_value] $sp
	@DEBUG_VALUE: k <- 0
	.loc	4 0 0 is_stmt 0                 @ ../GUILib/src/font/lv_font_loader.c:0:0
	lsrs	r2, r6, #3
.Ltmp233:
	.loc	4 450 13                        @ ../GUILib/src/font/lv_font_loader.c:450:13
	mvns	r1, r1
	subs	r0, r0, r2
.Ltmp234:
	add	r0, r1
	cmp	r0, #1
	mov.w	r1, #1
	it	le
	movle	r0, r1
	rsbs	r6, r0, #0
.Ltmp235:
	ldr	r0, [sp, #16]                   @ 4-byte Reload
	ldr	r1, [sp, #24]                   @ 4-byte Reload
	adds	r5, r0, r1
.Ltmp236:
.LBB0_63:                               @   Parent Loop BB0_55 Depth=1
                                        @ =>  This Inner Loop Header: Depth=2
	@DEBUG_VALUE: load_glyph:loca_count <- $r11
	@DEBUG_VALUE: lvgl_load_font:loca_count <- $r11
	@DEBUG_VALUE: i <- $r9
	@DEBUG_VALUE: bmp_size <- $r8
	@DEBUG_VALUE: lvgl_load_font:font <- $r4
	@DEBUG_VALUE: lv_font_load:font <- $r4
	@DEBUG_VALUE: load_glyph:cur_bmp_size <- [DW_OP_plus_uconst 24] [$sp+0]
	@DEBUG_VALUE: load_glyph:glyph_bmp <- [DW_OP_plus_uconst 16] [$sp+0]
	@DEBUG_VALUE: load_glyph:glyph_dsc <- [DW_OP_plus_uconst 20] [$sp+0]
	@DEBUG_VALUE: load_glyph:glyph_length <- [DW_OP_plus_uconst 8] [$sp+0]
	@DEBUG_VALUE: lvgl_load_font:glyph_start <- [DW_OP_plus_uconst 12] [$sp+0]
	@DEBUG_VALUE: load_glyph:start <- [DW_OP_plus_uconst 12] [$sp+0]
	@DEBUG_VALUE: load_glyph:fp <- [DW_OP_plus_uconst 36, DW_OP_stack_value] $sp
	@DEBUG_VALUE: load_glyph:font_dsc <- [DW_OP_plus_uconst 32] [$sp+0]
	@DEBUG_VALUE: load_glyph:glyph_offset <- [DW_OP_plus_uconst 28] [$sp+0]
	@DEBUG_VALUE: load_glyph:header <- [DW_OP_plus_uconst 48, DW_OP_stack_value] $sp
	@DEBUG_VALUE: lvgl_load_font:glyph_offset <- [DW_OP_plus_uconst 28] [$sp+0]
	@DEBUG_VALUE: lvgl_load_font:fp <- [DW_OP_plus_uconst 36, DW_OP_stack_value] $sp
	@DEBUG_VALUE: res <- [DW_OP_plus_uconst 99, DW_OP_deref] $sp
	@DEBUG_VALUE: k <- undef
	.loc	4 451 47 is_stmt 1              @ ../GUILib/src/font/lv_font_loader.c:451:47
	add	r0, sp, #88
	movs	r1, #8
	mov	r2, r10
	bl	read_bits
.Ltmp237:
	.loc	4 451 45 is_stmt 0              @ ../GUILib/src/font/lv_font_loader.c:451:45
	strb	r0, [r5]
.Ltmp238:
	.loc	4 452 20 is_stmt 1              @ ../GUILib/src/font/lv_font_loader.c:452:20
	ldrb.w	r0, [sp, #99]
.Ltmp239:
	@DEBUG_VALUE: k <- [DW_OP_plus_uconst 1, DW_OP_stack_value] undef
	@DEBUG_VALUE: res <- $r0
	.loc	4 452 20 is_stmt 0              @ ../GUILib/src/font/lv_font_loader.c:452:20
	cmp	r0, #0
	bne.w	.LBB0_12
.Ltmp240:
@ %bb.64:                               @   in Loop: Header=BB0_63 Depth=2
	@DEBUG_VALUE: load_glyph:loca_count <- $r11
	@DEBUG_VALUE: lvgl_load_font:loca_count <- $r11
	@DEBUG_VALUE: i <- $r9
	@DEBUG_VALUE: bmp_size <- $r8
	@DEBUG_VALUE: lvgl_load_font:font <- $r4
	@DEBUG_VALUE: lv_font_load:font <- $r4
	@DEBUG_VALUE: res <- $r0
	@DEBUG_VALUE: load_glyph:cur_bmp_size <- [DW_OP_plus_uconst 24] [$sp+0]
	@DEBUG_VALUE: load_glyph:glyph_bmp <- [DW_OP_plus_uconst 16] [$sp+0]
	@DEBUG_VALUE: load_glyph:glyph_dsc <- [DW_OP_plus_uconst 20] [$sp+0]
	@DEBUG_VALUE: load_glyph:glyph_length <- [DW_OP_plus_uconst 8] [$sp+0]
	@DEBUG_VALUE: lvgl_load_font:glyph_start <- [DW_OP_plus_uconst 12] [$sp+0]
	@DEBUG_VALUE: load_glyph:start <- [DW_OP_plus_uconst 12] [$sp+0]
	@DEBUG_VALUE: load_glyph:fp <- [DW_OP_plus_uconst 36, DW_OP_stack_value] $sp
	@DEBUG_VALUE: load_glyph:font_dsc <- [DW_OP_plus_uconst 32] [$sp+0]
	@DEBUG_VALUE: load_glyph:glyph_offset <- [DW_OP_plus_uconst 28] [$sp+0]
	@DEBUG_VALUE: load_glyph:header <- [DW_OP_plus_uconst 48, DW_OP_stack_value] $sp
	@DEBUG_VALUE: lvgl_load_font:glyph_offset <- [DW_OP_plus_uconst 28] [$sp+0]
	@DEBUG_VALUE: lvgl_load_font:fp <- [DW_OP_plus_uconst 36, DW_OP_stack_value] $sp
	@DEBUG_VALUE: k <- [DW_OP_plus_uconst 1, DW_OP_stack_value] undef
	.loc	4 450 30 is_stmt 1              @ ../GUILib/src/font/lv_font_loader.c:450:30
	adds	r6, #1
	add.w	r5, r5, #1
.Ltmp241:
	.loc	4 450 13 is_stmt 0              @ ../GUILib/src/font/lv_font_loader.c:450:13
	blo	.LBB0_63
.Ltmp242:
.LBB0_65:                               @   in Loop: Header=BB0_55 Depth=1
	@DEBUG_VALUE: load_glyph:loca_count <- $r11
	@DEBUG_VALUE: lvgl_load_font:loca_count <- $r11
	@DEBUG_VALUE: i <- $r9
	@DEBUG_VALUE: bmp_size <- $r8
	@DEBUG_VALUE: lvgl_load_font:font <- $r4
	@DEBUG_VALUE: lv_font_load:font <- $r4
	@DEBUG_VALUE: load_glyph:cur_bmp_size <- [DW_OP_plus_uconst 24] [$sp+0]
	@DEBUG_VALUE: load_glyph:glyph_bmp <- [DW_OP_plus_uconst 16] [$sp+0]
	@DEBUG_VALUE: load_glyph:glyph_dsc <- [DW_OP_plus_uconst 20] [$sp+0]
	@DEBUG_VALUE: load_glyph:glyph_length <- [DW_OP_plus_uconst 8] [$sp+0]
	@DEBUG_VALUE: lvgl_load_font:glyph_start <- [DW_OP_plus_uconst 12] [$sp+0]
	@DEBUG_VALUE: load_glyph:start <- [DW_OP_plus_uconst 12] [$sp+0]
	@DEBUG_VALUE: load_glyph:fp <- [DW_OP_plus_uconst 36, DW_OP_stack_value] $sp
	@DEBUG_VALUE: load_glyph:font_dsc <- [DW_OP_plus_uconst 32] [$sp+0]
	@DEBUG_VALUE: load_glyph:glyph_offset <- [DW_OP_plus_uconst 28] [$sp+0]
	@DEBUG_VALUE: load_glyph:header <- [DW_OP_plus_uconst 48, DW_OP_stack_value] $sp
	@DEBUG_VALUE: lvgl_load_font:glyph_offset <- [DW_OP_plus_uconst 28] [$sp+0]
	@DEBUG_VALUE: lvgl_load_font:fp <- [DW_OP_plus_uconst 36, DW_OP_stack_value] $sp
	.loc	4 456 75 is_stmt 1              @ ../GUILib/src/font/lv_font_loader.c:456:75
	rsb.w	r1, r7, #8
.Ltmp243:
	@DEBUG_VALUE: res <- [DW_OP_plus_uconst 99, DW_OP_deref] $sp
	.loc	4 456 54 is_stmt 0              @ ../GUILib/src/font/lv_font_loader.c:456:54
	add	r0, sp, #88
	mov	r2, r10
	bl	read_bits
.Ltmp244:
	.loc	4 456 36                        @ ../GUILib/src/font/lv_font_loader.c:456:36
	ldr	r1, [sp, #24]                   @ 4-byte Reload
	.loc	4 456 52                        @ ../GUILib/src/font/lv_font_loader.c:456:52
	ldr	r2, [sp, #16]                   @ 4-byte Reload
	.loc	4 456 36                        @ ../GUILib/src/font/lv_font_loader.c:456:36
	add	r1, r8
	.loc	4 456 47                        @ ../GUILib/src/font/lv_font_loader.c:456:47
	subs	r1, #1
	.loc	4 456 52                        @ ../GUILib/src/font/lv_font_loader.c:456:52
	strb	r0, [r2, r1]
.Ltmp245:
	.loc	4 457 16 is_stmt 1              @ ../GUILib/src/font/lv_font_loader.c:457:16
	ldrb.w	r2, [sp, #99]
.Ltmp246:
	@DEBUG_VALUE: res <- $r2
	.loc	4 457 16 is_stmt 0              @ ../GUILib/src/font/lv_font_loader.c:457:16
	cmp	r2, #0
	bne.w	.LBB0_12
.Ltmp247:
@ %bb.66:                               @   in Loop: Header=BB0_55 Depth=1
	@DEBUG_VALUE: load_glyph:loca_count <- $r11
	@DEBUG_VALUE: lvgl_load_font:loca_count <- $r11
	@DEBUG_VALUE: i <- $r9
	@DEBUG_VALUE: bmp_size <- $r8
	@DEBUG_VALUE: lvgl_load_font:font <- $r4
	@DEBUG_VALUE: lv_font_load:font <- $r4
	@DEBUG_VALUE: res <- $r2
	@DEBUG_VALUE: load_glyph:cur_bmp_size <- [DW_OP_plus_uconst 24] [$sp+0]
	@DEBUG_VALUE: load_glyph:glyph_bmp <- [DW_OP_plus_uconst 16] [$sp+0]
	@DEBUG_VALUE: load_glyph:glyph_dsc <- [DW_OP_plus_uconst 20] [$sp+0]
	@DEBUG_VALUE: load_glyph:glyph_length <- [DW_OP_plus_uconst 8] [$sp+0]
	@DEBUG_VALUE: lvgl_load_font:glyph_start <- [DW_OP_plus_uconst 12] [$sp+0]
	@DEBUG_VALUE: load_glyph:start <- [DW_OP_plus_uconst 12] [$sp+0]
	@DEBUG_VALUE: load_glyph:fp <- [DW_OP_plus_uconst 36, DW_OP_stack_value] $sp
	@DEBUG_VALUE: load_glyph:font_dsc <- [DW_OP_plus_uconst 32] [$sp+0]
	@DEBUG_VALUE: load_glyph:glyph_offset <- [DW_OP_plus_uconst 28] [$sp+0]
	@DEBUG_VALUE: load_glyph:header <- [DW_OP_plus_uconst 48, DW_OP_stack_value] $sp
	@DEBUG_VALUE: lvgl_load_font:glyph_offset <- [DW_OP_plus_uconst 28] [$sp+0]
	@DEBUG_VALUE: lvgl_load_font:fp <- [DW_OP_plus_uconst 36, DW_OP_stack_value] $sp
	.loc	4 462 54 is_stmt 1              @ ../GUILib/src/font/lv_font_loader.c:462:54
	uxtb	r0, r0
	.loc	4 462 52 is_stmt 0              @ ../GUILib/src/font/lv_font_loader.c:462:52
	ldr	r2, [sp, #16]                   @ 4-byte Reload
.Ltmp248:
	.loc	4 462 93                        @ ../GUILib/src/font/lv_font_loader.c:462:93
	lsls	r0, r7
	.loc	4 462 52                        @ ../GUILib/src/font/lv_font_loader.c:462:52
	strb	r0, [r2, r1]
	b	.LBB0_68
.Ltmp249:
.LBB0_67:                               @   in Loop: Header=BB0_55 Depth=1
	@DEBUG_VALUE: load_glyph:loca_count <- $r11
	@DEBUG_VALUE: lvgl_load_font:loca_count <- $r11
	@DEBUG_VALUE: i <- $r9
	@DEBUG_VALUE: bmp_size <- $r8
	@DEBUG_VALUE: nbits <- $r6
	@DEBUG_VALUE: lvgl_load_font:font <- $r4
	@DEBUG_VALUE: lv_font_load:font <- $r4
	@DEBUG_VALUE: next_offset <- $r0
	@DEBUG_VALUE: load_glyph:cur_bmp_size <- [DW_OP_plus_uconst 24] [$sp+0]
	@DEBUG_VALUE: load_glyph:glyph_bmp <- [DW_OP_plus_uconst 16] [$sp+0]
	@DEBUG_VALUE: load_glyph:glyph_dsc <- [DW_OP_plus_uconst 20] [$sp+0]
	@DEBUG_VALUE: load_glyph:glyph_length <- [DW_OP_plus_uconst 8] [$sp+0]
	@DEBUG_VALUE: lvgl_load_font:glyph_start <- [DW_OP_plus_uconst 12] [$sp+0]
	@DEBUG_VALUE: load_glyph:start <- [DW_OP_plus_uconst 12] [$sp+0]
	@DEBUG_VALUE: load_glyph:fp <- [DW_OP_plus_uconst 36, DW_OP_stack_value] $sp
	@DEBUG_VALUE: load_glyph:font_dsc <- [DW_OP_plus_uconst 32] [$sp+0]
	@DEBUG_VALUE: load_glyph:glyph_offset <- [DW_OP_plus_uconst 28] [$sp+0]
	@DEBUG_VALUE: load_glyph:header <- [DW_OP_plus_uconst 48, DW_OP_stack_value] $sp
	@DEBUG_VALUE: lvgl_load_font:glyph_offset <- [DW_OP_plus_uconst 28] [$sp+0]
	@DEBUG_VALUE: lvgl_load_font:fp <- [DW_OP_plus_uconst 36, DW_OP_stack_value] $sp
	.loc	4 445 32 is_stmt 1              @ ../GUILib/src/font/lv_font_loader.c:445:32
	ldr	r0, [sp, #16]                   @ 4-byte Reload
.Ltmp250:
	ldr	r1, [sp, #24]                   @ 4-byte Reload
	.loc	4 445 16 is_stmt 0              @ ../GUILib/src/font/lv_font_loader.c:445:16
	mov	r2, r8
	.loc	4 445 32                        @ ../GUILib/src/font/lv_font_loader.c:445:32
	add	r1, r0
	.loc	4 445 16                        @ ../GUILib/src/font/lv_font_loader.c:445:16
	add	r0, sp, #36
	movs	r3, #0
	bl	lv_fs_read
.Ltmp251:
	.loc	4 445 16                        @ ../GUILib/src/font/lv_font_loader.c:445:16
	cmp	r0, #0
	bne.w	.LBB0_12
.Ltmp252:
.LBB0_68:                               @   in Loop: Header=BB0_55 Depth=1
	@DEBUG_VALUE: load_glyph:loca_count <- $r11
	@DEBUG_VALUE: lvgl_load_font:loca_count <- $r11
	@DEBUG_VALUE: i <- $r9
	@DEBUG_VALUE: bmp_size <- $r8
	@DEBUG_VALUE: lvgl_load_font:font <- $r4
	@DEBUG_VALUE: lv_font_load:font <- $r4
	@DEBUG_VALUE: load_glyph:cur_bmp_size <- [DW_OP_plus_uconst 24] [$sp+0]
	@DEBUG_VALUE: load_glyph:glyph_bmp <- [DW_OP_plus_uconst 16] [$sp+0]
	@DEBUG_VALUE: load_glyph:glyph_dsc <- [DW_OP_plus_uconst 20] [$sp+0]
	@DEBUG_VALUE: load_glyph:glyph_length <- [DW_OP_plus_uconst 8] [$sp+0]
	@DEBUG_VALUE: lvgl_load_font:glyph_start <- [DW_OP_plus_uconst 12] [$sp+0]
	@DEBUG_VALUE: load_glyph:start <- [DW_OP_plus_uconst 12] [$sp+0]
	@DEBUG_VALUE: load_glyph:fp <- [DW_OP_plus_uconst 36, DW_OP_stack_value] $sp
	@DEBUG_VALUE: load_glyph:font_dsc <- [DW_OP_plus_uconst 32] [$sp+0]
	@DEBUG_VALUE: load_glyph:glyph_offset <- [DW_OP_plus_uconst 28] [$sp+0]
	@DEBUG_VALUE: load_glyph:header <- [DW_OP_plus_uconst 48, DW_OP_stack_value] $sp
	@DEBUG_VALUE: lvgl_load_font:glyph_offset <- [DW_OP_plus_uconst 28] [$sp+0]
	@DEBUG_VALUE: lvgl_load_font:fp <- [DW_OP_plus_uconst 36, DW_OP_stack_value] $sp
	.loc	4 466 22 is_stmt 1              @ ../GUILib/src/font/lv_font_loader.c:466:22
	ldr	r0, [sp, #24]                   @ 4-byte Reload
	add	r0, r8
.Ltmp253:
	@DEBUG_VALUE: load_glyph:cur_bmp_size <- $r0
	.loc	4 467 5                         @ ../GUILib/src/font/lv_font_loader.c:467:5
	str	r0, [sp, #24]                   @ 4-byte Spill
.Ltmp254:
	@DEBUG_VALUE: load_glyph:cur_bmp_size <- [DW_OP_plus_uconst 24] [$sp+0]
	@DEBUG_VALUE: load_glyph:cur_bmp_size <- [DW_OP_plus_uconst 24] [$sp+0]
.LBB0_69:                               @   in Loop: Header=BB0_55 Depth=1
	@DEBUG_VALUE: load_glyph:loca_count <- $r11
	@DEBUG_VALUE: lvgl_load_font:loca_count <- $r11
	@DEBUG_VALUE: i <- $r9
	@DEBUG_VALUE: lvgl_load_font:font <- $r4
	@DEBUG_VALUE: lv_font_load:font <- $r4
	@DEBUG_VALUE: load_glyph:cur_bmp_size <- [DW_OP_plus_uconst 24] [$sp+0]
	@DEBUG_VALUE: load_glyph:glyph_bmp <- [DW_OP_plus_uconst 16] [$sp+0]
	@DEBUG_VALUE: load_glyph:glyph_dsc <- [DW_OP_plus_uconst 20] [$sp+0]
	@DEBUG_VALUE: load_glyph:glyph_length <- [DW_OP_plus_uconst 8] [$sp+0]
	@DEBUG_VALUE: lvgl_load_font:glyph_start <- [DW_OP_plus_uconst 12] [$sp+0]
	@DEBUG_VALUE: load_glyph:start <- [DW_OP_plus_uconst 12] [$sp+0]
	@DEBUG_VALUE: load_glyph:fp <- [DW_OP_plus_uconst 36, DW_OP_stack_value] $sp
	@DEBUG_VALUE: load_glyph:font_dsc <- [DW_OP_plus_uconst 32] [$sp+0]
	@DEBUG_VALUE: load_glyph:glyph_offset <- [DW_OP_plus_uconst 28] [$sp+0]
	@DEBUG_VALUE: load_glyph:header <- [DW_OP_plus_uconst 48, DW_OP_stack_value] $sp
	@DEBUG_VALUE: lvgl_load_font:glyph_offset <- [DW_OP_plus_uconst 28] [$sp+0]
	@DEBUG_VALUE: lvgl_load_font:fp <- [DW_OP_plus_uconst 36, DW_OP_stack_value] $sp
	@DEBUG_VALUE: load_glyph:cur_bmp_size <- [DW_OP_plus_uconst 24] [$sp+0]
	.loc	4 423 45                        @ ../GUILib/src/font/lv_font_loader.c:423:45
	add.w	r9, r9, #1
.Ltmp255:
	@DEBUG_VALUE: i <- $r9
	.loc	4 423 5 is_stmt 0               @ ../GUILib/src/font/lv_font_loader.c:423:5
	cmp	r9, r11
	bne.w	.LBB0_55
	b	.LBB0_71
.Ltmp256:
.LBB0_70:
	@DEBUG_VALUE: load_glyph:loca_count <- $r11
	@DEBUG_VALUE: lvgl_load_font:loca_count <- $r11
	@DEBUG_VALUE: lvgl_load_font:loca_start <- $r10
	@DEBUG_VALUE: lvgl_load_font:font <- $r4
	@DEBUG_VALUE: lv_font_load:font <- $r4
	@DEBUG_VALUE: load_glyph:glyph_dsc <- [DW_OP_plus_uconst 20] [$sp+0]
	@DEBUG_VALUE: load_glyph:glyph_length <- [DW_OP_plus_uconst 8] [$sp+0]
	@DEBUG_VALUE: lvgl_load_font:glyph_start <- [DW_OP_plus_uconst 12] [$sp+0]
	@DEBUG_VALUE: load_glyph:start <- [DW_OP_plus_uconst 12] [$sp+0]
	@DEBUG_VALUE: load_glyph:fp <- [DW_OP_plus_uconst 36, DW_OP_stack_value] $sp
	@DEBUG_VALUE: load_glyph:font_dsc <- [DW_OP_plus_uconst 32] [$sp+0]
	@DEBUG_VALUE: load_glyph:glyph_offset <- [DW_OP_plus_uconst 28] [$sp+0]
	@DEBUG_VALUE: load_glyph:header <- [DW_OP_plus_uconst 48, DW_OP_stack_value] $sp
	@DEBUG_VALUE: lvgl_load_font:glyph_offset <- [DW_OP_plus_uconst 28] [$sp+0]
	@DEBUG_VALUE: lvgl_load_font:fp <- [DW_OP_plus_uconst 36, DW_OP_stack_value] $sp
	@DEBUG_VALUE: load_glyph:cur_bmp_size <- 0
	.loc	4 417 38 is_stmt 1              @ ../GUILib/src/font/lv_font_loader.c:417:38
	movs	r0, #0
	bl	lv_mem_alloc
.Ltmp257:
	.loc	4 419 28                        @ ../GUILib/src/font/lv_font_loader.c:419:28
	str	r0, [r7]
.Ltmp258:
	@DEBUG_VALUE: i <- 1
	@DEBUG_VALUE: load_glyph:cur_bmp_size <- 0
.LBB0_71:
	@DEBUG_VALUE: lvgl_load_font:loca_count <- $r11
	@DEBUG_VALUE: lvgl_load_font:font <- $r4
	@DEBUG_VALUE: lv_font_load:font <- $r4
	@DEBUG_VALUE: lvgl_load_font:glyph_start <- [DW_OP_plus_uconst 12] [$sp+0]
	@DEBUG_VALUE: lvgl_load_font:glyph_offset <- [DW_OP_plus_uconst 28] [$sp+0]
	@DEBUG_VALUE: lvgl_load_font:fp <- [DW_OP_plus_uconst 36, DW_OP_stack_value] $sp
	@DEBUG_VALUE: lvgl_load_font:glyph_length <- [DW_OP_plus_uconst 8] [$sp+0]
	.loc	4 567 5                         @ ../GUILib/src/font/lv_font_loader.c:567:5
	ldr	r0, [sp, #28]                   @ 4-byte Reload
	bl	lv_mem_free
.Ltmp259:
	.loc	4 573 20                        @ ../GUILib/src/font/lv_font_loader.c:573:20
	ldrh.w	r0, [sp, #52]
.Ltmp260:
	.loc	4 573 8 is_stmt 0               @ ../GUILib/src/font/lv_font_loader.c:573:8
	cmp	r0, #3
	bhi	.LBB0_73
.Ltmp261:
@ %bb.72:
	@DEBUG_VALUE: lvgl_load_font:loca_count <- $r11
	@DEBUG_VALUE: lvgl_load_font:font <- $r4
	@DEBUG_VALUE: lv_font_load:font <- $r4
	@DEBUG_VALUE: lvgl_load_font:glyph_length <- [DW_OP_plus_uconst 8] [$sp+0]
	@DEBUG_VALUE: lvgl_load_font:glyph_start <- [DW_OP_plus_uconst 12] [$sp+0]
	@DEBUG_VALUE: lvgl_load_font:glyph_offset <- [DW_OP_plus_uconst 28] [$sp+0]
	@DEBUG_VALUE: lvgl_load_font:fp <- [DW_OP_plus_uconst 36, DW_OP_stack_value] $sp
	.loc	4 0 8                           @ ../GUILib/src/font/lv_font_loader.c:0:8
	ldr	r2, [sp, #32]                   @ 4-byte Reload
	movs	r0, #0
.Ltmp262:
	.loc	4 575 32 is_stmt 1              @ ../GUILib/src/font/lv_font_loader.c:575:32
	ldrh	r1, [r2, #18]
	.loc	4 574 28                        @ ../GUILib/src/font/lv_font_loader.c:574:28
	str	r0, [r2, #12]
	.loc	4 575 32                        @ ../GUILib/src/font/lv_font_loader.c:575:32
	bic	r1, r1, #8192
	strh	r1, [r2, #18]
	.loc	4 576 30                        @ ../GUILib/src/font/lv_font_loader.c:576:30
	strh	r0, [r2, #16]
	b	.LBB0_7
.Ltmp263:
.LBB0_73:
	@DEBUG_VALUE: lvgl_load_font:loca_count <- $r11
	@DEBUG_VALUE: lvgl_load_font:font <- $r4
	@DEBUG_VALUE: lv_font_load:font <- $r4
	@DEBUG_VALUE: lvgl_load_font:glyph_length <- [DW_OP_plus_uconst 8] [$sp+0]
	@DEBUG_VALUE: lvgl_load_font:glyph_start <- [DW_OP_plus_uconst 12] [$sp+0]
	@DEBUG_VALUE: lvgl_load_font:glyph_offset <- [DW_OP_plus_uconst 28] [$sp+0]
	@DEBUG_VALUE: lvgl_load_font:fp <- [DW_OP_plus_uconst 36, DW_OP_stack_value] $sp
	.loc	4 580 39                        @ ../GUILib/src/font/lv_font_loader.c:580:39
	ldrd	r1, r0, [sp, #8]                @ 8-byte Folded Reload
	.loc	4 582 63                        @ ../GUILib/src/font/lv_font_loader.c:582:63
	ldrb.w	r2, [sp, #75]
	.loc	4 580 39                        @ ../GUILib/src/font/lv_font_loader.c:580:39
	adds	r3, r1, r0
.Ltmp264:
	@DEBUG_VALUE: lvgl_load_font:kern_start <- $r3
	.loc	4 582 27                        @ ../GUILib/src/font/lv_font_loader.c:582:27
	ldr	r1, [sp, #32]                   @ 4-byte Reload
	add	r0, sp, #36
	bl	load_kern
.Ltmp265:
	@DEBUG_VALUE: lvgl_load_font:kern_length <- $r0
	.loc	4 96 12                         @ ../GUILib/src/font/lv_font_loader.c:96:12
	cmp.w	r0, #-1
	bgt.w	.LBB0_7
	b	.LBB0_5
.Ltmp266:
	.p2align	2
@ %bb.74:
	.loc	4 0 12 is_stmt 0                @ ../GUILib/src/font/lv_font_loader.c:0:12
.LCPI0_0:
.L.str.1:
	.asciz	"head\000\000\000"
.LCPI0_1:
.L.str.3:
	.asciz	"cmap\000\000\000"
.LCPI0_2:
.L.str.2:
	.asciz	"loca\000\000\000"
.LCPI0_3:
.L.str.4:
	.asciz	"glyf\000\000\000"
.Lfunc_end0:
	.size	lv_font_load, .Lfunc_end0-lv_font_load
	.cfi_endproc
	.file	5 "C:\\Users\\Hyacincher\\Desktop\\HyTelectrl\\Code\\Project" "../GUILib/src/widgets/../font/lv_font.h"
	.file	6 "C:\\Users\\Hyacincher\\Desktop\\HyTelectrl\\Code\\Project" "../GUILib/src/core/../misc/lv_area.h"
	.cantunwind
	.fnend
                                        @ -- End function
	.section	.text.lv_font_free,"ax",%progbits
	.hidden	lv_font_free                    @ -- Begin function lv_font_free
	.globl	lv_font_free
	.p2align	1
	.type	lv_font_free,%function
	.code	16                              @ @lv_font_free
	.thumb_func
lv_font_free:
.Lfunc_begin1:
	.loc	4 118 0 is_stmt 1               @ ../GUILib/src/font/lv_font_loader.c:118:0
	.fnstart
	.cfi_startproc
@ %bb.0:
	@DEBUG_VALUE: lv_font_free:font <- $r0
	@DEBUG_VALUE: lv_font_free:font <- $r0
	.loc	4 119 8 prologue_end            @ ../GUILib/src/font/lv_font_loader.c:119:8
	cbz	r0, .LBB1_7
.Ltmp267:
@ %bb.1:
	@DEBUG_VALUE: lv_font_free:font <- $r0
	.save	{r4, r5, r6, r7, r8, lr}
	push.w	{r4, r5, r6, r7, r8, lr}
	.cfi_def_cfa_offset 24
	.cfi_offset lr, -4
	.cfi_offset r8, -8
	.cfi_offset r7, -12
	.cfi_offset r6, -16
	.cfi_offset r5, -20
	.cfi_offset r4, -24
.Ltmp268:
	.loc	4 120 70                        @ ../GUILib/src/font/lv_font_loader.c:120:70
	ldr	r5, [r0, #16]
.Ltmp269:
	@DEBUG_VALUE: dsc <- $r5
	.loc	4 0 70 is_stmt 0                @ ../GUILib/src/font/lv_font_loader.c:0:70
	mov	r4, r0
.Ltmp270:
	@DEBUG_VALUE: lv_font_free:font <- $r4
	@DEBUG_VALUE: lv_font_free:font <- $r4
	.loc	4 122 12 is_stmt 1              @ ../GUILib/src/font/lv_font_loader.c:122:12
	cmp	r5, #0
	beq	.LBB1_31
.Ltmp271:
@ %bb.2:
	@DEBUG_VALUE: dsc <- $r5
	@DEBUG_VALUE: lv_font_free:font <- $r4
	.loc	4 124 21                        @ ../GUILib/src/font/lv_font_loader.c:124:21
	ldrh	r0, [r5, #18]
	.loc	4 0 0 is_stmt 0                 @ ../GUILib/src/font/lv_font_loader.c:0:0
	ldr	r6, [r5, #12]
.Ltmp272:
	.loc	4 124 16                        @ ../GUILib/src/font/lv_font_loader.c:124:16
	lsls	r0, r0, #18
	bmi	.LBB1_8
.Ltmp273:
@ %bb.3:
	@DEBUG_VALUE: dsc <- $r5
	@DEBUG_VALUE: lv_font_free:font <- $r4
	@DEBUG_VALUE: kern_dsc <- $r6
	.loc	4 128 20 is_stmt 1              @ ../GUILib/src/font/lv_font_loader.c:128:20
	cbz	r6, .LBB1_17
.Ltmp274:
@ %bb.4:
	@DEBUG_VALUE: kern_dsc <- $r6
	@DEBUG_VALUE: dsc <- $r5
	@DEBUG_VALUE: lv_font_free:font <- $r4
	.loc	4 129 34                        @ ../GUILib/src/font/lv_font_loader.c:129:34
	ldr	r0, [r6]
.Ltmp275:
	.loc	4 129 24 is_stmt 0              @ ../GUILib/src/font/lv_font_loader.c:129:24
	cbz	r0, .LBB1_6
.Ltmp276:
@ %bb.5:
	@DEBUG_VALUE: kern_dsc <- $r6
	@DEBUG_VALUE: dsc <- $r5
	@DEBUG_VALUE: lv_font_free:font <- $r4
	.loc	4 130 25 is_stmt 1              @ ../GUILib/src/font/lv_font_loader.c:130:25
	bl	lv_mem_free
.Ltmp277:
.LBB1_6:
	@DEBUG_VALUE: kern_dsc <- $r6
	@DEBUG_VALUE: dsc <- $r5
	@DEBUG_VALUE: lv_font_free:font <- $r4
	.loc	4 132 34                        @ ../GUILib/src/font/lv_font_loader.c:132:34
	ldr	r0, [r6, #4]
	b	.LBB1_14
.Ltmp278:
.LBB1_7:
	@DEBUG_VALUE: lv_font_free:font <- $r0
	.loc	4 179 1                         @ ../GUILib/src/font/lv_font_loader.c:179:1
	bx	lr
.Ltmp279:
.LBB1_8:
	@DEBUG_VALUE: dsc <- $r5
	@DEBUG_VALUE: lv_font_free:font <- $r4
	@DEBUG_VALUE: kern_dsc <- $r6
	.loc	4 142 20                        @ ../GUILib/src/font/lv_font_loader.c:142:20
	cbz	r6, .LBB1_17
.Ltmp280:
@ %bb.9:
	@DEBUG_VALUE: kern_dsc <- $r6
	@DEBUG_VALUE: dsc <- $r5
	@DEBUG_VALUE: lv_font_free:font <- $r4
	.loc	4 143 34                        @ ../GUILib/src/font/lv_font_loader.c:143:34
	ldr	r0, [r6]
.Ltmp281:
	.loc	4 143 24 is_stmt 0              @ ../GUILib/src/font/lv_font_loader.c:143:24
	cbz	r0, .LBB1_11
.Ltmp282:
@ %bb.10:
	@DEBUG_VALUE: kern_dsc <- $r6
	@DEBUG_VALUE: dsc <- $r5
	@DEBUG_VALUE: lv_font_free:font <- $r4
	.loc	4 144 25 is_stmt 1              @ ../GUILib/src/font/lv_font_loader.c:144:25
	bl	lv_mem_free
.Ltmp283:
.LBB1_11:
	@DEBUG_VALUE: kern_dsc <- $r6
	@DEBUG_VALUE: dsc <- $r5
	@DEBUG_VALUE: lv_font_free:font <- $r4
	.loc	4 146 34                        @ ../GUILib/src/font/lv_font_loader.c:146:34
	ldr	r0, [r6, #4]
.Ltmp284:
	.loc	4 146 24 is_stmt 0              @ ../GUILib/src/font/lv_font_loader.c:146:24
	cbz	r0, .LBB1_13
.Ltmp285:
@ %bb.12:
	@DEBUG_VALUE: kern_dsc <- $r6
	@DEBUG_VALUE: dsc <- $r5
	@DEBUG_VALUE: lv_font_free:font <- $r4
	.loc	4 147 25 is_stmt 1              @ ../GUILib/src/font/lv_font_loader.c:147:25
	bl	lv_mem_free
.Ltmp286:
.LBB1_13:
	@DEBUG_VALUE: kern_dsc <- $r6
	@DEBUG_VALUE: dsc <- $r5
	@DEBUG_VALUE: lv_font_free:font <- $r4
	.loc	4 149 34                        @ ../GUILib/src/font/lv_font_loader.c:149:34
	ldr	r0, [r6, #8]
.Ltmp287:
.LBB1_14:
	@DEBUG_VALUE: dsc <- $r5
	@DEBUG_VALUE: lv_font_free:font <- $r4
	.loc	4 0 0 is_stmt 0                 @ ../GUILib/src/font/lv_font_loader.c:0:0
	cbz	r0, .LBB1_16
.Ltmp288:
@ %bb.15:
	@DEBUG_VALUE: dsc <- $r5
	@DEBUG_VALUE: lv_font_free:font <- $r4
	bl	lv_mem_free
.Ltmp289:
.LBB1_16:
	@DEBUG_VALUE: dsc <- $r5
	@DEBUG_VALUE: lv_font_free:font <- $r4
	mov	r0, r6
	bl	lv_mem_free
.Ltmp290:
.LBB1_17:
	@DEBUG_VALUE: dsc <- $r5
	@DEBUG_VALUE: lv_font_free:font <- $r4
	.loc	4 157 48 is_stmt 1              @ ../GUILib/src/font/lv_font_loader.c:157:48
	ldr.w	r8, [r5, #8]
.Ltmp291:
	@DEBUG_VALUE: cmaps <- $r8
	.loc	4 159 16                        @ ../GUILib/src/font/lv_font_loader.c:159:16
	cmp.w	r8, #0
	beq	.LBB1_26
.Ltmp292:
@ %bb.18:
	@DEBUG_VALUE: cmaps <- $r8
	@DEBUG_VALUE: dsc <- $r5
	@DEBUG_VALUE: lv_font_free:font <- $r4
	@DEBUG_VALUE: i <- 0
	.loc	4 160 41                        @ ../GUILib/src/font/lv_font_loader.c:160:41
	ldrh	r0, [r5, #18]
.Ltmp293:
	.loc	4 160 17 is_stmt 0              @ ../GUILib/src/font/lv_font_loader.c:160:17
	lsls	r0, r0, #23
	beq	.LBB1_25
.Ltmp294:
@ %bb.19:
	@DEBUG_VALUE: cmaps <- $r8
	@DEBUG_VALUE: dsc <- $r5
	@DEBUG_VALUE: lv_font_free:font <- $r4
	@DEBUG_VALUE: i <- 0
	add.w	r7, r8, #8
	movs	r6, #0
.Ltmp295:
	.p2align	2
.LBB1_20:                               @ =>This Inner Loop Header: Depth=1
	@DEBUG_VALUE: cmaps <- $r8
	@DEBUG_VALUE: dsc <- $r5
	@DEBUG_VALUE: lv_font_free:font <- $r4
	@DEBUG_VALUE: i <- $r6
	.loc	4 161 41 is_stmt 1              @ ../GUILib/src/font/lv_font_loader.c:161:41
	ldr	r0, [r7, #4]
.Ltmp296:
	.loc	4 161 24 is_stmt 0              @ ../GUILib/src/font/lv_font_loader.c:161:24
	cbz	r0, .LBB1_22
.Ltmp297:
@ %bb.21:                               @   in Loop: Header=BB1_20 Depth=1
	@DEBUG_VALUE: cmaps <- $r8
	@DEBUG_VALUE: i <- $r6
	@DEBUG_VALUE: dsc <- $r5
	@DEBUG_VALUE: lv_font_free:font <- $r4
	.loc	4 162 25 is_stmt 1              @ ../GUILib/src/font/lv_font_loader.c:162:25
	bl	lv_mem_free
.Ltmp298:
.LBB1_22:                               @   in Loop: Header=BB1_20 Depth=1
	@DEBUG_VALUE: cmaps <- $r8
	@DEBUG_VALUE: i <- $r6
	@DEBUG_VALUE: dsc <- $r5
	@DEBUG_VALUE: lv_font_free:font <- $r4
	.loc	4 163 41                        @ ../GUILib/src/font/lv_font_loader.c:163:41
	ldr	r0, [r7]
.Ltmp299:
	.loc	4 163 24 is_stmt 0              @ ../GUILib/src/font/lv_font_loader.c:163:24
	cbz	r0, .LBB1_24
.Ltmp300:
@ %bb.23:                               @   in Loop: Header=BB1_20 Depth=1
	@DEBUG_VALUE: cmaps <- $r8
	@DEBUG_VALUE: i <- $r6
	@DEBUG_VALUE: dsc <- $r5
	@DEBUG_VALUE: lv_font_free:font <- $r4
	.loc	4 164 25 is_stmt 1              @ ../GUILib/src/font/lv_font_loader.c:164:25
	bl	lv_mem_free
.Ltmp301:
.LBB1_24:                               @   in Loop: Header=BB1_20 Depth=1
	@DEBUG_VALUE: cmaps <- $r8
	@DEBUG_VALUE: i <- $r6
	@DEBUG_VALUE: dsc <- $r5
	@DEBUG_VALUE: lv_font_free:font <- $r4
	.loc	4 160 41                        @ ../GUILib/src/font/lv_font_loader.c:160:41
	ldrh	r0, [r5, #18]
	.loc	4 160 51 is_stmt 0              @ ../GUILib/src/font/lv_font_loader.c:160:51
	adds	r6, #1
.Ltmp302:
	@DEBUG_VALUE: i <- $r6
	.loc	4 160 36                        @ ../GUILib/src/font/lv_font_loader.c:160:36
	bfc	r0, #9, #23
.Ltmp303:
	.loc	4 160 17                        @ ../GUILib/src/font/lv_font_loader.c:160:17
	cmp	r6, r0
.Ltmp304:
	.loc	4 160 34                        @ ../GUILib/src/font/lv_font_loader.c:160:34
	add.w	r7, r7, #20
.Ltmp305:
	.loc	4 160 17                        @ ../GUILib/src/font/lv_font_loader.c:160:17
	blo	.LBB1_20
.Ltmp306:
.LBB1_25:
	@DEBUG_VALUE: cmaps <- $r8
	@DEBUG_VALUE: dsc <- $r5
	@DEBUG_VALUE: lv_font_free:font <- $r4
	.loc	4 166 17 is_stmt 1              @ ../GUILib/src/font/lv_font_loader.c:166:17
	mov	r0, r8
	bl	lv_mem_free
.Ltmp307:
.LBB1_26:
	@DEBUG_VALUE: cmaps <- $r8
	@DEBUG_VALUE: dsc <- $r5
	@DEBUG_VALUE: lv_font_free:font <- $r4
	.loc	4 169 29                        @ ../GUILib/src/font/lv_font_loader.c:169:29
	ldr	r0, [r5]
.Ltmp308:
	.loc	4 169 16 is_stmt 0              @ ../GUILib/src/font/lv_font_loader.c:169:16
	cbz	r0, .LBB1_28
.Ltmp309:
@ %bb.27:
	@DEBUG_VALUE: cmaps <- $r8
	@DEBUG_VALUE: dsc <- $r5
	@DEBUG_VALUE: lv_font_free:font <- $r4
	.loc	4 170 17 is_stmt 1              @ ../GUILib/src/font/lv_font_loader.c:170:17
	bl	lv_mem_free
.Ltmp310:
.LBB1_28:
	@DEBUG_VALUE: cmaps <- $r8
	@DEBUG_VALUE: dsc <- $r5
	@DEBUG_VALUE: lv_font_free:font <- $r4
	.loc	4 172 29                        @ ../GUILib/src/font/lv_font_loader.c:172:29
	ldr	r0, [r5, #4]
.Ltmp311:
	.loc	4 172 16 is_stmt 0              @ ../GUILib/src/font/lv_font_loader.c:172:16
	cbz	r0, .LBB1_30
.Ltmp312:
@ %bb.29:
	@DEBUG_VALUE: cmaps <- $r8
	@DEBUG_VALUE: dsc <- $r5
	@DEBUG_VALUE: lv_font_free:font <- $r4
	.loc	4 173 17 is_stmt 1              @ ../GUILib/src/font/lv_font_loader.c:173:17
	bl	lv_mem_free
.Ltmp313:
.LBB1_30:
	@DEBUG_VALUE: cmaps <- $r8
	@DEBUG_VALUE: dsc <- $r5
	@DEBUG_VALUE: lv_font_free:font <- $r4
	.loc	4 175 13                        @ ../GUILib/src/font/lv_font_loader.c:175:13
	mov	r0, r5
	bl	lv_mem_free
.Ltmp314:
.LBB1_31:
	@DEBUG_VALUE: dsc <- $r5
	@DEBUG_VALUE: lv_font_free:font <- $r4
	.loc	4 177 9                         @ ../GUILib/src/font/lv_font_loader.c:177:9
	mov	r0, r4
	pop.w	{r4, r5, r6, r7, r8, lr}
.Ltmp315:
	@DEBUG_VALUE: lv_font_free:font <- [DW_OP_LLVM_entry_value 1] $r0
	b	lv_mem_free
.Ltmp316:
.Lfunc_end1:
	.size	lv_font_free, .Lfunc_end1-lv_font_free
	.cfi_endproc
	.file	7 "C:\\Users\\Hyacincher\\Desktop\\HyTelectrl\\Code\\Project" "../GUILib/src/misc/lv_mem.h"
	.cantunwind
	.fnend
                                        @ -- End function
	.section	.text.load_kern,"ax",%progbits
	.hidden	load_kern                       @ -- Begin function load_kern
	.globl	load_kern
	.p2align	2
	.type	load_kern,%function
	.code	16                              @ @load_kern
	.thumb_func
load_kern:
.Lfunc_begin2:
	.loc	4 588 0                         @ ../GUILib/src/font/lv_font_loader.c:588:0
	.fnstart
	.cfi_startproc
@ %bb.0:
	@DEBUG_VALUE: load_kern:fp <- $r0
	@DEBUG_VALUE: load_kern:font_dsc <- $r1
	@DEBUG_VALUE: load_kern:format <- $r2
	@DEBUG_VALUE: load_kern:start <- $r3
	.save	{r4, r5, r6, r7, r8, r9, r10, lr}
	push.w	{r4, r5, r6, r7, r8, r9, r10, lr}
	.cfi_def_cfa_offset 32
	.cfi_offset lr, -4
	.cfi_offset r10, -8
	.cfi_offset r9, -12
	.cfi_offset r8, -16
	.cfi_offset r7, -20
	.cfi_offset r6, -24
	.cfi_offset r5, -28
	.cfi_offset r4, -32
	.pad	#16
	sub	sp, #16
	.cfi_def_cfa_offset 48
	mov	r6, r2
.Ltmp317:
	@DEBUG_VALUE: load_kern:format <- $r6
	mov	r7, r1
.Ltmp318:
	@DEBUG_VALUE: load_kern:font_dsc <- $r7
	.loc	4 589 27 prologue_end           @ ../GUILib/src/font/lv_font_loader.c:589:27
	adr	r2, .LCPI2_0
	mov	r1, r3
.Ltmp319:
	@DEBUG_VALUE: load_kern:start <- $r1
	.loc	4 0 27 is_stmt 0                @ ../GUILib/src/font/lv_font_loader.c:0:27
	mov	r5, r0
.Ltmp320:
	@DEBUG_VALUE: load_kern:start <- $r3
	@DEBUG_VALUE: load_kern:format <- $r6
	@DEBUG_VALUE: load_kern:font_dsc <- $r7
	@DEBUG_VALUE: load_kern:fp <- $r5
	.loc	4 589 27                        @ ../GUILib/src/font/lv_font_loader.c:589:27
	bl	read_label
.Ltmp321:
	@DEBUG_VALUE: load_kern:kern_length <- $r0
	.loc	4 590 8 is_stmt 1               @ ../GUILib/src/font/lv_font_loader.c:590:8
	cmp	r0, #0
	bmi	.LBB2_3
.Ltmp322:
@ %bb.1:
	@DEBUG_VALUE: load_kern:font_dsc <- $r7
	@DEBUG_VALUE: load_kern:format <- $r6
	@DEBUG_VALUE: load_kern:fp <- $r5
	@DEBUG_VALUE: load_kern:kern_length <- $r0
	.loc	4 0 0 is_stmt 0                 @ ../GUILib/src/font/lv_font_loader.c:0:0
	mov	r4, r0
.Ltmp323:
	@DEBUG_VALUE: load_kern:kern_length <- $r4
	@DEBUG_VALUE: load_kern:kern_length <- $r4
	@DEBUG_VALUE: load_kern:kern_format_type <- [DW_OP_plus_uconst 15, DW_OP_deref] $sp
	add.w	r1, sp, #15
.Ltmp324:
	.loc	4 596 8 is_stmt 1               @ ../GUILib/src/font/lv_font_loader.c:596:8
	mov	r0, r5
	movs	r2, #1
	movs	r3, #0
	bl	lv_fs_read
.Ltmp325:
	.loc	4 596 81 is_stmt 0              @ ../GUILib/src/font/lv_font_loader.c:596:81
	cbnz	r0, .LBB2_3
.Ltmp326:
@ %bb.2:
	@DEBUG_VALUE: load_kern:font_dsc <- $r7
	@DEBUG_VALUE: load_kern:format <- $r6
	@DEBUG_VALUE: load_kern:fp <- $r5
	@DEBUG_VALUE: load_kern:kern_length <- $r4
	@DEBUG_VALUE: load_kern:kern_format_type <- [DW_OP_plus_uconst 15, DW_OP_deref] $sp
	@DEBUG_VALUE: load_kern:padding <- [DW_OP_plus_uconst 8, DW_OP_deref] $sp
	.loc	4 0 81                          @ ../GUILib/src/font/lv_font_loader.c:0:81
	add	r1, sp, #8
	.loc	4 597 8 is_stmt 1               @ ../GUILib/src/font/lv_font_loader.c:597:8
	mov	r0, r5
	movs	r2, #3
	movs	r3, #0
	bl	lv_fs_read
.Ltmp327:
	.loc	4 596 8                         @ ../GUILib/src/font/lv_font_loader.c:596:8
	cbz	r0, .LBB2_5
.Ltmp328:
.LBB2_3:
	@DEBUG_VALUE: load_kern:fp <- $r5
	.loc	4 0 8 is_stmt 0                 @ ../GUILib/src/font/lv_font_loader.c:0:8
	mov.w	r4, #-1
.Ltmp329:
.LBB2_4:
	@DEBUG_VALUE: load_kern:fp <- $r5
	.loc	4 681 1 is_stmt 1               @ ../GUILib/src/font/lv_font_loader.c:681:1
	mov	r0, r4
	add	sp, #16
	pop.w	{r4, r5, r6, r7, r8, r9, r10, pc}
.Ltmp330:
.LBB2_5:
	@DEBUG_VALUE: load_kern:font_dsc <- $r7
	@DEBUG_VALUE: load_kern:format <- $r6
	@DEBUG_VALUE: load_kern:fp <- $r5
	@DEBUG_VALUE: load_kern:kern_length <- $r4
	@DEBUG_VALUE: load_kern:padding <- [DW_OP_plus_uconst 8, DW_OP_deref] $sp
	@DEBUG_VALUE: load_kern:kern_format_type <- [DW_OP_plus_uconst 15, DW_OP_deref] $sp
	.loc	4 601 13                        @ ../GUILib/src/font/lv_font_loader.c:601:13
	ldrb.w	r0, [sp, #15]
.Ltmp331:
	@DEBUG_VALUE: load_kern:kern_format_type <- $r0
	.loc	4 601 8 is_stmt 0               @ ../GUILib/src/font/lv_font_loader.c:601:8
	cmp	r0, #3
	beq	.LBB2_11
.Ltmp332:
@ %bb.6:
	@DEBUG_VALUE: load_kern:font_dsc <- $r7
	@DEBUG_VALUE: load_kern:format <- $r6
	@DEBUG_VALUE: load_kern:fp <- $r5
	@DEBUG_VALUE: load_kern:kern_length <- $r4
	@DEBUG_VALUE: load_kern:kern_format_type <- $r0
	@DEBUG_VALUE: load_kern:padding <- [DW_OP_plus_uconst 8, DW_OP_deref] $sp
	cmp	r0, #0
	bne	.LBB2_3
.Ltmp333:
@ %bb.7:
	@DEBUG_VALUE: load_kern:font_dsc <- $r7
	@DEBUG_VALUE: load_kern:format <- $r6
	@DEBUG_VALUE: load_kern:fp <- $r5
	@DEBUG_VALUE: load_kern:kern_length <- $r4
	@DEBUG_VALUE: load_kern:kern_format_type <- $r0
	@DEBUG_VALUE: load_kern:padding <- [DW_OP_plus_uconst 8, DW_OP_deref] $sp
	.loc	4 602 51 is_stmt 1              @ ../GUILib/src/font/lv_font_loader.c:602:51
	movs	r0, #12
.Ltmp334:
	bl	lv_mem_alloc
.Ltmp335:
	mov	r8, r0
.Ltmp336:
	@DEBUG_VALUE: kern_pair <- $r8
	.loc	4 0 51 is_stmt 0                @ ../GUILib/src/font/lv_font_loader.c:0:51
	movs	r0, #0
	.loc	4 604 9 is_stmt 1               @ ../GUILib/src/font/lv_font_loader.c:604:9
	strd	r0, r0, [r8]
	str.w	r0, [r8, #8]
	.loc	4 607 32                        @ ../GUILib/src/font/lv_font_loader.c:607:32
	ldrh	r0, [r7, #18]
	add	r1, sp, #4
	bic	r0, r0, #8192
	strh	r0, [r7, #18]
.Ltmp337:
	@DEBUG_VALUE: glyph_entries <- [DW_OP_plus_uconst 4, DW_OP_deref] $sp
	.loc	4 610 12                        @ ../GUILib/src/font/lv_font_loader.c:610:12
	mov	r0, r5
	movs	r2, #4
	movs	r3, #0
.Ltmp338:
	.loc	4 606 28                        @ ../GUILib/src/font/lv_font_loader.c:606:28
	str.w	r8, [r7, #12]
.Ltmp339:
	.loc	4 610 12                        @ ../GUILib/src/font/lv_font_loader.c:610:12
	bl	lv_fs_read
.Ltmp340:
	.loc	4 610 12 is_stmt 0              @ ../GUILib/src/font/lv_font_loader.c:610:12
	cmp	r0, #0
	bne	.LBB2_3
.Ltmp341:
@ %bb.8:
	@DEBUG_VALUE: kern_pair <- $r8
	@DEBUG_VALUE: load_kern:font_dsc <- $r7
	@DEBUG_VALUE: load_kern:format <- $r6
	@DEBUG_VALUE: load_kern:fp <- $r5
	@DEBUG_VALUE: load_kern:kern_length <- $r4
	@DEBUG_VALUE: glyph_entries <- [DW_OP_plus_uconst 4, DW_OP_deref] $sp
	@DEBUG_VALUE: load_kern:padding <- [DW_OP_plus_uconst 8, DW_OP_deref] $sp
	.loc	4 615 12 is_stmt 1              @ ../GUILib/src/font/lv_font_loader.c:615:12
	ldr	r0, [sp, #4]
	movs	r1, #2
	cmp	r6, #0
	it	eq
	moveq	r1, #1
	lsl.w	r10, r0, r1
.Ltmp342:
	@DEBUG_VALUE: ids_size <- $r10
	.loc	4 622 31                        @ ../GUILib/src/font/lv_font_loader.c:622:31
	mov	r0, r10
	bl	lv_mem_alloc
.Ltmp343:
	.loc	4 623 40                        @ ../GUILib/src/font/lv_font_loader.c:623:40
	ldr	r1, [sp, #4]
.Ltmp344:
	@DEBUG_VALUE: glyph_entries <- $r1
	.loc	4 622 31                        @ ../GUILib/src/font/lv_font_loader.c:622:31
	mov	r7, r0
.Ltmp345:
	@DEBUG_VALUE: glyph_ids <- $r7
	.loc	4 623 27                        @ ../GUILib/src/font/lv_font_loader.c:623:27
	mov	r0, r1
	bl	lv_mem_alloc
.Ltmp346:
	.loc	4 626 31                        @ ../GUILib/src/font/lv_font_loader.c:626:31
	ldr	r1, [sp, #4]
.Ltmp347:
	@DEBUG_VALUE: glyph_entries <- $r1
	.loc	4 623 27                        @ ../GUILib/src/font/lv_font_loader.c:623:27
	mov	r9, r0
.Ltmp348:
	@DEBUG_VALUE: values <- $r9
	.loc	4 626 29                        @ ../GUILib/src/font/lv_font_loader.c:626:29
	bic	r0, r1, #-1073741824
	orr.w	r0, r0, r6, lsl #30
	str.w	r0, [r8, #8]
.Ltmp349:
	.loc	4 630 12                        @ ../GUILib/src/font/lv_font_loader.c:630:12
	mov	r0, r5
	mov	r1, r7
.Ltmp350:
	mov	r2, r10
	movs	r3, #0
.Ltmp351:
	.loc	4 627 30                        @ ../GUILib/src/font/lv_font_loader.c:627:30
	strd	r7, r9, [r8]
.Ltmp352:
	.loc	4 630 12                        @ ../GUILib/src/font/lv_font_loader.c:630:12
	bl	lv_fs_read
.Ltmp353:
	.loc	4 630 12 is_stmt 0              @ ../GUILib/src/font/lv_font_loader.c:630:12
	cmp	r0, #0
	bne	.LBB2_3
.Ltmp354:
@ %bb.9:
	@DEBUG_VALUE: ids_size <- $r10
	@DEBUG_VALUE: values <- $r9
	@DEBUG_VALUE: kern_pair <- $r8
	@DEBUG_VALUE: glyph_ids <- $r7
	@DEBUG_VALUE: load_kern:format <- $r6
	@DEBUG_VALUE: load_kern:fp <- $r5
	@DEBUG_VALUE: load_kern:kern_length <- $r4
	@DEBUG_VALUE: load_kern:padding <- [DW_OP_plus_uconst 8, DW_OP_deref] $sp
	.loc	4 634 35 is_stmt 1              @ ../GUILib/src/font/lv_font_loader.c:634:35
	ldr	r2, [sp, #4]
.Ltmp355:
	@DEBUG_VALUE: glyph_entries <- $r2
	.loc	4 634 12 is_stmt 0              @ ../GUILib/src/font/lv_font_loader.c:634:12
	mov	r0, r5
	mov	r1, r9
.Ltmp356:
.LBB2_10:
	@DEBUG_VALUE: load_kern:fp <- $r5
	@DEBUG_VALUE: load_kern:kern_length <- $r4
	@DEBUG_VALUE: load_kern:padding <- [DW_OP_plus_uconst 8, DW_OP_deref] $sp
	.loc	4 0 0                           @ ../GUILib/src/font/lv_font_loader.c:0:0
	movs	r3, #0
	bl	lv_fs_read
.Ltmp357:
	cmp	r0, #0
	bne	.LBB2_3
	b	.LBB2_4
.Ltmp358:
.LBB2_11:
	@DEBUG_VALUE: load_kern:font_dsc <- $r7
	@DEBUG_VALUE: load_kern:format <- $r6
	@DEBUG_VALUE: load_kern:fp <- $r5
	@DEBUG_VALUE: load_kern:kern_length <- $r4
	@DEBUG_VALUE: load_kern:kern_format_type <- $r0
	@DEBUG_VALUE: load_kern:padding <- [DW_OP_plus_uconst 8, DW_OP_deref] $sp
	.loc	4 640 57 is_stmt 1              @ ../GUILib/src/font/lv_font_loader.c:640:57
	movs	r0, #16
.Ltmp359:
	bl	lv_mem_alloc
.Ltmp360:
	mov	r6, r0
.Ltmp361:
	@DEBUG_VALUE: kern_classes <- $r6
	.loc	4 0 57 is_stmt 0                @ ../GUILib/src/font/lv_font_loader.c:0:57
	movs	r0, #0
	.loc	4 642 9 is_stmt 1               @ ../GUILib/src/font/lv_font_loader.c:642:9
	strd	r0, r0, [r6]
	strd	r0, r0, [r6, #8]
	.loc	4 645 32                        @ ../GUILib/src/font/lv_font_loader.c:645:32
	ldrh	r0, [r7, #18]
	add.w	r1, sp, #2
	orr	r0, r0, #8192
	strh	r0, [r7, #18]
.Ltmp362:
	@DEBUG_VALUE: kern_class_mapping_length <- [DW_OP_plus_uconst 2, DW_OP_deref] $sp
	.loc	4 651 12                        @ ../GUILib/src/font/lv_font_loader.c:651:12
	mov	r0, r5
	movs	r2, #2
	movs	r3, #0
.Ltmp363:
	.loc	4 644 28                        @ ../GUILib/src/font/lv_font_loader.c:644:28
	str	r6, [r7, #12]
.Ltmp364:
	.loc	4 651 12                        @ ../GUILib/src/font/lv_font_loader.c:651:12
	bl	lv_fs_read
.Ltmp365:
	.loc	4 651 95 is_stmt 0              @ ../GUILib/src/font/lv_font_loader.c:651:95
	cmp	r0, #0
	bne	.LBB2_3
.Ltmp366:
@ %bb.12:
	@DEBUG_VALUE: load_kern:font_dsc <- $r7
	@DEBUG_VALUE: kern_classes <- $r6
	@DEBUG_VALUE: load_kern:fp <- $r5
	@DEBUG_VALUE: load_kern:kern_length <- $r4
	@DEBUG_VALUE: kern_class_mapping_length <- [DW_OP_plus_uconst 2, DW_OP_deref] $sp
	@DEBUG_VALUE: load_kern:padding <- [DW_OP_plus_uconst 8, DW_OP_deref] $sp
	@DEBUG_VALUE: kern_table_rows <- [DW_OP_plus_uconst 1, DW_OP_deref] $sp
	.loc	4 0 95                          @ ../GUILib/src/font/lv_font_loader.c:0:95
	add.w	r1, sp, #1
	.loc	4 652 12 is_stmt 1              @ ../GUILib/src/font/lv_font_loader.c:652:12
	mov	r0, r5
	movs	r2, #1
	movs	r3, #0
	bl	lv_fs_read
.Ltmp367:
	.loc	4 652 84 is_stmt 0              @ ../GUILib/src/font/lv_font_loader.c:652:84
	cmp	r0, #0
	bne	.LBB2_3
.Ltmp368:
@ %bb.13:
	@DEBUG_VALUE: load_kern:font_dsc <- $r7
	@DEBUG_VALUE: kern_classes <- $r6
	@DEBUG_VALUE: load_kern:fp <- $r5
	@DEBUG_VALUE: load_kern:kern_length <- $r4
	@DEBUG_VALUE: kern_table_rows <- [DW_OP_plus_uconst 1, DW_OP_deref] $sp
	@DEBUG_VALUE: kern_class_mapping_length <- [DW_OP_plus_uconst 2, DW_OP_deref] $sp
	@DEBUG_VALUE: load_kern:padding <- [DW_OP_plus_uconst 8, DW_OP_deref] $sp
	@DEBUG_VALUE: kern_table_cols <- [DW_OP_deref] $sp
	.loc	4 0 84                          @ ../GUILib/src/font/lv_font_loader.c:0:84
	mov	r1, sp
	.loc	4 653 12 is_stmt 1              @ ../GUILib/src/font/lv_font_loader.c:653:12
	mov	r0, r5
	movs	r2, #1
	movs	r3, #0
	bl	lv_fs_read
.Ltmp369:
	.loc	4 651 12                        @ ../GUILib/src/font/lv_font_loader.c:651:12
	cmp	r0, #0
	bne	.LBB2_3
.Ltmp370:
@ %bb.14:
	@DEBUG_VALUE: load_kern:font_dsc <- $r7
	@DEBUG_VALUE: kern_classes <- $r6
	@DEBUG_VALUE: load_kern:fp <- $r5
	@DEBUG_VALUE: load_kern:kern_length <- $r4
	@DEBUG_VALUE: kern_table_cols <- [DW_OP_deref] $sp
	@DEBUG_VALUE: kern_table_rows <- [DW_OP_plus_uconst 1, DW_OP_deref] $sp
	@DEBUG_VALUE: kern_class_mapping_length <- [DW_OP_plus_uconst 2, DW_OP_deref] $sp
	@DEBUG_VALUE: load_kern:padding <- [DW_OP_plus_uconst 8, DW_OP_deref] $sp
	.loc	4 657 51                        @ ../GUILib/src/font/lv_font_loader.c:657:51
	ldrb.w	r1, [sp, #1]
.Ltmp371:
	@DEBUG_VALUE: kern_table_rows <- undef
	.loc	4 657 69 is_stmt 0              @ ../GUILib/src/font/lv_font_loader.c:657:69
	ldrb.w	r2, [sp]
.Ltmp372:
	@DEBUG_VALUE: kern_table_cols <- undef
	.loc	4 659 44 is_stmt 1              @ ../GUILib/src/font/lv_font_loader.c:659:44
	ldrh.w	r0, [sp, #2]
.Ltmp373:
	@DEBUG_VALUE: kern_class_mapping_length <- undef
	.loc	4 657 67                        @ ../GUILib/src/font/lv_font_loader.c:657:67
	mul	r8, r2, r1
.Ltmp374:
	@DEBUG_VALUE: kern_values_length <- $r8
	.loc	4 659 31                        @ ../GUILib/src/font/lv_font_loader.c:659:31
	bl	lv_mem_alloc
.Ltmp375:
	.loc	4 660 45                        @ ../GUILib/src/font/lv_font_loader.c:660:45
	ldrh.w	r1, [sp, #2]
	@DEBUG_VALUE: kern_class_mapping_length <- undef
	.loc	4 659 31                        @ ../GUILib/src/font/lv_font_loader.c:659:31
	mov	r7, r0
.Ltmp376:
	@DEBUG_VALUE: kern_left <- $r7
	.loc	4 660 32                        @ ../GUILib/src/font/lv_font_loader.c:660:32
	mov	r0, r1
	bl	lv_mem_alloc
.Ltmp377:
	mov	r10, r0
.Ltmp378:
	@DEBUG_VALUE: kern_right <- $r10
	.loc	4 661 32                        @ ../GUILib/src/font/lv_font_loader.c:661:32
	mov	r0, r8
	bl	lv_mem_alloc
.Ltmp379:
	mov	r9, r0
.Ltmp380:
	@DEBUG_VALUE: kern_values <- $r9
	.loc	4 665 40                        @ ../GUILib/src/font/lv_font_loader.c:665:40
	ldrb.w	r0, [sp, #1]
.Ltmp381:
	@DEBUG_VALUE: kern_table_rows <- $r0
	.loc	4 666 41                        @ ../GUILib/src/font/lv_font_loader.c:666:41
	ldrb.w	r1, [sp]
.Ltmp382:
	@DEBUG_VALUE: kern_table_cols <- $r1
	.loc	4 669 38                        @ ../GUILib/src/font/lv_font_loader.c:669:38
	ldrh.w	r2, [sp, #2]
.Ltmp383:
	@DEBUG_VALUE: kern_class_mapping_length <- undef
	.loc	4 665 38                        @ ../GUILib/src/font/lv_font_loader.c:665:38
	strb	r0, [r6, #12]
	.loc	4 666 39                        @ ../GUILib/src/font/lv_font_loader.c:666:39
	strb	r1, [r6, #13]
.Ltmp384:
	.loc	4 669 12                        @ ../GUILib/src/font/lv_font_loader.c:669:12
	mov	r0, r5
.Ltmp385:
	mov	r1, r7
.Ltmp386:
	movs	r3, #0
.Ltmp387:
	.loc	4 667 41                        @ ../GUILib/src/font/lv_font_loader.c:667:41
	strd	r9, r7, [r6]
	.loc	4 664 43                        @ ../GUILib/src/font/lv_font_loader.c:664:43
	str.w	r10, [r6, #8]
.Ltmp388:
	.loc	4 669 12                        @ ../GUILib/src/font/lv_font_loader.c:669:12
	bl	lv_fs_read
.Ltmp389:
	.loc	4 669 87 is_stmt 0              @ ../GUILib/src/font/lv_font_loader.c:669:87
	cmp	r0, #0
	bne.w	.LBB2_3
.Ltmp390:
@ %bb.15:
	@DEBUG_VALUE: kern_right <- $r10
	@DEBUG_VALUE: kern_values <- $r9
	@DEBUG_VALUE: kern_values_length <- $r8
	@DEBUG_VALUE: kern_left <- $r7
	@DEBUG_VALUE: kern_classes <- $r6
	@DEBUG_VALUE: load_kern:fp <- $r5
	@DEBUG_VALUE: load_kern:kern_length <- $r4
	@DEBUG_VALUE: load_kern:padding <- [DW_OP_plus_uconst 8, DW_OP_deref] $sp
	.loc	4 670 39 is_stmt 1              @ ../GUILib/src/font/lv_font_loader.c:670:39
	ldrh.w	r2, [sp, #2]
.Ltmp391:
	@DEBUG_VALUE: kern_class_mapping_length <- undef
	.loc	4 670 12 is_stmt 0              @ ../GUILib/src/font/lv_font_loader.c:670:12
	mov	r0, r5
	mov	r1, r10
	movs	r3, #0
	bl	lv_fs_read
.Ltmp392:
	.loc	4 670 88                        @ ../GUILib/src/font/lv_font_loader.c:670:88
	cmp	r0, #0
	bne.w	.LBB2_3
.Ltmp393:
@ %bb.16:
	@DEBUG_VALUE: kern_right <- $r10
	@DEBUG_VALUE: kern_values <- $r9
	@DEBUG_VALUE: kern_values_length <- $r8
	@DEBUG_VALUE: kern_left <- $r7
	@DEBUG_VALUE: kern_classes <- $r6
	@DEBUG_VALUE: load_kern:fp <- $r5
	@DEBUG_VALUE: load_kern:kern_length <- $r4
	@DEBUG_VALUE: load_kern:padding <- [DW_OP_plus_uconst 8, DW_OP_deref] $sp
	.loc	4 671 12 is_stmt 1              @ ../GUILib/src/font/lv_font_loader.c:671:12
	mov	r0, r5
	mov	r1, r9
	mov	r2, r8
	b	.LBB2_10
.Ltmp394:
	.p2align	2
@ %bb.17:
	.loc	4 0 12 is_stmt 0                @ ../GUILib/src/font/lv_font_loader.c:0:12
.LCPI2_0:
.L.str:
	.asciz	"kern\000\000\000"
.Lfunc_end2:
	.size	load_kern, .Lfunc_end2-load_kern
	.cfi_endproc
	.cantunwind
	.fnend
                                        @ -- End function
	.section	.text.read_label,"ax",%progbits
	.p2align	1                               @ -- Begin function read_label
	.type	read_label,%function
	.code	16                              @ @read_label
	.thumb_func
read_label:
.Lfunc_begin3:
	.loc	4 226 0 is_stmt 1               @ ../GUILib/src/font/lv_font_loader.c:226:0
	.fnstart
	.cfi_startproc
@ %bb.0:
	@DEBUG_VALUE: read_label:fp <- $r0
	@DEBUG_VALUE: read_label:start <- $r1
	@DEBUG_VALUE: read_label:label <- $r2
	.save	{r4, r5, r7, lr}
	push	{r4, r5, r7, lr}
	.cfi_def_cfa_offset 16
	.cfi_offset lr, -4
	.cfi_offset r7, -8
	.cfi_offset r5, -12
	.cfi_offset r4, -16
	.pad	#8
	sub	sp, #8
	.cfi_def_cfa_offset 24
	mov	r4, r2
.Ltmp395:
	@DEBUG_VALUE: read_label:label <- $r4
	.loc	4 227 5 prologue_end            @ ../GUILib/src/font/lv_font_loader.c:227:5
	movs	r2, #0
	mov	r5, r0
	@DEBUG_VALUE: read_label:label <- $r4
	@DEBUG_VALUE: read_label:start <- $r1
.Ltmp396:
	@DEBUG_VALUE: read_label:fp <- $r5
	@DEBUG_VALUE: read_label:start <- $r1
	bl	lv_fs_seek
.Ltmp397:
	@DEBUG_VALUE: read_label:start <- [DW_OP_LLVM_entry_value 1] $r1
	@DEBUG_VALUE: read_label:length <- [DW_OP_plus_uconst 4, DW_OP_deref] $sp
	.loc	4 0 5 is_stmt 0                 @ ../GUILib/src/font/lv_font_loader.c:0:5
	add	r1, sp, #4
.Ltmp398:
	.loc	4 232 8 is_stmt 1               @ ../GUILib/src/font/lv_font_loader.c:232:8
	mov	r0, r5
	movs	r2, #4
	movs	r3, #0
	bl	lv_fs_read
.Ltmp399:
	.loc	4 233 8                         @ ../GUILib/src/font/lv_font_loader.c:233:8
	cbz	r0, .LBB3_2
.Ltmp400:
@ %bb.1:
	@DEBUG_VALUE: read_label:fp <- $r5
	@DEBUG_VALUE: read_label:label <- $r4
	@DEBUG_VALUE: read_label:length <- [DW_OP_plus_uconst 4, DW_OP_deref] $sp
	@DEBUG_VALUE: read_label:start <- [DW_OP_LLVM_entry_value 1] $r1
	.loc	4 0 8 is_stmt 0                 @ ../GUILib/src/font/lv_font_loader.c:0:8
	mov.w	r0, #-1
	b	.LBB3_4
.Ltmp401:
.LBB3_2:
	@DEBUG_VALUE: read_label:fp <- $r5
	@DEBUG_VALUE: read_label:label <- $r4
	@DEBUG_VALUE: read_label:length <- [DW_OP_plus_uconst 4, DW_OP_deref] $sp
	@DEBUG_VALUE: read_label:start <- [DW_OP_LLVM_entry_value 1] $r1
	mov	r1, sp
	.loc	4 233 11                        @ ../GUILib/src/font/lv_font_loader.c:233:11
	mov	r0, r5
	movs	r2, #4
	movs	r3, #0
	bl	lv_fs_read
.Ltmp402:
	.loc	4 234 8 is_stmt 1               @ ../GUILib/src/font/lv_font_loader.c:234:8
	cmp	r0, #0
	mov.w	r0, #-1
	bne	.LBB3_4
.Ltmp403:
@ %bb.3:
	@DEBUG_VALUE: read_label:fp <- $r5
	@DEBUG_VALUE: read_label:label <- $r4
	@DEBUG_VALUE: read_label:length <- [DW_OP_plus_uconst 4, DW_OP_deref] $sp
	@DEBUG_VALUE: read_label:start <- [DW_OP_LLVM_entry_value 1] $r1
	.loc	4 234 11 is_stmt 0              @ ../GUILib/src/font/lv_font_loader.c:234:11
	ldr	r1, [r4]
	ldr	r2, [sp]
	ldr	r3, [sp, #4]
.Ltmp404:
	.loc	4 232 8 is_stmt 1               @ ../GUILib/src/font/lv_font_loader.c:232:8
	cmp	r1, r2
	it	eq
	moveq	r0, r3
.Ltmp405:
.LBB3_4:
	@DEBUG_VALUE: read_label:fp <- $r5
	@DEBUG_VALUE: read_label:label <- $r4
	@DEBUG_VALUE: read_label:length <- [DW_OP_plus_uconst 4, DW_OP_deref] $sp
	@DEBUG_VALUE: read_label:start <- [DW_OP_LLVM_entry_value 1] $r1
	.loc	4 240 1                         @ ../GUILib/src/font/lv_font_loader.c:240:1
	add	sp, #8
	pop	{r4, r5, r7, pc}
.Ltmp406:
.Lfunc_end3:
	.size	read_label, .Lfunc_end3-read_label
	.cfi_endproc
	.cantunwind
	.fnend
                                        @ -- End function
	.section	.text.read_bits,"ax",%progbits
	.p2align	1                               @ -- Begin function read_bits
	.type	read_bits,%function
	.code	16                              @ @read_bits
	.thumb_func
read_bits:
.Lfunc_begin4:
	.loc	4 195 0                         @ ../GUILib/src/font/lv_font_loader.c:195:0
	.fnstart
	.cfi_startproc
@ %bb.0:
	@DEBUG_VALUE: read_bits:it <- $r0
	@DEBUG_VALUE: read_bits:n_bits <- [DW_OP_constu 1, DW_OP_minus, DW_OP_stack_value] $r1
	@DEBUG_VALUE: read_bits:res <- $r2
	.save	{r4, r5, r6, r7, r8, r9, r10, lr}
	push.w	{r4, r5, r6, r7, r8, r9, r10, lr}
	.cfi_def_cfa_offset 32
	.cfi_offset lr, -4
	.cfi_offset r10, -8
	.cfi_offset r9, -12
	.cfi_offset r8, -16
	.cfi_offset r7, -20
	.cfi_offset r6, -24
	.cfi_offset r5, -28
	.cfi_offset r4, -32
	mov	r9, r2
.Ltmp407:
	@DEBUG_VALUE: read_bits:res <- $r9
	@DEBUG_VALUE: read_bits:value <- 0
	@DEBUG_VALUE: read_bits:res <- $r9
	@DEBUG_VALUE: read_bits:n_bits <- [DW_OP_constu 1, DW_OP_minus, DW_OP_stack_value] $r1
	@DEBUG_VALUE: read_bits:it <- $r0
	mov.w	r8, #0
.Ltmp408:
	.loc	4 197 5 prologue_end            @ ../GUILib/src/font/lv_font_loader.c:197:5
	cbz	r1, .LBB4_6
.Ltmp409:
@ %bb.1:
	@DEBUG_VALUE: read_bits:res <- $r9
	@DEBUG_VALUE: read_bits:n_bits <- [DW_OP_constu 1, DW_OP_minus, DW_OP_stack_value] $r1
	@DEBUG_VALUE: read_bits:it <- $r0
	@DEBUG_VALUE: read_bits:value <- 0
	.loc	4 198 30                        @ ../GUILib/src/font/lv_font_loader.c:198:30
	mov	r7, r0
	mov	r6, r0
.Ltmp410:
	@DEBUG_VALUE: read_bits:it <- $r6
	@DEBUG_VALUE: read_bits:it <- $r6
	ldrb	r0, [r7, #5]!
.Ltmp411:
	@DEBUG_VALUE: read_bits:n_bits <- [DW_OP_constu 1, DW_OP_minus, DW_OP_stack_value] $r1
	.loc	4 197 5                         @ ../GUILib/src/font/lv_font_loader.c:197:5
	subs	r4, r1, #1
	movs	r5, #0
	mov.w	r10, #7
.Ltmp412:
	.p2align	2
.LBB4_2:                                @ =>This Inner Loop Header: Depth=1
	@DEBUG_VALUE: read_bits:res <- $r9
	@DEBUG_VALUE: read_bits:it <- $r6
	@DEBUG_VALUE: read_bits:value <- $r5
	.loc	4 199 20                        @ ../GUILib/src/font/lv_font_loader.c:199:20
	ldrb	r1, [r6, #4]
	.loc	4 198 41                        @ ../GUILib/src/font/lv_font_loader.c:198:41
	lsls	r0, r0, #1
	.loc	4 199 20                        @ ../GUILib/src/font/lv_font_loader.c:199:20
	subs	r1, #1
	sxtb	r2, r1
	.loc	4 201 12                        @ ../GUILib/src/font/lv_font_loader.c:201:12
	cmp.w	r2, #-1
	.loc	4 198 24                        @ ../GUILib/src/font/lv_font_loader.c:198:24
	strb	r0, [r6, #5]
	.loc	4 199 20                        @ ../GUILib/src/font/lv_font_loader.c:199:20
	strb	r1, [r6, #4]
	.loc	4 201 12                        @ ../GUILib/src/font/lv_font_loader.c:201:12
	bgt	.LBB4_5
.Ltmp413:
@ %bb.3:                                @   in Loop: Header=BB4_2 Depth=1
	@DEBUG_VALUE: read_bits:res <- $r9
	@DEBUG_VALUE: read_bits:it <- $r6
	@DEBUG_VALUE: read_bits:value <- $r5
	.loc	4 203 35                        @ ../GUILib/src/font/lv_font_loader.c:203:35
	ldr	r0, [r6]
	.loc	4 203 20 is_stmt 0              @ ../GUILib/src/font/lv_font_loader.c:203:20
	mov	r1, r7
	movs	r2, #1
	movs	r3, #0
	.loc	4 202 25 is_stmt 1              @ ../GUILib/src/font/lv_font_loader.c:202:25
	strb.w	r10, [r6, #4]
	.loc	4 203 20                        @ ../GUILib/src/font/lv_font_loader.c:203:20
	bl	lv_fs_read
.Ltmp414:
	.loc	4 203 18 is_stmt 0              @ ../GUILib/src/font/lv_font_loader.c:203:18
	strb.w	r0, [r9]
	.loc	4 204 16 is_stmt 1              @ ../GUILib/src/font/lv_font_loader.c:204:16
	cbnz	r0, .LBB4_9
.Ltmp415:
@ %bb.4:                                @   in Loop: Header=BB4_2 Depth=1
	@DEBUG_VALUE: read_bits:res <- $r9
	@DEBUG_VALUE: read_bits:it <- $r6
	@DEBUG_VALUE: read_bits:value <- $r5
	.loc	4 208 27                        @ ../GUILib/src/font/lv_font_loader.c:208:27
	ldrb	r0, [r7]
.Ltmp416:
.LBB4_5:                                @   in Loop: Header=BB4_2 Depth=1
	@DEBUG_VALUE: read_bits:res <- $r9
	@DEBUG_VALUE: read_bits:it <- $r6
	@DEBUG_VALUE: read_bits:value <- $r5
	.loc	4 208 22 is_stmt 0              @ ../GUILib/src/font/lv_font_loader.c:208:22
	uxtb	r1, r0
	lsrs	r1, r1, #7
.Ltmp417:
	@DEBUG_VALUE: bit <- $r1
	.loc	4 210 23 is_stmt 1              @ ../GUILib/src/font/lv_font_loader.c:210:23
	lsls	r1, r4
.Ltmp418:
	.loc	4 197 5                         @ ../GUILib/src/font/lv_font_loader.c:197:5
	subs	r4, #1
	adds	r2, r4, #1
.Ltmp419:
	.loc	4 210 15                        @ ../GUILib/src/font/lv_font_loader.c:210:15
	orr.w	r5, r5, r1
.Ltmp420:
	@DEBUG_VALUE: read_bits:value <- $r5
	@DEBUG_VALUE: read_bits:n_bits <- [DW_OP_constu 1, DW_OP_minus, DW_OP_stack_value] $r4
	.loc	4 197 5                         @ ../GUILib/src/font/lv_font_loader.c:197:5
	bne	.LBB4_2
	b	.LBB4_7
.Ltmp421:
.LBB4_6:
	@DEBUG_VALUE: read_bits:res <- $r9
	@DEBUG_VALUE: read_bits:n_bits <- [DW_OP_constu 1, DW_OP_minus, DW_OP_stack_value] $r1
	@DEBUG_VALUE: read_bits:it <- $r0
	@DEBUG_VALUE: read_bits:value <- 0
	.loc	4 0 0 is_stmt 0                 @ ../GUILib/src/font/lv_font_loader.c:0:0
	movs	r5, #0
.Ltmp422:
.LBB4_7:
	@DEBUG_VALUE: read_bits:res <- $r9
	.loc	4 212 10 is_stmt 1              @ ../GUILib/src/font/lv_font_loader.c:212:10
	strb.w	r8, [r9]
.Ltmp423:
.LBB4_8:
	@DEBUG_VALUE: read_bits:res <- $r9
	.loc	4 214 1                         @ ../GUILib/src/font/lv_font_loader.c:214:1
	mov	r0, r5
	pop.w	{r4, r5, r6, r7, r8, r9, r10, pc}
.Ltmp424:
.LBB4_9:
	@DEBUG_VALUE: read_bits:res <- $r9
	@DEBUG_VALUE: read_bits:it <- $r6
	@DEBUG_VALUE: read_bits:value <- $r5
	.loc	4 0 0 is_stmt 0                 @ ../GUILib/src/font/lv_font_loader.c:0:0
	movs	r5, #0
.Ltmp425:
	b	.LBB4_8
.Ltmp426:
.Lfunc_end4:
	.size	read_bits, .Lfunc_end4-read_bits
	.cfi_endproc
	.cantunwind
	.fnend
                                        @ -- End function
	.section	".note.GNU-stack","",%progbits
	.eabi_attribute	30, 3	@ Tag_ABI_optimization_goals
	.ARM_attribute	16, 1	@ Tag_AV_eba