	.text
	.syntax unified
	.eabi_attribute	67, "2.09"	@ Tag_conformance
	.cpu	cortex-m4
	.eabi_attribute	6, 13	@ Tag_CPU_arch
	.eabi_attribute	7, 77	@ Tag_CPU_arch_profile
	.eabi_attribute	8, 0	@ Tag_ARM_ISA_use
	.eabi_attribute	9, 2	@ Tag_THUMB_ISA_use
	.fpu	fpv4-sp-d16
	.eabi_attribute	27, 1	@ Tag_ABI_HardFP_use
	.eabi_attribute	36, 1	@ Tag_FP_HP_extension
	.eabi_attribute	34, 1	@ Tag_CPU_unaligned_access
	.eabi_attribute	17, 1	@ Tag_ABI_PCS_GOT_use
	.eabi_attribute	20, 2	@ Tag_ABI_FP_denormal
	.eabi_attribute	21, 0	@ Tag_ABI_FP_exceptions
	.eabi_attribute	23, 1	@ Tag_ABI_FP_number_model
	.eabi_attribute	24, 1	@ Tag_ABI_align_needed
	.eabi_attribute	25, 1	@ Tag_ABI_align_preserved
	.eabi_attribute	28, 1	@ Tag_ABI_VFP_args
	.eabi_attribute	38, 1	@ Tag_ABI_FP_16bit_format
	.eabi_attribute	18, 2	@ Tag_ABI_PCS_wchar_t
	.eabi_attribute	26, 1	@ Tag_ABI_enum_size
	.eabi_attribute	14, 0	@ Tag_ABI_PCS_R9_use
	.file	"lv_grid.c"
	.file	1 "D:\\Keil MDK\\ARM\\ARMCLANG\\Bin\\..\\include" "stdint.h"
	.file	2 "C:\\Users\\Hyacincher\\Desktop\\HyTelectrl\\Code\\Project" "../GUILib/src/extra/layouts/grid/lv_grid.c"
	.file	3 "C:\\Users\\Hyacincher\\Desktop\\HyTelectrl\\Code\\Project" "../GUILib/src/hal/../draw/../misc/lv_style.h"
	.file	4 "C:\\Users\\Hyacincher\\Desktop\\HyTelectrl\\Code\\Project" "../GUILib/src/extra/layouts/grid/../flex/../../../core/lv_event.h"
	.file	5 "C:\\Users\\Hyacincher\\Desktop\\HyTelectrl\\Code\\Project" "../GUILib/src/extra/layouts/grid/../grid/lv_grid.h"
	.file	6 "C:\\Users\\Hyacincher\\Desktop\\HyTelectrl\\Code\\Project" "../GUILib/src/extra/layouts/grid/../../../core/lv_obj.h"
	.file	7 "C:\\Users\\Hyacincher\\Desktop\\HyTelectrl\\Code\\Project" "../GUILib/src/hal/../draw/../misc/lv_bidi.h"
	.file	8 "C:\\Users\\Hyacincher\\Desktop\\HyTelectrl\\Code\\Project" "../GUILib/src/hal/../misc/lv_area.h"
	.section	.text.lv_grid_init,"ax",%progbits
	.hidden	lv_grid_init                    @ -- Begin function lv_grid_init
	.globl	lv_grid_init
	.p2align	1
	.type	lv_grid_init,%function
	.code	16                              @ @lv_grid_init
	.thumb_func
lv_grid_init:
.Lfunc_begin0:
	.loc	2 131 0                         @ ../GUILib/src/extra/layouts/grid/lv_grid.c:131:0
	.fnstart
	.cfi_sections .debug_frame
	.cfi_startproc
@ %bb.0:
	.save	{r7, lr}
	push	{r7, lr}
	.cfi_def_cfa_offset 8
	.cfi_offset lr, -4
	.cfi_offset r7, -8
.Ltmp0:
	.loc	2 132 22 prologue_end           @ ../GUILib/src/extra/layouts/grid/lv_grid.c:132:22
	movw	r0, :lower16:grid_update
	movt	r0, :upper16:grid_update
	movs	r1, #0
	bl	lv_layout_register
.Ltmp1:
	.loc	2 132 20 is_stmt 0              @ ../GUILib/src/extra/layouts/grid/lv_grid.c:132:20
	movw	r1, :lower16:LV_LAYOUT_GRID
	movt	r1, :upper16:LV_LAYOUT_GRID
	str	r0, [r1]
	.loc	2 134 38 is_stmt 1              @ ../GUILib/src/extra/layouts/grid/lv_grid.c:134:38
	bl	lv_style_register_prop
.Ltmp2:
	.loc	2 134 36 is_stmt 0              @ ../GUILib/src/extra/layouts/grid/lv_grid.c:134:36
	movw	r1, :lower16:LV_STYLE_GRID_COLUMN_DSC_ARRAY
	.loc	2 134 63                        @ ../GUILib/src/extra/layouts/grid/lv_grid.c:134:63
	orr	r0, r0, #4096
	.loc	2 134 36                        @ ../GUILib/src/extra/layouts/grid/lv_grid.c:134:36
	movt	r1, :upper16:LV_STYLE_GRID_COLUMN_DSC_ARRAY
	strh	r0, [r1]
	.loc	2 135 35 is_stmt 1              @ ../GUILib/src/extra/layouts/grid/lv_grid.c:135:35
	bl	lv_style_register_prop
.Ltmp3:
	.loc	2 135 33 is_stmt 0              @ ../GUILib/src/extra/layouts/grid/lv_grid.c:135:33
	movw	r1, :lower16:LV_STYLE_GRID_ROW_DSC_ARRAY
	.loc	2 135 60                        @ ../GUILib/src/extra/layouts/grid/lv_grid.c:135:60
	orr	r0, r0, #4096
	.loc	2 135 33                        @ ../GUILib/src/extra/layouts/grid/lv_grid.c:135:33
	movt	r1, :upper16:LV_STYLE_GRID_ROW_DSC_ARRAY
	strh	r0, [r1]
	.loc	2 136 34 is_stmt 1              @ ../GUILib/src/extra/layouts/grid/lv_grid.c:136:34
	bl	lv_style_register_prop
.Ltmp4:
	.loc	2 136 32 is_stmt 0              @ ../GUILib/src/extra/layouts/grid/lv_grid.c:136:32
	movw	r1, :lower16:LV_STYLE_GRID_COLUMN_ALIGN
	.loc	2 136 59                        @ ../GUILib/src/extra/layouts/grid/lv_grid.c:136:59
	orr	r0, r0, #4096
	.loc	2 136 32                        @ ../GUILib/src/extra/layouts/grid/lv_grid.c:136:32
	movt	r1, :upper16:LV_STYLE_GRID_COLUMN_ALIGN
	strh	r0, [r1]
	.loc	2 137 31 is_stmt 1              @ ../GUILib/src/extra/layouts/grid/lv_grid.c:137:31
	bl	lv_style_register_prop
.Ltmp5:
	.loc	2 137 29 is_stmt 0              @ ../GUILib/src/extra/layouts/grid/lv_grid.c:137:29
	movw	r1, :lower16:LV_STYLE_GRID_ROW_ALIGN
	.loc	2 137 56                        @ ../GUILib/src/extra/layouts/grid/lv_grid.c:137:56
	orr	r0, r0, #4096
	.loc	2 137 29                        @ ../GUILib/src/extra/layouts/grid/lv_grid.c:137:29
	movt	r1, :upper16:LV_STYLE_GRID_ROW_ALIGN
	strh	r0, [r1]
	.loc	2 139 35 is_stmt 1              @ ../GUILib/src/extra/layouts/grid/lv_grid.c:139:35
	bl	lv_style_register_prop
.Ltmp6:
	.loc	2 139 33 is_stmt 0              @ ../GUILib/src/extra/layouts/grid/lv_grid.c:139:33
	movw	r1, :lower16:LV_STYLE_GRID_CELL_ROW_SPAN
	.loc	2 139 60                        @ ../GUILib/src/extra/layouts/grid/lv_grid.c:139:60
	orr	r0, r0, #4096
	.loc	2 139 33                        @ ../GUILib/src/extra/layouts/grid/lv_grid.c:139:33
	movt	r1, :upper16:LV_STYLE_GRID_CELL_ROW_SPAN
	strh	r0, [r1]
	.loc	2 140 34 is_stmt 1              @ ../GUILib/src/extra/layouts/grid/lv_grid.c:140:34
	bl	lv_style_register_prop
.Ltmp7:
	.loc	2 140 32 is_stmt 0              @ ../GUILib/src/extra/layouts/grid/lv_grid.c:140:32
	movw	r1, :lower16:LV_STYLE_GRID_CELL_ROW_POS
	.loc	2 140 59                        @ ../GUILib/src/extra/layouts/grid/lv_grid.c:140:59
	orr	r0, r0, #4096
	.loc	2 140 32                        @ ../GUILib/src/extra/layouts/grid/lv_grid.c:140:32
	movt	r1, :upper16:LV_STYLE_GRID_CELL_ROW_POS
	strh	r0, [r1]
	.loc	2 141 38 is_stmt 1              @ ../GUILib/src/extra/layouts/grid/lv_grid.c:141:38
	bl	lv_style_register_prop
.Ltmp8:
	.loc	2 141 36 is_stmt 0              @ ../GUILib/src/extra/layouts/grid/lv_grid.c:141:36
	movw	r1, :lower16:LV_STYLE_GRID_CELL_COLUMN_SPAN
	.loc	2 141 63                        @ ../GUILib/src/extra/layouts/grid/lv_grid.c:141:63
	orr	r0, r0, #4096
	.loc	2 141 36                        @ ../GUILib/src/extra/layouts/grid/lv_grid.c:141:36
	movt	r1, :upper16:LV_STYLE_GRID_CELL_COLUMN_SPAN
	strh	r0, [r1]
	.loc	2 142 37 is_stmt 1              @ ../GUILib/src/extra/layouts/grid/lv_grid.c:142:37
	bl	lv_style_register_prop
.Ltmp9:
	.loc	2 142 35 is_stmt 0              @ ../GUILib/src/extra/layouts/grid/lv_grid.c:142:35
	movw	r1, :lower16:LV_STYLE_GRID_CELL_COLUMN_POS
	.loc	2 142 62                        @ ../GUILib/src/extra/layouts/grid/lv_grid.c:142:62
	orr	r0, r0, #4096
	.loc	2 142 35                        @ ../GUILib/src/extra/layouts/grid/lv_grid.c:142:35
	movt	r1, :upper16:LV_STYLE_GRID_CELL_COLUMN_POS
	strh	r0, [r1]
	.loc	2 143 34 is_stmt 1              @ ../GUILib/src/extra/layouts/grid/lv_grid.c:143:34
	bl	lv_style_register_prop
.Ltmp10:
	.loc	2 143 32 is_stmt 0              @ ../GUILib/src/extra/layouts/grid/lv_grid.c:143:32
	movw	r1, :lower16:LV_STYLE_GRID_CELL_X_ALIGN
	.loc	2 143 59                        @ ../GUILib/src/extra/layouts/grid/lv_grid.c:143:59
	orr	r0, r0, #4096
	.loc	2 143 32                        @ ../GUILib/src/extra/layouts/grid/lv_grid.c:143:32
	movt	r1, :upper16:LV_STYLE_GRID_CELL_X_ALIGN
	strh	r0, [r1]
	.loc	2 144 34 is_stmt 1              @ ../GUILib/src/extra/layouts/grid/lv_grid.c:144:34
	bl	lv_style_register_prop
.Ltmp11:
	.loc	2 144 32 is_stmt 0              @ ../GUILib/src/extra/layouts/grid/lv_grid.c:144:32
	movw	r1, :lower16:LV_STYLE_GRID_CELL_Y_ALIGN
	.loc	2 144 59                        @ ../GUILib/src/extra/layouts/grid/lv_grid.c:144:59
	orr	r0, r0, #4096
	.loc	2 144 32                        @ ../GUILib/src/extra/layouts/grid/lv_grid.c:144:32
	movt	r1, :upper16:LV_STYLE_GRID_CELL_Y_ALIGN
	strh	r0, [r1]
	.loc	2 145 1 is_stmt 1               @ ../GUILib/src/extra/layouts/grid/lv_grid.c:145:1
	pop	{r7, pc}
.Ltmp12:
.Lfunc_end0:
	.size	lv_grid_init, .Lfunc_end0-lv_grid_init
	.cfi_endproc
	.cantunwind
	.fnend
                                        @ -- End function
	.section	.text.grid_update,"ax",%progbits
	.p2align	1                               @ -- Begin function grid_update
	.type	grid_update,%function
	.code	16                              @ @grid_update
	.thumb_func
grid_update:
.Lfunc_begin1:
	.loc	2 345 0                         @ ../GUILib/src/extra/layouts/grid/lv_grid.c:345:0
	.fnstart
	.cfi_startproc
@ %bb.0:
	@DEBUG_VALUE: grid_update:cont <- $r0
	@DEBUG_VALUE: grid_update:user_data <- $r1
	.save	{r4, r5, r6, r7, r8, r9, r10, r11, lr}
	push.w	{r4, r5, r6, r7, r8, r9, r10, r11, lr}
	.cfi_def_cfa_offset 36
	.cfi_offset lr, -4
	.cfi_offset r11, -8
	.cfi_offset r10, -12
	.cfi_offset r9, -16
	.cfi_offset r8, -20
	.cfi_offset r7, -24
	.cfi_offset r6, -28
	.cfi_offset r5, -32
	.cfi_offset r4, -36
	.pad	#100
	sub	sp, #100
	.cfi_def_cfa_offset 136
.Ltmp13:
	.loc	5 129 59 prologue_end           @ ../GUILib/src/extra/layouts/grid/../grid/lv_grid.h:129:59
	movw	r1, :lower16:LV_STYLE_GRID_COLUMN_DSC_ARRAY
.Ltmp14:
	@DEBUG_VALUE: grid_update:user_data <- [DW_OP_LLVM_entry_value 1] $r1
	movt	r1, :upper16:LV_STYLE_GRID_COLUMN_DSC_ARRAY
	ldrh	r2, [r1]
	.loc	5 129 26 is_stmt 0              @ ../GUILib/src/extra/layouts/grid/../grid/lv_grid.h:129:26
	movs	r1, #0
	mov	r4, r0
.Ltmp15:
	@DEBUG_VALUE: lv_obj_get_style_grid_column_dsc_array:part <- 0
	@DEBUG_VALUE: lv_obj_get_style_grid_column_dsc_array:obj <- $r4
	@DEBUG_VALUE: get_col_dsc:obj <- $r4
	@DEBUG_VALUE: grid_update:cont <- $r4
	bl	lv_obj_get_style_prop
.Ltmp16:
	.loc	5 123 59 is_stmt 1              @ ../GUILib/src/extra/layouts/grid/../grid/lv_grid.h:123:59
	movw	r6, :lower16:LV_STYLE_GRID_ROW_DSC_ARRAY
	movt	r6, :upper16:LV_STYLE_GRID_ROW_DSC_ARRAY
	ldrh	r2, [r6]
.Ltmp17:
	.loc	5 129 26                        @ ../GUILib/src/extra/layouts/grid/../grid/lv_grid.h:129:26
	mov	r5, r0
.Ltmp18:
	@DEBUG_VALUE: lv_obj_get_style_grid_row_dsc_array:part <- 0
	@DEBUG_VALUE: lv_obj_get_style_grid_row_dsc_array:obj <- $r4
	@DEBUG_VALUE: get_row_dsc:obj <- $r4
	@DEBUG_VALUE: grid_update:col_templ <- $r5
	@DEBUG_VALUE: lv_obj_get_style_grid_column_dsc_array:v <- $r5
	@DEBUG_VALUE: lv_obj_get_style_grid_column_dsc_array:part <- 0
	@DEBUG_VALUE: lv_obj_get_style_grid_column_dsc_array:obj <- $r4
	@DEBUG_VALUE: get_col_dsc:obj <- $r4
	.loc	5 123 26                        @ ../GUILib/src/extra/layouts/grid/../grid/lv_grid.h:123:26
	mov	r0, r4
	movs	r1, #0
	bl	lv_obj_get_style_prop
.Ltmp19:
	.loc	2 351 26                        @ ../GUILib/src/extra/layouts/grid/lv_grid.c:351:26
	cmp	r5, #0
.Ltmp20:
	@DEBUG_VALUE: grid_update:row_templ <- $r0
	@DEBUG_VALUE: lv_obj_get_style_grid_row_dsc_array:v <- $r0
	@DEBUG_VALUE: lv_obj_get_style_grid_row_dsc_array:part <- 0
	@DEBUG_VALUE: lv_obj_get_style_grid_row_dsc_array:obj <- $r4
	@DEBUG_VALUE: get_row_dsc:obj <- $r4
	beq.w	.LBB1_115
.Ltmp21:
@ %bb.1:
	@DEBUG_VALUE: grid_update:col_templ <- $r5
	@DEBUG_VALUE: grid_update:cont <- $r4
	@DEBUG_VALUE: grid_update:row_templ <- $r0
	@DEBUG_VALUE: grid_update:user_data <- [DW_OP_LLVM_entry_value 1] $r1
	cmp	r0, #0
	beq.w	.LBB1_115
.Ltmp22:
@ %bb.2:
	@DEBUG_VALUE: grid_update:col_templ <- $r5
	@DEBUG_VALUE: grid_update:cont <- $r4
	@DEBUG_VALUE: grid_update:row_templ <- $r0
	@DEBUG_VALUE: grid_update:user_data <- [DW_OP_LLVM_entry_value 1] $r1
	.loc	2 0 26 is_stmt 0                @ ../GUILib/src/extra/layouts/grid/lv_grid.c:0:26
	movw	r8, #32769
.Ltmp23:
	.loc	2 393 8 is_stmt 1               @ ../GUILib/src/extra/layouts/grid/lv_grid.c:393:8
	mov	r0, r4
.Ltmp24:
	movs	r1, #0
	movt	r8, #1
.Ltmp25:
	@DEBUG_VALUE: calc:calc_out <- [DW_OP_plus_uconst 64, DW_OP_stack_value] $sp
	@DEBUG_VALUE: calc:cont <- $r4
	bl	lv_obj_get_child
.Ltmp26:
	.loc	2 393 8 is_stmt 0               @ ../GUILib/src/extra/layouts/grid/lv_grid.c:393:8
	cmp	r0, #0
	beq.w	.LBB1_27
.Ltmp27:
@ %bb.3:
	@DEBUG_VALUE: grid_update:col_templ <- $r5
	@DEBUG_VALUE: calc:cont <- $r4
	@DEBUG_VALUE: grid_update:cont <- $r4
	@DEBUG_VALUE: calc:calc_out <- [DW_OP_plus_uconst 64, DW_OP_stack_value] $sp
	@DEBUG_VALUE: grid_update:user_data <- [DW_OP_LLVM_entry_value 1] $r1
	@DEBUG_VALUE: calc_rows:cont <- $r4
	@DEBUG_VALUE: calc_rows:c <- [DW_OP_plus_uconst 64, DW_OP_stack_value] $sp
	@DEBUG_VALUE: get_row_dsc:obj <- $r4
	@DEBUG_VALUE: lv_obj_get_style_grid_row_dsc_array:obj <- $r4
	@DEBUG_VALUE: lv_obj_get_style_grid_row_dsc_array:part <- 0
	.loc	5 123 59 is_stmt 1              @ ../GUILib/src/extra/layouts/grid/../grid/lv_grid.h:123:59
	ldrh	r2, [r6]
	.loc	5 123 26 is_stmt 0              @ ../GUILib/src/extra/layouts/grid/../grid/lv_grid.h:123:26
	mov	r0, r4
	movs	r1, #0
	movs	r5, #0
.Ltmp28:
	bl	lv_obj_get_style_prop
.Ltmp29:
	mov	r6, r0
	@DEBUG_VALUE: count_tracks:templ <- $r6
.Ltmp30:
	@DEBUG_VALUE: calc_rows:row_templ <- $r6
	@DEBUG_VALUE: lv_obj_get_style_grid_row_dsc_array:v <- $r6
	.loc	5 0 26                          @ ../GUILib/src/extra/layouts/grid/../grid/lv_grid.h:0:26
	mov.w	r11, #-1
	@DEBUG_VALUE: count_tracks:i <- 0
	movw	r0, #8191
.Ltmp31:
	.p2align	2
.LBB1_4:                                @ =>This Inner Loop Header: Depth=1
	@DEBUG_VALUE: calc_rows:row_templ <- $r6
	@DEBUG_VALUE: count_tracks:templ <- $r6
	@DEBUG_VALUE: calc_rows:cont <- $r4
	@DEBUG_VALUE: calc:cont <- $r4
	@DEBUG_VALUE: grid_update:cont <- $r4
	@DEBUG_VALUE: calc_rows:c <- [DW_OP_plus_uconst 64, DW_OP_stack_value] $sp
	@DEBUG_VALUE: calc:calc_out <- [DW_OP_plus_uconst 64, DW_OP_stack_value] $sp
	@DEBUG_VALUE: grid_update:user_data <- [DW_OP_LLVM_entry_value 1] $r1
	@DEBUG_VALUE: count_tracks:i <- [DW_OP_plus_uconst 1, DW_OP_stack_value] $r11
	.loc	2 774 16 is_stmt 1              @ ../GUILib/src/extra/layouts/grid/lv_grid.c:774:16
	ldrh	r1, [r6, r5]
.Ltmp32:
	@DEBUG_VALUE: count_tracks:i <- [DW_OP_plus_uconst 2, DW_OP_stack_value] $r11
	.loc	2 774 5 is_stmt 0               @ ../GUILib/src/extra/layouts/grid/lv_grid.c:774:5
	add.w	r11, r11, #1
.Ltmp33:
	cmp	r1, r0
	add.w	r5, r5, #2
	bne	.LBB1_4
.Ltmp34:
@ %bb.5:
	@DEBUG_VALUE: calc_rows:row_templ <- $r6
	@DEBUG_VALUE: calc_rows:cont <- $r4
	@DEBUG_VALUE: calc:cont <- $r4
	@DEBUG_VALUE: grid_update:cont <- $r4
	@DEBUG_VALUE: calc_rows:c <- [DW_OP_plus_uconst 64, DW_OP_stack_value] $sp
	@DEBUG_VALUE: calc:calc_out <- [DW_OP_plus_uconst 64, DW_OP_stack_value] $sp
	@DEBUG_VALUE: grid_update:user_data <- [DW_OP_LLVM_entry_value 1] $r1
	.loc	2 510 12 is_stmt 1              @ ../GUILib/src/extra/layouts/grid/lv_grid.c:510:12
	subs	r5, #2
	mov	r0, r5
	.loc	2 509 16                        @ ../GUILib/src/extra/layouts/grid/lv_grid.c:509:16
	str.w	r11, [sp, #84]
	.loc	2 510 12                        @ ../GUILib/src/extra/layouts/grid/lv_grid.c:510:12
	bl	lv_mem_buf_get
.Ltmp35:
	.loc	2 0 12 is_stmt 0                @ ../GUILib/src/extra/layouts/grid/lv_grid.c:0:12
	str	r0, [sp, #44]                   @ 4-byte Spill
	.loc	2 510 10                        @ ../GUILib/src/extra/layouts/grid/lv_grid.c:510:10
	str	r0, [sp, #68]
	.loc	2 511 12 is_stmt 1              @ ../GUILib/src/extra/layouts/grid/lv_grid.c:511:12
	mov	r0, r5
	bl	lv_mem_buf_get
.Ltmp36:
	.loc	2 513 5                         @ ../GUILib/src/extra/layouts/grid/lv_grid.c:513:5
	cmp.w	r11, #0
.Ltmp37:
	.loc	2 511 10                        @ ../GUILib/src/extra/layouts/grid/lv_grid.c:511:10
	str	r0, [sp, #76]
.Ltmp38:
	@DEBUG_VALUE: calc_rows:i <- 0
	.loc	2 513 5                         @ ../GUILib/src/extra/layouts/grid/lv_grid.c:513:5
	beq	.LBB1_28
.Ltmp39:
@ %bb.6:
	@DEBUG_VALUE: calc_rows:row_templ <- $r6
	@DEBUG_VALUE: calc_rows:cont <- $r4
	@DEBUG_VALUE: calc:cont <- $r4
	@DEBUG_VALUE: grid_update:cont <- $r4
	@DEBUG_VALUE: calc_rows:c <- [DW_OP_plus_uconst 64, DW_OP_stack_value] $sp
	@DEBUG_VALUE: calc:calc_out <- [DW_OP_plus_uconst 64, DW_OP_stack_value] $sp
	@DEBUG_VALUE: calc_rows:i <- 0
	@DEBUG_VALUE: grid_update:user_data <- [DW_OP_LLVM_entry_value 1] $r1
	.loc	2 0 5 is_stmt 0                 @ ../GUILib/src/extra/layouts/grid/lv_grid.c:0:5
	mov.w	r9, #0
	movw	r5, #8090
	str	r0, [sp, #48]                   @ 4-byte Spill
.Ltmp40:
	.p2align	2
.LBB1_7:                                @ =>This Loop Header: Depth=1
                                        @     Child Loop BB1_10 Depth 2
	@DEBUG_VALUE: calc_rows:row_templ <- $r6
	@DEBUG_VALUE: calc_rows:cont <- $r4
	@DEBUG_VALUE: calc:cont <- $r4
	@DEBUG_VALUE: grid_update:cont <- $r4
	@DEBUG_VALUE: calc_rows:c <- [DW_OP_plus_uconst 64, DW_OP_stack_value] $sp
	@DEBUG_VALUE: calc:calc_out <- [DW_OP_plus_uconst 64, DW_OP_stack_value] $sp
	@DEBUG_VALUE: grid_update:user_data <- [DW_OP_LLVM_entry_value 1] $r1
	@DEBUG_VALUE: calc_rows:i <- $r9
	@DEBUG_VALUE: size <- -8191
	.loc	2 515 12 is_stmt 1              @ ../GUILib/src/extra/layouts/grid/lv_grid.c:515:12
	ldrh.w	r1, [r6, r9, lsl #1]
.Ltmp41:
	.loc	2 515 12 is_stmt 0              @ ../GUILib/src/extra/layouts/grid/lv_grid.c:515:12
	cmp	r1, r5
	bne	.LBB1_19
.Ltmp42:
@ %bb.8:                                @   in Loop: Header=BB1_7 Depth=1
	@DEBUG_VALUE: calc_rows:i <- $r9
	@DEBUG_VALUE: calc_rows:row_templ <- $r6
	@DEBUG_VALUE: calc_rows:cont <- $r4
	@DEBUG_VALUE: calc:cont <- $r4
	@DEBUG_VALUE: grid_update:cont <- $r4
	@DEBUG_VALUE: calc_rows:c <- [DW_OP_plus_uconst 64, DW_OP_stack_value] $sp
	@DEBUG_VALUE: calc:calc_out <- [DW_OP_plus_uconst 64, DW_OP_stack_value] $sp
	@DEBUG_VALUE: size <- -8191
	@DEBUG_VALUE: grid_update:user_data <- [DW_OP_LLVM_entry_value 1] $r1
	@DEBUG_VALUE: size <- -8191
	@DEBUG_VALUE: ci <- 0
	.loc	2 518 30 is_stmt 1              @ ../GUILib/src/extra/layouts/grid/lv_grid.c:518:30
	mov	r0, r4
	bl	lv_obj_get_child_cnt
.Ltmp43:
	.loc	2 518 13 is_stmt 0              @ ../GUILib/src/extra/layouts/grid/lv_grid.c:518:13
	cmp	r0, #0
	beq	.LBB1_17
.Ltmp44:
@ %bb.9:                                @   in Loop: Header=BB1_7 Depth=1
	@DEBUG_VALUE: calc_rows:i <- $r9
	@DEBUG_VALUE: calc_rows:row_templ <- $r6
	@DEBUG_VALUE: calc_rows:cont <- $r4
	@DEBUG_VALUE: calc:cont <- $r4
	@DEBUG_VALUE: grid_update:cont <- $r4
	@DEBUG_VALUE: calc_rows:c <- [DW_OP_plus_uconst 64, DW_OP_stack_value] $sp
	@DEBUG_VALUE: calc:calc_out <- [DW_OP_plus_uconst 64, DW_OP_stack_value] $sp
	@DEBUG_VALUE: ci <- 0
	@DEBUG_VALUE: size <- -8191
	@DEBUG_VALUE: grid_update:user_data <- [DW_OP_LLVM_entry_value 1] $r1
	.loc	2 0 13                          @ ../GUILib/src/extra/layouts/grid/lv_grid.c:0:13
	movs	r5, #0
	movw	r10, #57345
.Ltmp45:
	.p2align	2
.LBB1_10:                               @   Parent Loop BB1_7 Depth=1
                                        @ =>  This Inner Loop Header: Depth=2
	@DEBUG_VALUE: calc_rows:i <- $r9
	@DEBUG_VALUE: calc_rows:row_templ <- $r6
	@DEBUG_VALUE: calc_rows:cont <- $r4
	@DEBUG_VALUE: calc:cont <- $r4
	@DEBUG_VALUE: grid_update:cont <- $r4
	@DEBUG_VALUE: calc_rows:c <- [DW_OP_plus_uconst 64, DW_OP_stack_value] $sp
	@DEBUG_VALUE: calc:calc_out <- [DW_OP_plus_uconst 64, DW_OP_stack_value] $sp
	@DEBUG_VALUE: grid_update:user_data <- [DW_OP_LLVM_entry_value 1] $r1
	@DEBUG_VALUE: size <- $r10
	@DEBUG_VALUE: ci <- $r5
	.loc	2 519 35 is_stmt 1              @ ../GUILib/src/extra/layouts/grid/lv_grid.c:519:35
	mov	r0, r4
	mov	r1, r5
	bl	lv_obj_get_child
.Ltmp46:
	.loc	2 520 20                        @ ../GUILib/src/extra/layouts/grid/lv_grid.c:520:20
	mov	r1, r8
.Ltmp47:
	.loc	2 519 35                        @ ../GUILib/src/extra/layouts/grid/lv_grid.c:519:35
	mov	r7, r0
.Ltmp48:
	@DEBUG_VALUE: item <- $r7
	.loc	2 520 20                        @ ../GUILib/src/extra/layouts/grid/lv_grid.c:520:20
	bl	lv_obj_has_flag_any
.Ltmp49:
	.loc	2 520 20 is_stmt 0              @ ../GUILib/src/extra/layouts/grid/lv_grid.c:520:20
	cbnz	r0, .LBB1_15
.Ltmp50:
@ %bb.11:                               @   in Loop: Header=BB1_10 Depth=2
	@DEBUG_VALUE: size <- $r10
	@DEBUG_VALUE: calc_rows:i <- $r9
	@DEBUG_VALUE: item <- $r7
	@DEBUG_VALUE: calc_rows:row_templ <- $r6
	@DEBUG_VALUE: ci <- $r5
	@DEBUG_VALUE: calc_rows:cont <- $r4
	@DEBUG_VALUE: calc:cont <- $r4
	@DEBUG_VALUE: grid_update:cont <- $r4
	@DEBUG_VALUE: calc_rows:c <- [DW_OP_plus_uconst 64, DW_OP_stack_value] $sp
	@DEBUG_VALUE: calc:calc_out <- [DW_OP_plus_uconst 64, DW_OP_stack_value] $sp
	@DEBUG_VALUE: grid_update:user_data <- [DW_OP_LLVM_entry_value 1] $r1
	@DEBUG_VALUE: get_row_span:obj <- $r7
	@DEBUG_VALUE: lv_obj_get_style_grid_cell_row_span:obj <- $r7
	@DEBUG_VALUE: lv_obj_get_style_grid_cell_row_span:part <- 0
	.loc	5 165 59 is_stmt 1              @ ../GUILib/src/extra/layouts/grid/../grid/lv_grid.h:165:59
	movw	r0, :lower16:LV_STYLE_GRID_CELL_ROW_SPAN
	movt	r0, :upper16:LV_STYLE_GRID_CELL_ROW_SPAN
	ldrh	r2, [r0]
	.loc	5 165 26 is_stmt 0              @ ../GUILib/src/extra/layouts/grid/../grid/lv_grid.h:165:26
	mov	r0, r7
	movs	r1, #0
	bl	lv_obj_get_style_prop
.Ltmp51:
	@DEBUG_VALUE: row_span <- [DW_OP_LLVM_convert 8 7, DW_OP_LLVM_convert 32 7, DW_OP_stack_value] $r0
	@DEBUG_VALUE: lv_obj_get_style_grid_cell_row_span:v <- $r0
	.loc	2 83 12 is_stmt 1               @ ../GUILib/src/extra/layouts/grid/lv_grid.c:83:12
	uxtb	r0, r0
.Ltmp52:
	.loc	2 522 20                        @ ../GUILib/src/extra/layouts/grid/lv_grid.c:522:20
	cmp	r0, #1
	bne	.LBB1_15
.Ltmp53:
@ %bb.12:                               @   in Loop: Header=BB1_10 Depth=2
	@DEBUG_VALUE: size <- $r10
	@DEBUG_VALUE: calc_rows:i <- $r9
	@DEBUG_VALUE: item <- $r7
	@DEBUG_VALUE: calc_rows:row_templ <- $r6
	@DEBUG_VALUE: ci <- $r5
	@DEBUG_VALUE: calc_rows:cont <- $r4
	@DEBUG_VALUE: calc:cont <- $r4
	@DEBUG_VALUE: grid_update:cont <- $r4
	@DEBUG_VALUE: calc_rows:c <- [DW_OP_plus_uconst 64, DW_OP_stack_value] $sp
	@DEBUG_VALUE: calc:calc_out <- [DW_OP_plus_uconst 64, DW_OP_stack_value] $sp
	@DEBUG_VALUE: grid_update:user_data <- [DW_OP_LLVM_entry_value 1] $r1
	@DEBUG_VALUE: get_row_pos:obj <- $r7
	@DEBUG_VALUE: lv_obj_get_style_grid_cell_row_pos:obj <- $r7
	@DEBUG_VALUE: lv_obj_get_style_grid_cell_row_pos:part <- 0
	.loc	5 159 59                        @ ../GUILib/src/extra/layouts/grid/../grid/lv_grid.h:159:59
	movw	r0, :lower16:LV_STYLE_GRID_CELL_ROW_POS
	movt	r0, :upper16:LV_STYLE_GRID_CELL_ROW_POS
	ldrh	r2, [r0]
	.loc	5 159 26 is_stmt 0              @ ../GUILib/src/extra/layouts/grid/../grid/lv_grid.h:159:26
	mov	r0, r7
	movs	r1, #0
	bl	lv_obj_get_style_prop
.Ltmp54:
	@DEBUG_VALUE: lv_obj_get_style_grid_cell_row_pos:v <- $r0
	.loc	2 524 36 is_stmt 1              @ ../GUILib/src/extra/layouts/grid/lv_grid.c:524:36
	uxtb	r0, r0
.Ltmp55:
	@DEBUG_VALUE: row_pos <- $r0
	.loc	2 525 20                        @ ../GUILib/src/extra/layouts/grid/lv_grid.c:525:20
	cmp	r9, r0
	bne	.LBB1_15
.Ltmp56:
@ %bb.13:                               @   in Loop: Header=BB1_10 Depth=2
	@DEBUG_VALUE: size <- $r10
	@DEBUG_VALUE: calc_rows:i <- $r9
	@DEBUG_VALUE: item <- $r7
	@DEBUG_VALUE: calc_rows:row_templ <- $r6
	@DEBUG_VALUE: ci <- $r5
	@DEBUG_VALUE: calc_rows:cont <- $r4
	@DEBUG_VALUE: calc:cont <- $r4
	@DEBUG_VALUE: grid_update:cont <- $r4
	@DEBUG_VALUE: row_pos <- $r0
	@DEBUG_VALUE: calc_rows:c <- [DW_OP_plus_uconst 64, DW_OP_stack_value] $sp
	@DEBUG_VALUE: calc:calc_out <- [DW_OP_plus_uconst 64, DW_OP_stack_value] $sp
	@DEBUG_VALUE: grid_update:user_data <- [DW_OP_LLVM_entry_value 1] $r1
	.loc	2 527 24                        @ ../GUILib/src/extra/layouts/grid/lv_grid.c:527:24
	mov	r0, r7
.Ltmp57:
	bl	lv_obj_get_height
.Ltmp58:
	sxth.w	r1, r10
	cmp	r1, r0
	bgt	.LBB1_15
.Ltmp59:
@ %bb.14:                               @   in Loop: Header=BB1_10 Depth=2
	@DEBUG_VALUE: size <- $r10
	@DEBUG_VALUE: calc_rows:i <- $r9
	@DEBUG_VALUE: item <- $r7
	@DEBUG_VALUE: calc_rows:row_templ <- $r6
	@DEBUG_VALUE: ci <- $r5
	@DEBUG_VALUE: calc_rows:cont <- $r4
	@DEBUG_VALUE: calc:cont <- $r4
	@DEBUG_VALUE: grid_update:cont <- $r4
	@DEBUG_VALUE: calc_rows:c <- [DW_OP_plus_uconst 64, DW_OP_stack_value] $sp
	@DEBUG_VALUE: calc:calc_out <- [DW_OP_plus_uconst 64, DW_OP_stack_value] $sp
	@DEBUG_VALUE: grid_update:user_data <- [DW_OP_LLVM_entry_value 1] $r1
	mov	r0, r7
	bl	lv_obj_get_height
.Ltmp60:
	mov	r10, r0
.Ltmp61:
	.p2align	2
.LBB1_15:                               @   in Loop: Header=BB1_10 Depth=2
	@DEBUG_VALUE: calc_rows:i <- $r9
	@DEBUG_VALUE: calc_rows:row_templ <- $r6
	@DEBUG_VALUE: ci <- $r5
	@DEBUG_VALUE: calc_rows:cont <- $r4
	@DEBUG_VALUE: calc:cont <- $r4
	@DEBUG_VALUE: grid_update:cont <- $r4
	@DEBUG_VALUE: calc_rows:c <- [DW_OP_plus_uconst 64, DW_OP_stack_value] $sp
	@DEBUG_VALUE: calc:calc_out <- [DW_OP_plus_uconst 64, DW_OP_stack_value] $sp
	@DEBUG_VALUE: grid_update:user_data <- [DW_OP_LLVM_entry_value 1] $r1
	@DEBUG_VALUE: size <- $r10
	.loc	2 518 30                        @ ../GUILib/src/extra/layouts/grid/lv_grid.c:518:30
	mov	r0, r4
	.loc	2 518 60 is_stmt 0              @ ../GUILib/src/extra/layouts/grid/lv_grid.c:518:60
	adds	r5, #1
.Ltmp62:
	@DEBUG_VALUE: ci <- $r5
	.loc	2 518 30                        @ ../GUILib/src/extra/layouts/grid/lv_grid.c:518:30
	bl	lv_obj_get_child_cnt
.Ltmp63:
	.loc	2 518 13                        @ ../GUILib/src/extra/layouts/grid/lv_grid.c:518:13
	cmp	r5, r0
	blo	.LBB1_10
.Ltmp64:
@ %bb.16:                               @   in Loop: Header=BB1_7 Depth=1
	@DEBUG_VALUE: size <- $r10
	@DEBUG_VALUE: calc_rows:i <- $r9
	@DEBUG_VALUE: calc_rows:row_templ <- $r6
	@DEBUG_VALUE: ci <- $r5
	@DEBUG_VALUE: calc_rows:cont <- $r4
	@DEBUG_VALUE: calc:cont <- $r4
	@DEBUG_VALUE: grid_update:cont <- $r4
	@DEBUG_VALUE: calc_rows:c <- [DW_OP_plus_uconst 64, DW_OP_stack_value] $sp
	@DEBUG_VALUE: calc:calc_out <- [DW_OP_plus_uconst 64, DW_OP_stack_value] $sp
	@DEBUG_VALUE: grid_update:user_data <- [DW_OP_LLVM_entry_value 1] $r1
	.loc	2 529 21 is_stmt 1              @ ../GUILib/src/extra/layouts/grid/lv_grid.c:529:21
	sxth.w	r0, r10
.Ltmp65:
	.loc	2 529 16 is_stmt 0              @ ../GUILib/src/extra/layouts/grid/lv_grid.c:529:16
	mov.w	r1, #-1
	cmp	r0, r1
	movw	r5, #8090
.Ltmp66:
	bgt	.LBB1_18
.Ltmp67:
.LBB1_17:                               @   in Loop: Header=BB1_7 Depth=1
	@DEBUG_VALUE: calc_rows:i <- $r9
	@DEBUG_VALUE: calc_rows:row_templ <- $r6
	@DEBUG_VALUE: calc_rows:cont <- $r4
	@DEBUG_VALUE: calc:cont <- $r4
	@DEBUG_VALUE: grid_update:cont <- $r4
	@DEBUG_VALUE: calc_rows:c <- [DW_OP_plus_uconst 64, DW_OP_stack_value] $sp
	@DEBUG_VALUE: calc:calc_out <- [DW_OP_plus_uconst 64, DW_OP_stack_value] $sp
	@DEBUG_VALUE: grid_update:user_data <- [DW_OP_LLVM_entry_value 1] $r1
	.loc	2 0 16                          @ ../GUILib/src/extra/layouts/grid/lv_grid.c:0:16
	mov.w	r10, #0
.Ltmp68:
.LBB1_18:                               @   in Loop: Header=BB1_7 Depth=1
	@DEBUG_VALUE: calc_rows:i <- $r9
	@DEBUG_VALUE: calc_rows:row_templ <- $r6
	@DEBUG_VALUE: calc_rows:cont <- $r4
	@DEBUG_VALUE: calc:cont <- $r4
	@DEBUG_VALUE: grid_update:cont <- $r4
	@DEBUG_VALUE: calc_rows:c <- [DW_OP_plus_uconst 64, DW_OP_stack_value] $sp
	@DEBUG_VALUE: calc:calc_out <- [DW_OP_plus_uconst 64, DW_OP_stack_value] $sp
	@DEBUG_VALUE: grid_update:user_data <- [DW_OP_LLVM_entry_value 1] $r1
	ldr	r0, [sp, #48]                   @ 4-byte Reload
.Ltmp69:
	strh.w	r10, [r0, r9, lsl #1]
.Ltmp70:
.LBB1_19:                               @   in Loop: Header=BB1_7 Depth=1
	@DEBUG_VALUE: calc_rows:i <- $r9
	@DEBUG_VALUE: calc_rows:row_templ <- $r6
	@DEBUG_VALUE: calc_rows:cont <- $r4
	@DEBUG_VALUE: calc:cont <- $r4
	@DEBUG_VALUE: grid_update:cont <- $r4
	@DEBUG_VALUE: calc_rows:c <- [DW_OP_plus_uconst 64, DW_OP_stack_value] $sp
	@DEBUG_VALUE: calc:calc_out <- [DW_OP_plus_uconst 64, DW_OP_stack_value] $sp
	@DEBUG_VALUE: grid_update:user_data <- [DW_OP_LLVM_entry_value 1] $r1
	.loc	2 513 33 is_stmt 1              @ ../GUILib/src/extra/layouts/grid/lv_grid.c:513:33
	add.w	r9, r9, #1
.Ltmp71:
	@DEBUG_VALUE: calc_rows:i <- $r9
	.loc	2 513 5 is_stmt 0               @ ../GUILib/src/extra/layouts/grid/lv_grid.c:513:5
	cmp	r11, r9
	bne	.LBB1_7
.Ltmp72:
@ %bb.20:
	@DEBUG_VALUE: calc_rows:i <- $r9
	@DEBUG_VALUE: calc_rows:row_templ <- $r6
	@DEBUG_VALUE: calc_rows:cont <- $r4
	@DEBUG_VALUE: calc:cont <- $r4
	@DEBUG_VALUE: grid_update:cont <- $r4
	@DEBUG_VALUE: calc_rows:c <- [DW_OP_plus_uconst 64, DW_OP_stack_value] $sp
	@DEBUG_VALUE: calc:calc_out <- [DW_OP_plus_uconst 64, DW_OP_stack_value] $sp
	@DEBUG_VALUE: grid_update:user_data <- [DW_OP_LLVM_entry_value 1] $r1
	.loc	2 0 5                           @ ../GUILib/src/extra/layouts/grid/lv_grid.c:0:5
	movs	r1, #0
	movw	lr, #8091
	movw	r12, #8090
	movs	r7, #0
	movs	r5, #0
.Ltmp73:
	.p2align	2
.LBB1_21:                               @ =>This Inner Loop Header: Depth=1
	@DEBUG_VALUE: calc_rows:row_templ <- $r6
	@DEBUG_VALUE: calc_rows:cont <- $r4
	@DEBUG_VALUE: calc:cont <- $r4
	@DEBUG_VALUE: grid_update:cont <- $r4
	@DEBUG_VALUE: calc_rows:c <- [DW_OP_plus_uconst 64, DW_OP_stack_value] $sp
	@DEBUG_VALUE: calc:calc_out <- [DW_OP_plus_uconst 64, DW_OP_stack_value] $sp
	@DEBUG_VALUE: grid_update:user_data <- [DW_OP_LLVM_entry_value 1] $r1
	@DEBUG_VALUE: calc_rows:i <- $r1
	@DEBUG_VALUE: calc_rows:row_fr_cnt <- $r7
	@DEBUG_VALUE: calc_rows:grid_h <- $r5
	.loc	2 538 24 is_stmt 1              @ ../GUILib/src/extra/layouts/grid/lv_grid.c:538:24
	ldrh.w	r2, [r6, r1, lsl #1]
	sxth	r3, r2
.Ltmp74:
	@DEBUG_VALUE: x <- $r2
	.loc	2 539 12                        @ ../GUILib/src/extra/layouts/grid/lv_grid.c:539:12
	cmp	r3, lr
	blt	.LBB1_23
.Ltmp75:
@ %bb.22:                               @   in Loop: Header=BB1_21 Depth=1
	@DEBUG_VALUE: calc_rows:row_fr_cnt <- $r7
	@DEBUG_VALUE: calc_rows:row_templ <- $r6
	@DEBUG_VALUE: calc_rows:grid_h <- $r5
	@DEBUG_VALUE: calc_rows:cont <- $r4
	@DEBUG_VALUE: calc:cont <- $r4
	@DEBUG_VALUE: grid_update:cont <- $r4
	@DEBUG_VALUE: x <- $r2
	@DEBUG_VALUE: calc_rows:i <- $r1
	@DEBUG_VALUE: calc_rows:c <- [DW_OP_plus_uconst 64, DW_OP_stack_value] $sp
	@DEBUG_VALUE: calc:calc_out <- [DW_OP_plus_uconst 64, DW_OP_stack_value] $sp
	@DEBUG_VALUE: grid_update:user_data <- [DW_OP_LLVM_entry_value 1] $r1
	.loc	2 540 27                        @ ../GUILib/src/extra/layouts/grid/lv_grid.c:540:27
	add	r2, r7
.Ltmp76:
	.loc	2 540 24 is_stmt 0              @ ../GUILib/src/extra/layouts/grid/lv_grid.c:540:24
	sub.w	r7, r2, lr
.Ltmp77:
	@DEBUG_VALUE: calc_rows:row_fr_cnt <- $r7
	.loc	2 0 24                          @ ../GUILib/src/extra/layouts/grid/lv_grid.c:0:24
	b	.LBB1_26
.Ltmp78:
	.p2align	2
.LBB1_23:                               @   in Loop: Header=BB1_21 Depth=1
	@DEBUG_VALUE: calc_rows:row_fr_cnt <- $r7
	@DEBUG_VALUE: calc_rows:row_templ <- $r6
	@DEBUG_VALUE: calc_rows:grid_h <- $r5
	@DEBUG_VALUE: calc_rows:cont <- $r4
	@DEBUG_VALUE: calc:cont <- $r4
	@DEBUG_VALUE: grid_update:cont <- $r4
	@DEBUG_VALUE: x <- $r2
	@DEBUG_VALUE: calc_rows:i <- $r1
	@DEBUG_VALUE: calc_rows:c <- [DW_OP_plus_uconst 64, DW_OP_stack_value] $sp
	@DEBUG_VALUE: calc:calc_out <- [DW_OP_plus_uconst 64, DW_OP_stack_value] $sp
	@DEBUG_VALUE: grid_update:user_data <- [DW_OP_LLVM_entry_value 1] $r1
	.loc	2 542 17 is_stmt 1              @ ../GUILib/src/extra/layouts/grid/lv_grid.c:542:17
	cmp	r3, r12
	bne	.LBB1_25
.Ltmp79:
@ %bb.24:                               @   in Loop: Header=BB1_21 Depth=1
	@DEBUG_VALUE: calc_rows:row_fr_cnt <- $r7
	@DEBUG_VALUE: calc_rows:row_templ <- $r6
	@DEBUG_VALUE: calc_rows:grid_h <- $r5
	@DEBUG_VALUE: calc_rows:cont <- $r4
	@DEBUG_VALUE: calc:cont <- $r4
	@DEBUG_VALUE: grid_update:cont <- $r4
	@DEBUG_VALUE: x <- $r2
	@DEBUG_VALUE: calc_rows:i <- $r1
	@DEBUG_VALUE: calc_rows:c <- [DW_OP_plus_uconst 64, DW_OP_stack_value] $sp
	@DEBUG_VALUE: calc:calc_out <- [DW_OP_plus_uconst 64, DW_OP_stack_value] $sp
	@DEBUG_VALUE: grid_update:user_data <- [DW_OP_LLVM_entry_value 1] $r1
	.loc	2 543 23                        @ ../GUILib/src/extra/layouts/grid/lv_grid.c:543:23
	ldrh.w	r2, [r0, r1, lsl #1]
.Ltmp80:
	.loc	2 543 20 is_stmt 0              @ ../GUILib/src/extra/layouts/grid/lv_grid.c:543:20
	add	r5, r2
.Ltmp81:
	@DEBUG_VALUE: calc_rows:grid_h <- $r5
	.loc	2 0 20                          @ ../GUILib/src/extra/layouts/grid/lv_grid.c:0:20
	b	.LBB1_26
.Ltmp82:
	.p2align	2
.LBB1_25:                               @   in Loop: Header=BB1_21 Depth=1
	@DEBUG_VALUE: calc_rows:row_fr_cnt <- $r7
	@DEBUG_VALUE: calc_rows:row_templ <- $r6
	@DEBUG_VALUE: calc_rows:grid_h <- $r5
	@DEBUG_VALUE: calc_rows:cont <- $r4
	@DEBUG_VALUE: calc:cont <- $r4
	@DEBUG_VALUE: grid_update:cont <- $r4
	@DEBUG_VALUE: x <- $r2
	@DEBUG_VALUE: calc_rows:i <- $r1
	@DEBUG_VALUE: calc_rows:c <- [DW_OP_plus_uconst 64, DW_OP_stack_value] $sp
	@DEBUG_VALUE: calc:calc_out <- [DW_OP_plus_uconst 64, DW_OP_stack_value] $sp
	@DEBUG_VALUE: grid_update:user_data <- [DW_OP_LLVM_entry_value 1] $r1
	.loc	2 547 20 is_stmt 1              @ ../GUILib/src/extra/layouts/grid/lv_grid.c:547:20
	add	r5, r3
.Ltmp83:
	@DEBUG_VALUE: calc_rows:grid_h <- $r5
	.loc	2 546 21                        @ ../GUILib/src/extra/layouts/grid/lv_grid.c:546:21
	strh.w	r3, [r0, r1, lsl #1]
.Ltmp84:
.LBB1_26:                               @   in Loop: Header=BB1_21 Depth=1
	@DEBUG_VALUE: calc_rows:row_fr_cnt <- $r7
	@DEBUG_VALUE: calc_rows:row_templ <- $r6
	@DEBUG_VALUE: calc_rows:grid_h <- $r5
	@DEBUG_VALUE: calc_rows:cont <- $r4
	@DEBUG_VALUE: calc:cont <- $r4
	@DEBUG_VALUE: grid_update:cont <- $r4
	@DEBUG_VALUE: calc_rows:i <- $r1
	@DEBUG_VALUE: calc_rows:c <- [DW_OP_plus_uconst 64, DW_OP_stack_value] $sp
	@DEBUG_VALUE: calc:calc_out <- [DW_OP_plus_uconst 64, DW_OP_stack_value] $sp
	@DEBUG_VALUE: grid_update:user_data <- [DW_OP_LLVM_entry_value 1] $r1
	@DEBUG_VALUE: calc_rows:row_fr_cnt <- $r7
	@DEBUG_VALUE: calc_rows:grid_h <- $r5
	.loc	2 537 33                        @ ../GUILib/src/extra/layouts/grid/lv_grid.c:537:33
	adds	r1, #1
.Ltmp85:
	@DEBUG_VALUE: calc_rows:i <- $r1
	.loc	2 537 5 is_stmt 0               @ ../GUILib/src/extra/layouts/grid/lv_grid.c:537:5
	cmp	r11, r1
	bne	.LBB1_21
	b	.LBB1_29
.Ltmp86:
.LBB1_27:
	@DEBUG_VALUE: grid_update:col_templ <- $r5
	@DEBUG_VALUE: calc:cont <- $r4
	@DEBUG_VALUE: grid_update:cont <- $r4
	@DEBUG_VALUE: calc:calc_out <- [DW_OP_plus_uconst 64, DW_OP_stack_value] $sp
	@DEBUG_VALUE: grid_update:user_data <- [DW_OP_LLVM_entry_value 1] $r1
	.loc	2 0 5                           @ ../GUILib/src/extra/layouts/grid/lv_grid.c:0:5
	add	r0, sp, #64
.Ltmp87:
	.loc	2 394 9 is_stmt 1               @ ../GUILib/src/extra/layouts/grid/lv_grid.c:394:9
	movs	r1, #28
	bl	lv_memset_00
.Ltmp88:
	.loc	2 0 9 is_stmt 0                 @ ../GUILib/src/extra/layouts/grid/lv_grid.c:0:9
	b	.LBB1_71
.Ltmp89:
.LBB1_28:
	@DEBUG_VALUE: calc_rows:row_templ <- $r6
	@DEBUG_VALUE: calc_rows:cont <- $r4
	@DEBUG_VALUE: calc:cont <- $r4
	@DEBUG_VALUE: grid_update:cont <- $r4
	@DEBUG_VALUE: calc_rows:c <- [DW_OP_plus_uconst 64, DW_OP_stack_value] $sp
	@DEBUG_VALUE: calc:calc_out <- [DW_OP_plus_uconst 64, DW_OP_stack_value] $sp
	@DEBUG_VALUE: calc_rows:i <- 0
	@DEBUG_VALUE: grid_update:user_data <- [DW_OP_LLVM_entry_value 1] $r1
	movs	r5, #0
.Ltmp90:
	movs	r7, #0
.Ltmp91:
.LBB1_29:
	@DEBUG_VALUE: calc_rows:row_templ <- $r6
	@DEBUG_VALUE: calc_rows:cont <- $r4
	@DEBUG_VALUE: calc:cont <- $r4
	@DEBUG_VALUE: grid_update:cont <- $r4
	@DEBUG_VALUE: calc_rows:c <- [DW_OP_plus_uconst 64, DW_OP_stack_value] $sp
	@DEBUG_VALUE: calc:calc_out <- [DW_OP_plus_uconst 64, DW_OP_stack_value] $sp
	@DEBUG_VALUE: grid_update:user_data <- [DW_OP_LLVM_entry_value 1] $r1
	@DEBUG_VALUE: lv_obj_get_style_pad_row:obj <- $r4
	@DEBUG_VALUE: lv_obj_get_style_pad_row:part <- 0
	.file	9 "C:\\Users\\Hyacincher\\Desktop\\HyTelectrl\\Code\\Project" "../GUILib/src/extra/layouts/grid/../flex/../../../core/lv_obj_style_gen.h"
	.loc	9 117 26 is_stmt 1              @ ../GUILib/src/extra/layouts/grid/../flex/../../../core/lv_obj_style_gen.h:117:26
	mov	r0, r4
	movs	r1, #0
	movw	r2, #6164
	bl	lv_obj_get_style_prop
.Ltmp92:
	mov	r9, r0
.Ltmp93:
	@DEBUG_VALUE: calc_rows:row_gap <- $r9
	@DEBUG_VALUE: lv_obj_get_style_pad_row:v <- $r9
	.loc	2 553 25                        @ ../GUILib/src/extra/layouts/grid/lv_grid.c:553:25
	mov	r0, r4
	bl	lv_obj_get_content_height
.Ltmp94:
	.loc	2 553 73 is_stmt 0              @ ../GUILib/src/extra/layouts/grid/lv_grid.c:553:73
	ldr	r1, [sp, #84]
.Ltmp95:
	@DEBUG_VALUE: calc_rows:last_fr_x <- 0
	@DEBUG_VALUE: calc_rows:last_fr_i <- -1
	@DEBUG_VALUE: calc_rows:free_h <- undef
	@DEBUG_VALUE: calc_rows:cont_h <- undef
	@DEBUG_VALUE: calc_rows:i <- 0
	.loc	2 559 5 is_stmt 1               @ ../GUILib/src/extra/layouts/grid/lv_grid.c:559:5
	cbz	r1, .LBB1_34
.Ltmp96:
@ %bb.30:
	@DEBUG_VALUE: calc_rows:row_gap <- $r9
	@DEBUG_VALUE: calc_rows:row_templ <- $r6
	@DEBUG_VALUE: calc_rows:cont <- $r4
	@DEBUG_VALUE: calc:cont <- $r4
	@DEBUG_VALUE: grid_update:cont <- $r4
	@DEBUG_VALUE: calc_rows:c <- [DW_OP_plus_uconst 64, DW_OP_stack_value] $sp
	@DEBUG_VALUE: calc:calc_out <- [DW_OP_plus_uconst 64, DW_OP_stack_value] $sp
	@DEBUG_VALUE: calc_rows:last_fr_i <- -1
	@DEBUG_VALUE: calc_rows:last_fr_x <- 0
	@DEBUG_VALUE: calc_rows:i <- 0
	@DEBUG_VALUE: grid_update:user_data <- [DW_OP_LLVM_entry_value 1] $r1
	.loc	2 0 0 is_stmt 0                 @ ../GUILib/src/extra/layouts/grid/lv_grid.c:0:0
	subs	r2, r1, #1
	mls	r0, r2, r9, r0
.Ltmp97:
	@DEBUG_VALUE: calc_rows:cont_h <- $r0
	ldr	r2, [sp, #76]
	subs	r0, r0, r5
.Ltmp98:
	sxth	r0, r0
	.loc	2 555 8 is_stmt 1               @ ../GUILib/src/extra/layouts/grid/lv_grid.c:555:8
	bic.w	r0, r0, r0, asr #31
.Ltmp99:
	@DEBUG_VALUE: calc_rows:free_h <- $r0
	.loc	2 0 8 is_stmt 0                 @ ../GUILib/src/extra/layouts/grid/lv_grid.c:0:8
	uxth	r0, r0
.Ltmp100:
	movw	r3, #8091
.Ltmp101:
	.p2align	2
.LBB1_31:                               @ =>This Inner Loop Header: Depth=1
	@DEBUG_VALUE: calc_rows:row_gap <- $r9
	@DEBUG_VALUE: calc_rows:cont <- $r4
	@DEBUG_VALUE: calc:cont <- $r4
	@DEBUG_VALUE: grid_update:cont <- $r4
	@DEBUG_VALUE: calc_rows:c <- [DW_OP_plus_uconst 64, DW_OP_stack_value] $sp
	@DEBUG_VALUE: calc:calc_out <- [DW_OP_plus_uconst 64, DW_OP_stack_value] $sp
	@DEBUG_VALUE: calc_rows:last_fr_i <- -1
	@DEBUG_VALUE: calc_rows:last_fr_x <- 0
	@DEBUG_VALUE: grid_update:user_data <- [DW_OP_LLVM_entry_value 1] $r1
	@DEBUG_VALUE: calc_rows:i <- undef
	.loc	2 560 24 is_stmt 1              @ ../GUILib/src/extra/layouts/grid/lv_grid.c:560:24
	ldrsh.w	r5, [r6]
.Ltmp102:
	@DEBUG_VALUE: x <- undef
	.loc	2 561 12                        @ ../GUILib/src/extra/layouts/grid/lv_grid.c:561:12
	cmp	r5, r3
	blt	.LBB1_33
.Ltmp103:
@ %bb.32:                               @   in Loop: Header=BB1_31 Depth=1
	@DEBUG_VALUE: calc_rows:row_gap <- $r9
	@DEBUG_VALUE: calc_rows:cont <- $r4
	@DEBUG_VALUE: calc:cont <- $r4
	@DEBUG_VALUE: grid_update:cont <- $r4
	@DEBUG_VALUE: calc_rows:c <- [DW_OP_plus_uconst 64, DW_OP_stack_value] $sp
	@DEBUG_VALUE: calc:calc_out <- [DW_OP_plus_uconst 64, DW_OP_stack_value] $sp
	@DEBUG_VALUE: calc_rows:last_fr_i <- -1
	@DEBUG_VALUE: calc_rows:last_fr_x <- 0
	@DEBUG_VALUE: grid_update:user_data <- [DW_OP_LLVM_entry_value 1] $r1
	.loc	2 562 28                        @ ../GUILib/src/extra/layouts/grid/lv_grid.c:562:28
	subs	r5, r5, r3
.Ltmp104:
	@DEBUG_VALUE: f <- $r5
	.loc	2 563 33                        @ ../GUILib/src/extra/layouts/grid/lv_grid.c:563:33
	sxth	r5, r5
.Ltmp105:
	.loc	2 563 31 is_stmt 0              @ ../GUILib/src/extra/layouts/grid/lv_grid.c:563:31
	muls	r5, r0, r5
	.loc	2 563 36                        @ ../GUILib/src/extra/layouts/grid/lv_grid.c:563:36
	udiv	r5, r5, r7
	.loc	2 563 21                        @ ../GUILib/src/extra/layouts/grid/lv_grid.c:563:21
	strh	r5, [r2]
.Ltmp106:
.LBB1_33:                               @   in Loop: Header=BB1_31 Depth=1
	@DEBUG_VALUE: calc_rows:row_gap <- $r9
	@DEBUG_VALUE: calc_rows:cont <- $r4
	@DEBUG_VALUE: calc:cont <- $r4
	@DEBUG_VALUE: grid_update:cont <- $r4
	@DEBUG_VALUE: calc_rows:c <- [DW_OP_plus_uconst 64, DW_OP_stack_value] $sp
	@DEBUG_VALUE: calc:calc_out <- [DW_OP_plus_uconst 64, DW_OP_stack_value] $sp
	@DEBUG_VALUE: calc_rows:last_fr_i <- -1
	@DEBUG_VALUE: calc_rows:last_fr_x <- 0
	@DEBUG_VALUE: grid_update:user_data <- [DW_OP_LLVM_entry_value 1] $r1
	@DEBUG_VALUE: calc_rows:i <- [DW_OP_plus_uconst 1, DW_OP_stack_value] undef
	.loc	2 559 18 is_stmt 1              @ ../GUILib/src/extra/layouts/grid/lv_grid.c:559:18
	adds	r2, #2
	subs	r1, #1
	add.w	r6, r6, #2
.Ltmp107:
	.loc	2 559 5 is_stmt 0               @ ../GUILib/src/extra/layouts/grid/lv_grid.c:559:5
	bne	.LBB1_31
.Ltmp108:
.LBB1_34:
	@DEBUG_VALUE: calc:cont <- $r4
	@DEBUG_VALUE: grid_update:cont <- $r4
	@DEBUG_VALUE: calc:calc_out <- [DW_OP_plus_uconst 64, DW_OP_stack_value] $sp
	@DEBUG_VALUE: grid_update:user_data <- [DW_OP_LLVM_entry_value 1] $r1
	@DEBUG_VALUE: calc_cols:cont <- $r4
	@DEBUG_VALUE: calc_cols:c <- [DW_OP_plus_uconst 64, DW_OP_stack_value] $sp
	@DEBUG_VALUE: get_col_dsc:obj <- $r4
	@DEBUG_VALUE: lv_obj_get_style_grid_column_dsc_array:obj <- $r4
	@DEBUG_VALUE: lv_obj_get_style_grid_column_dsc_array:part <- 0
	.loc	5 129 59 is_stmt 1              @ ../GUILib/src/extra/layouts/grid/../grid/lv_grid.h:129:59
	movw	r0, :lower16:LV_STYLE_GRID_COLUMN_DSC_ARRAY
	movt	r0, :upper16:LV_STYLE_GRID_COLUMN_DSC_ARRAY
	ldrh	r2, [r0]
	.loc	5 129 26 is_stmt 0              @ ../GUILib/src/extra/layouts/grid/../grid/lv_grid.h:129:26
	mov	r0, r4
	movs	r1, #0
	movs	r5, #0
	bl	lv_obj_get_style_prop
.Ltmp109:
	mov	r6, r0
.Ltmp110:
	@DEBUG_VALUE: count_tracks:templ <- $r6
	@DEBUG_VALUE: calc_cols:col_templ <- $r6
	@DEBUG_VALUE: lv_obj_get_style_grid_column_dsc_array:v <- $r6
	.loc	2 436 25 is_stmt 1              @ ../GUILib/src/extra/layouts/grid/lv_grid.c:436:25
	mov	r0, r4
	bl	lv_obj_get_content_width
.Ltmp111:
	mov	r11, r0
	mov.w	r10, #-1
	@DEBUG_VALUE: count_tracks:i <- 0
.Ltmp112:
	@DEBUG_VALUE: calc_cols:cont_w <- undef
	.loc	2 0 25 is_stmt 0                @ ../GUILib/src/extra/layouts/grid/lv_grid.c:0:25
	movw	r0, #8191
.Ltmp113:
	.p2align	2
.LBB1_35:                               @ =>This Inner Loop Header: Depth=1
	@DEBUG_VALUE: calc_cols:col_templ <- $r6
	@DEBUG_VALUE: count_tracks:templ <- $r6
	@DEBUG_VALUE: calc_cols:cont <- $r4
	@DEBUG_VALUE: calc:cont <- $r4
	@DEBUG_VALUE: grid_update:cont <- $r4
	@DEBUG_VALUE: calc_cols:c <- [DW_OP_plus_uconst 64, DW_OP_stack_value] $sp
	@DEBUG_VALUE: calc:calc_out <- [DW_OP_plus_uconst 64, DW_OP_stack_value] $sp
	@DEBUG_VALUE: grid_update:user_data <- [DW_OP_LLVM_entry_value 1] $r1
	@DEBUG_VALUE: count_tracks:i <- [DW_OP_plus_uconst 1, DW_OP_stack_value] $r10
	.loc	2 774 16 is_stmt 1              @ ../GUILib/src/extra/layouts/grid/lv_grid.c:774:16
	ldrh	r1, [r6, r5]
.Ltmp114:
	@DEBUG_VALUE: count_tracks:i <- [DW_OP_plus_uconst 2, DW_OP_stack_value] $r10
	.loc	2 774 5 is_stmt 0               @ ../GUILib/src/extra/layouts/grid/lv_grid.c:774:5
	add.w	r10, r10, #1
.Ltmp115:
	cmp	r1, r0
	add.w	r5, r5, #2
	bne	.LBB1_35
.Ltmp116:
@ %bb.36:
	@DEBUG_VALUE: calc_cols:col_templ <- $r6
	@DEBUG_VALUE: calc_cols:cont <- $r4
	@DEBUG_VALUE: calc:cont <- $r4
	@DEBUG_VALUE: grid_update:cont <- $r4
	@DEBUG_VALUE: calc_cols:c <- [DW_OP_plus_uconst 64, DW_OP_stack_value] $sp
	@DEBUG_VALUE: calc:calc_out <- [DW_OP_plus_uconst 64, DW_OP_stack_value] $sp
	@DEBUG_VALUE: grid_update:user_data <- [DW_OP_LLVM_entry_value 1] $r1
	.loc	2 439 12 is_stmt 1              @ ../GUILib/src/extra/layouts/grid/lv_grid.c:439:12
	subs	r5, #2
	mov	r0, r5
	.loc	2 438 16                        @ ../GUILib/src/extra/layouts/grid/lv_grid.c:438:16
	str.w	r10, [sp, #80]
	.loc	2 439 12                        @ ../GUILib/src/extra/layouts/grid/lv_grid.c:439:12
	bl	lv_mem_buf_get
.Ltmp117:
	.loc	2 0 12 is_stmt 0                @ ../GUILib/src/extra/layouts/grid/lv_grid.c:0:12
	str	r0, [sp, #40]                   @ 4-byte Spill
	.loc	2 439 10                        @ ../GUILib/src/extra/layouts/grid/lv_grid.c:439:10
	str	r0, [sp, #64]
	.loc	2 440 12 is_stmt 1              @ ../GUILib/src/extra/layouts/grid/lv_grid.c:440:12
	mov	r0, r5
	bl	lv_mem_buf_get
.Ltmp118:
	.loc	2 444 5                         @ ../GUILib/src/extra/layouts/grid/lv_grid.c:444:5
	cmp.w	r10, #0
	mov.w	r9, #0
.Ltmp119:
	@DEBUG_VALUE: calc_cols:i <- 0
	.loc	2 440 10                        @ ../GUILib/src/extra/layouts/grid/lv_grid.c:440:10
	str	r0, [sp, #72]
.Ltmp120:
	.loc	2 444 5                         @ ../GUILib/src/extra/layouts/grid/lv_grid.c:444:5
	beq	.LBB1_58
.Ltmp121:
@ %bb.37:
	@DEBUG_VALUE: calc_cols:col_templ <- $r6
	@DEBUG_VALUE: calc_cols:cont <- $r4
	@DEBUG_VALUE: calc:cont <- $r4
	@DEBUG_VALUE: grid_update:cont <- $r4
	@DEBUG_VALUE: calc_cols:c <- [DW_OP_plus_uconst 64, DW_OP_stack_value] $sp
	@DEBUG_VALUE: calc:calc_out <- [DW_OP_plus_uconst 64, DW_OP_stack_value] $sp
	@DEBUG_VALUE: calc_cols:i <- 0
	@DEBUG_VALUE: grid_update:user_data <- [DW_OP_LLVM_entry_value 1] $r1
	.loc	2 0 5 is_stmt 0                 @ ../GUILib/src/extra/layouts/grid/lv_grid.c:0:5
	str.w	r11, [sp, #36]                  @ 4-byte Spill
	mov.w	r11, #0
	movw	r5, #8090
	str	r0, [sp, #48]                   @ 4-byte Spill
.Ltmp122:
	.p2align	2
.LBB1_38:                               @ =>This Loop Header: Depth=1
                                        @     Child Loop BB1_41 Depth 2
	@DEBUG_VALUE: calc_cols:col_templ <- $r6
	@DEBUG_VALUE: calc_cols:cont <- $r4
	@DEBUG_VALUE: calc:cont <- $r4
	@DEBUG_VALUE: grid_update:cont <- $r4
	@DEBUG_VALUE: calc_cols:c <- [DW_OP_plus_uconst 64, DW_OP_stack_value] $sp
	@DEBUG_VALUE: calc:calc_out <- [DW_OP_plus_uconst 64, DW_OP_stack_value] $sp
	@DEBUG_VALUE: grid_update:user_data <- [DW_OP_LLVM_entry_value 1] $r1
	@DEBUG_VALUE: calc_cols:i <- $r11
	@DEBUG_VALUE: size <- -8191
	.loc	2 446 12 is_stmt 1              @ ../GUILib/src/extra/layouts/grid/lv_grid.c:446:12
	ldrh.w	r1, [r6, r11, lsl #1]
.Ltmp123:
	.loc	2 446 12 is_stmt 0              @ ../GUILib/src/extra/layouts/grid/lv_grid.c:446:12
	cmp	r1, r5
	bne	.LBB1_50
.Ltmp124:
@ %bb.39:                               @   in Loop: Header=BB1_38 Depth=1
	@DEBUG_VALUE: calc_cols:i <- $r11
	@DEBUG_VALUE: calc_cols:col_templ <- $r6
	@DEBUG_VALUE: calc_cols:cont <- $r4
	@DEBUG_VALUE: calc:cont <- $r4
	@DEBUG_VALUE: grid_update:cont <- $r4
	@DEBUG_VALUE: calc_cols:c <- [DW_OP_plus_uconst 64, DW_OP_stack_value] $sp
	@DEBUG_VALUE: calc:calc_out <- [DW_OP_plus_uconst 64, DW_OP_stack_value] $sp
	@DEBUG_VALUE: size <- -8191
	@DEBUG_VALUE: grid_update:user_data <- [DW_OP_LLVM_entry_value 1] $r1
	@DEBUG_VALUE: size <- -8191
	@DEBUG_VALUE: ci <- 0
	.loc	2 449 30 is_stmt 1              @ ../GUILib/src/extra/layouts/grid/lv_grid.c:449:30
	mov	r0, r4
	bl	lv_obj_get_child_cnt
.Ltmp125:
	.loc	2 449 13 is_stmt 0              @ ../GUILib/src/extra/layouts/grid/lv_grid.c:449:13
	cbz	r0, .LBB1_48
.Ltmp126:
@ %bb.40:                               @   in Loop: Header=BB1_38 Depth=1
	@DEBUG_VALUE: calc_cols:i <- $r11
	@DEBUG_VALUE: calc_cols:col_templ <- $r6
	@DEBUG_VALUE: calc_cols:cont <- $r4
	@DEBUG_VALUE: calc:cont <- $r4
	@DEBUG_VALUE: grid_update:cont <- $r4
	@DEBUG_VALUE: calc_cols:c <- [DW_OP_plus_uconst 64, DW_OP_stack_value] $sp
	@DEBUG_VALUE: calc:calc_out <- [DW_OP_plus_uconst 64, DW_OP_stack_value] $sp
	@DEBUG_VALUE: ci <- 0
	@DEBUG_VALUE: size <- -8191
	@DEBUG_VALUE: grid_update:user_data <- [DW_OP_LLVM_entry_value 1] $r1
	.loc	2 0 13                          @ ../GUILib/src/extra/layouts/grid/lv_grid.c:0:13
	movs	r5, #0
	movw	r7, #57345
.Ltmp127:
	.p2align	2
.LBB1_41:                               @   Parent Loop BB1_38 Depth=1
                                        @ =>  This Inner Loop Header: Depth=2
	@DEBUG_VALUE: calc_cols:i <- $r11
	@DEBUG_VALUE: calc_cols:col_templ <- $r6
	@DEBUG_VALUE: calc_cols:cont <- $r4
	@DEBUG_VALUE: calc:cont <- $r4
	@DEBUG_VALUE: grid_update:cont <- $r4
	@DEBUG_VALUE: calc_cols:c <- [DW_OP_plus_uconst 64, DW_OP_stack_value] $sp
	@DEBUG_VALUE: calc:calc_out <- [DW_OP_plus_uconst 64, DW_OP_stack_value] $sp
	@DEBUG_VALUE: grid_update:user_data <- [DW_OP_LLVM_entry_value 1] $r1
	@DEBUG_VALUE: size <- $r7
	@DEBUG_VALUE: ci <- $r5
	.loc	2 450 35 is_stmt 1              @ ../GUILib/src/extra/layouts/grid/lv_grid.c:450:35
	mov	r0, r4
	mov	r1, r5
	bl	lv_obj_get_child
.Ltmp128:
	.loc	2 451 20                        @ ../GUILib/src/extra/layouts/grid/lv_grid.c:451:20
	mov	r1, r8
.Ltmp129:
	.loc	2 450 35                        @ ../GUILib/src/extra/layouts/grid/lv_grid.c:450:35
	mov	r9, r0
.Ltmp130:
	@DEBUG_VALUE: item <- $r9
	.loc	2 451 20                        @ ../GUILib/src/extra/layouts/grid/lv_grid.c:451:20
	bl	lv_obj_has_flag_any
.Ltmp131:
	.loc	2 451 20 is_stmt 0              @ ../GUILib/src/extra/layouts/grid/lv_grid.c:451:20
	cbnz	r0, .LBB1_46
.Ltmp132:
@ %bb.42:                               @   in Loop: Header=BB1_41 Depth=2
	@DEBUG_VALUE: calc_cols:i <- $r11
	@DEBUG_VALUE: item <- $r9
	@DEBUG_VALUE: size <- $r7
	@DEBUG_VALUE: calc_cols:col_templ <- $r6
	@DEBUG_VALUE: ci <- $r5
	@DEBUG_VALUE: calc_cols:cont <- $r4
	@DEBUG_VALUE: calc:cont <- $r4
	@DEBUG_VALUE: grid_update:cont <- $r4
	@DEBUG_VALUE: calc_cols:c <- [DW_OP_plus_uconst 64, DW_OP_stack_value] $sp
	@DEBUG_VALUE: calc:calc_out <- [DW_OP_plus_uconst 64, DW_OP_stack_value] $sp
	@DEBUG_VALUE: grid_update:user_data <- [DW_OP_LLVM_entry_value 1] $r1
	@DEBUG_VALUE: get_col_span:obj <- $r9
	@DEBUG_VALUE: lv_obj_get_style_grid_cell_column_span:obj <- $r9
	@DEBUG_VALUE: lv_obj_get_style_grid_cell_column_span:part <- 0
	.loc	5 153 59 is_stmt 1              @ ../GUILib/src/extra/layouts/grid/../grid/lv_grid.h:153:59
	movw	r0, :lower16:LV_STYLE_GRID_CELL_COLUMN_SPAN
	movt	r0, :upper16:LV_STYLE_GRID_CELL_COLUMN_SPAN
	ldrh	r2, [r0]
	.loc	5 153 26 is_stmt 0              @ ../GUILib/src/extra/layouts/grid/../grid/lv_grid.h:153:26
	mov	r0, r9
	movs	r1, #0
	bl	lv_obj_get_style_prop
.Ltmp133:
	@DEBUG_VALUE: col_span <- [DW_OP_LLVM_convert 8 7, DW_OP_LLVM_convert 32 7, DW_OP_stack_value] $r0
	@DEBUG_VALUE: lv_obj_get_style_grid_cell_column_span:v <- $r0
	.loc	2 79 12 is_stmt 1               @ ../GUILib/src/extra/layouts/grid/lv_grid.c:79:12
	uxtb	r0, r0
.Ltmp134:
	.loc	2 453 20                        @ ../GUILib/src/extra/layouts/grid/lv_grid.c:453:20
	cmp	r0, #1
	bne	.LBB1_46
.Ltmp135:
@ %bb.43:                               @   in Loop: Header=BB1_41 Depth=2
	@DEBUG_VALUE: calc_cols:i <- $r11
	@DEBUG_VALUE: item <- $r9
	@DEBUG_VALUE: size <- $r7
	@DEBUG_VALUE: calc_cols:col_templ <- $r6
	@DEBUG_VALUE: ci <- $r5
	@DEBUG_VALUE: calc_cols:cont <- $r4
	@DEBUG_VALUE: calc:cont <- $r4
	@DEBUG_VALUE: grid_update:cont <- $r4
	@DEBUG_VALUE: calc_cols:c <- [DW_OP_plus_uconst 64, DW_OP_stack_value] $sp
	@DEBUG_VALUE: calc:calc_out <- [DW_OP_plus_uconst 64, DW_OP_stack_value] $sp
	@DEBUG_VALUE: grid_update:user_data <- [DW_OP_LLVM_entry_value 1] $r1
	@DEBUG_VALUE: get_col_pos:obj <- $r9
	@DEBUG_VALUE: lv_obj_get_style_grid_cell_column_pos:obj <- $r9
	@DEBUG_VALUE: lv_obj_get_style_grid_cell_column_pos:part <- 0
	.loc	5 147 59                        @ ../GUILib/src/extra/layouts/grid/../grid/lv_grid.h:147:59
	movw	r0, :lower16:LV_STYLE_GRID_CELL_COLUMN_POS
	movt	r0, :upper16:LV_STYLE_GRID_CELL_COLUMN_POS
	ldrh	r2, [r0]
	.loc	5 147 26 is_stmt 0              @ ../GUILib/src/extra/layouts/grid/../grid/lv_grid.h:147:26
	mov	r0, r9
	movs	r1, #0
	bl	lv_obj_get_style_prop
.Ltmp136:
	@DEBUG_VALUE: lv_obj_get_style_grid_cell_column_pos:v <- $r0
	.loc	2 455 36 is_stmt 1              @ ../GUILib/src/extra/layouts/grid/lv_grid.c:455:36
	uxtb	r0, r0
.Ltmp137:
	@DEBUG_VALUE: col_pos <- $r0
	.loc	2 456 20                        @ ../GUILib/src/extra/layouts/grid/lv_grid.c:456:20
	cmp	r11, r0
	bne	.LBB1_46
.Ltmp138:
@ %bb.44:                               @   in Loop: Header=BB1_41 Depth=2
	@DEBUG_VALUE: calc_cols:i <- $r11
	@DEBUG_VALUE: item <- $r9
	@DEBUG_VALUE: size <- $r7
	@DEBUG_VALUE: calc_cols:col_templ <- $r6
	@DEBUG_VALUE: ci <- $r5
	@DEBUG_VALUE: calc_cols:cont <- $r4
	@DEBUG_VALUE: calc:cont <- $r4
	@DEBUG_VALUE: grid_update:cont <- $r4
	@DEBUG_VALUE: col_pos <- $r0
	@DEBUG_VALUE: calc_cols:c <- [DW_OP_plus_uconst 64, DW_OP_stack_value] $sp
	@DEBUG_VALUE: calc:calc_out <- [DW_OP_plus_uconst 64, DW_OP_stack_value] $sp
	@DEBUG_VALUE: grid_update:user_data <- [DW_OP_LLVM_entry_value 1] $r1
	.loc	2 458 24                        @ ../GUILib/src/extra/layouts/grid/lv_grid.c:458:24
	mov	r0, r9
.Ltmp139:
	bl	lv_obj_get_width
.Ltmp140:
	sxth	r1, r7
	cmp	r1, r0
	bgt	.LBB1_46
.Ltmp141:
@ %bb.45:                               @   in Loop: Header=BB1_41 Depth=2
	@DEBUG_VALUE: calc_cols:i <- $r11
	@DEBUG_VALUE: item <- $r9
	@DEBUG_VALUE: size <- $r7
	@DEBUG_VALUE: calc_cols:col_templ <- $r6
	@DEBUG_VALUE: ci <- $r5
	@DEBUG_VALUE: calc_cols:cont <- $r4
	@DEBUG_VALUE: calc:cont <- $r4
	@DEBUG_VALUE: grid_update:cont <- $r4
	@DEBUG_VALUE: calc_cols:c <- [DW_OP_plus_uconst 64, DW_OP_stack_value] $sp
	@DEBUG_VALUE: calc:calc_out <- [DW_OP_plus_uconst 64, DW_OP_stack_value] $sp
	@DEBUG_VALUE: grid_update:user_data <- [DW_OP_LLVM_entry_value 1] $r1
	mov	r0, r9
	bl	lv_obj_get_width
.Ltmp142:
	mov	r7, r0
.Ltmp143:
	.p2align	2
.LBB1_46:                               @   in Loop: Header=BB1_41 Depth=2
	@DEBUG_VALUE: calc_cols:i <- $r11
	@DEBUG_VALUE: calc_cols:col_templ <- $r6
	@DEBUG_VALUE: ci <- $r5
	@DEBUG_VALUE: calc_cols:cont <- $r4
	@DEBUG_VALUE: calc:cont <- $r4
	@DEBUG_VALUE: grid_update:cont <- $r4
	@DEBUG_VALUE: calc_cols:c <- [DW_OP_plus_uconst 64, DW_OP_stack_value] $sp
	@DEBUG_VALUE: calc:calc_out <- [DW_OP_plus_uconst 64, DW_OP_stack_value] $sp
	@DEBUG_VALUE: grid_update:user_data <- [DW_OP_LLVM_entry_value 1] $r1
	@DEBUG_VALUE: size <- $r7
	.loc	2 449 30                        @ ../GUILib/src/extra/layouts/grid/lv_grid.c:449:30
	mov	r0, r4
	.loc	2 449 60 is_stmt 0              @ ../GUILib/src/extra/layouts/grid/lv_grid.c:449:60
	adds	r5, #1
.Ltmp144:
	@DEBUG_VALUE: ci <- $r5
	.loc	2 449 30                        @ ../GUILib/src/extra/layouts/grid/lv_grid.c:449:30
	bl	lv_obj_get_child_cnt
.Ltmp145:
	.loc	2 449 13                        @ ../GUILib/src/extra/layouts/grid/lv_grid.c:449:13
	cmp	r5, r0
	blo	.LBB1_41
.Ltmp146:
@ %bb.47:                               @   in Loop: Header=BB1_38 Depth=1
	@DEBUG_VALUE: calc_cols:i <- $r11
	@DEBUG_VALUE: size <- $r7
	@DEBUG_VALUE: calc_cols:col_templ <- $r6
	@DEBUG_VALUE: ci <- $r5
	@DEBUG_VALUE: calc_cols:cont <- $r4
	@DEBUG_VALUE: calc:cont <- $r4
	@DEBUG_VALUE: grid_update:cont <- $r4
	@DEBUG_VALUE: calc_cols:c <- [DW_OP_plus_uconst 64, DW_OP_stack_value] $sp
	@DEBUG_VALUE: calc:calc_out <- [DW_OP_plus_uconst 64, DW_OP_stack_value] $sp
	@DEBUG_VALUE: grid_update:user_data <- [DW_OP_LLVM_entry_value 1] $r1
	.loc	2 460 21 is_stmt 1              @ ../GUILib/src/extra/layouts/grid/lv_grid.c:460:21
	sxth	r0, r7
.Ltmp147:
	.loc	2 460 16 is_stmt 0              @ ../GUILib/src/extra/layouts/grid/lv_grid.c:460:16
	mov.w	r1, #-1
	cmp	r0, r1
	movw	r5, #8090
.Ltmp148:
	bgt	.LBB1_49
.Ltmp149:
.LBB1_48:                               @   in Loop: Header=BB1_38 Depth=1
	@DEBUG_VALUE: calc_cols:i <- $r11
	@DEBUG_VALUE: calc_cols:col_templ <- $r6
	@DEBUG_VALUE: calc_cols:cont <- $r4
	@DEBUG_VALUE: calc:cont <- $r4
	@DEBUG_VALUE: grid_update:cont <- $r4
	@DEBUG_VALUE: calc_cols:c <- [DW_OP_plus_uconst 64, DW_OP_stack_value] $sp
	@DEBUG_VALUE: calc:calc_out <- [DW_OP_plus_uconst 64, DW_OP_stack_value] $sp
	@DEBUG_VALUE: grid_update:user_data <- [DW_OP_LLVM_entry_value 1] $r1
	.loc	2 0 16                          @ ../GUILib/src/extra/layouts/grid/lv_grid.c:0:16
	movs	r7, #0
.Ltmp150:
.LBB1_49:                               @   in Loop: Header=BB1_38 Depth=1
	@DEBUG_VALUE: calc_cols:i <- $r11
	@DEBUG_VALUE: calc_cols:col_templ <- $r6
	@DEBUG_VALUE: calc_cols:cont <- $r4
	@DEBUG_VALUE: calc:cont <- $r4
	@DEBUG_VALUE: grid_update:cont <- $r4
	@DEBUG_VALUE: calc_cols:c <- [DW_OP_plus_uconst 64, DW_OP_stack_value] $sp
	@DEBUG_VALUE: calc:calc_out <- [DW_OP_plus_uconst 64, DW_OP_stack_value] $sp
	@DEBUG_VALUE: grid_update:user_data <- [DW_OP_LLVM_entry_value 1] $r1
	ldr	r0, [sp, #48]                   @ 4-byte Reload
.Ltmp151:
	strh.w	r7, [r0, r11, lsl #1]
.Ltmp152:
.LBB1_50:                               @   in Loop: Header=BB1_38 Depth=1
	@DEBUG_VALUE: calc_cols:i <- $r11
	@DEBUG_VALUE: calc_cols:col_templ <- $r6
	@DEBUG_VALUE: calc_cols:cont <- $r4
	@DEBUG_VALUE: calc:cont <- $r4
	@DEBUG_VALUE: grid_update:cont <- $r4
	@DEBUG_VALUE: calc_cols:c <- [DW_OP_plus_uconst 64, DW_OP_stack_value] $sp
	@DEBUG_VALUE: calc:calc_out <- [DW_OP_plus_uconst 64, DW_OP_stack_value] $sp
	@DEBUG_VALUE: grid_update:user_data <- [DW_OP_LLVM_entry_value 1] $r1
	.loc	2 444 33 is_stmt 1              @ ../GUILib/src/extra/layouts/grid/lv_grid.c:444:33
	add.w	r11, r11, #1
.Ltmp153:
	@DEBUG_VALUE: calc_cols:i <- $r11
	.loc	2 444 5 is_stmt 0               @ ../GUILib/src/extra/layouts/grid/lv_grid.c:444:5
	cmp	r10, r11
	bne	.LBB1_38
.Ltmp154:
@ %bb.51:
	@DEBUG_VALUE: calc_cols:i <- $r11
	@DEBUG_VALUE: calc_cols:col_templ <- $r6
	@DEBUG_VALUE: calc_cols:cont <- $r4
	@DEBUG_VALUE: calc:cont <- $r4
	@DEBUG_VALUE: grid_update:cont <- $r4
	@DEBUG_VALUE: calc_cols:c <- [DW_OP_plus_uconst 64, DW_OP_stack_value] $sp
	@DEBUG_VALUE: calc:calc_out <- [DW_OP_plus_uconst 64, DW_OP_stack_value] $sp
	@DEBUG_VALUE: grid_update:user_data <- [DW_OP_LLVM_entry_value 1] $r1
	.loc	2 0 5                           @ ../GUILib/src/extra/layouts/grid/lv_grid.c:0:5
	ldr.w	r11, [sp, #36]                  @ 4-byte Reload
.Ltmp155:
	movs	r1, #0
	movw	lr, #8091
	movw	r12, #8090
	movs	r7, #0
	movs	r5, #0
	mov.w	r9, #0
.Ltmp156:
	.p2align	2
.LBB1_52:                               @ =>This Inner Loop Header: Depth=1
	@DEBUG_VALUE: calc_cols:col_templ <- $r6
	@DEBUG_VALUE: calc_cols:cont <- $r4
	@DEBUG_VALUE: calc:cont <- $r4
	@DEBUG_VALUE: grid_update:cont <- $r4
	@DEBUG_VALUE: calc_cols:c <- [DW_OP_plus_uconst 64, DW_OP_stack_value] $sp
	@DEBUG_VALUE: calc:calc_out <- [DW_OP_plus_uconst 64, DW_OP_stack_value] $sp
	@DEBUG_VALUE: grid_update:user_data <- [DW_OP_LLVM_entry_value 1] $r1
	@DEBUG_VALUE: calc_cols:i <- $r1
	@DEBUG_VALUE: calc_cols:grid_w <- $r7
	@DEBUG_VALUE: calc_cols:col_fr_cnt <- $r5
	.loc	2 469 24 is_stmt 1              @ ../GUILib/src/extra/layouts/grid/lv_grid.c:469:24
	ldrh.w	r2, [r6, r1, lsl #1]
	sxth	r3, r2
.Ltmp157:
	@DEBUG_VALUE: x <- $r2
	.loc	2 470 12                        @ ../GUILib/src/extra/layouts/grid/lv_grid.c:470:12
	cmp	r3, lr
	blt	.LBB1_54
.Ltmp158:
@ %bb.53:                               @   in Loop: Header=BB1_52 Depth=1
	@DEBUG_VALUE: calc_cols:grid_w <- $r7
	@DEBUG_VALUE: calc_cols:col_templ <- $r6
	@DEBUG_VALUE: calc_cols:col_fr_cnt <- $r5
	@DEBUG_VALUE: calc_cols:cont <- $r4
	@DEBUG_VALUE: calc:cont <- $r4
	@DEBUG_VALUE: grid_update:cont <- $r4
	@DEBUG_VALUE: x <- $r2
	@DEBUG_VALUE: calc_cols:i <- $r1
	@DEBUG_VALUE: calc_cols:c <- [DW_OP_plus_uconst 64, DW_OP_stack_value] $sp
	@DEBUG_VALUE: calc:calc_out <- [DW_OP_plus_uconst 64, DW_OP_stack_value] $sp
	@DEBUG_VALUE: grid_update:user_data <- [DW_OP_LLVM_entry_value 1] $r1
	.loc	2 471 27                        @ ../GUILib/src/extra/layouts/grid/lv_grid.c:471:27
	add	r2, r5
.Ltmp159:
	.loc	2 471 24 is_stmt 0              @ ../GUILib/src/extra/layouts/grid/lv_grid.c:471:24
	sub.w	r5, r2, lr
.Ltmp160:
	@DEBUG_VALUE: calc_cols:col_fr_cnt <- $r5
	.loc	2 0 24                          @ ../GUILib/src/extra/layouts/grid/lv_grid.c:0:24
	b	.LBB1_57
.Ltmp161:
	.p2align	2
.LBB1_54:                               @   in Loop: Header=BB1_52 Depth=1
	@DEBUG_VALUE: calc_cols:grid_w <- $r7
	@DEBUG_VALUE: calc_cols:col_templ <- $r6
	@DEBUG_VALUE: calc_cols:col_fr_cnt <- $r5
	@DEBUG_VALUE: calc_cols:cont <- $r4
	@DEBUG_VALUE: calc:cont <- $r4
	@DEBUG_VALUE: grid_update:cont <- $r4
	@DEBUG_VALUE: x <- $r2
	@DEBUG_VALUE: calc_cols:i <- $r1
	@DEBUG_VALUE: calc_cols:c <- [DW_OP_plus_uconst 64, DW_OP_stack_value] $sp
	@DEBUG_VALUE: calc:calc_out <- [DW_OP_plus_uconst 64, DW_OP_stack_value] $sp
	@DEBUG_VALUE: grid_update:user_data <- [DW_OP_LLVM_entry_value 1] $r1
	.loc	2 473 17 is_stmt 1              @ ../GUILib/src/extra/layouts/grid/lv_grid.c:473:17
	cmp	r3, r12
	bne	.LBB1_56
.Ltmp162:
@ %bb.55:                               @   in Loop: Header=BB1_52 Depth=1
	@DEBUG_VALUE: calc_cols:grid_w <- $r7
	@DEBUG_VALUE: calc_cols:col_templ <- $r6
	@DEBUG_VALUE: calc_cols:col_fr_cnt <- $r5
	@DEBUG_VALUE: calc_cols:cont <- $r4
	@DEBUG_VALUE: calc:cont <- $r4
	@DEBUG_VALUE: grid_update:cont <- $r4
	@DEBUG_VALUE: x <- $r2
	@DEBUG_VALUE: calc_cols:i <- $r1
	@DEBUG_VALUE: calc_cols:c <- [DW_OP_plus_uconst 64, DW_OP_stack_value] $sp
	@DEBUG_VALUE: calc:calc_out <- [DW_OP_plus_uconst 64, DW_OP_stack_value] $sp
	@DEBUG_VALUE: grid_update:user_data <- [DW_OP_LLVM_entry_value 1] $r1
	.loc	2 474 23                        @ ../GUILib/src/extra/layouts/grid/lv_grid.c:474:23
	ldrh.w	r2, [r0, r1, lsl #1]
.Ltmp163:
	.loc	2 474 20 is_stmt 0              @ ../GUILib/src/extra/layouts/grid/lv_grid.c:474:20
	add	r7, r2
.Ltmp164:
	@DEBUG_VALUE: calc_cols:grid_w <- $r7
	.loc	2 0 20                          @ ../GUILib/src/extra/layouts/grid/lv_grid.c:0:20
	b	.LBB1_57
.Ltmp165:
	.p2align	2
.LBB1_56:                               @   in Loop: Header=BB1_52 Depth=1
	@DEBUG_VALUE: calc_cols:grid_w <- $r7
	@DEBUG_VALUE: calc_cols:col_templ <- $r6
	@DEBUG_VALUE: calc_cols:col_fr_cnt <- $r5
	@DEBUG_VALUE: calc_cols:cont <- $r4
	@DEBUG_VALUE: calc:cont <- $r4
	@DEBUG_VALUE: grid_update:cont <- $r4
	@DEBUG_VALUE: x <- $r2
	@DEBUG_VALUE: calc_cols:i <- $r1
	@DEBUG_VALUE: calc_cols:c <- [DW_OP_plus_uconst 64, DW_OP_stack_value] $sp
	@DEBUG_VALUE: calc:calc_out <- [DW_OP_plus_uconst 64, DW_OP_stack_value] $sp
	@DEBUG_VALUE: grid_update:user_data <- [DW_OP_LLVM_entry_value 1] $r1
	.loc	2 478 20 is_stmt 1              @ ../GUILib/src/extra/layouts/grid/lv_grid.c:478:20
	add	r7, r3
.Ltmp166:
	@DEBUG_VALUE: calc_cols:grid_w <- $r7
	.loc	2 477 21                        @ ../GUILib/src/extra/layouts/grid/lv_grid.c:477:21
	strh.w	r3, [r0, r1, lsl #1]
.Ltmp167:
.LBB1_57:                               @   in Loop: Header=BB1_52 Depth=1
	@DEBUG_VALUE: calc_cols:grid_w <- $r7
	@DEBUG_VALUE: calc_cols:col_templ <- $r6
	@DEBUG_VALUE: calc_cols:col_fr_cnt <- $r5
	@DEBUG_VALUE: calc_cols:cont <- $r4
	@DEBUG_VALUE: calc:cont <- $r4
	@DEBUG_VALUE: grid_update:cont <- $r4
	@DEBUG_VALUE: calc_cols:i <- $r1
	@DEBUG_VALUE: calc_cols:c <- [DW_OP_plus_uconst 64, DW_OP_stack_value] $sp
	@DEBUG_VALUE: calc:calc_out <- [DW_OP_plus_uconst 64, DW_OP_stack_value] $sp
	@DEBUG_VALUE: grid_update:user_data <- [DW_OP_LLVM_entry_value 1] $r1
	@DEBUG_VALUE: calc_cols:grid_w <- $r7
	@DEBUG_VALUE: calc_cols:col_fr_cnt <- $r5
	.loc	2 468 33                        @ ../GUILib/src/extra/layouts/grid/lv_grid.c:468:33
	adds	r1, #1
.Ltmp168:
	@DEBUG_VALUE: calc_cols:i <- $r1
	.loc	2 468 5 is_stmt 0               @ ../GUILib/src/extra/layouts/grid/lv_grid.c:468:5
	cmp	r10, r1
	bne	.LBB1_52
	b	.LBB1_59
.Ltmp169:
.LBB1_58:
	@DEBUG_VALUE: calc_cols:col_templ <- $r6
	@DEBUG_VALUE: calc_cols:cont <- $r4
	@DEBUG_VALUE: calc:cont <- $r4
	@DEBUG_VALUE: grid_update:cont <- $r4
	@DEBUG_VALUE: calc_cols:c <- [DW_OP_plus_uconst 64, DW_OP_stack_value] $sp
	@DEBUG_VALUE: calc:calc_out <- [DW_OP_plus_uconst 64, DW_OP_stack_value] $sp
	@DEBUG_VALUE: calc_cols:i <- 0
	@DEBUG_VALUE: grid_update:user_data <- [DW_OP_LLVM_entry_value 1] $r1
	.loc	2 0 0                           @ ../GUILib/src/extra/layouts/grid/lv_grid.c:0:0
	movs	r5, #0
	.loc	2 466 16 is_stmt 1              @ ../GUILib/src/extra/layouts/grid/lv_grid.c:466:16
	movs	r7, #0
.Ltmp170:
.LBB1_59:
	@DEBUG_VALUE: calc_cols:col_templ <- $r6
	@DEBUG_VALUE: calc_cols:cont <- $r4
	@DEBUG_VALUE: calc:cont <- $r4
	@DEBUG_VALUE: grid_update:cont <- $r4
	@DEBUG_VALUE: calc_cols:c <- [DW_OP_plus_uconst 64, DW_OP_stack_value] $sp
	@DEBUG_VALUE: calc:calc_out <- [DW_OP_plus_uconst 64, DW_OP_stack_value] $sp
	@DEBUG_VALUE: grid_update:user_data <- [DW_OP_LLVM_entry_value 1] $r1
	@DEBUG_VALUE: lv_obj_get_style_pad_column:obj <- $r4
	@DEBUG_VALUE: lv_obj_get_style_pad_column:part <- 0
	.loc	9 123 26                        @ ../GUILib/src/extra/layouts/grid/../flex/../../../core/lv_obj_style_gen.h:123:26
	mov	r0, r4
	movs	r1, #0
	movw	r2, #6165
	bl	lv_obj_get_style_prop
.Ltmp171:
	.loc	2 483 29                        @ ../GUILib/src/extra/layouts/grid/lv_grid.c:483:29
	ldr	r1, [sp, #80]
.Ltmp172:
	@DEBUG_VALUE: calc_cols:col_gap <- $r0
	@DEBUG_VALUE: lv_obj_get_style_pad_column:v <- $r0
	@DEBUG_VALUE: lv_obj_get_style_pad_column:part <- 0
	@DEBUG_VALUE: lv_obj_get_style_pad_column:obj <- $r4
	.loc	2 483 12 is_stmt 0              @ ../GUILib/src/extra/layouts/grid/lv_grid.c:483:12
	subs	r2, r1, #1
	mls	r0, r2, r0, r11
.Ltmp173:
	@DEBUG_VALUE: calc_cols:cont_w <- $r0
	.loc	2 484 32 is_stmt 1              @ ../GUILib/src/extra/layouts/grid/lv_grid.c:484:32
	subs	r0, r0, r7
.Ltmp174:
	@DEBUG_VALUE: calc_cols:free_w <- $r0
	sxth	r2, r0
	.loc	2 485 8                         @ ../GUILib/src/extra/layouts/grid/lv_grid.c:485:8
	cmp	r2, #0
	it	gt
	movgt	r9, r0
.Ltmp175:
	@DEBUG_VALUE: calc_cols:free_w <- $r9
	@DEBUG_VALUE: calc_cols:last_fr_x <- 0
	@DEBUG_VALUE: calc_cols:last_fr_i <- -1
	@DEBUG_VALUE: calc_cols:free_w <- $r9
	@DEBUG_VALUE: calc_cols:i <- 0
	.loc	2 489 5                         @ ../GUILib/src/extra/layouts/grid/lv_grid.c:489:5
	cbz	r1, .LBB1_66
.Ltmp176:
@ %bb.60:
	@DEBUG_VALUE: calc_cols:free_w <- $r9
	@DEBUG_VALUE: calc_cols:col_templ <- $r6
	@DEBUG_VALUE: lv_obj_get_style_pad_column:obj <- $r4
	@DEBUG_VALUE: calc_cols:cont <- $r4
	@DEBUG_VALUE: calc:cont <- $r4
	@DEBUG_VALUE: grid_update:cont <- $r4
	@DEBUG_VALUE: calc_cols:c <- [DW_OP_plus_uconst 64, DW_OP_stack_value] $sp
	@DEBUG_VALUE: calc:calc_out <- [DW_OP_plus_uconst 64, DW_OP_stack_value] $sp
	@DEBUG_VALUE: calc_cols:last_fr_i <- -1
	@DEBUG_VALUE: calc_cols:last_fr_x <- 0
	@DEBUG_VALUE: lv_obj_get_style_pad_column:part <- 0
	@DEBUG_VALUE: calc_cols:i <- 0
	@DEBUG_VALUE: grid_update:user_data <- [DW_OP_LLVM_entry_value 1] $r1
	.loc	2 0 5 is_stmt 0                 @ ../GUILib/src/extra/layouts/grid/lv_grid.c:0:5
	ldr.w	r8, [sp, #72]
	uxth.w	r12, r9
	mov.w	lr, #-1
	movs	r3, #0
	movw	r2, #8091
	movs	r0, #0
.Ltmp177:
	.p2align	2
.LBB1_61:                               @ =>This Inner Loop Header: Depth=1
	@DEBUG_VALUE: calc_cols:free_w <- $r9
	@DEBUG_VALUE: calc_cols:col_templ <- $r6
	@DEBUG_VALUE: calc_cols:cont <- $r4
	@DEBUG_VALUE: calc:cont <- $r4
	@DEBUG_VALUE: grid_update:cont <- $r4
	@DEBUG_VALUE: calc_cols:c <- [DW_OP_plus_uconst 64, DW_OP_stack_value] $sp
	@DEBUG_VALUE: calc:calc_out <- [DW_OP_plus_uconst 64, DW_OP_stack_value] $sp
	@DEBUG_VALUE: grid_update:user_data <- [DW_OP_LLVM_entry_value 1] $r1
	@DEBUG_VALUE: calc_cols:i <- $r3
	@DEBUG_VALUE: calc_cols:last_fr_i <- $lr
	@DEBUG_VALUE: calc_cols:last_fr_x <- $r0
	.loc	2 490 24 is_stmt 1              @ ../GUILib/src/extra/layouts/grid/lv_grid.c:490:24
	ldrsh.w	r7, [r6, r3, lsl #1]
.Ltmp178:
	@DEBUG_VALUE: x <- undef
	.loc	2 491 12                        @ ../GUILib/src/extra/layouts/grid/lv_grid.c:491:12
	cmp	r7, r2
	blt	.LBB1_63
.Ltmp179:
@ %bb.62:                               @   in Loop: Header=BB1_61 Depth=1
	@DEBUG_VALUE: calc_cols:free_w <- $r9
	@DEBUG_VALUE: calc_cols:col_templ <- $r6
	@DEBUG_VALUE: calc_cols:cont <- $r4
	@DEBUG_VALUE: calc:cont <- $r4
	@DEBUG_VALUE: grid_update:cont <- $r4
	@DEBUG_VALUE: calc_cols:i <- $r3
	@DEBUG_VALUE: calc_cols:last_fr_x <- $r0
	@DEBUG_VALUE: calc_cols:c <- [DW_OP_plus_uconst 64, DW_OP_stack_value] $sp
	@DEBUG_VALUE: calc:calc_out <- [DW_OP_plus_uconst 64, DW_OP_stack_value] $sp
	@DEBUG_VALUE: calc_cols:last_fr_i <- $lr
	@DEBUG_VALUE: grid_update:user_data <- [DW_OP_LLVM_entry_value 1] $r1
	.loc	2 492 28                        @ ../GUILib/src/extra/layouts/grid/lv_grid.c:492:28
	subs	r0, r7, r2
.Ltmp180:
	@DEBUG_VALUE: f <- $r0
	.loc	2 493 33                        @ ../GUILib/src/extra/layouts/grid/lv_grid.c:493:33
	sxth	r0, r0
.Ltmp181:
	.loc	2 493 31 is_stmt 0              @ ../GUILib/src/extra/layouts/grid/lv_grid.c:493:31
	mul	r7, r0, r12
	.loc	2 493 36                        @ ../GUILib/src/extra/layouts/grid/lv_grid.c:493:36
	udiv	r7, r7, r5
.Ltmp182:
	.loc	2 0 0                           @ ../GUILib/src/extra/layouts/grid/lv_grid.c:0:0
	mov	lr, r3
.Ltmp183:
	.loc	2 493 21                        @ ../GUILib/src/extra/layouts/grid/lv_grid.c:493:21
	strh.w	r7, [r8, r3, lsl #1]
.Ltmp184:
	@DEBUG_VALUE: calc_cols:last_fr_x <- undef
	@DEBUG_VALUE: calc_cols:last_fr_i <- $r3
.LBB1_63:                               @   in Loop: Header=BB1_61 Depth=1
	@DEBUG_VALUE: calc_cols:free_w <- $r9
	@DEBUG_VALUE: calc_cols:col_templ <- $r6
	@DEBUG_VALUE: calc_cols:cont <- $r4
	@DEBUG_VALUE: calc:cont <- $r4
	@DEBUG_VALUE: grid_update:cont <- $r4
	@DEBUG_VALUE: calc_cols:i <- $r3
	@DEBUG_VALUE: calc_cols:c <- [DW_OP_plus_uconst 64, DW_OP_stack_value] $sp
	@DEBUG_VALUE: calc:calc_out <- [DW_OP_plus_uconst 64, DW_OP_stack_value] $sp
	@DEBUG_VALUE: grid_update:user_data <- [DW_OP_LLVM_entry_value 1] $r1
	@DEBUG_VALUE: calc_cols:last_fr_i <- $lr
	@DEBUG_VALUE: calc_cols:last_fr_x <- $r0
	.loc	2 489 33 is_stmt 1              @ ../GUILib/src/extra/layouts/grid/lv_grid.c:489:33
	adds	r3, #1
.Ltmp185:
	@DEBUG_VALUE: calc_cols:i <- $r3
	.loc	2 489 5 is_stmt 0               @ ../GUILib/src/extra/layouts/grid/lv_grid.c:489:5
	cmp	r1, r3
	bne	.LBB1_61
.Ltmp186:
@ %bb.64:
	@DEBUG_VALUE: calc_cols:free_w <- $r9
	@DEBUG_VALUE: calc_cols:col_templ <- $r6
	@DEBUG_VALUE: calc_cols:cont <- $r4
	@DEBUG_VALUE: calc:cont <- $r4
	@DEBUG_VALUE: grid_update:cont <- $r4
	@DEBUG_VALUE: calc_cols:i <- $r3
	@DEBUG_VALUE: calc_cols:last_fr_x <- $r0
	@DEBUG_VALUE: calc_cols:c <- [DW_OP_plus_uconst 64, DW_OP_stack_value] $sp
	@DEBUG_VALUE: calc:calc_out <- [DW_OP_plus_uconst 64, DW_OP_stack_value] $sp
	@DEBUG_VALUE: calc_cols:last_fr_i <- $lr
	@DEBUG_VALUE: grid_update:user_data <- [DW_OP_LLVM_entry_value 1] $r1
	.loc	2 500 8 is_stmt 1               @ ../GUILib/src/extra/layouts/grid/lv_grid.c:500:8
	cmp.w	lr, #0
	bmi	.LBB1_66
.Ltmp187:
@ %bb.65:
	@DEBUG_VALUE: calc_cols:free_w <- $r9
	@DEBUG_VALUE: calc_cols:col_templ <- $r6
	@DEBUG_VALUE: calc_cols:cont <- $r4
	@DEBUG_VALUE: calc:cont <- $r4
	@DEBUG_VALUE: grid_update:cont <- $r4
	@DEBUG_VALUE: calc_cols:i <- $r3
	@DEBUG_VALUE: calc_cols:last_fr_x <- $r0
	@DEBUG_VALUE: calc_cols:c <- [DW_OP_plus_uconst 64, DW_OP_stack_value] $sp
	@DEBUG_VALUE: calc:calc_out <- [DW_OP_plus_uconst 64, DW_OP_stack_value] $sp
	@DEBUG_VALUE: calc_cols:last_fr_i <- $lr
	@DEBUG_VALUE: grid_update:user_data <- [DW_OP_LLVM_entry_value 1] $r1
	.loc	2 501 59                        @ ../GUILib/src/extra/layouts/grid/lv_grid.c:501:59
	subs	r0, r5, r0
.Ltmp188:
	.loc	2 501 45 is_stmt 0              @ ../GUILib/src/extra/layouts/grid/lv_grid.c:501:45
	mul	r0, r0, r12
	.loc	2 501 73                        @ ../GUILib/src/extra/layouts/grid/lv_grid.c:501:73
	udiv	r0, r0, r5
	.loc	2 501 12                        @ ../GUILib/src/extra/layouts/grid/lv_grid.c:501:12
	ldr	r1, [sp, #72]
	.loc	2 501 27                        @ ../GUILib/src/extra/layouts/grid/lv_grid.c:501:27
	sub.w	r0, r9, r0
	.loc	2 501 25                        @ ../GUILib/src/extra/layouts/grid/lv_grid.c:501:25
	strh.w	r0, [r1, lr, lsl #1]
.Ltmp189:
.LBB1_66:
	@DEBUG_VALUE: calc:cont <- $r4
	@DEBUG_VALUE: grid_update:cont <- $r4
	@DEBUG_VALUE: calc:calc_out <- [DW_OP_plus_uconst 64, DW_OP_stack_value] $sp
	@DEBUG_VALUE: grid_update:user_data <- [DW_OP_LLVM_entry_value 1] $r1
	@DEBUG_VALUE: lv_obj_get_style_pad_column:obj <- $r4
	@DEBUG_VALUE: lv_obj_get_style_pad_column:part <- 0
	.loc	9 123 26 is_stmt 1              @ ../GUILib/src/extra/layouts/grid/../flex/../../../core/lv_obj_style_gen.h:123:26
	mov	r0, r4
	movs	r1, #0
	movw	r2, #6165
	movs	r5, #0
	bl	lv_obj_get_style_prop
.Ltmp190:
	mov	r8, r0
.Ltmp191:
	@DEBUG_VALUE: lv_obj_get_style_pad_row:part <- 0
	@DEBUG_VALUE: lv_obj_get_style_pad_row:obj <- $r4
	@DEBUG_VALUE: calc:col_gap <- [DW_OP_LLVM_convert 32 7, DW_OP_LLVM_convert 16 7, DW_OP_stack_value] $r8
	@DEBUG_VALUE: lv_obj_get_style_pad_column:v <- $r8
	.loc	9 117 26                        @ ../GUILib/src/extra/layouts/grid/../flex/../../../core/lv_obj_style_gen.h:117:26
	mov	r0, r4
	movs	r1, #0
	movw	r2, #6164
	bl	lv_obj_get_style_prop
.Ltmp192:
	mov	r9, r0
.Ltmp193:
	@DEBUG_VALUE: lv_obj_get_style_base_dir:part <- 0
	@DEBUG_VALUE: lv_obj_get_style_base_dir:obj <- $r4
	@DEBUG_VALUE: calc:row_gap <- [DW_OP_LLVM_convert 32 7, DW_OP_LLVM_convert 16 7, DW_OP_stack_value] $r9
	@DEBUG_VALUE: lv_obj_get_style_pad_row:v <- $r9
	.loc	9 189 26                        @ ../GUILib/src/extra/layouts/grid/../flex/../../../core/lv_obj_style_gen.h:189:26
	mov	r0, r4
	movs	r1, #0
	movw	r2, #5226
	bl	lv_obj_get_style_prop
.Ltmp194:
	mov	r6, r0
.Ltmp195:
	@DEBUG_VALUE: lv_obj_get_style_width:part <- 0
	@DEBUG_VALUE: lv_obj_get_style_width:obj <- $r4
	@DEBUG_VALUE: calc:rev <- [DW_OP_LLVM_convert 1 7, DW_OP_LLVM_convert 8 7, DW_OP_stack_value] undef
	@DEBUG_VALUE: lv_obj_get_style_base_dir:v <- $r6
	.loc	9 3 26                          @ ../GUILib/src/extra/layouts/grid/../flex/../../../core/lv_obj_style_gen.h:3:26
	mov	r0, r4
	movs	r1, #0
	movw	r2, #4097
	bl	lv_obj_get_style_prop
.Ltmp196:
	@DEBUG_VALUE: calc:w_set <- $r0
	@DEBUG_VALUE: lv_obj_get_style_width:v <- $r0
	.loc	9 4 12                          @ ../GUILib/src/extra/layouts/grid/../flex/../../../core/lv_obj_style_gen.h:4:12
	uxth	r7, r0
.Ltmp197:
	@DEBUG_VALUE: lv_obj_get_style_height:part <- 0
	@DEBUG_VALUE: lv_obj_get_style_height:obj <- $r4
	.loc	9 21 26                         @ ../GUILib/src/extra/layouts/grid/../flex/../../../core/lv_obj_style_gen.h:21:26
	mov	r0, r4
.Ltmp198:
	movs	r1, #0
	movw	r2, #4100
	bl	lv_obj_get_style_prop
.Ltmp199:
	.loc	9 0 26 is_stmt 0                @ ../GUILib/src/extra/layouts/grid/../flex/../../../core/lv_obj_style_gen.h:0:26
	movw	r11, #10193
.Ltmp200:
	.loc	2 408 45 is_stmt 1              @ ../GUILib/src/extra/layouts/grid/lv_grid.c:408:45
	cmp	r7, r11
.Ltmp201:
	@DEBUG_VALUE: calc:h_set <- [DW_OP_LLVM_convert 32 7, DW_OP_LLVM_convert 16 7, DW_OP_stack_value] $r0
	@DEBUG_VALUE: lv_obj_get_style_height:v <- $r0
	@DEBUG_VALUE: lv_obj_get_style_height:part <- 0
	@DEBUG_VALUE: lv_obj_get_style_height:obj <- $r4
	bne	.LBB1_68
.Ltmp202:
@ %bb.67:
	@DEBUG_VALUE: calc:row_gap <- [DW_OP_LLVM_convert 32 7, DW_OP_LLVM_convert 16 7, DW_OP_stack_value] $r9
	@DEBUG_VALUE: calc:col_gap <- [DW_OP_LLVM_convert 32 7, DW_OP_LLVM_convert 16 7, DW_OP_stack_value] $r8
	@DEBUG_VALUE: calc:cont <- $r4
	@DEBUG_VALUE: grid_update:cont <- $r4
	@DEBUG_VALUE: calc:h_set <- [DW_OP_LLVM_convert 32 7, DW_OP_LLVM_convert 16 7, DW_OP_stack_value] $r0
	@DEBUG_VALUE: calc:calc_out <- [DW_OP_plus_uconst 64, DW_OP_stack_value] $sp
	@DEBUG_VALUE: grid_update:user_data <- [DW_OP_LLVM_entry_value 1] $r1
	.loc	2 408 55 is_stmt 0              @ ../GUILib/src/extra/layouts/grid/lv_grid.c:408:55
	ldrh	r1, [r4, #34]
	movs	r2, #1
	.loc	2 408 48                        @ ../GUILib/src/extra/layouts/grid/lv_grid.c:408:48
	and	r1, r1, #1024
	eor.w	r5, r2, r1, lsr #10
.Ltmp203:
.LBB1_68:
	@DEBUG_VALUE: calc:row_gap <- [DW_OP_LLVM_convert 32 7, DW_OP_LLVM_convert 16 7, DW_OP_stack_value] $r9
	@DEBUG_VALUE: calc:col_gap <- [DW_OP_LLVM_convert 32 7, DW_OP_LLVM_convert 16 7, DW_OP_stack_value] $r8
	@DEBUG_VALUE: calc:cont <- $r4
	@DEBUG_VALUE: grid_update:cont <- $r4
	@DEBUG_VALUE: calc:h_set <- [DW_OP_LLVM_convert 32 7, DW_OP_LLVM_convert 16 7, DW_OP_stack_value] $r0
	@DEBUG_VALUE: calc:calc_out <- [DW_OP_plus_uconst 64, DW_OP_stack_value] $sp
	@DEBUG_VALUE: grid_update:user_data <- [DW_OP_LLVM_entry_value 1] $r1
	.loc	9 22 12 is_stmt 1               @ ../GUILib/src/extra/layouts/grid/../flex/../../../core/lv_obj_style_gen.h:22:12
	uxth	r7, r0
	mov.w	r0, #-1
.Ltmp204:
	.loc	2 404 62                        @ ../GUILib/src/extra/layouts/grid/lv_grid.c:404:62
	uxtab	r0, r0, r6
	clz	r0, r0
	lsr.w	r10, r0, #5
.Ltmp205:
	@DEBUG_VALUE: calc:auto_w <- [DW_OP_LLVM_convert 1 7, DW_OP_LLVM_convert 8 7, DW_OP_stack_value] $r5
	.loc	2 409 25                        @ ../GUILib/src/extra/layouts/grid/lv_grid.c:409:25
	mov	r0, r4
	bl	lv_obj_get_content_width
.Ltmp206:
	.loc	5 141 59                        @ ../GUILib/src/extra/layouts/grid/../grid/lv_grid.h:141:59
	movw	r1, :lower16:LV_STYLE_GRID_COLUMN_ALIGN
	movt	r1, :upper16:LV_STYLE_GRID_COLUMN_ALIGN
	ldrh	r2, [r1]
.Ltmp207:
	.loc	2 409 25                        @ ../GUILib/src/extra/layouts/grid/lv_grid.c:409:25
	mov	r6, r0
.Ltmp208:
	@DEBUG_VALUE: lv_obj_get_style_grid_column_align:part <- 0
	@DEBUG_VALUE: lv_obj_get_style_grid_column_align:obj <- $r4
	@DEBUG_VALUE: get_grid_col_align:obj <- $r4
	@DEBUG_VALUE: calc:cont_w <- undef
	.loc	5 141 26                        @ ../GUILib/src/extra/layouts/grid/../grid/lv_grid.h:141:26
	mov	r0, r4
	movs	r1, #0
	bl	lv_obj_get_style_prop
.Ltmp209:
	.loc	2 410 115                       @ ../GUILib/src/extra/layouts/grid/lv_grid.c:410:115
	ldr	r1, [sp, #72]
	.loc	2 410 96 is_stmt 0              @ ../GUILib/src/extra/layouts/grid/lv_grid.c:410:96
	ldr	r2, [sp, #80]
	@DEBUG_VALUE: lv_obj_get_style_grid_column_align:v <- $r0
	@DEBUG_VALUE: lv_obj_get_style_grid_column_align:part <- 0
	@DEBUG_VALUE: lv_obj_get_style_grid_column_align:obj <- $r4
	@DEBUG_VALUE: get_grid_col_align:obj <- $r4
	.loc	2 410 24                        @ ../GUILib/src/extra/layouts/grid/lv_grid.c:410:24
	sxth.w	r3, r8
	strd	r2, r1, [sp]
	uxtb	r2, r0
	mov	r0, r6
	ldr	r6, [sp, #40]                   @ 4-byte Reload
	mov	r1, r5
	str.w	r10, [sp, #12]
	str	r6, [sp, #8]
	bl	grid_align
.Ltmp210:
	.loc	2 413 45 is_stmt 1              @ ../GUILib/src/extra/layouts/grid/lv_grid.c:413:45
	cmp	r7, r11
	.loc	2 0 0 is_stmt 0                 @ ../GUILib/src/extra/layouts/grid/lv_grid.c:0:0
	mov.w	r5, #0
.Ltmp211:
	.loc	2 410 22 is_stmt 1              @ ../GUILib/src/extra/layouts/grid/lv_grid.c:410:22
	strh.w	r0, [sp, #88]
	.loc	2 413 45                        @ ../GUILib/src/extra/layouts/grid/lv_grid.c:413:45
	bne	.LBB1_70
.Ltmp212:
@ %bb.69:
	@DEBUG_VALUE: calc:row_gap <- [DW_OP_LLVM_convert 32 7, DW_OP_LLVM_convert 16 7, DW_OP_stack_value] $r9
	@DEBUG_VALUE: calc:col_gap <- [DW_OP_LLVM_convert 32 7, DW_OP_LLVM_convert 16 7, DW_OP_stack_value] $r8
	@DEBUG_VALUE: calc:cont <- $r4
	@DEBUG_VALUE: grid_update:cont <- $r4
	@DEBUG_VALUE: calc:calc_out <- [DW_OP_plus_uconst 64, DW_OP_stack_value] $sp
	@DEBUG_VALUE: grid_update:user_data <- [DW_OP_LLVM_entry_value 1] $r1
	.loc	2 413 55 is_stmt 0              @ ../GUILib/src/extra/layouts/grid/lv_grid.c:413:55
	ldrh	r0, [r4, #34]
	movs	r1, #1
	.loc	2 413 48                        @ ../GUILib/src/extra/layouts/grid/lv_grid.c:413:48
	and	r0, r0, #512
	eor.w	r5, r1, r0, lsr #9
.Ltmp213:
.LBB1_70:
	@DEBUG_VALUE: calc:row_gap <- [DW_OP_LLVM_convert 32 7, DW_OP_LLVM_convert 16 7, DW_OP_stack_value] $r9
	@DEBUG_VALUE: calc:col_gap <- [DW_OP_LLVM_convert 32 7, DW_OP_LLVM_convert 16 7, DW_OP_stack_value] $r8
	@DEBUG_VALUE: calc:cont <- $r4
	@DEBUG_VALUE: grid_update:cont <- $r4
	@DEBUG_VALUE: calc:calc_out <- [DW_OP_plus_uconst 64, DW_OP_stack_value] $sp
	@DEBUG_VALUE: grid_update:user_data <- [DW_OP_LLVM_entry_value 1] $r1
	@DEBUG_VALUE: calc:auto_h <- [DW_OP_LLVM_convert 1 7, DW_OP_LLVM_convert 8 7, DW_OP_stack_value] $r5
	.loc	2 414 25 is_stmt 1              @ ../GUILib/src/extra/layouts/grid/lv_grid.c:414:25
	mov	r0, r4
	bl	lv_obj_get_content_height
.Ltmp214:
	.loc	5 135 59                        @ ../GUILib/src/extra/layouts/grid/../grid/lv_grid.h:135:59
	movw	r1, :lower16:LV_STYLE_GRID_ROW_ALIGN
	movt	r1, :upper16:LV_STYLE_GRID_ROW_ALIGN
	ldrh	r2, [r1]
.Ltmp215:
	.loc	2 414 25                        @ ../GUILib/src/extra/layouts/grid/lv_grid.c:414:25
	mov	r6, r0
.Ltmp216:
	@DEBUG_VALUE: lv_obj_get_style_grid_row_align:part <- 0
	@DEBUG_VALUE: lv_obj_get_style_grid_row_align:obj <- $r4
	@DEBUG_VALUE: get_grid_row_align:obj <- $r4
	@DEBUG_VALUE: calc:cont_h <- undef
	.loc	5 135 26                        @ ../GUILib/src/extra/layouts/grid/../grid/lv_grid.h:135:26
	mov	r0, r4
	movs	r1, #0
	bl	lv_obj_get_style_prop
.Ltmp217:
	.loc	2 415 115                       @ ../GUILib/src/extra/layouts/grid/lv_grid.c:415:115
	ldr	r1, [sp, #76]
	.loc	2 415 96 is_stmt 0              @ ../GUILib/src/extra/layouts/grid/lv_grid.c:415:96
	ldr	r2, [sp, #84]
	@DEBUG_VALUE: lv_obj_get_style_grid_row_align:v <- $r0
	@DEBUG_VALUE: lv_obj_get_style_grid_row_align:part <- 0
	@DEBUG_VALUE: lv_obj_get_style_grid_row_align:obj <- $r4
	@DEBUG_VALUE: get_grid_row_align:obj <- $r4
	.loc	2 415 24                        @ ../GUILib/src/extra/layouts/grid/lv_grid.c:415:24
	ldr	r7, [sp, #44]                   @ 4-byte Reload
	strd	r2, r1, [sp]
	movs	r1, #0
	str	r1, [sp, #12]
	uxtb	r2, r0
	sxth.w	r3, r9
	mov	r0, r6
	mov	r1, r5
	str	r7, [sp, #8]
	bl	grid_align
.Ltmp218:
	.loc	2 0 24                          @ ../GUILib/src/extra/layouts/grid/lv_grid.c:0:24
	movw	r8, #32769
.Ltmp219:
	movt	r8, #1
	.loc	2 415 22                        @ ../GUILib/src/extra/layouts/grid/lv_grid.c:415:22
	strh.w	r0, [sp, #90]
.Ltmp220:
.LBB1_71:
	@DEBUG_VALUE: grid_update:cont <- $r4
	@DEBUG_VALUE: grid_update:user_data <- [DW_OP_LLVM_entry_value 1] $r1
	.loc	2 0 22                          @ ../GUILib/src/extra/layouts/grid/lv_grid.c:0:22
	add	r0, sp, #52
	.loc	2 357 5 is_stmt 1               @ ../GUILib/src/extra/layouts/grid/lv_grid.c:357:5
	movs	r1, #12
	bl	lv_memset_00
.Ltmp221:
	@DEBUG_VALUE: lv_obj_get_style_border_width:part <- 0
	@DEBUG_VALUE: lv_obj_get_style_border_width:obj <- $r4
	.loc	9 297 26                        @ ../GUILib/src/extra/layouts/grid/../flex/../../../core/lv_obj_style_gen.h:297:26
	mov	r0, r4
	movs	r1, #0
	movw	r2, #4146
	bl	lv_obj_get_style_prop
.Ltmp222:
	mov	r5, r0
.Ltmp223:
	@DEBUG_VALUE: lv_obj_get_style_pad_left:part <- 0
	@DEBUG_VALUE: lv_obj_get_style_pad_left:obj <- $r4
	@DEBUG_VALUE: grid_update:border_widt <- $r5
	@DEBUG_VALUE: lv_obj_get_style_border_width:v <- $r5
	.loc	9 105 26                        @ ../GUILib/src/extra/layouts/grid/../flex/../../../core/lv_obj_style_gen.h:105:26
	mov	r0, r4
	movs	r1, #0
	movw	r2, #6162
	bl	lv_obj_get_style_prop
.Ltmp224:
	@DEBUG_VALUE: lv_obj_get_style_pad_left:v <- $r0
	.loc	2 362 73                        @ ../GUILib/src/extra/layouts/grid/lv_grid.c:362:73
	adds	r6, r0, r5
.Ltmp225:
	@DEBUG_VALUE: lv_obj_get_style_pad_top:part <- 0
	@DEBUG_VALUE: lv_obj_get_style_pad_top:obj <- $r4
	@DEBUG_VALUE: grid_update:pad_left <- $r6
	.loc	9 93 26                         @ ../GUILib/src/extra/layouts/grid/../flex/../../../core/lv_obj_style_gen.h:93:26
	mov	r0, r4
	movs	r1, #0
	movw	r2, #6160
	bl	lv_obj_get_style_prop
.Ltmp226:
	@DEBUG_VALUE: lv_obj_get_style_pad_top:v <- $r0
	.loc	2 364 47                        @ ../GUILib/src/extra/layouts/grid/lv_grid.c:364:47
	ldrh	r1, [r4, #20]
	.loc	2 363 71                        @ ../GUILib/src/extra/layouts/grid/lv_grid.c:363:71
	add	r5, r0
.Ltmp227:
	@DEBUG_VALUE: grid_update:pad_top <- $r5
	.loc	2 364 52                        @ ../GUILib/src/extra/layouts/grid/lv_grid.c:364:52
	mov	r0, r4
	.loc	2 364 32 is_stmt 0              @ ../GUILib/src/extra/layouts/grid/lv_grid.c:364:32
	add	r6, r1
.Ltmp228:
	.loc	2 364 52                        @ ../GUILib/src/extra/layouts/grid/lv_grid.c:364:52
	bl	lv_obj_get_scroll_x
.Ltmp229:
	.loc	2 364 50                        @ ../GUILib/src/extra/layouts/grid/lv_grid.c:364:50
	subs	r0, r6, r0
	.loc	2 365 46 is_stmt 1              @ ../GUILib/src/extra/layouts/grid/lv_grid.c:365:46
	ldrh	r1, [r4, #22]
	.loc	2 364 21                        @ ../GUILib/src/extra/layouts/grid/lv_grid.c:364:21
	strh.w	r0, [sp, #60]
	.loc	2 365 51                        @ ../GUILib/src/extra/layouts/grid/lv_grid.c:365:51
	mov	r0, r4
	.loc	2 365 31 is_stmt 0              @ ../GUILib/src/extra/layouts/grid/lv_grid.c:365:31
	add	r5, r1
.Ltmp230:
	.loc	2 365 51                        @ ../GUILib/src/extra/layouts/grid/lv_grid.c:365:51
	bl	lv_obj_get_scroll_y
.Ltmp231:
	.loc	2 365 49                        @ ../GUILib/src/extra/layouts/grid/lv_grid.c:365:49
	subs	r1, r5, r0
.Ltmp232:
	.loc	2 368 26 is_stmt 1              @ ../GUILib/src/extra/layouts/grid/lv_grid.c:368:26
	ldr	r0, [r4, #8]
.Ltmp233:
	.loc	2 365 21                        @ ../GUILib/src/extra/layouts/grid/lv_grid.c:365:21
	strh.w	r1, [sp, #62]
.Ltmp234:
	@DEBUG_VALUE: grid_update:i <- 0
	.loc	2 368 37                        @ ../GUILib/src/extra/layouts/grid/lv_grid.c:368:37
	ldr	r1, [r0, #4]
.Ltmp235:
	.loc	2 368 5 is_stmt 0               @ ../GUILib/src/extra/layouts/grid/lv_grid.c:368:5
	cmp	r1, #0
	beq.w	.LBB1_111
.Ltmp236:
@ %bb.72:
	@DEBUG_VALUE: lv_obj_get_style_pad_top:obj <- $r4
	@DEBUG_VALUE: lv_obj_get_style_pad_left:obj <- $r4
	@DEBUG_VALUE: lv_obj_get_style_border_width:obj <- $r4
	@DEBUG_VALUE: grid_update:cont <- $r4
	@DEBUG_VALUE: grid_update:i <- 0
	@DEBUG_VALUE: lv_obj_get_style_pad_top:part <- 0
	@DEBUG_VALUE: lv_obj_get_style_pad_left:part <- 0
	@DEBUG_VALUE: lv_obj_get_style_border_width:part <- 0
	@DEBUG_VALUE: grid_update:user_data <- [DW_OP_LLVM_entry_value 1] $r1
	.loc	2 0 5                           @ ../GUILib/src/extra/layouts/grid/lv_grid.c:0:5
	mov.w	r10, #0
.Ltmp237:
	.p2align	2
.LBB1_73:                               @ =>This Inner Loop Header: Depth=1
	@DEBUG_VALUE: grid_update:cont <- $r4
	@DEBUG_VALUE: grid_update:user_data <- [DW_OP_LLVM_entry_value 1] $r1
	@DEBUG_VALUE: grid_update:i <- $r10
	.loc	2 369 44 is_stmt 1              @ ../GUILib/src/extra/layouts/grid/lv_grid.c:369:44
	ldr	r0, [r0]
.Ltmp238:
	.loc	2 582 8                         @ ../GUILib/src/extra/layouts/grid/lv_grid.c:582:8
	mov	r1, r8
.Ltmp239:
	.loc	2 369 27                        @ ../GUILib/src/extra/layouts/grid/lv_grid.c:369:27
	ldr.w	r7, [r0, r10, lsl #2]
.Ltmp240:
	@DEBUG_VALUE: item_repos:hint <- [DW_OP_plus_uconst 52, DW_OP_stack_value] $sp
	@DEBUG_VALUE: item_repos:c <- [DW_OP_plus_uconst 64, DW_OP_stack_value] $sp
	@DEBUG_VALUE: item_repos:item <- $r7
	@DEBUG_VALUE: item <- $r7
	.loc	2 582 8                         @ ../GUILib/src/extra/layouts/grid/lv_grid.c:582:8
	mov	r0, r7
	bl	lv_obj_has_flag_any
.Ltmp241:
	.loc	2 582 8 is_stmt 0               @ ../GUILib/src/extra/layouts/grid/lv_grid.c:582:8
	cbnz	r0, .LBB1_75
.Ltmp242:
@ %bb.74:                               @   in Loop: Header=BB1_73 Depth=1
	@DEBUG_VALUE: grid_update:i <- $r10
	@DEBUG_VALUE: item <- $r7
	@DEBUG_VALUE: item_repos:item <- $r7
	@DEBUG_VALUE: grid_update:cont <- $r4
	@DEBUG_VALUE: item_repos:c <- [DW_OP_plus_uconst 64, DW_OP_stack_value] $sp
	@DEBUG_VALUE: item_repos:hint <- [DW_OP_plus_uconst 52, DW_OP_stack_value] $sp
	@DEBUG_VALUE: grid_update:user_data <- [DW_OP_LLVM_entry_value 1] $r1
	@DEBUG_VALUE: get_col_span:obj <- $r7
	@DEBUG_VALUE: lv_obj_get_style_grid_cell_column_span:obj <- $r7
	@DEBUG_VALUE: lv_obj_get_style_grid_cell_column_span:part <- 0
	.loc	5 153 59 is_stmt 1              @ ../GUILib/src/extra/layouts/grid/../grid/lv_grid.h:153:59
	movw	r0, :lower16:LV_STYLE_GRID_CELL_COLUMN_SPAN
	movt	r0, :upper16:LV_STYLE_GRID_CELL_COLUMN_SPAN
	ldrh	r2, [r0]
	.loc	5 153 26 is_stmt 0              @ ../GUILib/src/extra/layouts/grid/../grid/lv_grid.h:153:26
	mov	r0, r7
	movs	r1, #0
	bl	lv_obj_get_style_prop
.Ltmp243:
	.loc	5 165 59 is_stmt 1              @ ../GUILib/src/extra/layouts/grid/../grid/lv_grid.h:165:59
	movw	r1, :lower16:LV_STYLE_GRID_CELL_ROW_SPAN
	movt	r1, :upper16:LV_STYLE_GRID_CELL_ROW_SPAN
	ldrh	r2, [r1]
.Ltmp244:
	.loc	5 153 26                        @ ../GUILib/src/extra/layouts/grid/../grid/lv_grid.h:153:26
	mov	r5, r0
.Ltmp245:
	@DEBUG_VALUE: lv_obj_get_style_grid_cell_row_span:part <- 0
	@DEBUG_VALUE: lv_obj_get_style_grid_cell_row_span:obj <- $r7
	@DEBUG_VALUE: get_row_span:obj <- $r7
	@DEBUG_VALUE: item_repos:col_span <- [DW_OP_LLVM_convert 8 7, DW_OP_LLVM_convert 32 7, DW_OP_stack_value] $r5
	@DEBUG_VALUE: lv_obj_get_style_grid_cell_column_span:v <- $r5
	@DEBUG_VALUE: lv_obj_get_style_grid_cell_column_span:part <- 0
	@DEBUG_VALUE: lv_obj_get_style_grid_cell_column_span:obj <- $r7
	@DEBUG_VALUE: get_col_span:obj <- $r7
	.loc	5 165 26                        @ ../GUILib/src/extra/layouts/grid/../grid/lv_grid.h:165:26
	mov	r0, r7
	movs	r1, #0
	bl	lv_obj_get_style_prop
.Ltmp246:
	.loc	2 585 22                        @ ../GUILib/src/extra/layouts/grid/lv_grid.c:585:22
	lsls	r1, r5, #24
.Ltmp247:
	@DEBUG_VALUE: item_repos:row_span <- [DW_OP_LLVM_convert 8 7, DW_OP_LLVM_convert 32 7, DW_OP_stack_value] $r0
	@DEBUG_VALUE: lv_obj_get_style_grid_cell_row_span:v <- $r0
	@DEBUG_VALUE: lv_obj_get_style_grid_cell_row_span:part <- 0
	@DEBUG_VALUE: lv_obj_get_style_grid_cell_row_span:obj <- $r7
	@DEBUG_VALUE: get_row_span:obj <- $r7
	it	ne
	lslsne.w	r1, r0, #24
	bne	.LBB1_76
.Ltmp248:
.LBB1_75:                               @   in Loop: Header=BB1_73 Depth=1
	@DEBUG_VALUE: grid_update:i <- $r10
	@DEBUG_VALUE: grid_update:cont <- $r4
	@DEBUG_VALUE: grid_update:user_data <- [DW_OP_LLVM_entry_value 1] $r1
	.loc	2 368 26                        @ ../GUILib/src/extra/layouts/grid/lv_grid.c:368:26
	ldr	r0, [r4, #8]
	.loc	2 368 49 is_stmt 0              @ ../GUILib/src/extra/layouts/grid/lv_grid.c:368:49
	add.w	r10, r10, #1
.Ltmp249:
	@DEBUG_VALUE: grid_update:i <- $r10
	.loc	2 368 37                        @ ../GUILib/src/extra/layouts/grid/lv_grid.c:368:37
	ldr	r1, [r0, #4]
.Ltmp250:
	.loc	2 368 5                         @ ../GUILib/src/extra/layouts/grid/lv_grid.c:368:5
	cmp	r10, r1
	blo	.LBB1_73
	b	.LBB1_111
.Ltmp251:
.LBB1_76:                               @   in Loop: Header=BB1_73 Depth=1
	@DEBUG_VALUE: grid_update:i <- $r10
	@DEBUG_VALUE: item <- $r7
	@DEBUG_VALUE: item_repos:item <- $r7
	@DEBUG_VALUE: item_repos:col_span <- [DW_OP_LLVM_convert 8 7, DW_OP_LLVM_convert 32 7, DW_OP_stack_value] $r5
	@DEBUG_VALUE: grid_update:cont <- $r4
	@DEBUG_VALUE: item_repos:row_span <- [DW_OP_LLVM_convert 8 7, DW_OP_LLVM_convert 32 7, DW_OP_stack_value] $r0
	@DEBUG_VALUE: item_repos:c <- [DW_OP_plus_uconst 64, DW_OP_stack_value] $sp
	@DEBUG_VALUE: item_repos:hint <- [DW_OP_plus_uconst 52, DW_OP_stack_value] $sp
	@DEBUG_VALUE: grid_update:user_data <- [DW_OP_LLVM_entry_value 1] $r1
	.loc	2 583 25 is_stmt 1              @ ../GUILib/src/extra/layouts/grid/lv_grid.c:583:25
	uxtb	r1, r5
.Ltmp252:
	@DEBUG_VALUE: item_repos:col_span <- $r1
	.loc	5 147 59                        @ ../GUILib/src/extra/layouts/grid/../grid/lv_grid.h:147:59
	str	r1, [sp, #44]                   @ 4-byte Spill
.Ltmp253:
	@DEBUG_VALUE: item_repos:col_span <- [DW_OP_plus_uconst 44] [$sp+0]
	@DEBUG_VALUE: item_repos:col_span <- [DW_OP_plus_uconst 44] [$sp+0]
	@DEBUG_VALUE: item_repos:col_span <- [DW_OP_plus_uconst 44] [$sp+0]
	movw	r1, :lower16:LV_STYLE_GRID_CELL_COLUMN_POS
	movt	r1, :upper16:LV_STYLE_GRID_CELL_COLUMN_POS
	ldrh	r2, [r1]
.Ltmp254:
	.loc	2 584 25                        @ ../GUILib/src/extra/layouts/grid/lv_grid.c:584:25
	uxtb	r0, r0
.Ltmp255:
	@DEBUG_VALUE: item_repos:row_span <- $r0
	.loc	5 147 26                        @ ../GUILib/src/extra/layouts/grid/../grid/lv_grid.h:147:26
	str	r0, [sp, #48]                   @ 4-byte Spill
.Ltmp256:
	@DEBUG_VALUE: item_repos:row_span <- [DW_OP_plus_uconst 48] [$sp+0]
	@DEBUG_VALUE: item_repos:row_span <- [DW_OP_plus_uconst 48] [$sp+0]
	@DEBUG_VALUE: lv_obj_get_style_grid_cell_column_pos:part <- 0
	@DEBUG_VALUE: lv_obj_get_style_grid_cell_column_pos:obj <- $r7
	@DEBUG_VALUE: get_col_pos:obj <- $r7
	@DEBUG_VALUE: item_repos:row_span <- [DW_OP_plus_uconst 48] [$sp+0]
	mov	r0, r7
	movs	r1, #0
	bl	lv_obj_get_style_prop
.Ltmp257:
	mov	r8, r0
.Ltmp258:
	@DEBUG_VALUE: lv_obj_get_style_grid_cell_column_pos:v <- $r8
	.loc	5 159 59                        @ ../GUILib/src/extra/layouts/grid/../grid/lv_grid.h:159:59
	movw	r0, :lower16:LV_STYLE_GRID_CELL_ROW_POS
	movt	r0, :upper16:LV_STYLE_GRID_CELL_ROW_POS
	ldrh	r2, [r0]
	.loc	5 159 26 is_stmt 0              @ ../GUILib/src/extra/layouts/grid/../grid/lv_grid.h:159:26
	mov	r0, r7
	movs	r1, #0
.Ltmp259:
	.loc	2 587 24 is_stmt 1              @ ../GUILib/src/extra/layouts/grid/lv_grid.c:587:24
	uxtb.w	r5, r8
.Ltmp260:
	@DEBUG_VALUE: lv_obj_get_style_grid_cell_row_pos:part <- 0
	@DEBUG_VALUE: lv_obj_get_style_grid_cell_row_pos:obj <- $r7
	@DEBUG_VALUE: get_row_pos:obj <- $r7
	@DEBUG_VALUE: item_repos:col_pos <- $r5
	.loc	5 159 26                        @ ../GUILib/src/extra/layouts/grid/../grid/lv_grid.h:159:26
	bl	lv_obj_get_style_prop
.Ltmp261:
	mov	r9, r0
.Ltmp262:
	@DEBUG_VALUE: lv_obj_get_style_grid_cell_row_pos:v <- $r9
	.loc	5 171 59                        @ ../GUILib/src/extra/layouts/grid/../grid/lv_grid.h:171:59
	movw	r0, :lower16:LV_STYLE_GRID_CELL_X_ALIGN
	movt	r0, :upper16:LV_STYLE_GRID_CELL_X_ALIGN
	ldrh	r2, [r0]
	.loc	5 171 26 is_stmt 0              @ ../GUILib/src/extra/layouts/grid/../grid/lv_grid.h:171:26
	mov	r0, r7
	movs	r1, #0
.Ltmp263:
	.loc	2 588 24 is_stmt 1              @ ../GUILib/src/extra/layouts/grid/lv_grid.c:588:24
	uxtb.w	r11, r9
.Ltmp264:
	@DEBUG_VALUE: lv_obj_get_style_grid_cell_x_align:part <- 0
	@DEBUG_VALUE: lv_obj_get_style_grid_cell_x_align:obj <- $r7
	@DEBUG_VALUE: get_cell_col_align:obj <- $r7
	@DEBUG_VALUE: item_repos:row_pos <- $r11
	.loc	5 171 26                        @ ../GUILib/src/extra/layouts/grid/../grid/lv_grid.h:171:26
	bl	lv_obj_get_style_prop
.Ltmp265:
	.loc	5 177 59                        @ ../GUILib/src/extra/layouts/grid/../grid/lv_grid.h:177:59
	movw	r1, :lower16:LV_STYLE_GRID_CELL_Y_ALIGN
	movt	r1, :upper16:LV_STYLE_GRID_CELL_Y_ALIGN
	ldrh	r2, [r1]
.Ltmp266:
	.loc	5 171 26                        @ ../GUILib/src/extra/layouts/grid/../grid/lv_grid.h:171:26
	str	r0, [sp, #40]                   @ 4-byte Spill
.Ltmp267:
	@DEBUG_VALUE: lv_obj_get_style_grid_cell_y_align:part <- 0
	@DEBUG_VALUE: lv_obj_get_style_grid_cell_y_align:obj <- $r7
	@DEBUG_VALUE: get_cell_row_align:obj <- $r7
	@DEBUG_VALUE: item_repos:col_align <- undef
	@DEBUG_VALUE: lv_obj_get_style_grid_cell_x_align:v <- [DW_OP_plus_uconst 40] [$sp+0]
	@DEBUG_VALUE: lv_obj_get_style_grid_cell_x_align:part <- 0
	@DEBUG_VALUE: lv_obj_get_style_grid_cell_x_align:obj <- $r7
	@DEBUG_VALUE: get_cell_col_align:obj <- $r7
	.loc	5 177 26                        @ ../GUILib/src/extra/layouts/grid/../grid/lv_grid.h:177:26
	mov	r0, r7
	movs	r1, #0
	bl	lv_obj_get_style_prop
.Ltmp268:
	.loc	2 593 28                        @ ../GUILib/src/extra/layouts/grid/lv_grid.c:593:28
	add	r6, sp, #64
	ldm	r6, {r1, r2, r3, r6}
	str	r5, [sp, #20]                   @ 4-byte Spill
.Ltmp269:
	@DEBUG_VALUE: item_repos:col_pos <- [DW_OP_plus_uconst 20] [$sp+0]
	.loc	2 593 25 is_stmt 0              @ ../GUILib/src/extra/layouts/grid/lv_grid.c:593:25
	ldrh.w	r5, [r1, r5, lsl #1]
.Ltmp270:
	@DEBUG_VALUE: item_repos:col_x1 <- $r5
	.loc	2 0 25                          @ ../GUILib/src/extra/layouts/grid/lv_grid.c:0:25
	mvn	r12, #1
	.loc	2 594 38 is_stmt 1              @ ../GUILib/src/extra/layouts/grid/lv_grid.c:594:38
	str	r5, [sp, #36]                   @ 4-byte Spill
.Ltmp271:
	@DEBUG_VALUE: item_repos:col_x1 <- [DW_OP_plus_uconst 36] [$sp+0]
	@DEBUG_VALUE: item_repos:col_x1 <- [DW_OP_plus_uconst 36] [$sp+0]
	@DEBUG_VALUE: item_repos:col_x1 <- [DW_OP_plus_uconst 36] [$sp+0]
	ldr	r5, [sp, #44]                   @ 4-byte Reload
.Ltmp272:
	@DEBUG_VALUE: item_repos:col_span <- $r5
	.loc	2 0 38 is_stmt 0                @ ../GUILib/src/extra/layouts/grid/lv_grid.c:0:38
	str.w	r11, [sp, #44]                  @ 4-byte Spill
.Ltmp273:
	@DEBUG_VALUE: item_repos:row_pos <- [DW_OP_plus_uconst 44] [$sp+0]
	.loc	2 594 38                        @ ../GUILib/src/extra/layouts/grid/lv_grid.c:594:38
	uxtab	r5, r5, r8
.Ltmp274:
	.loc	2 594 25                        @ ../GUILib/src/extra/layouts/grid/lv_grid.c:594:25
	add.w	r5, r12, r5, lsl #1
	ldrh.w	r8, [r1, r5]
	.loc	2 597 25 is_stmt 1              @ ../GUILib/src/extra/layouts/grid/lv_grid.c:597:25
	ldrh.w	r1, [r2, r11, lsl #1]
.Ltmp275:
	@DEBUG_VALUE: item_repos:row_y1 <- $r1
	.loc	2 594 56                        @ ../GUILib/src/extra/layouts/grid/lv_grid.c:594:56
	ldrh	r5, [r3, r5]
.Ltmp276:
	@DEBUG_VALUE: item_repos:col_w <- undef
	@DEBUG_VALUE: item_repos:col_x2 <- undef
	.loc	2 598 38                        @ ../GUILib/src/extra/layouts/grid/lv_grid.c:598:38
	str	r1, [sp, #32]                   @ 4-byte Spill
.Ltmp277:
	@DEBUG_VALUE: item_repos:row_y1 <- [DW_OP_plus_uconst 32] [$sp+0]
	@DEBUG_VALUE: item_repos:row_y1 <- [DW_OP_plus_uconst 32] [$sp+0]
	@DEBUG_VALUE: item_repos:row_y1 <- [DW_OP_plus_uconst 32] [$sp+0]
	ldr	r1, [sp, #48]                   @ 4-byte Reload
.Ltmp278:
	@DEBUG_VALUE: item_repos:row_span <- $r1
	uxtab	r1, r1, r9
.Ltmp279:
	.loc	2 598 25 is_stmt 0              @ ../GUILib/src/extra/layouts/grid/lv_grid.c:598:25
	add.w	r1, r12, r1, lsl #1
	ldrh.w	r9, [r2, r1]
	.loc	2 598 56                        @ ../GUILib/src/extra/layouts/grid/lv_grid.c:598:56
	ldrh	r1, [r6, r1]
.Ltmp280:
	@DEBUG_VALUE: item_repos:row_h <- undef
	@DEBUG_VALUE: item_repos:row_y2 <- undef
	.loc	9 189 26 is_stmt 1              @ ../GUILib/src/extra/layouts/grid/../flex/../../../core/lv_obj_style_gen.h:189:26
	movw	r2, #5226
.Ltmp281:
	.loc	5 177 26                        @ ../GUILib/src/extra/layouts/grid/../grid/lv_grid.h:177:26
	strd	r1, r0, [sp, #24]               @ 8-byte Folded Spill
.Ltmp282:
	@DEBUG_VALUE: item_repos:row_align <- [DW_OP_plus_uconst 28, DW_OP_deref_size 4, DW_OP_LLVM_convert 32 7, DW_OP_LLVM_convert 8 7, DW_OP_stack_value] $sp
	@DEBUG_VALUE: lv_obj_get_style_grid_cell_y_align:v <- [DW_OP_plus_uconst 28] [$sp+0]
	@DEBUG_VALUE: lv_obj_get_style_base_dir:part <- 0
	@DEBUG_VALUE: lv_obj_get_style_base_dir:obj <- $r7
	@DEBUG_VALUE: lv_obj_get_style_grid_cell_y_align:part <- 0
	@DEBUG_VALUE: lv_obj_get_style_grid_cell_y_align:obj <- $r7
	@DEBUG_VALUE: get_cell_row_align:obj <- $r7
	.loc	9 189 26                        @ ../GUILib/src/extra/layouts/grid/../flex/../../../core/lv_obj_style_gen.h:189:26
	mov	r0, r7
	movs	r1, #0
	bl	lv_obj_get_style_prop
.Ltmp283:
	@DEBUG_VALUE: item_repos:col_x1 <- $r2
	.loc	9 0 26 is_stmt 0                @ ../GUILib/src/extra/layouts/grid/../flex/../../../core/lv_obj_style_gen.h:0:26
	ldrd	r2, r3, [sp, #36]               @ 8-byte Folded Reload
.Ltmp284:
	@DEBUG_VALUE: lv_obj_get_style_base_dir:v <- $r0
	.loc	9 190 12 is_stmt 1              @ ../GUILib/src/extra/layouts/grid/../flex/../../../core/lv_obj_style_gen.h:190:12
	uxtb	r0, r0
.Ltmp285:
	.loc	2 603 8                         @ ../GUILib/src/extra/layouts/grid/lv_grid.c:603:8
	cmp	r0, #1
	bne	.LBB1_81
.Ltmp286:
@ %bb.77:                               @   in Loop: Header=BB1_73 Depth=1
	@DEBUG_VALUE: grid_update:i <- $r10
	@DEBUG_VALUE: get_cell_col_align:obj <- $r7
	@DEBUG_VALUE: item <- $r7
	@DEBUG_VALUE: item_repos:item <- $r7
	@DEBUG_VALUE: grid_update:cont <- $r4
	@DEBUG_VALUE: item_repos:row_align <- [DW_OP_plus_uconst 28, DW_OP_deref_size 4, DW_OP_LLVM_convert 32 7, DW_OP_LLVM_convert 8 7, DW_OP_stack_value] $sp
	@DEBUG_VALUE: item_repos:row_y1 <- [DW_OP_plus_uconst 32] [$sp+0]
	@DEBUG_VALUE: item_repos:row_pos <- [DW_OP_plus_uconst 44] [$sp+0]
	@DEBUG_VALUE: item_repos:col_pos <- [DW_OP_plus_uconst 20] [$sp+0]
	@DEBUG_VALUE: item_repos:c <- [DW_OP_plus_uconst 64, DW_OP_stack_value] $sp
	@DEBUG_VALUE: item_repos:hint <- [DW_OP_plus_uconst 52, DW_OP_stack_value] $sp
	@DEBUG_VALUE: grid_update:user_data <- [DW_OP_LLVM_entry_value 1] $r1
	.loc	2 87 12                         @ ../GUILib/src/extra/layouts/grid/lv_grid.c:87:12
	uxtb	r0, r3
	mov	r1, r8
	mov	r8, r2
.Ltmp287:
	.loc	2 604 12                        @ ../GUILib/src/extra/layouts/grid/lv_grid.c:604:12
	cbz	r0, .LBB1_79
.Ltmp288:
@ %bb.78:                               @   in Loop: Header=BB1_73 Depth=1
	@DEBUG_VALUE: grid_update:i <- $r10
	@DEBUG_VALUE: item <- $r7
	@DEBUG_VALUE: item_repos:item <- $r7
	@DEBUG_VALUE: grid_update:cont <- $r4
	@DEBUG_VALUE: item_repos:row_align <- [DW_OP_plus_uconst 28, DW_OP_deref_size 4, DW_OP_LLVM_convert 32 7, DW_OP_LLVM_convert 8 7, DW_OP_stack_value] $sp
	@DEBUG_VALUE: item_repos:row_y1 <- [DW_OP_plus_uconst 32] [$sp+0]
	@DEBUG_VALUE: item_repos:row_pos <- [DW_OP_plus_uconst 44] [$sp+0]
	@DEBUG_VALUE: item_repos:col_pos <- [DW_OP_plus_uconst 20] [$sp+0]
	@DEBUG_VALUE: item_repos:c <- [DW_OP_plus_uconst 64, DW_OP_stack_value] $sp
	@DEBUG_VALUE: item_repos:hint <- [DW_OP_plus_uconst 52, DW_OP_stack_value] $sp
	@DEBUG_VALUE: grid_update:user_data <- [DW_OP_LLVM_entry_value 1] $r1
	cmp	r0, #2
	it	eq
	moveq	r3, #0
.Ltmp289:
	@DEBUG_VALUE: item_repos:col_align <- 0
	.loc	2 0 12 is_stmt 0                @ ../GUILib/src/extra/layouts/grid/lv_grid.c:0:12
	b	.LBB1_80
.Ltmp290:
.LBB1_79:                               @   in Loop: Header=BB1_73 Depth=1
	@DEBUG_VALUE: grid_update:i <- $r10
	@DEBUG_VALUE: get_cell_col_align:obj <- $r7
	@DEBUG_VALUE: item <- $r7
	@DEBUG_VALUE: item_repos:item <- $r7
	@DEBUG_VALUE: grid_update:cont <- $r4
	@DEBUG_VALUE: item_repos:row_align <- [DW_OP_plus_uconst 28, DW_OP_deref_size 4, DW_OP_LLVM_convert 32 7, DW_OP_LLVM_convert 8 7, DW_OP_stack_value] $sp
	@DEBUG_VALUE: item_repos:row_y1 <- [DW_OP_plus_uconst 32] [$sp+0]
	@DEBUG_VALUE: item_repos:row_pos <- [DW_OP_plus_uconst 44] [$sp+0]
	@DEBUG_VALUE: item_repos:col_pos <- [DW_OP_plus_uconst 20] [$sp+0]
	@DEBUG_VALUE: item_repos:c <- [DW_OP_plus_uconst 64, DW_OP_stack_value] $sp
	@DEBUG_VALUE: item_repos:hint <- [DW_OP_plus_uconst 52, DW_OP_stack_value] $sp
	@DEBUG_VALUE: grid_update:user_data <- [DW_OP_LLVM_entry_value 1] $r1
	movs	r3, #2
.Ltmp291:
.LBB1_80:                               @   in Loop: Header=BB1_73 Depth=1
	@DEBUG_VALUE: grid_update:i <- $r10
	@DEBUG_VALUE: item <- $r7
	@DEBUG_VALUE: item_repos:item <- $r7
	@DEBUG_VALUE: grid_update:cont <- $r4
	@DEBUG_VALUE: item_repos:row_align <- [DW_OP_plus_uconst 28, DW_OP_deref_size 4, DW_OP_LLVM_convert 32 7, DW_OP_LLVM_convert 8 7, DW_OP_stack_value] $sp
	@DEBUG_VALUE: item_repos:row_y1 <- [DW_OP_plus_uconst 32] [$sp+0]
	@DEBUG_VALUE: item_repos:row_pos <- [DW_OP_plus_uconst 44] [$sp+0]
	@DEBUG_VALUE: item_repos:col_pos <- [DW_OP_plus_uconst 20] [$sp+0]
	@DEBUG_VALUE: item_repos:c <- [DW_OP_plus_uconst 64, DW_OP_stack_value] $sp
	@DEBUG_VALUE: item_repos:hint <- [DW_OP_plus_uconst 52, DW_OP_stack_value] $sp
	@DEBUG_VALUE: grid_update:user_data <- [DW_OP_LLVM_entry_value 1] $r1
	mov	r2, r8
	mov	r8, r1
.Ltmp292:
.LBB1_81:                               @   in Loop: Header=BB1_73 Depth=1
	@DEBUG_VALUE: grid_update:i <- $r10
	@DEBUG_VALUE: item <- $r7
	@DEBUG_VALUE: item_repos:item <- $r7
	@DEBUG_VALUE: grid_update:cont <- $r4
	@DEBUG_VALUE: item_repos:row_align <- [DW_OP_plus_uconst 28, DW_OP_deref_size 4, DW_OP_LLVM_convert 32 7, DW_OP_LLVM_convert 8 7, DW_OP_stack_value] $sp
	@DEBUG_VALUE: item_repos:row_y1 <- [DW_OP_plus_uconst 32] [$sp+0]
	@DEBUG_VALUE: item_repos:row_pos <- [DW_OP_plus_uconst 44] [$sp+0]
	@DEBUG_VALUE: item_repos:col_pos <- [DW_OP_plus_uconst 20] [$sp+0]
	@DEBUG_VALUE: item_repos:c <- [DW_OP_plus_uconst 64, DW_OP_stack_value] $sp
	@DEBUG_VALUE: item_repos:hint <- [DW_OP_plus_uconst 52, DW_OP_stack_value] $sp
	@DEBUG_VALUE: grid_update:user_data <- [DW_OP_LLVM_entry_value 1] $r1
	.loc	8 125 46 is_stmt 1              @ ../GUILib/src/hal/../misc/lv_area.h:125:46
	mov	r6, r7
	ldrh	r0, [r6, #20]!
.Ltmp293:
	@DEBUG_VALUE: lv_area_get_width:area_p <- $r6
	.loc	2 0 0 is_stmt 0                 @ ../GUILib/src/extra/layouts/grid/lv_grid.c:0:0
	sub.w	r1, r8, r2
.Ltmp294:
	.loc	8 125 33                        @ ../GUILib/src/hal/../misc/lv_area.h:125:33
	ldrh	r2, [r6, #4]
.Ltmp295:
	@DEBUG_VALUE: lv_area_get_width:area_p <- $r6
	.loc	2 0 0                           @ ../GUILib/src/extra/layouts/grid/lv_grid.c:0:0
	add	r1, r5
.Ltmp296:
	@DEBUG_VALUE: item_repos:row_h <- undef
	@DEBUG_VALUE: item_repos:col_w <- $r1
	@DEBUG_VALUE: item_repos:col_align <- $r3
	.loc	8 125 49                        @ ../GUILib/src/hal/../misc/lv_area.h:125:49
	subs	r2, r2, r0
.Ltmp297:
	@DEBUG_VALUE: lv_area_get_width:area_p <- $r6
	.loc	8 135 33 is_stmt 1              @ ../GUILib/src/hal/../misc/lv_area.h:135:33
	ldrh	r5, [r6, #6]
	.loc	8 135 46 is_stmt 0              @ ../GUILib/src/hal/../misc/lv_area.h:135:46
	ldrh.w	r11, [r6, #2]
.Ltmp298:
	@DEBUG_VALUE: item_repos:item_h <- undef
	.loc	2 613 5 is_stmt 1               @ ../GUILib/src/extra/layouts/grid/lv_grid.c:613:5
	uxtb	r0, r3
	cmp	r0, #1
.Ltmp299:
	.loc	8 125 49                        @ ../GUILib/src/hal/../misc/lv_area.h:125:49
	add.w	r2, r2, #1
.Ltmp300:
	@DEBUG_VALUE: lv_area_get_height:area_p <- $r6
	@DEBUG_VALUE: item_repos:item_w <- $r2
	@DEBUG_VALUE: lv_area_get_width:area_p <- $r6
	.loc	2 613 5                         @ ../GUILib/src/extra/layouts/grid/lv_grid.c:613:5
	str	r2, [sp, #48]                   @ 4-byte Spill
.Ltmp301:
	@DEBUG_VALUE: item_repos:item_w <- [DW_OP_plus_uconst 48] [$sp+0]
	@DEBUG_VALUE: item_repos:item_w <- [DW_OP_plus_uconst 48] [$sp+0]
	beq	.LBB1_85
.Ltmp302:
@ %bb.82:                               @   in Loop: Header=BB1_73 Depth=1
	@DEBUG_VALUE: grid_update:i <- $r10
	@DEBUG_VALUE: item <- $r7
	@DEBUG_VALUE: item_repos:item <- $r7
	@DEBUG_VALUE: grid_update:cont <- $r4
	@DEBUG_VALUE: item_repos:col_align <- $r3
	@DEBUG_VALUE: item_repos:col_w <- $r1
	@DEBUG_VALUE: item_repos:item_w <- [DW_OP_plus_uconst 48] [$sp+0]
	@DEBUG_VALUE: item_repos:row_align <- [DW_OP_plus_uconst 28, DW_OP_deref_size 4, DW_OP_LLVM_convert 32 7, DW_OP_LLVM_convert 8 7, DW_OP_stack_value] $sp
	@DEBUG_VALUE: item_repos:row_y1 <- [DW_OP_plus_uconst 32] [$sp+0]
	@DEBUG_VALUE: item_repos:row_pos <- [DW_OP_plus_uconst 44] [$sp+0]
	@DEBUG_VALUE: item_repos:col_pos <- [DW_OP_plus_uconst 20] [$sp+0]
	@DEBUG_VALUE: item_repos:c <- [DW_OP_plus_uconst 64, DW_OP_stack_value] $sp
	@DEBUG_VALUE: item_repos:hint <- [DW_OP_plus_uconst 52, DW_OP_stack_value] $sp
	@DEBUG_VALUE: grid_update:user_data <- [DW_OP_LLVM_entry_value 1] $r1
	cmp	r0, #2
	beq	.LBB1_86
.Ltmp303:
@ %bb.83:                               @   in Loop: Header=BB1_73 Depth=1
	@DEBUG_VALUE: grid_update:i <- $r10
	@DEBUG_VALUE: item <- $r7
	@DEBUG_VALUE: item_repos:item <- $r7
	@DEBUG_VALUE: grid_update:cont <- $r4
	@DEBUG_VALUE: item_repos:col_align <- $r3
	@DEBUG_VALUE: item_repos:col_w <- $r1
	@DEBUG_VALUE: item_repos:item_w <- [DW_OP_plus_uconst 48] [$sp+0]
	@DEBUG_VALUE: item_repos:row_align <- [DW_OP_plus_uconst 28, DW_OP_deref_size 4, DW_OP_LLVM_convert 32 7, DW_OP_LLVM_convert 8 7, DW_OP_stack_value] $sp
	@DEBUG_VALUE: item_repos:row_y1 <- [DW_OP_plus_uconst 32] [$sp+0]
	@DEBUG_VALUE: item_repos:row_pos <- [DW_OP_plus_uconst 44] [$sp+0]
	@DEBUG_VALUE: item_repos:col_pos <- [DW_OP_plus_uconst 20] [$sp+0]
	@DEBUG_VALUE: item_repos:c <- [DW_OP_plus_uconst 64, DW_OP_stack_value] $sp
	@DEBUG_VALUE: item_repos:hint <- [DW_OP_plus_uconst 52, DW_OP_stack_value] $sp
	@DEBUG_VALUE: grid_update:user_data <- [DW_OP_LLVM_entry_value 1] $r1
	cmp	r0, #3
	bne	.LBB1_87
.Ltmp304:
@ %bb.84:                               @   in Loop: Header=BB1_73 Depth=1
	@DEBUG_VALUE: grid_update:i <- $r10
	@DEBUG_VALUE: item <- $r7
	@DEBUG_VALUE: item_repos:item <- $r7
	@DEBUG_VALUE: grid_update:cont <- $r4
	@DEBUG_VALUE: item_repos:col_align <- $r3
	@DEBUG_VALUE: item_repos:col_w <- $r1
	@DEBUG_VALUE: item_repos:item_w <- [DW_OP_plus_uconst 48] [$sp+0]
	@DEBUG_VALUE: item_repos:row_align <- [DW_OP_plus_uconst 28, DW_OP_deref_size 4, DW_OP_LLVM_convert 32 7, DW_OP_LLVM_convert 8 7, DW_OP_stack_value] $sp
	@DEBUG_VALUE: item_repos:row_y1 <- [DW_OP_plus_uconst 32] [$sp+0]
	@DEBUG_VALUE: item_repos:row_pos <- [DW_OP_plus_uconst 44] [$sp+0]
	@DEBUG_VALUE: item_repos:col_pos <- [DW_OP_plus_uconst 20] [$sp+0]
	@DEBUG_VALUE: item_repos:c <- [DW_OP_plus_uconst 64, DW_OP_stack_value] $sp
	@DEBUG_VALUE: item_repos:hint <- [DW_OP_plus_uconst 52, DW_OP_stack_value] $sp
	@DEBUG_VALUE: grid_update:user_data <- [DW_OP_LLVM_entry_value 1] $r1
	.loc	2 620 20                        @ ../GUILib/src/extra/layouts/grid/lv_grid.c:620:20
	ldr	r0, [sp, #64]
	.loc	2 620 17 is_stmt 0              @ ../GUILib/src/extra/layouts/grid/lv_grid.c:620:17
	ldr	r3, [sp, #20]                   @ 4-byte Reload
.Ltmp305:
	.loc	2 622 28 is_stmt 1              @ ../GUILib/src/extra/layouts/grid/lv_grid.c:622:28
	ldrh	r2, [r7, #34]
	.loc	2 620 17                        @ ../GUILib/src/extra/layouts/grid/lv_grid.c:620:17
	ldrh.w	r0, [r0, r3, lsl #1]
.Ltmp306:
	@DEBUG_VALUE: item_repos:x <- undef
	@DEBUG_VALUE: item_repos:item_w <- $r1
	.loc	2 0 0 is_stmt 0                 @ ../GUILib/src/extra/layouts/grid/lv_grid.c:0:0
	str	r1, [sp, #48]                   @ 4-byte Spill
.Ltmp307:
	@DEBUG_VALUE: item_repos:col_w <- [DW_OP_plus_uconst 48] [$sp+0]
	@DEBUG_VALUE: item_repos:item_w <- [DW_OP_plus_uconst 48] [$sp+0]
	.loc	2 622 28 is_stmt 1              @ ../GUILib/src/extra/layouts/grid/lv_grid.c:622:28
	str	r0, [sp, #40]                   @ 4-byte Spill
	orr	r0, r2, #1024
	b	.LBB1_89
.Ltmp308:
.LBB1_85:                               @   in Loop: Header=BB1_73 Depth=1
	@DEBUG_VALUE: grid_update:i <- $r10
	@DEBUG_VALUE: item <- $r7
	@DEBUG_VALUE: item_repos:item <- $r7
	@DEBUG_VALUE: grid_update:cont <- $r4
	@DEBUG_VALUE: item_repos:col_align <- $r3
	@DEBUG_VALUE: item_repos:col_w <- $r1
	@DEBUG_VALUE: item_repos:item_w <- [DW_OP_plus_uconst 48] [$sp+0]
	@DEBUG_VALUE: item_repos:row_align <- [DW_OP_plus_uconst 28, DW_OP_deref_size 4, DW_OP_LLVM_convert 32 7, DW_OP_LLVM_convert 8 7, DW_OP_stack_value] $sp
	@DEBUG_VALUE: item_repos:row_y1 <- [DW_OP_plus_uconst 32] [$sp+0]
	@DEBUG_VALUE: item_repos:row_pos <- [DW_OP_plus_uconst 44] [$sp+0]
	@DEBUG_VALUE: item_repos:col_pos <- [DW_OP_plus_uconst 20] [$sp+0]
	@DEBUG_VALUE: item_repos:c <- [DW_OP_plus_uconst 64, DW_OP_stack_value] $sp
	@DEBUG_VALUE: item_repos:hint <- [DW_OP_plus_uconst 52, DW_OP_stack_value] $sp
	@DEBUG_VALUE: grid_update:user_data <- [DW_OP_LLVM_entry_value 1] $r1
	.loc	2 625 20                        @ ../GUILib/src/extra/layouts/grid/lv_grid.c:625:20
	ldr	r0, [sp, #64]
	.loc	2 625 17 is_stmt 0              @ ../GUILib/src/extra/layouts/grid/lv_grid.c:625:17
	ldr	r2, [sp, #20]                   @ 4-byte Reload
	.loc	2 625 34                        @ ../GUILib/src/extra/layouts/grid/lv_grid.c:625:34
	sxth	r1, r1
.Ltmp309:
	.loc	2 625 17                        @ ../GUILib/src/extra/layouts/grid/lv_grid.c:625:17
	ldrh.w	r0, [r0, r2, lsl #1]
	.loc	2 625 42                        @ ../GUILib/src/extra/layouts/grid/lv_grid.c:625:42
	ldr	r2, [sp, #48]                   @ 4-byte Reload
	sxth	r2, r2
	.loc	2 625 40                        @ ../GUILib/src/extra/layouts/grid/lv_grid.c:625:40
	subs	r1, r1, r2
	.loc	2 625 50                        @ ../GUILib/src/extra/layouts/grid/lv_grid.c:625:50
	add.w	r1, r1, r1, lsr #31
	.loc	2 626 28 is_stmt 1              @ ../GUILib/src/extra/layouts/grid/lv_grid.c:626:28
	ldrh	r2, [r7, #34]
	.loc	2 625 17                        @ ../GUILib/src/extra/layouts/grid/lv_grid.c:625:17
	add.w	r0, r0, r1, lsr #1
.Ltmp310:
	@DEBUG_VALUE: item_repos:x <- $r0
	.loc	2 626 28                        @ ../GUILib/src/extra/layouts/grid/lv_grid.c:626:28
	str	r0, [sp, #40]                   @ 4-byte Spill
.Ltmp311:
	@DEBUG_VALUE: item_repos:x <- [DW_OP_plus_uconst 40] [$sp+0]
	@DEBUG_VALUE: item_repos:x <- [DW_OP_plus_uconst 40] [$sp+0]
	bic	r0, r2, #1024
	b	.LBB1_89
.Ltmp312:
.LBB1_86:                               @   in Loop: Header=BB1_73 Depth=1
	@DEBUG_VALUE: grid_update:i <- $r10
	@DEBUG_VALUE: item <- $r7
	@DEBUG_VALUE: item_repos:item <- $r7
	@DEBUG_VALUE: grid_update:cont <- $r4
	@DEBUG_VALUE: item_repos:col_align <- $r3
	@DEBUG_VALUE: item_repos:col_w <- $r1
	@DEBUG_VALUE: item_repos:item_w <- [DW_OP_plus_uconst 48] [$sp+0]
	@DEBUG_VALUE: item_repos:row_align <- [DW_OP_plus_uconst 28, DW_OP_deref_size 4, DW_OP_LLVM_convert 32 7, DW_OP_LLVM_convert 8 7, DW_OP_stack_value] $sp
	@DEBUG_VALUE: item_repos:row_y1 <- [DW_OP_plus_uconst 32] [$sp+0]
	@DEBUG_VALUE: item_repos:row_pos <- [DW_OP_plus_uconst 44] [$sp+0]
	@DEBUG_VALUE: item_repos:col_pos <- [DW_OP_plus_uconst 20] [$sp+0]
	@DEBUG_VALUE: item_repos:c <- [DW_OP_plus_uconst 64, DW_OP_stack_value] $sp
	@DEBUG_VALUE: item_repos:hint <- [DW_OP_plus_uconst 52, DW_OP_stack_value] $sp
	@DEBUG_VALUE: grid_update:user_data <- [DW_OP_LLVM_entry_value 1] $r1
	.loc	2 629 20                        @ ../GUILib/src/extra/layouts/grid/lv_grid.c:629:20
	ldr	r0, [sp, #64]
	.loc	2 629 17 is_stmt 0              @ ../GUILib/src/extra/layouts/grid/lv_grid.c:629:17
	ldr	r2, [sp, #20]                   @ 4-byte Reload
	ldrh.w	r0, [r0, r2, lsl #1]
	.loc	2 629 31                        @ ../GUILib/src/extra/layouts/grid/lv_grid.c:629:31
	add.w	r8, r0, r1
	.loc	2 629 41                        @ ../GUILib/src/extra/layouts/grid/lv_grid.c:629:41
	mov	r0, r7
	bl	lv_obj_get_width
.Ltmp313:
	.loc	2 630 28 is_stmt 1              @ ../GUILib/src/extra/layouts/grid/lv_grid.c:630:28
	ldrh	r1, [r7, #34]
	.loc	2 629 39                        @ ../GUILib/src/extra/layouts/grid/lv_grid.c:629:39
	sub.w	r0, r8, r0
.Ltmp314:
	@DEBUG_VALUE: item_repos:x <- $r0
	.loc	2 0 39 is_stmt 0                @ ../GUILib/src/extra/layouts/grid/lv_grid.c:0:39
	b	.LBB1_88
.Ltmp315:
.LBB1_87:                               @   in Loop: Header=BB1_73 Depth=1
	@DEBUG_VALUE: grid_update:i <- $r10
	@DEBUG_VALUE: item <- $r7
	@DEBUG_VALUE: item_repos:item <- $r7
	@DEBUG_VALUE: grid_update:cont <- $r4
	@DEBUG_VALUE: item_repos:col_align <- $r3
	@DEBUG_VALUE: item_repos:col_w <- $r1
	@DEBUG_VALUE: item_repos:item_w <- [DW_OP_plus_uconst 48] [$sp+0]
	@DEBUG_VALUE: item_repos:row_align <- [DW_OP_plus_uconst 28, DW_OP_deref_size 4, DW_OP_LLVM_convert 32 7, DW_OP_LLVM_convert 8 7, DW_OP_stack_value] $sp
	@DEBUG_VALUE: item_repos:row_y1 <- [DW_OP_plus_uconst 32] [$sp+0]
	@DEBUG_VALUE: item_repos:row_pos <- [DW_OP_plus_uconst 44] [$sp+0]
	@DEBUG_VALUE: item_repos:col_pos <- [DW_OP_plus_uconst 20] [$sp+0]
	@DEBUG_VALUE: item_repos:c <- [DW_OP_plus_uconst 64, DW_OP_stack_value] $sp
	@DEBUG_VALUE: item_repos:hint <- [DW_OP_plus_uconst 52, DW_OP_stack_value] $sp
	@DEBUG_VALUE: grid_update:user_data <- [DW_OP_LLVM_entry_value 1] $r1
	.loc	2 616 20 is_stmt 1              @ ../GUILib/src/extra/layouts/grid/lv_grid.c:616:20
	ldr	r0, [sp, #64]
	.loc	2 616 17 is_stmt 0              @ ../GUILib/src/extra/layouts/grid/lv_grid.c:616:17
	ldr	r2, [sp, #20]                   @ 4-byte Reload
	.loc	2 617 28 is_stmt 1              @ ../GUILib/src/extra/layouts/grid/lv_grid.c:617:28
	ldrh	r1, [r7, #34]
.Ltmp316:
	.loc	2 616 17                        @ ../GUILib/src/extra/layouts/grid/lv_grid.c:616:17
	ldrh.w	r0, [r0, r2, lsl #1]
.Ltmp317:
	@DEBUG_VALUE: item_repos:x <- undef
.LBB1_88:                               @   in Loop: Header=BB1_73 Depth=1
	@DEBUG_VALUE: grid_update:i <- $r10
	@DEBUG_VALUE: item <- $r7
	@DEBUG_VALUE: item_repos:item <- $r7
	@DEBUG_VALUE: grid_update:cont <- $r4
	@DEBUG_VALUE: item_repos:item_w <- [DW_OP_plus_uconst 48] [$sp+0]
	@DEBUG_VALUE: item_repos:row_align <- [DW_OP_plus_uconst 28, DW_OP_deref_size 4, DW_OP_LLVM_convert 32 7, DW_OP_LLVM_convert 8 7, DW_OP_stack_value] $sp
	@DEBUG_VALUE: item_repos:row_y1 <- [DW_OP_plus_uconst 32] [$sp+0]
	@DEBUG_VALUE: item_repos:row_pos <- [DW_OP_plus_uconst 44] [$sp+0]
	@DEBUG_VALUE: item_repos:col_pos <- [DW_OP_plus_uconst 20] [$sp+0]
	@DEBUG_VALUE: item_repos:c <- [DW_OP_plus_uconst 64, DW_OP_stack_value] $sp
	@DEBUG_VALUE: item_repos:hint <- [DW_OP_plus_uconst 52, DW_OP_stack_value] $sp
	@DEBUG_VALUE: grid_update:user_data <- [DW_OP_LLVM_entry_value 1] $r1
	.loc	2 0 0 is_stmt 0                 @ ../GUILib/src/extra/layouts/grid/lv_grid.c:0:0
	str	r0, [sp, #40]                   @ 4-byte Spill
.Ltmp318:
	@DEBUG_VALUE: item_repos:x <- [DW_OP_plus_uconst 40] [$sp+0]
	bic	r0, r1, #1024
.Ltmp319:
.LBB1_89:                               @   in Loop: Header=BB1_73 Depth=1
	@DEBUG_VALUE: grid_update:i <- $r10
	@DEBUG_VALUE: item <- $r7
	@DEBUG_VALUE: item_repos:item <- $r7
	@DEBUG_VALUE: grid_update:cont <- $r4
	@DEBUG_VALUE: item_repos:item_w <- [DW_OP_plus_uconst 48] [$sp+0]
	@DEBUG_VALUE: item_repos:row_align <- [DW_OP_plus_uconst 28, DW_OP_deref_size 4, DW_OP_LLVM_convert 32 7, DW_OP_LLVM_convert 8 7, DW_OP_stack_value] $sp
	@DEBUG_VALUE: item_repos:row_y1 <- [DW_OP_plus_uconst 32] [$sp+0]
	@DEBUG_VALUE: item_repos:row_pos <- [DW_OP_plus_uconst 44] [$sp+0]
	@DEBUG_VALUE: item_repos:col_pos <- [DW_OP_plus_uconst 20] [$sp+0]
	@DEBUG_VALUE: item_repos:c <- [DW_OP_plus_uconst 64, DW_OP_stack_value] $sp
	@DEBUG_VALUE: item_repos:hint <- [DW_OP_plus_uconst 52, DW_OP_stack_value] $sp
	@DEBUG_VALUE: grid_update:user_data <- [DW_OP_LLVM_entry_value 1] $r1
	strh	r0, [r7, #34]
	ldr	r1, [sp, #32]                   @ 4-byte Reload
	ldrd	r3, r2, [sp, #24]               @ 8-byte Folded Reload
.Ltmp320:
	sub.w	r1, r9, r1
	movw	r8, #32769
	add	r1, r3
.Ltmp321:
	@DEBUG_VALUE: item_repos:row_h <- $r1
	sub.w	r3, r5, r11
.Ltmp322:
	.loc	2 91 12 is_stmt 1               @ ../GUILib/src/extra/layouts/grid/lv_grid.c:91:12
	uxtb	r2, r2
	movt	r8, #1
.Ltmp323:
	.loc	2 634 5                         @ ../GUILib/src/extra/layouts/grid/lv_grid.c:634:5
	cmp	r2, #1
	.loc	2 0 0 is_stmt 0                 @ ../GUILib/src/extra/layouts/grid/lv_grid.c:0:0
	add.w	r9, r3, #1
.Ltmp324:
	@DEBUG_VALUE: item_repos:x <- [DW_OP_plus_uconst 40] [$sp+0]
	@DEBUG_VALUE: item_repos:item_w <- [DW_OP_plus_uconst 48] [$sp+0]
	@DEBUG_VALUE: item_repos:item_h <- $r9
	.loc	2 634 5                         @ ../GUILib/src/extra/layouts/grid/lv_grid.c:634:5
	beq	.LBB1_93
.Ltmp325:
@ %bb.90:                               @   in Loop: Header=BB1_73 Depth=1
	@DEBUG_VALUE: grid_update:i <- $r10
	@DEBUG_VALUE: item_repos:item_h <- $r9
	@DEBUG_VALUE: item <- $r7
	@DEBUG_VALUE: item_repos:item <- $r7
	@DEBUG_VALUE: grid_update:cont <- $r4
	@DEBUG_VALUE: item_repos:row_h <- $r1
	@DEBUG_VALUE: item_repos:x <- [DW_OP_plus_uconst 40] [$sp+0]
	@DEBUG_VALUE: item_repos:item_w <- [DW_OP_plus_uconst 48] [$sp+0]
	@DEBUG_VALUE: item_repos:row_align <- [DW_OP_plus_uconst 28, DW_OP_deref_size 4, DW_OP_LLVM_convert 32 7, DW_OP_LLVM_convert 8 7, DW_OP_stack_value] $sp
	@DEBUG_VALUE: item_repos:row_y1 <- [DW_OP_plus_uconst 32] [$sp+0]
	@DEBUG_VALUE: item_repos:row_pos <- [DW_OP_plus_uconst 44] [$sp+0]
	@DEBUG_VALUE: item_repos:col_pos <- [DW_OP_plus_uconst 20] [$sp+0]
	@DEBUG_VALUE: item_repos:c <- [DW_OP_plus_uconst 64, DW_OP_stack_value] $sp
	@DEBUG_VALUE: item_repos:hint <- [DW_OP_plus_uconst 52, DW_OP_stack_value] $sp
	@DEBUG_VALUE: grid_update:user_data <- [DW_OP_LLVM_entry_value 1] $r1
	cmp	r2, #2
	beq	.LBB1_94
.Ltmp326:
@ %bb.91:                               @   in Loop: Header=BB1_73 Depth=1
	@DEBUG_VALUE: grid_update:i <- $r10
	@DEBUG_VALUE: item_repos:item_h <- $r9
	@DEBUG_VALUE: item <- $r7
	@DEBUG_VALUE: item_repos:item <- $r7
	@DEBUG_VALUE: grid_update:cont <- $r4
	@DEBUG_VALUE: item_repos:row_h <- $r1
	@DEBUG_VALUE: item_repos:x <- [DW_OP_plus_uconst 40] [$sp+0]
	@DEBUG_VALUE: item_repos:item_w <- [DW_OP_plus_uconst 48] [$sp+0]
	@DEBUG_VALUE: item_repos:row_align <- [DW_OP_plus_uconst 28, DW_OP_deref_size 4, DW_OP_LLVM_convert 32 7, DW_OP_LLVM_convert 8 7, DW_OP_stack_value] $sp
	@DEBUG_VALUE: item_repos:row_y1 <- [DW_OP_plus_uconst 32] [$sp+0]
	@DEBUG_VALUE: item_repos:row_pos <- [DW_OP_plus_uconst 44] [$sp+0]
	@DEBUG_VALUE: item_repos:col_pos <- [DW_OP_plus_uconst 20] [$sp+0]
	@DEBUG_VALUE: item_repos:c <- [DW_OP_plus_uconst 64, DW_OP_stack_value] $sp
	@DEBUG_VALUE: item_repos:hint <- [DW_OP_plus_uconst 52, DW_OP_stack_value] $sp
	@DEBUG_VALUE: grid_update:user_data <- [DW_OP_LLVM_entry_value 1] $r1
	.loc	2 0 5                           @ ../GUILib/src/extra/layouts/grid/lv_grid.c:0:5
	ldr	r5, [sp, #48]                   @ 4-byte Reload
	.loc	2 634 5                         @ ../GUILib/src/extra/layouts/grid/lv_grid.c:634:5
	cmp	r2, #3
	bne	.LBB1_96
.Ltmp327:
@ %bb.92:                               @   in Loop: Header=BB1_73 Depth=1
	@DEBUG_VALUE: grid_update:i <- $r10
	@DEBUG_VALUE: item_repos:item_h <- $r9
	@DEBUG_VALUE: item <- $r7
	@DEBUG_VALUE: item_repos:item <- $r7
	@DEBUG_VALUE: grid_update:cont <- $r4
	@DEBUG_VALUE: item_repos:row_h <- $r1
	@DEBUG_VALUE: item_repos:x <- [DW_OP_plus_uconst 40] [$sp+0]
	@DEBUG_VALUE: item_repos:item_w <- [DW_OP_plus_uconst 48] [$sp+0]
	@DEBUG_VALUE: item_repos:row_align <- [DW_OP_plus_uconst 28, DW_OP_deref_size 4, DW_OP_LLVM_convert 32 7, DW_OP_LLVM_convert 8 7, DW_OP_stack_value] $sp
	@DEBUG_VALUE: item_repos:row_y1 <- [DW_OP_plus_uconst 32] [$sp+0]
	@DEBUG_VALUE: item_repos:row_pos <- [DW_OP_plus_uconst 44] [$sp+0]
	@DEBUG_VALUE: item_repos:col_pos <- [DW_OP_plus_uconst 20] [$sp+0]
	@DEBUG_VALUE: item_repos:c <- [DW_OP_plus_uconst 64, DW_OP_stack_value] $sp
	@DEBUG_VALUE: item_repos:hint <- [DW_OP_plus_uconst 52, DW_OP_stack_value] $sp
	@DEBUG_VALUE: grid_update:user_data <- [DW_OP_LLVM_entry_value 1] $r1
	.loc	2 641 20 is_stmt 1              @ ../GUILib/src/extra/layouts/grid/lv_grid.c:641:20
	ldr	r2, [sp, #68]
	.loc	2 641 17 is_stmt 0              @ ../GUILib/src/extra/layouts/grid/lv_grid.c:641:17
	ldr	r3, [sp, #44]                   @ 4-byte Reload
	.loc	2 643 28 is_stmt 1              @ ../GUILib/src/extra/layouts/grid/lv_grid.c:643:28
	orr	r0, r0, #512
	.loc	2 641 17                        @ ../GUILib/src/extra/layouts/grid/lv_grid.c:641:17
	ldrh.w	r2, [r2, r3, lsl #1]
.Ltmp328:
	@DEBUG_VALUE: item_repos:y <- undef
	@DEBUG_VALUE: item_repos:item_h <- $r1
	.loc	2 643 28                        @ ../GUILib/src/extra/layouts/grid/lv_grid.c:643:28
	strh	r0, [r7, #34]
	str	r2, [sp, #44]                   @ 4-byte Spill
.Ltmp329:
	.loc	2 0 0 is_stmt 0                 @ ../GUILib/src/extra/layouts/grid/lv_grid.c:0:0
	mov	r9, r1
.Ltmp330:
	@DEBUG_VALUE: item_repos:row_h <- $r9
	@DEBUG_VALUE: item_repos:item_h <- $r9
	b	.LBB1_97
.Ltmp331:
.LBB1_93:                               @   in Loop: Header=BB1_73 Depth=1
	@DEBUG_VALUE: grid_update:i <- $r10
	@DEBUG_VALUE: item_repos:item_h <- $r9
	@DEBUG_VALUE: item <- $r7
	@DEBUG_VALUE: item_repos:item <- $r7
	@DEBUG_VALUE: grid_update:cont <- $r4
	@DEBUG_VALUE: item_repos:row_h <- $r1
	@DEBUG_VALUE: item_repos:x <- [DW_OP_plus_uconst 40] [$sp+0]
	@DEBUG_VALUE: item_repos:item_w <- [DW_OP_plus_uconst 48] [$sp+0]
	@DEBUG_VALUE: item_repos:row_align <- [DW_OP_plus_uconst 28, DW_OP_deref_size 4, DW_OP_LLVM_convert 32 7, DW_OP_LLVM_convert 8 7, DW_OP_stack_value] $sp
	@DEBUG_VALUE: item_repos:row_y1 <- [DW_OP_plus_uconst 32] [$sp+0]
	@DEBUG_VALUE: item_repos:row_pos <- [DW_OP_plus_uconst 44] [$sp+0]
	@DEBUG_VALUE: item_repos:col_pos <- [DW_OP_plus_uconst 20] [$sp+0]
	@DEBUG_VALUE: item_repos:c <- [DW_OP_plus_uconst 64, DW_OP_stack_value] $sp
	@DEBUG_VALUE: item_repos:hint <- [DW_OP_plus_uconst 52, DW_OP_stack_value] $sp
	@DEBUG_VALUE: grid_update:user_data <- [DW_OP_LLVM_entry_value 1] $r1
	.loc	2 646 20 is_stmt 1              @ ../GUILib/src/extra/layouts/grid/lv_grid.c:646:20
	ldr	r2, [sp, #68]
	.loc	2 646 17 is_stmt 0              @ ../GUILib/src/extra/layouts/grid/lv_grid.c:646:17
	ldr	r3, [sp, #44]                   @ 4-byte Reload
	.loc	2 646 34                        @ ../GUILib/src/extra/layouts/grid/lv_grid.c:646:34
	sxth	r1, r1
.Ltmp332:
	.loc	2 646 17                        @ ../GUILib/src/extra/layouts/grid/lv_grid.c:646:17
	ldrh.w	r2, [r2, r3, lsl #1]
	.loc	2 646 42                        @ ../GUILib/src/extra/layouts/grid/lv_grid.c:646:42
	sxth.w	r3, r9
	.loc	2 646 40                        @ ../GUILib/src/extra/layouts/grid/lv_grid.c:646:40
	subs	r1, r1, r3
	.loc	2 646 50                        @ ../GUILib/src/extra/layouts/grid/lv_grid.c:646:50
	add.w	r1, r1, r1, lsr #31
	.loc	2 646 17                        @ ../GUILib/src/extra/layouts/grid/lv_grid.c:646:17
	add.w	r1, r2, r1, lsr #1
.Ltmp333:
	@DEBUG_VALUE: item_repos:y <- $r1
	.loc	2 647 28 is_stmt 1              @ ../GUILib/src/extra/layouts/grid/lv_grid.c:647:28
	str	r1, [sp, #44]                   @ 4-byte Spill
.Ltmp334:
	@DEBUG_VALUE: item_repos:y <- [DW_OP_plus_uconst 44] [$sp+0]
	@DEBUG_VALUE: item_repos:y <- [DW_OP_plus_uconst 44] [$sp+0]
	movw	r1, #65023
	ands	r0, r1
	b	.LBB1_95
.Ltmp335:
.LBB1_94:                               @   in Loop: Header=BB1_73 Depth=1
	@DEBUG_VALUE: grid_update:i <- $r10
	@DEBUG_VALUE: item_repos:item_h <- $r9
	@DEBUG_VALUE: item <- $r7
	@DEBUG_VALUE: item_repos:item <- $r7
	@DEBUG_VALUE: grid_update:cont <- $r4
	@DEBUG_VALUE: item_repos:row_h <- $r1
	@DEBUG_VALUE: item_repos:x <- [DW_OP_plus_uconst 40] [$sp+0]
	@DEBUG_VALUE: item_repos:item_w <- [DW_OP_plus_uconst 48] [$sp+0]
	@DEBUG_VALUE: item_repos:row_align <- [DW_OP_plus_uconst 28, DW_OP_deref_size 4, DW_OP_LLVM_convert 32 7, DW_OP_LLVM_convert 8 7, DW_OP_stack_value] $sp
	@DEBUG_VALUE: item_repos:row_y1 <- [DW_OP_plus_uconst 32] [$sp+0]
	@DEBUG_VALUE: item_repos:row_pos <- [DW_OP_plus_uconst 44] [$sp+0]
	@DEBUG_VALUE: item_repos:col_pos <- [DW_OP_plus_uconst 20] [$sp+0]
	@DEBUG_VALUE: item_repos:c <- [DW_OP_plus_uconst 64, DW_OP_stack_value] $sp
	@DEBUG_VALUE: item_repos:hint <- [DW_OP_plus_uconst 52, DW_OP_stack_value] $sp
	@DEBUG_VALUE: grid_update:user_data <- [DW_OP_LLVM_entry_value 1] $r1
	.loc	2 650 20                        @ ../GUILib/src/extra/layouts/grid/lv_grid.c:650:20
	ldr	r0, [sp, #68]
	.loc	2 650 17 is_stmt 0              @ ../GUILib/src/extra/layouts/grid/lv_grid.c:650:17
	ldr	r2, [sp, #44]                   @ 4-byte Reload
	ldrh.w	r0, [r0, r2, lsl #1]
	.loc	2 650 31                        @ ../GUILib/src/extra/layouts/grid/lv_grid.c:650:31
	add.w	r8, r0, r1
	.loc	2 650 41                        @ ../GUILib/src/extra/layouts/grid/lv_grid.c:650:41
	mov	r0, r7
	bl	lv_obj_get_height
.Ltmp336:
	.loc	2 651 28 is_stmt 1              @ ../GUILib/src/extra/layouts/grid/lv_grid.c:651:28
	ldrh	r1, [r7, #34]
	.loc	2 650 39                        @ ../GUILib/src/extra/layouts/grid/lv_grid.c:650:39
	sub.w	r0, r8, r0
.Ltmp337:
	@DEBUG_VALUE: item_repos:y <- $r0
	.loc	2 0 39 is_stmt 0                @ ../GUILib/src/extra/layouts/grid/lv_grid.c:0:39
	movw	r8, #32769
	.loc	2 651 28 is_stmt 1              @ ../GUILib/src/extra/layouts/grid/lv_grid.c:651:28
	str	r0, [sp, #44]                   @ 4-byte Spill
.Ltmp338:
	@DEBUG_VALUE: item_repos:y <- [DW_OP_plus_uconst 44] [$sp+0]
	@DEBUG_VALUE: item_repos:y <- [DW_OP_plus_uconst 44] [$sp+0]
	bic	r0, r1, #512
	movt	r8, #1
.Ltmp339:
.LBB1_95:                               @   in Loop: Header=BB1_73 Depth=1
	@DEBUG_VALUE: grid_update:i <- $r10
	@DEBUG_VALUE: item_repos:item_h <- $r9
	@DEBUG_VALUE: item <- $r7
	@DEBUG_VALUE: item_repos:item <- $r7
	@DEBUG_VALUE: grid_update:cont <- $r4
	@DEBUG_VALUE: item_repos:y <- [DW_OP_plus_uconst 44] [$sp+0]
	@DEBUG_VALUE: item_repos:x <- [DW_OP_plus_uconst 40] [$sp+0]
	@DEBUG_VALUE: item_repos:item_w <- [DW_OP_plus_uconst 48] [$sp+0]
	@DEBUG_VALUE: item_repos:row_align <- [DW_OP_plus_uconst 28, DW_OP_deref_size 4, DW_OP_LLVM_convert 32 7, DW_OP_LLVM_convert 8 7, DW_OP_stack_value] $sp
	@DEBUG_VALUE: item_repos:row_y1 <- [DW_OP_plus_uconst 32] [$sp+0]
	@DEBUG_VALUE: item_repos:row_pos <- [DW_OP_plus_uconst 44] [$sp+0]
	@DEBUG_VALUE: item_repos:col_pos <- [DW_OP_plus_uconst 20] [$sp+0]
	@DEBUG_VALUE: item_repos:c <- [DW_OP_plus_uconst 64, DW_OP_stack_value] $sp
	@DEBUG_VALUE: item_repos:hint <- [DW_OP_plus_uconst 52, DW_OP_stack_value] $sp
	@DEBUG_VALUE: grid_update:user_data <- [DW_OP_LLVM_entry_value 1] $r1
	.loc	2 0 0 is_stmt 0                 @ ../GUILib/src/extra/layouts/grid/lv_grid.c:0:0
	strh	r0, [r7, #34]
	ldr	r5, [sp, #48]                   @ 4-byte Reload
	b	.LBB1_98
.Ltmp340:
.LBB1_96:                               @   in Loop: Header=BB1_73 Depth=1
	@DEBUG_VALUE: grid_update:i <- $r10
	@DEBUG_VALUE: item_repos:item_h <- $r9
	@DEBUG_VALUE: item <- $r7
	@DEBUG_VALUE: item_repos:item <- $r7
	@DEBUG_VALUE: grid_update:cont <- $r4
	@DEBUG_VALUE: item_repos:row_h <- $r1
	@DEBUG_VALUE: item_repos:x <- [DW_OP_plus_uconst 40] [$sp+0]
	@DEBUG_VALUE: item_repos:item_w <- [DW_OP_plus_uconst 48] [$sp+0]
	@DEBUG_VALUE: item_repos:row_align <- [DW_OP_plus_uconst 28, DW_OP_deref_size 4, DW_OP_LLVM_convert 32 7, DW_OP_LLVM_convert 8 7, DW_OP_stack_value] $sp
	@DEBUG_VALUE: item_repos:row_y1 <- [DW_OP_plus_uconst 32] [$sp+0]
	@DEBUG_VALUE: item_repos:row_pos <- [DW_OP_plus_uconst 44] [$sp+0]
	@DEBUG_VALUE: item_repos:col_pos <- [DW_OP_plus_uconst 20] [$sp+0]
	@DEBUG_VALUE: item_repos:c <- [DW_OP_plus_uconst 64, DW_OP_stack_value] $sp
	@DEBUG_VALUE: item_repos:hint <- [DW_OP_plus_uconst 52, DW_OP_stack_value] $sp
	@DEBUG_VALUE: grid_update:user_data <- [DW_OP_LLVM_entry_value 1] $r1
	.loc	2 637 20 is_stmt 1              @ ../GUILib/src/extra/layouts/grid/lv_grid.c:637:20
	ldr	r1, [sp, #68]
.Ltmp341:
	.loc	2 637 17 is_stmt 0              @ ../GUILib/src/extra/layouts/grid/lv_grid.c:637:17
	ldr	r2, [sp, #44]                   @ 4-byte Reload
	ldrh.w	r1, [r1, r2, lsl #1]
.Ltmp342:
	@DEBUG_VALUE: item_repos:y <- undef
	.loc	2 638 28 is_stmt 1              @ ../GUILib/src/extra/layouts/grid/lv_grid.c:638:28
	str	r1, [sp, #44]                   @ 4-byte Spill
	movw	r1, #65023
	ands	r0, r1
	strh	r0, [r7, #34]
.Ltmp343:
.LBB1_97:                               @   in Loop: Header=BB1_73 Depth=1
	@DEBUG_VALUE: grid_update:i <- $r10
	@DEBUG_VALUE: item_repos:item_h <- $r9
	@DEBUG_VALUE: item <- $r7
	@DEBUG_VALUE: item_repos:item <- $r7
	@DEBUG_VALUE: grid_update:cont <- $r4
	@DEBUG_VALUE: item_repos:x <- [DW_OP_plus_uconst 40] [$sp+0]
	@DEBUG_VALUE: item_repos:item_w <- [DW_OP_plus_uconst 48] [$sp+0]
	@DEBUG_VALUE: item_repos:row_align <- [DW_OP_plus_uconst 28, DW_OP_deref_size 4, DW_OP_LLVM_convert 32 7, DW_OP_LLVM_convert 8 7, DW_OP_stack_value] $sp
	@DEBUG_VALUE: item_repos:row_y1 <- [DW_OP_plus_uconst 32] [$sp+0]
	@DEBUG_VALUE: item_repos:row_pos <- [DW_OP_plus_uconst 44] [$sp+0]
	@DEBUG_VALUE: item_repos:col_pos <- [DW_OP_plus_uconst 20] [$sp+0]
	@DEBUG_VALUE: item_repos:c <- [DW_OP_plus_uconst 64, DW_OP_stack_value] $sp
	@DEBUG_VALUE: item_repos:hint <- [DW_OP_plus_uconst 52, DW_OP_stack_value] $sp
	@DEBUG_VALUE: grid_update:user_data <- [DW_OP_LLVM_entry_value 1] $r1
	.loc	2 0 28 is_stmt 0                @ ../GUILib/src/extra/layouts/grid/lv_grid.c:0:28
	movw	r8, #32769
	movt	r8, #1
.Ltmp344:
.LBB1_98:                               @   in Loop: Header=BB1_73 Depth=1
	@DEBUG_VALUE: grid_update:i <- $r10
	@DEBUG_VALUE: item_repos:item_h <- $r9
	@DEBUG_VALUE: item <- $r7
	@DEBUG_VALUE: item_repos:item <- $r7
	@DEBUG_VALUE: grid_update:cont <- $r4
	@DEBUG_VALUE: item_repos:x <- [DW_OP_plus_uconst 40] [$sp+0]
	@DEBUG_VALUE: item_repos:item_w <- [DW_OP_plus_uconst 48] [$sp+0]
	@DEBUG_VALUE: item_repos:row_align <- [DW_OP_plus_uconst 28, DW_OP_deref_size 4, DW_OP_LLVM_convert 32 7, DW_OP_LLVM_convert 8 7, DW_OP_stack_value] $sp
	@DEBUG_VALUE: item_repos:row_y1 <- [DW_OP_plus_uconst 32] [$sp+0]
	@DEBUG_VALUE: item_repos:row_pos <- [DW_OP_plus_uconst 44] [$sp+0]
	@DEBUG_VALUE: item_repos:col_pos <- [DW_OP_plus_uconst 20] [$sp+0]
	@DEBUG_VALUE: item_repos:c <- [DW_OP_plus_uconst 64, DW_OP_stack_value] $sp
	@DEBUG_VALUE: item_repos:hint <- [DW_OP_plus_uconst 52, DW_OP_stack_value] $sp
	@DEBUG_VALUE: grid_update:user_data <- [DW_OP_LLVM_entry_value 1] $r1
	@DEBUG_VALUE: item_repos:item_h <- $r9
	@DEBUG_VALUE: item_repos:y <- [DW_OP_plus_uconst 44] [$sp+0]
	.loc	2 656 8 is_stmt 1               @ ../GUILib/src/extra/layouts/grid/lv_grid.c:656:8
	mov	r0, r7
	bl	lv_obj_get_width
.Ltmp345:
	uxth	r0, r0
	.loc	2 656 31 is_stmt 0              @ ../GUILib/src/extra/layouts/grid/lv_grid.c:656:31
	uxth	r1, r5
	.loc	2 656 41                        @ ../GUILib/src/extra/layouts/grid/lv_grid.c:656:41
	cmp	r0, r1
	bne	.LBB1_100
.Ltmp346:
@ %bb.99:                               @   in Loop: Header=BB1_73 Depth=1
	@DEBUG_VALUE: grid_update:i <- $r10
	@DEBUG_VALUE: item_repos:item_h <- $r9
	@DEBUG_VALUE: item <- $r7
	@DEBUG_VALUE: item_repos:item <- $r7
	@DEBUG_VALUE: grid_update:cont <- $r4
	@DEBUG_VALUE: item_repos:y <- [DW_OP_plus_uconst 44] [$sp+0]
	@DEBUG_VALUE: item_repos:x <- [DW_OP_plus_uconst 40] [$sp+0]
	@DEBUG_VALUE: item_repos:item_w <- [DW_OP_plus_uconst 48] [$sp+0]
	@DEBUG_VALUE: item_repos:row_align <- [DW_OP_plus_uconst 28, DW_OP_deref_size 4, DW_OP_LLVM_convert 32 7, DW_OP_LLVM_convert 8 7, DW_OP_stack_value] $sp
	@DEBUG_VALUE: item_repos:row_y1 <- [DW_OP_plus_uconst 32] [$sp+0]
	@DEBUG_VALUE: item_repos:row_pos <- [DW_OP_plus_uconst 44] [$sp+0]
	@DEBUG_VALUE: item_repos:col_pos <- [DW_OP_plus_uconst 20] [$sp+0]
	@DEBUG_VALUE: item_repos:c <- [DW_OP_plus_uconst 64, DW_OP_stack_value] $sp
	@DEBUG_VALUE: item_repos:hint <- [DW_OP_plus_uconst 52, DW_OP_stack_value] $sp
	@DEBUG_VALUE: grid_update:user_data <- [DW_OP_LLVM_entry_value 1] $r1
	.loc	2 656 44                        @ ../GUILib/src/extra/layouts/grid/lv_grid.c:656:44
	mov	r0, r7
	bl	lv_obj_get_height
.Ltmp347:
	uxth	r0, r0
	.loc	2 656 68                        @ ../GUILib/src/extra/layouts/grid/lv_grid.c:656:68
	uxth.w	r1, r9
.Ltmp348:
	.loc	2 656 8                         @ ../GUILib/src/extra/layouts/grid/lv_grid.c:656:8
	cmp	r0, r1
	beq	.LBB1_101
.Ltmp349:
.LBB1_100:                              @   in Loop: Header=BB1_73 Depth=1
	@DEBUG_VALUE: grid_update:i <- $r10
	@DEBUG_VALUE: item_repos:item_h <- $r9
	@DEBUG_VALUE: item <- $r7
	@DEBUG_VALUE: item_repos:item <- $r7
	@DEBUG_VALUE: grid_update:cont <- $r4
	@DEBUG_VALUE: item_repos:y <- [DW_OP_plus_uconst 44] [$sp+0]
	@DEBUG_VALUE: item_repos:x <- [DW_OP_plus_uconst 40] [$sp+0]
	@DEBUG_VALUE: item_repos:item_w <- [DW_OP_plus_uconst 48] [$sp+0]
	@DEBUG_VALUE: item_repos:row_align <- [DW_OP_plus_uconst 28, DW_OP_deref_size 4, DW_OP_LLVM_convert 32 7, DW_OP_LLVM_convert 8 7, DW_OP_stack_value] $sp
	@DEBUG_VALUE: item_repos:row_y1 <- [DW_OP_plus_uconst 32] [$sp+0]
	@DEBUG_VALUE: item_repos:row_pos <- [DW_OP_plus_uconst 44] [$sp+0]
	@DEBUG_VALUE: item_repos:col_pos <- [DW_OP_plus_uconst 20] [$sp+0]
	@DEBUG_VALUE: item_repos:c <- [DW_OP_plus_uconst 64, DW_OP_stack_value] $sp
	@DEBUG_VALUE: item_repos:hint <- [DW_OP_plus_uconst 52, DW_OP_stack_value] $sp
	@DEBUG_VALUE: grid_update:user_data <- [DW_OP_LLVM_entry_value 1] $r1
	@DEBUG_VALUE: lv_area_copy:dest <- [DW_OP_plus_uconst 92, DW_OP_stack_value] $sp
	@DEBUG_VALUE: lv_area_copy:src <- $r6
	.loc	8 112 21 is_stmt 1              @ ../GUILib/src/hal/../misc/lv_area.h:112:21
	ldr	r0, [r7, #20]
	.loc	8 114 21                        @ ../GUILib/src/hal/../misc/lv_area.h:114:21
	ldr	r1, [r7, #24]
	.loc	8 112 14                        @ ../GUILib/src/hal/../misc/lv_area.h:112:14
	strd	r0, r1, [sp, #92]
.Ltmp350:
	.loc	2 659 9                         @ ../GUILib/src/extra/layouts/grid/lv_grid.c:659:9
	mov	r0, r7
	bl	lv_obj_invalidate
.Ltmp351:
	.loc	2 660 9                         @ ../GUILib/src/extra/layouts/grid/lv_grid.c:660:9
	sxth	r1, r5
	mov	r0, r6
	bl	lv_area_set_width
.Ltmp352:
	.loc	2 661 9                         @ ../GUILib/src/extra/layouts/grid/lv_grid.c:661:9
	sxth.w	r1, r9
	mov	r0, r6
	bl	lv_area_set_height
.Ltmp353:
	.loc	2 662 9                         @ ../GUILib/src/extra/layouts/grid/lv_grid.c:662:9
	mov	r0, r7
	bl	lv_obj_invalidate
.Ltmp354:
	.loc	2 663 9                         @ ../GUILib/src/extra/layouts/grid/lv_grid.c:663:9
	mov	r0, r7
	movs	r1, #41
	add	r2, sp, #92
	bl	lv_event_send
.Ltmp355:
	.loc	2 664 23                        @ ../GUILib/src/extra/layouts/grid/lv_grid.c:664:23
	mov	r0, r7
	bl	lv_obj_get_parent
.Ltmp356:
	.loc	2 664 9 is_stmt 0               @ ../GUILib/src/extra/layouts/grid/lv_grid.c:664:9
	movs	r1, #34
	mov	r2, r7
	bl	lv_event_send
.Ltmp357:
.LBB1_101:                              @   in Loop: Header=BB1_73 Depth=1
	@DEBUG_VALUE: grid_update:i <- $r10
	@DEBUG_VALUE: item_repos:item_h <- $r9
	@DEBUG_VALUE: item <- $r7
	@DEBUG_VALUE: item_repos:item <- $r7
	@DEBUG_VALUE: grid_update:cont <- $r4
	@DEBUG_VALUE: item_repos:y <- [DW_OP_plus_uconst 44] [$sp+0]
	@DEBUG_VALUE: item_repos:x <- [DW_OP_plus_uconst 40] [$sp+0]
	@DEBUG_VALUE: item_repos:item_w <- [DW_OP_plus_uconst 48] [$sp+0]
	@DEBUG_VALUE: item_repos:row_align <- [DW_OP_plus_uconst 28, DW_OP_deref_size 4, DW_OP_LLVM_convert 32 7, DW_OP_LLVM_convert 8 7, DW_OP_stack_value] $sp
	@DEBUG_VALUE: item_repos:row_y1 <- [DW_OP_plus_uconst 32] [$sp+0]
	@DEBUG_VALUE: item_repos:row_pos <- [DW_OP_plus_uconst 44] [$sp+0]
	@DEBUG_VALUE: item_repos:col_pos <- [DW_OP_plus_uconst 20] [$sp+0]
	@DEBUG_VALUE: item_repos:c <- [DW_OP_plus_uconst 64, DW_OP_stack_value] $sp
	@DEBUG_VALUE: item_repos:hint <- [DW_OP_plus_uconst 52, DW_OP_stack_value] $sp
	@DEBUG_VALUE: grid_update:user_data <- [DW_OP_LLVM_entry_value 1] $r1
	@DEBUG_VALUE: lv_obj_get_style_translate_x:obj <- $r7
	@DEBUG_VALUE: lv_obj_get_style_translate_x:part <- 0
	.loc	9 69 26 is_stmt 1               @ ../GUILib/src/extra/layouts/grid/../flex/../../../core/lv_obj_style_gen.h:69:26
	mov	r0, r7
	movs	r1, #0
	movw	r2, #12300
	bl	lv_obj_get_style_prop
.Ltmp358:
	mov	r5, r0
.Ltmp359:
	@DEBUG_VALUE: lv_obj_get_style_translate_y:part <- 0
	@DEBUG_VALUE: lv_obj_get_style_translate_y:obj <- $r7
	@DEBUG_VALUE: item_repos:tr_x <- [DW_OP_LLVM_convert 32 7, DW_OP_LLVM_convert 16 7, DW_OP_stack_value] $r5
	@DEBUG_VALUE: lv_obj_get_style_translate_x:v <- $r5
	.loc	9 75 26                         @ ../GUILib/src/extra/layouts/grid/../flex/../../../core/lv_obj_style_gen.h:75:26
	mov	r0, r7
	movs	r1, #0
	movw	r2, #12301
	bl	lv_obj_get_style_prop
.Ltmp360:
	mov	r6, r0
.Ltmp361:
	@DEBUG_VALUE: item_repos:tr_y <- [DW_OP_LLVM_convert 32 7, DW_OP_LLVM_convert 16 7, DW_OP_stack_value] $r6
	@DEBUG_VALUE: lv_obj_get_style_translate_y:v <- $r6
	.loc	2 671 20                        @ ../GUILib/src/extra/layouts/grid/lv_grid.c:671:20
	mov	r0, r7
	bl	lv_obj_get_width
.Ltmp362:
	mov	r9, r0
.Ltmp363:
	@DEBUG_VALUE: item_repos:w <- undef
	.loc	2 672 20                        @ ../GUILib/src/extra/layouts/grid/lv_grid.c:672:20
	mov	r0, r7
	bl	lv_obj_get_height
.Ltmp364:
	.loc	2 673 8                         @ ../GUILib/src/extra/layouts/grid/lv_grid.c:673:8
	and	r1, r5, #24576
	cmp.w	r1, #8192
.Ltmp365:
	@DEBUG_VALUE: item_repos:h <- undef
	bne	.LBB1_104
.Ltmp366:
@ %bb.102:                              @   in Loop: Header=BB1_73 Depth=1
	@DEBUG_VALUE: grid_update:i <- $r10
	@DEBUG_VALUE: item <- $r7
	@DEBUG_VALUE: item_repos:item <- $r7
	@DEBUG_VALUE: item_repos:tr_y <- [DW_OP_LLVM_convert 32 7, DW_OP_LLVM_convert 16 7, DW_OP_stack_value] $r6
	@DEBUG_VALUE: item_repos:tr_x <- [DW_OP_LLVM_convert 32 7, DW_OP_LLVM_convert 16 7, DW_OP_stack_value] $r5
	@DEBUG_VALUE: grid_update:cont <- $r4
	@DEBUG_VALUE: item_repos:y <- [DW_OP_plus_uconst 44] [$sp+0]
	@DEBUG_VALUE: item_repos:x <- [DW_OP_plus_uconst 40] [$sp+0]
	@DEBUG_VALUE: item_repos:item_w <- [DW_OP_plus_uconst 48] [$sp+0]
	@DEBUG_VALUE: item_repos:row_align <- [DW_OP_plus_uconst 28, DW_OP_deref_size 4, DW_OP_LLVM_convert 32 7, DW_OP_LLVM_convert 8 7, DW_OP_stack_value] $sp
	@DEBUG_VALUE: item_repos:row_y1 <- [DW_OP_plus_uconst 32] [$sp+0]
	@DEBUG_VALUE: item_repos:row_pos <- [DW_OP_plus_uconst 44] [$sp+0]
	@DEBUG_VALUE: item_repos:col_pos <- [DW_OP_plus_uconst 20] [$sp+0]
	@DEBUG_VALUE: item_repos:c <- [DW_OP_plus_uconst 64, DW_OP_stack_value] $sp
	@DEBUG_VALUE: item_repos:hint <- [DW_OP_plus_uconst 52, DW_OP_stack_value] $sp
	@DEBUG_VALUE: grid_update:user_data <- [DW_OP_LLVM_entry_value 1] $r1
	sxth	r1, r5
	bic	r1, r1, #24576
	ldr	r3, [sp, #44]                   @ 4-byte Reload
	cmp.w	r1, #2000
	bgt	.LBB1_105
.Ltmp367:
@ %bb.103:                              @   in Loop: Header=BB1_73 Depth=1
	@DEBUG_VALUE: grid_update:i <- $r10
	@DEBUG_VALUE: item <- $r7
	@DEBUG_VALUE: item_repos:item <- $r7
	@DEBUG_VALUE: item_repos:tr_y <- [DW_OP_LLVM_convert 32 7, DW_OP_LLVM_convert 16 7, DW_OP_stack_value] $r6
	@DEBUG_VALUE: item_repos:tr_x <- [DW_OP_LLVM_convert 32 7, DW_OP_LLVM_convert 16 7, DW_OP_stack_value] $r5
	@DEBUG_VALUE: grid_update:cont <- $r4
	@DEBUG_VALUE: item_repos:y <- [DW_OP_plus_uconst 44] [$sp+0]
	@DEBUG_VALUE: item_repos:x <- [DW_OP_plus_uconst 40] [$sp+0]
	@DEBUG_VALUE: item_repos:item_w <- [DW_OP_plus_uconst 48] [$sp+0]
	@DEBUG_VALUE: item_repos:row_align <- [DW_OP_plus_uconst 28, DW_OP_deref_size 4, DW_OP_LLVM_convert 32 7, DW_OP_LLVM_convert 8 7, DW_OP_stack_value] $sp
	@DEBUG_VALUE: item_repos:row_y1 <- [DW_OP_plus_uconst 32] [$sp+0]
	@DEBUG_VALUE: item_repos:row_pos <- [DW_OP_plus_uconst 44] [$sp+0]
	@DEBUG_VALUE: item_repos:col_pos <- [DW_OP_plus_uconst 20] [$sp+0]
	@DEBUG_VALUE: item_repos:c <- [DW_OP_plus_uconst 64, DW_OP_stack_value] $sp
	@DEBUG_VALUE: item_repos:hint <- [DW_OP_plus_uconst 52, DW_OP_stack_value] $sp
	@DEBUG_VALUE: grid_update:user_data <- [DW_OP_LLVM_entry_value 1] $r1
	.loc	2 673 43 is_stmt 0              @ ../GUILib/src/extra/layouts/grid/lv_grid.c:673:43
	cmp.w	r1, #1000
	it	gt
	rsbgt.w	r1, r1, #1000
	.loc	2 673 67                        @ ../GUILib/src/extra/layouts/grid/lv_grid.c:673:67
	movw	r2, #34079
	.loc	2 673 41                        @ ../GUILib/src/extra/layouts/grid/lv_grid.c:673:41
	mul	r1, r1, r9
	.loc	2 673 67                        @ ../GUILib/src/extra/layouts/grid/lv_grid.c:673:67
	movt	r2, #20971
	smmul	r1, r1, r2
	asrs	r2, r1, #5
	add.w	r5, r2, r1, lsr #31
.Ltmp368:
	@DEBUG_VALUE: item_repos:tr_x <- [DW_OP_LLVM_convert 32 7, DW_OP_LLVM_convert 16 7, DW_OP_stack_value] $r5
	.loc	2 0 67                          @ ../GUILib/src/extra/layouts/grid/lv_grid.c:0:67
	b	.LBB1_105
.Ltmp369:
.LBB1_104:                              @   in Loop: Header=BB1_73 Depth=1
	@DEBUG_VALUE: grid_update:i <- $r10
	@DEBUG_VALUE: lv_obj_get_style_translate_y:obj <- $r7
	@DEBUG_VALUE: lv_obj_get_style_translate_x:obj <- $r7
	@DEBUG_VALUE: item <- $r7
	@DEBUG_VALUE: item_repos:item <- $r7
	@DEBUG_VALUE: lv_obj_get_style_translate_y:v <- $r6
	@DEBUG_VALUE: item_repos:tr_y <- [DW_OP_LLVM_convert 32 7, DW_OP_LLVM_convert 16 7, DW_OP_stack_value] $r6
	@DEBUG_VALUE: lv_obj_get_style_translate_x:v <- $r5
	@DEBUG_VALUE: item_repos:tr_x <- [DW_OP_LLVM_convert 32 7, DW_OP_LLVM_convert 16 7, DW_OP_stack_value] $r5
	@DEBUG_VALUE: grid_update:cont <- $r4
	@DEBUG_VALUE: item_repos:y <- [DW_OP_plus_uconst 44] [$sp+0]
	@DEBUG_VALUE: item_repos:x <- [DW_OP_plus_uconst 40] [$sp+0]
	@DEBUG_VALUE: item_repos:item_w <- [DW_OP_plus_uconst 48] [$sp+0]
	@DEBUG_VALUE: item_repos:row_align <- [DW_OP_plus_uconst 28, DW_OP_deref_size 4, DW_OP_LLVM_convert 32 7, DW_OP_LLVM_convert 8 7, DW_OP_stack_value] $sp
	@DEBUG_VALUE: item_repos:row_y1 <- [DW_OP_plus_uconst 32] [$sp+0]
	@DEBUG_VALUE: item_repos:row_pos <- [DW_OP_plus_uconst 44] [$sp+0]
	@DEBUG_VALUE: item_repos:col_pos <- [DW_OP_plus_uconst 20] [$sp+0]
	@DEBUG_VALUE: item_repos:c <- [DW_OP_plus_uconst 64, DW_OP_stack_value] $sp
	@DEBUG_VALUE: item_repos:hint <- [DW_OP_plus_uconst 52, DW_OP_stack_value] $sp
	@DEBUG_VALUE: lv_obj_get_style_translate_y:part <- 0
	@DEBUG_VALUE: lv_obj_get_style_translate_x:part <- 0
	@DEBUG_VALUE: grid_update:user_data <- [DW_OP_LLVM_entry_value 1] $r1
	ldr	r3, [sp, #44]                   @ 4-byte Reload
.Ltmp370:
.LBB1_105:                              @   in Loop: Header=BB1_73 Depth=1
	@DEBUG_VALUE: grid_update:i <- $r10
	@DEBUG_VALUE: item <- $r7
	@DEBUG_VALUE: item_repos:item <- $r7
	@DEBUG_VALUE: item_repos:tr_y <- [DW_OP_LLVM_convert 32 7, DW_OP_LLVM_convert 16 7, DW_OP_stack_value] $r6
	@DEBUG_VALUE: item_repos:tr_x <- [DW_OP_LLVM_convert 32 7, DW_OP_LLVM_convert 16 7, DW_OP_stack_value] $r5
	@DEBUG_VALUE: grid_update:cont <- $r4
	@DEBUG_VALUE: item_repos:y <- [DW_OP_plus_uconst 44] [$sp+0]
	@DEBUG_VALUE: item_repos:x <- [DW_OP_plus_uconst 40] [$sp+0]
	@DEBUG_VALUE: item_repos:item_w <- [DW_OP_plus_uconst 48] [$sp+0]
	@DEBUG_VALUE: item_repos:row_align <- [DW_OP_plus_uconst 28, DW_OP_deref_size 4, DW_OP_LLVM_convert 32 7, DW_OP_LLVM_convert 8 7, DW_OP_stack_value] $sp
	@DEBUG_VALUE: item_repos:row_y1 <- [DW_OP_plus_uconst 32] [$sp+0]
	@DEBUG_VALUE: item_repos:row_pos <- [DW_OP_plus_uconst 44] [$sp+0]
	@DEBUG_VALUE: item_repos:col_pos <- [DW_OP_plus_uconst 20] [$sp+0]
	@DEBUG_VALUE: item_repos:c <- [DW_OP_plus_uconst 64, DW_OP_stack_value] $sp
	@DEBUG_VALUE: item_repos:hint <- [DW_OP_plus_uconst 52, DW_OP_stack_value] $sp
	@DEBUG_VALUE: grid_update:user_data <- [DW_OP_LLVM_entry_value 1] $r1
	@DEBUG_VALUE: item_repos:tr_x <- [DW_OP_LLVM_convert 32 7, DW_OP_LLVM_convert 16 7, DW_OP_stack_value] $r5
	.loc	2 674 8 is_stmt 1               @ ../GUILib/src/extra/layouts/grid/lv_grid.c:674:8
	and	r1, r6, #24576
	cmp.w	r1, #8192
	bne	.LBB1_108
.Ltmp371:
@ %bb.106:                              @   in Loop: Header=BB1_73 Depth=1
	@DEBUG_VALUE: grid_update:i <- $r10
	@DEBUG_VALUE: item <- $r7
	@DEBUG_VALUE: item_repos:item <- $r7
	@DEBUG_VALUE: item_repos:tr_y <- [DW_OP_LLVM_convert 32 7, DW_OP_LLVM_convert 16 7, DW_OP_stack_value] $r6
	@DEBUG_VALUE: item_repos:tr_x <- [DW_OP_LLVM_convert 32 7, DW_OP_LLVM_convert 16 7, DW_OP_stack_value] $r5
	@DEBUG_VALUE: grid_update:cont <- $r4
	@DEBUG_VALUE: item_repos:y <- [DW_OP_plus_uconst 44] [$sp+0]
	@DEBUG_VALUE: item_repos:x <- [DW_OP_plus_uconst 40] [$sp+0]
	@DEBUG_VALUE: item_repos:item_w <- [DW_OP_plus_uconst 48] [$sp+0]
	@DEBUG_VALUE: item_repos:row_align <- [DW_OP_plus_uconst 28, DW_OP_deref_size 4, DW_OP_LLVM_convert 32 7, DW_OP_LLVM_convert 8 7, DW_OP_stack_value] $sp
	@DEBUG_VALUE: item_repos:row_y1 <- [DW_OP_plus_uconst 32] [$sp+0]
	@DEBUG_VALUE: item_repos:row_pos <- [DW_OP_plus_uconst 44] [$sp+0]
	@DEBUG_VALUE: item_repos:col_pos <- [DW_OP_plus_uconst 20] [$sp+0]
	@DEBUG_VALUE: item_repos:c <- [DW_OP_plus_uconst 64, DW_OP_stack_value] $sp
	@DEBUG_VALUE: item_repos:hint <- [DW_OP_plus_uconst 52, DW_OP_stack_value] $sp
	@DEBUG_VALUE: grid_update:user_data <- [DW_OP_LLVM_entry_value 1] $r1
	sxth	r1, r6
	bic	r1, r1, #24576
	ldr	r2, [sp, #40]                   @ 4-byte Reload
	cmp.w	r1, #2000
	bgt	.LBB1_109
.Ltmp372:
@ %bb.107:                              @   in Loop: Header=BB1_73 Depth=1
	@DEBUG_VALUE: grid_update:i <- $r10
	@DEBUG_VALUE: item <- $r7
	@DEBUG_VALUE: item_repos:item <- $r7
	@DEBUG_VALUE: item_repos:tr_y <- [DW_OP_LLVM_convert 32 7, DW_OP_LLVM_convert 16 7, DW_OP_stack_value] $r6
	@DEBUG_VALUE: item_repos:tr_x <- [DW_OP_LLVM_convert 32 7, DW_OP_LLVM_convert 16 7, DW_OP_stack_value] $r5
	@DEBUG_VALUE: grid_update:cont <- $r4
	@DEBUG_VALUE: item_repos:y <- [DW_OP_plus_uconst 44] [$sp+0]
	@DEBUG_VALUE: item_repos:x <- [DW_OP_plus_uconst 40] [$sp+0]
	@DEBUG_VALUE: item_repos:item_w <- [DW_OP_plus_uconst 48] [$sp+0]
	@DEBUG_VALUE: item_repos:row_align <- [DW_OP_plus_uconst 28, DW_OP_deref_size 4, DW_OP_LLVM_convert 32 7, DW_OP_LLVM_convert 8 7, DW_OP_stack_value] $sp
	@DEBUG_VALUE: item_repos:row_y1 <- [DW_OP_plus_uconst 32] [$sp+0]
	@DEBUG_VALUE: item_repos:row_pos <- [DW_OP_plus_uconst 44] [$sp+0]
	@DEBUG_VALUE: item_repos:col_pos <- [DW_OP_plus_uconst 20] [$sp+0]
	@DEBUG_VALUE: item_repos:c <- [DW_OP_plus_uconst 64, DW_OP_stack_value] $sp
	@DEBUG_VALUE: item_repos:hint <- [DW_OP_plus_uconst 52, DW_OP_stack_value] $sp
	@DEBUG_VALUE: grid_update:user_data <- [DW_OP_LLVM_entry_value 1] $r1
	.loc	2 674 43 is_stmt 0              @ ../GUILib/src/extra/layouts/grid/lv_grid.c:674:43
	cmp.w	r1, #1000
	it	gt
	rsbgt.w	r1, r1, #1000
	.loc	2 674 41                        @ ../GUILib/src/extra/layouts/grid/lv_grid.c:674:41
	muls	r0, r1, r0
	.loc	2 674 67                        @ ../GUILib/src/extra/layouts/grid/lv_grid.c:674:67
	movw	r1, #34079
	movt	r1, #20971
	smmul	r0, r0, r1
	asrs	r1, r0, #5
	add.w	r6, r1, r0, lsr #31
.Ltmp373:
	@DEBUG_VALUE: item_repos:tr_y <- [DW_OP_LLVM_convert 32 7, DW_OP_LLVM_convert 16 7, DW_OP_stack_value] $r6
	.loc	2 0 67                          @ ../GUILib/src/extra/layouts/grid/lv_grid.c:0:67
	b	.LBB1_109
.Ltmp374:
.LBB1_108:                              @   in Loop: Header=BB1_73 Depth=1
	@DEBUG_VALUE: grid_update:i <- $r10
	@DEBUG_VALUE: item <- $r7
	@DEBUG_VALUE: item_repos:item <- $r7
	@DEBUG_VALUE: item_repos:tr_y <- [DW_OP_LLVM_convert 32 7, DW_OP_LLVM_convert 16 7, DW_OP_stack_value] $r6
	@DEBUG_VALUE: item_repos:tr_x <- [DW_OP_LLVM_convert 32 7, DW_OP_LLVM_convert 16 7, DW_OP_stack_value] $r5
	@DEBUG_VALUE: grid_update:cont <- $r4
	@DEBUG_VALUE: item_repos:y <- [DW_OP_plus_uconst 44] [$sp+0]
	@DEBUG_VALUE: item_repos:x <- [DW_OP_plus_uconst 40] [$sp+0]
	@DEBUG_VALUE: item_repos:item_w <- [DW_OP_plus_uconst 48] [$sp+0]
	@DEBUG_VALUE: item_repos:row_align <- [DW_OP_plus_uconst 28, DW_OP_deref_size 4, DW_OP_LLVM_convert 32 7, DW_OP_LLVM_convert 8 7, DW_OP_stack_value] $sp
	@DEBUG_VALUE: item_repos:row_y1 <- [DW_OP_plus_uconst 32] [$sp+0]
	@DEBUG_VALUE: item_repos:row_pos <- [DW_OP_plus_uconst 44] [$sp+0]
	@DEBUG_VALUE: item_repos:col_pos <- [DW_OP_plus_uconst 20] [$sp+0]
	@DEBUG_VALUE: item_repos:c <- [DW_OP_plus_uconst 64, DW_OP_stack_value] $sp
	@DEBUG_VALUE: item_repos:hint <- [DW_OP_plus_uconst 52, DW_OP_stack_value] $sp
	@DEBUG_VALUE: grid_update:user_data <- [DW_OP_LLVM_entry_value 1] $r1
	ldr	r2, [sp, #40]                   @ 4-byte Reload
.Ltmp375:
.LBB1_109:                              @   in Loop: Header=BB1_73 Depth=1
	@DEBUG_VALUE: grid_update:i <- $r10
	@DEBUG_VALUE: item <- $r7
	@DEBUG_VALUE: item_repos:item <- $r7
	@DEBUG_VALUE: item_repos:tr_y <- [DW_OP_LLVM_convert 32 7, DW_OP_LLVM_convert 16 7, DW_OP_stack_value] $r6
	@DEBUG_VALUE: item_repos:tr_x <- [DW_OP_LLVM_convert 32 7, DW_OP_LLVM_convert 16 7, DW_OP_stack_value] $r5
	@DEBUG_VALUE: grid_update:cont <- $r4
	@DEBUG_VALUE: item_repos:y <- [DW_OP_plus_uconst 44] [$sp+0]
	@DEBUG_VALUE: item_repos:x <- [DW_OP_plus_uconst 40] [$sp+0]
	@DEBUG_VALUE: item_repos:item_w <- [DW_OP_plus_uconst 48] [$sp+0]
	@DEBUG_VALUE: item_repos:row_align <- [DW_OP_plus_uconst 28, DW_OP_deref_size 4, DW_OP_LLVM_convert 32 7, DW_OP_LLVM_convert 8 7, DW_OP_stack_value] $sp
	@DEBUG_VALUE: item_repos:row_y1 <- [DW_OP_plus_uconst 32] [$sp+0]
	@DEBUG_VALUE: item_repos:row_pos <- [DW_OP_plus_uconst 44] [$sp+0]
	@DEBUG_VALUE: item_repos:col_pos <- [DW_OP_plus_uconst 20] [$sp+0]
	@DEBUG_VALUE: item_repos:c <- [DW_OP_plus_uconst 64, DW_OP_stack_value] $sp
	@DEBUG_VALUE: item_repos:hint <- [DW_OP_plus_uconst 52, DW_OP_stack_value] $sp
	@DEBUG_VALUE: grid_update:user_data <- [DW_OP_LLVM_entry_value 1] $r1
	@DEBUG_VALUE: item_repos:tr_y <- $r6
	.loc	2 676 7 is_stmt 1               @ ../GUILib/src/extra/layouts/grid/lv_grid.c:676:7
	adds	r0, r2, r5
.Ltmp376:
	@DEBUG_VALUE: item_repos:x <- $r0
	.loc	2 679 40                        @ ../GUILib/src/extra/layouts/grid/lv_grid.c:679:40
	ldrh.w	r2, [sp, #60]
	.loc	2 677 7                         @ ../GUILib/src/extra/layouts/grid/lv_grid.c:677:7
	adds	r1, r3, r6
.Ltmp377:
	@DEBUG_VALUE: item_repos:y <- $r1
	.loc	2 679 61                        @ ../GUILib/src/extra/layouts/grid/lv_grid.c:679:61
	ldrh	r3, [r7, #20]
	.loc	2 679 42 is_stmt 0              @ ../GUILib/src/extra/layouts/grid/lv_grid.c:679:42
	add	r0, r2
.Ltmp378:
	.loc	2 679 46                        @ ../GUILib/src/extra/layouts/grid/lv_grid.c:679:46
	subs	r5, r0, r3
.Ltmp379:
	@DEBUG_VALUE: item_repos:diff_x <- $r5
	.loc	2 680 40 is_stmt 1              @ ../GUILib/src/extra/layouts/grid/lv_grid.c:680:40
	ldrh.w	r0, [sp, #62]
	.loc	2 680 61 is_stmt 0              @ ../GUILib/src/extra/layouts/grid/lv_grid.c:680:61
	ldrh	r2, [r7, #22]
	.loc	2 680 42                        @ ../GUILib/src/extra/layouts/grid/lv_grid.c:680:42
	add	r0, r1
	.loc	2 680 46                        @ ../GUILib/src/extra/layouts/grid/lv_grid.c:680:46
	subs	r6, r0, r2
.Ltmp380:
	@DEBUG_VALUE: item_repos:diff_y <- $r6
	.loc	2 681 15 is_stmt 1              @ ../GUILib/src/extra/layouts/grid/lv_grid.c:681:15
	orr.w	r0, r6, r5
	lsls	r0, r0, #16
	beq.w	.LBB1_75
.Ltmp381:
@ %bb.110:                              @   in Loop: Header=BB1_73 Depth=1
	@DEBUG_VALUE: grid_update:i <- $r10
	@DEBUG_VALUE: item <- $r7
	@DEBUG_VALUE: item_repos:item <- $r7
	@DEBUG_VALUE: item_repos:diff_y <- $r6
	@DEBUG_VALUE: item_repos:diff_x <- $r5
	@DEBUG_VALUE: grid_update:cont <- $r4
	@DEBUG_VALUE: item_repos:y <- $r1
	@DEBUG_VALUE: item_repos:item_w <- [DW_OP_plus_uconst 48] [$sp+0]
	@DEBUG_VALUE: item_repos:row_align <- [DW_OP_plus_uconst 28, DW_OP_deref_size 4, DW_OP_LLVM_convert 32 7, DW_OP_LLVM_convert 8 7, DW_OP_stack_value] $sp
	@DEBUG_VALUE: item_repos:row_y1 <- [DW_OP_plus_uconst 32] [$sp+0]
	@DEBUG_VALUE: item_repos:row_pos <- [DW_OP_plus_uconst 44] [$sp+0]
	@DEBUG_VALUE: item_repos:col_pos <- [DW_OP_plus_uconst 20] [$sp+0]
	@DEBUG_VALUE: item_repos:c <- [DW_OP_plus_uconst 64, DW_OP_stack_value] $sp
	@DEBUG_VALUE: item_repos:hint <- [DW_OP_plus_uconst 52, DW_OP_stack_value] $sp
	@DEBUG_VALUE: grid_update:user_data <- [DW_OP_LLVM_entry_value 1] $r1
	.loc	2 682 9                         @ ../GUILib/src/extra/layouts/grid/lv_grid.c:682:9
	mov	r0, r7
	bl	lv_obj_invalidate
.Ltmp382:
	.loc	2 683 25                        @ ../GUILib/src/extra/layouts/grid/lv_grid.c:683:25
	ldrh	r0, [r7, #20]
	.loc	2 684 25                        @ ../GUILib/src/extra/layouts/grid/lv_grid.c:684:25
	ldrh	r1, [r7, #24]
	.loc	2 683 25                        @ ../GUILib/src/extra/layouts/grid/lv_grid.c:683:25
	add	r0, r5
	strh	r0, [r7, #20]
	.loc	2 684 25                        @ ../GUILib/src/extra/layouts/grid/lv_grid.c:684:25
	adds	r0, r1, r5
	.loc	2 685 25                        @ ../GUILib/src/extra/layouts/grid/lv_grid.c:685:25
	ldrh	r1, [r7, #22]
	.loc	2 684 25                        @ ../GUILib/src/extra/layouts/grid/lv_grid.c:684:25
	strh	r0, [r7, #24]
	.loc	2 685 25                        @ ../GUILib/src/extra/layouts/grid/lv_grid.c:685:25
	adds	r0, r1, r6
	.loc	2 686 25                        @ ../GUILib/src/extra/layouts/grid/lv_grid.c:686:25
	ldrh	r1, [r7, #26]
	.loc	2 685 25                        @ ../GUILib/src/extra/layouts/grid/lv_grid.c:685:25
	strh	r0, [r7, #22]
	.loc	2 686 25                        @ ../GUILib/src/extra/layouts/grid/lv_grid.c:686:25
	adds	r0, r1, r6
	strh	r0, [r7, #26]
	.loc	2 687 9                         @ ../GUILib/src/extra/layouts/grid/lv_grid.c:687:9
	mov	r0, r7
	bl	lv_obj_invalidate
.Ltmp383:
	.loc	2 688 9                         @ ../GUILib/src/extra/layouts/grid/lv_grid.c:688:9
	sxth	r1, r5
	sxth	r2, r6
	mov	r0, r7
	movs	r3, #1
	bl	lv_obj_move_children_by
.Ltmp384:
	.loc	2 0 9 is_stmt 0                 @ ../GUILib/src/extra/layouts/grid/lv_grid.c:0:9
	b	.LBB1_75
.Ltmp385:
.LBB1_111:
	@DEBUG_VALUE: grid_update:cont <- $r4
	@DEBUG_VALUE: grid_update:user_data <- [DW_OP_LLVM_entry_value 1] $r1
	@DEBUG_VALUE: calc_free:calc <- [DW_OP_plus_uconst 64, DW_OP_stack_value] $sp
	.loc	2 427 30 is_stmt 1              @ ../GUILib/src/extra/layouts/grid/lv_grid.c:427:30
	ldr	r0, [sp, #64]
	.loc	2 427 5 is_stmt 0               @ ../GUILib/src/extra/layouts/grid/lv_grid.c:427:5
	bl	lv_mem_buf_release
.Ltmp386:
	.loc	2 428 30 is_stmt 1              @ ../GUILib/src/extra/layouts/grid/lv_grid.c:428:30
	ldr	r0, [sp, #68]
	.loc	2 428 5 is_stmt 0               @ ../GUILib/src/extra/layouts/grid/lv_grid.c:428:5
	bl	lv_mem_buf_release
.Ltmp387:
	.loc	2 429 30 is_stmt 1              @ ../GUILib/src/extra/layouts/grid/lv_grid.c:429:30
	ldr	r0, [sp, #72]
	.loc	2 429 5 is_stmt 0               @ ../GUILib/src/extra/layouts/grid/lv_grid.c:429:5
	bl	lv_mem_buf_release
.Ltmp388:
	.loc	2 430 30 is_stmt 1              @ ../GUILib/src/extra/layouts/grid/lv_grid.c:430:30
	ldr	r0, [sp, #76]
	.loc	2 430 5 is_stmt 0               @ ../GUILib/src/extra/layouts/grid/lv_grid.c:430:5
	bl	lv_mem_buf_release
.Ltmp389:
	@DEBUG_VALUE: lv_obj_get_style_width:part <- 0
	@DEBUG_VALUE: lv_obj_get_style_width:obj <- $r4
	.loc	9 3 26 is_stmt 1                @ ../GUILib/src/extra/layouts/grid/../flex/../../../core/lv_obj_style_gen.h:3:26
	mov	r0, r4
	movs	r1, #0
	movw	r2, #4097
	bl	lv_obj_get_style_prop
.Ltmp390:
	@DEBUG_VALUE: grid_update:w_set <- $r0
	@DEBUG_VALUE: lv_obj_get_style_width:v <- $r0
	.loc	9 4 12                          @ ../GUILib/src/extra/layouts/grid/../flex/../../../core/lv_obj_style_gen.h:4:12
	uxth	r5, r0
.Ltmp391:
	@DEBUG_VALUE: lv_obj_get_style_height:part <- 0
	@DEBUG_VALUE: lv_obj_get_style_height:obj <- $r4
	.loc	9 21 26                         @ ../GUILib/src/extra/layouts/grid/../flex/../../../core/lv_obj_style_gen.h:21:26
	mov	r0, r4
.Ltmp392:
	movs	r1, #0
	movw	r2, #4100
	bl	lv_obj_get_style_prop
.Ltmp393:
	.loc	9 0 26 is_stmt 0                @ ../GUILib/src/extra/layouts/grid/../flex/../../../core/lv_obj_style_gen.h:0:26
	movw	r1, #10193
.Ltmp394:
	.loc	2 376 33 is_stmt 1              @ ../GUILib/src/extra/layouts/grid/lv_grid.c:376:33
	cmp	r5, r1
.Ltmp395:
	@DEBUG_VALUE: grid_update:h_set <- $r0
	@DEBUG_VALUE: lv_obj_get_style_height:v <- $r0
	@DEBUG_VALUE: lv_obj_get_style_height:part <- 0
	@DEBUG_VALUE: lv_obj_get_style_height:obj <- $r4
	.loc	2 0 33 is_stmt 0                @ ../GUILib/src/extra/layouts/grid/lv_grid.c:0:33
	beq	.LBB1_113
.Ltmp396:
@ %bb.112:
	@DEBUG_VALUE: grid_update:cont <- $r4
	@DEBUG_VALUE: grid_update:h_set <- $r0
	@DEBUG_VALUE: grid_update:user_data <- [DW_OP_LLVM_entry_value 1] $r1
	uxth	r0, r0
.Ltmp397:
	.loc	2 376 33                        @ ../GUILib/src/extra/layouts/grid/lv_grid.c:376:33
	cmp	r0, r1
	bne	.LBB1_114
.Ltmp398:
.LBB1_113:
	@DEBUG_VALUE: grid_update:cont <- $r4
	@DEBUG_VALUE: grid_update:user_data <- [DW_OP_LLVM_entry_value 1] $r1
	.loc	2 377 9 is_stmt 1               @ ../GUILib/src/extra/layouts/grid/lv_grid.c:377:9
	mov	r0, r4
	bl	lv_obj_refr_size
.Ltmp399:
.LBB1_114:
	@DEBUG_VALUE: grid_update:cont <- $r4
	@DEBUG_VALUE: grid_update:user_data <- [DW_OP_LLVM_entry_value 1] $r1
	.loc	2 380 5                         @ ../GUILib/src/extra/layouts/grid/lv_grid.c:380:5
	mov	r0, r4
	movs	r1, #43
	movs	r2, #0
	bl	lv_event_send
.Ltmp400:
.LBB1_115:
	@DEBUG_VALUE: grid_update:cont <- $r4
	@DEBUG_VALUE: grid_update:user_data <- [DW_OP_LLVM_entry_value 1] $r1
	.loc	2 383 1                         @ ../GUILib/src/extra/layouts/grid/lv_grid.c:383:1
	add	sp, #100
	pop.w	{r4, r5, r6, r7, r8, r9, r10, r11, pc}
.Ltmp401:
.Lfunc_end1:
	.size	grid_update, .Lfunc_end1-grid_update
	.cfi_endproc
	.file	10 "C:\\Users\\Hyacincher\\Desktop\\HyTelectrl\\Code\\Project" "../GUILib/src/extra/layouts/grid/../flex/../../../core/lv_obj_class.h"
	.file	11 "C:\\Users\\Hyacincher\\Desktop\\HyTelectrl\\Code\\Project" "../GUILib/src/extra/layouts/grid/../flex/../../../core/../misc/lv_ll.h"
	.file	12 "C:\\Users\\Hyacincher\\Desktop\\HyTelectrl\\Code\\Project" "../GUILib/src/extra/layouts/grid/../flex/../../../core/lv_group.h"
	.file	13 "C:\\Users\\Hyacincher\\Desktop\\HyTelectrl\\Code\\Project" "../GUILib/src/extra/layouts/grid/../flex/../../../core/lv_obj_scroll.h"
	.file	14 "C:\\Users\\Hyacincher\\Desktop\\HyTelectrl\\Code\\Project" "../GUILib/src/hal/../misc/lv_color.h"
	.file	15 "C:\\Users\\Hyacincher\\Desktop\\HyTelectrl\\Code\\Project" "../GUILib/src/extra/layouts/grid/../flex/../../../core/lv_obj_style.h"
	.cantunwind
	.fnend
                                        @ -- End function
	.section	.text.lv_obj_set_grid_dsc_array,"ax",%progbits
	.hidden	lv_obj_set_grid_dsc_array       @ -- Begin function lv_obj_set_grid_dsc_array
	.globl	lv_obj_set_grid_dsc_array
	.p2align	1
	.type	lv_obj_set_grid_dsc_array,%function
	.code	16                              @ @lv_obj_set_grid_dsc_array
	.thumb_func
lv_obj_set_grid_dsc_array:
.Lfunc_begin2:
	.loc	2 148 0                         @ ../GUILib/src/extra/layouts/grid/lv_grid.c:148:0
	.fnstart
	.cfi_startproc
@ %bb.0:
	@DEBUG_VALUE: lv_obj_set_grid_dsc_array:obj <- $r0
	@DEBUG_VALUE: lv_obj_set_grid_dsc_array:col_dsc <- $r1
	@DEBUG_VALUE: lv_obj_set_grid_dsc_array:row_dsc <- $r2
	@DEBUG_VALUE: lv_obj_set_style_grid_column_dsc_array:obj <- $r0
	@DEBUG_VALUE: lv_obj_set_style_grid_column_dsc_array:value <- $r1
	.save	{r4, r5, r7, lr}
	push	{r4, r5, r7, lr}
	.cfi_def_cfa_offset 16
	.cfi_offset lr, -4
	.cfi_offset r7, -8
	.cfi_offset r5, -12
	.cfi_offset r4, -16
	mov	r4, r2
.Ltmp402:
	@DEBUG_VALUE: lv_obj_set_grid_dsc_array:row_dsc <- $r4
	mov	r2, r1
.Ltmp403:
	@DEBUG_VALUE: lv_obj_set_style_grid_column_dsc_array:value <- $r2
	@DEBUG_VALUE: lv_obj_set_grid_dsc_array:row_dsc <- $r4
	@DEBUG_VALUE: lv_obj_set_grid_dsc_array:col_dsc <- $r2
	.loc	2 270 38 prologue_end           @ ../GUILib/src/extra/layouts/grid/lv_grid.c:270:38
	movw	r1, :lower16:LV_STYLE_GRID_COLUMN_DSC_ARRAY
	movt	r1, :upper16:LV_STYLE_GRID_COLUMN_DSC_ARRAY
	ldrh	r1, [r1]
	.loc	2 270 5 is_stmt 0               @ ../GUILib/src/extra/layouts/grid/lv_grid.c:270:5
	movs	r3, #0
	mov	r5, r0
.Ltmp404:
	@DEBUG_VALUE: lv_obj_set_style_grid_column_dsc_array:v <- $r2
	@DEBUG_VALUE: lv_obj_set_style_grid_column_dsc_array:selector <- 0
	@DEBUG_VALUE: lv_obj_set_style_grid_column_dsc_array:obj <- $r5
	@DEBUG_VALUE: lv_obj_set_grid_dsc_array:obj <- $r5
	@DEBUG_VALUE: lv_obj_set_style_grid_column_dsc_array:value <- $r2
	@DEBUG_VALUE: lv_obj_set_grid_dsc_array:col_dsc <- $r2
	bl	lv_obj_set_local_style_prop
.Ltmp405:
	@DEBUG_VALUE: lv_obj_set_style_grid_row_dsc_array:v <- $r4
	@DEBUG_VALUE: lv_obj_set_style_grid_row_dsc_array:selector <- 0
	@DEBUG_VALUE: lv_obj_set_style_grid_row_dsc_array:value <- $r4
	@DEBUG_VALUE: lv_obj_set_style_grid_row_dsc_array:obj <- $r5
	.loc	2 262 38 is_stmt 1              @ ../GUILib/src/extra/layouts/grid/lv_grid.c:262:38
	movw	r0, :lower16:LV_STYLE_GRID_ROW_DSC_ARRAY
	movt	r0, :upper16:LV_STYLE_GRID_ROW_DSC_ARRAY
	ldrh	r1, [r0]
	.loc	2 262 5 is_stmt 0               @ ../GUILib/src/extra/layouts/grid/lv_grid.c:262:5
	mov	r0, r5
	mov	r2, r4
.Ltmp406:
	@DEBUG_VALUE: lv_obj_set_grid_dsc_array:row_dsc <- $r2
	movs	r3, #0
	bl	lv_obj_set_local_style_prop
.Ltmp407:
	.loc	2 151 34 is_stmt 1              @ ../GUILib/src/extra/layouts/grid/lv_grid.c:151:34
	movw	r0, :lower16:LV_LAYOUT_GRID
	movt	r0, :upper16:LV_LAYOUT_GRID
	ldrh	r1, [r0]
	.loc	2 151 5 is_stmt 0               @ ../GUILib/src/extra/layouts/grid/lv_grid.c:151:5
	mov	r0, r5
	movs	r2, #0
	pop.w	{r4, r5, r7, lr}
.Ltmp408:
	b	lv_obj_set_style_layout
.Ltmp409:
.Lfunc_end2:
	.size	lv_obj_set_grid_dsc_array, .Lfunc_end2-lv_obj_set_grid_dsc_array
	.cfi_endproc
	.cantunwind
	.fnend
                                        @ -- End function
	.section	.text.lv_obj_set_style_grid_column_dsc_array,"ax",%progbits
	.hidden	lv_obj_set_style_grid_column_dsc_array @ -- Begin function lv_obj_set_style_grid_column_dsc_array
	.globl	lv_obj_set_style_grid_column_dsc_array
	.p2align	1
	.type	lv_obj_set_style_grid_column_dsc_array,%function
	.code	16                              @ @lv_obj_set_style_grid_column_dsc_array
	.thumb_func
lv_obj_set_style_grid_column_dsc_array:
.Lfunc_begin3:
	.loc	2 266 0 is_stmt 1               @ ../GUILib/src/extra/layouts/grid/lv_grid.c:266:0
	.fnstart
	.cfi_startproc
@ %bb.0:
	@DEBUG_VALUE: lv_obj_set_style_grid_column_dsc_array:obj <- $r0
	@DEBUG_VALUE: lv_obj_set_style_grid_column_dsc_array:value <- $r1
	@DEBUG_VALUE: lv_obj_set_style_grid_column_dsc_array:selector <- $r2
	mov	r3, r2
	mov	r2, r1
.Ltmp410:
	@DEBUG_VALUE: lv_obj_set_style_grid_column_dsc_array:selector <- [DW_OP_LLVM_entry_value 1] $r2
	@DEBUG_VALUE: lv_obj_set_style_grid_column_dsc_array:v <- $r2
	@DEBUG_VALUE: lv_obj_set_style_grid_column_dsc_array:selector <- $r3
	@DEBUG_VALUE: lv_obj_set_style_grid_column_dsc_array:value <- $r2
	@DEBUG_VALUE: lv_obj_set_style_grid_column_dsc_array:obj <- $r0
	.loc	2 270 38 prologue_end           @ ../GUILib/src/extra/layouts/grid/lv_grid.c:270:38
	movw	r1, :lower16:LV_STYLE_GRID_COLUMN_DSC_ARRAY
	movt	r1, :upper16:LV_STYLE_GRID_COLUMN_DSC_ARRAY
	ldrh	r1, [r1]
	@DEBUG_VALUE: lv_obj_set_style_grid_column_dsc_array:selector <- $r3
	@DEBUG_VALUE: lv_obj_set_style_grid_column_dsc_array:value <- $r2
	@DEBUG_VALUE: lv_obj_set_style_grid_column_dsc_array:obj <- $r0
.Ltmp411:
	.loc	2 270 5 is_stmt 0               @ ../GUILib/src/extra/layouts/grid/lv_grid.c:270:5
	b	lv_obj_set_local_style_prop
.Ltmp412:
.Lfunc_end3:
	.size	lv_obj_set_style_grid_column_dsc_array, .Lfunc_end3-lv_obj_set_style_grid_column_dsc_array
	.cfi_endproc
	.cantunwind
	.fnend
                                        @ -- End function
	.section	.text.lv_obj_set_style_grid_row_dsc_array,"ax",%progbits
	.hidden	lv_obj_set_style_grid_row_dsc_array @ -- Begin function lv_obj_set_style_grid_row_dsc_array
	.globl	lv_obj_set_style_grid_row_dsc_array
	.p2align	1
	.type	lv_obj_set_style_grid_row_dsc_array,%function
	.code	16                              @ @lv_obj_set_style_grid_row_dsc_array
	.thumb_func
lv_obj_set_style_grid_row_dsc_array:
.Lfunc_begin4:
	.loc	2 258 0 is_stmt 1               @ ../GUILib/src/extra/layouts/grid/lv_grid.c:258:0
	.fnstart
	.cfi_startproc
@ %bb.0:
	@DEBUG_VALUE: lv_obj_set_style_grid_row_dsc_array:obj <- $r0
	@DEBUG_VALUE: lv_obj_set_style_grid_row_dsc_array:value <- $r1
	@DEBUG_VALUE: lv_obj_set_style_grid_row_dsc_array:selector <- $r2
	mov	r3, r2
	mov	r2, r1
.Ltmp413:
	@DEBUG_VALUE: lv_obj_set_style_grid_row_dsc_array:selector <- [DW_OP_LLVM_entry_value 1] $r2
	@DEBUG_VALUE: lv_obj_set_style_grid_row_dsc_array:v <- $r2
	@DEBUG_VALUE: lv_obj_set_style_grid_row_dsc_array:selector <- $r3
	@DEBUG_VALUE: lv_obj_set_style_grid_row_dsc_array:value <- $r2
	@DEBUG_VALUE: lv_obj_set_style_grid_row_dsc_array:obj <- $r0
	.loc	2 262 38 prologue_end           @ ../GUILib/src/extra/layouts/grid/lv_grid.c:262:38
	movw	r1, :lower16:LV_STYLE_GRID_ROW_DSC_ARRAY
	movt	r1, :upper16:LV_STYLE_GRID_ROW_DSC_ARRAY
	ldrh	r1, [r1]
	@DEBUG_VALUE: lv_obj_set_style_grid_row_dsc_array:selector <- $r3
	@DEBUG_VALUE: lv_obj_set_style_grid_row_dsc_array:value <- $r2
	@DEBUG_VALUE: lv_obj_set_style_grid_row_dsc_array:obj <- $r0
.Ltmp414:
	.loc	2 262 5 is_stmt 0               @ ../GUILib/src/extra/layouts/grid/lv_grid.c:262:5
	b	lv_obj_set_local_style_prop
.Ltmp415:
.Lfunc_end4:
	.size	lv_obj_set_style_grid_row_dsc_array, .Lfunc_end4-lv_obj_set_style_grid_row_dsc_array
	.cfi_endproc
	.cantunwind
	.fnend
                                        @ -- End function
	.section	.text.lv_obj_set_grid_align,"ax",%progbits
	.hidden	lv_obj_set_grid_align           @ -- Begin function lv_obj_set_grid_align
	.globl	lv_obj_set_grid_align
	.p2align	1
	.type	lv_obj_set_grid_align,%function
	.code	16                              @ @lv_obj_set_grid_align
	.thumb_func
lv_obj_set_grid_align:
.Lfunc_begin5:
	.loc	2 155 0 is_stmt 1               @ ../GUILib/src/extra/layouts/grid/lv_grid.c:155:0
	.fnstart
	.cfi_startproc
@ %bb.0:
	@DEBUG_VALUE: lv_obj_set_grid_align:obj <- $r0
	@DEBUG_VALUE: lv_obj_set_grid_align:column_align <- $r1
	@DEBUG_VALUE: lv_obj_set_grid_align:row_align <- $r2
	@DEBUG_VALUE: lv_obj_set_style_grid_column_align:obj <- $r0
	@DEBUG_VALUE: lv_obj_set_style_grid_column_align:value <- $r1
	.save	{r4, r5, r7, lr}
	push	{r4, r5, r7, lr}
	.cfi_def_cfa_offset 16
	.cfi_offset lr, -4
	.cfi_offset r7, -8
	.cfi_offset r5, -12
	.cfi_offset r4, -16
	mov	r4, r2
.Ltmp416:
	@DEBUG_VALUE: lv_obj_set_grid_align:row_align <- $r4
	mov	r2, r1
.Ltmp417:
	@DEBUG_VALUE: lv_obj_set_style_grid_column_align:value <- $r2
	@DEBUG_VALUE: lv_obj_set_grid_align:row_align <- $r4
	@DEBUG_VALUE: lv_obj_set_grid_align:column_align <- $r2
	.loc	2 287 38 prologue_end           @ ../GUILib/src/extra/layouts/grid/lv_grid.c:287:38
	movw	r1, :lower16:LV_STYLE_GRID_COLUMN_ALIGN
	movt	r1, :upper16:LV_STYLE_GRID_COLUMN_ALIGN
	ldrh	r1, [r1]
	.loc	2 287 5 is_stmt 0               @ ../GUILib/src/extra/layouts/grid/lv_grid.c:287:5
	movs	r3, #0
	mov	r5, r0
.Ltmp418:
	@DEBUG_VALUE: lv_obj_set_style_grid_column_align:v <- $r2
	@DEBUG_VALUE: lv_obj_set_style_grid_column_align:selector <- 0
	@DEBUG_VALUE: lv_obj_set_style_grid_column_align:obj <- $r5
	@DEBUG_VALUE: lv_obj_set_grid_align:obj <- $r5
	@DEBUG_VALUE: lv_obj_set_style_grid_column_align:value <- $r2
	@DEBUG_VALUE: lv_obj_set_grid_align:column_align <- $r2
	bl	lv_obj_set_local_style_prop
.Ltmp419:
	@DEBUG_VALUE: lv_obj_set_style_grid_row_align:v <- $r4
	@DEBUG_VALUE: lv_obj_set_style_grid_row_align:selector <- 0
	@DEBUG_VALUE: lv_obj_set_style_grid_row_align:value <- undef
	@DEBUG_VALUE: lv_obj_set_style_grid_row_align:obj <- $r5
	.loc	2 279 38 is_stmt 1              @ ../GUILib/src/extra/layouts/grid/lv_grid.c:279:38
	movw	r0, :lower16:LV_STYLE_GRID_ROW_ALIGN
	movt	r0, :upper16:LV_STYLE_GRID_ROW_ALIGN
	ldrh	r1, [r0]
	.loc	2 279 5 is_stmt 0               @ ../GUILib/src/extra/layouts/grid/lv_grid.c:279:5
	mov	r0, r5
	mov	r2, r4
.Ltmp420:
	@DEBUG_VALUE: lv_obj_set_grid_align:row_align <- $r2
	movs	r3, #0
	pop.w	{r4, r5, r7, lr}
.Ltmp421:
	b	lv_obj_set_local_style_prop
.Ltmp422:
.Lfunc_end5:
	.size	lv_obj_set_grid_align, .Lfunc_end5-lv_obj_set_grid_align
	.cfi_endproc
	.cantunwind
	.fnend
                                        @ -- End function
	.section	.text.lv_obj_set_style_grid_column_align,"ax",%progbits
	.hidden	lv_obj_set_style_grid_column_align @ -- Begin function lv_obj_set_style_grid_column_align
	.globl	lv_obj_set_style_grid_column_align
	.p2align	1
	.type	lv_obj_set_style_grid_column_align,%function
	.code	16                              @ @lv_obj_set_style_grid_column_align
	.thumb_func
lv_obj_set_style_grid_column_align:
.Lfunc_begin6:
	.loc	2 283 0 is_stmt 1               @ ../GUILib/src/extra/layouts/grid/lv_grid.c:283:0
	.fnstart
	.cfi_startproc
@ %bb.0:
	@DEBUG_VALUE: lv_obj_set_style_grid_column_align:obj <- $r0
	@DEBUG_VALUE: lv_obj_set_style_grid_column_align:value <- $r1
	@DEBUG_VALUE: lv_obj_set_style_grid_column_align:selector <- $r2
	mov	r3, r2
	mov	r2, r1
.Ltmp423:
	@DEBUG_VALUE: lv_obj_set_style_grid_column_align:selector <- [DW_OP_LLVM_entry_value 1] $r2
	@DEBUG_VALUE: lv_obj_set_style_grid_column_align:v <- $r2
	@DEBUG_VALUE: lv_obj_set_style_grid_column_align:selector <- $r3
	@DEBUG_VALUE: lv_obj_set_style_grid_column_align:value <- $r2
	@DEBUG_VALUE: lv_obj_set_style_grid_column_align:obj <- $r0
	.loc	2 287 38 prologue_end           @ ../GUILib/src/extra/layouts/grid/lv_grid.c:287:38
	movw	r1, :lower16:LV_STYLE_GRID_COLUMN_ALIGN
	movt	r1, :upper16:LV_STYLE_GRID_COLUMN_ALIGN
	ldrh	r1, [r1]
	@DEBUG_VALUE: lv_obj_set_style_grid_column_align:selector <- $r3
	@DEBUG_VALUE: lv_obj_set_style_grid_column_align:value <- $r2
	@DEBUG_VALUE: lv_obj_set_style_grid_column_align:obj <- $r0
.Ltmp424:
	.loc	2 287 5 is_stmt 0               @ ../GUILib/src/extra/layouts/grid/lv_grid.c:287:5
	b	lv_obj_set_local_style_prop
.Ltmp425:
.Lfunc_end6:
	.size	lv_obj_set_style_grid_column_align, .Lfunc_end6-lv_obj_set_style_grid_column_align
	.cfi_endproc
	.cantunwind
	.fnend
                                        @ -- End function
	.section	.text.lv_obj_set_style_grid_row_align,"ax",%progbits
	.hidden	lv_obj_set_style_grid_row_align @ -- Begin function lv_obj_set_style_grid_row_align
	.globl	lv_obj_set_style_grid_row_align
	.p2align	1
	.type	lv_obj_set_style_grid_row_align,%function
	.code	16                              @ @lv_obj_set_style_grid_row_align
	.thumb_func
lv_obj_set_style_grid_row_align:
.Lfunc_begin7:
	.loc	2 275 0 is_stmt 1               @ ../GUILib/src/extra/layouts/grid/lv_grid.c:275:0
	.fnstart
	.cfi_startproc
@ %bb.0:
	@DEBUG_VALUE: lv_obj_set_style_grid_row_align:obj <- $r0
	@DEBUG_VALUE: lv_obj_set_style_grid_row_align:value <- $r1
	@DEBUG_VALUE: lv_obj_set_style_grid_row_align:selector <- $r2
	mov	r3, r2
	mov	r2, r1
.Ltmp426:
	@DEBUG_VALUE: lv_obj_set_style_grid_row_align:selector <- [DW_OP_LLVM_entry_value 1] $r2
	@DEBUG_VALUE: lv_obj_set_style_grid_row_align:v <- $r2
	@DEBUG_VALUE: lv_obj_set_style_grid_row_align:selector <- $r3
	@DEBUG_VALUE: lv_obj_set_style_grid_row_align:value <- $r2
	@DEBUG_VALUE: lv_obj_set_style_grid_row_align:obj <- $r0
	.loc	2 279 38 prologue_end           @ ../GUILib/src/extra/layouts/grid/lv_grid.c:279:38
	movw	r1, :lower16:LV_STYLE_GRID_ROW_ALIGN
	movt	r1, :upper16:LV_STYLE_GRID_ROW_ALIGN
	ldrh	r1, [r1]
	@DEBUG_VALUE: lv_obj_set_style_grid_row_align:selector <- $r3
	@DEBUG_VALUE: lv_obj_set_style_grid_row_align:value <- $r2
	@DEBUG_VALUE: lv_obj_set_style_grid_row_align:obj <- $r0
.Ltmp427:
	.loc	2 279 5 is_stmt 0               @ ../GUILib/src/extra/layouts/grid/lv_grid.c:279:5
	b	lv_obj_set_local_style_prop
.Ltmp428:
.Lfunc_end7:
	.size	lv_obj_set_style_grid_row_align, .Lfunc_end7-lv_obj_set_style_grid_row_align
	.cfi_endproc
	.cantunwind
	.fnend
                                        @ -- End function
	.section	.text.lv_obj_set_grid_cell,"ax",%progbits
	.hidden	lv_obj_set_grid_cell            @ -- Begin function lv_obj_set_grid_cell
	.globl	lv_obj_set_grid_cell
	.p2align	1
	.type	lv_obj_set_grid_cell,%function
	.code	16                              @ @lv_obj_set_grid_cell
	.thumb_func
lv_obj_set_grid_cell:
.Lfunc_begin8:
	.loc	2 164 0 is_stmt 1               @ ../GUILib/src/extra/layouts/grid/lv_grid.c:164:0
	.fnstart
	.cfi_startproc
@ %bb.0:
	@DEBUG_VALUE: lv_obj_set_grid_cell:obj <- $r0
	@DEBUG_VALUE: lv_obj_set_grid_cell:x_align <- $r1
	@DEBUG_VALUE: lv_obj_set_grid_cell:col_pos <- $r2
	@DEBUG_VALUE: lv_obj_set_grid_cell:col_span <- $r3
	@DEBUG_VALUE: lv_obj_set_style_grid_cell_column_pos:obj <- $r0
	.save	{r4, r5, r6, r7, r8, r9, lr}
	push.w	{r4, r5, r6, r7, r8, r9, lr}
	.cfi_def_cfa_offset 28
	.cfi_offset lr, -4
	.cfi_offset r9, -8
	.cfi_offset r8, -12
	.cfi_offset r7, -16
	.cfi_offset r6, -20
	.cfi_offset r5, -24
	.cfi_offset r4, -28
	.pad	#4
	sub	sp, #4
	.cfi_def_cfa_offset 32
	mov	r5, r1
.Ltmp429:
	@DEBUG_VALUE: lv_obj_set_grid_cell:x_align <- $r5
	.loc	2 296 38 prologue_end           @ ../GUILib/src/extra/layouts/grid/lv_grid.c:296:38
	movw	r1, :lower16:LV_STYLE_GRID_CELL_COLUMN_POS
	movt	r1, :upper16:LV_STYLE_GRID_CELL_COLUMN_POS
	ldrh	r1, [r1]
	mov	r7, r3
.Ltmp430:
	@DEBUG_VALUE: lv_obj_set_grid_cell:col_span <- $r7
	.loc	2 0 38 is_stmt 0                @ ../GUILib/src/extra/layouts/grid/lv_grid.c:0:38
	ldr.w	r9, [sp, #40]
	ldrd	r8, r6, [sp, #32]
.Ltmp431:
	@DEBUG_VALUE: lv_obj_set_style_grid_cell_column_pos:v <- $r2
	@DEBUG_VALUE: lv_obj_set_style_grid_cell_column_pos:value <- $r2
	@DEBUG_VALUE: lv_obj_set_style_grid_cell_column_pos:selector <- 0
	@DEBUG_VALUE: lv_obj_set_grid_cell:row_span <- undef
	@DEBUG_VALUE: lv_obj_set_grid_cell:row_pos <- undef
	@DEBUG_VALUE: lv_obj_set_grid_cell:y_align <- undef
	@DEBUG_VALUE: lv_obj_set_style_grid_cell_y_align:obj <- undef
	@DEBUG_VALUE: lv_obj_set_style_grid_cell_row_span:obj <- undef
	@DEBUG_VALUE: lv_obj_set_style_grid_cell_column_span:obj <- undef
	@DEBUG_VALUE: lv_obj_set_style_grid_cell_x_align:obj <- undef
	@DEBUG_VALUE: lv_obj_set_style_grid_cell_row_pos:obj <- undef
	@DEBUG_VALUE: lv_obj_set_grid_cell:col_span <- $r7
	@DEBUG_VALUE: lv_obj_set_grid_cell:col_pos <- $r2
	@DEBUG_VALUE: lv_obj_set_grid_cell:x_align <- $r5
	.loc	2 296 5                         @ ../GUILib/src/extra/layouts/grid/lv_grid.c:296:5
	movs	r3, #0
	mov	r4, r0
.Ltmp432:
	@DEBUG_VALUE: lv_obj_set_style_grid_cell_column_pos:obj <- $r4
	@DEBUG_VALUE: lv_obj_set_grid_cell:obj <- $r4
	@DEBUG_VALUE: lv_obj_set_grid_cell:col_pos <- $r2
	bl	lv_obj_set_local_style_prop
.Ltmp433:
	@DEBUG_VALUE: lv_obj_set_grid_cell:col_pos <- [DW_OP_LLVM_entry_value 1] $r2
	@DEBUG_VALUE: lv_obj_set_style_grid_cell_row_pos:v <- $r6
	@DEBUG_VALUE: lv_obj_set_style_grid_cell_row_pos:value <- $r6
	@DEBUG_VALUE: lv_obj_set_style_grid_cell_row_pos:selector <- 0
	.loc	2 312 38 is_stmt 1              @ ../GUILib/src/extra/layouts/grid/lv_grid.c:312:38
	movw	r0, :lower16:LV_STYLE_GRID_CELL_ROW_POS
	movt	r0, :upper16:LV_STYLE_GRID_CELL_ROW_POS
	ldrh	r1, [r0]
	.loc	2 312 5 is_stmt 0               @ ../GUILib/src/extra/layouts/grid/lv_grid.c:312:5
	mov	r0, r4
	mov	r2, r6
	movs	r3, #0
	bl	lv_obj_set_local_style_prop
.Ltmp434:
	@DEBUG_VALUE: lv_obj_set_style_grid_cell_x_align:v <- $r5
	@DEBUG_VALUE: lv_obj_set_style_grid_cell_x_align:value <- $r5
	@DEBUG_VALUE: lv_obj_set_style_grid_cell_x_align:selector <- 0
	.loc	2 328 38 is_stmt 1              @ ../GUILib/src/extra/layouts/grid/lv_grid.c:328:38
	movw	r0, :lower16:LV_STYLE_GRID_CELL_X_ALIGN
	movt	r0, :upper16:LV_STYLE_GRID_CELL_X_ALIGN
	ldrh	r1, [r0]
	.loc	2 328 5 is_stmt 0               @ ../GUILib/src/extra/layouts/grid/lv_grid.c:328:5
	mov	r0, r4
	mov	r2, r5
.Ltmp435:
	@DEBUG_VALUE: lv_obj_set_grid_cell:x_align <- $r2
	movs	r3, #0
	bl	lv_obj_set_local_style_prop
.Ltmp436:
	@DEBUG_VALUE: lv_obj_set_style_grid_cell_column_span:v <- $r7
	@DEBUG_VALUE: lv_obj_set_style_grid_cell_column_span:value <- $r7
	@DEBUG_VALUE: lv_obj_set_style_grid_cell_column_span:selector <- 0
	.loc	2 304 38 is_stmt 1              @ ../GUILib/src/extra/layouts/grid/lv_grid.c:304:38
	movw	r0, :lower16:LV_STYLE_GRID_CELL_COLUMN_SPAN
	movt	r0, :upper16:LV_STYLE_GRID_CELL_COLUMN_SPAN
	ldrh	r1, [r0]
	.loc	2 304 5 is_stmt 0               @ ../GUILib/src/extra/layouts/grid/lv_grid.c:304:5
	mov	r0, r4
	mov	r2, r7
.Ltmp437:
	@DEBUG_VALUE: lv_obj_set_grid_cell:col_span <- $r2
	movs	r3, #0
	bl	lv_obj_set_local_style_prop
.Ltmp438:
	@DEBUG_VALUE: lv_obj_set_style_grid_cell_row_span:v <- $r9
	@DEBUG_VALUE: lv_obj_set_style_grid_cell_row_span:value <- $r9
	@DEBUG_VALUE: lv_obj_set_style_grid_cell_row_span:selector <- 0
	.loc	2 320 38 is_stmt 1              @ ../GUILib/src/extra/layouts/grid/lv_grid.c:320:38
	movw	r0, :lower16:LV_STYLE_GRID_CELL_ROW_SPAN
	movt	r0, :upper16:LV_STYLE_GRID_CELL_ROW_SPAN
	ldrh	r1, [r0]
	.loc	2 320 5 is_stmt 0               @ ../GUILib/src/extra/layouts/grid/lv_grid.c:320:5
	mov	r0, r4
	mov	r2, r9
	movs	r3, #0
	bl	lv_obj_set_local_style_prop
.Ltmp439:
	@DEBUG_VALUE: lv_obj_set_style_grid_cell_y_align:v <- $r8
	@DEBUG_VALUE: lv_obj_set_style_grid_cell_y_align:value <- $r8
	@DEBUG_VALUE: lv_obj_set_style_grid_cell_y_align:selector <- 0
	.loc	2 336 38 is_stmt 1              @ ../GUILib/src/extra/layouts/grid/lv_grid.c:336:38
	movw	r0, :lower16:LV_STYLE_GRID_CELL_Y_ALIGN
	movt	r0, :upper16:LV_STYLE_GRID_CELL_Y_ALIGN
	ldrh	r1, [r0]
	.loc	2 336 5 is_stmt 0               @ ../GUILib/src/extra/layouts/grid/lv_grid.c:336:5
	mov	r0, r4
	mov	r2, r8
	movs	r3, #0
	bl	lv_obj_set_local_style_prop
.Ltmp440:
	.loc	2 172 33 is_stmt 1              @ ../GUILib/src/extra/layouts/grid/lv_grid.c:172:33
	mov	r0, r4
	bl	lv_obj_get_parent
.Ltmp441:
	.loc	2 172 5 is_stmt 0               @ ../GUILib/src/extra/layouts/grid/lv_grid.c:172:5
	add	sp, #4
	pop.w	{r4, r5, r6, r7, r8, r9, lr}
.Ltmp442:
	b	lv_obj_mark_layout_as_dirty
.Ltmp443:
.Lfunc_end8:
	.size	lv_obj_set_grid_cell, .Lfunc_end8-lv_obj_set_grid_cell
	.cfi_endproc
	.file	16 "C:\\Users\\Hyacincher\\Desktop\\HyTelectrl\\Code\\Project" "../GUILib/src/extra/layouts/grid/../flex/../../../core/lv_obj_pos.h"
	.cantunwind
	.fnend
                                        @ -- End function
	.section	.text.lv_obj_set_style_grid_cell_column_pos,"ax",%progbits
	.hidden	lv_obj_set_style_grid_cell_column_pos @ -- Begin function lv_obj_set_style_grid_cell_column_pos
	.globl	lv_obj_set_style_grid_cell_column_pos
	.p2align	1
	.type	lv_obj_set_style_grid_cell_column_pos,%function
	.code	16                              @ @lv_obj_set_style_grid_cell_column_pos
	.thumb_func
lv_obj_set_style_grid_cell_column_pos:
.Lfunc_begin9:
	.loc	2 292 0 is_stmt 1               @ ../GUILib/src/extra/layouts/grid/lv_grid.c:292:0
	.fnstart
	.cfi_startproc
@ %bb.0:
	@DEBUG_VALUE: lv_obj_set_style_grid_cell_column_pos:obj <- $r0
	@DEBUG_VALUE: lv_obj_set_style_grid_cell_column_pos:value <- $r1
	@DEBUG_VALUE: lv_obj_set_style_grid_cell_column_pos:selector <- $r2
	mov	r3, r2
	mov	r2, r1
.Ltmp444:
	@DEBUG_VALUE: lv_obj_set_style_grid_cell_column_pos:selector <- [DW_OP_LLVM_entry_value 1] $r2
	@DEBUG_VALUE: lv_obj_set_style_grid_cell_column_pos:v <- $r2
	@DEBUG_VALUE: lv_obj_set_style_grid_cell_column_pos:selector <- $r3
	@DEBUG_VALUE: lv_obj_set_style_grid_cell_column_pos:value <- $r2
	@DEBUG_VALUE: lv_obj_set_style_grid_cell_column_pos:obj <- $r0
	.loc	2 296 38 prologue_end           @ ../GUILib/src/extra/layouts/grid/lv_grid.c:296:38
	movw	r1, :lower16:LV_STYLE_GRID_CELL_COLUMN_POS
	movt	r1, :upper16:LV_STYLE_GRID_CELL_COLUMN_POS
	ldrh	r1, [r1]
	@DEBUG_VALUE: lv_obj_set_style_grid_cell_column_pos:selector <- $r3
	@DEBUG_VALUE: lv_obj_set_style_grid_cell_column_pos:value <- $r2
	@DEBUG_VALUE: lv_obj_set_style_grid_cell_column_pos:obj <- $r0
.Ltmp445:
	.loc	2 296 5 is_stmt 0               @ ../GUILib/src/extra/layouts/grid/lv_grid.c:296:5
	b	lv_obj_set_local_style_prop
.Ltmp446:
.Lfunc_end9:
	.size	lv_obj_set_style_grid_cell_column_pos, .Lfunc_end9-lv_obj_set_style_grid_cell_column_pos
	.cfi_endproc
	.cantunwind
	.fnend
                                        @ -- End function
	.section	.text.lv_obj_set_style_grid_cell_row_pos,"ax",%progbits
	.hidden	lv_obj_set_style_grid_cell_row_pos @ -- Begin function lv_obj_set_style_grid_cell_row_pos
	.globl	lv_obj_set_style_grid_cell_row_pos
	.p2align	1
	.type	lv_obj_set_style_grid_cell_row_pos,%function
	.code	16                              @ @lv_obj_set_style_grid_cell_row_pos
	.thumb_func
lv_obj_set_style_grid_cell_row_pos:
.Lfunc_begin10:
	.loc	2 308 0 is_stmt 1               @ ../GUILib/src/extra/layouts/grid/lv_grid.c:308:0
	.fnstart
	.cfi_startproc
@ %bb.0:
	@DEBUG_VALUE: lv_obj_set_style_grid_cell_row_pos:obj <- $r0
	@DEBUG_VALUE: lv_obj_set_style_grid_cell_row_pos:value <- $r1
	@DEBUG_VALUE: lv_obj_set_style_grid_cell_row_pos:selector <- $r2
	mov	r3, r2
	mov	r2, r1
.Ltmp447:
	@DEBUG_VALUE: lv_obj_set_style_grid_cell_row_pos:selector <- [DW_OP_LLVM_entry_value 1] $r2
	@DEBUG_VALUE: lv_obj_set_style_grid_cell_row_pos:v <- $r2
	@DEBUG_VALUE: lv_obj_set_style_grid_cell_row_pos:selector <- $r3
	@DEBUG_VALUE: lv_obj_set_style_grid_cell_row_pos:value <- $r2
	@DEBUG_VALUE: lv_obj_set_style_grid_cell_row_pos:obj <- $r0
	.loc	2 312 38 prologue_end           @ ../GUILib/src/extra/layouts/grid/lv_grid.c:312:38
	movw	r1, :lower16:LV_STYLE_GRID_CELL_ROW_POS
	movt	r1, :upper16:LV_STYLE_GRID_CELL_ROW_POS
	ldrh	r1, [r1]
	@DEBUG_VALUE: lv_obj_set_style_grid_cell_row_pos:selector <- $r3
	@DEBUG_VALUE: lv_obj_set_style_grid_cell_row_pos:value <- $r2
	@DEBUG_VALUE: lv_obj_set_style_grid_cell_row_pos:obj <- $r0
.Ltmp448:
	.loc	2 312 5 is_stmt 0               @ ../GUILib/src/extra/layouts/grid/lv_grid.c:312:5
	b	lv_obj_set_local_style_prop
.Ltmp449:
.Lfunc_end10:
	.size	lv_obj_set_style_grid_cell_row_pos, .Lfunc_end10-lv_obj_set_style_grid_cell_row_pos
	.cfi_endproc
	.cantunwind
	.fnend
                                        @ -- End function
	.section	.text.lv_obj_set_style_grid_cell_x_align,"ax",%progbits
	.hidden	lv_obj_set_style_grid_cell_x_align @ -- Begin function lv_obj_set_style_grid_cell_x_align
	.globl	lv_obj_set_style_grid_cell_x_align
	.p2align	1
	.type	lv_obj_set_style_grid_cell_x_align,%function
	.code	16                              @ @lv_obj_set_style_grid_cell_x_align
	.thumb_func
lv_obj_set_style_grid_cell_x_align:
.Lfunc_begin11:
	.loc	2 324 0 is_stmt 1               @ ../GUILib/src/extra/layouts/grid/lv_grid.c:324:0
	.fnstart
	.cfi_startproc
@ %bb.0:
	@DEBUG_VALUE: lv_obj_set_style_grid_cell_x_align:obj <- $r0
	@DEBUG_VALUE: lv_obj_set_style_grid_cell_x_align:value <- $r1
	@DEBUG_VALUE: lv_obj_set_style_grid_cell_x_align:selector <- $r2
	mov	r3, r2
	mov	r2, r1
.Ltmp450:
	@DEBUG_VALUE: lv_obj_set_style_grid_cell_x_align:selector <- [DW_OP_LLVM_entry_value 1] $r2
	@DEBUG_VALUE: lv_obj_set_style_grid_cell_x_align:v <- $r2
	@DEBUG_VALUE: lv_obj_set_style_grid_cell_x_align:selector <- $r3
	@DEBUG_VALUE: lv_obj_set_style_grid_cell_x_align:value <- $r2
	@DEBUG_VALUE: lv_obj_set_style_grid_cell_x_align:obj <- $r0
	.loc	2 328 38 prologue_end           @ ../GUILib/src/extra/layouts/grid/lv_grid.c:328:38
	movw	r1, :lower16:LV_STYLE_GRID_CELL_X_ALIGN
	movt	r1, :upper16:LV_STYLE_GRID_CELL_X_ALIGN
	ldrh	r1, [r1]
	@DEBUG_VALUE: lv_obj_set_style_grid_cell_x_align:selector <- $r3
	@DEBUG_VALUE: lv_obj_set_style_grid_cell_x_align:value <- $r2
	@DEBUG_VALUE: lv_obj_set_style_grid_cell_x_align:obj <- $r0
.Ltmp451:
	.loc	2 328 5 is_stmt 0               @ ../GUILib/src/extra/layouts/grid/lv_grid.c:328:5
	b	lv_obj_set_local_style_prop
.Ltmp452:
.Lfunc_end11:
	.size	lv_obj_set_style_grid_cell_x_align, .Lfunc_end11-lv_obj_set_style_grid_cell_x_align
	.cfi_endproc
	.cantunwind
	.fnend
                                        @ -- End function
	.section	.text.lv_obj_set_style_grid_cell_column_span,"ax",%progbits
	.hidden	lv_obj_set_style_grid_cell_column_span @ -- Begin function lv_obj_set_style_grid_cell_column_span
	.globl	lv_obj_set_style_grid_cell_column_span
	.p2align	1
	.type	lv_obj_set_style_grid_cell_column_span,%function
	.code	16                              @ @lv_obj_set_style_grid_cell_column_span
	.thumb_func
lv_obj_set_style_grid_cell_column_span:
.Lfunc_begin12:
	.loc	2 300 0 is_stmt 1               @ ../GUILib/src/extra/layouts/grid/lv_grid.c:300:0
	.fnstart
	.cfi_startproc
@ %bb.0:
	@DEBUG_VALUE: lv_obj_set_style_grid_cell_column_span:obj <- $r0
	@DEBUG_VALUE: lv_obj_set_style_grid_cell_column_span:value <- $r1
	@DEBUG_VALUE: lv_obj_set_style_grid_cell_column_span:selector <- $r2
	mov	r3, r2
	mov	r2, r1
.Ltmp453:
	@DEBUG_VALUE: lv_obj_set_style_grid_cell_column_span:selector <- [DW_OP_LLVM_entry_value 1] $r2
	@DEBUG_VALUE: lv_obj_set_style_grid_cell_column_span:v <- $r2
	@DEBUG_VALUE: lv_obj_set_style_grid_cell_column_span:selector <- $r3
	@DEBUG_VALUE: lv_obj_set_style_grid_cell_column_span:value <- $r2
	@DEBUG_VALUE: lv_obj_set_style_grid_cell_column_span:obj <- $r0
	.loc	2 304 38 prologue_end           @ ../GUILib/src/extra/layouts/grid/lv_grid.c:304:38
	movw	r1, :lower16:LV_STYLE_GRID_CELL_COLUMN_SPAN
	movt	r1, :upper16:LV_STYLE_GRID_CELL_COLUMN_SPAN
	ldrh	r1, [r1]
	@DEBUG_VALUE: lv_obj_set_style_grid_cell_column_span:selector <- $r3
	@DEBUG_VALUE: lv_obj_set_style_grid_cell_column_span:value <- $r2
	@DEBUG_VALUE: lv_obj_set_style_grid_cell_column_span:obj <- $r0
.Ltmp454:
	.loc	2 304 5 is_stmt 0               @ ../GUILib/src/extra/layouts/grid/lv_grid.c:304:5
	b	lv_obj_set_local_style_prop
.Ltmp455:
.Lfunc_end12:
	.size	lv_obj_set_style_grid_cell_column_span, .Lfunc_end12-lv_obj_set_style_grid_cell_column_span
	.cfi_endproc
	.cantunwind
	.fnend
                                        @ -- End function
	.section	.text.lv_obj_set_style_grid_cell_row_span,"ax",%progbits
	.hidden	lv_obj_set_style_grid_cell_row_span @ -- Begin function lv_obj_set_style_grid_cell_row_span
	.globl	lv_obj_set_style_grid_cell_row_span
	.p2align	1
	.type	lv_obj_set_style_grid_cell_row_span,%function
	.code	16                              @ @lv_obj_set_style_grid_cell_row_span
	.thumb_func
lv_obj_set_style_grid_cell_row_span:
.Lfunc_begin13:
	.loc	2 316 0 is_stmt 1               @ ../GUILib/src/extra/layouts/grid/lv_grid.c:316:0
	.fnstart
	.cfi_startproc
@ %bb.0:
	@DEBUG_VALUE: lv_obj_set_style_grid_cell_row_span:obj <- $r0
	@DEBUG_VALUE: lv_obj_set_style_grid_cell_row_span:value <- $r1
	@DEBUG_VALUE: lv_obj_set_style_grid_cell_row_span:selector <- $r2
	mov	r3, r2
	mov	r2, r1
.Ltmp456:
	@DEBUG_VALUE: lv_obj_set_style_grid_cell_row_span:selector <- [DW_OP_LLVM_entry_value 1] $r2
	@DEBUG_VALUE: lv_obj_set_style_grid_cell_row_span:v <- $r2
	@DEBUG_VALUE: lv_obj_set_style_grid_cell_row_span:selector <- $r3
	@DEBUG_VALUE: lv_obj_set_style_grid_cell_row_span:value <- $r2
	@DEBUG_VALUE: lv_obj_set_style_grid_cell_row_span:obj <- $r0
	.loc	2 320 38 prologue_end           @ ../GUILib/src/extra/layouts/grid/lv_grid.c:320:38
	movw	r1, :lower16:LV_STYLE_GRID_CELL_ROW_SPAN
	movt	r1, :upper16:LV_STYLE_GRID_CELL_ROW_SPAN
	ldrh	r1, [r1]
	@DEBUG_VALUE: lv_obj_set_style_grid_cell_row_span:selector <- $r3
	@DEBUG_VALUE: lv_obj_set_style_grid_cell_row_span:value <- $r2
	@DEBUG_VALUE: lv_obj_set_style_grid_cell_row_span:obj <- $r0
.Ltmp457:
	.loc	2 320 5 is_stmt 0               @ ../GUILib/src/extra/layouts/grid/lv_grid.c:320:5
	b	lv_obj_set_local_style_prop
.Ltmp458:
.Lfunc_end13:
	.size	lv_obj_set_style_grid_cell_row_span, .Lfunc_end13-lv_obj_set_style_grid_cell_row_span
	.cfi_endproc
	.cantunwind
	.fnend
                                        @ -- End function
	.section	.text.lv_obj_set_style_grid_cell_y_align,"ax",%progbits
	.hidden	lv_obj_set_style_grid_cell_y_align @ -- Begin function lv_obj_set_style_grid_cell_y_align
	.globl	lv_obj_set_style_grid_cell_y_align
	.p2align	1
	.type	lv_obj_set_style_grid_cell_y_align,%function
	.code	16                              @ @lv_obj_set_style_grid_cell_y_align
	.thumb_func
lv_obj_set_style_grid_cell_y_align:
.Lfunc_begin14:
	.loc	2 332 0 is_stmt 1               @ ../GUILib/src/extra/layouts/grid/lv_grid.c:332:0
	.fnstart
	.cfi_startproc
@ %bb.0:
	@DEBUG_VALUE: lv_obj_set_style_grid_cell_y_align:obj <- $r0
	@DEBUG_VALUE: lv_obj_set_style_grid_cell_y_align:value <- $r1
	@DEBUG_VALUE: lv_obj_set_style_grid_cell_y_align:selector <- $r2
	mov	r3, r2
	mov	r2, r1
.Ltmp459:
	@DEBUG_VALUE: lv_obj_set_style_grid_cell_y_align:selector <- [DW_OP_LLVM_entry_value 1] $r2
	@DEBUG_VALUE: lv_obj_set_style_grid_cell_y_align:v <- $r2
	@DEBUG_VALUE: lv_obj_set_style_grid_cell_y_align:selector <- $r3
	@DEBUG_VALUE: lv_obj_set_style_grid_cell_y_align:value <- $r2
	@DEBUG_VALUE: lv_obj_set_style_grid_cell_y_align:obj <- $r0
	.loc	2 336 38 prologue_end           @ ../GUILib/src/extra/layouts/grid/lv_grid.c:336:38
	movw	r1, :lower16:LV_STYLE_GRID_CELL_Y_ALIGN
	movt	r1, :upper16:LV_STYLE_GRID_CELL_Y_ALIGN
	ldrh	r1, [r1]
	@DEBUG_VALUE: lv_obj_set_style_grid_cell_y_align:selector <- $r3
	@DEBUG_VALUE: lv_obj_set_style_grid_cell_y_align:value <- $r2
	@DEBUG_VALUE: lv_obj_set_style_grid_cell_y_align:obj <- $r0
.Ltmp460:
	.loc	2 336 5 is_stmt 0               @ ../GUILib/src/extra/layouts/grid/lv_grid.c:336:5
	b	lv_obj_set_local_style_prop
.Ltmp461:
.Lfunc_end14:
	.size	lv_obj_set_style_grid_cell_y_align, .Lfunc_end14-lv_obj_set_style_grid_cell_y_align
	.cfi_endproc
	.cantunwind
	.fnend
                                        @ -- End function
	.section	.text.lv_style_set_grid_row_dsc_array,"ax",%progbits
	.hidden	lv_style_set_grid_row_dsc_array @ -- Begin function lv_style_set_grid_row_dsc_array
	.globl	lv_style_set_grid_row_dsc_array
	.p2align	1
	.type	lv_style_set_grid_row_dsc_array,%function
	.code	16                              @ @lv_style_set_grid_row_dsc_array
	.thumb_func
lv_style_set_grid_row_dsc_array:
.Lfunc_begin15:
	.loc	2 177 0 is_stmt 1               @ ../GUILib/src/extra/layouts/grid/lv_grid.c:177:0
	.fnstart
	.cfi_startproc
@ %bb.0:
	@DEBUG_VALUE: lv_style_set_grid_row_dsc_array:style <- $r0
	@DEBUG_VALUE: lv_style_set_grid_row_dsc_array:value <- $r1
	mov	r2, r1
.Ltmp462:
	@DEBUG_VALUE: lv_style_set_grid_row_dsc_array:v <- $r2
	@DEBUG_VALUE: lv_style_set_grid_row_dsc_array:value <- $r2
	@DEBUG_VALUE: lv_style_set_grid_row_dsc_array:style <- $r0
	.loc	2 181 30 prologue_end           @ ../GUILib/src/extra/layouts/grid/lv_grid.c:181:30
	movw	r1, :lower16:LV_STYLE_GRID_ROW_DSC_ARRAY
	movt	r1, :upper16:LV_STYLE_GRID_ROW_DSC_ARRAY
	ldrh	r1, [r1]
	@DEBUG_VALUE: lv_style_set_grid_row_dsc_array:value <- $r2
	@DEBUG_VALUE: lv_style_set_grid_row_dsc_array:style <- $r0
.Ltmp463:
	.loc	2 181 5 is_stmt 0               @ ../GUILib/src/extra/layouts/grid/lv_grid.c:181:5
	b	lv_style_set_prop
.Ltmp464:
.Lfunc_end15:
	.size	lv_style_set_grid_row_dsc_array, .Lfunc_end15-lv_style_set_grid_row_dsc_array
	.cfi_endproc
	.cantunwind
	.fnend
                                        @ -- End function
	.section	.text.lv_style_set_grid_column_dsc_array,"ax",%progbits
	.hidden	lv_style_set_grid_column_dsc_array @ -- Begin function lv_style_set_grid_column_dsc_array
	.globl	lv_style_set_grid_column_dsc_array
	.p2align	1
	.type	lv_style_set_grid_column_dsc_array,%function
	.code	16                              @ @lv_style_set_grid_column_dsc_array
	.thumb_func
lv_style_set_grid_column_dsc_array:
.Lfunc_begin16:
	.loc	2 185 0 is_stmt 1               @ ../GUILib/src/extra/layouts/grid/lv_grid.c:185:0
	.fnstart
	.cfi_startproc
@ %bb.0:
	@DEBUG_VALUE: lv_style_set_grid_column_dsc_array:style <- $r0
	@DEBUG_VALUE: lv_style_set_grid_column_dsc_array:value <- $r1
	mov	r2, r1
.Ltmp465:
	@DEBUG_VALUE: lv_style_set_grid_column_dsc_array:v <- $r2
	@DEBUG_VALUE: lv_style_set_grid_column_dsc_array:value <- $r2
	@DEBUG_VALUE: lv_style_set_grid_column_dsc_array:style <- $r0
	.loc	2 189 30 prologue_end           @ ../GUILib/src/extra/layouts/grid/lv_grid.c:189:30
	movw	r1, :lower16:LV_STYLE_GRID_COLUMN_DSC_ARRAY
	movt	r1, :upper16:LV_STYLE_GRID_COLUMN_DSC_ARRAY
	ldrh	r1, [r1]
	@DEBUG_VALUE: lv_style_set_grid_column_dsc_array:value <- $r2
	@DEBUG_VALUE: lv_style_set_grid_column_dsc_array:style <- $r0
.Ltmp466:
	.loc	2 189 5 is_stmt 0               @ ../GUILib/src/extra/layouts/grid/lv_grid.c:189:5
	b	lv_style_set_prop
.Ltmp467:
.Lfunc_end16:
	.size	lv_style_set_grid_column_dsc_array, .Lfunc_end16-lv_style_set_grid_column_dsc_array
	.cfi_endproc
	.cantunwind
	.fnend
                                        @ -- End function
	.section	.text.lv_style_set_grid_row_align,"ax",%progbits
	.hidden	lv_style_set_grid_row_align     @ -- Begin function lv_style_set_grid_row_align
	.globl	lv_style_set_grid_row_align
	.p2align	1
	.type	lv_style_set_grid_row_align,%function
	.code	16                              @ @lv_style_set_grid_row_align
	.thumb_func
lv_style_set_grid_row_align:
.Lfunc_begin17:
	.loc	2 193 0 is_stmt 1               @ ../GUILib/src/extra/layouts/grid/lv_grid.c:193:0
	.fnstart
	.cfi_startproc
@ %bb.0:
	@DEBUG_VALUE: lv_style_set_grid_row_align:style <- $r0
	@DEBUG_VALUE: lv_style_set_grid_row_align:value <- $r1
	mov	r2, r1
.Ltmp468:
	@DEBUG_VALUE: lv_style_set_grid_row_align:v <- $r2
	@DEBUG_VALUE: lv_style_set_grid_row_align:value <- $r2
	@DEBUG_VALUE: lv_style_set_grid_row_align:style <- $r0
	.loc	2 197 30 prologue_end           @ ../GUILib/src/extra/layouts/grid/lv_grid.c:197:30
	movw	r1, :lower16:LV_STYLE_GRID_ROW_ALIGN
	movt	r1, :upper16:LV_STYLE_GRID_ROW_ALIGN
	ldrh	r1, [r1]
	@DEBUG_VALUE: lv_style_set_grid_row_align:value <- $r2
	@DEBUG_VALUE: lv_style_set_grid_row_align:style <- $r0
.Ltmp469:
	.loc	2 197 5 is_stmt 0               @ ../GUILib/src/extra/layouts/grid/lv_grid.c:197:5
	b	lv_style_set_prop
.Ltmp470:
.Lfunc_end17:
	.size	lv_style_set_grid_row_align, .Lfunc_end17-lv_style_set_grid_row_align
	.cfi_endproc
	.cantunwind
	.fnend
                                        @ -- End function
	.section	.text.lv_style_set_grid_column_align,"ax",%progbits
	.hidden	lv_style_set_grid_column_align  @ -- Begin function lv_style_set_grid_column_align
	.globl	lv_style_set_grid_column_align
	.p2align	1
	.type	lv_style_set_grid_column_align,%function
	.code	16                              @ @lv_style_set_grid_column_align
	.thumb_func
lv_style_set_grid_column_align:
.Lfunc_begin18:
	.loc	2 201 0 is_stmt 1               @ ../GUILib/src/extra/layouts/grid/lv_grid.c:201:0
	.fnstart
	.cfi_startproc
@ %bb.0:
	@DEBUG_VALUE: lv_style_set_grid_column_align:style <- $r0
	@DEBUG_VALUE: lv_style_set_grid_column_align:value <- $r1
	mov	r2, r1
.Ltmp471:
	@DEBUG_VALUE: lv_style_set_grid_column_align:v <- $r2
	@DEBUG_VALUE: lv_style_set_grid_column_align:value <- $r2
	@DEBUG_VALUE: lv_style_set_grid_column_align:style <- $r0
	.loc	2 205 30 prologue_end           @ ../GUILib/src/extra/layouts/grid/lv_grid.c:205:30
	movw	r1, :lower16:LV_STYLE_GRID_COLUMN_ALIGN
	movt	r1, :upper16:LV_STYLE_GRID_COLUMN_ALIGN
	ldrh	r1, [r1]
	@DEBUG_VALUE: lv_style_set_grid_column_align:value <- $r2
	@DEBUG_VALUE: lv_style_set_grid_column_align:style <- $r0
.Ltmp472:
	.loc	2 205 5 is_stmt 0               @ ../GUILib/src/extra/layouts/grid/lv_grid.c:205:5
	b	lv_style_set_prop
.Ltmp473:
.Lfunc_end18:
	.size	lv_style_set_grid_column_align, .Lfunc_end18-lv_style_set_grid_column_align
	.cfi_endproc
	.cantunwind
	.fnend
                                        @ -- End function
	.section	.text.lv_style_set_grid_cell_column_pos,"ax",%progbits
	.hidden	lv_style_set_grid_cell_column_pos @ -- Begin function lv_style_set_grid_cell_column_pos
	.globl	lv_style_set_grid_cell_column_pos
	.p2align	1
	.type	lv_style_set_grid_cell_column_pos,%function
	.code	16                              @ @lv_style_set_grid_cell_column_pos
	.thumb_func
lv_style_set_grid_cell_column_pos:
.Lfunc_begin19:
	.loc	2 210 0 is_stmt 1               @ ../GUILib/src/extra/layouts/grid/lv_grid.c:210:0
	.fnstart
	.cfi_startproc
@ %bb.0:
	@DEBUG_VALUE: lv_style_set_grid_cell_column_pos:style <- $r0
	@DEBUG_VALUE: lv_style_set_grid_cell_column_pos:value <- $r1
	mov	r2, r1
.Ltmp474:
	@DEBUG_VALUE: lv_style_set_grid_cell_column_pos:v <- $r2
	@DEBUG_VALUE: lv_style_set_grid_cell_column_pos:value <- $r2
	@DEBUG_VALUE: lv_style_set_grid_cell_column_pos:style <- $r0
	.loc	2 214 30 prologue_end           @ ../GUILib/src/extra/layouts/grid/lv_grid.c:214:30
	movw	r1, :lower16:LV_STYLE_GRID_CELL_COLUMN_POS
	movt	r1, :upper16:LV_STYLE_GRID_CELL_COLUMN_POS
	ldrh	r1, [r1]
	@DEBUG_VALUE: lv_style_set_grid_cell_column_pos:value <- $r2
	@DEBUG_VALUE: lv_style_set_grid_cell_column_pos:style <- $r0
.Ltmp475:
	.loc	2 214 5 is_stmt 0               @ ../GUILib/src/extra/layouts/grid/lv_grid.c:214:5
	b	lv_style_set_prop
.Ltmp476:
.Lfunc_end19:
	.size	lv_style_set_grid_cell_column_pos, .Lfunc_end19-lv_style_set_grid_cell_column_pos
	.cfi_endproc
	.cantunwind
	.fnend
                                        @ -- End function
	.section	.text.lv_style_set_grid_cell_column_span,"ax",%progbits
	.hidden	lv_style_set_grid_cell_column_span @ -- Begin function lv_style_set_grid_cell_column_span
	.globl	lv_style_set_grid_cell_column_span
	.p2align	1
	.type	lv_style_set_grid_cell_column_span,%function
	.code	16                              @ @lv_style_set_grid_cell_column_span
	.thumb_func
lv_style_set_grid_cell_column_span:
.Lfunc_begin20:
	.loc	2 218 0 is_stmt 1               @ ../GUILib/src/extra/layouts/grid/lv_grid.c:218:0
	.fnstart
	.cfi_startproc
@ %bb.0:
	@DEBUG_VALUE: lv_style_set_grid_cell_column_span:style <- $r0
	@DEBUG_VALUE: lv_style_set_grid_cell_column_span:value <- $r1
	mov	r2, r1
.Ltmp477:
	@DEBUG_VALUE: lv_style_set_grid_cell_column_span:v <- $r2
	@DEBUG_VALUE: lv_style_set_grid_cell_column_span:value <- $r2
	@DEBUG_VALUE: lv_style_set_grid_cell_column_span:style <- $r0
	.loc	2 222 30 prologue_end           @ ../GUILib/src/extra/layouts/grid/lv_grid.c:222:30
	movw	r1, :lower16:LV_STYLE_GRID_CELL_COLUMN_SPAN
	movt	r1, :upper16:LV_STYLE_GRID_CELL_COLUMN_SPAN
	ldrh	r1, [r1]
	@DEBUG_VALUE: lv_style_set_grid_cell_column_span:value <- $r2
	@DEBUG_VALUE: lv_style_set_grid_cell_column_span:style <- $r0
.Ltmp478:
	.loc	2 222 5 is_stmt 0               @ ../GUILib/src/extra/layouts/grid/lv_grid.c:222:5
	b	lv_style_set_prop
.Ltmp479:
.Lfunc_end20:
	.size	lv_style_set_grid_cell_column_span, .Lfunc_end20-lv_style_set_grid_cell_column_span
	.cfi_endproc
	.cantunwind
	.fnend
                                        @ -- End function
	.section	.text.lv_style_set_grid_cell_row_pos,"ax",%progbits
	.hidden	lv_style_set_grid_cell_row_pos  @ -- Begin function lv_style_set_grid_cell_row_pos
	.globl	lv_style_set_grid_cell_row_pos
	.p2align	1
	.type	lv_style_set_grid_cell_row_pos,%function
	.code	16                              @ @lv_style_set_grid_cell_row_pos
	.thumb_func
lv_style_set_grid_cell_row_pos:
.Lfunc_begin21:
	.loc	2 226 0 is_stmt 1               @ ../GUILib/src/extra/layouts/grid/lv_grid.c:226:0
	.fnstart
	.cfi_startproc
@ %bb.0:
	@DEBUG_VALUE: lv_style_set_grid_cell_row_pos:style <- $r0
	@DEBUG_VALUE: lv_style_set_grid_cell_row_pos:value <- $r1
	mov	r2, r1
.Ltmp480:
	@DEBUG_VALUE: lv_style_set_grid_cell_row_pos:v <- $r2
	@DEBUG_VALUE: lv_style_set_grid_cell_row_pos:value <- $r2
	@DEBUG_VALUE: lv_style_set_grid_cell_row_pos:style <- $r0
	.loc	2 230 30 prologue_end           @ ../GUILib/src/extra/layouts/grid/lv_grid.c:230:30
	movw	r1, :lower16:LV_STYLE_GRID_CELL_ROW_POS
	movt	r1, :upper16:LV_STYLE_GRID_CELL_ROW_POS
	ldrh	r1, [r1]
	@DEBUG_VALUE: lv_style_set_grid_cell_row_pos:value <- $r2
	@DEBUG_VALUE: lv_style_set_grid_cell_row_pos:style <- $r0
.Ltmp481:
	.loc	2 230 5 is_stmt 0               @ ../GUILib/src/extra/layouts/grid/lv_grid.c:230:5
	b	lv_style_set_prop
.Ltmp482:
.Lfunc_end21:
	.size	lv_style_set_grid_cell_row_pos, .Lfunc_end21-lv_style_set_grid_cell_row_pos
	.cfi_endproc
	.cantunwind
	.fnend
                                        @ -- End function
	.section	.text.lv_style_set_grid_cell_row_span,"ax",%progbits
	.hidden	lv_style_set_grid_cell_row_span @ -- Begin function lv_style_set_grid_cell_row_span
	.globl	lv_style_set_grid_cell_row_span
	.p2align	1
	.type	lv_style_set_grid_cell_row_span,%function
	.code	16                              @ @lv_style_set_grid_cell_row_span
	.thumb_func
lv_style_set_grid_cell_row_span:
.Lfunc_begin22:
	.loc	2 234 0 is_stmt 1               @ ../GUILib/src/extra/layouts/grid/lv_grid.c:234:0
	.fnstart
	.cfi_startproc
@ %bb.0:
	@DEBUG_VALUE: lv_style_set_grid_cell_row_span:style <- $r0
	@DEBUG_VALUE: lv_style_set_grid_cell_row_span:value <- $r1
	mov	r2, r1
.Ltmp483:
	@DEBUG_VALUE: lv_style_set_grid_cell_row_span:v <- $r2
	@DEBUG_VALUE: lv_style_set_grid_cell_row_span:value <- $r2
	@DEBUG_VALUE: lv_style_set_grid_cell_row_span:style <- $r0
	.loc	2 238 30 prologue_end           @ ../GUILib/src/extra/layouts/grid/lv_grid.c:238:30
	movw	r1, :lower16:LV_STYLE_GRID_CELL_ROW_SPAN
	movt	r1, :upper16:LV_STYLE_GRID_CELL_ROW_SPAN
	ldrh	r1, [r1]
	@DEBUG_VALUE: lv_style_set_grid_cell_row_span:value <- $r2
	@DEBUG_VALUE: lv_style_set_grid_cell_row_span:style <- $r0
.Ltmp484:
	.loc	2 238 5 is_stmt 0               @ ../GUILib/src/extra/layouts/grid/lv_grid.c:238:5
	b	lv_style_set_prop
.Ltmp485:
.Lfunc_end22:
	.size	lv_style_set_grid_cell_row_span, .Lfunc_end22-lv_style_set_grid_cell_row_span
	.cfi_endproc
	.cantunwind
	.fnend
                                        @ -- End function
	.section	.text.lv_style_set_grid_cell_x_align,"ax",%progbits
	.hidden	lv_style_set_grid_cell_x_align  @ -- Begin function lv_style_set_grid_cell_x_align
	.globl	lv_style_set_grid_cell_x_align
	.p2align	1
	.type	lv_style_set_grid_cell_x_align,%function
	.code	16                              @ @lv_style_set_grid_cell_x_align
	.thumb_func
lv_style_set_grid_cell_x_align:
.Lfunc_begin23:
	.loc	2 242 0 is_stmt 1               @ ../GUILib/src/extra/layouts/grid/lv_grid.c:242:0
	.fnstart
	.cfi_startproc
@ %bb.0:
	@DEBUG_VALUE: lv_style_set_grid_cell_x_align:style <- $r0
	@DEBUG_VALUE: lv_style_set_grid_cell_x_align:value <- $r1
	mov	r2, r1
.Ltmp486:
	@DEBUG_VALUE: lv_style_set_grid_cell_x_align:v <- $r2
	@DEBUG_VALUE: lv_style_set_grid_cell_x_align:value <- $r2
	@DEBUG_VALUE: lv_style_set_grid_cell_x_align:style <- $r0
	.loc	2 246 30 prologue_end           @ ../GUILib/src/extra/layouts/grid/lv_grid.c:246:30
	movw	r1, :lower16:LV_STYLE_GRID_CELL_X_ALIGN
	movt	r1, :upper16:LV_STYLE_GRID_CELL_X_ALIGN
	ldrh	r1, [r1]
	@DEBUG_VALUE: lv_style_set_grid_cell_x_align:value <- $r2
	@DEBUG_VALUE: lv_style_set_grid_cell_x_align:style <- $r0
.Ltmp487:
	.loc	2 246 5 is_stmt 0               @ ../GUILib/src/extra/layouts/grid/lv_grid.c:246:5
	b	lv_style_set_prop
.Ltmp488:
.Lfunc_end23:
	.size	lv_style_set_grid_cell_x_align, .Lfunc_end23-lv_style_set_grid_cell_x_align
	.cfi_endproc
	.cantunwind
	.fnend
                                        @ -- End function
	.section	.text.lv_style_set_grid_cell_y_align,"ax",%progbits
	.hidden	lv_style_set_grid_cell_y_align  @ -- Begin function lv_style_set_grid_cell_y_align
	.globl	lv_style_set_grid_cell_y_align
	.p2align	1
	.type	lv_style_set_grid_cell_y_align,%function
	.code	16                              @ @lv_style_set_grid_cell_y_align
	.thumb_func
lv_style_set_grid_cell_y_align:
.Lfunc_begin24:
	.loc	2 250 0 is_stmt 1               @ ../GUILib/src/extra/layouts/grid/lv_grid.c:250:0
	.fnstart
	.cfi_startproc
@ %bb.0:
	@DEBUG_VALUE: lv_style_set_grid_cell_y_align:style <- $r0
	@DEBUG_VALUE: lv_style_set_grid_cell_y_align:value <- $r1
	mov	r2, r1
.Ltmp489:
	@DEBUG_VALUE: lv_style_set_grid_cell_y_align:v <- $r2
	@DEBUG_VALUE: lv_style_set_grid_cell_y_align:value <- $r2
	@DEBUG_VALUE: lv_style_set_grid_cell_y_align:style <- $r0
	.loc	2 254 30 prologue_end           @ ../GUILib/src/extra/layouts/grid/lv_grid.c:254:30
	movw	r1, :lower16:LV_STYLE_GRID_CELL_Y_ALIGN
	movt	r1, :upper16:LV_STYLE_GRID_CELL_Y_ALIGN
	ldrh	r1, [r1]
	@DEBUG_VALUE: lv_style_set_grid_cell_y_align:value <- $r2
	@DEBUG_VALUE: lv_style_set_grid_cell_y_align:style <- $r0
.Ltmp490:
	.loc	2 254 5 is_stmt 0               @ ../GUILib/src/extra/layouts/grid/lv_grid.c:254:5
	b	lv_style_set_prop
.Ltmp491:
.Lfunc_end24:
	.size	lv_style_set_grid_cell_y_align, .Lfunc_end24-lv_style_set_grid_cell_y_align
	.cfi_endproc
	.cantunwind
	.fnend
                                        @ -- End function
	.section	.text.grid_align,"ax",%progbits
	.p2align	2                               @ -- Begin function grid_align
	.type	grid_align,%function
	.code	16                              @ @grid_align
	.thumb_func
grid_align:
.Lfunc_begin25:
	.loc	2 706 0 is_stmt 1               @ ../GUILib/src/extra/layouts/grid/lv_grid.c:706:0
	.fnstart
	.cfi_startproc
@ %bb.0:
	@DEBUG_VALUE: grid_align:cont_size <- $r0
	@DEBUG_VALUE: grid_align:auto_size <- [DW_OP_LLVM_convert 1 7, DW_OP_LLVM_convert 8 7, DW_OP_stack_value] $r1
	@DEBUG_VALUE: grid_align:align <- $r2
	@DEBUG_VALUE: grid_align:gap <- $r3
	.save	{r4, r5, r6, r7, r8, r9, lr}
	push.w	{r4, r5, r6, r7, r8, r9, lr}
	.cfi_def_cfa_offset 28
	.cfi_offset lr, -4
	.cfi_offset r9, -8
	.cfi_offset r8, -12
	.cfi_offset r7, -16
	.cfi_offset r6, -20
	.cfi_offset r5, -24
	.cfi_offset r4, -28
	add.w	lr, sp, #28
	ldm.w	lr, {r8, r12, lr}
.Ltmp492:
	@DEBUG_VALUE: grid_align:grid_size <- 0
	@DEBUG_VALUE: grid_align:pos_array <- [DW_OP_plus_uconst 36] [$sp+0]
	@DEBUG_VALUE: grid_align:size_array <- [DW_OP_plus_uconst 32] [$sp+0]
	@DEBUG_VALUE: grid_align:track_num <- [DW_OP_plus_uconst 28] [$sp+0]
	@DEBUG_VALUE: grid_align:gap <- $r3
	@DEBUG_VALUE: grid_align:align <- $r2
	@DEBUG_VALUE: grid_align:auto_size <- [DW_OP_LLVM_convert 1 7, DW_OP_LLVM_convert 8 7, DW_OP_stack_value] $r1
	@DEBUG_VALUE: grid_align:cont_size <- undef
	@DEBUG_VALUE: grid_align:reverse <- [DW_OP_LLVM_convert 1 7, DW_OP_LLVM_convert 8 7, DW_OP_stack_value] undef
	@DEBUG_VALUE: grid_align:cont_size <- $r0
	.loc	2 710 8 prologue_end            @ ../GUILib/src/extra/layouts/grid/lv_grid.c:710:8
	cbz	r1, .LBB25_11
	b	.LBB25_19
.Ltmp493:
.LBB25_1:
	@DEBUG_VALUE: grid_align:gap <- $r3
	@DEBUG_VALUE: grid_align:cont_size <- $r0
	@DEBUG_VALUE: grid_align:track_num <- [DW_OP_plus_uconst 28] [$sp+0]
	@DEBUG_VALUE: grid_align:size_array <- [DW_OP_plus_uconst 32] [$sp+0]
	@DEBUG_VALUE: grid_align:pos_array <- [DW_OP_plus_uconst 36] [$sp+0]
	.loc	2 0 0 is_stmt 0                 @ ../GUILib/src/extra/layouts/grid/lv_grid.c:0:0
	strh.w	r1, [lr]
.Ltmp494:
.LBB25_2:
	@DEBUG_VALUE: grid_align:cont_size <- $r0
	@DEBUG_VALUE: grid_align:track_num <- [DW_OP_plus_uconst 28] [$sp+0]
	@DEBUG_VALUE: grid_align:size_array <- [DW_OP_plus_uconst 32] [$sp+0]
	@DEBUG_VALUE: grid_align:pos_array <- [DW_OP_plus_uconst 36] [$sp+0]
	@DEBUG_VALUE: grid_align:gap <- $r3
	@DEBUG_VALUE: grid_align:reverse <- [DW_OP_LLVM_convert 1 7, DW_OP_LLVM_convert 8 7, DW_OP_stack_value] undef
	@DEBUG_VALUE: grid_align:i <- 0
	.loc	2 754 30 is_stmt 1              @ ../GUILib/src/extra/layouts/grid/lv_grid.c:754:30
	subs.w	r1, r8, #1
.Ltmp495:
	.loc	2 754 5 is_stmt 0               @ ../GUILib/src/extra/layouts/grid/lv_grid.c:754:5
	beq	.LBB25_5
.Ltmp496:
@ %bb.3:
	@DEBUG_VALUE: grid_align:gap <- $r3
	@DEBUG_VALUE: grid_align:cont_size <- $r0
	@DEBUG_VALUE: grid_align:track_num <- [DW_OP_plus_uconst 28] [$sp+0]
	@DEBUG_VALUE: grid_align:size_array <- [DW_OP_plus_uconst 32] [$sp+0]
	@DEBUG_VALUE: grid_align:pos_array <- [DW_OP_plus_uconst 36] [$sp+0]
	@DEBUG_VALUE: grid_align:i <- 0
	.loc	2 755 28 is_stmt 1              @ ../GUILib/src/extra/layouts/grid/lv_grid.c:755:28
	mov	r2, lr
	ldrh	r6, [r2], #2
	mov	r5, r12
	mov	r7, r1
.Ltmp497:
	.p2align	2
.LBB25_4:                               @ =>This Inner Loop Header: Depth=1
	@DEBUG_VALUE: grid_align:gap <- $r3
	@DEBUG_VALUE: grid_align:cont_size <- $r0
	@DEBUG_VALUE: grid_align:track_num <- [DW_OP_plus_uconst 28] [$sp+0]
	@DEBUG_VALUE: grid_align:size_array <- [DW_OP_plus_uconst 32] [$sp+0]
	@DEBUG_VALUE: grid_align:pos_array <- [DW_OP_plus_uconst 36] [$sp+0]
	@DEBUG_VALUE: grid_align:i <- undef
	.loc	2 755 43 is_stmt 0              @ ../GUILib/src/extra/layouts/grid/lv_grid.c:755:43
	ldrh	r4, [r5], #2
	.loc	2 755 41                        @ ../GUILib/src/extra/layouts/grid/lv_grid.c:755:41
	add	r6, r3
	.loc	2 755 57                        @ ../GUILib/src/extra/layouts/grid/lv_grid.c:755:57
	add	r6, r4
.Ltmp498:
	.loc	2 754 18 is_stmt 1              @ ../GUILib/src/extra/layouts/grid/lv_grid.c:754:18
	subs	r7, #1
.Ltmp499:
	.loc	2 755 26                        @ ../GUILib/src/extra/layouts/grid/lv_grid.c:755:26
	strh	r6, [r2], #2
.Ltmp500:
	@DEBUG_VALUE: grid_align:i <- [DW_OP_plus_uconst 1, DW_OP_stack_value] undef
	.loc	2 754 5                         @ ../GUILib/src/extra/layouts/grid/lv_grid.c:754:5
	bne	.LBB25_4
.Ltmp501:
.LBB25_5:
	@DEBUG_VALUE: grid_align:gap <- $r3
	@DEBUG_VALUE: grid_align:cont_size <- $r0
	@DEBUG_VALUE: grid_align:track_num <- [DW_OP_plus_uconst 28] [$sp+0]
	@DEBUG_VALUE: grid_align:size_array <- [DW_OP_plus_uconst 32] [$sp+0]
	@DEBUG_VALUE: grid_align:pos_array <- [DW_OP_plus_uconst 36] [$sp+0]
	@DEBUG_VALUE: grid_align:reverse <- [DW_OP_LLVM_convert 1 7, DW_OP_LLVM_convert 8 7, DW_OP_stack_value] undef
	.loc	2 758 34                        @ ../GUILib/src/extra/layouts/grid/lv_grid.c:758:34
	ldrh.w	r9, [lr, r1, lsl #1]
	.loc	2 758 61 is_stmt 0              @ ../GUILib/src/extra/layouts/grid/lv_grid.c:758:61
	ldrh.w	r3, [r12, r1, lsl #1]
.Ltmp502:
	.loc	2 758 89                        @ ../GUILib/src/extra/layouts/grid/lv_grid.c:758:89
	ldrh.w	r5, [lr]
.Ltmp503:
	@DEBUG_VALUE: grid_align:total_gird_size <- [DW_OP_LLVM_convert 32 7, DW_OP_LLVM_convert 16 7, DW_OP_stack_value] undef
	@DEBUG_VALUE: grid_align:i <- 0
	.loc	2 760 8 is_stmt 1               @ ../GUILib/src/extra/layouts/grid/lv_grid.c:760:8
	cmp.w	r8, #0
	beq	.LBB25_10
.Ltmp504:
@ %bb.6:
	@DEBUG_VALUE: grid_align:cont_size <- $r0
	@DEBUG_VALUE: grid_align:track_num <- [DW_OP_plus_uconst 28] [$sp+0]
	@DEBUG_VALUE: grid_align:size_array <- [DW_OP_plus_uconst 32] [$sp+0]
	@DEBUG_VALUE: grid_align:pos_array <- [DW_OP_plus_uconst 36] [$sp+0]
	@DEBUG_VALUE: grid_align:i <- 0
	.loc	2 0 8 is_stmt 0                 @ ../GUILib/src/extra/layouts/grid/lv_grid.c:0:8
	ldr	r4, [sp, #40]
.Ltmp505:
	@DEBUG_VALUE: grid_align:reverse <- [DW_OP_LLVM_convert 1 7, DW_OP_LLVM_convert 8 7, DW_OP_stack_value] $r4
	.loc	2 760 8                         @ ../GUILib/src/extra/layouts/grid/lv_grid.c:760:8
	cbz	r4, .LBB25_10
.Ltmp506:
@ %bb.7:
	@DEBUG_VALUE: grid_align:reverse <- [DW_OP_LLVM_convert 1 7, DW_OP_LLVM_convert 8 7, DW_OP_stack_value] $r4
	@DEBUG_VALUE: grid_align:cont_size <- $r0
	@DEBUG_VALUE: grid_align:track_num <- [DW_OP_plus_uconst 28] [$sp+0]
	@DEBUG_VALUE: grid_align:size_array <- [DW_OP_plus_uconst 32] [$sp+0]
	@DEBUG_VALUE: grid_align:pos_array <- [DW_OP_plus_uconst 36] [$sp+0]
	@DEBUG_VALUE: grid_align:i <- 0
	@DEBUG_VALUE: grid_align:i <- 0
	.loc	2 762 55 is_stmt 1              @ ../GUILib/src/extra/layouts/grid/lv_grid.c:762:55
	ldrh.w	r4, [r12]
.Ltmp507:
	.loc	2 762 38 is_stmt 0              @ ../GUILib/src/extra/layouts/grid/lv_grid.c:762:38
	subs	r6, r0, r5
	.loc	2 762 53                        @ ../GUILib/src/extra/layouts/grid/lv_grid.c:762:53
	subs	r4, r6, r4
.Ltmp508:
	.loc	2 761 9 is_stmt 1               @ ../GUILib/src/extra/layouts/grid/lv_grid.c:761:9
	cmp.w	r8, #1
.Ltmp509:
	.loc	2 762 26                        @ ../GUILib/src/extra/layouts/grid/lv_grid.c:762:26
	strh.w	r4, [lr]
.Ltmp510:
	@DEBUG_VALUE: grid_align:i <- 1
	.loc	2 761 9                         @ ../GUILib/src/extra/layouts/grid/lv_grid.c:761:9
	beq	.LBB25_10
.Ltmp511:
@ %bb.8:
	@DEBUG_VALUE: grid_align:cont_size <- $r0
	@DEBUG_VALUE: grid_align:track_num <- [DW_OP_plus_uconst 28] [$sp+0]
	@DEBUG_VALUE: grid_align:size_array <- [DW_OP_plus_uconst 32] [$sp+0]
	@DEBUG_VALUE: grid_align:pos_array <- [DW_OP_plus_uconst 36] [$sp+0]
	@DEBUG_VALUE: grid_align:i <- 1
	add.w	r4, lr, #2
	add.w	r6, r12, #2
.Ltmp512:
	.p2align	2
.LBB25_9:                               @ =>This Inner Loop Header: Depth=1
	@DEBUG_VALUE: grid_align:cont_size <- $r0
	@DEBUG_VALUE: grid_align:track_num <- [DW_OP_plus_uconst 28] [$sp+0]
	@DEBUG_VALUE: grid_align:size_array <- [DW_OP_plus_uconst 32] [$sp+0]
	@DEBUG_VALUE: grid_align:pos_array <- [DW_OP_plus_uconst 36] [$sp+0]
	.loc	2 762 40                        @ ../GUILib/src/extra/layouts/grid/lv_grid.c:762:40
	ldrh	r7, [r4]
.Ltmp513:
	@DEBUG_VALUE: grid_align:i <- undef
	.loc	2 762 55 is_stmt 0              @ ../GUILib/src/extra/layouts/grid/lv_grid.c:762:55
	ldrh	r2, [r6], #2
	.loc	2 762 38                        @ ../GUILib/src/extra/layouts/grid/lv_grid.c:762:38
	subs	r7, r0, r7
	.loc	2 762 53                        @ ../GUILib/src/extra/layouts/grid/lv_grid.c:762:53
	subs	r2, r7, r2
.Ltmp514:
	.loc	2 761 22 is_stmt 1              @ ../GUILib/src/extra/layouts/grid/lv_grid.c:761:22
	subs	r1, #1
.Ltmp515:
	.loc	2 762 26                        @ ../GUILib/src/extra/layouts/grid/lv_grid.c:762:26
	strh	r2, [r4], #2
.Ltmp516:
	@DEBUG_VALUE: grid_align:i <- [DW_OP_plus_uconst 1, DW_OP_stack_value] undef
	.loc	2 761 9                         @ ../GUILib/src/extra/layouts/grid/lv_grid.c:761:9
	bne	.LBB25_9
.Ltmp517:
.LBB25_10:
	@DEBUG_VALUE: grid_align:cont_size <- $r0
	@DEBUG_VALUE: grid_align:track_num <- [DW_OP_plus_uconst 28] [$sp+0]
	@DEBUG_VALUE: grid_align:size_array <- [DW_OP_plus_uconst 32] [$sp+0]
	@DEBUG_VALUE: grid_align:pos_array <- [DW_OP_plus_uconst 36] [$sp+0]
	.loc	2 758 59                        @ ../GUILib/src/extra/layouts/grid/lv_grid.c:758:59
	add.w	r0, r3, r9
.Ltmp518:
	.loc	2 758 87 is_stmt 0              @ ../GUILib/src/extra/layouts/grid/lv_grid.c:758:87
	subs	r0, r0, r5
.Ltmp519:
	@DEBUG_VALUE: grid_align:total_gird_size <- $r0
	.loc	2 768 5 is_stmt 1               @ ../GUILib/src/extra/layouts/grid/lv_grid.c:768:5
	sxth	r0, r0
.Ltmp520:
	pop.w	{r4, r5, r6, r7, r8, r9, pc}
.Ltmp521:
.LBB25_11:
	@DEBUG_VALUE: grid_align:gap <- $r3
	@DEBUG_VALUE: grid_align:align <- $r2
	@DEBUG_VALUE: grid_align:auto_size <- [DW_OP_LLVM_convert 1 7, DW_OP_LLVM_convert 8 7, DW_OP_stack_value] $r1
	@DEBUG_VALUE: grid_align:cont_size <- $r0
	@DEBUG_VALUE: grid_align:track_num <- [DW_OP_plus_uconst 28] [$sp+0]
	@DEBUG_VALUE: grid_align:size_array <- [DW_OP_plus_uconst 32] [$sp+0]
	@DEBUG_VALUE: grid_align:pos_array <- [DW_OP_plus_uconst 36] [$sp+0]
	@DEBUG_VALUE: grid_align:grid_size <- 0
	.loc	2 715 48                        @ ../GUILib/src/extra/layouts/grid/lv_grid.c:715:48
	subs	r1, r2, #4
.Ltmp522:
	uxtb	r4, r1
	cmp	r4, #3
	it	lo
	movlo	r3, #0
.Ltmp523:
	@DEBUG_VALUE: grid_align:gap <- [DW_OP_LLVM_entry_value 1] $r3
	@DEBUG_VALUE: grid_align:gap <- $r3
	cmp.w	r8, #1
	mov	r1, r8
	it	ne
	movne	r1, r2
	cmp	r4, #3
	it	hs
	movhs	r1, r2
.Ltmp524:
	@DEBUG_VALUE: grid_align:i <- 0
	@DEBUG_VALUE: grid_align:grid_size <- undef
	@DEBUG_VALUE: grid_align:align <- $r1
	.loc	2 721 9                         @ ../GUILib/src/extra/layouts/grid/lv_grid.c:721:9
	cmp.w	r8, #0
	beq	.LBB25_14
.Ltmp525:
@ %bb.12:
	@DEBUG_VALUE: grid_align:gap <- $r3
	@DEBUG_VALUE: grid_align:align <- $r1
	@DEBUG_VALUE: grid_align:cont_size <- $r0
	@DEBUG_VALUE: grid_align:track_num <- [DW_OP_plus_uconst 28] [$sp+0]
	@DEBUG_VALUE: grid_align:size_array <- [DW_OP_plus_uconst 32] [$sp+0]
	@DEBUG_VALUE: grid_align:pos_array <- [DW_OP_plus_uconst 36] [$sp+0]
	@DEBUG_VALUE: grid_align:i <- 0
	.loc	2 0 9 is_stmt 0                 @ ../GUILib/src/extra/layouts/grid/lv_grid.c:0:9
	uxth	r5, r3
	movs	r4, #0
	mov	r6, r12
	mov	r7, r8
.Ltmp526:
	.p2align	2
.LBB25_13:                              @ =>This Inner Loop Header: Depth=1
	@DEBUG_VALUE: grid_align:gap <- $r3
	@DEBUG_VALUE: grid_align:align <- $r1
	@DEBUG_VALUE: grid_align:cont_size <- $r0
	@DEBUG_VALUE: grid_align:track_num <- [DW_OP_plus_uconst 28] [$sp+0]
	@DEBUG_VALUE: grid_align:size_array <- [DW_OP_plus_uconst 32] [$sp+0]
	@DEBUG_VALUE: grid_align:pos_array <- [DW_OP_plus_uconst 36] [$sp+0]
	@DEBUG_VALUE: grid_align:i <- undef
	.loc	2 722 26 is_stmt 1              @ ../GUILib/src/extra/layouts/grid/lv_grid.c:722:26
	ldrh	r2, [r6], #2
	.loc	2 722 40 is_stmt 0              @ ../GUILib/src/extra/layouts/grid/lv_grid.c:722:40
	add	r4, r5
	.loc	2 722 23                        @ ../GUILib/src/extra/layouts/grid/lv_grid.c:722:23
	add	r2, r4
.Ltmp527:
	@DEBUG_VALUE: grid_align:i <- [DW_OP_plus_uconst 1, DW_OP_stack_value] undef
	@DEBUG_VALUE: grid_align:grid_size <- [DW_OP_LLVM_convert 32 7, DW_OP_LLVM_convert 16 7, DW_OP_stack_value] undef
	.loc	2 721 22 is_stmt 1              @ ../GUILib/src/extra/layouts/grid/lv_grid.c:721:22
	subs	r7, #1
	.loc	2 721 9 is_stmt 0               @ ../GUILib/src/extra/layouts/grid/lv_grid.c:721:9
	sxth	r4, r2
.Ltmp528:
	@DEBUG_VALUE: grid_align:grid_size <- undef
	.loc	2 721 9                         @ ../GUILib/src/extra/layouts/grid/lv_grid.c:721:9
	bne	.LBB25_13
	b	.LBB25_15
.Ltmp529:
.LBB25_14:
	@DEBUG_VALUE: grid_align:gap <- $r3
	@DEBUG_VALUE: grid_align:align <- $r1
	@DEBUG_VALUE: grid_align:cont_size <- $r0
	@DEBUG_VALUE: grid_align:track_num <- [DW_OP_plus_uconst 28] [$sp+0]
	@DEBUG_VALUE: grid_align:size_array <- [DW_OP_plus_uconst 32] [$sp+0]
	@DEBUG_VALUE: grid_align:pos_array <- [DW_OP_plus_uconst 36] [$sp+0]
	@DEBUG_VALUE: grid_align:i <- 0
	.loc	2 0 9                           @ ../GUILib/src/extra/layouts/grid/lv_grid.c:0:9
	movs	r2, #0
.Ltmp530:
.LBB25_15:
	@DEBUG_VALUE: grid_align:gap <- $r3
	@DEBUG_VALUE: grid_align:align <- $r1
	@DEBUG_VALUE: grid_align:cont_size <- $r0
	@DEBUG_VALUE: grid_align:track_num <- [DW_OP_plus_uconst 28] [$sp+0]
	@DEBUG_VALUE: grid_align:size_array <- [DW_OP_plus_uconst 32] [$sp+0]
	@DEBUG_VALUE: grid_align:pos_array <- [DW_OP_plus_uconst 36] [$sp+0]
	@DEBUG_VALUE: grid_align:grid_size <- undef
	.loc	2 727 9 is_stmt 1               @ ../GUILib/src/extra/layouts/grid/lv_grid.c:727:9
	cmp	r1, #6
	bhi	.LBB25_2
.Ltmp531:
@ %bb.16:
	@DEBUG_VALUE: grid_align:gap <- $r3
	@DEBUG_VALUE: grid_align:align <- $r1
	@DEBUG_VALUE: grid_align:cont_size <- $r0
	@DEBUG_VALUE: grid_align:track_num <- [DW_OP_plus_uconst 28] [$sp+0]
	@DEBUG_VALUE: grid_align:size_array <- [DW_OP_plus_uconst 32] [$sp+0]
	@DEBUG_VALUE: grid_align:pos_array <- [DW_OP_plus_uconst 36] [$sp+0]
	.loc	2 0 9 is_stmt 0                 @ ../GUILib/src/extra/layouts/grid/lv_grid.c:0:9
	subs	r2, r2, r3
.Ltmp532:
	@DEBUG_VALUE: grid_align:grid_size <- $r2
.LCPI25_0:
	tbb	[pc, r1]
.Ltmp533:
@ %bb.17:
.LJTI25_0:
	.byte	(.LBB25_19-(.LCPI25_0+4))/2
	.byte	(.LBB25_20-(.LCPI25_0+4))/2
	.byte	(.LBB25_21-(.LCPI25_0+4))/2
	.byte	(.LBB25_18-(.LCPI25_0+4))/2
	.byte	(.LBB25_22-(.LCPI25_0+4))/2
	.byte	(.LBB25_23-(.LCPI25_0+4))/2
	.byte	(.LBB25_25-(.LCPI25_0+4))/2
	.p2align	1
.LBB25_18:
	b	.LBB25_2
.LBB25_19:
.Ltmp534:
	@DEBUG_VALUE: grid_align:cont_size <- $r0
	@DEBUG_VALUE: grid_align:track_num <- [DW_OP_plus_uconst 28] [$sp+0]
	@DEBUG_VALUE: grid_align:size_array <- [DW_OP_plus_uconst 32] [$sp+0]
	@DEBUG_VALUE: grid_align:pos_array <- [DW_OP_plus_uconst 36] [$sp+0]
	@DEBUG_VALUE: grid_align:gap <- $r3
	movs	r1, #0
	b	.LBB25_1
.Ltmp535:
.LBB25_20:
	@DEBUG_VALUE: grid_align:gap <- $r3
	@DEBUG_VALUE: grid_align:grid_size <- $r2
	@DEBUG_VALUE: grid_align:align <- $r1
	@DEBUG_VALUE: grid_align:cont_size <- $r0
	@DEBUG_VALUE: grid_align:track_num <- [DW_OP_plus_uconst 28] [$sp+0]
	@DEBUG_VALUE: grid_align:size_array <- [DW_OP_plus_uconst 32] [$sp+0]
	@DEBUG_VALUE: grid_align:pos_array <- [DW_OP_plus_uconst 36] [$sp+0]
	.loc	2 732 45 is_stmt 1              @ ../GUILib/src/extra/layouts/grid/lv_grid.c:732:45
	sxth	r1, r2
.Ltmp536:
	.loc	2 732 43 is_stmt 0              @ ../GUILib/src/extra/layouts/grid/lv_grid.c:732:43
	subs	r1, r0, r1
	.loc	2 732 56                        @ ../GUILib/src/extra/layouts/grid/lv_grid.c:732:56
	add.w	r1, r1, r1, lsr #31
	b	.LBB25_24
.Ltmp537:
.LBB25_21:
	@DEBUG_VALUE: grid_align:gap <- $r3
	@DEBUG_VALUE: grid_align:grid_size <- $r2
	@DEBUG_VALUE: grid_align:align <- $r1
	@DEBUG_VALUE: grid_align:cont_size <- $r0
	@DEBUG_VALUE: grid_align:track_num <- [DW_OP_plus_uconst 28] [$sp+0]
	@DEBUG_VALUE: grid_align:size_array <- [DW_OP_plus_uconst 32] [$sp+0]
	@DEBUG_VALUE: grid_align:pos_array <- [DW_OP_plus_uconst 36] [$sp+0]
	.loc	2 735 42 is_stmt 1              @ ../GUILib/src/extra/layouts/grid/lv_grid.c:735:42
	subs	r1, r0, r2
.Ltmp538:
	.loc	2 0 42 is_stmt 0                @ ../GUILib/src/extra/layouts/grid/lv_grid.c:0:42
	b	.LBB25_1
.Ltmp539:
.LBB25_22:
	@DEBUG_VALUE: grid_align:gap <- $r3
	@DEBUG_VALUE: grid_align:grid_size <- $r2
	@DEBUG_VALUE: grid_align:align <- $r1
	@DEBUG_VALUE: grid_align:cont_size <- $r0
	@DEBUG_VALUE: grid_align:track_num <- [DW_OP_plus_uconst 28] [$sp+0]
	@DEBUG_VALUE: grid_align:size_array <- [DW_OP_plus_uconst 32] [$sp+0]
	@DEBUG_VALUE: grid_align:pos_array <- [DW_OP_plus_uconst 36] [$sp+0]
	.loc	2 746 46 is_stmt 1              @ ../GUILib/src/extra/layouts/grid/lv_grid.c:746:46
	subs	r1, r0, r2
.Ltmp540:
	.loc	2 0 46 is_stmt 0                @ ../GUILib/src/extra/layouts/grid/lv_grid.c:0:46
	mov.w	r2, #65536
.Ltmp541:
	.loc	2 746 61                        @ ../GUILib/src/extra/layouts/grid/lv_grid.c:746:61
	add.w	r2, r2, r8, lsl #16
	.loc	2 746 23                        @ ../GUILib/src/extra/layouts/grid/lv_grid.c:746:23
	sxth	r1, r1
	.loc	2 746 61                        @ ../GUILib/src/extra/layouts/grid/lv_grid.c:746:61
	asrs	r2, r2, #16
	.loc	2 746 59                        @ ../GUILib/src/extra/layouts/grid/lv_grid.c:746:59
	sdiv	r3, r1, r2
.Ltmp542:
	@DEBUG_VALUE: grid_align:gap <- [DW_OP_LLVM_entry_value 1] $r3
	@DEBUG_VALUE: grid_align:gap <- undef
	.loc	2 747 30 is_stmt 1              @ ../GUILib/src/extra/layouts/grid/lv_grid.c:747:30
	strh.w	r3, [lr]
	b	.LBB25_2
.Ltmp543:
.LBB25_23:
	@DEBUG_VALUE: grid_align:gap <- $r3
	@DEBUG_VALUE: grid_align:grid_size <- $r2
	@DEBUG_VALUE: grid_align:align <- $r1
	@DEBUG_VALUE: grid_align:cont_size <- $r0
	@DEBUG_VALUE: grid_align:track_num <- [DW_OP_plus_uconst 28] [$sp+0]
	@DEBUG_VALUE: grid_align:size_array <- [DW_OP_plus_uconst 32] [$sp+0]
	@DEBUG_VALUE: grid_align:pos_array <- [DW_OP_plus_uconst 36] [$sp+0]
	.loc	2 742 46                        @ ../GUILib/src/extra/layouts/grid/lv_grid.c:742:46
	subs	r1, r0, r2
.Ltmp544:
	.loc	2 742 23 is_stmt 0              @ ../GUILib/src/extra/layouts/grid/lv_grid.c:742:23
	sxth	r1, r1
	.loc	2 742 61                        @ ../GUILib/src/extra/layouts/grid/lv_grid.c:742:61
	sxth.w	r2, r8
.Ltmp545:
	.loc	2 742 59                        @ ../GUILib/src/extra/layouts/grid/lv_grid.c:742:59
	sdiv	r3, r1, r2
.Ltmp546:
	@DEBUG_VALUE: grid_align:gap <- [DW_OP_LLVM_entry_value 1] $r3
	.loc	2 742 23                        @ ../GUILib/src/extra/layouts/grid/lv_grid.c:742:23
	uxth	r1, r3
.Ltmp547:
	@DEBUG_VALUE: grid_align:gap <- $r3
	.loc	2 743 36 is_stmt 1              @ ../GUILib/src/extra/layouts/grid/lv_grid.c:743:36
	add.w	r1, r3, r1, lsr #15
	sxth	r1, r1
.Ltmp548:
.LBB25_24:
	@DEBUG_VALUE: grid_align:gap <- $r3
	@DEBUG_VALUE: grid_align:cont_size <- $r0
	@DEBUG_VALUE: grid_align:track_num <- [DW_OP_plus_uconst 28] [$sp+0]
	@DEBUG_VALUE: grid_align:size_array <- [DW_OP_plus_uconst 32] [$sp+0]
	@DEBUG_VALUE: grid_align:pos_array <- [DW_OP_plus_uconst 36] [$sp+0]
	.loc	2 0 0 is_stmt 0                 @ ../GUILib/src/extra/layouts/grid/lv_grid.c:0:0
	lsrs	r1, r1, #1
	b	.LBB25_1
.Ltmp549:
.LBB25_25:
	@DEBUG_VALUE: grid_align:gap <- $r3
	@DEBUG_VALUE: grid_align:grid_size <- $r2
	@DEBUG_VALUE: grid_align:align <- $r1
	@DEBUG_VALUE: grid_align:cont_size <- $r0
	@DEBUG_VALUE: grid_align:track_num <- [DW_OP_plus_uconst 28] [$sp+0]
	@DEBUG_VALUE: grid_align:size_array <- [DW_OP_plus_uconst 32] [$sp+0]
	@DEBUG_VALUE: grid_align:pos_array <- [DW_OP_plus_uconst 36] [$sp+0]
	.loc	2 739 46 is_stmt 1              @ ../GUILib/src/extra/layouts/grid/lv_grid.c:739:46
	subs	r1, r0, r2
.Ltmp550:
	.loc	2 0 46 is_stmt 0                @ ../GUILib/src/extra/layouts/grid/lv_grid.c:0:46
	movs	r2, #0
.Ltmp551:
	movt	r2, #65535
	.loc	2 739 61                        @ ../GUILib/src/extra/layouts/grid/lv_grid.c:739:61
	add.w	r2, r2, r8, lsl #16
	.loc	2 739 23                        @ ../GUILib/src/extra/layouts/grid/lv_grid.c:739:23
	sxth	r1, r1
	.loc	2 739 61                        @ ../GUILib/src/extra/layouts/grid/lv_grid.c:739:61
	asrs	r2, r2, #16
	.loc	2 739 59                        @ ../GUILib/src/extra/layouts/grid/lv_grid.c:739:59
	sdiv	r3, r1, r2
.Ltmp552:
	@DEBUG_VALUE: grid_align:gap <- [DW_OP_LLVM_entry_value 1] $r3
	@DEBUG_VALUE: grid_align:gap <- undef
	.loc	2 0 59                          @ ../GUILib/src/extra/layouts/grid/lv_grid.c:0:59
	b	.LBB25_19
.Ltmp553:
.Lfunc_end25:
	.size	grid_align, .Lfunc_end25-grid_align
	.cfi_endproc
	.cantunwind
	.fnend
                                        @ -- End function
	.hidden	LV_LAYOUT_GRID                  @ @LV_LAYOUT_GRID
	.type	LV_LAYOUT_GRID,%object
	.section	.bss.LV_LAYOUT_GRID,"aw",%nobits
	.globl	LV_LAYOUT_GRID
	.p2align	2
LV_LAYOUT_GRID:
	.long	0                               @ 0x0
	.size	LV_LAYOUT_GRID, 4

	.hidden	LV_STYLE_GRID_COLUMN_DSC_ARRAY  @ @LV_STYLE_GRID_COLUMN_DSC_ARRAY
	.type	LV_STYLE_GRID_COLUMN_DSC_ARRAY,%object
	.section	.bss.LV_STYLE_GRID_COLUMN_DSC_ARRAY,"aw",%nobits
	.globl	LV_STYLE_GRID_COLUMN_DSC_ARRAY
	.p2align	1
LV_STYLE_GRID_COLUMN_DSC_ARRAY:
	.short	0                               @ 0x0
	.size	LV_STYLE_GRID_COLUMN_DSC_ARRAY, 2

	.hidden	LV_STYLE_GRID_ROW_DSC_ARRAY     @ @LV_STYLE_GRID_ROW_DSC_ARRAY
	.type	LV_STYLE_GRID_ROW_DSC_ARRAY,%object
	.section	.bss.LV_STYLE_GRID_ROW_DSC_ARRAY,"aw",%nobits
	.globl	LV_STYLE_GRID_ROW_DSC_ARRAY
	.p2align	1
LV_STYLE_GRID_ROW_DSC_ARRAY:
	.short	0                               @ 0x0
	.size	LV_STYLE_GRID_ROW_DSC_ARRAY, 2

	.hidden	LV_STYLE_GRID_COLUMN_ALIGN      @ @LV_STYLE_GRID_COLUMN_ALIGN
	.type	LV_STYLE_GRID_COLUMN_ALIGN,%object
	.section	.bss.LV_STYLE_GRID_COLUMN_ALIGN,"aw",%nobits
	.globl	LV_STYLE_GRID_COLUMN_ALIGN
	.p2align	1
LV_STYLE_GRID_COLUMN_ALIGN:
	.short	0                               @ 0x0
	.size	LV_STYLE_GRID_COLUMN_ALIGN, 2

	.hidden	LV_STYLE_GRID_ROW_ALIGN         @ @LV_STYLE_GRID_ROW_ALIGN
	.type	LV_STYLE_GRID_ROW_ALIGN,%object
	.section	.bss.LV_STYLE_GRID_ROW_ALIGN,"aw",%nobits
	.globl	LV_STYLE_GRID_ROW_ALIGN
	.p2align	1
LV_STYLE_GRID_ROW_ALIGN:
	.short	0                               @ 0x0
	.size	LV_STYLE_GRID_ROW_ALIGN, 2

	.hidden	LV_STYLE_GRID_CELL_ROW_SPAN     @ @LV_STYLE_GRID_CELL_ROW_SPAN
	.type	LV_STYLE_GRID_CELL_ROW_SPAN,%object
	.section	.bss.LV_STYLE_GRID_CELL_ROW_SPAN,"aw",%nobits
	.globl	LV_STYLE_GRID_CELL_ROW_SPAN
	.p2align	1
LV_STYLE_GRID_CELL_ROW_SPAN:
	.short	0                               @ 0x0
	.size	LV_STYLE_GRID_CELL_ROW_SPAN, 2

	.hidden	LV_STYLE_GRID_CELL_ROW_POS      @ @LV_STYLE_GRID_CELL_ROW_POS
	.type	LV_STYLE_GRID_CELL_ROW_POS,%object
	.section	.bss.LV_STYLE_GRID_CELL_ROW_POS,"aw",%nobits
	.globl	LV_STYLE_GRID_CELL_ROW_POS
	.p2align	1
LV_STYLE_GRID_CELL_ROW_POS:
	.short	0                               @ 0x0
	.size	LV_STYLE_GRID_CELL_ROW_POS, 2

	.hidden	LV_STYLE_GRID_CELL_COLUMN_SPAN  @ @LV_STYLE_GRID_CELL_COLUMN_SPAN
	.type	LV_STYLE_GRID_CELL_COLUMN_SPAN,%object
	.section	.bss.LV_STYLE_GRID_CELL_COLUMN_SPAN,"aw",%nobits
	.globl	LV_STYLE_GRID_CELL_COLUMN_SPAN
	.p2align	1
LV_STYLE_GRID_CELL_COLUMN_SPAN:
	.short	0                               @ 0x0
	.size	LV_STYLE_GRID_CELL_COLUMN_SPAN, 2

	.hidden	LV_STYLE_GRID_CELL_COLUMN_POS   @ @LV_STYLE_GRID_CELL_COLUMN_POS
	.type	LV_STYLE_GRID_CELL_COLUMN_POS,%object
	.section	.bss.LV_STYLE_GRID_CELL_COLUMN_POS,"aw",%nobits
	.globl	LV_STYLE_GRID_CELL_COLUMN_POS
	.p2align	1
LV_STYLE_GRID_CELL_COLUMN_POS:
	.short	0                               @ 0x0
	.size	LV_STYLE_GRID_CELL_COLUMN_POS, 2

	.hidden	LV_STYLE_GRID_CELL_X_ALIGN      @ @LV_STYLE_GRID_CELL_X_ALIGN
	.type	LV_STYLE_GRID_CELL_X_ALIGN,%object
	.section	.bss.LV_STYLE_GRID_CELL_X_ALIGN,"aw",%nobits
	.globl	LV_STYLE_GRID_CELL_X_ALIGN
	.p2align	1
LV_STYLE_GRID_CELL_X_ALIGN:
	.short	0                               @ 0x0
	.size	LV_STYLE_GRID_CELL_X_ALIGN, 2

	.hidden	LV_STYLE_GRID_CELL_Y_ALIGN      @ @LV_STYLE_GRID_CELL_Y_ALIGN
	.type	LV_STYLE_GRID_CELL_Y_ALIGN,%object
	.section	.bss.LV_STYLE_GRID_CELL_Y_ALIGN,"aw",%nobits
	.globl	LV_STYLE_GRID_CELL_Y_ALIGN
	.p2align	1
LV_STYLE_GRID_CELL_Y_ALIGN:
	.short	0                               @ 0x0
	.size	LV_STYLE_GRID_CELL_Y_ALIGN, 2

	.section	".note.GNU-stack","",%progbits
	.eabi_attribute	30, 3	@ Tag_ABI_optimization_goals
	.ARM_attribute	16, 1	@ Tag_AV_eba