	.text
	.syntax unified
	.eabi_attribute	67, "2.09"	@ Tag_conformance
	.cpu	cortex-m4
	.eabi_attribute	6, 13	@ Tag_CPU_arch
	.eabi_attribute	7, 77	@ Tag_CPU_arch_profile
	.eabi_attribute	8, 0	@ Tag_ARM_ISA_use
	.eabi_attribute	9, 2	@ Tag_THUMB_ISA_use
	.fpu	fpv4-sp-d16
	.eabi_attribute	27, 1	@ Tag_ABI_HardFP_use
	.eabi_attribute	36, 1	@ Tag_FP_HP_extension
	.eabi_attribute	34, 1	@ Tag_CPU_unaligned_access
	.eabi_attribute	17, 1	@ Tag_ABI_PCS_GOT_use
	.eabi_attribute	20, 2	@ Tag_ABI_FP_denormal
	.eabi_attribute	21, 0	@ Tag_ABI_FP_exceptions
	.eabi_attribute	23, 1	@ Tag_ABI_FP_number_model
	.eabi_attribute	24, 1	@ Tag_ABI_align_needed
	.eabi_attribute	25, 1	@ Tag_ABI_align_preserved
	.eabi_attribute	28, 1	@ Tag_ABI_VFP_args
	.eabi_attribute	38, 1	@ Tag_ABI_FP_16bit_format
	.eabi_attribute	18, 2	@ Tag_ABI_PCS_wchar_t
	.eabi_attribute	26, 1	@ Tag_ABI_enum_size
	.eabi_attribute	14, 0	@ Tag_ABI_PCS_R9_use
	.file	"lv_img_cache.c"
	.file	1 "C:\\Users\\Hyacincher\\Desktop\\HyTelectrl\\Code\\Project" "../GUILib/src/draw/../misc/lv_types.h"
	.section	.text._lv_img_cache_open,"ax",%progbits
	.hidden	_lv_img_cache_open              @ -- Begin function _lv_img_cache_open
	.globl	_lv_img_cache_open
	.p2align	1
	.type	_lv_img_cache_open,%function
	.code	16                              @ @_lv_img_cache_open
	.thumb_func
_lv_img_cache_open:
.Lfunc_begin0:
	.file	2 "C:\\Users\\Hyacincher\\Desktop\\HyTelectrl\\Code\\Project" "../GUILib/src/draw/lv_img_cache.c"
	.loc	2 64 0                          @ ../GUILib/src/draw/lv_img_cache.c:64:0
	.fnstart
	.cfi_sections .debug_frame
	.cfi_startproc
@ %bb.0:
	@DEBUG_VALUE: _lv_img_cache_open:src <- $r0
	@DEBUG_VALUE: _lv_img_cache_open:frame_id <- $r2
	.save	{r4, r5, r6, r7, lr}
	push	{r4, r5, r6, r7, lr}
	.cfi_def_cfa_offset 20
	.cfi_offset lr, -4
	.cfi_offset r7, -8
	.cfi_offset r6, -12
	.cfi_offset r5, -16
	.cfi_offset r4, -20
	.pad	#4
	sub	sp, #4
	.cfi_def_cfa_offset 24
	mov	r6, r2
.Ltmp0:
	@DEBUG_VALUE: _lv_img_cache_open:frame_id <- $r6
	mov	r4, r1
	mov	r7, r0
.Ltmp1:
	@DEBUG_VALUE: _lv_img_cache_open:src <- $r7
	@DEBUG_VALUE: _lv_img_cache_open:cached_src <- 0
	@DEBUG_VALUE: _lv_img_cache_open:color <- [DW_OP_LLVM_convert 32 7, DW_OP_LLVM_convert 16 7, DW_OP_stack_value] $r4
	@DEBUG_VALUE: _lv_img_cache_open:frame_id <- $r6
	@DEBUG_VALUE: _lv_img_cache_open:src <- $r7
	.loc	2 122 25 prologue_end           @ ../GUILib/src/draw/lv_img_cache.c:122:25
	bl	lv_tick_get
.Ltmp2:
	.loc	2 123 25                        @ ../GUILib/src/draw/lv_img_cache.c:123:25
	uxth	r2, r4
	movw	r4, :lower16:_lv_img_cache_single
.Ltmp3:
	movt	r4, :upper16:_lv_img_cache_single
.Ltmp4:
	@DEBUG_VALUE: _lv_img_cache_open:cached_src <- $r4
	.loc	2 122 25                        @ ../GUILib/src/draw/lv_img_cache.c:122:25
	mov	r5, r0
.Ltmp5:
	@DEBUG_VALUE: _lv_img_cache_open:t_start <- $r5
	.loc	2 123 25                        @ ../GUILib/src/draw/lv_img_cache.c:123:25
	mov	r0, r4
	mov	r1, r7
.Ltmp6:
	@DEBUG_VALUE: _lv_img_cache_open:src <- $r1
	mov	r3, r6
.Ltmp7:
	@DEBUG_VALUE: _lv_img_cache_open:frame_id <- $r3
	bl	lv_img_decoder_open
.Ltmp8:
	@DEBUG_VALUE: _lv_img_cache_open:open_res <- $r0
	.loc	2 124 8                         @ ../GUILib/src/draw/lv_img_cache.c:124:8
	cbz	r0, .LBB0_3
.Ltmp9:
@ %bb.1:
	@DEBUG_VALUE: _lv_img_cache_open:t_start <- $r5
	@DEBUG_VALUE: _lv_img_cache_open:cached_src <- $r4
	@DEBUG_VALUE: _lv_img_cache_open:open_res <- $r0
	.loc	2 134 28                        @ ../GUILib/src/draw/lv_img_cache.c:134:28
	ldr	r0, [r4, #28]
.Ltmp10:
	.loc	2 0 28 is_stmt 0                @ ../GUILib/src/draw/lv_img_cache.c:0:28
	movs	r1, #0
.Ltmp11:
	.loc	2 131 22 is_stmt 1              @ ../GUILib/src/draw/lv_img_cache.c:131:22
	str	r1, [r4, #40]
	.loc	2 134 8                         @ ../GUILib/src/draw/lv_img_cache.c:134:8
	cbnz	r0, .LBB0_4
.Ltmp12:
@ %bb.2:
	@DEBUG_VALUE: _lv_img_cache_open:t_start <- $r5
	@DEBUG_VALUE: _lv_img_cache_open:cached_src <- $r4
	.loc	2 135 44                        @ ../GUILib/src/draw/lv_img_cache.c:135:44
	mov	r0, r5
	bl	lv_tick_elaps
.Ltmp13:
	mov	r1, r0
.Ltmp14:
	.loc	2 138 8                         @ ../GUILib/src/draw/lv_img_cache.c:138:8
	cmp	r0, #0
	it	eq
	moveq	r1, #1
	mov	r0, r4
	.loc	2 0 0 is_stmt 0                 @ ../GUILib/src/draw/lv_img_cache.c:0:0
	str	r1, [r4, #28]
	b	.LBB0_5
.Ltmp15:
.LBB0_3:
	@DEBUG_VALUE: _lv_img_cache_open:t_start <- $r5
	@DEBUG_VALUE: _lv_img_cache_open:cached_src <- $r4
	@DEBUG_VALUE: _lv_img_cache_open:open_res <- $r0
	.loc	2 126 9 is_stmt 1               @ ../GUILib/src/draw/lv_img_cache.c:126:9
	mov	r0, r4
.Ltmp16:
	movs	r1, #44
	bl	lv_memset_00
.Ltmp17:
	.loc	2 0 9 is_stmt 0                 @ ../GUILib/src/draw/lv_img_cache.c:0:9
	mov.w	r0, #-2147483648
	.loc	2 127 26 is_stmt 1              @ ../GUILib/src/draw/lv_img_cache.c:127:26
	str	r0, [r4, #40]
	movs	r4, #0
.Ltmp18:
.LBB0_4:
	@DEBUG_VALUE: _lv_img_cache_open:t_start <- $r5
	.loc	2 141 1                         @ ../GUILib/src/draw/lv_img_cache.c:141:1
	mov	r0, r4
.Ltmp19:
.LBB0_5:
	@DEBUG_VALUE: _lv_img_cache_open:t_start <- $r5
	.loc	2 0 0 is_stmt 0                 @ ../GUILib/src/draw/lv_img_cache.c:0:0
	add	sp, #4
	pop	{r4, r5, r6, r7, pc}
.Ltmp20:
.Lfunc_end0:
	.size	_lv_img_cache_open, .Lfunc_end0-_lv_img_cache_open
	.cfi_endproc
	.cantunwind
	.fnend
                                        @ -- End function
	.section	.text.lv_img_cache_set_size,"ax",%progbits
	.hidden	lv_img_cache_set_size           @ -- Begin function lv_img_cache_set_size
	.globl	lv_img_cache_set_size
	.p2align	1
	.type	lv_img_cache_set_size,%function
	.code	16                              @ @lv_img_cache_set_size
	.thumb_func
lv_img_cache_set_size:
.Lfunc_begin1:
	.loc	2 150 0 is_stmt 1               @ ../GUILib/src/draw/lv_img_cache.c:150:0
	.fnstart
	.cfi_startproc
@ %bb.0:
	@DEBUG_VALUE: lv_img_cache_set_size:new_entry_cnt <- $r0
	.loc	2 173 1 prologue_end            @ ../GUILib/src/draw/lv_img_cache.c:173:1
	bx	lr
.Ltmp21:
.Lfunc_end1:
	.size	lv_img_cache_set_size, .Lfunc_end1-lv_img_cache_set_size
	.cfi_endproc
	.cantunwind
	.fnend
                                        @ -- End function
	.section	.text.lv_img_cache_invalidate_src,"ax",%progbits
	.hidden	lv_img_cache_invalidate_src     @ -- Begin function lv_img_cache_invalidate_src
	.globl	lv_img_cache_invalidate_src
	.p2align	1
	.type	lv_img_cache_invalidate_src,%function
	.code	16                              @ @lv_img_cache_invalidate_src
	.thumb_func
lv_img_cache_invalidate_src:
.Lfunc_begin2:
	.loc	2 181 0                         @ ../GUILib/src/draw/lv_img_cache.c:181:0
	.fnstart
	.cfi_startproc
@ %bb.0:
	@DEBUG_VALUE: lv_img_cache_invalidate_src:src <- $r0
	.loc	2 197 1 prologue_end            @ ../GUILib/src/draw/lv_img_cache.c:197:1
	bx	lr
.Ltmp22:
.Lfunc_end2:
	.size	lv_img_cache_invalidate_src, .Lfunc_end2-lv_img_cache_invalidate_src
	.cfi_endproc
	.cantunwind
	.fnend
                                        @ -- End function
	.file	3 "D:\\Keil MDK\\ARM\\ARMCLANG\\Bin\\..\\include" "stdint.h"
	.file	4 "C:\\Users\\Hyacincher\\Desktop\\HyTelectrl\\Code\\Project" "../GUILib/src/draw/lv_img_buf.h"
	.file	5 "C:\\Users\\Hyacincher\\Desktop\\HyTelectrl\\Code\\Project" "../GUILib/src/draw/lv_img_decoder.h"
	.file	6 "C:\\Users\\Hyacincher\\Desktop\\HyTelectrl\\Code\\Project" "../GUILib/src/draw/../misc/../core/../misc/lv_area.h"
	.file	7 "C:\\Users\\Hyacincher\\Desktop\\HyTelectrl\\Code\\Project" "../GUILib/src/draw/../misc/lv_color.h"
	.file	8 "C:\\Users\\Hyacincher\\Desktop\\HyTelectrl\\Code\\Project" "../GUILib/src/draw/../misc/../draw/lv_img_cache.h"
	.section	".note.GNU-stack","",%progbits
	.eabi_attribute	30, 3	@ Tag_ABI_optimization_goals
	.ARM_attribute	16, 1	@ Tag_AV_eba