	.text
	.syntax unified
	.eabi_attribute	67, "2.09"	@ Tag_conformance
	.cpu	cortex-m4
	.eabi_attribute	6, 13	@ Tag_CPU_arch
	.eabi_attribute	7, 77	@ Tag_CPU_arch_profile
	.eabi_attribute	8, 0	@ Tag_ARM_ISA_use
	.eabi_attribute	9, 2	@ Tag_THUMB_ISA_use
	.fpu	fpv4-sp-d16
	.eabi_attribute	27, 1	@ Tag_ABI_HardFP_use
	.eabi_attribute	36, 1	@ Tag_FP_HP_extension
	.eabi_attribute	34, 1	@ Tag_CPU_unaligned_access
	.eabi_attribute	17, 1	@ Tag_ABI_PCS_GOT_use
	.eabi_attribute	20, 2	@ Tag_ABI_FP_denormal
	.eabi_attribute	21, 0	@ Tag_ABI_FP_exceptions
	.eabi_attribute	23, 1	@ Tag_ABI_FP_number_model
	.eabi_attribute	24, 1	@ Tag_ABI_align_needed
	.eabi_attribute	25, 1	@ Tag_ABI_align_preserved
	.eabi_attribute	28, 1	@ Tag_ABI_VFP_args
	.eabi_attribute	38, 1	@ Tag_ABI_FP_16bit_format
	.eabi_attribute	18, 2	@ Tag_ABI_PCS_wchar_t
	.eabi_attribute	26, 1	@ Tag_ABI_enum_size
	.eabi_attribute	14, 0	@ Tag_ABI_PCS_R9_use
	.file	"lv_img.c"
	.file	1 "C:\\Users\\Hyacincher\\Desktop\\HyTelectrl\\Code\\Project" "../GUILib/src/widgets/../core/lv_obj_class.h"
	.file	2 "C:\\Users\\Hyacincher\\Desktop\\HyTelectrl\\Code\\Project" "../GUILib/src/widgets/../core/lv_obj.h"
	.file	3 "D:\\Keil MDK\\ARM\\ARMCLANG\\Bin\\..\\include" "stdint.h"
	.file	4 "C:\\Users\\Hyacincher\\Desktop\\HyTelectrl\\Code\\Project" "../GUILib/src/widgets/../core/../misc/lv_ll.h"
	.file	5 "C:\\Users\\Hyacincher\\Desktop\\HyTelectrl\\Code\\Project" "../GUILib/src/widgets/../core/lv_group.h"
	.file	6 "C:\\Users\\Hyacincher\\Desktop\\HyTelectrl\\Code\\Project" "../GUILib/src/hal/../misc/lv_area.h"
	.file	7 "C:\\Users\\Hyacincher\\Desktop\\HyTelectrl\\Code\\Project" "../GUILib/src/widgets/../core/lv_obj_scroll.h"
	.file	8 "C:\\Users\\Hyacincher\\Desktop\\HyTelectrl\\Code\\Project" "../GUILib/src/hal/../draw/../misc/lv_style.h"
	.file	9 "C:\\Users\\Hyacincher\\Desktop\\HyTelectrl\\Code\\Project" "../GUILib/src/hal/../misc/lv_color.h"
	.file	10 "C:\\Users\\Hyacincher\\Desktop\\HyTelectrl\\Code\\Project" "../GUILib/src/widgets/../core/lv_obj_style.h"
	.file	11 "C:\\Users\\Hyacincher\\Desktop\\HyTelectrl\\Code\\Project" "../GUILib/src/widgets/../core/lv_event.h"
	.file	12 "C:\\Users\\Hyacincher\\Desktop\\HyTelectrl\\Code\\Project" "../GUILib/src/widgets/lv_img.c"
	.file	13 "C:\\Users\\Hyacincher\\Desktop\\HyTelectrl\\Code\\Project" "../GUILib/src/widgets/../draw/lv_img_decoder.h"
	.file	14 "C:\\Users\\Hyacincher\\Desktop\\HyTelectrl\\Code\\Project" "../GUILib/src/widgets/../misc/lv_txt.h"
	.file	15 "C:\\Users\\Hyacincher\\Desktop\\HyTelectrl\\Code\\Project" "../GUILib/src/hal/../draw/lv_img_buf.h"
	.file	16 "C:\\Users\\Hyacincher\\Desktop\\HyTelectrl\\Code\\Project" "../GUILib/src/widgets/lv_img.h"
	.file	17 "C:\\Users\\Hyacincher\\Desktop\\HyTelectrl\\Code\\Project" "../GUILib/src/hal/../draw/../misc/lv_types.h"
	.file	18 "C:\\Users\\Hyacincher\\Desktop\\HyTelectrl\\Code\\Project" "../GUILib/src/widgets/../core/lv_obj_draw.h"
	.file	19 "C:\\Users\\Hyacincher\\Desktop\\HyTelectrl\\Code\\Project" "../GUILib/src/hal/../draw/../font/lv_font.h"
	.section	.text.lv_img_constructor,"ax",%progbits
	.p2align	1                               @ -- Begin function lv_img_constructor
	.type	lv_img_constructor,%function
	.code	16                              @ @lv_img_constructor
	.thumb_func
lv_img_constructor:
.Lfunc_begin0:
	.loc	12 383 0                        @ ../GUILib/src/widgets/lv_img.c:383:0
	.fnstart
	.cfi_sections .debug_frame
	.cfi_startproc
@ %bb.0:
	@DEBUG_VALUE: lv_img_constructor:class_p <- $r0
	@DEBUG_VALUE: lv_img_constructor:obj <- $r1
	.save	{r4, r5, r7, lr}
	push	{r4, r5, r7, lr}
	.cfi_def_cfa_offset 16
	.cfi_offset lr, -4
	.cfi_offset r7, -8
	.cfi_offset r5, -12
	.cfi_offset r4, -16
.Ltmp0:
	.loc	12 390 20 prologue_end          @ ../GUILib/src/widgets/lv_img.c:390:20
	ldrb.w	r0, [r1, #56]
.Ltmp1:
	@DEBUG_VALUE: lv_img_constructor:class_p <- [DW_OP_LLVM_entry_value 1] $r0
	.loc	12 0 20 is_stmt 0               @ ../GUILib/src/widgets/lv_img.c:0:20
	movs	r5, #0
.Ltmp2:
	@DEBUG_VALUE: lv_img_constructor:img <- $r4
	@DEBUG_VALUE: lv_img_constructor:obj <- $r4
	.loc	12 391 20 is_stmt 1             @ ../GUILib/src/widgets/lv_img.c:391:20
	and	r0, r0, #128
	adds	r0, #3
	strb.w	r0, [r1, #56]
	.loc	12 392 22                       @ ../GUILib/src/widgets/lv_img.c:392:22
	mov	r0, r1
	mov	r4, r1
.Ltmp3:
	.loc	12 389 20                       @ ../GUILib/src/widgets/lv_img.c:389:20
	str	r5, [r1, #36]
	.loc	12 392 22                       @ ../GUILib/src/widgets/lv_img.c:392:22
	bl	lv_obj_get_width
.Ltmp4:
	.loc	12 392 20 is_stmt 0             @ ../GUILib/src/widgets/lv_img.c:392:20
	strh	r0, [r4, #44]
	.loc	12 393 22 is_stmt 1             @ ../GUILib/src/widgets/lv_img.c:393:22
	mov	r0, r4
	bl	lv_obj_get_height
.Ltmp5:
	.loc	12 393 20 is_stmt 0             @ ../GUILib/src/widgets/lv_img.c:393:20
	strh	r0, [r4, #46]
	mov.w	r0, #256
	.loc	12 395 15 is_stmt 1             @ ../GUILib/src/widgets/lv_img.c:395:15
	strh	r0, [r4, #54]
	.loc	12 396 20                       @ ../GUILib/src/widgets/lv_img.c:396:20
	ldrb.w	r0, [r4, #56]
	.loc	12 401 24                       @ ../GUILib/src/widgets/lv_img.c:401:24
	ldrb.w	r1, [r4, #57]
	.loc	12 396 20                       @ ../GUILib/src/widgets/lv_img.c:396:20
	orr	r0, r0, #128
	strb.w	r0, [r4, #56]
	.loc	12 401 24                       @ ../GUILib/src/widgets/lv_img.c:401:24
	and	r0, r1, #252
	strb.w	r0, [r4, #57]
	.loc	12 403 5                        @ ../GUILib/src/widgets/lv_img.c:403:5
	mov	r0, r4
	movs	r1, #2
	.loc	12 394 16                       @ ../GUILib/src/widgets/lv_img.c:394:16
	strh	r5, [r4, #48]
	.loc	12 397 20                       @ ../GUILib/src/widgets/lv_img.c:397:20
	str	r5, [r4, #40]
	.loc	12 399 18                       @ ../GUILib/src/widgets/lv_img.c:399:18
	str.w	r5, [r4, #50]
	.loc	12 403 5                        @ ../GUILib/src/widgets/lv_img.c:403:5
	bl	lv_obj_clear_flag
.Ltmp6:
	.loc	12 404 5                        @ ../GUILib/src/widgets/lv_img.c:404:5
	mov	r0, r4
	mov.w	r1, #16384
	pop.w	{r4, r5, r7, lr}
.Ltmp7:
	b	lv_obj_add_flag
.Ltmp8:
.Lfunc_end0:
	.size	lv_img_constructor, .Lfunc_end0-lv_img_constructor
	.cfi_endproc
	.cantunwind
	.fnend
                                        @ -- End function
	.section	.text.lv_img_destructor,"ax",%progbits
	.p2align	1                               @ -- Begin function lv_img_destructor
	.type	lv_img_destructor,%function
	.code	16                              @ @lv_img_destructor
	.thumb_func
lv_img_destructor:
.Lfunc_begin1:
	.loc	12 410 0                        @ ../GUILib/src/widgets/lv_img.c:410:0
	.fnstart
	.cfi_startproc
@ %bb.0:
	@DEBUG_VALUE: lv_img_destructor:class_p <- $r0
	@DEBUG_VALUE: lv_img_destructor:obj <- $r1
	@DEBUG_VALUE: lv_img_destructor:obj <- $r1
	.save	{r4, lr}
	push	{r4, lr}
	.cfi_def_cfa_offset 8
	.cfi_offset lr, -4
	.cfi_offset r4, -8
.Ltmp9:
	@DEBUG_VALUE: lv_img_destructor:img <- $r1
	@DEBUG_VALUE: lv_img_destructor:img <- $r1
	.loc	12 413 13 prologue_end          @ ../GUILib/src/widgets/lv_img.c:413:13
	ldrb.w	r0, [r1, #56]
.Ltmp10:
	@DEBUG_VALUE: lv_img_destructor:class_p <- [DW_OP_LLVM_entry_value 1] $r0
	and	r0, r0, #3
	.loc	12 413 41 is_stmt 0             @ ../GUILib/src/widgets/lv_img.c:413:41
	subs	r0, #1
	cmp	r0, #1
.Ltmp11:
	.loc	12 418 1 is_stmt 1              @ ../GUILib/src/widgets/lv_img.c:418:1
	it	hi
	pophi	{r4, pc}
.Ltmp12:
.LBB1_1:
	@DEBUG_VALUE: lv_img_destructor:img <- $r1
	@DEBUG_VALUE: lv_img_destructor:obj <- $r1
	@DEBUG_VALUE: lv_img_destructor:class_p <- [DW_OP_LLVM_entry_value 1] $r0
	.loc	12 414 34                       @ ../GUILib/src/widgets/lv_img.c:414:34
	ldr	r0, [r1, #36]
	mov	r4, r1
.Ltmp13:
	@DEBUG_VALUE: lv_img_destructor:obj <- $r4
	@DEBUG_VALUE: lv_img_destructor:obj <- $r4
	@DEBUG_VALUE: lv_img_destructor:img <- $r4
	.loc	12 414 9 is_stmt 0              @ ../GUILib/src/widgets/lv_img.c:414:9
	bl	lv_mem_free
.Ltmp14:
	.loc	12 416 23 is_stmt 1             @ ../GUILib/src/widgets/lv_img.c:416:23
	ldrb.w	r1, [r4, #56]
	movs	r0, #0
	.loc	12 415 23                       @ ../GUILib/src/widgets/lv_img.c:415:23
	str	r0, [r4, #36]
	.loc	12 416 23                       @ ../GUILib/src/widgets/lv_img.c:416:23
	orr	r0, r1, #3
	strb.w	r0, [r4, #56]
.Ltmp15:
	.loc	12 418 1                        @ ../GUILib/src/widgets/lv_img.c:418:1
	pop	{r4, pc}
.Ltmp16:
.Lfunc_end1:
	.size	lv_img_destructor, .Lfunc_end1-lv_img_destructor
	.cfi_endproc
	.cantunwind
	.fnend
                                        @ -- End function
	.section	.text.lv_img_event,"ax",%progbits
	.p2align	2                               @ -- Begin function lv_img_event
	.type	lv_img_event,%function
	.code	16                              @ @lv_img_event
	.thumb_func
lv_img_event:
.Lfunc_begin2:
	.loc	12 439 0                        @ ../GUILib/src/widgets/lv_img.c:439:0
	.fnstart
	.cfi_startproc
@ %bb.0:
	@DEBUG_VALUE: lv_img_event:class_p <- $r0
	@DEBUG_VALUE: lv_img_event:e <- $r1
	.save	{r4, r5, r6, r7, r8, r9, r10, r11, lr}
	push.w	{r4, r5, r6, r7, r8, r9, r10, r11, lr}
	.cfi_def_cfa_offset 36
	.cfi_offset lr, -4
	.cfi_offset r11, -8
	.cfi_offset r10, -12
	.cfi_offset r9, -16
	.cfi_offset r8, -20
	.cfi_offset r7, -24
	.cfi_offset r6, -28
	.cfi_offset r5, -32
	.cfi_offset r4, -36
	.pad	#116
	sub	sp, #116
	.cfi_def_cfa_offset 152
.Ltmp17:
	.loc	12 442 28 prologue_end          @ ../GUILib/src/widgets/lv_img.c:442:28
	mov	r0, r1
.Ltmp18:
	@DEBUG_VALUE: lv_img_event:class_p <- [DW_OP_LLVM_entry_value 1] $r0
	.loc	12 0 28 is_stmt 0               @ ../GUILib/src/widgets/lv_img.c:0:28
	mov	r5, r1
.Ltmp19:
	@DEBUG_VALUE: lv_img_event:e <- $r5
	@DEBUG_VALUE: lv_img_event:e <- $r5
	.loc	12 442 28                       @ ../GUILib/src/widgets/lv_img.c:442:28
	bl	lv_event_get_code
.Ltmp20:
	mov	r6, r0
.Ltmp21:
	@DEBUG_VALUE: lv_img_event:code <- $r6
	.loc	12 445 35 is_stmt 1             @ ../GUILib/src/widgets/lv_img.c:445:35
	cmp	r0, #21
	beq	.LBB2_3
.Ltmp22:
@ %bb.1:
	@DEBUG_VALUE: lv_img_event:code <- $r6
	@DEBUG_VALUE: lv_img_event:e <- $r5
	@DEBUG_VALUE: lv_img_event:class_p <- [DW_OP_LLVM_entry_value 1] $r0
	cmp	r6, #24
	beq	.LBB2_3
.Ltmp23:
@ %bb.2:
	@DEBUG_VALUE: lv_img_event:code <- $r6
	@DEBUG_VALUE: lv_img_event:e <- $r5
	@DEBUG_VALUE: lv_img_event:class_p <- [DW_OP_LLVM_entry_value 1] $r0
	.loc	12 447 24                       @ ../GUILib/src/widgets/lv_img.c:447:24
	movw	r0, :lower16:lv_img_class
	movt	r0, :upper16:lv_img_class
	mov	r1, r5
	bl	lv_obj_event_base
.Ltmp24:
	@DEBUG_VALUE: res <- $r0
	.loc	12 0 24 is_stmt 0               @ ../GUILib/src/widgets/lv_img.c:0:24
	cmp	r0, #1
	bne.w	.LBB2_60
.Ltmp25:
.LBB2_3:
	@DEBUG_VALUE: lv_img_event:code <- $r6
	@DEBUG_VALUE: lv_img_event:e <- $r5
	@DEBUG_VALUE: lv_img_event:class_p <- [DW_OP_LLVM_entry_value 1] $r0
	.loc	12 451 22 is_stmt 1             @ ../GUILib/src/widgets/lv_img.c:451:22
	mov	r0, r5
	bl	lv_event_get_target
.Ltmp26:
	.loc	12 454 8                        @ ../GUILib/src/widgets/lv_img.c:454:8
	sub.w	r1, r6, #17
	cmp	r1, #7
	.loc	12 451 22                       @ ../GUILib/src/widgets/lv_img.c:451:22
	mov	r4, r0
.Ltmp27:
	@DEBUG_VALUE: lv_img_event:img <- $r4
	@DEBUG_VALUE: lv_img_event:obj <- $r4
	.loc	12 454 8                        @ ../GUILib/src/widgets/lv_img.c:454:8
	bhi	.LBB2_15
.Ltmp28:
@ %bb.4:
	@DEBUG_VALUE: lv_img_event:code <- $r6
	@DEBUG_VALUE: lv_img_event:e <- $r5
	@DEBUG_VALUE: lv_img_event:obj <- $r4
	@DEBUG_VALUE: lv_img_event:img <- $r4
	@DEBUG_VALUE: lv_img_event:class_p <- [DW_OP_LLVM_entry_value 1] $r0
	.loc	12 0 8 is_stmt 0                @ ../GUILib/src/widgets/lv_img.c:0:8
.LCPI2_0:
	tbh	[pc, r1, lsl #1]
.Ltmp29:
@ %bb.5:
.LJTI2_0:
	.short	(.LBB2_23-(.LCPI2_0+4))/2
	.short	(.LBB2_6-(.LCPI2_0+4))/2
	.short	(.LBB2_27-(.LCPI2_0+4))/2
	.short	(.LBB2_60-(.LCPI2_0+4))/2
	.short	(.LBB2_6-(.LCPI2_0+4))/2
	.short	(.LBB2_60-(.LCPI2_0+4))/2
	.short	(.LBB2_60-(.LCPI2_0+4))/2
	.short	(.LBB2_6-(.LCPI2_0+4))/2
	.p2align	1
.LBB2_6:
.Ltmp30:
	@DEBUG_VALUE: lv_img_event:code <- $r6
	@DEBUG_VALUE: lv_img_event:e <- $r5
	@DEBUG_VALUE: lv_img_event:obj <- $r4
	@DEBUG_VALUE: lv_img_event:img <- $r4
	@DEBUG_VALUE: lv_img_event:class_p <- [DW_OP_LLVM_entry_value 1] $r0
	@DEBUG_VALUE: draw_img:e <- $r5
	.loc	12 533 28 is_stmt 1             @ ../GUILib/src/widgets/lv_img.c:533:28
	mov	r0, r5
	bl	lv_event_get_code
.Ltmp31:
	mov	r8, r0
.Ltmp32:
	@DEBUG_VALUE: draw_img:code <- $r8
	.loc	12 534 22                       @ ../GUILib/src/widgets/lv_img.c:534:22
	mov	r0, r5
	bl	lv_event_get_target
.Ltmp33:
	.loc	12 536 8                        @ ../GUILib/src/widgets/lv_img.c:536:8
	cmp.w	r8, #18
	.loc	12 534 22                       @ ../GUILib/src/widgets/lv_img.c:534:22
	mov	r4, r0
.Ltmp34:
	@DEBUG_VALUE: draw_img:img <- $r4
	@DEBUG_VALUE: draw_img:obj <- $r4
	.loc	12 536 8                        @ ../GUILib/src/widgets/lv_img.c:536:8
	bne	.LBB2_19
.Ltmp35:
@ %bb.7:
	@DEBUG_VALUE: draw_img:code <- $r8
	@DEBUG_VALUE: lv_img_event:code <- $r6
	@DEBUG_VALUE: draw_img:e <- $r5
	@DEBUG_VALUE: lv_img_event:e <- $r5
	@DEBUG_VALUE: draw_img:obj <- $r4
	@DEBUG_VALUE: draw_img:img <- $r4
	@DEBUG_VALUE: lv_img_event:class_p <- [DW_OP_LLVM_entry_value 1] $r0
	.loc	12 537 40                       @ ../GUILib/src/widgets/lv_img.c:537:40
	mov	r0, r5
	bl	lv_event_get_param
.Ltmp36:
	mov	r6, r0
.Ltmp37:
	@DEBUG_VALUE: info <- $r6
	.loc	12 538 18                       @ ../GUILib/src/widgets/lv_img.c:538:18
	ldrb	r0, [r0]
.Ltmp38:
	.loc	12 538 12 is_stmt 0             @ ../GUILib/src/widgets/lv_img.c:538:12
	cmp	r0, #2
	beq.w	.LBB2_60
.Ltmp39:
@ %bb.8:
	@DEBUG_VALUE: draw_img:code <- $r8
	@DEBUG_VALUE: info <- $r6
	@DEBUG_VALUE: draw_img:e <- $r5
	@DEBUG_VALUE: lv_img_event:e <- $r5
	@DEBUG_VALUE: draw_img:obj <- $r4
	@DEBUG_VALUE: draw_img:img <- $r4
	@DEBUG_VALUE: lv_img_event:class_p <- [DW_OP_LLVM_entry_value 1] $r0
	.loc	12 539 17 is_stmt 1             @ ../GUILib/src/widgets/lv_img.c:539:17
	ldrb.w	r0, [r4, #56]
	.loc	12 539 48 is_stmt 0             @ ../GUILib/src/widgets/lv_img.c:539:48
	lsls	r1, r0, #30
	bmi.w	.LBB2_59
.Ltmp40:
@ %bb.9:
	@DEBUG_VALUE: draw_img:code <- $r8
	@DEBUG_VALUE: info <- $r6
	@DEBUG_VALUE: draw_img:e <- $r5
	@DEBUG_VALUE: lv_img_event:e <- $r5
	@DEBUG_VALUE: draw_img:obj <- $r4
	@DEBUG_VALUE: draw_img:img <- $r4
	@DEBUG_VALUE: lv_img_event:class_p <- [DW_OP_LLVM_entry_value 1] $r0
	.loc	12 545 44 is_stmt 1             @ ../GUILib/src/widgets/lv_img.c:545:44
	ubfx	r0, r0, #2, #5
	cmp	r0, #1
	beq	.LBB2_11
.Ltmp41:
@ %bb.10:
	@DEBUG_VALUE: draw_img:code <- $r8
	@DEBUG_VALUE: info <- $r6
	@DEBUG_VALUE: draw_img:e <- $r5
	@DEBUG_VALUE: lv_img_event:e <- $r5
	@DEBUG_VALUE: draw_img:obj <- $r4
	@DEBUG_VALUE: draw_img:img <- $r4
	@DEBUG_VALUE: lv_img_event:class_p <- [DW_OP_LLVM_entry_value 1] $r0
	cmp	r0, #4
	bne.w	.LBB2_59
.Ltmp42:
.LBB2_11:
	@DEBUG_VALUE: draw_img:code <- $r8
	@DEBUG_VALUE: info <- $r6
	@DEBUG_VALUE: draw_img:e <- $r5
	@DEBUG_VALUE: lv_img_event:e <- $r5
	@DEBUG_VALUE: draw_img:obj <- $r4
	@DEBUG_VALUE: draw_img:img <- $r4
	@DEBUG_VALUE: lv_img_event:class_p <- [DW_OP_LLVM_entry_value 1] $r0
	@DEBUG_VALUE: lv_obj_get_style_img_opa:obj <- $r4
	@DEBUG_VALUE: lv_obj_get_style_img_opa:part <- 0
	.file	20 "C:\\Users\\Hyacincher\\Desktop\\HyTelectrl\\Code\\Project" "../GUILib/src/widgets/../core/lv_obj_style_gen.h"
	.loc	20 363 26                       @ ../GUILib/src/widgets/../core/lv_obj_style_gen.h:363:26
	mov	r0, r4
	movs	r1, #0
	movs	r2, #70
	bl	lv_obj_get_style_prop
.Ltmp43:
	@DEBUG_VALUE: lv_obj_get_style_img_opa:v <- $r0
	.loc	20 364 12                       @ ../GUILib/src/widgets/../core/lv_obj_style_gen.h:364:12
	uxtb	r0, r0
.Ltmp44:
	.loc	12 551 12                       @ ../GUILib/src/widgets/lv_img.c:551:12
	cmp	r0, #255
	bne.w	.LBB2_59
.Ltmp45:
@ %bb.12:
	@DEBUG_VALUE: draw_img:code <- $r8
	@DEBUG_VALUE: info <- $r6
	@DEBUG_VALUE: draw_img:e <- $r5
	@DEBUG_VALUE: lv_img_event:e <- $r5
	@DEBUG_VALUE: draw_img:obj <- $r4
	@DEBUG_VALUE: draw_img:img <- $r4
	@DEBUG_VALUE: lv_img_event:class_p <- [DW_OP_LLVM_entry_value 1] $r0
	@DEBUG_VALUE: lv_obj_get_style_transform_angle:obj <- $r4
	@DEBUG_VALUE: lv_obj_get_style_transform_angle:part <- 0
	.loc	20 87 26                        @ ../GUILib/src/widgets/../core/lv_obj_style_gen.h:87:26
	mov	r0, r4
	movs	r1, #0
	movw	r2, #14351
	bl	lv_obj_get_style_prop
.Ltmp46:
	@DEBUG_VALUE: lv_obj_get_style_transform_angle:v <- $r0
	.loc	12 557 29                       @ ../GUILib/src/widgets/lv_img.c:557:29
	ldrh	r1, [r4, #48]
.Ltmp47:
	@DEBUG_VALUE: angle_final <- undef
	.loc	12 556 31                       @ ../GUILib/src/widgets/lv_img.c:556:31
	sxth	r0, r0
.Ltmp48:
	@DEBUG_VALUE: angle_final <- $r0
	.loc	12 559 12                       @ ../GUILib/src/widgets/lv_img.c:559:12
	cmn	r0, r1
	bne.w	.LBB2_59
.Ltmp49:
@ %bb.13:
	@DEBUG_VALUE: draw_img:code <- $r8
	@DEBUG_VALUE: info <- $r6
	@DEBUG_VALUE: draw_img:e <- $r5
	@DEBUG_VALUE: lv_img_event:e <- $r5
	@DEBUG_VALUE: draw_img:obj <- $r4
	@DEBUG_VALUE: draw_img:img <- $r4
	@DEBUG_VALUE: angle_final <- $r0
	@DEBUG_VALUE: lv_img_event:class_p <- [DW_OP_LLVM_entry_value 1] $r0
	@DEBUG_VALUE: lv_obj_get_style_transform_zoom:obj <- $r4
	@DEBUG_VALUE: lv_obj_get_style_transform_zoom:part <- 0
	.loc	20 81 26                        @ ../GUILib/src/widgets/../core/lv_obj_style_gen.h:81:26
	mov	r0, r4
.Ltmp50:
	movs	r1, #0
	movw	r2, #14350
	bl	lv_obj_get_style_prop
.Ltmp51:
	@DEBUG_VALUE: lv_obj_get_style_transform_zoom:v <- $r0
	.loc	12 565 41                       @ ../GUILib/src/widgets/lv_img.c:565:41
	ldrh	r1, [r4, #54]
	.loc	12 564 30                       @ ../GUILib/src/widgets/lv_img.c:564:30
	sxth	r0, r0
.Ltmp52:
	@DEBUG_VALUE: zoom_final <- $r0
	.loc	12 565 34                       @ ../GUILib/src/widgets/lv_img.c:565:34
	mul	r7, r0, r1
.Ltmp53:
	@DEBUG_VALUE: zoom_final <- undef
	.loc	12 567 39                       @ ../GUILib/src/widgets/lv_img.c:567:39
	mov	r0, r5
	bl	lv_event_get_param
.Ltmp54:
	.loc	12 0 39 is_stmt 0               @ ../GUILib/src/widgets/lv_img.c:0:39
	mov.w	r1, #256
	.loc	12 568 12 is_stmt 1             @ ../GUILib/src/widgets/lv_img.c:568:12
	cmp.w	r1, r7, asr #8
	.loc	12 567 39                       @ ../GUILib/src/widgets/lv_img.c:567:39
	mov	r5, r0
.Ltmp55:
	@DEBUG_VALUE: lv_img_event:e <- [DW_OP_LLVM_entry_value 1] $r1
	@DEBUG_VALUE: clip_area <- $r5
	.loc	12 568 12                       @ ../GUILib/src/widgets/lv_img.c:568:12
	bne.w	.LBB2_57
.Ltmp56:
@ %bb.14:
	@DEBUG_VALUE: draw_img:code <- $r8
	@DEBUG_VALUE: info <- $r6
	@DEBUG_VALUE: clip_area <- $r5
	@DEBUG_VALUE: draw_img:obj <- $r4
	@DEBUG_VALUE: draw_img:img <- $r4
	@DEBUG_VALUE: lv_img_event:e <- [DW_OP_LLVM_entry_value 1] $r1
	@DEBUG_VALUE: lv_img_event:class_p <- [DW_OP_LLVM_entry_value 1] $r0
	.loc	12 569 48                       @ ../GUILib/src/widgets/lv_img.c:569:48
	add.w	r1, r4, #20
	.loc	12 569 16 is_stmt 0             @ ../GUILib/src/widgets/lv_img.c:569:16
	mov	r0, r5
	b	.LBB2_58
.Ltmp57:
.LBB2_15:
	@DEBUG_VALUE: lv_img_event:code <- $r6
	@DEBUG_VALUE: lv_img_event:e <- $r5
	@DEBUG_VALUE: lv_img_event:obj <- $r4
	@DEBUG_VALUE: lv_img_event:img <- $r4
	@DEBUG_VALUE: lv_img_event:class_p <- [DW_OP_LLVM_entry_value 1] $r0
	.loc	12 454 8 is_stmt 1              @ ../GUILib/src/widgets/lv_img.c:454:8
	cmp	r6, #44
	beq.w	.LBB2_30
.Ltmp58:
@ %bb.16:
	@DEBUG_VALUE: lv_img_event:code <- $r6
	@DEBUG_VALUE: lv_img_event:e <- $r5
	@DEBUG_VALUE: lv_img_event:obj <- $r4
	@DEBUG_VALUE: lv_img_event:img <- $r4
	@DEBUG_VALUE: lv_img_event:class_p <- [DW_OP_LLVM_entry_value 1] $r0
	cmp	r6, #42
	bne.w	.LBB2_60
.Ltmp59:
@ %bb.17:
	@DEBUG_VALUE: lv_img_event:code <- $r6
	@DEBUG_VALUE: lv_img_event:e <- $r5
	@DEBUG_VALUE: lv_img_event:obj <- $r4
	@DEBUG_VALUE: lv_img_event:img <- $r4
	@DEBUG_VALUE: lv_img_event:class_p <- [DW_OP_LLVM_entry_value 1] $r0
	.loc	12 456 17                       @ ../GUILib/src/widgets/lv_img.c:456:17
	ldrb.w	r0, [r4, #56]
	and	r0, r0, #3
.Ltmp60:
	.loc	12 456 12 is_stmt 0             @ ../GUILib/src/widgets/lv_img.c:456:12
	cmp	r0, #2
	bne.w	.LBB2_40
.Ltmp61:
@ %bb.18:
	@DEBUG_VALUE: lv_img_event:code <- $r6
	@DEBUG_VALUE: lv_img_event:e <- $r5
	@DEBUG_VALUE: lv_img_event:obj <- $r4
	@DEBUG_VALUE: lv_img_event:img <- $r4
	@DEBUG_VALUE: lv_img_event:class_p <- [DW_OP_LLVM_entry_value 1] $r0
	.loc	12 457 38 is_stmt 1             @ ../GUILib/src/widgets/lv_img.c:457:38
	ldr	r1, [r4, #36]
	.loc	12 457 13 is_stmt 0             @ ../GUILib/src/widgets/lv_img.c:457:13
	mov	r0, r4
	add	sp, #116
	pop.w	{r4, r5, r6, r7, r8, r9, r10, r11, lr}
.Ltmp62:
	@DEBUG_VALUE: lv_img_event:e <- [DW_OP_LLVM_entry_value 1] $r1
	b	lv_img_set_src
.Ltmp63:
.LBB2_19:
	@DEBUG_VALUE: draw_img:code <- $r8
	@DEBUG_VALUE: lv_img_event:code <- $r6
	@DEBUG_VALUE: draw_img:e <- $r5
	@DEBUG_VALUE: lv_img_event:e <- $r5
	@DEBUG_VALUE: draw_img:obj <- $r4
	@DEBUG_VALUE: draw_img:img <- $r4
	@DEBUG_VALUE: lv_img_event:class_p <- [DW_OP_LLVM_entry_value 1] $r0
	.loc	12 588 40 is_stmt 1             @ ../GUILib/src/widgets/lv_img.c:588:40
	cmp.w	r8, #24
	beq	.LBB2_21
.Ltmp64:
@ %bb.20:
	@DEBUG_VALUE: draw_img:code <- $r8
	@DEBUG_VALUE: lv_img_event:code <- $r6
	@DEBUG_VALUE: draw_img:e <- $r5
	@DEBUG_VALUE: lv_img_event:e <- $r5
	@DEBUG_VALUE: draw_img:obj <- $r4
	@DEBUG_VALUE: draw_img:img <- $r4
	@DEBUG_VALUE: lv_img_event:class_p <- [DW_OP_LLVM_entry_value 1] $r0
	cmp.w	r8, #21
	bne.w	.LBB2_60
.Ltmp65:
.LBB2_21:
	@DEBUG_VALUE: draw_img:code <- $r8
	@DEBUG_VALUE: lv_img_event:code <- $r6
	@DEBUG_VALUE: draw_img:e <- $r5
	@DEBUG_VALUE: lv_img_event:e <- $r5
	@DEBUG_VALUE: draw_img:obj <- $r4
	@DEBUG_VALUE: draw_img:img <- $r4
	@DEBUG_VALUE: lv_img_event:class_p <- [DW_OP_LLVM_entry_value 1] $r0
	@DEBUG_VALUE: lv_obj_get_style_transform_zoom:obj <- $r4
	@DEBUG_VALUE: lv_obj_get_style_transform_zoom:part <- 0
	.loc	20 81 26                        @ ../GUILib/src/widgets/../core/lv_obj_style_gen.h:81:26
	mov	r0, r4
	movs	r1, #0
	movw	r2, #14350
	bl	lv_obj_get_style_prop
.Ltmp66:
	@DEBUG_VALUE: lv_obj_get_style_transform_zoom:v <- $r0
	.loc	12 591 41                       @ ../GUILib/src/widgets/lv_img.c:591:41
	ldrh	r1, [r4, #54]
	.loc	12 590 30                       @ ../GUILib/src/widgets/lv_img.c:590:30
	sxth	r0, r0
.Ltmp67:
	@DEBUG_VALUE: zoom_final <- $r0
	.loc	12 591 34                       @ ../GUILib/src/widgets/lv_img.c:591:34
	muls	r0, r1, r0
.Ltmp68:
	.loc	12 591 47 is_stmt 0             @ ../GUILib/src/widgets/lv_img.c:591:47
	asr.w	r9, r0, #8
.Ltmp69:
	@DEBUG_VALUE: lv_obj_get_style_transform_angle:part <- 0
	@DEBUG_VALUE: lv_obj_get_style_transform_angle:obj <- $r4
	@DEBUG_VALUE: zoom_final <- $r9
	.loc	20 87 26 is_stmt 1              @ ../GUILib/src/widgets/../core/lv_obj_style_gen.h:87:26
	mov	r0, r4
	movs	r1, #0
	movw	r2, #14351
	bl	lv_obj_get_style_prop
.Ltmp70:
	.loc	12 594 29                       @ ../GUILib/src/widgets/lv_img.c:594:29
	ldrh	r1, [r4, #48]
.Ltmp71:
	@DEBUG_VALUE: angle_final <- undef
	@DEBUG_VALUE: lv_obj_get_style_transform_angle:v <- $r0
	@DEBUG_VALUE: lv_obj_get_style_transform_angle:part <- 0
	@DEBUG_VALUE: lv_obj_get_style_transform_angle:obj <- $r4
	.loc	12 594 21 is_stmt 0             @ ../GUILib/src/widgets/lv_img.c:594:21
	sxtah	r10, r1, r0
.Ltmp72:
	@DEBUG_VALUE: angle_final <- $r10
	.loc	12 596 28 is_stmt 1             @ ../GUILib/src/widgets/lv_img.c:596:28
	mov	r0, r4
	bl	lv_obj_get_width
.Ltmp73:
	str	r0, [sp, #52]                   @ 4-byte Spill
.Ltmp74:
	@DEBUG_VALUE: obj_w <- undef
	.loc	12 597 28                       @ ../GUILib/src/widgets/lv_img.c:597:28
	mov	r0, r4
	bl	lv_obj_get_height
.Ltmp75:
	str	r0, [sp, #48]                   @ 4-byte Spill
.Ltmp76:
	@DEBUG_VALUE: lv_obj_get_style_border_width:part <- 0
	@DEBUG_VALUE: lv_obj_get_style_border_width:obj <- $r4
	@DEBUG_VALUE: obj_h <- undef
	.loc	20 297 26                       @ ../GUILib/src/widgets/../core/lv_obj_style_gen.h:297:26
	mov	r0, r4
	movs	r1, #0
	movw	r2, #4146
	bl	lv_obj_get_style_prop
.Ltmp77:
	mov	r7, r0
.Ltmp78:
	@DEBUG_VALUE: lv_obj_get_style_pad_left:part <- 0
	@DEBUG_VALUE: lv_obj_get_style_pad_left:obj <- $r4
	@DEBUG_VALUE: border_width <- $r7
	@DEBUG_VALUE: lv_obj_get_style_border_width:v <- $r7
	.loc	20 105 26                       @ ../GUILib/src/widgets/../core/lv_obj_style_gen.h:105:26
	mov	r0, r4
	movs	r1, #0
	movw	r2, #6162
	bl	lv_obj_get_style_prop
.Ltmp79:
	@DEBUG_VALUE: lv_obj_get_style_pad_left:v <- $r0
	.loc	12 600 73                       @ ../GUILib/src/widgets/lv_img.c:600:73
	adds	r6, r0, r7
.Ltmp80:
	@DEBUG_VALUE: lv_obj_get_style_pad_right:part <- 0
	@DEBUG_VALUE: lv_obj_get_style_pad_right:obj <- $r4
	@DEBUG_VALUE: pleft <- $r6
	.loc	20 111 26                       @ ../GUILib/src/widgets/../core/lv_obj_style_gen.h:111:26
	mov	r0, r4
	movs	r1, #0
	movw	r2, #6163
	bl	lv_obj_get_style_prop
.Ltmp81:
	str	r0, [sp, #24]                   @ 4-byte Spill
.Ltmp82:
	@DEBUG_VALUE: lv_obj_get_style_pad_top:part <- 0
	@DEBUG_VALUE: lv_obj_get_style_pad_top:obj <- $r4
	@DEBUG_VALUE: pright <- undef
	@DEBUG_VALUE: lv_obj_get_style_pad_right:v <- [DW_OP_plus_uconst 24] [$sp+0]
	.loc	20 93 26                        @ ../GUILib/src/widgets/../core/lv_obj_style_gen.h:93:26
	mov	r0, r4
	movs	r1, #0
	movw	r2, #6160
	bl	lv_obj_get_style_prop
.Ltmp83:
	@DEBUG_VALUE: lv_obj_get_style_pad_top:v <- $r0
	.loc	12 602 71                       @ ../GUILib/src/widgets/lv_img.c:602:71
	add.w	r11, r0, r7
.Ltmp84:
	@DEBUG_VALUE: lv_obj_get_style_pad_bottom:part <- 0
	@DEBUG_VALUE: lv_obj_get_style_pad_bottom:obj <- $r4
	@DEBUG_VALUE: ptop <- $r11
	.loc	20 99 26                        @ ../GUILib/src/widgets/../core/lv_obj_style_gen.h:99:26
	mov	r0, r4
	movs	r1, #0
	movw	r2, #6161
	str	r7, [sp, #28]                   @ 4-byte Spill
.Ltmp85:
	@DEBUG_VALUE: border_width <- [DW_OP_plus_uconst 28] [$sp+0]
	@DEBUG_VALUE: border_width <- [DW_OP_plus_uconst 28] [$sp+0]
	bl	lv_obj_get_style_prop
.Ltmp86:
	.loc	12 606 33                       @ ../GUILib/src/widgets/lv_img.c:606:33
	ldrh	r1, [r4, #50]
.Ltmp87:
	.loc	20 99 26                        @ ../GUILib/src/widgets/../core/lv_obj_style_gen.h:99:26
	str	r0, [sp, #20]                   @ 4-byte Spill
.Ltmp88:
	@DEBUG_VALUE: pbottom <- undef
	@DEBUG_VALUE: lv_obj_get_style_pad_bottom:v <- [DW_OP_plus_uconst 20] [$sp+0]
	@DEBUG_VALUE: lv_obj_get_style_pad_bottom:part <- 0
	@DEBUG_VALUE: lv_obj_get_style_pad_bottom:obj <- $r4
	.loc	12 606 35                       @ ../GUILib/src/widgets/lv_img.c:606:35
	adds	r0, r1, r6
	.loc	12 606 20 is_stmt 0             @ ../GUILib/src/widgets/lv_img.c:606:20
	strh.w	r0, [sp, #112]
.Ltmp89:
	.loc	12 610 17 is_stmt 1             @ ../GUILib/src/widgets/lv_img.c:610:17
	ldrb.w	r0, [r4, #57]
.Ltmp90:
	.loc	12 607 33                       @ ../GUILib/src/widgets/lv_img.c:607:33
	ldrh	r1, [r4, #52]
.Ltmp91:
	.loc	12 610 17                       @ ../GUILib/src/widgets/lv_img.c:610:17
	and	r0, r0, #3
.Ltmp92:
	.loc	12 610 12 is_stmt 0             @ ../GUILib/src/widgets/lv_img.c:610:12
	cmp	r0, #1
	.loc	12 607 35 is_stmt 1             @ ../GUILib/src/widgets/lv_img.c:607:35
	add.w	r0, r1, r11
	str	r6, [sp, #40]                   @ 4-byte Spill
.Ltmp93:
	@DEBUG_VALUE: pleft <- [DW_OP_plus_uconst 40] [$sp+0]
	@DEBUG_VALUE: pleft <- [DW_OP_plus_uconst 40] [$sp+0]
	.loc	12 0 35 is_stmt 0               @ ../GUILib/src/widgets/lv_img.c:0:35
	str.w	r11, [sp, #32]                  @ 4-byte Spill
.Ltmp94:
	@DEBUG_VALUE: ptop <- [DW_OP_plus_uconst 32] [$sp+0]
	@DEBUG_VALUE: ptop <- [DW_OP_plus_uconst 32] [$sp+0]
	.loc	12 607 20                       @ ../GUILib/src/widgets/lv_img.c:607:20
	strh.w	r0, [sp, #114]
	.loc	12 610 12 is_stmt 1             @ ../GUILib/src/widgets/lv_img.c:610:12
	str.w	r9, [sp, #44]                   @ 4-byte Spill
	str.w	r10, [sp, #36]                  @ 4-byte Spill
	bne.w	.LBB2_32
.Ltmp95:
@ %bb.22:
	@DEBUG_VALUE: angle_final <- $r10
	@DEBUG_VALUE: zoom_final <- $r9
	@DEBUG_VALUE: draw_img:code <- $r8
	@DEBUG_VALUE: draw_img:e <- $r5
	@DEBUG_VALUE: lv_img_event:e <- $r5
	@DEBUG_VALUE: draw_img:obj <- $r4
	@DEBUG_VALUE: draw_img:img <- $r4
	@DEBUG_VALUE: ptop <- [DW_OP_plus_uconst 32] [$sp+0]
	@DEBUG_VALUE: pleft <- [DW_OP_plus_uconst 40] [$sp+0]
	@DEBUG_VALUE: border_width <- [DW_OP_plus_uconst 28] [$sp+0]
	@DEBUG_VALUE: lv_img_event:class_p <- [DW_OP_LLVM_entry_value 1] $r0
	.loc	12 0 12 is_stmt 0               @ ../GUILib/src/widgets/lv_img.c:0:12
	add	r1, sp, #104
.Ltmp96:
	.loc	12 612 13 is_stmt 1             @ ../GUILib/src/widgets/lv_img.c:612:13
	mov	r0, r4
	bl	lv_obj_get_coords
.Ltmp97:
	.loc	6 112 21                        @ ../GUILib/src/hal/../misc/lv_area.h:112:21
	ldrh.w	r11, [r4, #20]
	.loc	6 113 21                        @ ../GUILib/src/hal/../misc/lv_area.h:113:21
	ldrh	r7, [r4, #22]
.Ltmp98:
	.loc	6 112 21                        @ ../GUILib/src/hal/../misc/lv_area.h:112:21
	ldrh.w	r0, [sp, #104]
	.loc	6 113 21                        @ ../GUILib/src/hal/../misc/lv_area.h:113:21
	ldrh.w	r1, [sp, #106]
	.loc	6 114 21                        @ ../GUILib/src/hal/../misc/lv_area.h:114:21
	ldrh.w	r2, [sp, #108]
	.loc	6 115 21                        @ ../GUILib/src/hal/../misc/lv_area.h:115:21
	ldrh.w	r3, [sp, #110]
	b	.LBB2_33
.Ltmp99:
.LBB2_23:
	@DEBUG_VALUE: lv_img_event:code <- $r6
	@DEBUG_VALUE: lv_img_event:e <- $r5
	@DEBUG_VALUE: lv_img_event:obj <- $r4
	@DEBUG_VALUE: lv_img_event:img <- $r4
	@DEBUG_VALUE: lv_img_event:class_p <- [DW_OP_LLVM_entry_value 1] $r0
	.loc	12 487 37                       @ ../GUILib/src/widgets/lv_img.c:487:37
	mov	r0, r5
	bl	lv_event_get_param
.Ltmp100:
	mov	r8, r0
.Ltmp101:
	@DEBUG_VALUE: lv_obj_get_style_transform_zoom:part <- 0
	@DEBUG_VALUE: lv_obj_get_style_transform_zoom:obj <- $r4
	@DEBUG_VALUE: info <- $r8
	.loc	20 81 26                        @ ../GUILib/src/widgets/../core/lv_obj_style_gen.h:81:26
	mov	r0, r4
	movs	r1, #0
	movw	r2, #14350
	bl	lv_obj_get_style_prop
.Ltmp102:
	.loc	12 489 29                       @ ../GUILib/src/widgets/lv_img.c:489:29
	ldrh.w	r9, [r4, #54]
.Ltmp103:
	@DEBUG_VALUE: zoom <- [DW_OP_LLVM_convert 32 7, DW_OP_LLVM_convert 16 7, DW_OP_stack_value] undef
	.loc	20 81 26                        @ ../GUILib/src/widgets/../core/lv_obj_style_gen.h:81:26
	mov	r10, r0
.Ltmp104:
	@DEBUG_VALUE: lv_obj_get_style_transform_zoom:v <- $r10
	@DEBUG_VALUE: lv_obj_get_style_transform_angle:part <- 0
	@DEBUG_VALUE: lv_obj_get_style_transform_angle:obj <- $r4
	@DEBUG_VALUE: zoom <- [DW_OP_LLVM_convert 32 7, DW_OP_LLVM_convert 16 7, DW_OP_stack_value] $r10
	@DEBUG_VALUE: lv_obj_get_style_transform_zoom:part <- 0
	@DEBUG_VALUE: lv_obj_get_style_transform_zoom:obj <- $r4
	.loc	20 87 26                        @ ../GUILib/src/widgets/../core/lv_obj_style_gen.h:87:26
	mov	r0, r4
	movs	r1, #0
	movw	r2, #14351
	bl	lv_obj_get_style_prop
.Ltmp105:
	.loc	12 492 23                       @ ../GUILib/src/widgets/lv_img.c:492:23
	ldrh	r5, [r4, #48]
.Ltmp106:
	@DEBUG_VALUE: lv_img_event:e <- [DW_OP_LLVM_entry_value 1] $r1
	@DEBUG_VALUE: angle <- undef
	.loc	12 496 17                       @ ../GUILib/src/widgets/lv_img.c:496:17
	ldrh	r6, [r4, #44]
.Ltmp107:
	.loc	20 87 26                        @ ../GUILib/src/widgets/../core/lv_obj_style_gen.h:87:26
	mov	r7, r0
.Ltmp108:
	@DEBUG_VALUE: lv_obj_get_style_transform_angle:v <- $r7
	@DEBUG_VALUE: angle <- $r7
	@DEBUG_VALUE: lv_obj_get_style_transform_angle:part <- 0
	@DEBUG_VALUE: lv_obj_get_style_transform_angle:obj <- $r4
	.loc	12 496 22                       @ ../GUILib/src/widgets/lv_img.c:496:22
	mov	r0, r4
	bl	lv_obj_get_width
.Ltmp109:
	uxth	r0, r0
	.loc	12 496 44 is_stmt 0             @ ../GUILib/src/widgets/lv_img.c:496:44
	cmp	r6, r0
	bne.w	.LBB2_45
.Ltmp110:
@ %bb.24:
	@DEBUG_VALUE: zoom <- [DW_OP_LLVM_convert 32 7, DW_OP_LLVM_convert 16 7, DW_OP_stack_value] $r10
	@DEBUG_VALUE: info <- $r8
	@DEBUG_VALUE: angle <- $r7
	@DEBUG_VALUE: lv_img_event:obj <- $r4
	@DEBUG_VALUE: lv_img_event:img <- $r4
	@DEBUG_VALUE: lv_img_event:e <- [DW_OP_LLVM_entry_value 1] $r1
	@DEBUG_VALUE: lv_img_event:class_p <- [DW_OP_LLVM_entry_value 1] $r0
	@DEBUG_VALUE: zoom <- [DW_OP_LLVM_convert 32 7, DW_OP_LLVM_convert 16 7, DW_OP_stack_value] undef
	@DEBUG_VALUE: angle <- undef
	.loc	12 496 52                       @ ../GUILib/src/widgets/lv_img.c:496:52
	ldrh	r6, [r4, #46]
	.loc	12 496 57                       @ ../GUILib/src/widgets/lv_img.c:496:57
	mov	r0, r4
	bl	lv_obj_get_height
.Ltmp111:
	uxth	r0, r0
	.loc	12 496 80                       @ ../GUILib/src/widgets/lv_img.c:496:80
	cmp	r6, r0
	bne.w	.LBB2_45
.Ltmp112:
@ %bb.25:
	@DEBUG_VALUE: info <- $r8
	@DEBUG_VALUE: lv_img_event:obj <- $r4
	@DEBUG_VALUE: lv_img_event:img <- $r4
	@DEBUG_VALUE: lv_img_event:e <- [DW_OP_LLVM_entry_value 1] $r1
	@DEBUG_VALUE: lv_img_event:class_p <- [DW_OP_LLVM_entry_value 1] $r0
	.loc	12 0 80                         @ ../GUILib/src/widgets/lv_img.c:0:80
	sxth.w	r0, r10
	movw	r1, #65280
	mul	r0, r0, r9
.Ltmp113:
	@DEBUG_VALUE: zoom <- [DW_OP_LLVM_convert 32 7, DW_OP_LLVM_convert 16 7, DW_OP_stack_value] undef
	movt	r1, #255
	.loc	12 497 18 is_stmt 1             @ ../GUILib/src/widgets/lv_img.c:497:18
	ands	r1, r0
	.loc	12 497 38 is_stmt 0             @ ../GUILib/src/widgets/lv_img.c:497:38
	cmp.w	r1, #65536
	add.w	r9, r5, r7
.Ltmp114:
	@DEBUG_VALUE: angle <- $r9
	it	eq
	lslseq.w	r1, r9, #16
	beq.w	.LBB2_43
.Ltmp115:
.LBB2_26:
	@DEBUG_VALUE: angle <- $r9
	@DEBUG_VALUE: info <- $r8
	@DEBUG_VALUE: lv_img_event:obj <- $r4
	@DEBUG_VALUE: lv_img_event:img <- $r4
	@DEBUG_VALUE: lv_img_event:e <- [DW_OP_LLVM_entry_value 1] $r1
	@DEBUG_VALUE: lv_img_event:class_p <- [DW_OP_LLVM_entry_value 1] $r0
	.loc	12 0 38                         @ ../GUILib/src/widgets/lv_img.c:0:38
	lsrs	r5, r0, #8
.Ltmp116:
	@DEBUG_VALUE: zoom <- [DW_OP_LLVM_convert 32 7, DW_OP_LLVM_convert 16 7, DW_OP_stack_value] $r5
	.loc	12 499 28 is_stmt 1             @ ../GUILib/src/widgets/lv_img.c:499:28
	mov	r0, r4
	bl	lv_obj_get_width
.Ltmp117:
	mov	r6, r0
.Ltmp118:
	@DEBUG_VALUE: w <- undef
	.loc	12 500 28                       @ ../GUILib/src/widgets/lv_img.c:500:28
	mov	r0, r4
	bl	lv_obj_get_height
.Ltmp119:
	mov	r2, r0
.Ltmp120:
	@DEBUG_VALUE: h <- undef
	.loc	12 502 13                       @ ../GUILib/src/widgets/lv_img.c:502:13
	uxth	r0, r5
	add	r5, sp, #56
.Ltmp121:
	.loc	12 502 80 is_stmt 0             @ ../GUILib/src/widgets/lv_img.c:502:80
	add.w	r7, r4, #50
	.loc	12 502 13                       @ ../GUILib/src/widgets/lv_img.c:502:13
	str	r0, [sp]
	sxth.w	r3, r9
	mov	r0, r5
	mov	r1, r6
	str	r7, [sp, #4]
	bl	_lv_img_buf_get_transformed_area
.Ltmp122:
	.loc	12 503 38 is_stmt 1             @ ../GUILib/src/widgets/lv_img.c:503:38
	ldrh	r0, [r4, #20]
	.loc	12 503 23 is_stmt 0             @ ../GUILib/src/widgets/lv_img.c:503:23
	ldrh.w	r1, [sp, #56]
	.loc	12 504 38 is_stmt 1             @ ../GUILib/src/widgets/lv_img.c:504:38
	ldrh	r2, [r4, #22]
	.loc	12 504 23 is_stmt 0             @ ../GUILib/src/widgets/lv_img.c:504:23
	ldrh.w	r3, [sp, #58]
	.loc	12 503 23 is_stmt 1             @ ../GUILib/src/widgets/lv_img.c:503:23
	add	r1, r0
	strh.w	r1, [sp, #56]
	.loc	12 504 23                       @ ../GUILib/src/widgets/lv_img.c:504:23
	adds	r1, r3, r2
	.loc	12 505 23                       @ ../GUILib/src/widgets/lv_img.c:505:23
	ldrh.w	r3, [sp, #60]
	.loc	12 504 23                       @ ../GUILib/src/widgets/lv_img.c:504:23
	strh.w	r1, [sp, #58]
	.loc	12 506 23                       @ ../GUILib/src/widgets/lv_img.c:506:23
	ldrh.w	r1, [sp, #62]
	.loc	12 505 23                       @ ../GUILib/src/widgets/lv_img.c:505:23
	add	r0, r3
	strh.w	r0, [sp, #60]
	.loc	12 506 23                       @ ../GUILib/src/widgets/lv_img.c:506:23
	adds	r0, r1, r2
	strh.w	r0, [sp, #62]
	.loc	12 508 61                       @ ../GUILib/src/widgets/lv_img.c:508:61
	ldr.w	r1, [r8]
	.loc	12 508 25 is_stmt 0             @ ../GUILib/src/widgets/lv_img.c:508:25
	mov	r0, r5
	b	.LBB2_46
.Ltmp123:
.LBB2_27:
	@DEBUG_VALUE: lv_img_event:code <- $r6
	@DEBUG_VALUE: lv_img_event:e <- $r5
	@DEBUG_VALUE: lv_img_event:obj <- $r4
	@DEBUG_VALUE: lv_img_event:img <- $r4
	@DEBUG_VALUE: lv_img_event:class_p <- [DW_OP_LLVM_entry_value 1] $r0
	.loc	12 466 26 is_stmt 1             @ ../GUILib/src/widgets/lv_img.c:466:26
	mov	r0, r5
	bl	lv_event_get_param
.Ltmp124:
	mov	r5, r0
.Ltmp125:
	@DEBUG_VALUE: lv_img_event:e <- [DW_OP_LLVM_entry_value 1] $r1
	@DEBUG_VALUE: lv_obj_get_style_transform_zoom:part <- 0
	@DEBUG_VALUE: lv_obj_get_style_transform_zoom:obj <- $r4
	@DEBUG_VALUE: s <- $r5
	.loc	20 81 26                        @ ../GUILib/src/widgets/../core/lv_obj_style_gen.h:81:26
	mov	r0, r4
	movs	r1, #0
	movw	r2, #14350
	bl	lv_obj_get_style_prop
.Ltmp126:
	@DEBUG_VALUE: transf_zoom <- [DW_OP_LLVM_convert 32 7, DW_OP_LLVM_convert 16 7, DW_OP_stack_value] $r0
	@DEBUG_VALUE: lv_obj_get_style_transform_zoom:v <- $r0
	.loc	12 468 52                       @ ../GUILib/src/widgets/lv_img.c:468:52
	ldrh	r1, [r4, #54]
	.loc	12 468 24 is_stmt 0             @ ../GUILib/src/widgets/lv_img.c:468:24
	sxth	r0, r0
.Ltmp127:
	.loc	12 468 45                       @ ../GUILib/src/widgets/lv_img.c:468:45
	mul	r6, r0, r1
.Ltmp128:
	@DEBUG_VALUE: lv_obj_get_style_transform_angle:part <- 0
	@DEBUG_VALUE: lv_obj_get_style_transform_angle:obj <- $r4
	@DEBUG_VALUE: transf_zoom <- [DW_OP_constu 8, DW_OP_shr, DW_OP_LLVM_convert 32 7, DW_OP_LLVM_convert 16 7, DW_OP_stack_value] $r6
	.loc	20 87 26 is_stmt 1              @ ../GUILib/src/widgets/../core/lv_obj_style_gen.h:87:26
	mov	r0, r4
	movs	r1, #0
	movw	r2, #14351
	bl	lv_obj_get_style_prop
.Ltmp129:
	.loc	12 471 30                       @ ../GUILib/src/widgets/lv_img.c:471:30
	ldrh	r1, [r4, #48]
.Ltmp130:
	@DEBUG_VALUE: transf_angle <- $r0
	@DEBUG_VALUE: lv_obj_get_style_transform_angle:v <- $r0
	@DEBUG_VALUE: lv_obj_get_style_transform_angle:part <- 0
	@DEBUG_VALUE: lv_obj_get_style_transform_angle:obj <- $r4
	.loc	12 471 22 is_stmt 0             @ ../GUILib/src/widgets/lv_img.c:471:22
	adds	r7, r1, r0
.Ltmp131:
	@DEBUG_VALUE: transf_angle <- $r7
	.loc	12 474 25 is_stmt 1             @ ../GUILib/src/widgets/lv_img.c:474:25
	lsls	r0, r7, #16
	bne	.LBB2_29
.Ltmp132:
@ %bb.28:
	@DEBUG_VALUE: transf_angle <- $r7
	@DEBUG_VALUE: transf_zoom <- [DW_OP_constu 8, DW_OP_shr, DW_OP_LLVM_convert 32 7, DW_OP_LLVM_convert 16 7, DW_OP_stack_value] $r6
	@DEBUG_VALUE: s <- $r5
	@DEBUG_VALUE: lv_img_event:obj <- $r4
	@DEBUG_VALUE: lv_img_event:img <- $r4
	@DEBUG_VALUE: lv_img_event:e <- [DW_OP_LLVM_entry_value 1] $r1
	@DEBUG_VALUE: lv_img_event:class_p <- [DW_OP_LLVM_entry_value 1] $r0
	.loc	12 0 25 is_stmt 0               @ ../GUILib/src/widgets/lv_img.c:0:25
	movw	r0, #65280
	movt	r0, #255
	ands	r0, r6
	.loc	12 474 25                       @ ../GUILib/src/widgets/lv_img.c:474:25
	cmp.w	r0, #65536
	beq.w	.LBB2_60
.Ltmp133:
.LBB2_29:
	@DEBUG_VALUE: transf_angle <- $r7
	@DEBUG_VALUE: transf_zoom <- [DW_OP_constu 8, DW_OP_shr, DW_OP_LLVM_convert 32 7, DW_OP_LLVM_convert 16 7, DW_OP_stack_value] $r6
	@DEBUG_VALUE: s <- $r5
	@DEBUG_VALUE: lv_img_event:obj <- $r4
	@DEBUG_VALUE: lv_img_event:img <- $r4
	@DEBUG_VALUE: lv_img_event:e <- [DW_OP_LLVM_entry_value 1] $r1
	@DEBUG_VALUE: lv_img_event:class_p <- [DW_OP_LLVM_entry_value 1] $r0
	@DEBUG_VALUE: transf_zoom <- [DW_OP_LLVM_convert 32 7, DW_OP_LLVM_convert 16 7, DW_OP_stack_value] undef
	.loc	12 476 28 is_stmt 1             @ ../GUILib/src/widgets/lv_img.c:476:28
	mov	r0, r4
	bl	lv_obj_get_width
.Ltmp134:
	mov	r9, r0
.Ltmp135:
	@DEBUG_VALUE: w <- undef
	.loc	12 477 28                       @ ../GUILib/src/widgets/lv_img.c:477:28
	mov	r0, r4
	bl	lv_obj_get_height
.Ltmp136:
	mov	r8, r0
.Ltmp137:
	@DEBUG_VALUE: h <- undef
	.loc	12 478 13                       @ ../GUILib/src/widgets/lv_img.c:478:13
	ubfx	r0, r6, #8, #16
.Ltmp138:
	@DEBUG_VALUE: transf_zoom <- $r0
	.loc	12 478 89 is_stmt 0             @ ../GUILib/src/widgets/lv_img.c:478:89
	adds	r4, #50
.Ltmp139:
	.loc	12 478 13                       @ ../GUILib/src/widgets/lv_img.c:478:13
	str	r0, [sp]
	sxth	r3, r7
	add	r0, sp, #56
.Ltmp140:
	mov	r1, r9
	mov	r2, r8
	str	r4, [sp, #4]
	bl	_lv_img_buf_get_transformed_area
.Ltmp141:
	.loc	12 480 18 is_stmt 1             @ ../GUILib/src/widgets/lv_img.c:480:18
	ldrsh.w	r1, [r5]
.Ltmp142:
	@DEBUG_VALUE: pad_ori <- $r1
	ldrsh.w	r0, [sp, #56]
	mov	r2, r1
	cmp	r0, #0
	it	mi
	submi	r2, r2, r0
	.loc	12 480 16 is_stmt 0             @ ../GUILib/src/widgets/lv_img.c:480:16
	strh	r2, [r5]
	.loc	12 481 18 is_stmt 1             @ ../GUILib/src/widgets/lv_img.c:481:18
	ldrsh.w	r0, [sp, #58]
	sxth	r2, r2
	subs	r0, r1, r0
	cmp	r0, r2
	it	lt
	movlt	r0, r2
	.loc	12 481 16 is_stmt 0             @ ../GUILib/src/widgets/lv_img.c:481:16
	strh	r0, [r5]
	.loc	12 482 18 is_stmt 1             @ ../GUILib/src/widgets/lv_img.c:482:18
	ldrsh.w	r2, [sp, #60]
	sub.w	r3, r1, r9
	sxth	r0, r0
	add	r2, r3
	cmp	r0, r2
	it	gt
	movgt	r2, r0
	.loc	12 482 16 is_stmt 0             @ ../GUILib/src/widgets/lv_img.c:482:16
	strh	r2, [r5]
	.loc	12 483 18 is_stmt 1             @ ../GUILib/src/widgets/lv_img.c:483:18
	sxth	r0, r2
	ldrsh.w	r2, [sp, #62]
	sub.w	r1, r1, r8
.Ltmp143:
	add	r1, r2
	cmp	r0, r1
	it	gt
	movgt	r1, r0
	.loc	12 483 16 is_stmt 0             @ ../GUILib/src/widgets/lv_img.c:483:16
	strh	r1, [r5]
	b	.LBB2_60
.Ltmp144:
.LBB2_30:
	@DEBUG_VALUE: lv_img_event:code <- $r6
	@DEBUG_VALUE: lv_img_event:e <- $r5
	@DEBUG_VALUE: lv_img_event:obj <- $r4
	@DEBUG_VALUE: lv_img_event:img <- $r4
	@DEBUG_VALUE: lv_img_event:class_p <- [DW_OP_LLVM_entry_value 1] $r0
	.loc	12 517 26 is_stmt 1             @ ../GUILib/src/widgets/lv_img.c:517:26
	mov	r0, r5
	bl	lv_event_get_param
.Ltmp145:
	.loc	12 518 17                       @ ../GUILib/src/widgets/lv_img.c:518:17
	ldrb.w	r1, [r4, #57]
.Ltmp146:
	.loc	12 517 26                       @ ../GUILib/src/widgets/lv_img.c:517:26
	mov	r5, r0
.Ltmp147:
	@DEBUG_VALUE: lv_img_event:e <- [DW_OP_LLVM_entry_value 1] $r1
	@DEBUG_VALUE: p <- $r5
	.loc	12 518 17                       @ ../GUILib/src/widgets/lv_img.c:518:17
	and	r1, r1, #3
.Ltmp148:
	.loc	12 518 12 is_stmt 0             @ ../GUILib/src/widgets/lv_img.c:518:12
	cmp	r1, #1
	bne.w	.LBB2_41
.Ltmp149:
@ %bb.31:
	@DEBUG_VALUE: lv_img_event:code <- $r6
	@DEBUG_VALUE: p <- $r5
	@DEBUG_VALUE: lv_img_event:obj <- $r4
	@DEBUG_VALUE: lv_img_event:img <- $r4
	@DEBUG_VALUE: lv_img_event:e <- [DW_OP_LLVM_entry_value 1] $r1
	@DEBUG_VALUE: lv_img_event:class_p <- [DW_OP_LLVM_entry_value 1] $r0
	@DEBUG_VALUE: p <- $r5
	.loc	12 519 18 is_stmt 1             @ ../GUILib/src/widgets/lv_img.c:519:18
	mov	r0, r4
	bl	lv_img_get_transformed_size
.Ltmp150:
	.loc	12 0 18 is_stmt 0               @ ../GUILib/src/widgets/lv_img.c:0:18
	b	.LBB2_42
.Ltmp151:
.LBB2_32:
	@DEBUG_VALUE: angle_final <- $r10
	@DEBUG_VALUE: zoom_final <- $r9
	@DEBUG_VALUE: draw_img:code <- $r8
	@DEBUG_VALUE: draw_img:e <- $r5
	@DEBUG_VALUE: lv_img_event:e <- $r5
	@DEBUG_VALUE: draw_img:obj <- $r4
	@DEBUG_VALUE: draw_img:img <- $r4
	@DEBUG_VALUE: ptop <- [DW_OP_plus_uconst 32] [$sp+0]
	@DEBUG_VALUE: pleft <- [DW_OP_plus_uconst 40] [$sp+0]
	@DEBUG_VALUE: border_width <- [DW_OP_plus_uconst 28] [$sp+0]
	@DEBUG_VALUE: lv_img_event:class_p <- [DW_OP_LLVM_entry_value 1] $r0
	.loc	12 615 13 is_stmt 1             @ ../GUILib/src/widgets/lv_img.c:615:13
	uxth.w	r0, r9
	str	r0, [sp]
	ldrd	r2, r1, [sp, #48]               @ 8-byte Folded Reload
	add.w	r12, sp, #112
	sxth.w	r3, r10
	add	r0, sp, #104
	str.w	r12, [sp, #4]
	bl	_lv_img_buf_get_transformed_area
.Ltmp152:
	.loc	12 619 41                       @ ../GUILib/src/widgets/lv_img.c:619:41
	ldrh.w	r11, [r4, #20]
	.loc	12 619 26 is_stmt 0             @ ../GUILib/src/widgets/lv_img.c:619:26
	ldrh.w	r0, [sp, #104]
	.loc	12 620 41 is_stmt 1             @ ../GUILib/src/widgets/lv_img.c:620:41
	ldrh	r7, [r4, #22]
	.loc	12 620 26 is_stmt 0             @ ../GUILib/src/widgets/lv_img.c:620:26
	ldrh.w	r1, [sp, #106]
	.loc	12 621 26 is_stmt 1             @ ../GUILib/src/widgets/lv_img.c:621:26
	ldrh.w	r2, [sp, #108]
	.loc	12 622 26                       @ ../GUILib/src/widgets/lv_img.c:622:26
	ldrh.w	r3, [sp, #110]
	.loc	12 619 26                       @ ../GUILib/src/widgets/lv_img.c:619:26
	add	r0, r11
	.loc	12 620 26                       @ ../GUILib/src/widgets/lv_img.c:620:26
	add	r1, r7
	.loc	12 621 26                       @ ../GUILib/src/widgets/lv_img.c:621:26
	add	r2, r11
	.loc	12 622 26                       @ ../GUILib/src/widgets/lv_img.c:622:26
	add	r3, r7
	.loc	12 619 26                       @ ../GUILib/src/widgets/lv_img.c:619:26
	strh.w	r0, [sp, #104]
	.loc	12 620 26                       @ ../GUILib/src/widgets/lv_img.c:620:26
	strh.w	r1, [sp, #106]
	.loc	12 621 26                       @ ../GUILib/src/widgets/lv_img.c:621:26
	strh.w	r2, [sp, #108]
	.loc	12 622 26                       @ ../GUILib/src/widgets/lv_img.c:622:26
	strh.w	r3, [sp, #110]
.Ltmp153:
.LBB2_33:
	@DEBUG_VALUE: angle_final <- $r10
	@DEBUG_VALUE: zoom_final <- $r9
	@DEBUG_VALUE: draw_img:code <- $r8
	@DEBUG_VALUE: draw_img:e <- $r5
	@DEBUG_VALUE: lv_img_event:e <- $r5
	@DEBUG_VALUE: draw_img:obj <- $r4
	@DEBUG_VALUE: draw_img:img <- $r4
	@DEBUG_VALUE: ptop <- [DW_OP_plus_uconst 32] [$sp+0]
	@DEBUG_VALUE: pleft <- [DW_OP_plus_uconst 40] [$sp+0]
	@DEBUG_VALUE: border_width <- [DW_OP_plus_uconst 28] [$sp+0]
	@DEBUG_VALUE: lv_img_event:class_p <- [DW_OP_LLVM_entry_value 1] $r0
	@DEBUG_VALUE: pright <- undef
	@DEBUG_VALUE: pbottom <- undef
	@DEBUG_VALUE: ori_coords <- [DW_OP_LLVM_fragment 48 16] undef
	@DEBUG_VALUE: lv_area_copy:src <- [DW_OP_plus_uconst 104, DW_OP_stack_value] $sp
	.loc	6 112 14                        @ ../GUILib/src/hal/../misc/lv_area.h:112:14
	mov	r6, r4
	strh	r0, [r6, #20]!
.Ltmp154:
	@DEBUG_VALUE: ori_coords <- [DW_OP_LLVM_fragment 16 16] $r7
	@DEBUG_VALUE: ori_coords <- [DW_OP_LLVM_fragment 0 16] $r11
	@DEBUG_VALUE: lv_area_copy:dest <- undef
	@DEBUG_VALUE: lv_area_copy:dest <- $r6
	@DEBUG_VALUE: lv_area_copy:src <- $r6
	.loc	12 629 24                       @ ../GUILib/src/widgets/lv_img.c:629:24
	movw	r0, :lower16:lv_img_class
.Ltmp155:
	.loc	6 114 21                        @ ../GUILib/src/hal/../misc/lv_area.h:114:21
	ldrh.w	r10, [r6, #4]
.Ltmp156:
	@DEBUG_VALUE: ori_coords <- [DW_OP_LLVM_fragment 32 16] undef
	.loc	6 115 21                        @ ../GUILib/src/hal/../misc/lv_area.h:115:21
	ldrh.w	r9, [r6, #6]
.Ltmp157:
	.loc	6 113 14                        @ ../GUILib/src/hal/../misc/lv_area.h:113:14
	strh	r1, [r6, #2]
.Ltmp158:
	@DEBUG_VALUE: lv_area_copy:dest <- $r6
	@DEBUG_VALUE: lv_area_copy:src <- [DW_OP_plus_uconst 104, DW_OP_stack_value] $sp
	.loc	12 629 24                       @ ../GUILib/src/widgets/lv_img.c:629:24
	movt	r0, :upper16:lv_img_class
	mov	r1, r5
.Ltmp159:
	.loc	6 114 14                        @ ../GUILib/src/hal/../misc/lv_area.h:114:14
	strh	r2, [r6, #4]
	.loc	6 115 14                        @ ../GUILib/src/hal/../misc/lv_area.h:115:14
	strh	r3, [r6, #6]
.Ltmp160:
	.loc	12 629 24                       @ ../GUILib/src/widgets/lv_img.c:629:24
	bl	lv_obj_event_base
.Ltmp161:
	@DEBUG_VALUE: res <- $r0
	.loc	12 630 12                       @ ../GUILib/src/widgets/lv_img.c:630:12
	cmp	r0, #1
	bne.w	.LBB2_60
.Ltmp162:
@ %bb.34:
	@DEBUG_VALUE: ori_coords <- [DW_OP_LLVM_fragment 0 16] $r11
	@DEBUG_VALUE: draw_img:code <- $r8
	@DEBUG_VALUE: ori_coords <- [DW_OP_LLVM_fragment 16 16] $r7
	@DEBUG_VALUE: draw_img:e <- $r5
	@DEBUG_VALUE: lv_img_event:e <- $r5
	@DEBUG_VALUE: draw_img:obj <- $r4
	@DEBUG_VALUE: draw_img:img <- $r4
	@DEBUG_VALUE: res <- $r0
	@DEBUG_VALUE: ptop <- [DW_OP_plus_uconst 32] [$sp+0]
	@DEBUG_VALUE: pleft <- [DW_OP_plus_uconst 40] [$sp+0]
	@DEBUG_VALUE: border_width <- [DW_OP_plus_uconst 28] [$sp+0]
	@DEBUG_VALUE: lv_img_event:class_p <- [DW_OP_LLVM_entry_value 1] $r0
	@DEBUG_VALUE: pright <- undef
	@DEBUG_VALUE: pbottom <- undef
	@DEBUG_VALUE: lv_area_copy:dest <- $r6
	@DEBUG_VALUE: lv_area_copy:src <- undef
	.loc	12 634 12                       @ ../GUILib/src/widgets/lv_img.c:634:12
	cmp.w	r8, #21
.Ltmp163:
	.loc	6 112 14                        @ ../GUILib/src/hal/../misc/lv_area.h:112:14
	strh.w	r11, [r4, #20]
	.loc	6 113 14                        @ ../GUILib/src/hal/../misc/lv_area.h:113:14
	strh	r7, [r4, #22]
	.loc	6 114 14                        @ ../GUILib/src/hal/../misc/lv_area.h:114:14
	strh.w	r10, [r4, #24]
	.loc	6 115 14                        @ ../GUILib/src/hal/../misc/lv_area.h:115:14
	strh.w	r9, [r4, #26]
.Ltmp164:
	@DEBUG_VALUE: lv_area_copy:dest <- $r6
	.loc	12 634 12                       @ ../GUILib/src/widgets/lv_img.c:634:12
	bne.w	.LBB2_60
.Ltmp165:
@ %bb.35:
	@DEBUG_VALUE: ori_coords <- [DW_OP_LLVM_fragment 0 16] $r11
	@DEBUG_VALUE: draw_img:code <- $r8
	@DEBUG_VALUE: ori_coords <- [DW_OP_LLVM_fragment 16 16] $r7
	@DEBUG_VALUE: draw_img:e <- $r5
	@DEBUG_VALUE: lv_img_event:e <- $r5
	@DEBUG_VALUE: draw_img:obj <- $r4
	@DEBUG_VALUE: draw_img:img <- $r4
	@DEBUG_VALUE: res <- $r0
	@DEBUG_VALUE: ptop <- [DW_OP_plus_uconst 32] [$sp+0]
	@DEBUG_VALUE: pleft <- [DW_OP_plus_uconst 40] [$sp+0]
	@DEBUG_VALUE: border_width <- [DW_OP_plus_uconst 28] [$sp+0]
	@DEBUG_VALUE: lv_img_event:class_p <- [DW_OP_LLVM_entry_value 1] $r0
	@DEBUG_VALUE: pright <- undef
	@DEBUG_VALUE: pbottom <- undef
	.loc	12 635 21                       @ ../GUILib/src/widgets/lv_img.c:635:21
	ldrh	r0, [r4, #46]
.Ltmp166:
	.loc	12 635 28 is_stmt 0             @ ../GUILib/src/widgets/lv_img.c:635:28
	cmp	r0, #0
	beq.w	.LBB2_60
.Ltmp167:
@ %bb.36:
	@DEBUG_VALUE: ori_coords <- [DW_OP_LLVM_fragment 0 16] $r11
	@DEBUG_VALUE: draw_img:code <- $r8
	@DEBUG_VALUE: ori_coords <- [DW_OP_LLVM_fragment 16 16] $r7
	@DEBUG_VALUE: draw_img:e <- $r5
	@DEBUG_VALUE: lv_img_event:e <- $r5
	@DEBUG_VALUE: draw_img:obj <- $r4
	@DEBUG_VALUE: draw_img:img <- $r4
	@DEBUG_VALUE: ptop <- [DW_OP_plus_uconst 32] [$sp+0]
	@DEBUG_VALUE: pleft <- [DW_OP_plus_uconst 40] [$sp+0]
	@DEBUG_VALUE: border_width <- [DW_OP_plus_uconst 28] [$sp+0]
	@DEBUG_VALUE: lv_img_event:class_p <- [DW_OP_LLVM_entry_value 1] $r0
	@DEBUG_VALUE: pright <- undef
	@DEBUG_VALUE: pbottom <- undef
	.loc	12 635 36                       @ ../GUILib/src/widgets/lv_img.c:635:36
	ldrh	r0, [r4, #44]
.Ltmp168:
	.loc	12 635 16                       @ ../GUILib/src/widgets/lv_img.c:635:16
	cmp	r0, #0
	beq.w	.LBB2_60
.Ltmp169:
@ %bb.37:
	@DEBUG_VALUE: ori_coords <- [DW_OP_LLVM_fragment 0 16] $r11
	@DEBUG_VALUE: draw_img:code <- $r8
	@DEBUG_VALUE: ori_coords <- [DW_OP_LLVM_fragment 16 16] $r7
	@DEBUG_VALUE: draw_img:e <- $r5
	@DEBUG_VALUE: lv_img_event:e <- $r5
	@DEBUG_VALUE: draw_img:obj <- $r4
	@DEBUG_VALUE: draw_img:img <- $r4
	@DEBUG_VALUE: ptop <- [DW_OP_plus_uconst 32] [$sp+0]
	@DEBUG_VALUE: pleft <- [DW_OP_plus_uconst 40] [$sp+0]
	@DEBUG_VALUE: border_width <- [DW_OP_plus_uconst 28] [$sp+0]
	@DEBUG_VALUE: lv_img_event:class_p <- [DW_OP_LLVM_entry_value 1] $r0
	@DEBUG_VALUE: pright <- undef
	@DEBUG_VALUE: pbottom <- undef
	.loc	12 0 16                         @ ../GUILib/src/widgets/lv_img.c:0:16
	ldr	r7, [sp, #44]                   @ 4-byte Reload
.Ltmp170:
	.loc	12 636 16 is_stmt 1             @ ../GUILib/src/widgets/lv_img.c:636:16
	cmp	r7, #0
	beq.w	.LBB2_60
.Ltmp171:
@ %bb.38:
	@DEBUG_VALUE: ori_coords <- [DW_OP_LLVM_fragment 0 16] $r11
	@DEBUG_VALUE: draw_img:code <- $r8
	@DEBUG_VALUE: draw_img:e <- $r5
	@DEBUG_VALUE: lv_img_event:e <- $r5
	@DEBUG_VALUE: draw_img:obj <- $r4
	@DEBUG_VALUE: draw_img:img <- $r4
	@DEBUG_VALUE: ptop <- [DW_OP_plus_uconst 32] [$sp+0]
	@DEBUG_VALUE: pleft <- [DW_OP_plus_uconst 40] [$sp+0]
	@DEBUG_VALUE: border_width <- [DW_OP_plus_uconst 28] [$sp+0]
	@DEBUG_VALUE: lv_img_event:class_p <- [DW_OP_LLVM_entry_value 1] $r0
	@DEBUG_VALUE: pright <- undef
	@DEBUG_VALUE: pbottom <- undef
	.loc	12 638 43                       @ ../GUILib/src/widgets/lv_img.c:638:43
	mov	r0, r5
	bl	lv_event_get_param
.Ltmp172:
	.loc	6 112 21                        @ ../GUILib/src/hal/../misc/lv_area.h:112:21
	ldrh.w	r8, [r4, #20]
.Ltmp173:
	@DEBUG_VALUE: img_max_area <- [DW_OP_LLVM_fragment 0 16] undef
	.loc	6 113 21                        @ ../GUILib/src/hal/../misc/lv_area.h:113:21
	ldrh.w	r11, [r4, #22]
.Ltmp174:
	@DEBUG_VALUE: img_max_area <- [DW_OP_LLVM_fragment 16 16] undef
	.loc	6 114 21                        @ ../GUILib/src/hal/../misc/lv_area.h:114:21
	ldrh.w	r10, [r4, #24]
.Ltmp175:
	@DEBUG_VALUE: img_max_area <- [DW_OP_LLVM_fragment 32 16] undef
	.loc	6 115 21                        @ ../GUILib/src/hal/../misc/lv_area.h:115:21
	ldrh.w	r9, [r4, #26]
.Ltmp176:
	@DEBUG_VALUE: img_max_area <- [DW_OP_LLVM_fragment 48 16] undef
	.loc	12 638 43                       @ ../GUILib/src/widgets/lv_img.c:638:43
	str	r0, [sp, #48]                   @ 4-byte Spill
	@DEBUG_VALUE: lv_area_copy:src <- $r6
	@DEBUG_VALUE: lv_area_copy:dest <- undef
.Ltmp177:
	@DEBUG_VALUE: clip_area <- [DW_OP_plus_uconst 48] [$sp+0]
	.loc	12 643 41                       @ ../GUILib/src/widgets/lv_img.c:643:41
	mov	r0, r4
	bl	lv_img_get_transformed_size
.Ltmp178:
	.loc	12 645 21                       @ ../GUILib/src/widgets/lv_img.c:645:21
	ldrb.w	r1, [r4, #57]
.Ltmp179:
	.loc	12 643 41                       @ ../GUILib/src/widgets/lv_img.c:643:41
	mov	r5, r0
.Ltmp180:
	@DEBUG_VALUE: lv_img_event:e <- [DW_OP_LLVM_entry_value 1] $r1
	@DEBUG_VALUE: img_size_final <- [DW_OP_constu 16, DW_OP_shr, DW_OP_LLVM_convert 32 7, DW_OP_LLVM_convert 16 7, DW_OP_stack_value, DW_OP_LLVM_fragment 16 16] $r5
	@DEBUG_VALUE: img_size_final <- [DW_OP_LLVM_convert 32 7, DW_OP_LLVM_convert 16 7, DW_OP_stack_value, DW_OP_LLVM_fragment 0 16] $r5
	.loc	12 645 21                       @ ../GUILib/src/widgets/lv_img.c:645:21
	and	r1, r1, #3
.Ltmp181:
	.loc	12 645 16 is_stmt 0             @ ../GUILib/src/widgets/lv_img.c:645:16
	cmp	r1, #1
	bne	.LBB2_47
.Ltmp182:
@ %bb.39:
	@DEBUG_VALUE: img_size_final <- [DW_OP_LLVM_convert 32 7, DW_OP_LLVM_convert 16 7, DW_OP_stack_value, DW_OP_LLVM_fragment 0 16] $r5
	@DEBUG_VALUE: img_size_final <- [DW_OP_constu 16, DW_OP_shr, DW_OP_LLVM_convert 32 7, DW_OP_LLVM_convert 16 7, DW_OP_stack_value, DW_OP_LLVM_fragment 16 16] $r5
	@DEBUG_VALUE: draw_img:obj <- $r4
	@DEBUG_VALUE: draw_img:img <- $r4
	@DEBUG_VALUE: clip_area <- [DW_OP_plus_uconst 48] [$sp+0]
	@DEBUG_VALUE: ptop <- [DW_OP_plus_uconst 32] [$sp+0]
	@DEBUG_VALUE: pleft <- [DW_OP_plus_uconst 40] [$sp+0]
	@DEBUG_VALUE: border_width <- [DW_OP_plus_uconst 28] [$sp+0]
	@DEBUG_VALUE: lv_img_event:e <- [DW_OP_LLVM_entry_value 1] $r1
	@DEBUG_VALUE: lv_img_event:class_p <- [DW_OP_LLVM_entry_value 1] $r0
	@DEBUG_VALUE: img_size_final <- [DW_OP_LLVM_convert 32 7, DW_OP_LLVM_convert 16 7, DW_OP_stack_value, DW_OP_LLVM_fragment 0 16] $r5
	@DEBUG_VALUE: img_size_final <- [DW_OP_constu 16, DW_OP_shr, DW_OP_LLVM_convert 32 7, DW_OP_LLVM_convert 16 7, DW_OP_stack_value, DW_OP_LLVM_fragment 16 16] $r5
	.loc	12 646 43 is_stmt 1             @ ../GUILib/src/widgets/lv_img.c:646:43
	ldrsh.w	r1, [r4, #44]
	.loc	12 646 47 is_stmt 0             @ ../GUILib/src/widgets/lv_img.c:646:47
	sxth	r0, r5
	.loc	12 646 65                       @ ../GUILib/src/widgets/lv_img.c:646:65
	subs	r0, r1, r0
	.loc	12 648 43 is_stmt 1             @ ../GUILib/src/widgets/lv_img.c:648:43
	ldrsh.w	r2, [r4, #46]
	.loc	12 646 65                       @ ../GUILib/src/widgets/lv_img.c:646:65
	adds	r0, #1
	.loc	12 646 70 is_stmt 0             @ ../GUILib/src/widgets/lv_img.c:646:70
	add.w	r0, r0, r0, lsr #31
	.loc	12 646 33                       @ ../GUILib/src/widgets/lv_img.c:646:33
	sub.w	r8, r8, r0, lsr #1
.Ltmp183:
	@DEBUG_VALUE: img_max_area <- [DW_OP_LLVM_fragment 0 16] $r8
	.loc	12 647 33 is_stmt 1             @ ../GUILib/src/widgets/lv_img.c:647:33
	sub.w	r3, r10, r0, lsr #1
.Ltmp184:
	@DEBUG_VALUE: img_max_area <- [DW_OP_LLVM_fragment 32 16] $r3
	.loc	12 648 65                       @ ../GUILib/src/widgets/lv_img.c:648:65
	sub.w	r0, r2, r5, asr #16
	adds	r0, #1
	.loc	12 648 70 is_stmt 0             @ ../GUILib/src/widgets/lv_img.c:648:70
	add.w	r0, r0, r0, lsr #31
	.loc	12 648 33                       @ ../GUILib/src/widgets/lv_img.c:648:33
	sub.w	r11, r11, r0, lsr #1
.Ltmp185:
	@DEBUG_VALUE: img_max_area <- [DW_OP_LLVM_fragment 16 16] $r11
	.loc	12 649 33 is_stmt 1             @ ../GUILib/src/widgets/lv_img.c:649:33
	sub.w	r0, r9, r0, lsr #1
.Ltmp186:
	@DEBUG_VALUE: img_max_area <- [DW_OP_LLVM_fragment 48 16] $r0
	.loc	12 0 33 is_stmt 0               @ ../GUILib/src/widgets/lv_img.c:0:33
	b	.LBB2_48
.Ltmp187:
.LBB2_40:
	@DEBUG_VALUE: lv_img_event:code <- $r6
	@DEBUG_VALUE: lv_img_event:e <- $r5
	@DEBUG_VALUE: lv_img_event:obj <- $r4
	@DEBUG_VALUE: lv_img_event:img <- $r4
	@DEBUG_VALUE: lv_img_event:class_p <- [DW_OP_LLVM_entry_value 1] $r0
	.loc	12 461 13 is_stmt 1             @ ../GUILib/src/widgets/lv_img.c:461:13
	mov	r0, r4
	add	sp, #116
	pop.w	{r4, r5, r6, r7, r8, r9, r10, r11, lr}
.Ltmp188:
	@DEBUG_VALUE: lv_img_event:e <- [DW_OP_LLVM_entry_value 1] $r1
	b	lv_obj_refresh_ext_draw_size
.Ltmp189:
.LBB2_41:
	@DEBUG_VALUE: lv_img_event:code <- $r6
	@DEBUG_VALUE: p <- $r5
	@DEBUG_VALUE: lv_img_event:obj <- $r4
	@DEBUG_VALUE: lv_img_event:img <- $r4
	@DEBUG_VALUE: lv_img_event:e <- [DW_OP_LLVM_entry_value 1] $r1
	@DEBUG_VALUE: lv_img_event:class_p <- [DW_OP_LLVM_entry_value 1] $r0
	.loc	12 522 25                       @ ../GUILib/src/widgets/lv_img.c:522:25
	ldr	r0, [r4, #44]
.Ltmp190:
.LBB2_42:
	@DEBUG_VALUE: lv_img_event:code <- $r6
	@DEBUG_VALUE: p <- $r5
	@DEBUG_VALUE: lv_img_event:obj <- $r4
	@DEBUG_VALUE: lv_img_event:img <- $r4
	@DEBUG_VALUE: lv_img_event:e <- [DW_OP_LLVM_entry_value 1] $r1
	@DEBUG_VALUE: lv_img_event:class_p <- [DW_OP_LLVM_entry_value 1] $r0
	.loc	12 0 0 is_stmt 0                @ ../GUILib/src/widgets/lv_img.c:0:0
	str	r0, [r5]
	b	.LBB2_60
.Ltmp191:
.LBB2_43:
	@DEBUG_VALUE: angle <- $r9
	@DEBUG_VALUE: info <- $r8
	@DEBUG_VALUE: lv_img_event:obj <- $r4
	@DEBUG_VALUE: lv_img_event:img <- $r4
	@DEBUG_VALUE: lv_img_event:e <- [DW_OP_LLVM_entry_value 1] $r1
	@DEBUG_VALUE: lv_img_event:class_p <- [DW_OP_LLVM_entry_value 1] $r0
	.loc	12 497 76 is_stmt 1             @ ../GUILib/src/widgets/lv_img.c:497:76
	ldrh	r1, [r4, #44]
	.loc	12 497 66 is_stmt 0             @ ../GUILib/src/widgets/lv_img.c:497:66
	ldrh	r2, [r4, #50]
	.loc	12 497 78                       @ ../GUILib/src/widgets/lv_img.c:497:78
	add.w	r1, r1, r1, lsr #15
	sxth	r1, r1
	ubfx	r1, r1, #1, #16
	.loc	12 497 82                       @ ../GUILib/src/widgets/lv_img.c:497:82
	cmp	r2, r1
	bne.w	.LBB2_26
.Ltmp192:
@ %bb.44:
	@DEBUG_VALUE: angle <- $r9
	@DEBUG_VALUE: info <- $r8
	@DEBUG_VALUE: lv_img_event:obj <- $r4
	@DEBUG_VALUE: lv_img_event:img <- $r4
	@DEBUG_VALUE: lv_img_event:e <- [DW_OP_LLVM_entry_value 1] $r1
	@DEBUG_VALUE: lv_img_event:class_p <- [DW_OP_LLVM_entry_value 1] $r0
	.loc	12 497 106                      @ ../GUILib/src/widgets/lv_img.c:497:106
	ldrh	r1, [r4, #46]
	.loc	12 497 96                       @ ../GUILib/src/widgets/lv_img.c:497:96
	ldrh	r2, [r4, #52]
	.loc	12 497 108                      @ ../GUILib/src/widgets/lv_img.c:497:108
	add.w	r1, r1, r1, lsr #15
	sxth	r1, r1
	ubfx	r1, r1, #1, #16
.Ltmp193:
	.loc	12 496 12 is_stmt 1             @ ../GUILib/src/widgets/lv_img.c:496:12
	cmp	r2, r1
	bne.w	.LBB2_26
.Ltmp194:
.LBB2_45:
	@DEBUG_VALUE: info <- $r8
	@DEBUG_VALUE: lv_img_event:obj <- $r4
	@DEBUG_VALUE: lv_img_event:img <- $r4
	@DEBUG_VALUE: lv_img_event:e <- [DW_OP_LLVM_entry_value 1] $r1
	@DEBUG_VALUE: lv_img_event:class_p <- [DW_OP_LLVM_entry_value 1] $r0
	.loc	12 0 12 is_stmt 0               @ ../GUILib/src/widgets/lv_img.c:0:12
	add	r6, sp, #56
.Ltmp195:
	.loc	12 512 13 is_stmt 1             @ ../GUILib/src/widgets/lv_img.c:512:13
	mov	r0, r4
	mov	r1, r6
	bl	lv_obj_get_click_area
.Ltmp196:
	.loc	12 513 56                       @ ../GUILib/src/widgets/lv_img.c:513:56
	ldr.w	r1, [r8]
	.loc	12 513 25 is_stmt 0             @ ../GUILib/src/widgets/lv_img.c:513:25
	mov	r0, r6
.Ltmp197:
.LBB2_46:
	@DEBUG_VALUE: info <- $r8
	@DEBUG_VALUE: lv_img_event:obj <- $r4
	@DEBUG_VALUE: lv_img_event:img <- $r4
	@DEBUG_VALUE: lv_img_event:e <- [DW_OP_LLVM_entry_value 1] $r1
	@DEBUG_VALUE: lv_img_event:class_p <- [DW_OP_LLVM_entry_value 1] $r0
	.loc	12 0 0                          @ ../GUILib/src/widgets/lv_img.c:0:0
	movs	r2, #0
	bl	_lv_area_is_point_on
.Ltmp198:
	strb.w	r0, [r8, #4]
	b	.LBB2_60
.Ltmp199:
.LBB2_47:
	@DEBUG_VALUE: img_size_final <- [DW_OP_LLVM_convert 32 7, DW_OP_LLVM_convert 16 7, DW_OP_stack_value, DW_OP_LLVM_fragment 0 16] $r5
	@DEBUG_VALUE: img_size_final <- [DW_OP_constu 16, DW_OP_shr, DW_OP_LLVM_convert 32 7, DW_OP_LLVM_convert 16 7, DW_OP_stack_value, DW_OP_LLVM_fragment 16 16] $r5
	@DEBUG_VALUE: draw_img:obj <- $r4
	@DEBUG_VALUE: draw_img:img <- $r4
	@DEBUG_VALUE: clip_area <- [DW_OP_plus_uconst 48] [$sp+0]
	@DEBUG_VALUE: ptop <- [DW_OP_plus_uconst 32] [$sp+0]
	@DEBUG_VALUE: pleft <- [DW_OP_plus_uconst 40] [$sp+0]
	@DEBUG_VALUE: border_width <- [DW_OP_plus_uconst 28] [$sp+0]
	@DEBUG_VALUE: lv_img_event:e <- [DW_OP_LLVM_entry_value 1] $r1
	@DEBUG_VALUE: lv_img_event:class_p <- [DW_OP_LLVM_entry_value 1] $r0
	@DEBUG_VALUE: lv_area_get_width:area_p <- [DW_OP_plus_uconst 104, DW_OP_stack_value] $sp
	.loc	6 125 33 is_stmt 1              @ ../GUILib/src/hal/../misc/lv_area.h:125:33
	ldrh.w	r0, [sp, #108]
	.loc	6 125 46 is_stmt 0              @ ../GUILib/src/hal/../misc/lv_area.h:125:46
	ldrh.w	r1, [sp, #104]
.Ltmp200:
	.loc	12 652 51 is_stmt 1             @ ../GUILib/src/widgets/lv_img.c:652:51
	add	r0, r8
	.loc	12 652 83 is_stmt 0             @ ../GUILib/src/widgets/lv_img.c:652:83
	subs	r3, r0, r1
.Ltmp201:
	@DEBUG_VALUE: lv_area_get_height:area_p <- [DW_OP_plus_uconst 104, DW_OP_stack_value] $sp
	@DEBUG_VALUE: img_max_area <- [DW_OP_LLVM_fragment 32 16] $r3
	.loc	6 135 33 is_stmt 1              @ ../GUILib/src/hal/../misc/lv_area.h:135:33
	ldrh.w	r0, [sp, #110]
	.loc	6 135 46 is_stmt 0              @ ../GUILib/src/hal/../misc/lv_area.h:135:46
	ldrh.w	r1, [sp, #106]
.Ltmp202:
	.loc	12 653 51 is_stmt 1             @ ../GUILib/src/widgets/lv_img.c:653:51
	add	r0, r11
	.loc	12 653 84 is_stmt 0             @ ../GUILib/src/widgets/lv_img.c:653:84
	subs	r0, r0, r1
.Ltmp203:
	@DEBUG_VALUE: img_max_area <- [DW_OP_LLVM_fragment 48 16] $r0
.LBB2_48:
	@DEBUG_VALUE: img_size_final <- [DW_OP_LLVM_convert 32 7, DW_OP_LLVM_convert 16 7, DW_OP_stack_value, DW_OP_LLVM_fragment 0 16] $r5
	@DEBUG_VALUE: img_size_final <- [DW_OP_constu 16, DW_OP_shr, DW_OP_LLVM_convert 32 7, DW_OP_LLVM_convert 16 7, DW_OP_stack_value, DW_OP_LLVM_fragment 16 16] $r5
	@DEBUG_VALUE: draw_img:obj <- $r4
	@DEBUG_VALUE: draw_img:img <- $r4
	@DEBUG_VALUE: img_max_area <- [DW_OP_LLVM_fragment 32 16] $r3
	@DEBUG_VALUE: img_max_area <- [DW_OP_LLVM_fragment 48 16] $r0
	@DEBUG_VALUE: clip_area <- [DW_OP_plus_uconst 48] [$sp+0]
	@DEBUG_VALUE: ptop <- [DW_OP_plus_uconst 32] [$sp+0]
	@DEBUG_VALUE: pleft <- [DW_OP_plus_uconst 40] [$sp+0]
	@DEBUG_VALUE: border_width <- [DW_OP_plus_uconst 28] [$sp+0]
	@DEBUG_VALUE: lv_img_event:e <- [DW_OP_LLVM_entry_value 1] $r1
	@DEBUG_VALUE: lv_img_event:class_p <- [DW_OP_LLVM_entry_value 1] $r0
	@DEBUG_VALUE: pright <- undef
	@DEBUG_VALUE: pbottom <- undef
	@DEBUG_VALUE: lv_area_copy:dest <- $r6
	@DEBUG_VALUE: img_max_area <- [DW_OP_LLVM_fragment 0 16] undef
	@DEBUG_VALUE: img_max_area <- [DW_OP_LLVM_fragment 16 16] undef
	@DEBUG_VALUE: img_max_area <- [DW_OP_LLVM_fragment 32 16] undef
	@DEBUG_VALUE: img_max_area <- [DW_OP_LLVM_fragment 48 16] undef
	@DEBUG_VALUE: lv_area_copy:src <- $r6
	.loc	12 661 21 is_stmt 1             @ ../GUILib/src/widgets/lv_img.c:661:21
	ldrb.w	r1, [r4, #56]
	.loc	12 661 49 is_stmt 0             @ ../GUILib/src/widgets/lv_img.c:661:49
	sbfx	r2, r1, #0, #2
	cmp.w	r2, #-1
	ble.w	.LBB2_55
.Ltmp204:
@ %bb.49:
	@DEBUG_VALUE: img_size_final <- [DW_OP_LLVM_convert 32 7, DW_OP_LLVM_convert 16 7, DW_OP_stack_value, DW_OP_LLVM_fragment 0 16] $r5
	@DEBUG_VALUE: img_size_final <- [DW_OP_constu 16, DW_OP_shr, DW_OP_LLVM_convert 32 7, DW_OP_LLVM_convert 16 7, DW_OP_stack_value, DW_OP_LLVM_fragment 16 16] $r5
	@DEBUG_VALUE: draw_img:obj <- $r4
	@DEBUG_VALUE: draw_img:img <- $r4
	@DEBUG_VALUE: clip_area <- [DW_OP_plus_uconst 48] [$sp+0]
	@DEBUG_VALUE: ptop <- [DW_OP_plus_uconst 32] [$sp+0]
	@DEBUG_VALUE: pleft <- [DW_OP_plus_uconst 40] [$sp+0]
	@DEBUG_VALUE: border_width <- [DW_OP_plus_uconst 28] [$sp+0]
	@DEBUG_VALUE: lv_img_event:e <- [DW_OP_LLVM_entry_value 1] $r1
	@DEBUG_VALUE: lv_img_event:class_p <- [DW_OP_LLVM_entry_value 1] $r0
	.loc	12 0 49                         @ ../GUILib/src/widgets/lv_img.c:0:49
	strd	r3, r8, [sp, #12]               @ 8-byte Folded Spill
	ldrd	r2, r1, [sp, #24]               @ 8-byte Folded Reload
	add.w	r9, sp, #56
	add	r2, r1
.Ltmp205:
	@DEBUG_VALUE: pright <- $r2
	str	r2, [sp, #24]                   @ 4-byte Spill
.Ltmp206:
	@DEBUG_VALUE: pright <- [DW_OP_plus_uconst 24] [$sp+0]
	@DEBUG_VALUE: pright <- [DW_OP_plus_uconst 24] [$sp+0]
	ldr	r2, [sp, #20]                   @ 4-byte Reload
	ldr.w	r8, [sp, #32]                   @ 4-byte Reload
	adds	r6, r2, r1
.Ltmp207:
	@DEBUG_VALUE: img_max_area <- [DW_OP_LLVM_fragment 0 16] undef
	@DEBUG_VALUE: pbottom <- $r6
	subs	r0, r0, r6
.Ltmp208:
	@DEBUG_VALUE: img_max_area <- [DW_OP_LLVM_fragment 48 16] $r0
	sxth	r0, r0
.Ltmp209:
	add.w	r1, r11, r8
.Ltmp210:
	@DEBUG_VALUE: img_max_area <- [DW_OP_LLVM_fragment 16 16] $r1
	.loc	12 663 17 is_stmt 1             @ ../GUILib/src/widgets/lv_img.c:663:17
	str	r0, [sp, #52]                   @ 4-byte Spill
	mov	r0, r9
.Ltmp211:
	.loc	12 0 0 is_stmt 0                @ ../GUILib/src/widgets/lv_img.c:0:0
	sxth.w	r10, r1
.Ltmp212:
	@DEBUG_VALUE: img_max_area <- [DW_OP_LLVM_fragment 32 16] undef
	.loc	12 663 17                       @ ../GUILib/src/widgets/lv_img.c:663:17
	bl	lv_draw_img_dsc_init
.Ltmp213:
	.loc	12 664 17 is_stmt 1             @ ../GUILib/src/widgets/lv_img.c:664:17
	mov	r0, r4
	movs	r1, #0
	mov	r2, r9
	bl	lv_obj_init_draw_img_dsc
.Ltmp214:
	.loc	12 668 46                       @ ../GUILib/src/widgets/lv_img.c:668:46
	ldr.w	r0, [r4, #50]
	.loc	12 667 31                       @ ../GUILib/src/widgets/lv_img.c:667:31
	ldr	r1, [sp, #36]                   @ 4-byte Reload
	.loc	12 668 33                       @ ../GUILib/src/widgets/lv_img.c:668:33
	str	r0, [sp, #60]
	.loc	12 670 35                       @ ../GUILib/src/widgets/lv_img.c:670:35
	ldrb.w	r0, [sp, #76]
	.loc	12 667 31                       @ ../GUILib/src/widgets/lv_img.c:667:31
	strh.w	r1, [sp, #56]
	.loc	12 670 42                       @ ../GUILib/src/widgets/lv_img.c:670:42
	ldrb.w	r1, [r4, #56]
	.loc	12 670 35 is_stmt 0             @ ../GUILib/src/widgets/lv_img.c:670:35
	and	r0, r0, #254
	orr.w	r0, r0, r1, lsr #7
	.loc	12 673 46 is_stmt 1             @ ../GUILib/src/widgets/lv_img.c:673:46
	ldrh.w	r1, [sp, #104]
	ldr.w	r9, [sp, #40]                   @ 4-byte Reload
	.loc	12 670 35                       @ ../GUILib/src/widgets/lv_img.c:670:35
	strb.w	r0, [sp, #76]
	.loc	12 673 49                       @ ../GUILib/src/widgets/lv_img.c:673:49
	add.w	r0, r1, r9
	.loc	12 674 46                       @ ../GUILib/src/widgets/lv_img.c:674:46
	ldrh.w	r1, [sp, #106]
	.loc	12 666 30                       @ ../GUILib/src/widgets/lv_img.c:666:30
	strh.w	r7, [sp, #58]
	.loc	12 673 34                       @ ../GUILib/src/widgets/lv_img.c:673:34
	strh.w	r0, [sp, #96]
	.loc	12 674 49                       @ ../GUILib/src/widgets/lv_img.c:674:49
	add.w	r0, r1, r8
	ldr	r7, [sp, #24]                   @ 4-byte Reload
.Ltmp215:
	@DEBUG_VALUE: pright <- $r7
	.loc	12 675 46                       @ ../GUILib/src/widgets/lv_img.c:675:46
	ldrh.w	r1, [sp, #108]
	.loc	12 674 34                       @ ../GUILib/src/widgets/lv_img.c:674:34
	strh.w	r0, [sp, #98]
	.loc	12 675 49                       @ ../GUILib/src/widgets/lv_img.c:675:49
	subs	r0, r1, r7
	.loc	12 676 46                       @ ../GUILib/src/widgets/lv_img.c:676:46
	ldrh.w	r1, [sp, #110]
	.loc	12 675 34                       @ ../GUILib/src/widgets/lv_img.c:675:34
	strh.w	r0, [sp, #100]
	.loc	12 676 49                       @ ../GUILib/src/widgets/lv_img.c:676:49
	subs	r0, r1, r6
	.loc	12 676 34 is_stmt 0             @ ../GUILib/src/widgets/lv_img.c:676:34
	strh.w	r0, [sp, #102]
	add	r0, sp, #96
	.loc	12 678 17 is_stmt 1             @ ../GUILib/src/widgets/lv_img.c:678:17
	ldr	r1, [sp, #48]                   @ 4-byte Reload
	mov	r2, r0
	bl	_lv_area_intersect
.Ltmp216:
	.loc	12 681 63                       @ ../GUILib/src/widgets/lv_img.c:681:63
	ldrh	r0, [r4, #42]
	.loc	12 0 0 is_stmt 0                @ ../GUILib/src/widgets/lv_img.c:0:0
	ldrh	r1, [r4, #46]
	.loc	12 681 49                       @ ../GUILib/src/widgets/lv_img.c:681:49
	add.w	r2, r0, r10
	sxth.w	r12, r2
	.loc	12 682 20 is_stmt 1             @ ../GUILib/src/widgets/lv_img.c:682:20
	cmp	r12, r10
	.loc	12 681 31                       @ ../GUILib/src/widgets/lv_img.c:681:31
	strh.w	r2, [sp, #90]
.Ltmp217:
	.loc	12 682 67                       @ ../GUILib/src/widgets/lv_img.c:682:67
	itt	gt
	subgt.w	r12, r12, r1
	strhgt.w	r12, [sp, #90]
.Ltmp218:
	@DEBUG_VALUE: img_max_area <- [DW_OP_LLVM_fragment 0 16] undef
	@DEBUG_VALUE: img_max_area <- [DW_OP_LLVM_fragment 32 16] undef
	.loc	12 0 67 is_stmt 0               @ ../GUILib/src/widgets/lv_img.c:0:67
	ldr.w	lr, [sp, #52]                   @ 4-byte Reload
.Ltmp219:
	.loc	12 683 47 is_stmt 1             @ ../GUILib/src/widgets/lv_img.c:683:47
	add	r1, r12
	.loc	12 683 56 is_stmt 0             @ ../GUILib/src/widgets/lv_img.c:683:56
	sxth.w	r2, r12
	ldr	r0, [sp, #16]                   @ 4-byte Reload
	subs	r1, #1
.Ltmp220:
	.loc	12 685 17 is_stmt 1             @ ../GUILib/src/widgets/lv_img.c:685:17
	cmp	r2, lr
.Ltmp221:
	.loc	12 0 0 is_stmt 0                @ ../GUILib/src/widgets/lv_img.c:0:0
	strh.w	r1, [sp, #94]
.Ltmp222:
	.loc	12 685 17                       @ ../GUILib/src/widgets/lv_img.c:685:17
	bge.w	.LBB2_60
.Ltmp223:
@ %bb.50:
	@DEBUG_VALUE: pright <- $r7
	@DEBUG_VALUE: pbottom <- $r6
	@DEBUG_VALUE: img_size_final <- [DW_OP_LLVM_convert 32 7, DW_OP_LLVM_convert 16 7, DW_OP_stack_value, DW_OP_LLVM_fragment 0 16] $r5
	@DEBUG_VALUE: img_size_final <- [DW_OP_constu 16, DW_OP_shr, DW_OP_LLVM_convert 32 7, DW_OP_LLVM_convert 16 7, DW_OP_stack_value, DW_OP_LLVM_fragment 16 16] $r5
	@DEBUG_VALUE: draw_img:obj <- $r4
	@DEBUG_VALUE: draw_img:img <- $r4
	@DEBUG_VALUE: clip_area <- [DW_OP_plus_uconst 48] [$sp+0]
	@DEBUG_VALUE: ptop <- [DW_OP_plus_uconst 32] [$sp+0]
	@DEBUG_VALUE: pleft <- [DW_OP_plus_uconst 40] [$sp+0]
	@DEBUG_VALUE: border_width <- [DW_OP_plus_uconst 28] [$sp+0]
	@DEBUG_VALUE: lv_img_event:e <- [DW_OP_LLVM_entry_value 1] $r1
	@DEBUG_VALUE: lv_img_event:class_p <- [DW_OP_LLVM_entry_value 1] $r0
	.loc	12 0 17                         @ ../GUILib/src/widgets/lv_img.c:0:17
	add.w	r2, r0, r9
.Ltmp224:
	@DEBUG_VALUE: img_max_area <- [DW_OP_LLVM_fragment 0 16] $r2
	ldr	r0, [sp, #12]                   @ 4-byte Reload
	sxth.w	r9, r2
	subs	r3, r0, r7
.Ltmp225:
	@DEBUG_VALUE: img_max_area <- [DW_OP_LLVM_fragment 32 16] $r3
	sxth	r7, r3
.Ltmp226:
	lsr.w	r10, r5, #16
	add.w	r8, sp, #88
	add.w	r11, sp, #96
	add	r6, sp, #56
.Ltmp227:
.LBB2_51:                               @ =>This Loop Header: Depth=1
                                        @     Child Loop BB2_52 Depth 2
	@DEBUG_VALUE: img_size_final <- [DW_OP_LLVM_convert 32 7, DW_OP_LLVM_convert 16 7, DW_OP_stack_value, DW_OP_LLVM_fragment 0 16] $r5
	@DEBUG_VALUE: img_size_final <- [DW_OP_constu 16, DW_OP_shr, DW_OP_LLVM_convert 32 7, DW_OP_LLVM_convert 16 7, DW_OP_stack_value, DW_OP_LLVM_fragment 16 16] $r5
	@DEBUG_VALUE: draw_img:obj <- $r4
	@DEBUG_VALUE: draw_img:img <- $r4
	@DEBUG_VALUE: clip_area <- [DW_OP_plus_uconst 48] [$sp+0]
	@DEBUG_VALUE: ptop <- [DW_OP_plus_uconst 32] [$sp+0]
	@DEBUG_VALUE: pleft <- [DW_OP_plus_uconst 40] [$sp+0]
	@DEBUG_VALUE: border_width <- [DW_OP_plus_uconst 28] [$sp+0]
	@DEBUG_VALUE: lv_img_event:e <- [DW_OP_LLVM_entry_value 1] $r1
	@DEBUG_VALUE: lv_img_event:class_p <- [DW_OP_LLVM_entry_value 1] $r0
	.loc	12 686 67 is_stmt 1             @ ../GUILib/src/widgets/lv_img.c:686:67
	ldrh	r2, [r4, #40]
	.loc	12 0 0 is_stmt 0                @ ../GUILib/src/widgets/lv_img.c:0:0
	ldrh	r3, [r4, #44]
	.loc	12 686 53                       @ ../GUILib/src/widgets/lv_img.c:686:53
	add.w	r0, r2, r9
	sxth	r2, r0
	.loc	12 687 24 is_stmt 1             @ ../GUILib/src/widgets/lv_img.c:687:24
	cmp	r2, r9
	.loc	12 686 35                       @ ../GUILib/src/widgets/lv_img.c:686:35
	strh.w	r0, [sp, #88]
.Ltmp228:
	.loc	12 687 71                       @ ../GUILib/src/widgets/lv_img.c:687:71
	itt	gt
	subgt	r2, r2, r3
	strhgt.w	r2, [sp, #88]
.Ltmp229:
	.loc	12 688 51                       @ ../GUILib/src/widgets/lv_img.c:688:51
	adds	r0, r3, r2
	.loc	12 688 60 is_stmt 0             @ ../GUILib/src/widgets/lv_img.c:688:60
	sxth	r2, r2
	subs	r0, #1
.Ltmp230:
	.loc	12 690 21 is_stmt 1             @ ../GUILib/src/widgets/lv_img.c:690:21
	cmp	r2, r7
.Ltmp231:
	.loc	12 0 0 is_stmt 0                @ ../GUILib/src/widgets/lv_img.c:0:0
	strh.w	r0, [sp, #92]
.Ltmp232:
	.loc	12 690 21                       @ ../GUILib/src/widgets/lv_img.c:690:21
	bge	.LBB2_54
.Ltmp233:
	.p2align	2
.LBB2_52:                               @   Parent Loop BB2_51 Depth=1
                                        @ =>  This Inner Loop Header: Depth=2
	@DEBUG_VALUE: img_size_final <- [DW_OP_LLVM_convert 32 7, DW_OP_LLVM_convert 16 7, DW_OP_stack_value, DW_OP_LLVM_fragment 0 16] $r5
	@DEBUG_VALUE: img_size_final <- [DW_OP_constu 16, DW_OP_shr, DW_OP_LLVM_convert 32 7, DW_OP_LLVM_convert 16 7, DW_OP_stack_value, DW_OP_LLVM_fragment 16 16] $r5
	@DEBUG_VALUE: draw_img:obj <- $r4
	@DEBUG_VALUE: draw_img:img <- $r4
	@DEBUG_VALUE: clip_area <- [DW_OP_plus_uconst 48] [$sp+0]
	@DEBUG_VALUE: ptop <- [DW_OP_plus_uconst 32] [$sp+0]
	@DEBUG_VALUE: pleft <- [DW_OP_plus_uconst 40] [$sp+0]
	@DEBUG_VALUE: border_width <- [DW_OP_plus_uconst 28] [$sp+0]
	@DEBUG_VALUE: lv_img_event:e <- [DW_OP_LLVM_entry_value 1] $r1
	@DEBUG_VALUE: lv_img_event:class_p <- [DW_OP_LLVM_entry_value 1] $r0
	.loc	12 691 71 is_stmt 1             @ ../GUILib/src/widgets/lv_img.c:691:71
	ldr	r2, [r4, #36]
	.loc	12 691 25 is_stmt 0             @ ../GUILib/src/widgets/lv_img.c:691:25
	mov	r0, r8
	mov	r1, r11
	mov	r3, r6
	bl	lv_draw_img
.Ltmp234:
	.loc	12 690 74 is_stmt 1             @ ../GUILib/src/widgets/lv_img.c:690:74
	ldrh.w	r0, [sp, #88]
	.loc	12 690 109 is_stmt 0            @ ../GUILib/src/widgets/lv_img.c:690:109
	ldrh.w	r1, [sp, #92]
	.loc	12 690 74                       @ ../GUILib/src/widgets/lv_img.c:690:74
	add	r0, r5
	strh.w	r0, [sp, #88]
	sxth	r0, r0
	.loc	12 690 109                      @ ../GUILib/src/widgets/lv_img.c:690:109
	add	r1, r5
.Ltmp235:
	.loc	12 690 21                       @ ../GUILib/src/widgets/lv_img.c:690:21
	cmp	r0, r7
.Ltmp236:
	.loc	12 0 0                          @ ../GUILib/src/widgets/lv_img.c:0:0
	strh.w	r1, [sp, #92]
.Ltmp237:
	.loc	12 690 21                       @ ../GUILib/src/widgets/lv_img.c:690:21
	blt	.LBB2_52
.Ltmp238:
@ %bb.53:                               @   in Loop: Header=BB2_51 Depth=1
	@DEBUG_VALUE: img_size_final <- [DW_OP_LLVM_convert 32 7, DW_OP_LLVM_convert 16 7, DW_OP_stack_value, DW_OP_LLVM_fragment 0 16] $r5
	@DEBUG_VALUE: img_size_final <- [DW_OP_constu 16, DW_OP_shr, DW_OP_LLVM_convert 32 7, DW_OP_LLVM_convert 16 7, DW_OP_stack_value, DW_OP_LLVM_fragment 16 16] $r5
	@DEBUG_VALUE: draw_img:obj <- $r4
	@DEBUG_VALUE: draw_img:img <- $r4
	@DEBUG_VALUE: clip_area <- [DW_OP_plus_uconst 48] [$sp+0]
	@DEBUG_VALUE: ptop <- [DW_OP_plus_uconst 32] [$sp+0]
	@DEBUG_VALUE: pleft <- [DW_OP_plus_uconst 40] [$sp+0]
	@DEBUG_VALUE: border_width <- [DW_OP_plus_uconst 28] [$sp+0]
	@DEBUG_VALUE: lv_img_event:e <- [DW_OP_LLVM_entry_value 1] $r1
	@DEBUG_VALUE: lv_img_event:class_p <- [DW_OP_LLVM_entry_value 1] $r0
	.loc	12 685 70 is_stmt 1             @ ../GUILib/src/widgets/lv_img.c:685:70
	ldrh.w	r12, [sp, #90]
	.loc	12 685 105 is_stmt 0            @ ../GUILib/src/widgets/lv_img.c:685:105
	ldrh.w	r1, [sp, #94]
	ldr.w	lr, [sp, #52]                   @ 4-byte Reload
.Ltmp239:
.LBB2_54:                               @   in Loop: Header=BB2_51 Depth=1
	@DEBUG_VALUE: img_size_final <- [DW_OP_LLVM_convert 32 7, DW_OP_LLVM_convert 16 7, DW_OP_stack_value, DW_OP_LLVM_fragment 0 16] $r5
	@DEBUG_VALUE: img_size_final <- [DW_OP_constu 16, DW_OP_shr, DW_OP_LLVM_convert 32 7, DW_OP_LLVM_convert 16 7, DW_OP_stack_value, DW_OP_LLVM_fragment 16 16] $r5
	@DEBUG_VALUE: draw_img:obj <- $r4
	@DEBUG_VALUE: draw_img:img <- $r4
	@DEBUG_VALUE: clip_area <- [DW_OP_plus_uconst 48] [$sp+0]
	@DEBUG_VALUE: ptop <- [DW_OP_plus_uconst 32] [$sp+0]
	@DEBUG_VALUE: pleft <- [DW_OP_plus_uconst 40] [$sp+0]
	@DEBUG_VALUE: border_width <- [DW_OP_plus_uconst 28] [$sp+0]
	@DEBUG_VALUE: lv_img_event:e <- [DW_OP_LLVM_entry_value 1] $r1
	@DEBUG_VALUE: lv_img_event:class_p <- [DW_OP_LLVM_entry_value 1] $r0
	.loc	12 685 70                       @ ../GUILib/src/widgets/lv_img.c:685:70
	add.w	r0, r12, r10
	sxth.w	r12, r0
	.loc	12 685 105                      @ ../GUILib/src/widgets/lv_img.c:685:105
	add	r1, r10
.Ltmp240:
	.loc	12 685 17                       @ ../GUILib/src/widgets/lv_img.c:685:17
	cmp	r12, lr
.Ltmp241:
	.loc	12 685 70                       @ ../GUILib/src/widgets/lv_img.c:685:70
	strh.w	r0, [sp, #90]
.Ltmp242:
	.loc	12 0 0                          @ ../GUILib/src/widgets/lv_img.c:0:0
	strh.w	r1, [sp, #94]
.Ltmp243:
	.loc	12 685 17                       @ ../GUILib/src/widgets/lv_img.c:685:17
	blt	.LBB2_51
	b	.LBB2_60
.Ltmp244:
.LBB2_55:
	@DEBUG_VALUE: img_size_final <- [DW_OP_LLVM_convert 32 7, DW_OP_LLVM_convert 16 7, DW_OP_stack_value, DW_OP_LLVM_fragment 0 16] $r5
	@DEBUG_VALUE: img_size_final <- [DW_OP_constu 16, DW_OP_shr, DW_OP_LLVM_convert 32 7, DW_OP_LLVM_convert 16 7, DW_OP_stack_value, DW_OP_LLVM_fragment 16 16] $r5
	@DEBUG_VALUE: draw_img:obj <- $r4
	@DEBUG_VALUE: draw_img:img <- $r4
	@DEBUG_VALUE: clip_area <- [DW_OP_plus_uconst 48] [$sp+0]
	@DEBUG_VALUE: ptop <- [DW_OP_plus_uconst 32] [$sp+0]
	@DEBUG_VALUE: pleft <- [DW_OP_plus_uconst 40] [$sp+0]
	@DEBUG_VALUE: border_width <- [DW_OP_plus_uconst 28] [$sp+0]
	@DEBUG_VALUE: lv_img_event:e <- [DW_OP_LLVM_entry_value 1] $r1
	@DEBUG_VALUE: lv_img_event:class_p <- [DW_OP_LLVM_entry_value 1] $r0
	@DEBUG_VALUE: lv_area_copy:dest <- $r6
	@DEBUG_VALUE: lv_area_copy:src <- $r6
	.loc	12 661 49 is_stmt 1             @ ../GUILib/src/widgets/lv_img.c:661:49
	and	r0, r1, #3
	cmp	r0, #2
	bne	.LBB2_61
.Ltmp245:
@ %bb.56:
	@DEBUG_VALUE: img_size_final <- [DW_OP_LLVM_convert 32 7, DW_OP_LLVM_convert 16 7, DW_OP_stack_value, DW_OP_LLVM_fragment 0 16] $r5
	@DEBUG_VALUE: img_size_final <- [DW_OP_constu 16, DW_OP_shr, DW_OP_LLVM_convert 32 7, DW_OP_LLVM_convert 16 7, DW_OP_stack_value, DW_OP_LLVM_fragment 16 16] $r5
	@DEBUG_VALUE: draw_img:obj <- $r4
	@DEBUG_VALUE: draw_img:img <- $r4
	@DEBUG_VALUE: clip_area <- [DW_OP_plus_uconst 48] [$sp+0]
	@DEBUG_VALUE: ptop <- [DW_OP_plus_uconst 32] [$sp+0]
	@DEBUG_VALUE: pleft <- [DW_OP_plus_uconst 40] [$sp+0]
	@DEBUG_VALUE: border_width <- [DW_OP_plus_uconst 28] [$sp+0]
	@DEBUG_VALUE: lv_img_event:e <- [DW_OP_LLVM_entry_value 1] $r1
	@DEBUG_VALUE: lv_img_event:class_p <- [DW_OP_LLVM_entry_value 1] $r0
	.loc	12 0 49 is_stmt 0               @ ../GUILib/src/widgets/lv_img.c:0:49
	add	r5, sp, #56
.Ltmp246:
	.loc	12 697 17 is_stmt 1             @ ../GUILib/src/widgets/lv_img.c:697:17
	mov	r0, r5
	bl	lv_draw_label_dsc_init
.Ltmp247:
	.loc	12 698 17                       @ ../GUILib/src/widgets/lv_img.c:698:17
	mov	r0, r4
	movs	r1, #0
	mov	r2, r5
	movs	r7, #0
	bl	lv_obj_init_draw_label_dsc
.Ltmp248:
	.loc	12 700 73                       @ ../GUILib/src/widgets/lv_img.c:700:73
	ldr	r3, [r4, #36]
	.loc	12 700 17 is_stmt 0             @ ../GUILib/src/widgets/lv_img.c:700:17
	ldr	r1, [sp, #48]                   @ 4-byte Reload
	mov	r0, r6
	mov	r2, r5
	str	r7, [sp]
	bl	lv_draw_label
.Ltmp249:
	.loc	12 0 17                         @ ../GUILib/src/widgets/lv_img.c:0:17
	b	.LBB2_60
.Ltmp250:
.LBB2_57:
	@DEBUG_VALUE: draw_img:code <- $r8
	@DEBUG_VALUE: info <- $r6
	@DEBUG_VALUE: clip_area <- $r5
	@DEBUG_VALUE: draw_img:obj <- $r4
	@DEBUG_VALUE: draw_img:img <- $r4
	@DEBUG_VALUE: lv_img_event:e <- [DW_OP_LLVM_entry_value 1] $r1
	@DEBUG_VALUE: lv_img_event:class_p <- [DW_OP_LLVM_entry_value 1] $r0
	.loc	12 576 50 is_stmt 1             @ ../GUILib/src/widgets/lv_img.c:576:50
	mov	r0, r4
.Ltmp251:
	.loc	12 0 0 is_stmt 0                @ ../GUILib/src/widgets/lv_img.c:0:0
	asr.w	r8, r7, #8
.Ltmp252:
	@DEBUG_VALUE: zoom_final <- $r8
	.loc	12 576 50                       @ ../GUILib/src/widgets/lv_img.c:576:50
	bl	lv_obj_get_width
.Ltmp253:
	mov	r9, r0
	.loc	12 576 73                       @ ../GUILib/src/widgets/lv_img.c:576:73
	mov	r0, r4
	bl	lv_obj_get_height
.Ltmp254:
	mov	r2, r0
	.loc	12 576 13                       @ ../GUILib/src/widgets/lv_img.c:576:13
	uxth.w	r0, r8
	add.w	r8, sp, #56
.Ltmp255:
	.loc	12 576 118                      @ ../GUILib/src/widgets/lv_img.c:576:118
	add.w	r7, r4, #50
	.loc	12 576 13                       @ ../GUILib/src/widgets/lv_img.c:576:13
	str	r0, [sp]
	mov	r0, r8
	mov	r1, r9
	movs	r3, #0
	str	r7, [sp, #4]
	bl	_lv_img_buf_get_transformed_area
.Ltmp256:
	.loc	12 577 33 is_stmt 1             @ ../GUILib/src/widgets/lv_img.c:577:33
	ldrh	r0, [r4, #20]
	.loc	12 577 18 is_stmt 0             @ ../GUILib/src/widgets/lv_img.c:577:18
	ldrh.w	r1, [sp, #56]
	.loc	12 578 33 is_stmt 1             @ ../GUILib/src/widgets/lv_img.c:578:33
	ldrh	r2, [r4, #22]
	.loc	12 578 18 is_stmt 0             @ ../GUILib/src/widgets/lv_img.c:578:18
	ldrh.w	r3, [sp, #58]
	.loc	12 577 18 is_stmt 1             @ ../GUILib/src/widgets/lv_img.c:577:18
	add	r1, r0
	strh.w	r1, [sp, #56]
	.loc	12 578 18                       @ ../GUILib/src/widgets/lv_img.c:578:18
	adds	r1, r3, r2
	.loc	12 579 18                       @ ../GUILib/src/widgets/lv_img.c:579:18
	ldrh.w	r3, [sp, #60]
	.loc	12 578 18                       @ ../GUILib/src/widgets/lv_img.c:578:18
	strh.w	r1, [sp, #58]
	.loc	12 580 18                       @ ../GUILib/src/widgets/lv_img.c:580:18
	ldrh.w	r1, [sp, #62]
	.loc	12 579 18                       @ ../GUILib/src/widgets/lv_img.c:579:18
	add	r0, r3
	strh.w	r0, [sp, #60]
	.loc	12 580 18                       @ ../GUILib/src/widgets/lv_img.c:580:18
	adds	r0, r1, r2
	strh.w	r0, [sp, #62]
.Ltmp257:
	.loc	12 582 16                       @ ../GUILib/src/widgets/lv_img.c:582:16
	mov	r0, r5
	mov	r1, r8
.Ltmp258:
.LBB2_58:
	@DEBUG_VALUE: info <- $r6
	@DEBUG_VALUE: clip_area <- $r5
	@DEBUG_VALUE: draw_img:obj <- $r4
	@DEBUG_VALUE: draw_img:img <- $r4
	@DEBUG_VALUE: lv_img_event:e <- [DW_OP_LLVM_entry_value 1] $r1
	@DEBUG_VALUE: lv_img_event:class_p <- [DW_OP_LLVM_entry_value 1] $r0
	.loc	12 0 0 is_stmt 0                @ ../GUILib/src/widgets/lv_img.c:0:0
	movs	r2, #0
	bl	_lv_area_is_in
.Ltmp259:
	cbnz	r0, .LBB2_60
.Ltmp260:
.LBB2_59:
	@DEBUG_VALUE: info <- $r6
	@DEBUG_VALUE: draw_img:obj <- $r4
	@DEBUG_VALUE: draw_img:img <- $r4
	@DEBUG_VALUE: lv_img_event:class_p <- [DW_OP_LLVM_entry_value 1] $r0
	movs	r0, #1
	strb	r0, [r6]
.Ltmp261:
.LBB2_60:
	@DEBUG_VALUE: lv_img_event:class_p <- [DW_OP_LLVM_entry_value 1] $r0
	.loc	12 529 1 is_stmt 1              @ ../GUILib/src/widgets/lv_img.c:529:1
	add	sp, #116
	pop.w	{r4, r5, r6, r7, r8, r9, r10, r11, pc}
.Ltmp262:
.LBB2_61:
	@DEBUG_VALUE: img_size_final <- [DW_OP_LLVM_convert 32 7, DW_OP_LLVM_convert 16 7, DW_OP_stack_value, DW_OP_LLVM_fragment 0 16] $r5
	@DEBUG_VALUE: img_size_final <- [DW_OP_constu 16, DW_OP_shr, DW_OP_LLVM_convert 32 7, DW_OP_LLVM_convert 16 7, DW_OP_stack_value, DW_OP_LLVM_fragment 16 16] $r5
	@DEBUG_VALUE: draw_img:obj <- $r4
	@DEBUG_VALUE: draw_img:img <- $r4
	@DEBUG_VALUE: clip_area <- [DW_OP_plus_uconst 48] [$sp+0]
	@DEBUG_VALUE: ptop <- [DW_OP_plus_uconst 32] [$sp+0]
	@DEBUG_VALUE: pleft <- [DW_OP_plus_uconst 40] [$sp+0]
	@DEBUG_VALUE: border_width <- [DW_OP_plus_uconst 28] [$sp+0]
	@DEBUG_VALUE: lv_img_event:e <- [DW_OP_LLVM_entry_value 1] $r1
	@DEBUG_VALUE: lv_img_event:class_p <- [DW_OP_LLVM_entry_value 1] $r0
	.loc	12 705 17                       @ ../GUILib/src/widgets/lv_img.c:705:17
	ldr	r1, [sp, #48]                   @ 4-byte Reload
	mov	r0, r6
	movs	r2, #0
	movs	r3, #0
	bl	lv_draw_img
.Ltmp263:
	.loc	12 0 17 is_stmt 0               @ ../GUILib/src/widgets/lv_img.c:0:17
	b	.LBB2_60
.Ltmp264:
.Lfunc_end2:
	.size	lv_img_event, .Lfunc_end2-lv_img_event
	.cfi_endproc
	.file	21 "C:\\Users\\Hyacincher\\Desktop\\HyTelectrl\\Code\\Project" "../GUILib/src/hal/../draw/lv_draw_img.h"
	.file	22 "C:\\Users\\Hyacincher\\Desktop\\HyTelectrl\\Code\\Project" "../GUILib/src/hal/../draw/lv_draw_label.h"
	.file	23 "C:\\Users\\Hyacincher\\Desktop\\HyTelectrl\\Code\\Project" "../GUILib/src/hal/../draw/../misc/lv_bidi.h"
	.cantunwind
	.fnend
                                        @ -- End function
	.section	.text.lv_img_create,"ax",%progbits
	.hidden	lv_img_create                   @ -- Begin function lv_img_create
	.globl	lv_img_create
	.p2align	1
	.type	lv_img_create,%function
	.code	16                              @ @lv_img_create
	.thumb_func
lv_img_create:
.Lfunc_begin3:
	.loc	12 58 0 is_stmt 1               @ ../GUILib/src/widgets/lv_img.c:58:0
	.fnstart
	.cfi_startproc
@ %bb.0:
	@DEBUG_VALUE: lv_img_create:parent <- $r0
	.save	{r4, lr}
	push	{r4, lr}
	.cfi_def_cfa_offset 8
	.cfi_offset lr, -4
	.cfi_offset r4, -8
	mov	r1, r0
.Ltmp265:
	@DEBUG_VALUE: lv_img_create:parent <- $r1
	.loc	12 60 22 prologue_end           @ ../GUILib/src/widgets/lv_img.c:60:22
	movw	r0, :lower16:lv_img_class
	movt	r0, :upper16:lv_img_class
	@DEBUG_VALUE: lv_img_create:parent <- $r1
	bl	lv_obj_class_create_obj
.Ltmp266:
	mov	r4, r0
.Ltmp267:
	@DEBUG_VALUE: lv_img_create:obj <- $r4
	.loc	12 61 5                         @ ../GUILib/src/widgets/lv_img.c:61:5
	bl	lv_obj_class_init_obj
.Ltmp268:
	.loc	12 62 5                         @ ../GUILib/src/widgets/lv_img.c:62:5
	mov	r0, r4
	pop	{r4, pc}
.Ltmp269:
.Lfunc_end3:
	.size	lv_img_create, .Lfunc_end3-lv_img_create
	.cfi_endproc
	.cantunwind
	.fnend
                                        @ -- End function
	.section	.text.lv_img_set_src,"ax",%progbits
	.hidden	lv_img_set_src                  @ -- Begin function lv_img_set_src
	.globl	lv_img_set_src
	.p2align	1
	.type	lv_img_set_src,%function
	.code	16                              @ @lv_img_set_src
	.thumb_func
lv_img_set_src:
.Lfunc_begin4:
	.loc	12 70 0                         @ ../GUILib/src/widgets/lv_img.c:70:0
	.fnstart
	.cfi_startproc
@ %bb.0:
	@DEBUG_VALUE: lv_img_set_src:obj <- $r0
	@DEBUG_VALUE: lv_img_set_src:src <- $r1
	.save	{r4, r5, r6, r7, r8, r9, lr}
	push.w	{r4, r5, r6, r7, r8, r9, lr}
	.cfi_def_cfa_offset 28
	.cfi_offset lr, -4
	.cfi_offset r9, -8
	.cfi_offset r8, -12
	.cfi_offset r7, -16
	.cfi_offset r6, -20
	.cfi_offset r5, -24
	.cfi_offset r4, -28
	.pad	#20
	sub	sp, #20
	.cfi_def_cfa_offset 48
	mov	r6, r1
.Ltmp270:
	@DEBUG_VALUE: lv_img_set_src:src <- $r6
	mov	r4, r0
	@DEBUG_VALUE: lv_img_set_src:src <- $r6
.Ltmp271:
	@DEBUG_VALUE: lv_img_set_src:obj <- $r4
	.loc	12 73 5 prologue_end            @ ../GUILib/src/widgets/lv_img.c:73:5
	bl	lv_obj_invalidate
.Ltmp272:
	.loc	12 75 29                        @ ../GUILib/src/widgets/lv_img.c:75:29
	mov	r0, r6
	bl	lv_img_src_get_type
.Ltmp273:
	@DEBUG_VALUE: lv_img_set_src:img <- $r4
	@DEBUG_VALUE: lv_img_set_src:src_type <- $r0
	.loc	12 95 8                         @ ../GUILib/src/widgets/lv_img.c:95:8
	cmp	r0, #3
	bne	.LBB4_4
.Ltmp274:
@ %bb.1:
	@DEBUG_VALUE: lv_img_set_src:src <- $r6
	@DEBUG_VALUE: lv_img_set_src:img <- $r4
	@DEBUG_VALUE: lv_img_set_src:obj <- $r4
	@DEBUG_VALUE: lv_img_set_src:src_type <- $r0
	.loc	12 97 17                        @ ../GUILib/src/widgets/lv_img.c:97:17
	ldrb.w	r0, [r4, #56]
.Ltmp275:
	and	r1, r0, #3
	.loc	12 97 47 is_stmt 0              @ ../GUILib/src/widgets/lv_img.c:97:47
	subs	r1, #1
	cmp	r1, #1
	bhi	.LBB4_3
.Ltmp276:
@ %bb.2:
	@DEBUG_VALUE: lv_img_set_src:src <- $r6
	@DEBUG_VALUE: lv_img_set_src:img <- $r4
	@DEBUG_VALUE: lv_img_set_src:obj <- $r4
	.loc	12 98 38 is_stmt 1              @ ../GUILib/src/widgets/lv_img.c:98:38
	ldr	r0, [r4, #36]
	.loc	12 98 13 is_stmt 0              @ ../GUILib/src/widgets/lv_img.c:98:13
	bl	lv_mem_free
.Ltmp277:
	.loc	12 101 23 is_stmt 1             @ ../GUILib/src/widgets/lv_img.c:101:23
	ldrb.w	r0, [r4, #56]
.Ltmp278:
.LBB4_3:
	@DEBUG_VALUE: lv_img_set_src:src <- $r6
	@DEBUG_VALUE: lv_img_set_src:img <- $r4
	@DEBUG_VALUE: lv_img_set_src:obj <- $r4
	.loc	12 0 23 is_stmt 0               @ ../GUILib/src/widgets/lv_img.c:0:23
	movs	r1, #0
	.loc	12 101 23                       @ ../GUILib/src/widgets/lv_img.c:101:23
	orr	r0, r0, #3
	.loc	12 100 23 is_stmt 1             @ ../GUILib/src/widgets/lv_img.c:100:23
	str	r1, [r4, #36]
	.loc	12 101 23                       @ ../GUILib/src/widgets/lv_img.c:101:23
	strb.w	r0, [r4, #56]
	b	.LBB4_20
.Ltmp279:
.LBB4_4:
	@DEBUG_VALUE: lv_img_set_src:src <- $r6
	@DEBUG_VALUE: lv_img_set_src:img <- $r4
	@DEBUG_VALUE: lv_img_set_src:obj <- $r4
	@DEBUG_VALUE: lv_img_set_src:src_type <- $r0
	.loc	12 0 0 is_stmt 0                @ ../GUILib/src/widgets/lv_img.c:0:0
	mov	r5, r0
.Ltmp280:
	@DEBUG_VALUE: lv_img_set_src:src_type <- $r5
	@DEBUG_VALUE: lv_img_set_src:src_type <- $r5
	add	r1, sp, #16
	.loc	12 106 5 is_stmt 1              @ ../GUILib/src/widgets/lv_img.c:106:5
	mov	r0, r6
	bl	lv_img_decoder_get_info
.Ltmp281:
	.loc	12 109 8                        @ ../GUILib/src/widgets/lv_img.c:109:8
	subs	r0, r5, #1
	cmp	r0, #2
	bhs	.LBB4_12
.Ltmp282:
@ %bb.5:
	@DEBUG_VALUE: lv_img_set_src:src <- $r6
	@DEBUG_VALUE: lv_img_set_src:src_type <- $r5
	@DEBUG_VALUE: lv_img_set_src:img <- $r4
	@DEBUG_VALUE: lv_img_set_src:obj <- $r4
	.loc	12 118 17                       @ ../GUILib/src/widgets/lv_img.c:118:17
	ldr	r7, [r4, #36]
.Ltmp283:
	.loc	12 118 12 is_stmt 0             @ ../GUILib/src/widgets/lv_img.c:118:12
	cmp	r7, r6
	beq	.LBB4_9
.Ltmp284:
@ %bb.6:
	@DEBUG_VALUE: lv_img_set_src:src <- $r6
	@DEBUG_VALUE: lv_img_set_src:src_type <- $r5
	@DEBUG_VALUE: lv_img_set_src:img <- $r4
	@DEBUG_VALUE: lv_img_set_src:obj <- $r4
	@DEBUG_VALUE: old_src <- 0
	.loc	12 123 21 is_stmt 1             @ ../GUILib/src/widgets/lv_img.c:123:21
	ldrb.w	r0, [r4, #56]
	and	r0, r0, #3
	.loc	12 123 49 is_stmt 0             @ ../GUILib/src/widgets/lv_img.c:123:49
	subs	r0, #1
	cmp	r0, #2
.Ltmp285:
	.loc	12 126 43 is_stmt 1             @ ../GUILib/src/widgets/lv_img.c:126:43
	mov	r0, r6
.Ltmp286:
	.loc	12 123 49                       @ ../GUILib/src/widgets/lv_img.c:123:49
	it	hs
	movhs	r7, #0
.Ltmp287:
	@DEBUG_VALUE: old_src <- $r7
	.loc	12 126 43                       @ ../GUILib/src/widgets/lv_img.c:126:43
	bl	strlen
.Ltmp288:
	.loc	12 126 55 is_stmt 0             @ ../GUILib/src/widgets/lv_img.c:126:55
	adds	r0, #1
	.loc	12 126 30                       @ ../GUILib/src/widgets/lv_img.c:126:30
	bl	lv_mem_alloc
.Ltmp289:
	@DEBUG_VALUE: new_str <- $r0
	.loc	12 127 13 is_stmt 1             @ ../GUILib/src/widgets/lv_img.c:127:13
	cmp	r0, #0
	beq	.LBB4_11
.Ltmp290:
@ %bb.7:
	@DEBUG_VALUE: old_src <- $r7
	@DEBUG_VALUE: lv_img_set_src:src <- $r6
	@DEBUG_VALUE: lv_img_set_src:src_type <- $r5
	@DEBUG_VALUE: lv_img_set_src:img <- $r4
	@DEBUG_VALUE: lv_img_set_src:obj <- $r4
	@DEBUG_VALUE: new_str <- $r0
	.loc	12 129 13                       @ ../GUILib/src/widgets/lv_img.c:129:13
	mov	r1, r6
	bl	strcpy
.Ltmp291:
	.loc	12 130 22                       @ ../GUILib/src/widgets/lv_img.c:130:22
	str	r0, [r4, #36]
	.loc	12 132 16                       @ ../GUILib/src/widgets/lv_img.c:132:16
	cbz	r7, .LBB4_9
.Ltmp292:
@ %bb.8:
	@DEBUG_VALUE: old_src <- $r7
	@DEBUG_VALUE: lv_img_set_src:src <- $r6
	@DEBUG_VALUE: lv_img_set_src:src_type <- $r5
	@DEBUG_VALUE: lv_img_set_src:img <- $r4
	@DEBUG_VALUE: lv_img_set_src:obj <- $r4
	@DEBUG_VALUE: new_str <- $r0
	.loc	12 132 25 is_stmt 0             @ ../GUILib/src/widgets/lv_img.c:132:25
	mov	r0, r7
.Ltmp293:
	bl	lv_mem_free
.Ltmp294:
.LBB4_9:
	@DEBUG_VALUE: lv_img_set_src:src <- $r6
	@DEBUG_VALUE: lv_img_set_src:src_type <- $r5
	@DEBUG_VALUE: lv_img_set_src:img <- $r4
	@DEBUG_VALUE: lv_img_set_src:obj <- $r4
	.loc	12 136 8 is_stmt 1              @ ../GUILib/src/widgets/lv_img.c:136:8
	cmp	r5, #2
	bne	.LBB4_16
.Ltmp295:
@ %bb.10:
	@DEBUG_VALUE: lv_img_set_src:src <- $r6
	@DEBUG_VALUE: lv_img_set_src:src_type <- $r5
	@DEBUG_VALUE: lv_img_set_src:img <- $r4
	@DEBUG_VALUE: lv_img_set_src:obj <- $r4
	@DEBUG_VALUE: lv_obj_get_style_text_font:obj <- $r4
	@DEBUG_VALUE: lv_obj_get_style_text_font:part <- 0
	.loc	20 333 26                       @ ../GUILib/src/widgets/../core/lv_obj_style_gen.h:333:26
	mov	r0, r4
	movs	r1, #0
	movw	r2, #5209
	mov.w	r9, #0
	bl	lv_obj_get_style_prop
.Ltmp296:
	mov	r8, r0
.Ltmp297:
	@DEBUG_VALUE: lv_obj_get_style_text_letter_space:part <- 0
	@DEBUG_VALUE: lv_obj_get_style_text_letter_space:obj <- $r4
	@DEBUG_VALUE: font <- $r8
	@DEBUG_VALUE: lv_obj_get_style_text_font:v <- $r8
	.loc	20 339 26                       @ ../GUILib/src/widgets/../core/lv_obj_style_gen.h:339:26
	mov	r0, r4
	movs	r1, #0
	movw	r2, #5210
	bl	lv_obj_get_style_prop
.Ltmp298:
	mov	r7, r0
.Ltmp299:
	@DEBUG_VALUE: lv_obj_get_style_text_line_space:part <- 0
	@DEBUG_VALUE: lv_obj_get_style_text_line_space:obj <- $r4
	@DEBUG_VALUE: letter_space <- undef
	@DEBUG_VALUE: lv_obj_get_style_text_letter_space:v <- $r7
	.loc	20 345 26                       @ ../GUILib/src/widgets/../core/lv_obj_style_gen.h:345:26
	mov	r0, r4
	movs	r1, #0
	movw	r2, #5211
	bl	lv_obj_get_style_prop
.Ltmp300:
	@DEBUG_VALUE: line_space <- undef
	@DEBUG_VALUE: lv_obj_get_style_text_line_space:v <- $r0
	.loc	20 0 26 is_stmt 0               @ ../GUILib/src/widgets/../core/lv_obj_style_gen.h:0:26
	movw	r1, #8191
.Ltmp301:
	.loc	12 142 9 is_stmt 1              @ ../GUILib/src/widgets/lv_img.c:142:9
	sxth	r0, r0
.Ltmp302:
	strd	r0, r1, [sp]
	sxth	r3, r7
	add	r0, sp, #12
	mov	r1, r6
	mov	r2, r8
	str.w	r9, [sp, #8]
	bl	lv_txt_get_size
.Ltmp303:
	.loc	12 143 18                       @ ../GUILib/src/widgets/lv_img.c:143:18
	ldrh.w	r0, [sp, #17]
	.loc	12 143 25 is_stmt 0             @ ../GUILib/src/widgets/lv_img.c:143:25
	ldrh.w	r1, [sp, #12]
	movw	r3, #8188
	.loc	12 143 18                       @ ../GUILib/src/widgets/lv_img.c:143:18
	and	r0, r0, #3
	.loc	12 144 25 is_stmt 1             @ ../GUILib/src/widgets/lv_img.c:144:25
	ldrh.w	r2, [sp, #14]
	.loc	12 144 18 is_stmt 0             @ ../GUILib/src/widgets/lv_img.c:144:18
	and.w	r1, r3, r1, lsl #2
	add	r0, r1
	orr.w	r0, r0, r2, lsl #13
	lsrs	r1, r2, #3
	strb.w	r1, [sp, #19]
	strh.w	r0, [sp, #17]
	b	.LBB4_16
.Ltmp304:
	.p2align	2
.LBB4_11:                               @ =>This Inner Loop Header: Depth=1
	@DEBUG_VALUE: old_src <- $r7
	@DEBUG_VALUE: lv_img_set_src:src <- $r6
	@DEBUG_VALUE: lv_img_set_src:src_type <- $r5
	@DEBUG_VALUE: lv_img_set_src:img <- $r4
	@DEBUG_VALUE: lv_img_set_src:obj <- $r4
	@DEBUG_VALUE: new_str <- $r0
	.loc	12 127 13 is_stmt 1             @ ../GUILib/src/widgets/lv_img.c:127:13
	b	.LBB4_11
.Ltmp305:
.LBB4_12:
	@DEBUG_VALUE: lv_img_set_src:src <- $r6
	@DEBUG_VALUE: lv_img_set_src:src_type <- $r5
	@DEBUG_VALUE: lv_img_set_src:img <- $r4
	@DEBUG_VALUE: lv_img_set_src:obj <- $r4
	.loc	12 109 8                        @ ../GUILib/src/widgets/lv_img.c:109:8
	cbnz	r5, .LBB4_16
.Ltmp306:
@ %bb.13:
	@DEBUG_VALUE: lv_img_set_src:src <- $r6
	@DEBUG_VALUE: lv_img_set_src:src_type <- $r5
	@DEBUG_VALUE: lv_img_set_src:img <- $r4
	@DEBUG_VALUE: lv_img_set_src:obj <- $r4
	.loc	12 111 17                       @ ../GUILib/src/widgets/lv_img.c:111:17
	ldrb.w	r0, [r4, #56]
	and	r0, r0, #3
	.loc	12 111 45 is_stmt 0             @ ../GUILib/src/widgets/lv_img.c:111:45
	subs	r0, #1
	cmp	r0, #1
	bhi	.LBB4_15
.Ltmp307:
@ %bb.14:
	@DEBUG_VALUE: lv_img_set_src:src <- $r6
	@DEBUG_VALUE: lv_img_set_src:src_type <- $r5
	@DEBUG_VALUE: lv_img_set_src:img <- $r4
	@DEBUG_VALUE: lv_img_set_src:obj <- $r4
	.loc	12 112 38 is_stmt 1             @ ../GUILib/src/widgets/lv_img.c:112:38
	ldr	r0, [r4, #36]
	.loc	12 112 13 is_stmt 0             @ ../GUILib/src/widgets/lv_img.c:112:13
	bl	lv_mem_free
.Ltmp308:
.LBB4_15:
	@DEBUG_VALUE: lv_img_set_src:src <- $r6
	@DEBUG_VALUE: lv_img_set_src:src_type <- $r5
	@DEBUG_VALUE: lv_img_set_src:img <- $r4
	@DEBUG_VALUE: lv_img_set_src:obj <- $r4
	.loc	12 114 18 is_stmt 1             @ ../GUILib/src/widgets/lv_img.c:114:18
	str	r6, [r4, #36]
.Ltmp309:
.LBB4_16:
	@DEBUG_VALUE: lv_img_set_src:src <- $r6
	@DEBUG_VALUE: lv_img_set_src:src_type <- $r5
	@DEBUG_VALUE: lv_img_set_src:img <- $r4
	@DEBUG_VALUE: lv_img_set_src:obj <- $r4
	.loc	12 147 19                       @ ../GUILib/src/widgets/lv_img.c:147:19
	ldrb.w	r0, [r4, #56]
	and	r1, r5, #3
	and	r0, r0, #128
	add	r0, r1
	.loc	12 148 28                       @ ../GUILib/src/widgets/lv_img.c:148:28
	ldrb.w	r1, [sp, #19]
	ldrh.w	r2, [sp, #17]
	.loc	12 150 28                       @ ../GUILib/src/widgets/lv_img.c:150:28
	ldrb.w	r3, [sp, #16]
	.loc	12 148 28                       @ ../GUILib/src/widgets/lv_img.c:148:28
	orr.w	r1, r2, r1, lsl #16
	.loc	12 148 21 is_stmt 0             @ ../GUILib/src/widgets/lv_img.c:148:21
	uxth	r2, r1
	.loc	12 150 19 is_stmt 1             @ ../GUILib/src/widgets/lv_img.c:150:19
	bfi	r0, r3, #2, #5
	strb.w	r0, [r4, #56]
	.loc	12 151 20                       @ ../GUILib/src/widgets/lv_img.c:151:20
	ubfx	r0, r2, #3, #10
	.loc	12 148 21                       @ ../GUILib/src/widgets/lv_img.c:148:21
	ubfx	r7, r2, #2, #11
	.loc	12 151 18                       @ ../GUILib/src/widgets/lv_img.c:151:18
	strh	r0, [r4, #50]
	.loc	12 152 29                       @ ../GUILib/src/widgets/lv_img.c:152:29
	lsrs	r0, r1, #14
	.loc	12 148 19                       @ ../GUILib/src/widgets/lv_img.c:148:19
	strh	r7, [r4, #44]
	.loc	12 149 28                       @ ../GUILib/src/widgets/lv_img.c:149:28
	lsrs	r7, r1, #13
	.loc	12 152 18                       @ ../GUILib/src/widgets/lv_img.c:152:18
	strh	r0, [r4, #52]
	.loc	12 154 5                        @ ../GUILib/src/widgets/lv_img.c:154:5
	mov	r0, r4
	.loc	12 149 19                       @ ../GUILib/src/widgets/lv_img.c:149:19
	strh	r7, [r4, #46]
	.loc	12 154 5                        @ ../GUILib/src/widgets/lv_img.c:154:5
	bl	lv_obj_refresh_self_size
.Ltmp310:
	.loc	12 157 13                       @ ../GUILib/src/widgets/lv_img.c:157:13
	ldrh	r0, [r4, #48]
	.loc	12 157 19 is_stmt 0             @ ../GUILib/src/widgets/lv_img.c:157:19
	cbnz	r0, .LBB4_18
.Ltmp311:
@ %bb.17:
	@DEBUG_VALUE: lv_img_set_src:src <- $r6
	@DEBUG_VALUE: lv_img_set_src:src_type <- $r5
	@DEBUG_VALUE: lv_img_set_src:img <- $r4
	@DEBUG_VALUE: lv_img_set_src:obj <- $r4
	.loc	12 157 27                       @ ../GUILib/src/widgets/lv_img.c:157:27
	ldrh	r0, [r4, #54]
.Ltmp312:
	.loc	12 157 8                        @ ../GUILib/src/widgets/lv_img.c:157:8
	cmp.w	r0, #256
	beq	.LBB4_19
.Ltmp313:
.LBB4_18:
	@DEBUG_VALUE: lv_img_set_src:src <- $r6
	@DEBUG_VALUE: lv_img_set_src:src_type <- $r5
	@DEBUG_VALUE: lv_img_set_src:img <- $r4
	@DEBUG_VALUE: lv_img_set_src:obj <- $r4
	.loc	12 157 53                       @ ../GUILib/src/widgets/lv_img.c:157:53
	mov	r0, r4
	bl	lv_obj_refresh_ext_draw_size
.Ltmp314:
.LBB4_19:
	@DEBUG_VALUE: lv_img_set_src:src <- $r6
	@DEBUG_VALUE: lv_img_set_src:src_type <- $r5
	@DEBUG_VALUE: lv_img_set_src:img <- $r4
	@DEBUG_VALUE: lv_img_set_src:obj <- $r4
	.loc	12 159 5 is_stmt 1              @ ../GUILib/src/widgets/lv_img.c:159:5
	mov	r0, r4
	bl	lv_obj_invalidate
.Ltmp315:
.LBB4_20:
	@DEBUG_VALUE: lv_img_set_src:src <- $r6
	@DEBUG_VALUE: lv_img_set_src:img <- $r4
	@DEBUG_VALUE: lv_img_set_src:obj <- $r4
	.loc	12 160 1                        @ ../GUILib/src/widgets/lv_img.c:160:1
	add	sp, #20
	pop.w	{r4, r5, r6, r7, r8, r9, pc}
.Ltmp316:
.Lfunc_end4:
	.size	lv_img_set_src, .Lfunc_end4-lv_img_set_src
	.cfi_endproc
	.cantunwind
	.fnend
                                        @ -- End function
	.section	.text.lv_img_set_offset_x,"ax",%progbits
	.hidden	lv_img_set_offset_x             @ -- Begin function lv_img_set_offset_x
	.globl	lv_img_set_offset_x
	.p2align	1
	.type	lv_img_set_offset_x,%function
	.code	16                              @ @lv_img_set_offset_x
	.thumb_func
lv_img_set_offset_x:
.Lfunc_begin5:
	.loc	12 163 0                        @ ../GUILib/src/widgets/lv_img.c:163:0
	.fnstart
	.cfi_startproc
@ %bb.0:
	@DEBUG_VALUE: lv_img_set_offset_x:obj <- $r0
	@DEBUG_VALUE: lv_img_set_offset_x:obj <- $r0
	@DEBUG_VALUE: lv_img_set_offset_x:x <- $r1
	@DEBUG_VALUE: lv_img_set_offset_x:img <- $r0
	@DEBUG_VALUE: lv_img_set_offset_x:img <- $r0
	.loc	12 168 18 prologue_end          @ ../GUILib/src/widgets/lv_img.c:168:18
	ldrsh.w	r2, [r0, #44]
	@DEBUG_VALUE: lv_img_set_offset_x:x <- $r1
	.loc	12 168 11 is_stmt 0             @ ../GUILib/src/widgets/lv_img.c:168:11
	sdiv	r3, r1, r2
	mls	r1, r3, r2, r1
.Ltmp317:
	@DEBUG_VALUE: lv_img_set_offset_x:x <- [DW_OP_LLVM_entry_value 1] $r1
	@DEBUG_VALUE: lv_img_set_offset_x:x <- undef
	.loc	12 170 19 is_stmt 1             @ ../GUILib/src/widgets/lv_img.c:170:19
	strh	r1, [r0, #40]
.Ltmp318:
	.loc	12 171 5                        @ ../GUILib/src/widgets/lv_img.c:171:5
	b	lv_obj_invalidate
.Ltmp319:
.Lfunc_end5:
	.size	lv_img_set_offset_x, .Lfunc_end5-lv_img_set_offset_x
	.cfi_endproc
	.file	24 "C:\\Users\\Hyacincher\\Desktop\\HyTelectrl\\Code\\Project" "../GUILib/src/widgets/../core/lv_obj_pos.h"
	.cantunwind
	.fnend
                                        @ -- End function
	.section	.text.lv_img_set_offset_y,"ax",%progbits
	.hidden	lv_img_set_offset_y             @ -- Begin function lv_img_set_offset_y
	.globl	lv_img_set_offset_y
	.p2align	1
	.type	lv_img_set_offset_y,%function
	.code	16                              @ @lv_img_set_offset_y
	.thumb_func
lv_img_set_offset_y:
.Lfunc_begin6:
	.loc	12 175 0                        @ ../GUILib/src/widgets/lv_img.c:175:0
	.fnstart
	.cfi_startproc
@ %bb.0:
	@DEBUG_VALUE: lv_img_set_offset_y:obj <- $r0
	@DEBUG_VALUE: lv_img_set_offset_y:obj <- $r0
	@DEBUG_VALUE: lv_img_set_offset_y:y <- $r1
	@DEBUG_VALUE: lv_img_set_offset_y:img <- $r0
	.loc	12 180 18 prologue_end          @ ../GUILib/src/widgets/lv_img.c:180:18
	ldrsh.w	r2, [r0, #46]
	@DEBUG_VALUE: lv_img_set_offset_y:y <- $r1
	.loc	12 180 11 is_stmt 0             @ ../GUILib/src/widgets/lv_img.c:180:11
	sdiv	r3, r1, r2
	mls	r1, r3, r2, r1
.Ltmp320:
	@DEBUG_VALUE: lv_img_set_offset_y:y <- [DW_OP_LLVM_entry_value 1] $r1
	@DEBUG_VALUE: lv_img_set_offset_y:y <- undef
	.loc	12 182 19 is_stmt 1             @ ../GUILib/src/widgets/lv_img.c:182:19
	strh	r1, [r0, #42]
.Ltmp321:
	.loc	12 183 5                        @ ../GUILib/src/widgets/lv_img.c:183:5
	b	lv_obj_invalidate
.Ltmp322:
.Lfunc_end6:
	.size	lv_img_set_offset_y, .Lfunc_end6-lv_img_set_offset_y
	.cfi_endproc
	.cantunwind
	.fnend
                                        @ -- End function
	.section	.text.lv_img_set_angle,"ax",%progbits
	.hidden	lv_img_set_angle                @ -- Begin function lv_img_set_angle
	.globl	lv_img_set_angle
	.p2align	1
	.type	lv_img_set_angle,%function
	.code	16                              @ @lv_img_set_angle
	.thumb_func
lv_img_set_angle:
.Lfunc_begin7:
	.loc	12 187 0                        @ ../GUILib/src/widgets/lv_img.c:187:0
	.fnstart
	.cfi_startproc
@ %bb.0:
	@DEBUG_VALUE: lv_img_set_angle:obj <- $r0
	@DEBUG_VALUE: lv_img_set_angle:angle <- $r1
	.save	{r4, r5, r6, r7, r8, r9, r10, r11, lr}
	push.w	{r4, r5, r6, r7, r8, r9, r10, r11, lr}
	.cfi_def_cfa_offset 36
	.cfi_offset lr, -4
	.cfi_offset r11, -8
	.cfi_offset r10, -12
	.cfi_offset r9, -16
	.cfi_offset r8, -20
	.cfi_offset r7, -24
	.cfi_offset r6, -28
	.cfi_offset r5, -32
	.cfi_offset r4, -36
	.pad	#20
	sub	sp, #20
	.cfi_def_cfa_offset 56
	mov	r5, r1
	mov	r4, r0
.Ltmp323:
	@DEBUG_VALUE: lv_img_set_angle:obj <- $r4
	uxth	r0, r1
	movw	r1, #46021
.Ltmp324:
	@DEBUG_VALUE: lv_img_set_angle:angle <- [DW_OP_LLVM_entry_value 1] $r1
	movt	r1, #37282
.Ltmp325:
	@DEBUG_VALUE: lv_img_set_angle:img <- $r4
	@DEBUG_VALUE: lv_img_set_angle:angle <- $r5
	@DEBUG_VALUE: lv_img_set_angle:obj <- $r4
	.loc	12 188 18 prologue_end          @ ../GUILib/src/widgets/lv_img.c:188:18
	smmla	r1, r1, r5, r5
	lsrs	r0, r0, #4
	asrs	r2, r1, #11
	add.w	r1, r2, r1, lsr #31
	mov.w	r2, #3600
	cmp	r0, #224
	it	hi
	mlshi	r5, r1, r2, r5
.Ltmp326:
	@DEBUG_VALUE: lv_img_set_angle:angle <- $r5
	.loc	12 191 22                       @ ../GUILib/src/widgets/lv_img.c:191:22
	ldrh	r0, [r4, #48]
	.loc	12 191 8 is_stmt 0              @ ../GUILib/src/widgets/lv_img.c:191:8
	sxth	r1, r5
.Ltmp327:
	.loc	12 191 8                        @ ../GUILib/src/widgets/lv_img.c:191:8
	cmp	r1, r0
	beq	.LBB7_2
.Ltmp328:
@ %bb.1:
	@DEBUG_VALUE: lv_img_set_angle:angle <- $r5
	@DEBUG_VALUE: lv_img_set_angle:img <- $r4
	@DEBUG_VALUE: lv_img_set_angle:obj <- $r4
	@DEBUG_VALUE: lv_obj_get_style_transform_zoom:obj <- $r4
	@DEBUG_VALUE: lv_obj_get_style_transform_zoom:part <- 0
	.loc	20 81 26 is_stmt 1              @ ../GUILib/src/widgets/../core/lv_obj_style_gen.h:81:26
	mov	r0, r4
	movs	r1, #0
	movw	r2, #14350
	bl	lv_obj_get_style_prop
.Ltmp329:
	@DEBUG_VALUE: lv_img_set_angle:transf_zoom <- [DW_OP_LLVM_convert 32 7, DW_OP_LLVM_convert 16 7, DW_OP_stack_value] $r0
	@DEBUG_VALUE: lv_obj_get_style_transform_zoom:v <- $r0
	.loc	12 194 48                       @ ../GUILib/src/widgets/lv_img.c:194:48
	ldrh	r1, [r4, #54]
	.loc	12 194 20 is_stmt 0             @ ../GUILib/src/widgets/lv_img.c:194:20
	sxth	r0, r0
.Ltmp330:
	.loc	12 194 41                       @ ../GUILib/src/widgets/lv_img.c:194:41
	mul	r6, r0, r1
.Ltmp331:
	@DEBUG_VALUE: lv_obj_get_style_transform_angle:part <- 0
	@DEBUG_VALUE: lv_obj_get_style_transform_angle:obj <- $r4
	.loc	20 87 26 is_stmt 1              @ ../GUILib/src/widgets/../core/lv_obj_style_gen.h:87:26
	mov	r0, r4
	movs	r1, #0
	movw	r2, #14351
	bl	lv_obj_get_style_prop
.Ltmp332:
	mov	r10, r0
.Ltmp333:
	@DEBUG_VALUE: lv_img_set_angle:transf_angle <- $r10
	@DEBUG_VALUE: lv_obj_get_style_transform_angle:v <- $r10
	.loc	12 198 20                       @ ../GUILib/src/widgets/lv_img.c:198:20
	mov	r0, r4
	bl	lv_obj_get_width
.Ltmp334:
	mov	r9, r0
.Ltmp335:
	@DEBUG_VALUE: lv_img_set_angle:w <- undef
	.loc	12 199 20                       @ ../GUILib/src/widgets/lv_img.c:199:20
	mov	r0, r4
	bl	lv_obj_get_height
.Ltmp336:
	.loc	12 201 68                       @ ../GUILib/src/widgets/lv_img.c:201:68
	ldrh	r1, [r4, #48]
	.loc	12 199 20                       @ ../GUILib/src/widgets/lv_img.c:199:20
	mov	r7, r0
.Ltmp337:
	@DEBUG_VALUE: lv_img_set_angle:h <- undef
	.loc	12 201 61                       @ ../GUILib/src/widgets/lv_img.c:201:61
	add.w	r0, r1, r10
	add.w	r8, sp, #12
	.loc	12 201 94 is_stmt 0             @ ../GUILib/src/widgets/lv_img.c:201:94
	add.w	r11, r4, #50
	.loc	12 201 5                        @ ../GUILib/src/widgets/lv_img.c:201:5
	ubfx	r6, r6, #8, #16
.Ltmp338:
	@DEBUG_VALUE: lv_img_set_angle:transf_zoom <- $r6
	sxth	r3, r0
	mov	r0, r8
	mov	r1, r9
	mov	r2, r7
	str	r6, [sp]
	str.w	r11, [sp, #4]
	bl	_lv_img_buf_get_transformed_area
.Ltmp339:
	.loc	12 202 25 is_stmt 1             @ ../GUILib/src/widgets/lv_img.c:202:25
	ldrh	r0, [r4, #20]
	.loc	12 202 10 is_stmt 0             @ ../GUILib/src/widgets/lv_img.c:202:10
	ldrh.w	r1, [sp, #12]
	.loc	12 203 25 is_stmt 1             @ ../GUILib/src/widgets/lv_img.c:203:25
	ldrh	r2, [r4, #22]
	.loc	12 203 10 is_stmt 0             @ ../GUILib/src/widgets/lv_img.c:203:10
	ldrh.w	r3, [sp, #14]
	.loc	12 202 10 is_stmt 1             @ ../GUILib/src/widgets/lv_img.c:202:10
	add	r1, r0
	strh.w	r1, [sp, #12]
	.loc	12 203 10                       @ ../GUILib/src/widgets/lv_img.c:203:10
	adds	r1, r3, r2
	.loc	12 204 10                       @ ../GUILib/src/widgets/lv_img.c:204:10
	ldrh.w	r3, [sp, #16]
	.loc	12 203 10                       @ ../GUILib/src/widgets/lv_img.c:203:10
	strh.w	r1, [sp, #14]
	.loc	12 205 10                       @ ../GUILib/src/widgets/lv_img.c:205:10
	ldrh.w	r1, [sp, #18]
	.loc	12 204 10                       @ ../GUILib/src/widgets/lv_img.c:204:10
	add	r0, r3
	strh.w	r0, [sp, #16]
	.loc	12 205 10                       @ ../GUILib/src/widgets/lv_img.c:205:10
	adds	r0, r1, r2
	strh.w	r0, [sp, #18]
	.loc	12 206 5                        @ ../GUILib/src/widgets/lv_img.c:206:5
	mov	r0, r4
	mov	r1, r8
	bl	lv_obj_invalidate_area
.Ltmp340:
	.loc	12 209 5                        @ ../GUILib/src/widgets/lv_img.c:209:5
	mov	r0, r4
	.loc	12 208 16                       @ ../GUILib/src/widgets/lv_img.c:208:16
	strh	r5, [r4, #48]
	.loc	12 209 5                        @ ../GUILib/src/widgets/lv_img.c:209:5
	bl	lv_obj_refresh_ext_draw_size
.Ltmp341:
	.loc	12 211 68                       @ ../GUILib/src/widgets/lv_img.c:211:68
	ldrh	r0, [r4, #48]
	.loc	12 211 5 is_stmt 0              @ ../GUILib/src/widgets/lv_img.c:211:5
	mov	r1, r9
	.loc	12 211 61                       @ ../GUILib/src/widgets/lv_img.c:211:61
	add	r0, r10
	.loc	12 211 5                        @ ../GUILib/src/widgets/lv_img.c:211:5
	sxth	r3, r0
	mov	r0, r8
	mov	r2, r7
	str	r6, [sp]
	str.w	r11, [sp, #4]
	bl	_lv_img_buf_get_transformed_area
.Ltmp342:
	.loc	12 212 25 is_stmt 1             @ ../GUILib/src/widgets/lv_img.c:212:25
	ldrh	r0, [r4, #20]
	.loc	12 212 10 is_stmt 0             @ ../GUILib/src/widgets/lv_img.c:212:10
	ldrh.w	r1, [sp, #12]
	.loc	12 213 25 is_stmt 1             @ ../GUILib/src/widgets/lv_img.c:213:25
	ldrh	r2, [r4, #22]
	.loc	12 213 10 is_stmt 0             @ ../GUILib/src/widgets/lv_img.c:213:10
	ldrh.w	r3, [sp, #14]
	.loc	12 212 10 is_stmt 1             @ ../GUILib/src/widgets/lv_img.c:212:10
	add	r1, r0
	strh.w	r1, [sp, #12]
	.loc	12 213 10                       @ ../GUILib/src/widgets/lv_img.c:213:10
	adds	r1, r3, r2
	.loc	12 214 10                       @ ../GUILib/src/widgets/lv_img.c:214:10
	ldrh.w	r3, [sp, #16]
	.loc	12 213 10                       @ ../GUILib/src/widgets/lv_img.c:213:10
	strh.w	r1, [sp, #14]
	.loc	12 215 10                       @ ../GUILib/src/widgets/lv_img.c:215:10
	ldrh.w	r1, [sp, #18]
	.loc	12 214 10                       @ ../GUILib/src/widgets/lv_img.c:214:10
	add	r0, r3
	strh.w	r0, [sp, #16]
	.loc	12 215 10                       @ ../GUILib/src/widgets/lv_img.c:215:10
	adds	r0, r1, r2
	strh.w	r0, [sp, #18]
	.loc	12 216 5                        @ ../GUILib/src/widgets/lv_img.c:216:5
	mov	r0, r4
	mov	r1, r8
	bl	lv_obj_invalidate_area
.Ltmp343:
.LBB7_2:
	@DEBUG_VALUE: lv_img_set_angle:angle <- $r5
	@DEBUG_VALUE: lv_img_set_angle:img <- $r4
	@DEBUG_VALUE: lv_img_set_angle:obj <- $r4
	.loc	12 217 1                        @ ../GUILib/src/widgets/lv_img.c:217:1
	add	sp, #20
	pop.w	{r4, r5, r6, r7, r8, r9, r10, r11, pc}
.Ltmp344:
.Lfunc_end7:
	.size	lv_img_set_angle, .Lfunc_end7-lv_img_set_angle
	.cfi_endproc
	.cantunwind
	.fnend
                                        @ -- End function
	.section	.text.lv_img_set_pivot,"ax",%progbits
	.hidden	lv_img_set_pivot                @ -- Begin function lv_img_set_pivot
	.globl	lv_img_set_pivot
	.p2align	1
	.type	lv_img_set_pivot,%function
	.code	16                              @ @lv_img_set_pivot
	.thumb_func
lv_img_set_pivot:
.Lfunc_begin8:
	.loc	12 220 0                        @ ../GUILib/src/widgets/lv_img.c:220:0
	.fnstart
	.cfi_startproc
@ %bb.0:
	@DEBUG_VALUE: lv_img_set_pivot:obj <- $r0
	@DEBUG_VALUE: lv_img_set_pivot:x <- $r1
	@DEBUG_VALUE: lv_img_set_pivot:y <- $r2
	.save	{r4, r5, r6, r7, r8, r9, r10, r11, lr}
	push.w	{r4, r5, r6, r7, r8, r9, r10, r11, lr}
	.cfi_def_cfa_offset 36
	.cfi_offset lr, -4
	.cfi_offset r11, -8
	.cfi_offset r10, -12
	.cfi_offset r9, -16
	.cfi_offset r8, -20
	.cfi_offset r7, -24
	.cfi_offset r6, -28
	.cfi_offset r5, -32
	.cfi_offset r4, -36
	.pad	#20
	sub	sp, #20
	.cfi_def_cfa_offset 56
.Ltmp345:
	.loc	12 222 19 prologue_end          @ ../GUILib/src/widgets/lv_img.c:222:19
	mov	r6, r0
	mov	r4, r0
.Ltmp346:
	@DEBUG_VALUE: lv_img_set_pivot:obj <- $r4
	@DEBUG_VALUE: lv_img_set_pivot:x <- $r10
	@DEBUG_VALUE: lv_img_set_pivot:obj <- $r4
	ldrh	r0, [r6, #50]!
	mov	r10, r1
.Ltmp347:
	.loc	12 0 19 is_stmt 0               @ ../GUILib/src/widgets/lv_img.c:0:19
	uxth	r1, r1
.Ltmp348:
	@DEBUG_VALUE: lv_img_set_pivot:img <- $r4
	@DEBUG_VALUE: lv_img_set_pivot:y <- undef
	.loc	12 222 26                       @ ../GUILib/src/widgets/lv_img.c:222:26
	cmp	r0, r1
.Ltmp349:
	@DEBUG_VALUE: lv_img_set_pivot:y <- $r2
	bne	.LBB8_2
.Ltmp350:
@ %bb.1:
	@DEBUG_VALUE: lv_img_set_pivot:img <- $r4
	@DEBUG_VALUE: lv_img_set_pivot:obj <- $r4
	@DEBUG_VALUE: lv_img_set_pivot:y <- $r2
	.loc	12 222 40                       @ ../GUILib/src/widgets/lv_img.c:222:40
	ldrh	r0, [r4, #52]
	.loc	12 222 42                       @ ../GUILib/src/widgets/lv_img.c:222:42
	uxth	r1, r2
.Ltmp351:
	.loc	12 222 8                        @ ../GUILib/src/widgets/lv_img.c:222:8
	cmp	r0, r1
	beq	.LBB8_3
.Ltmp352:
.LBB8_2:
	@DEBUG_VALUE: lv_img_set_pivot:img <- $r4
	@DEBUG_VALUE: lv_img_set_pivot:obj <- $r4
	@DEBUG_VALUE: lv_img_set_pivot:y <- $r2
	@DEBUG_VALUE: lv_img_set_pivot:y <- $r2
	@DEBUG_VALUE: lv_obj_get_style_transform_zoom:obj <- $r4
	@DEBUG_VALUE: lv_obj_get_style_transform_zoom:part <- 0
	.loc	20 81 26 is_stmt 1              @ ../GUILib/src/widgets/../core/lv_obj_style_gen.h:81:26
	mov	r0, r4
	movs	r1, #0
	str	r2, [sp, #8]                    @ 4-byte Spill
.Ltmp353:
	@DEBUG_VALUE: lv_img_set_pivot:y <- [DW_OP_plus_uconst 8] [$sp+0]
	@DEBUG_VALUE: lv_img_set_pivot:y <- [DW_OP_plus_uconst 8] [$sp+0]
	movw	r2, #14350
	bl	lv_obj_get_style_prop
.Ltmp354:
	@DEBUG_VALUE: lv_img_set_pivot:transf_zoom <- [DW_OP_LLVM_convert 32 7, DW_OP_LLVM_convert 16 7, DW_OP_stack_value] $r0
	@DEBUG_VALUE: lv_obj_get_style_transform_zoom:v <- $r0
	.loc	12 225 48                       @ ../GUILib/src/widgets/lv_img.c:225:48
	ldrh	r1, [r4, #54]
	.loc	12 225 20 is_stmt 0             @ ../GUILib/src/widgets/lv_img.c:225:20
	sxth	r0, r0
.Ltmp355:
	.loc	12 225 41                       @ ../GUILib/src/widgets/lv_img.c:225:41
	mul	r8, r0, r1
.Ltmp356:
	@DEBUG_VALUE: lv_obj_get_style_transform_angle:part <- 0
	@DEBUG_VALUE: lv_obj_get_style_transform_angle:obj <- $r4
	.loc	20 87 26 is_stmt 1              @ ../GUILib/src/widgets/../core/lv_obj_style_gen.h:87:26
	mov	r0, r4
	movs	r1, #0
	movw	r2, #14351
	bl	lv_obj_get_style_prop
.Ltmp357:
	.loc	12 228 26                       @ ../GUILib/src/widgets/lv_img.c:228:26
	ldrh	r1, [r4, #48]
.Ltmp358:
	@DEBUG_VALUE: lv_img_set_pivot:transf_angle <- $r0
	@DEBUG_VALUE: lv_obj_get_style_transform_angle:v <- $r0
	@DEBUG_VALUE: lv_obj_get_style_transform_angle:part <- 0
	@DEBUG_VALUE: lv_obj_get_style_transform_angle:obj <- $r4
	.loc	12 228 18 is_stmt 0             @ ../GUILib/src/widgets/lv_img.c:228:18
	adds	r5, r1, r0
.Ltmp359:
	@DEBUG_VALUE: lv_img_set_pivot:transf_angle <- $r5
	.loc	12 230 20 is_stmt 1             @ ../GUILib/src/widgets/lv_img.c:230:20
	mov	r0, r4
	bl	lv_obj_get_width
.Ltmp360:
	mov	r11, r0
.Ltmp361:
	@DEBUG_VALUE: lv_img_set_pivot:w <- undef
	.loc	12 231 20                       @ ../GUILib/src/widgets/lv_img.c:231:20
	mov	r0, r4
	bl	lv_obj_get_height
.Ltmp362:
	mov	r7, r0
.Ltmp363:
	@DEBUG_VALUE: lv_img_set_pivot:h <- undef
	.loc	12 233 5                        @ ../GUILib/src/widgets/lv_img.c:233:5
	sxth	r5, r5
.Ltmp364:
	.loc	12 0 5 is_stmt 0                @ ../GUILib/src/widgets/lv_img.c:0:5
	add.w	r9, sp, #12
	.loc	12 233 5                        @ ../GUILib/src/widgets/lv_img.c:233:5
	ubfx	r8, r8, #8, #16
.Ltmp365:
	@DEBUG_VALUE: lv_img_set_pivot:transf_zoom <- $r8
	mov	r0, r9
	mov	r1, r11
	mov	r2, r7
	mov	r3, r5
	str.w	r8, [sp]
	str	r6, [sp, #4]
	bl	_lv_img_buf_get_transformed_area
.Ltmp366:
	.loc	12 234 25 is_stmt 1             @ ../GUILib/src/widgets/lv_img.c:234:25
	ldrh	r0, [r4, #20]
	.loc	12 234 10 is_stmt 0             @ ../GUILib/src/widgets/lv_img.c:234:10
	ldrh.w	r1, [sp, #12]
	.loc	12 235 25 is_stmt 1             @ ../GUILib/src/widgets/lv_img.c:235:25
	ldrh	r2, [r4, #22]
	.loc	12 235 10 is_stmt 0             @ ../GUILib/src/widgets/lv_img.c:235:10
	ldrh.w	r3, [sp, #14]
	.loc	12 234 10 is_stmt 1             @ ../GUILib/src/widgets/lv_img.c:234:10
	add	r1, r0
	strh.w	r1, [sp, #12]
	.loc	12 235 10                       @ ../GUILib/src/widgets/lv_img.c:235:10
	adds	r1, r3, r2
	.loc	12 236 10                       @ ../GUILib/src/widgets/lv_img.c:236:10
	ldrh.w	r3, [sp, #16]
	.loc	12 235 10                       @ ../GUILib/src/widgets/lv_img.c:235:10
	strh.w	r1, [sp, #14]
	.loc	12 237 10                       @ ../GUILib/src/widgets/lv_img.c:237:10
	ldrh.w	r1, [sp, #18]
	.loc	12 236 10                       @ ../GUILib/src/widgets/lv_img.c:236:10
	add	r0, r3
	strh.w	r0, [sp, #16]
	.loc	12 237 10                       @ ../GUILib/src/widgets/lv_img.c:237:10
	adds	r0, r1, r2
	strh.w	r0, [sp, #18]
	.loc	12 238 5                        @ ../GUILib/src/widgets/lv_img.c:238:5
	mov	r0, r4
	mov	r1, r9
	bl	lv_obj_invalidate_area
.Ltmp367:
	.loc	12 241 18                       @ ../GUILib/src/widgets/lv_img.c:241:18
	ldr	r0, [sp, #8]                    @ 4-byte Reload
.Ltmp368:
	@DEBUG_VALUE: lv_img_set_pivot:y <- $r0
	.loc	12 240 18                       @ ../GUILib/src/widgets/lv_img.c:240:18
	strh.w	r10, [r4, #50]
	.loc	12 241 18                       @ ../GUILib/src/widgets/lv_img.c:241:18
	strh	r0, [r4, #52]
	.loc	12 242 5                        @ ../GUILib/src/widgets/lv_img.c:242:5
	mov	r0, r4
.Ltmp369:
	bl	lv_obj_refresh_ext_draw_size
.Ltmp370:
	.loc	12 244 5                        @ ../GUILib/src/widgets/lv_img.c:244:5
	mov	r0, r9
	mov	r1, r11
	mov	r2, r7
	mov	r3, r5
	str.w	r8, [sp]
	str	r6, [sp, #4]
	bl	_lv_img_buf_get_transformed_area
.Ltmp371:
	.loc	12 245 25                       @ ../GUILib/src/widgets/lv_img.c:245:25
	ldrh	r0, [r4, #20]
	.loc	12 245 10 is_stmt 0             @ ../GUILib/src/widgets/lv_img.c:245:10
	ldrh.w	r1, [sp, #12]
	.loc	12 246 25 is_stmt 1             @ ../GUILib/src/widgets/lv_img.c:246:25
	ldrh	r2, [r4, #22]
	.loc	12 246 10 is_stmt 0             @ ../GUILib/src/widgets/lv_img.c:246:10
	ldrh.w	r3, [sp, #14]
	.loc	12 245 10 is_stmt 1             @ ../GUILib/src/widgets/lv_img.c:245:10
	add	r1, r0
	strh.w	r1, [sp, #12]
	.loc	12 246 10                       @ ../GUILib/src/widgets/lv_img.c:246:10
	adds	r1, r3, r2
	.loc	12 247 10                       @ ../GUILib/src/widgets/lv_img.c:247:10
	ldrh.w	r3, [sp, #16]
	.loc	12 246 10                       @ ../GUILib/src/widgets/lv_img.c:246:10
	strh.w	r1, [sp, #14]
	.loc	12 248 10                       @ ../GUILib/src/widgets/lv_img.c:248:10
	ldrh.w	r1, [sp, #18]
	.loc	12 247 10                       @ ../GUILib/src/widgets/lv_img.c:247:10
	add	r0, r3
	strh.w	r0, [sp, #16]
	.loc	12 248 10                       @ ../GUILib/src/widgets/lv_img.c:248:10
	adds	r0, r1, r2
	strh.w	r0, [sp, #18]
	.loc	12 249 5                        @ ../GUILib/src/widgets/lv_img.c:249:5
	mov	r0, r4
	mov	r1, r9
	bl	lv_obj_invalidate_area
.Ltmp372:
.LBB8_3:
	@DEBUG_VALUE: lv_img_set_pivot:img <- $r4
	@DEBUG_VALUE: lv_img_set_pivot:obj <- $r4
	.loc	12 250 1                        @ ../GUILib/src/widgets/lv_img.c:250:1
	add	sp, #20
	pop.w	{r4, r5, r6, r7, r8, r9, r10, r11, pc}
.Ltmp373:
.Lfunc_end8:
	.size	lv_img_set_pivot, .Lfunc_end8-lv_img_set_pivot
	.cfi_endproc
	.cantunwind
	.fnend
                                        @ -- End function
	.section	.text.lv_img_set_zoom,"ax",%progbits
	.hidden	lv_img_set_zoom                 @ -- Begin function lv_img_set_zoom
	.globl	lv_img_set_zoom
	.p2align	1
	.type	lv_img_set_zoom,%function
	.code	16                              @ @lv_img_set_zoom
	.thumb_func
lv_img_set_zoom:
.Lfunc_begin9:
	.loc	12 253 0                        @ ../GUILib/src/widgets/lv_img.c:253:0
	.fnstart
	.cfi_startproc
@ %bb.0:
	@DEBUG_VALUE: lv_img_set_zoom:obj <- $r0
	@DEBUG_VALUE: lv_img_set_zoom:zoom <- $r1
	.save	{r4, r5, r6, r7, r8, r9, r10, r11, lr}
	push.w	{r4, r5, r6, r7, r8, r9, r10, r11, lr}
	.cfi_def_cfa_offset 36
	.cfi_offset lr, -4
	.cfi_offset r11, -8
	.cfi_offset r10, -12
	.cfi_offset r9, -16
	.cfi_offset r8, -20
	.cfi_offset r7, -24
	.cfi_offset r6, -28
	.cfi_offset r5, -32
	.cfi_offset r4, -36
	.pad	#20
	sub	sp, #20
	.cfi_def_cfa_offset 56
	mov	r4, r0
.Ltmp374:
	@DEBUG_VALUE: lv_img_set_zoom:img <- $r4
	@DEBUG_VALUE: lv_img_set_zoom:obj <- $r4
	.loc	12 255 21 prologue_end          @ ../GUILib/src/widgets/lv_img.c:255:21
	ldrh	r0, [r0, #54]
.Ltmp375:
	@DEBUG_VALUE: lv_img_set_zoom:zoom <- $r1
	.loc	12 255 8 is_stmt 0              @ ../GUILib/src/widgets/lv_img.c:255:8
	cmp	r0, r1
	beq	.LBB9_2
.Ltmp376:
@ %bb.1:
	@DEBUG_VALUE: lv_img_set_zoom:obj <- $r4
	@DEBUG_VALUE: lv_img_set_zoom:img <- $r4
	@DEBUG_VALUE: lv_img_set_zoom:zoom <- $r1
	.loc	12 0 8                          @ ../GUILib/src/widgets/lv_img.c:0:8
	mov	r5, r1
.Ltmp377:
	@DEBUG_VALUE: lv_img_set_zoom:zoom <- $r5
	.loc	12 257 8 is_stmt 1              @ ../GUILib/src/widgets/lv_img.c:257:8
	cmp	r1, #0
.Ltmp378:
	.loc	20 81 26                        @ ../GUILib/src/widgets/../core/lv_obj_style_gen.h:81:26
	mov	r0, r4
	mov.w	r1, #0
	movw	r2, #14350
.Ltmp379:
	.loc	12 257 8                        @ ../GUILib/src/widgets/lv_img.c:257:8
	it	eq
	moveq	r5, #1
.Ltmp380:
	@DEBUG_VALUE: lv_img_set_zoom:zoom <- [DW_OP_LLVM_entry_value 1] $r1
	@DEBUG_VALUE: lv_obj_get_style_transform_zoom:part <- 0
	@DEBUG_VALUE: lv_obj_get_style_transform_zoom:obj <- $r4
	@DEBUG_VALUE: lv_img_set_zoom:zoom <- $r5
	.loc	20 81 26                        @ ../GUILib/src/widgets/../core/lv_obj_style_gen.h:81:26
	bl	lv_obj_get_style_prop
.Ltmp381:
	mov	r6, r0
.Ltmp382:
	@DEBUG_VALUE: lv_obj_get_style_transform_angle:part <- 0
	@DEBUG_VALUE: lv_obj_get_style_transform_angle:obj <- $r4
	@DEBUG_VALUE: lv_img_set_zoom:transf_zoom <- [DW_OP_LLVM_convert 32 7, DW_OP_LLVM_convert 16 7, DW_OP_stack_value] $r6
	@DEBUG_VALUE: lv_obj_get_style_transform_zoom:v <- $r6
	.loc	20 87 26                        @ ../GUILib/src/widgets/../core/lv_obj_style_gen.h:87:26
	mov	r0, r4
	movs	r1, #0
	movw	r2, #14351
	bl	lv_obj_get_style_prop
.Ltmp383:
	.loc	12 262 26                       @ ../GUILib/src/widgets/lv_img.c:262:26
	ldrh	r1, [r4, #48]
.Ltmp384:
	@DEBUG_VALUE: lv_img_set_zoom:transf_angle <- $r0
	@DEBUG_VALUE: lv_obj_get_style_transform_angle:v <- $r0
	@DEBUG_VALUE: lv_obj_get_style_transform_angle:part <- 0
	@DEBUG_VALUE: lv_obj_get_style_transform_angle:obj <- $r4
	.loc	12 262 18 is_stmt 0             @ ../GUILib/src/widgets/lv_img.c:262:18
	adds	r7, r1, r0
.Ltmp385:
	@DEBUG_VALUE: lv_img_set_zoom:transf_angle <- $r7
	.loc	12 264 20 is_stmt 1             @ ../GUILib/src/widgets/lv_img.c:264:20
	mov	r0, r4
	bl	lv_obj_get_width
.Ltmp386:
	mov	r9, r0
.Ltmp387:
	@DEBUG_VALUE: lv_img_set_zoom:w <- undef
	.loc	12 265 20                       @ ../GUILib/src/widgets/lv_img.c:265:20
	mov	r0, r4
	bl	lv_obj_get_height
.Ltmp388:
	mov	r10, r0
.Ltmp389:
	@DEBUG_VALUE: lv_img_set_zoom:h <- undef
	.loc	12 267 91                       @ ../GUILib/src/widgets/lv_img.c:267:91
	ldrh	r0, [r4, #54]
	.loc	12 267 63 is_stmt 0             @ ../GUILib/src/widgets/lv_img.c:267:63
	sxth	r6, r6
.Ltmp390:
	.loc	12 267 84                       @ ../GUILib/src/widgets/lv_img.c:267:84
	muls	r0, r6, r0
	.loc	12 267 5                        @ ../GUILib/src/widgets/lv_img.c:267:5
	ubfx	r0, r0, #8, #16
	sxth	r7, r7
.Ltmp391:
	.loc	12 0 5                          @ ../GUILib/src/widgets/lv_img.c:0:5
	add.w	r8, sp, #12
	.loc	12 267 109                      @ ../GUILib/src/widgets/lv_img.c:267:109
	add.w	r11, r4, #50
	.loc	12 267 5                        @ ../GUILib/src/widgets/lv_img.c:267:5
	str	r0, [sp]
	mov	r0, r8
	mov	r1, r9
	mov	r2, r10
	mov	r3, r7
	str.w	r11, [sp, #4]
	bl	_lv_img_buf_get_transformed_area
.Ltmp392:
	.loc	12 268 25 is_stmt 1             @ ../GUILib/src/widgets/lv_img.c:268:25
	ldrh	r0, [r4, #20]
	.loc	12 268 10 is_stmt 0             @ ../GUILib/src/widgets/lv_img.c:268:10
	ldrh.w	r1, [sp, #12]
	.loc	12 269 25 is_stmt 1             @ ../GUILib/src/widgets/lv_img.c:269:25
	ldrh	r2, [r4, #22]
	.loc	12 268 28                       @ ../GUILib/src/widgets/lv_img.c:268:28
	add	r1, r0
	.loc	12 269 10                       @ ../GUILib/src/widgets/lv_img.c:269:10
	ldrh.w	r3, [sp, #14]
	.loc	12 268 10                       @ ../GUILib/src/widgets/lv_img.c:268:10
	subs	r1, #1
	strh.w	r1, [sp, #12]
	.loc	12 269 28                       @ ../GUILib/src/widgets/lv_img.c:269:28
	adds	r1, r2, r3
	.loc	12 270 10                       @ ../GUILib/src/widgets/lv_img.c:270:10
	ldrh.w	r3, [sp, #16]
	.loc	12 269 10                       @ ../GUILib/src/widgets/lv_img.c:269:10
	subs	r1, #1
	strh.w	r1, [sp, #14]
	.loc	12 270 28                       @ ../GUILib/src/widgets/lv_img.c:270:28
	add	r0, r3
	.loc	12 271 10                       @ ../GUILib/src/widgets/lv_img.c:271:10
	ldrh.w	r1, [sp, #18]
	.loc	12 270 10                       @ ../GUILib/src/widgets/lv_img.c:270:10
	adds	r0, #1
	strh.w	r0, [sp, #16]
	.loc	12 271 28                       @ ../GUILib/src/widgets/lv_img.c:271:28
	adds	r0, r2, r1
	.loc	12 271 10 is_stmt 0             @ ../GUILib/src/widgets/lv_img.c:271:10
	adds	r0, #1
	strh.w	r0, [sp, #18]
	.loc	12 272 5 is_stmt 1              @ ../GUILib/src/widgets/lv_img.c:272:5
	mov	r0, r4
	mov	r1, r8
	bl	lv_obj_invalidate_area
.Ltmp393:
	.loc	12 275 5                        @ ../GUILib/src/widgets/lv_img.c:275:5
	mov	r0, r4
	.loc	12 274 15                       @ ../GUILib/src/widgets/lv_img.c:274:15
	strh	r5, [r4, #54]
	.loc	12 275 5                        @ ../GUILib/src/widgets/lv_img.c:275:5
	bl	lv_obj_refresh_ext_draw_size
.Ltmp394:
	.loc	12 277 91                       @ ../GUILib/src/widgets/lv_img.c:277:91
	ldrh	r0, [r4, #54]
	.loc	12 277 5 is_stmt 0              @ ../GUILib/src/widgets/lv_img.c:277:5
	mov	r1, r9
	.loc	12 277 84                       @ ../GUILib/src/widgets/lv_img.c:277:84
	muls	r0, r6, r0
	.loc	12 277 5                        @ ../GUILib/src/widgets/lv_img.c:277:5
	ubfx	r0, r0, #8, #16
	str	r0, [sp]
	mov	r0, r8
	mov	r2, r10
	mov	r3, r7
	str.w	r11, [sp, #4]
	bl	_lv_img_buf_get_transformed_area
.Ltmp395:
	.loc	12 278 25 is_stmt 1             @ ../GUILib/src/widgets/lv_img.c:278:25
	ldrh	r0, [r4, #20]
	.loc	12 278 10 is_stmt 0             @ ../GUILib/src/widgets/lv_img.c:278:10
	ldrh.w	r1, [sp, #12]
	.loc	12 279 25 is_stmt 1             @ ../GUILib/src/widgets/lv_img.c:279:25
	ldrh	r2, [r4, #22]
	.loc	12 278 28                       @ ../GUILib/src/widgets/lv_img.c:278:28
	add	r1, r0
	.loc	12 279 10                       @ ../GUILib/src/widgets/lv_img.c:279:10
	ldrh.w	r3, [sp, #14]
	.loc	12 278 10                       @ ../GUILib/src/widgets/lv_img.c:278:10
	subs	r1, #1
	strh.w	r1, [sp, #12]
	.loc	12 279 28                       @ ../GUILib/src/widgets/lv_img.c:279:28
	adds	r1, r2, r3
	.loc	12 280 10                       @ ../GUILib/src/widgets/lv_img.c:280:10
	ldrh.w	r3, [sp, #16]
	.loc	12 279 10                       @ ../GUILib/src/widgets/lv_img.c:279:10
	subs	r1, #1
	strh.w	r1, [sp, #14]
	.loc	12 280 28                       @ ../GUILib/src/widgets/lv_img.c:280:28
	add	r0, r3
	.loc	12 281 10                       @ ../GUILib/src/widgets/lv_img.c:281:10
	ldrh.w	r1, [sp, #18]
	.loc	12 280 10                       @ ../GUILib/src/widgets/lv_img.c:280:10
	adds	r0, #1
	strh.w	r0, [sp, #16]
	.loc	12 281 28                       @ ../GUILib/src/widgets/lv_img.c:281:28
	adds	r0, r2, r1
	.loc	12 281 10 is_stmt 0             @ ../GUILib/src/widgets/lv_img.c:281:10
	adds	r0, #1
	strh.w	r0, [sp, #18]
	.loc	12 282 5 is_stmt 1              @ ../GUILib/src/widgets/lv_img.c:282:5
	mov	r0, r4
	mov	r1, r8
	bl	lv_obj_invalidate_area
.Ltmp396:
.LBB9_2:
	@DEBUG_VALUE: lv_img_set_zoom:obj <- $r4
	@DEBUG_VALUE: lv_img_set_zoom:img <- $r4
	.loc	12 283 1                        @ ../GUILib/src/widgets/lv_img.c:283:1
	add	sp, #20
	pop.w	{r4, r5, r6, r7, r8, r9, r10, r11, pc}
.Ltmp397:
.Lfunc_end9:
	.size	lv_img_set_zoom, .Lfunc_end9-lv_img_set_zoom
	.cfi_endproc
	.cantunwind
	.fnend
                                        @ -- End function
	.section	.text.lv_img_set_antialias,"ax",%progbits
	.hidden	lv_img_set_antialias            @ -- Begin function lv_img_set_antialias
	.globl	lv_img_set_antialias
	.p2align	1
	.type	lv_img_set_antialias,%function
	.code	16                              @ @lv_img_set_antialias
	.thumb_func
lv_img_set_antialias:
.Lfunc_begin10:
	.loc	12 286 0                        @ ../GUILib/src/widgets/lv_img.c:286:0
	.fnstart
	.cfi_startproc
@ %bb.0:
	@DEBUG_VALUE: lv_img_set_antialias:obj <- $r0
	@DEBUG_VALUE: lv_img_set_antialias:obj <- $r0
	@DEBUG_VALUE: lv_img_set_antialias:antialias <- [DW_OP_LLVM_convert 1 7, DW_OP_LLVM_convert 8 7, DW_OP_stack_value] $r1
	@DEBUG_VALUE: lv_img_set_antialias:img <- $r0
	@DEBUG_VALUE: lv_img_set_antialias:img <- $r0
	.loc	12 288 26 prologue_end          @ ../GUILib/src/widgets/lv_img.c:288:26
	ldrb.w	r2, [r0, #56]
.Ltmp398:
	@DEBUG_VALUE: lv_img_set_antialias:antialias <- [DW_OP_LLVM_convert 1 7, DW_OP_LLVM_convert 8 7, DW_OP_stack_value] $r1
	.loc	12 288 8 is_stmt 0              @ ../GUILib/src/widgets/lv_img.c:288:8
	cmp.w	r1, r2, lsr #7
	.loc	12 292 1 is_stmt 1              @ ../GUILib/src/widgets/lv_img.c:292:1
	it	eq
	bxeq	lr
.Ltmp399:
.LBB10_1:
	@DEBUG_VALUE: lv_img_set_antialias:antialias <- [DW_OP_LLVM_convert 1 7, DW_OP_LLVM_convert 8 7, DW_OP_stack_value] $r1
	@DEBUG_VALUE: lv_img_set_antialias:img <- $r0
	@DEBUG_VALUE: lv_img_set_antialias:obj <- $r0
	@DEBUG_VALUE: lv_img_set_antialias:antialias <- [DW_OP_LLVM_convert 1 7, DW_OP_LLVM_convert 8 7, DW_OP_stack_value] $r1
	.loc	12 290 20                       @ ../GUILib/src/widgets/lv_img.c:290:20
	and	r2, r2, #127
	bfi	r2, r1, #7, #1
	strb.w	r2, [r0, #56]
.Ltmp400:
	.loc	12 291 5                        @ ../GUILib/src/widgets/lv_img.c:291:5
	b	lv_obj_invalidate
.Ltmp401:
.Lfunc_end10:
	.size	lv_img_set_antialias, .Lfunc_end10-lv_img_set_antialias
	.cfi_endproc
	.cantunwind
	.fnend
                                        @ -- End function
	.section	.text.lv_img_set_size_mode,"ax",%progbits
	.hidden	lv_img_set_size_mode            @ -- Begin function lv_img_set_size_mode
	.globl	lv_img_set_size_mode
	.p2align	1
	.type	lv_img_set_size_mode,%function
	.code	16                              @ @lv_img_set_size_mode
	.thumb_func
lv_img_set_size_mode:
.Lfunc_begin11:
	.loc	12 295 0                        @ ../GUILib/src/widgets/lv_img.c:295:0
	.fnstart
	.cfi_startproc
@ %bb.0:
	@DEBUG_VALUE: lv_img_set_size_mode:obj <- $r0
	@DEBUG_VALUE: lv_img_set_size_mode:obj <- $r0
	@DEBUG_VALUE: lv_img_set_size_mode:mode <- $r1
	@DEBUG_VALUE: lv_img_set_size_mode:img <- $r0
	.loc	12 298 21 prologue_end          @ ../GUILib/src/widgets/lv_img.c:298:21
	ldrb.w	r2, [r0, #57]
	@DEBUG_VALUE: lv_img_set_size_mode:mode <- $r1
	and	r3, r2, #3
.Ltmp402:
	.loc	12 298 8 is_stmt 0              @ ../GUILib/src/widgets/lv_img.c:298:8
	cmp	r3, r1
	.loc	12 302 1 is_stmt 1              @ ../GUILib/src/widgets/lv_img.c:302:1
	it	eq
	bxeq	lr
.Ltmp403:
.LBB11_1:
	@DEBUG_VALUE: lv_img_set_size_mode:mode <- $r1
	@DEBUG_VALUE: lv_img_set_size_mode:img <- $r0
	@DEBUG_VALUE: lv_img_set_size_mode:obj <- $r0
	.loc	12 300 24                       @ ../GUILib/src/widgets/lv_img.c:300:24
	and	r1, r1, #3
.Ltmp404:
	@DEBUG_VALUE: lv_img_set_size_mode:mode <- [DW_OP_LLVM_entry_value 1] $r1
	and	r2, r2, #252
	add	r1, r2
	strb.w	r1, [r0, #57]
.Ltmp405:
	.loc	12 301 5                        @ ../GUILib/src/widgets/lv_img.c:301:5
	b	lv_obj_invalidate
.Ltmp406:
.Lfunc_end11:
	.size	lv_img_set_size_mode, .Lfunc_end11-lv_img_set_size_mode
	.cfi_endproc
	.cantunwind
	.fnend
                                        @ -- End function
	.section	.text.lv_img_get_src,"ax",%progbits
	.hidden	lv_img_get_src                  @ -- Begin function lv_img_get_src
	.globl	lv_img_get_src
	.p2align	1
	.type	lv_img_get_src,%function
	.code	16                              @ @lv_img_get_src
	.thumb_func
lv_img_get_src:
.Lfunc_begin12:
	.loc	12 309 0                        @ ../GUILib/src/widgets/lv_img.c:309:0
	.fnstart
	.cfi_startproc
@ %bb.0:
	@DEBUG_VALUE: lv_img_get_src:obj <- $r0
	@DEBUG_VALUE: lv_img_get_src:obj <- $r0
	@DEBUG_VALUE: lv_img_get_src:img <- $r0
	@DEBUG_VALUE: lv_img_get_src:img <- $r0
	.loc	12 314 17 prologue_end          @ ../GUILib/src/widgets/lv_img.c:314:17
	ldr	r0, [r0, #36]
.Ltmp407:
	@DEBUG_VALUE: lv_img_get_src:obj <- [DW_OP_LLVM_entry_value 1] $r0
	.loc	12 314 5 is_stmt 0              @ ../GUILib/src/widgets/lv_img.c:314:5
	bx	lr
.Ltmp408:
.Lfunc_end12:
	.size	lv_img_get_src, .Lfunc_end12-lv_img_get_src
	.cfi_endproc
	.cantunwind
	.fnend
                                        @ -- End function
	.section	.text.lv_img_get_offset_x,"ax",%progbits
	.hidden	lv_img_get_offset_x             @ -- Begin function lv_img_get_offset_x
	.globl	lv_img_get_offset_x
	.p2align	1
	.type	lv_img_get_offset_x,%function
	.code	16                              @ @lv_img_get_offset_x
	.thumb_func
lv_img_get_offset_x:
.Lfunc_begin13:
	.loc	12 318 0 is_stmt 1              @ ../GUILib/src/widgets/lv_img.c:318:0
	.fnstart
	.cfi_startproc
@ %bb.0:
	@DEBUG_VALUE: lv_img_get_offset_x:obj <- $r0
	@DEBUG_VALUE: lv_img_get_offset_x:obj <- $r0
	@DEBUG_VALUE: lv_img_get_offset_x:img <- $r0
	@DEBUG_VALUE: lv_img_get_offset_x:img <- $r0
	.loc	12 323 24 prologue_end          @ ../GUILib/src/widgets/lv_img.c:323:24
	ldrsh.w	r0, [r0, #40]
.Ltmp409:
	@DEBUG_VALUE: lv_img_get_offset_x:obj <- [DW_OP_LLVM_entry_value 1] $r0
	.loc	12 323 5 is_stmt 0              @ ../GUILib/src/widgets/lv_img.c:323:5
	bx	lr
.Ltmp410:
.Lfunc_end13:
	.size	lv_img_get_offset_x, .Lfunc_end13-lv_img_get_offset_x
	.cfi_endproc
	.cantunwind
	.fnend
                                        @ -- End function
	.section	.text.lv_img_get_offset_y,"ax",%progbits
	.hidden	lv_img_get_offset_y             @ -- Begin function lv_img_get_offset_y
	.globl	lv_img_get_offset_y
	.p2align	1
	.type	lv_img_get_offset_y,%function
	.code	16                              @ @lv_img_get_offset_y
	.thumb_func
lv_img_get_offset_y:
.Lfunc_begin14:
	.loc	12 327 0 is_stmt 1              @ ../GUILib/src/widgets/lv_img.c:327:0
	.fnstart
	.cfi_startproc
@ %bb.0:
	@DEBUG_VALUE: lv_img_get_offset_y:obj <- $r0
	@DEBUG_VALUE: lv_img_get_offset_y:obj <- $r0
	@DEBUG_VALUE: lv_img_get_offset_y:img <- $r0
	@DEBUG_VALUE: lv_img_get_offset_y:img <- $r0
	.loc	12 332 24 prologue_end          @ ../GUILib/src/widgets/lv_img.c:332:24
	ldrsh.w	r0, [r0, #42]
.Ltmp411:
	@DEBUG_VALUE: lv_img_get_offset_y:obj <- [DW_OP_LLVM_entry_value 1] $r0
	.loc	12 332 5 is_stmt 0              @ ../GUILib/src/widgets/lv_img.c:332:5
	bx	lr
.Ltmp412:
.Lfunc_end14:
	.size	lv_img_get_offset_y, .Lfunc_end14-lv_img_get_offset_y
	.cfi_endproc
	.cantunwind
	.fnend
                                        @ -- End function
	.section	.text.lv_img_get_angle,"ax",%progbits
	.hidden	lv_img_get_angle                @ -- Begin function lv_img_get_angle
	.globl	lv_img_get_angle
	.p2align	1
	.type	lv_img_get_angle,%function
	.code	16                              @ @lv_img_get_angle
	.thumb_func
lv_img_get_angle:
.Lfunc_begin15:
	.loc	12 336 0 is_stmt 1              @ ../GUILib/src/widgets/lv_img.c:336:0
	.fnstart
	.cfi_startproc
@ %bb.0:
	@DEBUG_VALUE: lv_img_get_angle:obj <- $r0
	@DEBUG_VALUE: lv_img_get_angle:obj <- $r0
	@DEBUG_VALUE: lv_img_get_angle:img <- $r0
	@DEBUG_VALUE: lv_img_get_angle:img <- $r0
	.loc	12 341 17 prologue_end          @ ../GUILib/src/widgets/lv_img.c:341:17
	ldrh	r0, [r0, #48]
.Ltmp413:
	@DEBUG_VALUE: lv_img_get_angle:obj <- [DW_OP_LLVM_entry_value 1] $r0
	.loc	12 341 5 is_stmt 0              @ ../GUILib/src/widgets/lv_img.c:341:5
	bx	lr
.Ltmp414:
.Lfunc_end15:
	.size	lv_img_get_angle, .Lfunc_end15-lv_img_get_angle
	.cfi_endproc
	.cantunwind
	.fnend
                                        @ -- End function
	.section	.text.lv_img_get_pivot,"ax",%progbits
	.hidden	lv_img_get_pivot                @ -- Begin function lv_img_get_pivot
	.globl	lv_img_get_pivot
	.p2align	1
	.type	lv_img_get_pivot,%function
	.code	16                              @ @lv_img_get_pivot
	.thumb_func
lv_img_get_pivot:
.Lfunc_begin16:
	.loc	12 345 0 is_stmt 1              @ ../GUILib/src/widgets/lv_img.c:345:0
	.fnstart
	.cfi_startproc
@ %bb.0:
	@DEBUG_VALUE: lv_img_get_pivot:obj <- $r0
	@DEBUG_VALUE: lv_img_get_pivot:obj <- $r0
	@DEBUG_VALUE: lv_img_get_pivot:pivot <- $r1
	@DEBUG_VALUE: lv_img_get_pivot:img <- $r0
	.loc	12 350 19 prologue_end          @ ../GUILib/src/widgets/lv_img.c:350:19
	ldr.w	r0, [r0, #50]
.Ltmp415:
	@DEBUG_VALUE: lv_img_get_pivot:obj <- [DW_OP_LLVM_entry_value 1] $r0
	@DEBUG_VALUE: lv_img_get_pivot:pivot <- $r1
	str	r0, [r1]
	.loc	12 351 1                        @ ../GUILib/src/widgets/lv_img.c:351:1
	bx	lr
.Ltmp416:
.Lfunc_end16:
	.size	lv_img_get_pivot, .Lfunc_end16-lv_img_get_pivot
	.cfi_endproc
	.cantunwind
	.fnend
                                        @ -- End function
	.section	.text.lv_img_get_zoom,"ax",%progbits
	.hidden	lv_img_get_zoom                 @ -- Begin function lv_img_get_zoom
	.globl	lv_img_get_zoom
	.p2align	1
	.type	lv_img_get_zoom,%function
	.code	16                              @ @lv_img_get_zoom
	.thumb_func
lv_img_get_zoom:
.Lfunc_begin17:
	.loc	12 354 0                        @ ../GUILib/src/widgets/lv_img.c:354:0
	.fnstart
	.cfi_startproc
@ %bb.0:
	@DEBUG_VALUE: lv_img_get_zoom:obj <- $r0
	@DEBUG_VALUE: lv_img_get_zoom:obj <- $r0
	@DEBUG_VALUE: lv_img_get_zoom:img <- $r0
	.loc	12 359 17 prologue_end          @ ../GUILib/src/widgets/lv_img.c:359:17
	ldrh	r0, [r0, #54]
.Ltmp417:
	@DEBUG_VALUE: lv_img_get_zoom:obj <- [DW_OP_LLVM_entry_value 1] $r0
	.loc	12 359 5 is_stmt 0              @ ../GUILib/src/widgets/lv_img.c:359:5
	bx	lr
.Ltmp418:
.Lfunc_end17:
	.size	lv_img_get_zoom, .Lfunc_end17-lv_img_get_zoom
	.cfi_endproc
	.cantunwind
	.fnend
                                        @ -- End function
	.section	.text.lv_img_get_antialias,"ax",%progbits
	.hidden	lv_img_get_antialias            @ -- Begin function lv_img_get_antialias
	.globl	lv_img_get_antialias
	.p2align	1
	.type	lv_img_get_antialias,%function
	.code	16                              @ @lv_img_get_antialias
	.thumb_func
lv_img_get_antialias:
.Lfunc_begin18:
	.loc	12 363 0 is_stmt 1              @ ../GUILib/src/widgets/lv_img.c:363:0
	.fnstart
	.cfi_startproc
@ %bb.0:
	@DEBUG_VALUE: lv_img_get_antialias:obj <- $r0
	@DEBUG_VALUE: lv_img_get_antialias:obj <- $r0
	@DEBUG_VALUE: lv_img_get_antialias:img <- $r0
	@DEBUG_VALUE: lv_img_get_antialias:img <- $r0
	.loc	12 368 17 prologue_end          @ ../GUILib/src/widgets/lv_img.c:368:17
	ldrb.w	r0, [r0, #56]
.Ltmp419:
	@DEBUG_VALUE: lv_img_get_antialias:obj <- [DW_OP_LLVM_entry_value 1] $r0
	.loc	12 368 5 is_stmt 0              @ ../GUILib/src/widgets/lv_img.c:368:5
	lsrs	r0, r0, #7
	bx	lr
.Ltmp420:
.Lfunc_end18:
	.size	lv_img_get_antialias, .Lfunc_end18-lv_img_get_antialias
	.cfi_endproc
	.cantunwind
	.fnend
                                        @ -- End function
	.section	.text.lv_img_get_size_mode,"ax",%progbits
	.hidden	lv_img_get_size_mode            @ -- Begin function lv_img_get_size_mode
	.globl	lv_img_get_size_mode
	.p2align	1
	.type	lv_img_get_size_mode,%function
	.code	16                              @ @lv_img_get_size_mode
	.thumb_func
lv_img_get_size_mode:
.Lfunc_begin19:
	.loc	12 372 0 is_stmt 1              @ ../GUILib/src/widgets/lv_img.c:372:0
	.fnstart
	.cfi_startproc
@ %bb.0:
	@DEBUG_VALUE: lv_img_get_size_mode:obj <- $r0
	@DEBUG_VALUE: lv_img_get_size_mode:obj <- $r0
	@DEBUG_VALUE: lv_img_get_size_mode:img <- $r0
	.loc	12 375 17 prologue_end          @ ../GUILib/src/widgets/lv_img.c:375:17
	ldrb.w	r0, [r0, #57]
.Ltmp421:
	@DEBUG_VALUE: lv_img_get_size_mode:obj <- [DW_OP_LLVM_entry_value 1] $r0
	.loc	12 375 5 is_stmt 0              @ ../GUILib/src/widgets/lv_img.c:375:5
	and	r0, r0, #3
	bx	lr
.Ltmp422:
.Lfunc_end19:
	.size	lv_img_get_size_mode, .Lfunc_end19-lv_img_get_size_mode
	.cfi_endproc
	.cantunwind
	.fnend
                                        @ -- End function
	.section	.text.lv_img_get_transformed_size,"ax",%progbits
	.p2align	1                               @ -- Begin function lv_img_get_transformed_size
	.type	lv_img_get_transformed_size,%function
	.code	16                              @ @lv_img_get_transformed_size
	.thumb_func
lv_img_get_transformed_size:
.Lfunc_begin20:
	.loc	12 421 0 is_stmt 1              @ ../GUILib/src/widgets/lv_img.c:421:0
	.fnstart
	.cfi_startproc
@ %bb.0:
	@DEBUG_VALUE: lv_img_get_transformed_size:obj <- $r0
	.save	{r4, r5, r7, lr}
	push	{r4, r5, r7, lr}
	.cfi_def_cfa_offset 16
	.cfi_offset lr, -4
	.cfi_offset r7, -8
	.cfi_offset r5, -12
	.cfi_offset r4, -16
	.pad	#16
	sub	sp, #16
	.cfi_def_cfa_offset 32
.Ltmp423:
	.loc	20 81 26 prologue_end           @ ../GUILib/src/widgets/../core/lv_obj_style_gen.h:81:26
	movs	r1, #0
	movw	r2, #14350
	mov	r4, r0
.Ltmp424:
	@DEBUG_VALUE: lv_obj_get_style_transform_zoom:part <- 0
	@DEBUG_VALUE: lv_obj_get_style_transform_zoom:obj <- $r4
	@DEBUG_VALUE: lv_img_get_transformed_size:img <- $r4
	@DEBUG_VALUE: lv_img_get_transformed_size:obj <- $r4
	bl	lv_obj_get_style_prop
.Ltmp425:
	@DEBUG_VALUE: lv_obj_get_style_transform_zoom:v <- $r0
	.loc	12 425 37                       @ ../GUILib/src/widgets/lv_img.c:425:37
	ldrh	r1, [r4, #54]
	.loc	12 424 26                       @ ../GUILib/src/widgets/lv_img.c:424:26
	sxth	r0, r0
.Ltmp426:
	@DEBUG_VALUE: lv_img_get_transformed_size:zoom_final <- $r0
	.loc	12 425 30                       @ ../GUILib/src/widgets/lv_img.c:425:30
	mul	r5, r0, r1
.Ltmp427:
	@DEBUG_VALUE: lv_obj_get_style_transform_angle:part <- 0
	@DEBUG_VALUE: lv_obj_get_style_transform_angle:obj <- $r4
	@DEBUG_VALUE: lv_img_get_transformed_size:zoom_final <- [DW_OP_constu 8, DW_OP_shra, DW_OP_stack_value] $r5
	.loc	20 87 26                        @ ../GUILib/src/widgets/../core/lv_obj_style_gen.h:87:26
	mov	r0, r4
	movs	r1, #0
	movw	r2, #14351
	bl	lv_obj_get_style_prop
.Ltmp428:
	.loc	12 427 25                       @ ../GUILib/src/widgets/lv_img.c:427:25
	ldrh	r1, [r4, #48]
.Ltmp429:
	@DEBUG_VALUE: lv_img_get_transformed_size:angle_final <- [DW_OP_LLVM_convert 16 5, DW_OP_LLVM_convert 32 5, DW_OP_stack_value] $r0
	@DEBUG_VALUE: lv_obj_get_style_transform_angle:v <- $r0
	@DEBUG_VALUE: lv_obj_get_style_transform_angle:part <- 0
	@DEBUG_VALUE: lv_obj_get_style_transform_angle:obj <- $r4
	.loc	12 430 68                       @ ../GUILib/src/widgets/lv_img.c:430:68
	ldrsh.w	r2, [r4, #46]
	.loc	12 427 17                       @ ../GUILib/src/widgets/lv_img.c:427:17
	add	r0, r1
.Ltmp430:
	@DEBUG_VALUE: lv_img_get_transformed_size:angle_final <- undef
	.loc	12 430 60                       @ ../GUILib/src/widgets/lv_img.c:430:60
	ldrsh.w	r1, [r4, #44]
	.loc	12 430 5 is_stmt 0              @ ../GUILib/src/widgets/lv_img.c:430:5
	ubfx	r3, r5, #8, #16
	.loc	12 431 69 is_stmt 1             @ ../GUILib/src/widgets/lv_img.c:431:69
	adds	r4, #50
.Ltmp431:
	.loc	12 430 5                        @ ../GUILib/src/widgets/lv_img.c:430:5
	str	r3, [sp]
	sxth	r3, r0
	add	r0, sp, #8
	str	r4, [sp, #4]
	bl	_lv_img_buf_get_transformed_area
.Ltmp432:
	@DEBUG_VALUE: lv_area_get_width:area_p <- [DW_OP_plus_uconst 8, DW_OP_stack_value] $sp
	.loc	6 125 33                        @ ../GUILib/src/hal/../misc/lv_area.h:125:33
	ldrh.w	r0, [sp, #12]
	.loc	6 125 46 is_stmt 0              @ ../GUILib/src/hal/../misc/lv_area.h:125:46
	ldrh.w	r1, [sp, #8]
.Ltmp433:
	.loc	6 135 46 is_stmt 1              @ ../GUILib/src/hal/../misc/lv_area.h:135:46
	ldrh.w	r2, [sp, #10]
.Ltmp434:
	.loc	6 125 49                        @ ../GUILib/src/hal/../misc/lv_area.h:125:49
	subs	r0, r0, r1
.Ltmp435:
	.loc	6 135 33                        @ ../GUILib/src/hal/../misc/lv_area.h:135:33
	ldrh.w	r1, [sp, #14]
.Ltmp436:
	.loc	6 125 49                        @ ../GUILib/src/hal/../misc/lv_area.h:125:49
	adds	r0, #1
.Ltmp437:
	@DEBUG_VALUE: lv_area_get_height:area_p <- [DW_OP_plus_uconst 8, DW_OP_stack_value] $sp
	@DEBUG_VALUE: lv_area_get_width:area_p <- [DW_OP_plus_uconst 8, DW_OP_stack_value] $sp
	.loc	6 135 49                        @ ../GUILib/src/hal/../misc/lv_area.h:135:49
	subs	r1, r1, r2
	adds	r1, #1
.Ltmp438:
	.loc	12 436 1                        @ ../GUILib/src/widgets/lv_img.c:436:1
	pkhbt	r0, r0, r1, lsl #16
	add	sp, #16
	pop	{r4, r5, r7, pc}
.Ltmp439:
.Lfunc_end20:
	.size	lv_img_get_transformed_size, .Lfunc_end20-lv_img_get_transformed_size
	.cfi_endproc
	.cantunwind
	.fnend
                                        @ -- End function
	.hidden	lv_img_class                    @ @lv_img_class
	.type	lv_img_class,%object
	.section	.rodata.lv_img_class,"a",%progbits
	.globl	lv_img_class
	.p2align	2
lv_img_class:
	.long	lv_obj_class
	.long	lv_img_constructor
	.long	lv_img_destructor
	.long	0
	.long	lv_img_event
	.short	10193                           @ 0x27d1
	.short	10193                           @ 0x27d1
	.byte	192                             @ 0xc0
	.byte	3                               @ 0x3
	.byte	0                               @ 0x0
	.zero	1
	.size	lv_img_class, 28

	.section	".note.GNU-stack","",%progbits
	.eabi_attribute	30, 3	@ Tag_ABI_optimization_goals
	.ARM_attribute	16, 1	@ Tag_AV_eba