	.text
	.syntax unified
	.eabi_attribute	67, "2.09"	@ Tag_conformance
	.cpu	cortex-m4
	.eabi_attribute	6, 13	@ Tag_CPU_arch
	.eabi_attribute	7, 77	@ Tag_CPU_arch_profile
	.eabi_attribute	8, 0	@ Tag_ARM_ISA_use
	.eabi_attribute	9, 2	@ Tag_THUMB_ISA_use
	.fpu	fpv4-sp-d16
	.eabi_attribute	27, 1	@ Tag_ABI_HardFP_use
	.eabi_attribute	36, 1	@ Tag_FP_HP_extension
	.eabi_attribute	34, 1	@ Tag_CPU_unaligned_access
	.eabi_attribute	17, 1	@ Tag_ABI_PCS_GOT_use
	.eabi_attribute	20, 2	@ Tag_ABI_FP_denormal
	.eabi_attribute	21, 0	@ Tag_ABI_FP_exceptions
	.eabi_attribute	23, 1	@ Tag_ABI_FP_number_model
	.eabi_attribute	24, 1	@ Tag_ABI_align_needed
	.eabi_attribute	25, 1	@ Tag_ABI_align_preserved
	.eabi_attribute	28, 1	@ Tag_ABI_VFP_args
	.eabi_attribute	38, 1	@ Tag_ABI_FP_16bit_format
	.eabi_attribute	18, 2	@ Tag_ABI_PCS_wchar_t
	.eabi_attribute	26, 1	@ Tag_ABI_enum_size
	.eabi_attribute	14, 0	@ Tag_ABI_PCS_R9_use
	.file	"lv_indev.c"
	.file	1 "C:\\Users\\Hyacincher\\Desktop\\HyTelectrl\\Code\\Project" "../GUILib/src/core/../hal/lv_hal_indev.h"
	.file	2 "D:\\Keil MDK\\ARM\\ARMCLANG\\Bin\\..\\include" "stdint.h"
	.file	3 "C:\\Users\\Hyacincher\\Desktop\\HyTelectrl\\Code\\Project" "../GUILib/src/hal/../misc/lv_area.h"
	.file	4 "C:\\Users\\Hyacincher\\Desktop\\HyTelectrl\\Code\\Project" "../GUILib/src/hal/lv_hal_disp.h"
	.file	5 "C:\\Users\\Hyacincher\\Desktop\\HyTelectrl\\Code\\Project" "../GUILib/src/hal/../misc/lv_color.h"
	.file	6 "C:\\Users\\Hyacincher\\Desktop\\HyTelectrl\\Code\\Project" "../GUILib/src/core/../misc/lv_timer.h"
	.file	7 "C:\\Users\\Hyacincher\\Desktop\\HyTelectrl\\Code\\Project" "../GUILib/src/core/lv_obj_class.h"
	.file	8 "C:\\Users\\Hyacincher\\Desktop\\HyTelectrl\\Code\\Project" "../GUILib/src/core/lv_event.h"
	.file	9 "C:\\Users\\Hyacincher\\Desktop\\HyTelectrl\\Code\\Project" "../GUILib/src/core/../core/lv_obj.h"
	.file	10 "C:\\Users\\Hyacincher\\Desktop\\HyTelectrl\\Code\\Project" "../GUILib/src/core/../misc/lv_ll.h"
	.file	11 "C:\\Users\\Hyacincher\\Desktop\\HyTelectrl\\Code\\Project" "../GUILib/src/core/lv_group.h"
	.file	12 "C:\\Users\\Hyacincher\\Desktop\\HyTelectrl\\Code\\Project" "../GUILib/src/core/lv_obj_scroll.h"
	.file	13 "C:\\Users\\Hyacincher\\Desktop\\HyTelectrl\\Code\\Project" "../GUILib/src/hal/../draw/../misc/lv_style.h"
	.file	14 "C:\\Users\\Hyacincher\\Desktop\\HyTelectrl\\Code\\Project" "../GUILib/src/core/lv_obj_style.h"
	.file	15 "C:\\Users\\Hyacincher\\Desktop\\HyTelectrl\\Code\\Project" "../GUILib/src/core/lv_theme.h"
	.file	16 "C:\\Users\\Hyacincher\\Desktop\\HyTelectrl\\Code\\Project" "../GUILib/src/hal/../draw/../font/lv_font.h"
	.file	17 "C:\\Users\\Hyacincher\\Desktop\\HyTelectrl\\Code\\Project" "../GUILib/src/core/lv_indev.c"
	.section	.text.lv_indev_read_timer_cb,"ax",%progbits
	.hidden	lv_indev_read_timer_cb          @ -- Begin function lv_indev_read_timer_cb
	.globl	lv_indev_read_timer_cb
	.p2align	2
	.type	lv_indev_read_timer_cb,%function
	.code	16                              @ @lv_indev_read_timer_cb
	.thumb_func
lv_indev_read_timer_cb:
.Lfunc_begin0:
	.loc	17 65 0                         @ ../GUILib/src/core/lv_indev.c:65:0
	.fnstart
	.cfi_sections .debug_frame
	.cfi_startproc
@ %bb.0:
	@DEBUG_VALUE: lv_indev_read_timer_cb:timer <- $r0
	@DEBUG_VALUE: lv_indev_read_timer_cb:timer <- $r0
	.save	{r4, r5, r6, r7, r8, r9, r10, r11, lr}
	push.w	{r4, r5, r6, r7, r8, r9, r10, r11, lr}
	.cfi_def_cfa_offset 36
	.cfi_offset lr, -4
	.cfi_offset r11, -8
	.cfi_offset r10, -12
	.cfi_offset r9, -16
	.cfi_offset r8, -20
	.cfi_offset r7, -24
	.cfi_offset r6, -28
	.cfi_offset r5, -32
	.cfi_offset r4, -36
	.pad	#20
	sub	sp, #20
	.cfi_def_cfa_offset 56
.Ltmp0:
	.loc	17 70 24 prologue_end           @ ../GUILib/src/core/lv_indev.c:70:24
	ldr	r5, [r0, #12]
	.loc	17 70 15 is_stmt 0              @ ../GUILib/src/core/lv_indev.c:70:15
	movw	r8, :lower16:indev_act
	movt	r8, :upper16:indev_act
	str.w	r5, [r8]
.Ltmp1:
	.loc	17 73 19 is_stmt 1              @ ../GUILib/src/core/lv_indev.c:73:19
	ldr	r0, [r5]
.Ltmp2:
	@DEBUG_VALUE: lv_indev_read_timer_cb:timer <- [DW_OP_LLVM_entry_value 1] $r0
	.loc	17 73 27 is_stmt 0              @ ../GUILib/src/core/lv_indev.c:73:27
	ldr	r0, [r0, #16]
.Ltmp3:
	.loc	17 73 8                         @ ../GUILib/src/core/lv_indev.c:73:8
	cmp	r0, #0
	beq.w	.LBB0_161
.Ltmp4:
@ %bb.1:
	@DEBUG_VALUE: lv_indev_read_timer_cb:timer <- [DW_OP_LLVM_entry_value 1] $r0
	.loc	17 76 5 is_stmt 1               @ ../GUILib/src/core/lv_indev.c:76:5
	mov	r0, r5
	bl	indev_proc_reset_query_handler
.Ltmp5:
	.loc	17 78 24                        @ ../GUILib/src/core/lv_indev.c:78:24
	ldrb	r0, [r5, #5]
.Ltmp6:
	.loc	17 78 8 is_stmt 0               @ ../GUILib/src/core/lv_indev.c:78:8
	lsls	r0, r0, #29
	bmi.w	.LBB0_161
.Ltmp7:
@ %bb.2:
	@DEBUG_VALUE: lv_indev_read_timer_cb:timer <- [DW_OP_LLVM_entry_value 1] $r0
	.loc	17 0 8                          @ ../GUILib/src/core/lv_indev.c:0:8
	movw	r11, :lower16:indev_obj_act
	add	r7, sp, #4
	movt	r11, :upper16:indev_obj_act
	mov.w	r9, #0
.Ltmp8:
	.p2align	2
.LBB0_3:                                @ =>This Loop Header: Depth=1
                                        @     Child Loop BB0_155 Depth 2
                                        @     Child Loop BB0_159 Depth 2
                                        @     Child Loop BB0_151 Depth 2
                                        @     Child Loop BB0_157 Depth 2
	@DEBUG_VALUE: lv_indev_read_timer_cb:timer <- [DW_OP_LLVM_entry_value 1] $r0
	.loc	17 82 9 is_stmt 1               @ ../GUILib/src/core/lv_indev.c:82:9
	mov	r0, r5
	mov	r1, r7
	bl	_lv_indev_read
.Ltmp9:
	.loc	17 86 40                        @ ../GUILib/src/core/lv_indev.c:86:40
	ldr.w	r5, [r8]
	.loc	17 83 33                        @ ../GUILib/src/core/lv_indev.c:83:33
	ldrb.w	r4, [sp, #19]
.Ltmp10:
	@DEBUG_VALUE: lv_indev_read_timer_cb:continue_reading <- [DW_OP_LLVM_convert 1 7, DW_OP_LLVM_convert 8 7, DW_OP_stack_value] undef
	.loc	17 86 9                         @ ../GUILib/src/core/lv_indev.c:86:9
	mov	r0, r5
	bl	indev_proc_reset_query_handler
.Ltmp11:
	.loc	17 89 38                        @ ../GUILib/src/core/lv_indev.c:89:38
	ldrb.w	r0, [sp, #18]
	.loc	17 87 23                        @ ../GUILib/src/core/lv_indev.c:87:23
	str.w	r9, [r11]
	.loc	17 92 12                        @ ../GUILib/src/core/lv_indev.c:92:12
	cmp	r0, #1
	.loc	17 89 31                        @ ../GUILib/src/core/lv_indev.c:89:31
	strb	r0, [r5, #4]
	.loc	17 92 12                        @ ../GUILib/src/core/lv_indev.c:92:12
	beq	.LBB0_6
.Ltmp12:
@ %bb.4:                                @   in Loop: Header=BB0_3 Depth=1
	@DEBUG_VALUE: lv_indev_read_timer_cb:timer <- [DW_OP_LLVM_entry_value 1] $r0
	.loc	17 95 28                        @ ../GUILib/src/core/lv_indev.c:95:28
	ldr	r1, [r5]
	.loc	17 95 36 is_stmt 0              @ ../GUILib/src/core/lv_indev.c:95:36
	ldrb	r0, [r1]
	.loc	17 95 66                        @ ../GUILib/src/core/lv_indev.c:95:66
	cmp	r0, #4
	bne	.LBB0_7
.Ltmp13:
@ %bb.5:                                @   in Loop: Header=BB0_3 Depth=1
	@DEBUG_VALUE: lv_indev_read_timer_cb:timer <- [DW_OP_LLVM_entry_value 1] $r0
	.loc	17 0 66                         @ ../GUILib/src/core/lv_indev.c:0:66
	ldrh.w	r0, [sp, #16]
	.loc	17 95 66                        @ ../GUILib/src/core/lv_indev.c:95:66
	cbz	r0, .LBB0_7
.Ltmp14:
.LBB0_6:                                @   in Loop: Header=BB0_3 Depth=1
	@DEBUG_VALUE: lv_indev_read_timer_cb:timer <- [DW_OP_LLVM_entry_value 1] $r0
	.loc	17 0 0                          @ ../GUILib/src/core/lv_indev.c:0:0
	bl	lv_tick_get
.Ltmp15:
	ldr.w	r5, [r8]
	ldr	r1, [r5]
	ldr	r2, [r1, #16]
	str.w	r0, [r2, #344]
.Ltmp16:
.LBB0_7:                                @   in Loop: Header=BB0_3 Depth=1
	@DEBUG_VALUE: lv_indev_read_timer_cb:timer <- [DW_OP_LLVM_entry_value 1] $r0
	.loc	17 99 31 is_stmt 1              @ ../GUILib/src/core/lv_indev.c:99:31
	ldrb	r0, [r1]
.Ltmp17:
	.loc	17 99 12 is_stmt 0              @ ../GUILib/src/core/lv_indev.c:99:12
	subs	r0, #1
	cmp	r0, #3
	bhi.w	.LBB0_113
.Ltmp18:
@ %bb.8:                                @   in Loop: Header=BB0_3 Depth=1
	@DEBUG_VALUE: lv_indev_read_timer_cb:timer <- [DW_OP_LLVM_entry_value 1] $r0
	.loc	17 0 12                         @ ../GUILib/src/core/lv_indev.c:0:12
.LCPI0_0:
	tbb	[pc, r0]
.Ltmp19:
@ %bb.9:
.LJTI0_0:
	.byte	(.LBB0_10-(.LCPI0_0+4))/2
	.byte	(.LBB0_17-(.LCPI0_0+4))/2
	.byte	(.LBB0_19-(.LCPI0_0+4))/2
	.byte	(.LBB0_27-(.LCPI0_0+4))/2
	.p2align	1
.LBB0_10:                               @   in Loop: Header=BB0_3 Depth=1
.Ltmp20:
	@DEBUG_VALUE: lv_indev_read_timer_cb:timer <- [DW_OP_LLVM_entry_value 1] $r0
	@DEBUG_VALUE: indev_pointer_proc:i <- $r5
	@DEBUG_VALUE: indev_pointer_proc:data <- [DW_OP_plus_uconst 4, DW_OP_stack_value] $sp
	.loc	17 334 58 is_stmt 1             @ ../GUILib/src/core/lv_indev.c:334:58
	ldrh.w	r0, [sp, #4]
	.loc	17 335 58                       @ ../GUILib/src/core/lv_indev.c:335:58
	ldrh.w	r2, [sp, #6]
	.loc	17 332 35                       @ ../GUILib/src/core/lv_indev.c:332:35
	ldr	r3, [r1, #16]
.Ltmp21:
	@DEBUG_VALUE: indev_pointer_proc:disp <- $r3
	.loc	17 334 44                       @ ../GUILib/src/core/lv_indev.c:334:44
	strh	r0, [r5, #16]
	.loc	17 335 44                       @ ../GUILib/src/core/lv_indev.c:335:44
	strh	r2, [r5, #18]
.Ltmp22:
	.loc	17 337 14                       @ ../GUILib/src/core/lv_indev.c:337:14
	ldr	r3, [r3]
.Ltmp23:
	.loc	17 337 22 is_stmt 0             @ ../GUILib/src/core/lv_indev.c:337:22
	ldr	r7, [r3, #16]
	.loc	17 337 49                       @ ../GUILib/src/core/lv_indev.c:337:49
	lsls	r6, r7, #26
	bpl	.LBB0_12
.Ltmp24:
@ %bb.11:                               @   in Loop: Header=BB0_3 Depth=1
	@DEBUG_VALUE: indev_pointer_proc:i <- $r5
	@DEBUG_VALUE: indev_pointer_proc:data <- [DW_OP_plus_uconst 4, DW_OP_stack_value] $sp
	@DEBUG_VALUE: lv_indev_read_timer_cb:timer <- [DW_OP_LLVM_entry_value 1] $r0
	.loc	17 338 39 is_stmt 1             @ ../GUILib/src/core/lv_indev.c:338:39
	ldrh	r6, [r3]
	.loc	17 338 63 is_stmt 0             @ ../GUILib/src/core/lv_indev.c:338:63
	mvns	r0, r0
	add	r0, r6
	.loc	17 339 39 is_stmt 1             @ ../GUILib/src/core/lv_indev.c:339:39
	ldrh	r6, [r3, #2]
	.loc	17 339 63 is_stmt 0             @ ../GUILib/src/core/lv_indev.c:339:63
	mvns	r2, r2
	add	r2, r6
	.loc	17 338 23 is_stmt 1             @ ../GUILib/src/core/lv_indev.c:338:23
	strh.w	r0, [sp, #4]
	.loc	17 339 23                       @ ../GUILib/src/core/lv_indev.c:339:23
	strh.w	r2, [sp, #6]
.Ltmp25:
.LBB0_12:                               @   in Loop: Header=BB0_3 Depth=1
	@DEBUG_VALUE: indev_pointer_proc:i <- $r5
	@DEBUG_VALUE: indev_pointer_proc:data <- [DW_OP_plus_uconst 4, DW_OP_stack_value] $sp
	@DEBUG_VALUE: lv_indev_read_timer_cb:timer <- [DW_OP_LLVM_entry_value 1] $r0
	.loc	17 341 22                       @ ../GUILib/src/core/lv_indev.c:341:22
	movs	r6, #2
	orr.w	r7, r6, r7, lsr #4
	.loc	17 341 48 is_stmt 0             @ ../GUILib/src/core/lv_indev.c:341:48
	and	r7, r7, #3
	cmp	r7, #3
	bne	.LBB0_14
.Ltmp26:
@ %bb.13:                               @   in Loop: Header=BB0_3 Depth=1
	@DEBUG_VALUE: indev_pointer_proc:i <- $r5
	@DEBUG_VALUE: indev_pointer_proc:data <- [DW_OP_plus_uconst 4, DW_OP_stack_value] $sp
	@DEBUG_VALUE: lv_indev_read_timer_cb:timer <- [DW_OP_LLVM_entry_value 1] $r0
	@DEBUG_VALUE: tmp <- $r2
	.loc	17 343 23 is_stmt 1             @ ../GUILib/src/core/lv_indev.c:343:23
	strh.w	r0, [sp, #6]
	.loc	17 344 39                       @ ../GUILib/src/core/lv_indev.c:344:39
	ldrh	r0, [r3, #2]
	.loc	17 344 53 is_stmt 0             @ ../GUILib/src/core/lv_indev.c:344:53
	mvns	r2, r2
.Ltmp27:
	add	r0, r2
	.loc	17 344 23                       @ ../GUILib/src/core/lv_indev.c:344:23
	strh.w	r0, [sp, #4]
.Ltmp28:
.LBB0_14:                               @   in Loop: Header=BB0_3 Depth=1
	@DEBUG_VALUE: indev_pointer_proc:i <- $r5
	@DEBUG_VALUE: indev_pointer_proc:data <- [DW_OP_plus_uconst 4, DW_OP_stack_value] $sp
	@DEBUG_VALUE: lv_indev_read_timer_cb:timer <- [DW_OP_LLVM_entry_value 1] $r0
	.loc	17 349 56 is_stmt 1             @ ../GUILib/src/core/lv_indev.c:349:56
	ldr	r0, [r1, #16]
	.loc	17 349 25 is_stmt 0             @ ../GUILib/src/core/lv_indev.c:349:25
	bl	lv_disp_get_hor_res
.Ltmp29:
	.loc	17 352 48 is_stmt 1             @ ../GUILib/src/core/lv_indev.c:352:48
	ldr	r0, [r5]
	.loc	17 352 56 is_stmt 0             @ ../GUILib/src/core/lv_indev.c:352:56
	ldr	r0, [r0, #16]
	.loc	17 352 25                       @ ../GUILib/src/core/lv_indev.c:352:25
	bl	lv_disp_get_ver_res
.Ltmp30:
	.loc	17 356 11 is_stmt 1             @ ../GUILib/src/core/lv_indev.c:356:11
	ldr	r0, [r5, #76]
	add	r7, sp, #4
	.loc	17 356 26 is_stmt 0             @ ../GUILib/src/core/lv_indev.c:356:26
	cmp	r0, #0
	beq.w	.LBB0_43
.Ltmp31:
@ %bb.15:                               @   in Loop: Header=BB0_3 Depth=1
	@DEBUG_VALUE: indev_pointer_proc:i <- $r5
	@DEBUG_VALUE: indev_pointer_proc:data <- [DW_OP_plus_uconst 4, DW_OP_stack_value] $sp
	@DEBUG_VALUE: lv_indev_read_timer_cb:timer <- [DW_OP_LLVM_entry_value 1] $r0
	.loc	17 357 42 is_stmt 1             @ ../GUILib/src/core/lv_indev.c:357:42
	ldrh	r2, [r5, #12]
	.loc	17 357 59 is_stmt 0             @ ../GUILib/src/core/lv_indev.c:357:59
	ldrh.w	r1, [sp, #4]
	.loc	17 357 61                       @ ../GUILib/src/core/lv_indev.c:357:61
	cmp	r2, r1
	bne.w	.LBB0_41
.Ltmp32:
@ %bb.16:                               @   in Loop: Header=BB0_3 Depth=1
	@DEBUG_VALUE: indev_pointer_proc:i <- $r5
	@DEBUG_VALUE: indev_pointer_proc:data <- [DW_OP_plus_uconst 4, DW_OP_stack_value] $sp
	@DEBUG_VALUE: lv_indev_read_timer_cb:timer <- [DW_OP_LLVM_entry_value 1] $r0
	.loc	17 357 97                       @ ../GUILib/src/core/lv_indev.c:357:97
	ldrh	r3, [r5, #14]
	.loc	17 357 114                      @ ../GUILib/src/core/lv_indev.c:357:114
	ldrh.w	r2, [sp, #6]
.Ltmp33:
	.loc	17 356 8 is_stmt 1              @ ../GUILib/src/core/lv_indev.c:356:8
	cmp	r3, r2
	bne	.LBB0_42
	b	.LBB0_43
.Ltmp34:
	.p2align	2
.LBB0_17:                               @   in Loop: Header=BB0_3 Depth=1
	@DEBUG_VALUE: lv_indev_read_timer_cb:timer <- [DW_OP_LLVM_entry_value 1] $r0
	@DEBUG_VALUE: indev_keypad_proc:i <- $r5
	@DEBUG_VALUE: indev_keypad_proc:data <- [DW_OP_plus_uconst 4, DW_OP_stack_value] $sp
	.loc	17 382 14                       @ ../GUILib/src/core/lv_indev.c:382:14
	ldrb.w	r1, [sp, #18]
.Ltmp35:
	.loc	17 0 0 is_stmt 0                @ ../GUILib/src/core/lv_indev.c:0:0
	ldrb	r0, [r5, #5]
.Ltmp36:
	.loc	17 382 46                       @ ../GUILib/src/core/lv_indev.c:382:46
	cmp	r1, #1
.Ltmp37:
	.loc	17 0 0                          @ ../GUILib/src/core/lv_indev.c:0:0
	and	r1, r0, #8
.Ltmp38:
	.loc	17 382 46                       @ ../GUILib/src/core/lv_indev.c:382:46
	bne	.LBB0_31
.Ltmp39:
@ %bb.18:                               @   in Loop: Header=BB0_3 Depth=1
	@DEBUG_VALUE: indev_keypad_proc:i <- $r5
	@DEBUG_VALUE: indev_keypad_proc:data <- [DW_OP_plus_uconst 4, DW_OP_stack_value] $sp
	@DEBUG_VALUE: lv_indev_read_timer_cb:timer <- [DW_OP_LLVM_entry_value 1] $r0
	.loc	17 382 8                        @ ../GUILib/src/core/lv_indev.c:382:8
	cmp	r1, #0
	beq	.LBB0_33
	b	.LBB0_113
.Ltmp40:
	.p2align	2
.LBB0_19:                               @   in Loop: Header=BB0_3 Depth=1
	@DEBUG_VALUE: lv_indev_read_timer_cb:timer <- [DW_OP_LLVM_entry_value 1] $r0
	@DEBUG_VALUE: indev_button_proc:i <- $r5
	@DEBUG_VALUE: indev_button_proc:data <- [DW_OP_plus_uconst 4, DW_OP_stack_value] $sp
	.loc	17 734 11 is_stmt 1             @ ../GUILib/src/core/lv_indev.c:734:11
	ldr	r0, [r5, #84]
.Ltmp41:
	.loc	17 734 8 is_stmt 0              @ ../GUILib/src/core/lv_indev.c:734:8
	cmp	r0, #0
	beq.w	.LBB0_113
.Ltmp42:
@ %bb.20:                               @   in Loop: Header=BB0_3 Depth=1
	@DEBUG_VALUE: indev_button_proc:i <- $r5
	@DEBUG_VALUE: indev_button_proc:data <- [DW_OP_plus_uconst 4, DW_OP_stack_value] $sp
	@DEBUG_VALUE: lv_indev_read_timer_cb:timer <- [DW_OP_LLVM_entry_value 1] $r0
	.loc	17 739 40 is_stmt 1             @ ../GUILib/src/core/lv_indev.c:739:40
	ldr	r1, [sp, #12]
	.loc	17 739 48 is_stmt 0             @ ../GUILib/src/core/lv_indev.c:739:48
	add.w	r2, r0, r1, lsl #2
	ldrh.w	r6, [r0, r1, lsl #2]
.Ltmp43:
	@DEBUG_VALUE: indev_button_proc:x <- undef
	.loc	17 743 28 is_stmt 1             @ ../GUILib/src/core/lv_indev.c:743:28
	ldrb.w	r0, [sp, #18]
.Ltmp44:
	.loc	17 740 48                       @ ../GUILib/src/core/lv_indev.c:740:48
	ldrh	r7, [r2, #2]
.Ltmp45:
	@DEBUG_VALUE: indev_button_proc:y <- undef
	.loc	17 753 8                        @ ../GUILib/src/core/lv_indev.c:753:8
	cmp	r0, #1
	bne	.LBB0_24
.Ltmp46:
@ %bb.21:                               @   in Loop: Header=BB0_3 Depth=1
	@DEBUG_VALUE: indev_button_proc:i <- $r5
	@DEBUG_VALUE: indev_button_proc:data <- [DW_OP_plus_uconst 4, DW_OP_stack_value] $sp
	@DEBUG_VALUE: lv_indev_read_timer_cb:timer <- [DW_OP_LLVM_entry_value 1] $r0
	.loc	17 754 45                       @ ../GUILib/src/core/lv_indev.c:754:45
	ldrh	r0, [r5, #12]
	.loc	17 754 52 is_stmt 0             @ ../GUILib/src/core/lv_indev.c:754:52
	cmp	r0, r6
	bne	.LBB0_23
.Ltmp47:
@ %bb.22:                               @   in Loop: Header=BB0_3 Depth=1
	@DEBUG_VALUE: indev_button_proc:i <- $r5
	@DEBUG_VALUE: indev_button_proc:data <- [DW_OP_plus_uconst 4, DW_OP_stack_value] $sp
	@DEBUG_VALUE: lv_indev_read_timer_cb:timer <- [DW_OP_LLVM_entry_value 1] $r0
	.loc	17 755 45 is_stmt 1             @ ../GUILib/src/core/lv_indev.c:755:45
	ldrh	r0, [r5, #14]
.Ltmp48:
	.loc	17 754 12                       @ ../GUILib/src/core/lv_indev.c:754:12
	cmp	r0, r7
	beq	.LBB0_24
.Ltmp49:
.LBB0_23:                               @   in Loop: Header=BB0_3 Depth=1
	@DEBUG_VALUE: indev_button_proc:i <- $r5
	@DEBUG_VALUE: indev_button_proc:data <- [DW_OP_plus_uconst 4, DW_OP_stack_value] $sp
	@DEBUG_VALUE: lv_indev_read_timer_cb:timer <- [DW_OP_LLVM_entry_value 1] $r0
	.loc	17 0 0 is_stmt 0                @ ../GUILib/src/core/lv_indev.c:0:0
	adds	r0, r5, #4
.Ltmp50:
	.loc	17 756 13 is_stmt 1             @ ../GUILib/src/core/lv_indev.c:756:13
	bl	indev_proc_release
.Ltmp51:
.LBB0_24:                               @   in Loop: Header=BB0_3 Depth=1
	@DEBUG_VALUE: indev_button_proc:i <- $r5
	@DEBUG_VALUE: indev_button_proc:data <- [DW_OP_plus_uconst 4, DW_OP_stack_value] $sp
	@DEBUG_VALUE: lv_indev_read_timer_cb:timer <- [DW_OP_LLVM_entry_value 1] $r0
	@DEBUG_VALUE: indev_reset_check:proc <- undef
	.loc	17 1118 14                      @ ../GUILib/src/core/lv_indev.c:1118:14
	ldrb	r0, [r5, #5]
.Ltmp52:
	.loc	17 1118 8 is_stmt 0             @ ../GUILib/src/core/lv_indev.c:1118:8
	lsls	r0, r0, #30
	bmi	.LBB0_46
.Ltmp53:
@ %bb.25:                               @   in Loop: Header=BB0_3 Depth=1
	@DEBUG_VALUE: indev_button_proc:i <- $r5
	@DEBUG_VALUE: indev_button_proc:data <- [DW_OP_plus_uconst 4, DW_OP_stack_value] $sp
	@DEBUG_VALUE: lv_indev_read_timer_cb:timer <- [DW_OP_LLVM_entry_value 1] $r0
	.loc	17 763 39 is_stmt 1             @ ../GUILib/src/core/lv_indev.c:763:39
	strh	r6, [r5, #8]
	.loc	17 764 39                       @ ../GUILib/src/core/lv_indev.c:764:39
	strh	r7, [r5, #10]
.Ltmp54:
	.loc	17 766 14                       @ ../GUILib/src/core/lv_indev.c:766:14
	ldrb.w	r0, [sp, #18]
.Ltmp55:
	.loc	17 766 8 is_stmt 0              @ ../GUILib/src/core/lv_indev.c:766:8
	cmp	r0, #1
	.loc	17 0 0                          @ ../GUILib/src/core/lv_indev.c:0:0
	add.w	r0, r5, #4
	@DEBUG_VALUE: indev_reset_check:proc <- $r0
	.loc	17 766 8                        @ ../GUILib/src/core/lv_indev.c:766:8
	bne.w	.LBB0_66
.Ltmp56:
@ %bb.26:                               @   in Loop: Header=BB0_3 Depth=1
	@DEBUG_VALUE: indev_button_proc:i <- $r5
	@DEBUG_VALUE: indev_button_proc:data <- [DW_OP_plus_uconst 4, DW_OP_stack_value] $sp
	@DEBUG_VALUE: lv_indev_read_timer_cb:timer <- [DW_OP_LLVM_entry_value 1] $r0
	.loc	17 766 47                       @ ../GUILib/src/core/lv_indev.c:766:47
	bl	indev_proc_press
.Ltmp57:
	.loc	17 0 47                         @ ../GUILib/src/core/lv_indev.c:0:47
	b	.LBB0_67
.Ltmp58:
	.p2align	2
.LBB0_27:                               @   in Loop: Header=BB0_3 Depth=1
	@DEBUG_VALUE: lv_indev_read_timer_cb:timer <- [DW_OP_LLVM_entry_value 1] $r0
	@DEBUG_VALUE: indev_encoder_proc:i <- $r5
	@DEBUG_VALUE: indev_encoder_proc:data <- [DW_OP_plus_uconst 4, DW_OP_stack_value] $sp
	.loc	17 526 14 is_stmt 1             @ ../GUILib/src/core/lv_indev.c:526:14
	ldrb.w	r0, [sp, #18]
.Ltmp59:
	.loc	17 0 0 is_stmt 0                @ ../GUILib/src/core/lv_indev.c:0:0
	ldrb	r1, [r5, #5]
.Ltmp60:
	.loc	17 526 46                       @ ../GUILib/src/core/lv_indev.c:526:46
	cmp	r0, #1
	bne	.LBB0_29
.Ltmp61:
@ %bb.28:                               @   in Loop: Header=BB0_3 Depth=1
	@DEBUG_VALUE: indev_encoder_proc:i <- $r5
	@DEBUG_VALUE: indev_encoder_proc:data <- [DW_OP_plus_uconst 4, DW_OP_stack_value] $sp
	@DEBUG_VALUE: lv_indev_read_timer_cb:timer <- [DW_OP_LLVM_entry_value 1] $r0
	.loc	17 0 46                         @ ../GUILib/src/core/lv_indev.c:0:46
	ands	r2, r1, #8
	.loc	17 526 46                       @ ../GUILib/src/core/lv_indev.c:526:46
	bne.w	.LBB0_113
.Ltmp62:
.LBB0_29:                               @   in Loop: Header=BB0_3 Depth=1
	@DEBUG_VALUE: indev_encoder_proc:i <- $r5
	@DEBUG_VALUE: indev_encoder_proc:data <- [DW_OP_plus_uconst 4, DW_OP_stack_value] $sp
	@DEBUG_VALUE: lv_indev_read_timer_cb:timer <- [DW_OP_LLVM_entry_value 1] $r0
	.loc	17 528 8 is_stmt 1              @ ../GUILib/src/core/lv_indev.c:528:8
	lsls	r2, r1, #28
	bmi	.LBB0_47
.Ltmp63:
@ %bb.30:                               @   in Loop: Header=BB0_3 Depth=1
	@DEBUG_VALUE: indev_encoder_proc:i <- $r5
	@DEBUG_VALUE: indev_encoder_proc:data <- [DW_OP_plus_uconst 4, DW_OP_stack_value] $sp
	@DEBUG_VALUE: lv_indev_read_timer_cb:timer <- [DW_OP_LLVM_entry_value 1] $r0
	.loc	17 537 60                       @ ../GUILib/src/core/lv_indev.c:537:60
	ldrb.w	r10, [r5, #8]
	b	.LBB0_48
.Ltmp64:
.LBB0_31:                               @   in Loop: Header=BB0_3 Depth=1
	@DEBUG_VALUE: indev_keypad_proc:i <- $r5
	@DEBUG_VALUE: indev_keypad_proc:data <- [DW_OP_plus_uconst 4, DW_OP_stack_value] $sp
	@DEBUG_VALUE: lv_indev_read_timer_cb:timer <- [DW_OP_LLVM_entry_value 1] $r0
	.loc	17 384 8                        @ ../GUILib/src/core/lv_indev.c:384:8
	cbz	r1, .LBB0_33
.Ltmp65:
@ %bb.32:                               @   in Loop: Header=BB0_3 Depth=1
	@DEBUG_VALUE: indev_keypad_proc:i <- $r5
	@DEBUG_VALUE: indev_keypad_proc:data <- [DW_OP_plus_uconst 4, DW_OP_stack_value] $sp
	@DEBUG_VALUE: lv_indev_read_timer_cb:timer <- [DW_OP_LLVM_entry_value 1] $r0
	.loc	17 387 41                       @ ../GUILib/src/core/lv_indev.c:387:41
	and	r0, r0, #246
	.loc	17 386 41                       @ ../GUILib/src/core/lv_indev.c:386:41
	str.w	r9, [r5, #68]
	.loc	17 387 41                       @ ../GUILib/src/core/lv_indev.c:387:41
	strb	r0, [r5, #5]
	.loc	17 388 41                       @ ../GUILib/src/core/lv_indev.c:388:41
	strb.w	r9, [r5, #8]
.Ltmp66:
.LBB0_33:                               @   in Loop: Header=BB0_3 Depth=1
	@DEBUG_VALUE: indev_keypad_proc:i <- $r5
	@DEBUG_VALUE: indev_keypad_proc:data <- [DW_OP_plus_uconst 4, DW_OP_stack_value] $sp
	@DEBUG_VALUE: lv_indev_read_timer_cb:timer <- [DW_OP_LLVM_entry_value 1] $r0
	.loc	17 391 25                       @ ../GUILib/src/core/lv_indev.c:391:25
	ldr	r6, [r5, #80]
.Ltmp67:
	@DEBUG_VALUE: indev_keypad_proc:g <- $r6
	.loc	17 392 8                        @ ../GUILib/src/core/lv_indev.c:392:8
	cmp	r6, #0
	beq.w	.LBB0_113
.Ltmp68:
@ %bb.34:                               @   in Loop: Header=BB0_3 Depth=1
	@DEBUG_VALUE: indev_keypad_proc:g <- $r6
	@DEBUG_VALUE: indev_keypad_proc:i <- $r5
	@DEBUG_VALUE: indev_keypad_proc:data <- [DW_OP_plus_uconst 4, DW_OP_stack_value] $sp
	@DEBUG_VALUE: lv_indev_read_timer_cb:timer <- [DW_OP_LLVM_entry_value 1] $r0
	.loc	17 394 21                       @ ../GUILib/src/core/lv_indev.c:394:21
	mov	r0, r6
	bl	lv_group_get_focused
.Ltmp69:
	.loc	17 395 8                        @ ../GUILib/src/core/lv_indev.c:395:8
	cmp	r0, #0
	.loc	17 394 19                       @ ../GUILib/src/core/lv_indev.c:394:19
	str.w	r0, [r11]
	.loc	17 395 8                        @ ../GUILib/src/core/lv_indev.c:395:8
	beq.w	.LBB0_113
.Ltmp70:
@ %bb.35:                               @   in Loop: Header=BB0_3 Depth=1
	@DEBUG_VALUE: indev_keypad_proc:g <- $r6
	@DEBUG_VALUE: indev_keypad_proc:i <- $r5
	@DEBUG_VALUE: indev_keypad_proc:data <- [DW_OP_plus_uconst 4, DW_OP_stack_value] $sp
	@DEBUG_VALUE: lv_indev_read_timer_cb:timer <- [DW_OP_LLVM_entry_value 1] $r0
	.loc	17 402 43                       @ ../GUILib/src/core/lv_indev.c:402:43
	ldr	r2, [sp, #8]
	.loc	17 398 46                       @ ../GUILib/src/core/lv_indev.c:398:46
	ldr	r1, [r5, #12]
.Ltmp71:
	@DEBUG_VALUE: indev_keypad_proc:prev_key <- $r1
	.loc	17 402 35                       @ ../GUILib/src/core/lv_indev.c:402:35
	str	r2, [r5, #12]
	.loc	17 408 45                       @ ../GUILib/src/core/lv_indev.c:408:45
	ldrb.w	r3, [sp, #18]
	.loc	17 407 60                       @ ../GUILib/src/core/lv_indev.c:407:60
	ldrb	r7, [r5, #8]
.Ltmp72:
	@DEBUG_VALUE: indev_keypad_proc:prev_state <- [DW_OP_LLVM_convert 8 7, DW_OP_LLVM_convert 32 7, DW_OP_stack_value] $r7
	.loc	17 408 37                       @ ../GUILib/src/core/lv_indev.c:408:37
	strb	r3, [r5, #8]
.Ltmp73:
	.loc	17 411 14                       @ ../GUILib/src/core/lv_indev.c:411:14
	ldrb.w	r3, [sp, #18]
	.loc	17 411 46 is_stmt 0             @ ../GUILib/src/core/lv_indev.c:411:46
	cmp	r7, #0
	bne.w	.LBB0_69
.Ltmp74:
@ %bb.36:                               @   in Loop: Header=BB0_3 Depth=1
	@DEBUG_VALUE: indev_keypad_proc:prev_state <- [DW_OP_LLVM_convert 8 7, DW_OP_LLVM_convert 32 7, DW_OP_stack_value] $r7
	@DEBUG_VALUE: indev_keypad_proc:g <- $r6
	@DEBUG_VALUE: indev_keypad_proc:i <- $r5
	@DEBUG_VALUE: indev_keypad_proc:prev_key <- $r1
	@DEBUG_VALUE: indev_keypad_proc:data <- [DW_OP_plus_uconst 4, DW_OP_stack_value] $sp
	@DEBUG_VALUE: lv_indev_read_timer_cb:timer <- [DW_OP_LLVM_entry_value 1] $r0
	cmp	r3, #1
	bne.w	.LBB0_69
.Ltmp75:
@ %bb.37:                               @   in Loop: Header=BB0_3 Depth=1
	@DEBUG_VALUE: indev_keypad_proc:prev_state <- [DW_OP_LLVM_convert 8 7, DW_OP_LLVM_convert 32 7, DW_OP_stack_value] $r7
	@DEBUG_VALUE: indev_keypad_proc:g <- $r6
	@DEBUG_VALUE: indev_keypad_proc:i <- $r5
	@DEBUG_VALUE: indev_keypad_proc:prev_key <- $r1
	@DEBUG_VALUE: indev_keypad_proc:data <- [DW_OP_plus_uconst 4, DW_OP_stack_value] $sp
	@DEBUG_VALUE: lv_indev_read_timer_cb:timer <- [DW_OP_LLVM_entry_value 1] $r0
	.loc	17 413 32 is_stmt 1             @ ../GUILib/src/core/lv_indev.c:413:32
	bl	lv_tick_get
.Ltmp76:
	.loc	17 416 18                       @ ../GUILib/src/core/lv_indev.c:416:18
	ldr	r1, [sp, #8]
.Ltmp77:
	.loc	17 413 30                       @ ../GUILib/src/core/lv_indev.c:413:30
	str	r0, [r5, #68]
	.loc	17 416 12                       @ ../GUILib/src/core/lv_indev.c:416:12
	cmp	r1, #10
	bgt.w	.LBB0_76
.Ltmp78:
@ %bb.38:                               @   in Loop: Header=BB0_3 Depth=1
	@DEBUG_VALUE: indev_keypad_proc:prev_state <- [DW_OP_LLVM_convert 8 7, DW_OP_LLVM_convert 32 7, DW_OP_stack_value] $r7
	@DEBUG_VALUE: indev_keypad_proc:g <- $r6
	@DEBUG_VALUE: indev_keypad_proc:i <- $r5
	@DEBUG_VALUE: indev_keypad_proc:data <- [DW_OP_plus_uconst 4, DW_OP_stack_value] $sp
	@DEBUG_VALUE: lv_indev_read_timer_cb:timer <- [DW_OP_LLVM_entry_value 1] $r0
	cmp	r1, #9
	add	r7, sp, #4
.Ltmp79:
	beq.w	.LBB0_109
.Ltmp80:
@ %bb.39:                               @   in Loop: Header=BB0_3 Depth=1
	@DEBUG_VALUE: indev_keypad_proc:g <- $r6
	@DEBUG_VALUE: indev_keypad_proc:i <- $r5
	@DEBUG_VALUE: indev_keypad_proc:data <- [DW_OP_plus_uconst 4, DW_OP_stack_value] $sp
	@DEBUG_VALUE: lv_indev_read_timer_cb:timer <- [DW_OP_LLVM_entry_value 1] $r0
	cmp	r1, #10
	bne.w	.LBB0_85
.Ltmp81:
@ %bb.40:                               @   in Loop: Header=BB0_3 Depth=1
	@DEBUG_VALUE: indev_keypad_proc:g <- $r6
	@DEBUG_VALUE: indev_keypad_proc:i <- $r5
	@DEBUG_VALUE: indev_keypad_proc:data <- [DW_OP_plus_uconst 4, DW_OP_stack_value] $sp
	@DEBUG_VALUE: lv_indev_read_timer_cb:timer <- [DW_OP_LLVM_entry_value 1] $r0
	.loc	17 418 13                       @ ../GUILib/src/core/lv_indev.c:418:13
	mov	r0, r6
	movs	r1, #10
	bl	lv_group_send_data
.Ltmp82:
	.loc	17 420 27                       @ ../GUILib/src/core/lv_indev.c:420:27
	ldr.w	r0, [r11]
	.loc	17 420 60 is_stmt 0             @ ../GUILib/src/core/lv_indev.c:420:60
	ldr.w	r2, [r8]
	.loc	17 420 13                       @ ../GUILib/src/core/lv_indev.c:420:13
	movs	r1, #1
	b	.LBB0_79
.Ltmp83:
.LBB0_41:                               @   in Loop: Header=BB0_3 Depth=1
	@DEBUG_VALUE: indev_pointer_proc:i <- $r5
	@DEBUG_VALUE: indev_pointer_proc:data <- [DW_OP_plus_uconst 4, DW_OP_stack_value] $sp
	@DEBUG_VALUE: lv_indev_read_timer_cb:timer <- [DW_OP_LLVM_entry_value 1] $r0
	.loc	17 358 62 is_stmt 1             @ ../GUILib/src/core/lv_indev.c:358:62
	ldrh.w	r2, [sp, #6]
.Ltmp84:
.LBB0_42:                               @   in Loop: Header=BB0_3 Depth=1
	@DEBUG_VALUE: indev_pointer_proc:i <- $r5
	@DEBUG_VALUE: indev_pointer_proc:data <- [DW_OP_plus_uconst 4, DW_OP_stack_value] $sp
	@DEBUG_VALUE: lv_indev_read_timer_cb:timer <- [DW_OP_LLVM_entry_value 1] $r0
	.loc	17 358 9 is_stmt 0              @ ../GUILib/src/core/lv_indev.c:358:9
	sxth	r1, r1
	sxth	r2, r2
	bl	lv_obj_set_pos
.Ltmp85:
.LBB0_43:                               @   in Loop: Header=BB0_3 Depth=1
	@DEBUG_VALUE: indev_pointer_proc:i <- $r5
	@DEBUG_VALUE: indev_pointer_proc:data <- [DW_OP_plus_uconst 4, DW_OP_stack_value] $sp
	@DEBUG_VALUE: lv_indev_read_timer_cb:timer <- [DW_OP_LLVM_entry_value 1] $r0
	.loc	17 364 16 is_stmt 1             @ ../GUILib/src/core/lv_indev.c:364:16
	ldrb	r1, [r5, #4]
.Ltmp86:
	.loc	17 361 53                       @ ../GUILib/src/core/lv_indev.c:361:53
	ldr	r2, [sp, #4]
	.loc	17 0 0 is_stmt 0                @ ../GUILib/src/core/lv_indev.c:0:0
	adds	r0, r5, #4
	.loc	17 364 8 is_stmt 1              @ ../GUILib/src/core/lv_indev.c:364:8
	cmp	r1, #1
	.loc	17 361 39                       @ ../GUILib/src/core/lv_indev.c:361:39
	str	r2, [r5, #8]
	.loc	17 364 8                        @ ../GUILib/src/core/lv_indev.c:364:8
	bne	.LBB0_45
.Ltmp87:
@ %bb.44:                               @   in Loop: Header=BB0_3 Depth=1
	@DEBUG_VALUE: indev_pointer_proc:i <- $r5
	@DEBUG_VALUE: indev_pointer_proc:data <- [DW_OP_plus_uconst 4, DW_OP_stack_value] $sp
	@DEBUG_VALUE: lv_indev_read_timer_cb:timer <- [DW_OP_LLVM_entry_value 1] $r0
	.loc	17 365 9                        @ ../GUILib/src/core/lv_indev.c:365:9
	bl	indev_proc_press
.Ltmp88:
	.loc	17 0 9 is_stmt 0                @ ../GUILib/src/core/lv_indev.c:0:9
	b	.LBB0_68
.Ltmp89:
.LBB0_45:                               @   in Loop: Header=BB0_3 Depth=1
	@DEBUG_VALUE: indev_pointer_proc:i <- $r5
	@DEBUG_VALUE: indev_pointer_proc:data <- [DW_OP_plus_uconst 4, DW_OP_stack_value] $sp
	@DEBUG_VALUE: lv_indev_read_timer_cb:timer <- [DW_OP_LLVM_entry_value 1] $r0
	.loc	17 368 9 is_stmt 1              @ ../GUILib/src/core/lv_indev.c:368:9
	bl	indev_proc_release
.Ltmp90:
	.loc	17 0 9 is_stmt 0                @ ../GUILib/src/core/lv_indev.c:0:9
	b	.LBB0_68
.Ltmp91:
.LBB0_46:                               @   in Loop: Header=BB0_3 Depth=1
	@DEBUG_VALUE: indev_button_proc:i <- $r5
	@DEBUG_VALUE: indev_button_proc:data <- [DW_OP_plus_uconst 4, DW_OP_stack_value] $sp
	@DEBUG_VALUE: lv_indev_read_timer_cb:timer <- [DW_OP_LLVM_entry_value 1] $r0
	.loc	17 1119 23 is_stmt 1            @ ../GUILib/src/core/lv_indev.c:1119:23
	str.w	r9, [r11]
	add	r7, sp, #4
	b	.LBB0_113
.Ltmp92:
.LBB0_47:                               @   in Loop: Header=BB0_3 Depth=1
	@DEBUG_VALUE: indev_encoder_proc:i <- $r5
	@DEBUG_VALUE: indev_encoder_proc:data <- [DW_OP_plus_uconst 4, DW_OP_stack_value] $sp
	@DEBUG_VALUE: lv_indev_read_timer_cb:timer <- [DW_OP_LLVM_entry_value 1] $r0
	.loc	17 0 23 is_stmt 0               @ ../GUILib/src/core/lv_indev.c:0:23
	mov.w	r10, #0
.Ltmp93:
	.loc	17 531 41 is_stmt 1             @ ../GUILib/src/core/lv_indev.c:531:41
	and	r0, r1, #246
	strb	r0, [r5, #5]
	.loc	17 532 41                       @ ../GUILib/src/core/lv_indev.c:532:41
	strb.w	r10, [r5, #8]
.Ltmp94:
	.loc	17 538 45                       @ ../GUILib/src/core/lv_indev.c:538:45
	ldrb.w	r0, [sp, #18]
.Ltmp95:
	.loc	17 530 41                       @ ../GUILib/src/core/lv_indev.c:530:41
	str.w	r10, [r5, #68]
.Ltmp96:
.LBB0_48:                               @   in Loop: Header=BB0_3 Depth=1
	@DEBUG_VALUE: indev_encoder_proc:i <- $r5
	@DEBUG_VALUE: indev_encoder_proc:data <- [DW_OP_plus_uconst 4, DW_OP_stack_value] $sp
	@DEBUG_VALUE: lv_indev_read_timer_cb:timer <- [DW_OP_LLVM_entry_value 1] $r0
	@DEBUG_VALUE: indev_encoder_proc:last_state <- $r10
	.loc	17 541 25                       @ ../GUILib/src/core/lv_indev.c:541:25
	ldr	r6, [r5, #80]
.Ltmp97:
	@DEBUG_VALUE: indev_encoder_proc:g <- $r6
	.loc	17 538 37                       @ ../GUILib/src/core/lv_indev.c:538:37
	strb	r0, [r5, #8]
	.loc	17 539 45                       @ ../GUILib/src/core/lv_indev.c:539:45
	ldr	r0, [sp, #8]
	.loc	17 542 8                        @ ../GUILib/src/core/lv_indev.c:542:8
	cmp	r6, #0
	.loc	17 539 37                       @ ../GUILib/src/core/lv_indev.c:539:37
	str	r0, [r5, #12]
	.loc	17 542 8                        @ ../GUILib/src/core/lv_indev.c:542:8
	beq.w	.LBB0_113
.Ltmp98:
@ %bb.49:                               @   in Loop: Header=BB0_3 Depth=1
	@DEBUG_VALUE: indev_encoder_proc:last_state <- $r10
	@DEBUG_VALUE: indev_encoder_proc:g <- $r6
	@DEBUG_VALUE: indev_encoder_proc:i <- $r5
	@DEBUG_VALUE: indev_encoder_proc:data <- [DW_OP_plus_uconst 4, DW_OP_stack_value] $sp
	@DEBUG_VALUE: lv_indev_read_timer_cb:timer <- [DW_OP_LLVM_entry_value 1] $r0
	.loc	17 544 21                       @ ../GUILib/src/core/lv_indev.c:544:21
	mov	r0, r6
	bl	lv_group_get_focused
.Ltmp99:
	.loc	17 545 8                        @ ../GUILib/src/core/lv_indev.c:545:8
	cmp	r0, #0
	.loc	17 544 19                       @ ../GUILib/src/core/lv_indev.c:544:19
	str.w	r0, [r11]
	.loc	17 545 8                        @ ../GUILib/src/core/lv_indev.c:545:8
	beq.w	.LBB0_113
.Ltmp100:
@ %bb.50:                               @   in Loop: Header=BB0_3 Depth=1
	@DEBUG_VALUE: indev_encoder_proc:last_state <- $r10
	@DEBUG_VALUE: indev_encoder_proc:g <- $r6
	@DEBUG_VALUE: indev_encoder_proc:i <- $r5
	@DEBUG_VALUE: indev_encoder_proc:data <- [DW_OP_plus_uconst 4, DW_OP_stack_value] $sp
	@DEBUG_VALUE: lv_indev_read_timer_cb:timer <- [DW_OP_LLVM_entry_value 1] $r0
	.loc	17 548 14                       @ ../GUILib/src/core/lv_indev.c:548:14
	ldrb.w	r0, [sp, #18]
.Ltmp101:
	.loc	17 548 8 is_stmt 0              @ ../GUILib/src/core/lv_indev.c:548:8
	cbz	r0, .LBB0_52
.Ltmp102:
@ %bb.51:                               @   in Loop: Header=BB0_3 Depth=1
	@DEBUG_VALUE: indev_encoder_proc:last_state <- $r10
	@DEBUG_VALUE: indev_encoder_proc:g <- $r6
	@DEBUG_VALUE: indev_encoder_proc:i <- $r5
	@DEBUG_VALUE: indev_encoder_proc:data <- [DW_OP_plus_uconst 4, DW_OP_stack_value] $sp
	@DEBUG_VALUE: lv_indev_read_timer_cb:timer <- [DW_OP_LLVM_entry_value 1] $r0
	.loc	17 549 24 is_stmt 1             @ ../GUILib/src/core/lv_indev.c:549:24
	strh.w	r9, [sp, #16]
.Ltmp103:
.LBB0_52:                               @   in Loop: Header=BB0_3 Depth=1
	@DEBUG_VALUE: indev_encoder_proc:last_state <- $r10
	@DEBUG_VALUE: indev_encoder_proc:g <- $r6
	@DEBUG_VALUE: indev_encoder_proc:i <- $r5
	@DEBUG_VALUE: indev_encoder_proc:data <- [DW_OP_plus_uconst 4, DW_OP_stack_value] $sp
	@DEBUG_VALUE: lv_indev_read_timer_cb:timer <- [DW_OP_LLVM_entry_value 1] $r0
	.loc	17 553 21                       @ ../GUILib/src/core/lv_indev.c:553:21
	mov	r0, r6
	bl	lv_group_get_focused
.Ltmp104:
	.loc	17 554 8                        @ ../GUILib/src/core/lv_indev.c:554:8
	cmp	r0, #0
	.loc	17 553 19                       @ ../GUILib/src/core/lv_indev.c:553:19
	str.w	r0, [r11]
	.loc	17 554 8                        @ ../GUILib/src/core/lv_indev.c:554:8
	beq.w	.LBB0_113
.Ltmp105:
@ %bb.53:                               @   in Loop: Header=BB0_3 Depth=1
	@DEBUG_VALUE: indev_encoder_proc:last_state <- $r10
	@DEBUG_VALUE: indev_encoder_proc:g <- $r6
	@DEBUG_VALUE: indev_encoder_proc:i <- $r5
	@DEBUG_VALUE: indev_encoder_proc:data <- [DW_OP_plus_uconst 4, DW_OP_stack_value] $sp
	@DEBUG_VALUE: lv_indev_read_timer_cb:timer <- [DW_OP_LLVM_entry_value 1] $r0
	.loc	17 557 14                       @ ../GUILib/src/core/lv_indev.c:557:14
	ldrb.w	r1, [sp, #18]
	.loc	17 557 46 is_stmt 0             @ ../GUILib/src/core/lv_indev.c:557:46
	cmp.w	r10, #0
	it	eq
	cmpeq	r1, #1
	beq.w	.LBB0_82
.Ltmp106:
@ %bb.54:                               @   in Loop: Header=BB0_3 Depth=1
	@DEBUG_VALUE: indev_encoder_proc:last_state <- $r10
	@DEBUG_VALUE: indev_encoder_proc:g <- $r6
	@DEBUG_VALUE: indev_encoder_proc:i <- $r5
	@DEBUG_VALUE: indev_encoder_proc:data <- [DW_OP_plus_uconst 4, DW_OP_stack_value] $sp
	@DEBUG_VALUE: lv_indev_read_timer_cb:timer <- [DW_OP_LLVM_entry_value 1] $r0
	.loc	17 591 51 is_stmt 1             @ ../GUILib/src/core/lv_indev.c:591:51
	cmp.w	r10, #1
	it	eq
	cmpeq	r1, #1
	beq.w	.LBB0_86
.Ltmp107:
@ %bb.55:                               @   in Loop: Header=BB0_3 Depth=1
	@DEBUG_VALUE: indev_encoder_proc:last_state <- $r10
	@DEBUG_VALUE: indev_encoder_proc:g <- $r6
	@DEBUG_VALUE: indev_encoder_proc:i <- $r5
	@DEBUG_VALUE: indev_encoder_proc:data <- [DW_OP_plus_uconst 4, DW_OP_stack_value] $sp
	@DEBUG_VALUE: lv_indev_read_timer_cb:timer <- [DW_OP_LLVM_entry_value 1] $r0
	.loc	17 646 52                       @ ../GUILib/src/core/lv_indev.c:646:52
	cmp.w	r10, #1
	it	eq
	cmpeq	r1, #0
	bne.w	.LBB0_145
.Ltmp108:
@ %bb.56:                               @   in Loop: Header=BB0_3 Depth=1
	@DEBUG_VALUE: indev_encoder_proc:last_state <- $r10
	@DEBUG_VALUE: indev_encoder_proc:g <- $r6
	@DEBUG_VALUE: indev_encoder_proc:i <- $r5
	@DEBUG_VALUE: indev_encoder_proc:data <- [DW_OP_plus_uconst 4, DW_OP_stack_value] $sp
	@DEBUG_VALUE: lv_indev_read_timer_cb:timer <- [DW_OP_LLVM_entry_value 1] $r0
	.loc	17 649 18                       @ ../GUILib/src/core/lv_indev.c:649:18
	ldr	r1, [sp, #8]
.Ltmp109:
	.loc	17 649 12 is_stmt 0             @ ../GUILib/src/core/lv_indev.c:649:12
	cmp	r1, #10
	bne.w	.LBB0_141
.Ltmp110:
@ %bb.57:                               @   in Loop: Header=BB0_3 Depth=1
	@DEBUG_VALUE: indev_encoder_proc:last_state <- $r10
	@DEBUG_VALUE: indev_encoder_proc:g <- $r6
	@DEBUG_VALUE: indev_encoder_proc:i <- $r5
	@DEBUG_VALUE: indev_encoder_proc:data <- [DW_OP_plus_uconst 4, DW_OP_stack_value] $sp
	@DEBUG_VALUE: lv_indev_read_timer_cb:timer <- [DW_OP_LLVM_entry_value 1] $r0
	.loc	17 650 43 is_stmt 1             @ ../GUILib/src/core/lv_indev.c:650:43
	bl	lv_obj_is_editable
.Ltmp111:
	.loc	17 650 77 is_stmt 0             @ ../GUILib/src/core/lv_indev.c:650:77
	cbnz	r0, .LBB0_59
.Ltmp112:
@ %bb.58:                               @   in Loop: Header=BB0_3 Depth=1
	@DEBUG_VALUE: indev_encoder_proc:last_state <- $r10
	@DEBUG_VALUE: indev_encoder_proc:g <- $r6
	@DEBUG_VALUE: indev_encoder_proc:i <- $r5
	@DEBUG_VALUE: indev_encoder_proc:data <- [DW_OP_plus_uconst 4, DW_OP_stack_value] $sp
	@DEBUG_VALUE: lv_indev_read_timer_cb:timer <- [DW_OP_LLVM_entry_value 1] $r0
	.loc	17 651 59 is_stmt 1             @ ../GUILib/src/core/lv_indev.c:651:59
	ldr.w	r0, [r11]
	.loc	17 651 43 is_stmt 0             @ ../GUILib/src/core/lv_indev.c:651:43
	movs	r1, #16
	bl	lv_obj_has_flag
.Ltmp113:
	@DEBUG_VALUE: editable_or_scrollable <- [DW_OP_LLVM_convert 1 7, DW_OP_LLVM_convert 8 7, DW_OP_stack_value] $r0
	.loc	17 654 16 is_stmt 1             @ ../GUILib/src/core/lv_indev.c:654:16
	cmp	r0, #0
	beq.w	.LBB0_134
.Ltmp114:
.LBB0_59:                               @   in Loop: Header=BB0_3 Depth=1
	@DEBUG_VALUE: indev_encoder_proc:last_state <- $r10
	@DEBUG_VALUE: indev_encoder_proc:g <- $r6
	@DEBUG_VALUE: indev_encoder_proc:i <- $r5
	@DEBUG_VALUE: indev_encoder_proc:data <- [DW_OP_plus_uconst 4, DW_OP_stack_value] $sp
	@DEBUG_VALUE: lv_indev_read_timer_cb:timer <- [DW_OP_LLVM_entry_value 1] $r0
	.loc	17 666 21                       @ ../GUILib/src/core/lv_indev.c:666:21
	mov	r0, r6
	bl	lv_group_get_editing
.Ltmp115:
	.loc	17 0 0 is_stmt 0                @ ../GUILib/src/core/lv_indev.c:0:0
	ldrb	r1, [r5, #5]
.Ltmp116:
	.loc	17 666 21                       @ ../GUILib/src/core/lv_indev.c:666:21
	cmp	r0, #0
.Ltmp117:
	.loc	17 0 0                          @ ../GUILib/src/core/lv_indev.c:0:0
	and	r0, r1, #1
.Ltmp118:
	.loc	17 666 21                       @ ../GUILib/src/core/lv_indev.c:666:21
	beq.w	.LBB0_131
.Ltmp119:
@ %bb.60:                               @   in Loop: Header=BB0_3 Depth=1
	@DEBUG_VALUE: indev_encoder_proc:last_state <- $r10
	@DEBUG_VALUE: indev_encoder_proc:g <- $r6
	@DEBUG_VALUE: indev_encoder_proc:i <- $r5
	@DEBUG_VALUE: indev_encoder_proc:data <- [DW_OP_plus_uconst 4, DW_OP_stack_value] $sp
	@DEBUG_VALUE: lv_indev_read_timer_cb:timer <- [DW_OP_LLVM_entry_value 1] $r0
	.loc	17 668 42 is_stmt 1             @ ../GUILib/src/core/lv_indev.c:668:42
	cbz	r0, .LBB0_62
.Ltmp120:
@ %bb.61:                               @   in Loop: Header=BB0_3 Depth=1
	@DEBUG_VALUE: indev_encoder_proc:last_state <- $r10
	@DEBUG_VALUE: indev_encoder_proc:g <- $r6
	@DEBUG_VALUE: indev_encoder_proc:i <- $r5
	@DEBUG_VALUE: indev_encoder_proc:data <- [DW_OP_plus_uconst 4, DW_OP_stack_value] $sp
	@DEBUG_VALUE: lv_indev_read_timer_cb:timer <- [DW_OP_LLVM_entry_value 1] $r0
	.loc	17 668 45 is_stmt 0             @ ../GUILib/src/core/lv_indev.c:668:45
	mov	r0, r6
	bl	lv_group_get_obj_count
.Ltmp121:
	.loc	17 668 20                       @ ../GUILib/src/core/lv_indev.c:668:20
	cmp	r0, #1
	bhi.w	.LBB0_140
.Ltmp122:
.LBB0_62:                               @   in Loop: Header=BB0_3 Depth=1
	@DEBUG_VALUE: indev_encoder_proc:last_state <- $r10
	@DEBUG_VALUE: indev_encoder_proc:g <- $r6
	@DEBUG_VALUE: indev_encoder_proc:i <- $r5
	@DEBUG_VALUE: indev_encoder_proc:data <- [DW_OP_plus_uconst 4, DW_OP_stack_value] $sp
	@DEBUG_VALUE: lv_indev_read_timer_cb:timer <- [DW_OP_LLVM_entry_value 1] $r0
	.loc	17 669 35 is_stmt 1             @ ../GUILib/src/core/lv_indev.c:669:35
	ldr.w	r0, [r11]
	.loc	17 669 69 is_stmt 0             @ ../GUILib/src/core/lv_indev.c:669:69
	ldr.w	r2, [r8]
	.loc	17 669 21                       @ ../GUILib/src/core/lv_indev.c:669:21
	movs	r1, #8
	bl	lv_event_send
.Ltmp123:
	@DEBUG_VALUE: indev_reset_check:proc <- [DW_OP_plus_uconst 4, DW_OP_stack_value] $r5
	.loc	17 1118 14 is_stmt 1            @ ../GUILib/src/core/lv_indev.c:1118:14
	ldrb	r0, [r5, #5]
.Ltmp124:
	.loc	17 1118 8 is_stmt 0             @ ../GUILib/src/core/lv_indev.c:1118:8
	lsls	r0, r0, #30
	bmi.w	.LBB0_112
.Ltmp125:
@ %bb.63:                               @   in Loop: Header=BB0_3 Depth=1
	@DEBUG_VALUE: indev_encoder_proc:last_state <- $r10
	@DEBUG_VALUE: indev_encoder_proc:g <- $r6
	@DEBUG_VALUE: indev_encoder_proc:i <- $r5
	@DEBUG_VALUE: indev_encoder_proc:data <- [DW_OP_plus_uconst 4, DW_OP_stack_value] $sp
	@DEBUG_VALUE: lv_indev_read_timer_cb:timer <- [DW_OP_LLVM_entry_value 1] $r0
	.loc	17 672 35 is_stmt 1             @ ../GUILib/src/core/lv_indev.c:672:35
	ldr.w	r0, [r11]
	.loc	17 672 74 is_stmt 0             @ ../GUILib/src/core/lv_indev.c:672:74
	ldr.w	r2, [r8]
	.loc	17 672 21                       @ ../GUILib/src/core/lv_indev.c:672:21
	movs	r1, #4
	bl	lv_event_send
.Ltmp126:
	@DEBUG_VALUE: indev_reset_check:proc <- [DW_OP_plus_uconst 4, DW_OP_stack_value] $r5
	.loc	17 1118 14 is_stmt 1            @ ../GUILib/src/core/lv_indev.c:1118:14
	ldrb	r0, [r5, #5]
.Ltmp127:
	.loc	17 1118 8 is_stmt 0             @ ../GUILib/src/core/lv_indev.c:1118:8
	lsls	r0, r0, #30
	bmi.w	.LBB0_112
.Ltmp128:
@ %bb.64:                               @   in Loop: Header=BB0_3 Depth=1
	@DEBUG_VALUE: indev_encoder_proc:last_state <- $r10
	@DEBUG_VALUE: indev_encoder_proc:g <- $r6
	@DEBUG_VALUE: indev_encoder_proc:i <- $r5
	@DEBUG_VALUE: indev_encoder_proc:data <- [DW_OP_plus_uconst 4, DW_OP_stack_value] $sp
	@DEBUG_VALUE: lv_indev_read_timer_cb:timer <- [DW_OP_LLVM_entry_value 1] $r0
	.loc	17 675 35 is_stmt 1             @ ../GUILib/src/core/lv_indev.c:675:35
	ldr.w	r0, [r11]
	.loc	17 675 68 is_stmt 0             @ ../GUILib/src/core/lv_indev.c:675:68
	ldr.w	r2, [r8]
	.loc	17 675 21                       @ ../GUILib/src/core/lv_indev.c:675:21
	movs	r1, #7
	bl	lv_event_send
.Ltmp129:
	@DEBUG_VALUE: indev_reset_check:proc <- [DW_OP_plus_uconst 4, DW_OP_stack_value] $r5
	.loc	17 1118 14 is_stmt 1            @ ../GUILib/src/core/lv_indev.c:1118:14
	ldrb	r0, [r5, #5]
.Ltmp130:
	.loc	17 1118 8 is_stmt 0             @ ../GUILib/src/core/lv_indev.c:1118:8
	lsls	r0, r0, #30
	bmi.w	.LBB0_112
.Ltmp131:
@ %bb.65:                               @   in Loop: Header=BB0_3 Depth=1
	@DEBUG_VALUE: indev_encoder_proc:last_state <- $r10
	@DEBUG_VALUE: indev_encoder_proc:g <- $r6
	@DEBUG_VALUE: indev_encoder_proc:i <- $r5
	@DEBUG_VALUE: indev_encoder_proc:data <- [DW_OP_plus_uconst 4, DW_OP_stack_value] $sp
	@DEBUG_VALUE: lv_indev_read_timer_cb:timer <- [DW_OP_LLVM_entry_value 1] $r0
	.loc	17 679 21 is_stmt 1             @ ../GUILib/src/core/lv_indev.c:679:21
	mov	r0, r6
	movs	r1, #10
	bl	lv_group_send_data
.Ltmp132:
	.loc	17 0 21 is_stmt 0               @ ../GUILib/src/core/lv_indev.c:0:21
	b	.LBB0_141
.Ltmp133:
.LBB0_66:                               @   in Loop: Header=BB0_3 Depth=1
	@DEBUG_VALUE: indev_button_proc:i <- $r5
	@DEBUG_VALUE: indev_button_proc:data <- [DW_OP_plus_uconst 4, DW_OP_stack_value] $sp
	@DEBUG_VALUE: lv_indev_read_timer_cb:timer <- [DW_OP_LLVM_entry_value 1] $r0
	.loc	17 767 10 is_stmt 1             @ ../GUILib/src/core/lv_indev.c:767:10
	bl	indev_proc_release
.Ltmp134:
.LBB0_67:                               @   in Loop: Header=BB0_3 Depth=1
	@DEBUG_VALUE: indev_button_proc:i <- $r5
	@DEBUG_VALUE: indev_button_proc:data <- [DW_OP_plus_uconst 4, DW_OP_stack_value] $sp
	@DEBUG_VALUE: lv_indev_read_timer_cb:timer <- [DW_OP_LLVM_entry_value 1] $r0
	@DEBUG_VALUE: indev_reset_check:proc <- undef
	.loc	17 1118 14                      @ ../GUILib/src/core/lv_indev.c:1118:14
	ldrb	r0, [r5, #5]
	add	r7, sp, #4
.Ltmp135:
	.loc	17 1118 8 is_stmt 0             @ ../GUILib/src/core/lv_indev.c:1118:8
	lsls	r0, r0, #30
	bmi.w	.LBB0_112
.Ltmp136:
	.p2align	2
.LBB0_68:                               @   in Loop: Header=BB0_3 Depth=1
	@DEBUG_VALUE: lv_indev_read_timer_cb:timer <- [DW_OP_LLVM_entry_value 1] $r0
	.loc	17 0 0                          @ ../GUILib/src/core/lv_indev.c:0:0
	ldr	r0, [r5, #8]
	str	r0, [r5, #12]
	b	.LBB0_113
.Ltmp137:
.LBB0_69:                               @   in Loop: Header=BB0_3 Depth=1
	@DEBUG_VALUE: indev_keypad_proc:prev_state <- [DW_OP_LLVM_convert 8 7, DW_OP_LLVM_convert 32 7, DW_OP_stack_value] $r7
	@DEBUG_VALUE: indev_keypad_proc:g <- $r6
	@DEBUG_VALUE: indev_keypad_proc:i <- $r5
	@DEBUG_VALUE: indev_keypad_proc:prev_key <- $r1
	@DEBUG_VALUE: indev_keypad_proc:data <- [DW_OP_plus_uconst 4, DW_OP_stack_value] $sp
	@DEBUG_VALUE: lv_indev_read_timer_cb:timer <- [DW_OP_LLVM_entry_value 1] $r0
	.loc	17 448 51 is_stmt 1             @ ../GUILib/src/core/lv_indev.c:448:51
	cmp	r7, #1
.Ltmp138:
	@DEBUG_VALUE: indev_keypad_proc:prev_state <- [DW_OP_LLVM_convert 8 7, DW_OP_LLVM_convert 32 7, DW_OP_stack_value] undef
	it	eq
	cmpeq	r3, #1
	beq	.LBB0_80
.Ltmp139:
@ %bb.70:                               @   in Loop: Header=BB0_3 Depth=1
	@DEBUG_VALUE: indev_keypad_proc:g <- $r6
	@DEBUG_VALUE: indev_keypad_proc:i <- $r5
	@DEBUG_VALUE: indev_keypad_proc:prev_key <- $r1
	@DEBUG_VALUE: indev_keypad_proc:data <- [DW_OP_plus_uconst 4, DW_OP_stack_value] $sp
	@DEBUG_VALUE: lv_indev_read_timer_cb:timer <- [DW_OP_LLVM_entry_value 1] $r0
	.loc	17 495 52                       @ ../GUILib/src/core/lv_indev.c:495:52
	cmp	r7, #1
	add	r7, sp, #4
	it	eq
	cmpeq	r3, #0
	bne.w	.LBB0_112
.Ltmp140:
@ %bb.71:                               @   in Loop: Header=BB0_3 Depth=1
	@DEBUG_VALUE: indev_keypad_proc:g <- $r6
	@DEBUG_VALUE: indev_keypad_proc:i <- $r5
	@DEBUG_VALUE: indev_keypad_proc:prev_key <- $r1
	@DEBUG_VALUE: indev_keypad_proc:data <- [DW_OP_plus_uconst 4, DW_OP_stack_value] $sp
	@DEBUG_VALUE: lv_indev_read_timer_cb:timer <- [DW_OP_LLVM_entry_value 1] $r0
	.loc	17 499 12                       @ ../GUILib/src/core/lv_indev.c:499:12
	cmp	r1, #10
	.loc	17 498 19                       @ ../GUILib/src/core/lv_indev.c:498:19
	str	r1, [sp, #8]
	.loc	17 499 12                       @ ../GUILib/src/core/lv_indev.c:499:12
	bne.w	.LBB0_101
.Ltmp141:
@ %bb.72:                               @   in Loop: Header=BB0_3 Depth=1
	@DEBUG_VALUE: indev_keypad_proc:g <- $r6
	@DEBUG_VALUE: indev_keypad_proc:i <- $r5
	@DEBUG_VALUE: indev_keypad_proc:prev_key <- $r1
	@DEBUG_VALUE: indev_keypad_proc:data <- [DW_OP_plus_uconst 4, DW_OP_stack_value] $sp
	@DEBUG_VALUE: lv_indev_read_timer_cb:timer <- [DW_OP_LLVM_entry_value 1] $r0
	.loc	17 501 61                       @ ../GUILib/src/core/lv_indev.c:501:61
	ldr.w	r2, [r8]
	.loc	17 501 13 is_stmt 0             @ ../GUILib/src/core/lv_indev.c:501:13
	movs	r1, #8
.Ltmp142:
	bl	lv_event_send
.Ltmp143:
	@DEBUG_VALUE: indev_reset_check:proc <- [DW_OP_plus_uconst 4, DW_OP_stack_value] $r5
	.loc	17 1118 14 is_stmt 1            @ ../GUILib/src/core/lv_indev.c:1118:14
	ldrb	r0, [r5, #5]
.Ltmp144:
	.loc	17 1118 8 is_stmt 0             @ ../GUILib/src/core/lv_indev.c:1118:8
	lsls	r1, r0, #30
	bmi.w	.LBB0_112
.Ltmp145:
@ %bb.73:                               @   in Loop: Header=BB0_3 Depth=1
	@DEBUG_VALUE: indev_keypad_proc:g <- $r6
	@DEBUG_VALUE: indev_keypad_proc:i <- $r5
	@DEBUG_VALUE: indev_keypad_proc:data <- [DW_OP_plus_uconst 4, DW_OP_stack_value] $sp
	@DEBUG_VALUE: lv_indev_read_timer_cb:timer <- [DW_OP_LLVM_entry_value 1] $r0
	.loc	17 504 16 is_stmt 1             @ ../GUILib/src/core/lv_indev.c:504:16
	lsls	r0, r0, #31
	bne	.LBB0_75
.Ltmp146:
@ %bb.74:                               @   in Loop: Header=BB0_3 Depth=1
	@DEBUG_VALUE: indev_keypad_proc:g <- $r6
	@DEBUG_VALUE: indev_keypad_proc:i <- $r5
	@DEBUG_VALUE: indev_keypad_proc:data <- [DW_OP_plus_uconst 4, DW_OP_stack_value] $sp
	@DEBUG_VALUE: lv_indev_read_timer_cb:timer <- [DW_OP_LLVM_entry_value 1] $r0
	.loc	17 505 31                       @ ../GUILib/src/core/lv_indev.c:505:31
	ldr.w	r0, [r11]
	.loc	17 505 70 is_stmt 0             @ ../GUILib/src/core/lv_indev.c:505:70
	ldr.w	r2, [r8]
	.loc	17 505 17                       @ ../GUILib/src/core/lv_indev.c:505:17
	movs	r1, #4
	bl	lv_event_send
.Ltmp147:
	@DEBUG_VALUE: indev_reset_check:proc <- [DW_OP_plus_uconst 4, DW_OP_stack_value] $r5
	.loc	17 1118 14 is_stmt 1            @ ../GUILib/src/core/lv_indev.c:1118:14
	ldrb	r0, [r5, #5]
.Ltmp148:
	.loc	17 1118 8 is_stmt 0             @ ../GUILib/src/core/lv_indev.c:1118:8
	lsls	r0, r0, #30
	bmi.w	.LBB0_112
.Ltmp149:
.LBB0_75:                               @   in Loop: Header=BB0_3 Depth=1
	@DEBUG_VALUE: indev_keypad_proc:g <- $r6
	@DEBUG_VALUE: indev_keypad_proc:i <- $r5
	@DEBUG_VALUE: indev_keypad_proc:data <- [DW_OP_plus_uconst 4, DW_OP_stack_value] $sp
	@DEBUG_VALUE: lv_indev_read_timer_cb:timer <- [DW_OP_LLVM_entry_value 1] $r0
	.loc	17 509 27 is_stmt 1             @ ../GUILib/src/core/lv_indev.c:509:27
	ldr.w	r0, [r11]
	.loc	17 509 60 is_stmt 0             @ ../GUILib/src/core/lv_indev.c:509:60
	ldr.w	r2, [r8]
	.loc	17 509 13                       @ ../GUILib/src/core/lv_indev.c:509:13
	movs	r1, #7
	bl	lv_event_send
.Ltmp150:
	@DEBUG_VALUE: indev_reset_check:proc <- [DW_OP_plus_uconst 4, DW_OP_stack_value] $r5
	.loc	17 1118 14 is_stmt 1            @ ../GUILib/src/core/lv_indev.c:1118:14
	ldrb	r0, [r5, #5]
.Ltmp151:
	.loc	17 1118 8 is_stmt 0             @ ../GUILib/src/core/lv_indev.c:1118:8
	lsls	r1, r0, #30
	bpl.w	.LBB0_102
	b	.LBB0_112
.Ltmp152:
.LBB0_76:                               @   in Loop: Header=BB0_3 Depth=1
	@DEBUG_VALUE: indev_keypad_proc:prev_state <- [DW_OP_LLVM_convert 8 7, DW_OP_LLVM_convert 32 7, DW_OP_stack_value] $r7
	@DEBUG_VALUE: indev_keypad_proc:g <- $r6
	@DEBUG_VALUE: indev_keypad_proc:i <- $r5
	@DEBUG_VALUE: indev_keypad_proc:data <- [DW_OP_plus_uconst 4, DW_OP_stack_value] $sp
	@DEBUG_VALUE: lv_indev_read_timer_cb:timer <- [DW_OP_LLVM_entry_value 1] $r0
	.loc	17 416 12 is_stmt 1             @ ../GUILib/src/core/lv_indev.c:416:12
	cmp	r1, #11
	add	r7, sp, #4
.Ltmp153:
	beq.w	.LBB0_110
.Ltmp154:
@ %bb.77:                               @   in Loop: Header=BB0_3 Depth=1
	@DEBUG_VALUE: indev_keypad_proc:g <- $r6
	@DEBUG_VALUE: indev_keypad_proc:i <- $r5
	@DEBUG_VALUE: indev_keypad_proc:data <- [DW_OP_plus_uconst 4, DW_OP_stack_value] $sp
	@DEBUG_VALUE: lv_indev_read_timer_cb:timer <- [DW_OP_LLVM_entry_value 1] $r0
	cmp	r1, #27
	bne	.LBB0_85
.Ltmp155:
@ %bb.78:                               @   in Loop: Header=BB0_3 Depth=1
	@DEBUG_VALUE: indev_keypad_proc:g <- $r6
	@DEBUG_VALUE: indev_keypad_proc:i <- $r5
	@DEBUG_VALUE: indev_keypad_proc:data <- [DW_OP_plus_uconst 4, DW_OP_stack_value] $sp
	@DEBUG_VALUE: lv_indev_read_timer_cb:timer <- [DW_OP_LLVM_entry_value 1] $r0
	.loc	17 425 13                       @ ../GUILib/src/core/lv_indev.c:425:13
	mov	r0, r6
	movs	r1, #27
	bl	lv_group_send_data
.Ltmp156:
	.loc	17 427 27                       @ ../GUILib/src/core/lv_indev.c:427:27
	ldr.w	r0, [r11]
	.loc	17 427 59 is_stmt 0             @ ../GUILib/src/core/lv_indev.c:427:59
	ldr.w	r2, [r8]
	.loc	17 427 13                       @ ../GUILib/src/core/lv_indev.c:427:13
	movs	r1, #32
.Ltmp157:
.LBB0_79:                               @   in Loop: Header=BB0_3 Depth=1
	@DEBUG_VALUE: indev_keypad_proc:g <- $r6
	@DEBUG_VALUE: indev_keypad_proc:i <- $r5
	@DEBUG_VALUE: indev_keypad_proc:data <- [DW_OP_plus_uconst 4, DW_OP_stack_value] $sp
	@DEBUG_VALUE: lv_indev_read_timer_cb:timer <- [DW_OP_LLVM_entry_value 1] $r0
	.loc	17 0 0                          @ ../GUILib/src/core/lv_indev.c:0:0
	bl	lv_event_send
.Ltmp158:
	@DEBUG_VALUE: indev_reset_check:proc <- [DW_OP_plus_uconst 4, DW_OP_stack_value] $r5
	b	.LBB0_111
.Ltmp159:
.LBB0_80:                               @   in Loop: Header=BB0_3 Depth=1
	@DEBUG_VALUE: indev_keypad_proc:g <- $r6
	@DEBUG_VALUE: indev_keypad_proc:i <- $r5
	@DEBUG_VALUE: indev_keypad_proc:prev_key <- $r1
	@DEBUG_VALUE: indev_keypad_proc:data <- [DW_OP_plus_uconst 4, DW_OP_stack_value] $sp
	@DEBUG_VALUE: lv_indev_read_timer_cb:timer <- [DW_OP_LLVM_entry_value 1] $r0
	.loc	17 450 12 is_stmt 1             @ ../GUILib/src/core/lv_indev.c:450:12
	cmp	r2, #10
	bne	.LBB0_93
.Ltmp160:
@ %bb.81:                               @   in Loop: Header=BB0_3 Depth=1
	@DEBUG_VALUE: indev_keypad_proc:g <- $r6
	@DEBUG_VALUE: indev_keypad_proc:i <- $r5
	@DEBUG_VALUE: indev_keypad_proc:prev_key <- $r1
	@DEBUG_VALUE: indev_keypad_proc:data <- [DW_OP_plus_uconst 4, DW_OP_stack_value] $sp
	@DEBUG_VALUE: lv_indev_read_timer_cb:timer <- [DW_OP_LLVM_entry_value 1] $r0
	.loc	17 451 61                       @ ../GUILib/src/core/lv_indev.c:451:61
	ldr.w	r2, [r8]
	.loc	17 451 13 is_stmt 0             @ ../GUILib/src/core/lv_indev.c:451:13
	movs	r1, #2
.Ltmp161:
	bl	lv_event_send
.Ltmp162:
	@DEBUG_VALUE: indev_reset_check:proc <- [DW_OP_plus_uconst 4, DW_OP_stack_value] $r5
	.loc	17 1118 14 is_stmt 1            @ ../GUILib/src/core/lv_indev.c:1118:14
	ldrb	r0, [r5, #5]
	add	r7, sp, #4
.Ltmp163:
	.loc	17 1118 8 is_stmt 0             @ ../GUILib/src/core/lv_indev.c:1118:8
	lsls	r1, r0, #30
	bpl	.LBB0_94
	b	.LBB0_112
.Ltmp164:
.LBB0_82:                               @   in Loop: Header=BB0_3 Depth=1
	@DEBUG_VALUE: indev_encoder_proc:last_state <- $r10
	@DEBUG_VALUE: indev_encoder_proc:g <- $r6
	@DEBUG_VALUE: indev_encoder_proc:i <- $r5
	@DEBUG_VALUE: indev_encoder_proc:data <- [DW_OP_plus_uconst 4, DW_OP_stack_value] $sp
	@DEBUG_VALUE: lv_indev_read_timer_cb:timer <- [DW_OP_LLVM_entry_value 1] $r0
	.loc	17 560 32 is_stmt 1             @ ../GUILib/src/core/lv_indev.c:560:32
	bl	lv_tick_get
.Ltmp165:
	.loc	17 562 18                       @ ../GUILib/src/core/lv_indev.c:562:18
	ldr	r1, [sp, #8]
.Ltmp166:
	.loc	17 560 30                       @ ../GUILib/src/core/lv_indev.c:560:30
	str	r0, [r5, #68]
	.loc	17 562 12                       @ ../GUILib/src/core/lv_indev.c:562:12
	cmp	r1, #19
	bgt	.LBB0_98
.Ltmp167:
@ %bb.83:                               @   in Loop: Header=BB0_3 Depth=1
	@DEBUG_VALUE: indev_encoder_proc:last_state <- $r10
	@DEBUG_VALUE: indev_encoder_proc:g <- $r6
	@DEBUG_VALUE: indev_encoder_proc:i <- $r5
	@DEBUG_VALUE: indev_encoder_proc:data <- [DW_OP_plus_uconst 4, DW_OP_stack_value] $sp
	@DEBUG_VALUE: lv_indev_read_timer_cb:timer <- [DW_OP_LLVM_entry_value 1] $r0
	cmp	r1, #10
	beq.w	.LBB0_114
.Ltmp168:
@ %bb.84:                               @   in Loop: Header=BB0_3 Depth=1
	@DEBUG_VALUE: indev_encoder_proc:last_state <- $r10
	@DEBUG_VALUE: indev_encoder_proc:g <- $r6
	@DEBUG_VALUE: indev_encoder_proc:i <- $r5
	@DEBUG_VALUE: indev_encoder_proc:data <- [DW_OP_plus_uconst 4, DW_OP_stack_value] $sp
	@DEBUG_VALUE: lv_indev_read_timer_cb:timer <- [DW_OP_LLVM_entry_value 1] $r0
	cmp	r1, #19
	beq.w	.LBB0_124
	b	.LBB0_116
.Ltmp169:
.LBB0_85:                               @   in Loop: Header=BB0_3 Depth=1
	@DEBUG_VALUE: indev_keypad_proc:g <- $r6
	@DEBUG_VALUE: indev_keypad_proc:i <- $r5
	@DEBUG_VALUE: indev_keypad_proc:data <- [DW_OP_plus_uconst 4, DW_OP_stack_value] $sp
	@DEBUG_VALUE: lv_indev_read_timer_cb:timer <- [DW_OP_LLVM_entry_value 1] $r0
	.loc	17 444 13                       @ ../GUILib/src/core/lv_indev.c:444:13
	mov	r0, r6
	bl	lv_group_send_data
.Ltmp170:
	.loc	17 0 13 is_stmt 0               @ ../GUILib/src/core/lv_indev.c:0:13
	b	.LBB0_112
.Ltmp171:
.LBB0_86:                               @   in Loop: Header=BB0_3 Depth=1
	@DEBUG_VALUE: indev_encoder_proc:last_state <- $r10
	@DEBUG_VALUE: indev_encoder_proc:g <- $r6
	@DEBUG_VALUE: indev_encoder_proc:i <- $r5
	@DEBUG_VALUE: indev_encoder_proc:data <- [DW_OP_plus_uconst 4, DW_OP_stack_value] $sp
	@DEBUG_VALUE: lv_indev_read_timer_cb:timer <- [DW_OP_LLVM_entry_value 1] $r0
	.loc	17 593 20 is_stmt 1             @ ../GUILib/src/core/lv_indev.c:593:20
	ldrb	r0, [r5, #5]
	.loc	17 593 38 is_stmt 0             @ ../GUILib/src/core/lv_indev.c:593:38
	lsls	r0, r0, #31
	bne.w	.LBB0_118
.Ltmp172:
@ %bb.87:                               @   in Loop: Header=BB0_3 Depth=1
	@DEBUG_VALUE: indev_encoder_proc:last_state <- $r10
	@DEBUG_VALUE: indev_encoder_proc:g <- $r6
	@DEBUG_VALUE: indev_encoder_proc:i <- $r5
	@DEBUG_VALUE: indev_encoder_proc:data <- [DW_OP_plus_uconst 4, DW_OP_stack_value] $sp
	@DEBUG_VALUE: lv_indev_read_timer_cb:timer <- [DW_OP_LLVM_entry_value 1] $r0
	.loc	17 593 63                       @ ../GUILib/src/core/lv_indev.c:593:63
	ldr	r0, [r5, #68]
	.loc	17 593 41                       @ ../GUILib/src/core/lv_indev.c:593:41
	bl	lv_tick_elaps
.Ltmp173:
	.loc	17 593 82                       @ ../GUILib/src/core/lv_indev.c:593:82
	ldr	r1, [r5]
	.loc	17 593 90                       @ ../GUILib/src/core/lv_indev.c:593:90
	ldrh	r2, [r1, #28]
	.loc	17 0 0                          @ ../GUILib/src/core/lv_indev.c:0:0
	ldrb	r1, [r5, #5]
.Ltmp174:
	.loc	17 593 12                       @ ../GUILib/src/core/lv_indev.c:593:12
	cmp	r0, r2
	bls.w	.LBB0_117
.Ltmp175:
@ %bb.88:                               @   in Loop: Header=BB0_3 Depth=1
	@DEBUG_VALUE: indev_encoder_proc:last_state <- $r10
	@DEBUG_VALUE: indev_encoder_proc:g <- $r6
	@DEBUG_VALUE: indev_encoder_proc:i <- $r5
	@DEBUG_VALUE: indev_encoder_proc:data <- [DW_OP_plus_uconst 4, DW_OP_stack_value] $sp
	@DEBUG_VALUE: lv_indev_read_timer_cb:timer <- [DW_OP_LLVM_entry_value 1] $r0
	.loc	17 595 34 is_stmt 1             @ ../GUILib/src/core/lv_indev.c:595:34
	orr	r0, r1, #1
	strb	r0, [r5, #5]
	.loc	17 596 44                       @ ../GUILib/src/core/lv_indev.c:596:44
	bl	lv_tick_get
.Ltmp176:
	.loc	17 598 22                       @ ../GUILib/src/core/lv_indev.c:598:22
	ldr	r1, [sp, #8]
.Ltmp177:
	.loc	17 596 42                       @ ../GUILib/src/core/lv_indev.c:596:42
	str	r0, [r5, #72]
	.loc	17 598 16                       @ ../GUILib/src/core/lv_indev.c:598:16
	cmp	r1, #10
	bne.w	.LBB0_143
.Ltmp178:
@ %bb.89:                               @   in Loop: Header=BB0_3 Depth=1
	@DEBUG_VALUE: indev_encoder_proc:last_state <- $r10
	@DEBUG_VALUE: indev_encoder_proc:g <- $r6
	@DEBUG_VALUE: indev_encoder_proc:i <- $r5
	@DEBUG_VALUE: indev_encoder_proc:data <- [DW_OP_plus_uconst 4, DW_OP_stack_value] $sp
	@DEBUG_VALUE: lv_indev_read_timer_cb:timer <- [DW_OP_LLVM_entry_value 1] $r0
	.loc	17 599 66                       @ ../GUILib/src/core/lv_indev.c:599:66
	ldr.w	r0, [r11]
	.loc	17 599 47 is_stmt 0             @ ../GUILib/src/core/lv_indev.c:599:47
	bl	lv_obj_is_editable
.Ltmp179:
	.loc	17 599 81                       @ ../GUILib/src/core/lv_indev.c:599:81
	cbnz	r0, .LBB0_91
.Ltmp180:
@ %bb.90:                               @   in Loop: Header=BB0_3 Depth=1
	@DEBUG_VALUE: indev_encoder_proc:last_state <- $r10
	@DEBUG_VALUE: indev_encoder_proc:g <- $r6
	@DEBUG_VALUE: indev_encoder_proc:i <- $r5
	@DEBUG_VALUE: indev_encoder_proc:data <- [DW_OP_plus_uconst 4, DW_OP_stack_value] $sp
	@DEBUG_VALUE: lv_indev_read_timer_cb:timer <- [DW_OP_LLVM_entry_value 1] $r0
	.loc	17 600 63 is_stmt 1             @ ../GUILib/src/core/lv_indev.c:600:63
	ldr.w	r0, [r11]
	.loc	17 600 47 is_stmt 0             @ ../GUILib/src/core/lv_indev.c:600:47
	movs	r1, #16
	bl	lv_obj_has_flag
.Ltmp181:
	@DEBUG_VALUE: editable_or_scrollable <- [DW_OP_LLVM_convert 1 7, DW_OP_LLVM_convert 8 7, DW_OP_stack_value] undef
	.loc	17 603 20 is_stmt 1             @ ../GUILib/src/core/lv_indev.c:603:20
	cmp	r0, #0
	beq.w	.LBB0_142
.Ltmp182:
.LBB0_91:                               @   in Loop: Header=BB0_3 Depth=1
	@DEBUG_VALUE: indev_encoder_proc:last_state <- $r10
	@DEBUG_VALUE: indev_encoder_proc:g <- $r6
	@DEBUG_VALUE: indev_encoder_proc:i <- $r5
	@DEBUG_VALUE: indev_encoder_proc:data <- [DW_OP_plus_uconst 4, DW_OP_stack_value] $sp
	@DEBUG_VALUE: lv_indev_read_timer_cb:timer <- [DW_OP_LLVM_entry_value 1] $r0
	.loc	17 605 24                       @ ../GUILib/src/core/lv_indev.c:605:24
	mov	r0, r6
	bl	lv_group_get_obj_count
.Ltmp183:
	.loc	17 605 24 is_stmt 0             @ ../GUILib/src/core/lv_indev.c:605:24
	cmp	r0, #2
	blo.w	.LBB0_143
.Ltmp184:
@ %bb.92:                               @   in Loop: Header=BB0_3 Depth=1
	@DEBUG_VALUE: indev_encoder_proc:last_state <- $r10
	@DEBUG_VALUE: indev_encoder_proc:g <- $r6
	@DEBUG_VALUE: indev_encoder_proc:i <- $r5
	@DEBUG_VALUE: indev_encoder_proc:data <- [DW_OP_plus_uconst 4, DW_OP_stack_value] $sp
	@DEBUG_VALUE: lv_indev_read_timer_cb:timer <- [DW_OP_LLVM_entry_value 1] $r0
	.loc	17 607 49 is_stmt 1             @ ../GUILib/src/core/lv_indev.c:607:49
	mov	r0, r6
	bl	lv_group_get_editing
.Ltmp185:
	eor	r1, r0, #1
	.loc	17 607 25 is_stmt 0             @ ../GUILib/src/core/lv_indev.c:607:25
	mov	r0, r6
	bl	lv_group_set_editing
.Ltmp186:
	.loc	17 608 44 is_stmt 1             @ ../GUILib/src/core/lv_indev.c:608:44
	ldr.w	r0, [r11]
	.loc	17 608 25 is_stmt 0             @ ../GUILib/src/core/lv_indev.c:608:25
	movs	r1, #32
	bl	lv_obj_clear_state
.Ltmp187:
	.loc	17 0 25                         @ ../GUILib/src/core/lv_indev.c:0:25
	b	.LBB0_143
.Ltmp188:
.LBB0_93:                               @   in Loop: Header=BB0_3 Depth=1
	@DEBUG_VALUE: indev_keypad_proc:g <- $r6
	@DEBUG_VALUE: indev_keypad_proc:i <- $r5
	@DEBUG_VALUE: indev_keypad_proc:prev_key <- $r1
	@DEBUG_VALUE: indev_keypad_proc:data <- [DW_OP_plus_uconst 4, DW_OP_stack_value] $sp
	@DEBUG_VALUE: lv_indev_read_timer_cb:timer <- [DW_OP_LLVM_entry_value 1] $r0
	.loc	17 456 20 is_stmt 1             @ ../GUILib/src/core/lv_indev.c:456:20
	ldrb	r0, [r5, #5]
	add	r7, sp, #4
.Ltmp189:
.LBB0_94:                               @   in Loop: Header=BB0_3 Depth=1
	@DEBUG_VALUE: indev_keypad_proc:g <- $r6
	@DEBUG_VALUE: indev_keypad_proc:i <- $r5
	@DEBUG_VALUE: indev_keypad_proc:data <- [DW_OP_plus_uconst 4, DW_OP_stack_value] $sp
	@DEBUG_VALUE: lv_indev_read_timer_cb:timer <- [DW_OP_LLVM_entry_value 1] $r0
	.loc	17 456 38 is_stmt 0             @ ../GUILib/src/core/lv_indev.c:456:38
	lsls	r0, r0, #31
	bne	.LBB0_104
.Ltmp190:
@ %bb.95:                               @   in Loop: Header=BB0_3 Depth=1
	@DEBUG_VALUE: indev_keypad_proc:g <- $r6
	@DEBUG_VALUE: indev_keypad_proc:i <- $r5
	@DEBUG_VALUE: indev_keypad_proc:data <- [DW_OP_plus_uconst 4, DW_OP_stack_value] $sp
	@DEBUG_VALUE: lv_indev_read_timer_cb:timer <- [DW_OP_LLVM_entry_value 1] $r0
	.loc	17 456 63                       @ ../GUILib/src/core/lv_indev.c:456:63
	ldr	r0, [r5, #68]
	.loc	17 456 41                       @ ../GUILib/src/core/lv_indev.c:456:41
	bl	lv_tick_elaps
.Ltmp191:
	.loc	17 456 82                       @ ../GUILib/src/core/lv_indev.c:456:82
	ldr	r1, [r5]
	.loc	17 456 90                       @ ../GUILib/src/core/lv_indev.c:456:90
	ldrh	r2, [r1, #28]
	.loc	17 0 0                          @ ../GUILib/src/core/lv_indev.c:0:0
	ldrb	r1, [r5, #5]
.Ltmp192:
	.loc	17 456 12                       @ ../GUILib/src/core/lv_indev.c:456:12
	cmp	r0, r2
	bls	.LBB0_103
.Ltmp193:
@ %bb.96:                               @   in Loop: Header=BB0_3 Depth=1
	@DEBUG_VALUE: indev_keypad_proc:g <- $r6
	@DEBUG_VALUE: indev_keypad_proc:i <- $r5
	@DEBUG_VALUE: indev_keypad_proc:data <- [DW_OP_plus_uconst 4, DW_OP_stack_value] $sp
	@DEBUG_VALUE: lv_indev_read_timer_cb:timer <- [DW_OP_LLVM_entry_value 1] $r0
	.loc	17 457 34 is_stmt 1             @ ../GUILib/src/core/lv_indev.c:457:34
	orr	r0, r1, #1
	strb	r0, [r5, #5]
.Ltmp194:
	.loc	17 458 22                       @ ../GUILib/src/core/lv_indev.c:458:22
	ldr	r0, [sp, #8]
.Ltmp195:
	.loc	17 458 16 is_stmt 0             @ ../GUILib/src/core/lv_indev.c:458:16
	cmp	r0, #10
	bne	.LBB0_112
.Ltmp196:
@ %bb.97:                               @   in Loop: Header=BB0_3 Depth=1
	@DEBUG_VALUE: indev_keypad_proc:g <- $r6
	@DEBUG_VALUE: indev_keypad_proc:i <- $r5
	@DEBUG_VALUE: indev_keypad_proc:data <- [DW_OP_plus_uconst 4, DW_OP_stack_value] $sp
	@DEBUG_VALUE: lv_indev_read_timer_cb:timer <- [DW_OP_LLVM_entry_value 1] $r0
	.loc	17 459 48 is_stmt 1             @ ../GUILib/src/core/lv_indev.c:459:48
	bl	lv_tick_get
.Ltmp197:
	.loc	17 460 31                       @ ../GUILib/src/core/lv_indev.c:460:31
	ldr.w	r1, [r11]
	.loc	17 460 69 is_stmt 0             @ ../GUILib/src/core/lv_indev.c:460:69
	ldr.w	r2, [r8]
	.loc	17 459 46 is_stmt 1             @ ../GUILib/src/core/lv_indev.c:459:46
	str	r0, [r5, #72]
	.loc	17 460 17                       @ ../GUILib/src/core/lv_indev.c:460:17
	mov	r0, r1
	movs	r1, #5
	b	.LBB0_79
.Ltmp198:
.LBB0_98:                               @   in Loop: Header=BB0_3 Depth=1
	@DEBUG_VALUE: indev_encoder_proc:last_state <- $r10
	@DEBUG_VALUE: indev_encoder_proc:g <- $r6
	@DEBUG_VALUE: indev_encoder_proc:i <- $r5
	@DEBUG_VALUE: indev_encoder_proc:data <- [DW_OP_plus_uconst 4, DW_OP_stack_value] $sp
	@DEBUG_VALUE: lv_indev_read_timer_cb:timer <- [DW_OP_LLVM_entry_value 1] $r0
	.loc	17 562 12                       @ ../GUILib/src/core/lv_indev.c:562:12
	cmp	r1, #20
	beq	.LBB0_123
.Ltmp199:
@ %bb.99:                               @   in Loop: Header=BB0_3 Depth=1
	@DEBUG_VALUE: indev_encoder_proc:last_state <- $r10
	@DEBUG_VALUE: indev_encoder_proc:g <- $r6
	@DEBUG_VALUE: indev_encoder_proc:i <- $r5
	@DEBUG_VALUE: indev_encoder_proc:data <- [DW_OP_plus_uconst 4, DW_OP_stack_value] $sp
	@DEBUG_VALUE: lv_indev_read_timer_cb:timer <- [DW_OP_LLVM_entry_value 1] $r0
	cmp	r1, #27
	bne	.LBB0_116
.Ltmp200:
@ %bb.100:                              @   in Loop: Header=BB0_3 Depth=1
	@DEBUG_VALUE: indev_encoder_proc:last_state <- $r10
	@DEBUG_VALUE: indev_encoder_proc:g <- $r6
	@DEBUG_VALUE: indev_encoder_proc:i <- $r5
	@DEBUG_VALUE: indev_encoder_proc:data <- [DW_OP_plus_uconst 4, DW_OP_stack_value] $sp
	@DEBUG_VALUE: lv_indev_read_timer_cb:timer <- [DW_OP_LLVM_entry_value 1] $r0
	.loc	17 580 13                       @ ../GUILib/src/core/lv_indev.c:580:13
	mov	r0, r6
	movs	r1, #27
	bl	lv_group_send_data
.Ltmp201:
	.loc	17 582 27                       @ ../GUILib/src/core/lv_indev.c:582:27
	ldr.w	r0, [r11]
	.loc	17 582 59 is_stmt 0             @ ../GUILib/src/core/lv_indev.c:582:59
	ldr.w	r2, [r8]
	.loc	17 582 13                       @ ../GUILib/src/core/lv_indev.c:582:13
	movs	r1, #32
	b	.LBB0_129
.Ltmp202:
.LBB0_101:                              @   in Loop: Header=BB0_3 Depth=1
	@DEBUG_VALUE: indev_keypad_proc:g <- $r6
	@DEBUG_VALUE: indev_keypad_proc:i <- $r5
	@DEBUG_VALUE: indev_keypad_proc:prev_key <- $r1
	@DEBUG_VALUE: indev_keypad_proc:data <- [DW_OP_plus_uconst 4, DW_OP_stack_value] $sp
	@DEBUG_VALUE: lv_indev_read_timer_cb:timer <- [DW_OP_LLVM_entry_value 1] $r0
	.loc	17 514 30 is_stmt 1             @ ../GUILib/src/core/lv_indev.c:514:30
	ldrb	r0, [r5, #5]
.Ltmp203:
.LBB0_102:                              @   in Loop: Header=BB0_3 Depth=1
	@DEBUG_VALUE: indev_keypad_proc:g <- $r6
	@DEBUG_VALUE: indev_keypad_proc:i <- $r5
	@DEBUG_VALUE: indev_keypad_proc:data <- [DW_OP_plus_uconst 4, DW_OP_stack_value] $sp
	@DEBUG_VALUE: lv_indev_read_timer_cb:timer <- [DW_OP_LLVM_entry_value 1] $r0
	and	r0, r0, #254
	.loc	17 513 30                       @ ../GUILib/src/core/lv_indev.c:513:30
	str.w	r9, [r5, #68]
	.loc	17 514 30                       @ ../GUILib/src/core/lv_indev.c:514:30
	strb	r0, [r5, #5]
	b	.LBB0_112
.Ltmp204:
.LBB0_103:                              @   in Loop: Header=BB0_3 Depth=1
	@DEBUG_VALUE: indev_keypad_proc:g <- $r6
	@DEBUG_VALUE: indev_keypad_proc:i <- $r5
	@DEBUG_VALUE: indev_keypad_proc:data <- [DW_OP_plus_uconst 4, DW_OP_stack_value] $sp
	@DEBUG_VALUE: lv_indev_read_timer_cb:timer <- [DW_OP_LLVM_entry_value 1] $r0
	.loc	17 465 43                       @ ../GUILib/src/core/lv_indev.c:465:43
	lsls	r0, r1, #31
	beq	.LBB0_112
.Ltmp205:
.LBB0_104:                              @   in Loop: Header=BB0_3 Depth=1
	@DEBUG_VALUE: indev_keypad_proc:g <- $r6
	@DEBUG_VALUE: indev_keypad_proc:i <- $r5
	@DEBUG_VALUE: indev_keypad_proc:data <- [DW_OP_plus_uconst 4, DW_OP_stack_value] $sp
	@DEBUG_VALUE: lv_indev_read_timer_cb:timer <- [DW_OP_LLVM_entry_value 1] $r0
	.loc	17 466 39                       @ ../GUILib/src/core/lv_indev.c:466:39
	ldr	r0, [r5, #72]
	.loc	17 466 17 is_stmt 0             @ ../GUILib/src/core/lv_indev.c:466:17
	bl	lv_tick_elaps
.Ltmp206:
	.loc	17 466 66                       @ ../GUILib/src/core/lv_indev.c:466:66
	ldr	r1, [r5]
	.loc	17 466 74                       @ ../GUILib/src/core/lv_indev.c:466:74
	ldrh	r1, [r1, #30]
.Ltmp207:
	.loc	17 465 17 is_stmt 1             @ ../GUILib/src/core/lv_indev.c:465:17
	cmp	r0, r1
	bls	.LBB0_112
.Ltmp208:
@ %bb.105:                              @   in Loop: Header=BB0_3 Depth=1
	@DEBUG_VALUE: indev_keypad_proc:g <- $r6
	@DEBUG_VALUE: indev_keypad_proc:i <- $r5
	@DEBUG_VALUE: indev_keypad_proc:data <- [DW_OP_plus_uconst 4, DW_OP_stack_value] $sp
	@DEBUG_VALUE: lv_indev_read_timer_cb:timer <- [DW_OP_LLVM_entry_value 1] $r0
	.loc	17 468 44                       @ ../GUILib/src/core/lv_indev.c:468:44
	bl	lv_tick_get
.Ltmp209:
	.loc	17 471 22                       @ ../GUILib/src/core/lv_indev.c:471:22
	ldr	r1, [sp, #8]
.Ltmp210:
	.loc	17 468 42                       @ ../GUILib/src/core/lv_indev.c:468:42
	str	r0, [r5, #72]
	.loc	17 471 16                       @ ../GUILib/src/core/lv_indev.c:471:16
	cmp	r1, #9
	beq	.LBB0_109
.Ltmp211:
@ %bb.106:                              @   in Loop: Header=BB0_3 Depth=1
	@DEBUG_VALUE: indev_keypad_proc:g <- $r6
	@DEBUG_VALUE: indev_keypad_proc:i <- $r5
	@DEBUG_VALUE: indev_keypad_proc:data <- [DW_OP_plus_uconst 4, DW_OP_stack_value] $sp
	@DEBUG_VALUE: lv_indev_read_timer_cb:timer <- [DW_OP_LLVM_entry_value 1] $r0
	cmp	r1, #11
	beq	.LBB0_110
.Ltmp212:
@ %bb.107:                              @   in Loop: Header=BB0_3 Depth=1
	@DEBUG_VALUE: indev_keypad_proc:g <- $r6
	@DEBUG_VALUE: indev_keypad_proc:i <- $r5
	@DEBUG_VALUE: indev_keypad_proc:data <- [DW_OP_plus_uconst 4, DW_OP_stack_value] $sp
	@DEBUG_VALUE: lv_indev_read_timer_cb:timer <- [DW_OP_LLVM_entry_value 1] $r0
	cmp	r1, #10
	bne	.LBB0_133
.Ltmp213:
@ %bb.108:                              @   in Loop: Header=BB0_3 Depth=1
	@DEBUG_VALUE: indev_keypad_proc:g <- $r6
	@DEBUG_VALUE: indev_keypad_proc:i <- $r5
	@DEBUG_VALUE: indev_keypad_proc:data <- [DW_OP_plus_uconst 4, DW_OP_stack_value] $sp
	@DEBUG_VALUE: lv_indev_read_timer_cb:timer <- [DW_OP_LLVM_entry_value 1] $r0
	.loc	17 472 31                       @ ../GUILib/src/core/lv_indev.c:472:31
	ldr.w	r0, [r11]
	.loc	17 472 76 is_stmt 0             @ ../GUILib/src/core/lv_indev.c:472:76
	ldr.w	r2, [r8]
	.loc	17 472 17                       @ ../GUILib/src/core/lv_indev.c:472:17
	movs	r1, #6
	b	.LBB0_79
.Ltmp214:
.LBB0_109:                              @   in Loop: Header=BB0_3 Depth=1
	@DEBUG_VALUE: indev_keypad_proc:g <- $r6
	@DEBUG_VALUE: indev_keypad_proc:i <- $r5
	@DEBUG_VALUE: indev_keypad_proc:data <- [DW_OP_plus_uconst 4, DW_OP_stack_value] $sp
	@DEBUG_VALUE: lv_indev_read_timer_cb:timer <- [DW_OP_LLVM_entry_value 1] $r0
	.loc	17 0 0                          @ ../GUILib/src/core/lv_indev.c:0:0
	mov	r0, r6
	movs	r1, #0
	bl	lv_group_set_editing
.Ltmp215:
	mov	r0, r6
	bl	lv_group_focus_next
.Ltmp216:
	@DEBUG_VALUE: indev_reset_check:proc <- [DW_OP_plus_uconst 4, DW_OP_stack_value] $r5
	b	.LBB0_111
.Ltmp217:
.LBB0_110:                              @   in Loop: Header=BB0_3 Depth=1
	@DEBUG_VALUE: indev_keypad_proc:g <- $r6
	@DEBUG_VALUE: indev_keypad_proc:i <- $r5
	@DEBUG_VALUE: indev_keypad_proc:data <- [DW_OP_plus_uconst 4, DW_OP_stack_value] $sp
	@DEBUG_VALUE: lv_indev_read_timer_cb:timer <- [DW_OP_LLVM_entry_value 1] $r0
	mov	r0, r6
	movs	r1, #0
	bl	lv_group_set_editing
.Ltmp218:
	mov	r0, r6
	bl	lv_group_focus_prev
.Ltmp219:
	@DEBUG_VALUE: indev_reset_check:proc <- [DW_OP_plus_uconst 4, DW_OP_stack_value] $r5
.LBB0_111:                              @   in Loop: Header=BB0_3 Depth=1
	@DEBUG_VALUE: indev_keypad_proc:g <- $r6
	@DEBUG_VALUE: indev_keypad_proc:i <- $r5
	@DEBUG_VALUE: indev_keypad_proc:data <- [DW_OP_plus_uconst 4, DW_OP_stack_value] $sp
	@DEBUG_VALUE: lv_indev_read_timer_cb:timer <- [DW_OP_LLVM_entry_value 1] $r0
	ldrb	r0, [r5, #5]
	lsls	r0, r0, #30
.Ltmp220:
.LBB0_112:                              @   in Loop: Header=BB0_3 Depth=1
	@DEBUG_VALUE: lv_indev_read_timer_cb:timer <- [DW_OP_LLVM_entry_value 1] $r0
	str.w	r9, [r11]
.Ltmp221:
	.p2align	2
.LBB0_113:                              @   in Loop: Header=BB0_3 Depth=1
	@DEBUG_VALUE: lv_indev_read_timer_cb:timer <- [DW_OP_LLVM_entry_value 1] $r0
	.loc	17 112 40 is_stmt 1             @ ../GUILib/src/core/lv_indev.c:112:40
	ldr.w	r5, [r8]
	.loc	17 112 9 is_stmt 0              @ ../GUILib/src/core/lv_indev.c:112:9
	mov	r0, r5
	bl	indev_proc_reset_query_handler
.Ltmp222:
	.loc	17 113 5 is_stmt 1              @ ../GUILib/src/core/lv_indev.c:113:5
	cmp	r4, #0
	bne.w	.LBB0_3
	b	.LBB0_160
.Ltmp223:
.LBB0_114:                              @   in Loop: Header=BB0_3 Depth=1
	@DEBUG_VALUE: indev_encoder_proc:last_state <- $r10
	@DEBUG_VALUE: indev_encoder_proc:g <- $r6
	@DEBUG_VALUE: indev_encoder_proc:i <- $r5
	@DEBUG_VALUE: indev_encoder_proc:data <- [DW_OP_plus_uconst 4, DW_OP_stack_value] $sp
	@DEBUG_VALUE: lv_indev_read_timer_cb:timer <- [DW_OP_LLVM_entry_value 1] $r0
	.loc	17 563 62                       @ ../GUILib/src/core/lv_indev.c:563:62
	ldr.w	r0, [r11]
	.loc	17 563 43 is_stmt 0             @ ../GUILib/src/core/lv_indev.c:563:43
	bl	lv_obj_is_editable
.Ltmp224:
	.loc	17 563 77                       @ ../GUILib/src/core/lv_indev.c:563:77
	cbz	r0, .LBB0_126
.Ltmp225:
@ %bb.115:                              @   in Loop: Header=BB0_3 Depth=1
	@DEBUG_VALUE: indev_encoder_proc:last_state <- $r10
	@DEBUG_VALUE: indev_encoder_proc:g <- $r6
	@DEBUG_VALUE: indev_encoder_proc:i <- $r5
	@DEBUG_VALUE: indev_encoder_proc:data <- [DW_OP_plus_uconst 4, DW_OP_stack_value] $sp
	@DEBUG_VALUE: lv_indev_read_timer_cb:timer <- [DW_OP_LLVM_entry_value 1] $r0
	.loc	17 0 77                         @ ../GUILib/src/core/lv_indev.c:0:77
	movs	r7, #0
	b	.LBB0_127
.Ltmp226:
.LBB0_116:                              @   in Loop: Header=BB0_3 Depth=1
	@DEBUG_VALUE: indev_encoder_proc:last_state <- $r10
	@DEBUG_VALUE: indev_encoder_proc:g <- $r6
	@DEBUG_VALUE: indev_encoder_proc:i <- $r5
	@DEBUG_VALUE: indev_encoder_proc:data <- [DW_OP_plus_uconst 4, DW_OP_stack_value] $sp
	@DEBUG_VALUE: lv_indev_read_timer_cb:timer <- [DW_OP_LLVM_entry_value 1] $r0
	.loc	17 587 13 is_stmt 1             @ ../GUILib/src/core/lv_indev.c:587:13
	mov	r0, r6
	bl	lv_group_send_data
.Ltmp227:
	.loc	17 0 13 is_stmt 0               @ ../GUILib/src/core/lv_indev.c:0:13
	b	.LBB0_145
.Ltmp228:
.LBB0_117:                              @   in Loop: Header=BB0_3 Depth=1
	@DEBUG_VALUE: indev_encoder_proc:last_state <- $r10
	@DEBUG_VALUE: indev_encoder_proc:g <- $r6
	@DEBUG_VALUE: indev_encoder_proc:i <- $r5
	@DEBUG_VALUE: indev_encoder_proc:data <- [DW_OP_plus_uconst 4, DW_OP_stack_value] $sp
	@DEBUG_VALUE: lv_indev_read_timer_cb:timer <- [DW_OP_LLVM_entry_value 1] $r0
	.loc	17 621 43 is_stmt 1             @ ../GUILib/src/core/lv_indev.c:621:43
	lsls	r0, r1, #31
	beq.w	.LBB0_145
.Ltmp229:
.LBB0_118:                              @   in Loop: Header=BB0_3 Depth=1
	@DEBUG_VALUE: indev_encoder_proc:last_state <- $r10
	@DEBUG_VALUE: indev_encoder_proc:g <- $r6
	@DEBUG_VALUE: indev_encoder_proc:i <- $r5
	@DEBUG_VALUE: indev_encoder_proc:data <- [DW_OP_plus_uconst 4, DW_OP_stack_value] $sp
	@DEBUG_VALUE: lv_indev_read_timer_cb:timer <- [DW_OP_LLVM_entry_value 1] $r0
	.loc	17 621 68 is_stmt 0             @ ../GUILib/src/core/lv_indev.c:621:68
	ldr	r0, [r5, #72]
	.loc	17 621 46                       @ ../GUILib/src/core/lv_indev.c:621:46
	bl	lv_tick_elaps
.Ltmp230:
	.loc	17 621 95                       @ ../GUILib/src/core/lv_indev.c:621:95
	ldr	r1, [r5]
	.loc	17 621 103                      @ ../GUILib/src/core/lv_indev.c:621:103
	ldrh	r1, [r1, #30]
.Ltmp231:
	.loc	17 621 17                       @ ../GUILib/src/core/lv_indev.c:621:17
	cmp	r0, r1
	bls	.LBB0_145
.Ltmp232:
@ %bb.119:                              @   in Loop: Header=BB0_3 Depth=1
	@DEBUG_VALUE: indev_encoder_proc:last_state <- $r10
	@DEBUG_VALUE: indev_encoder_proc:g <- $r6
	@DEBUG_VALUE: indev_encoder_proc:i <- $r5
	@DEBUG_VALUE: indev_encoder_proc:data <- [DW_OP_plus_uconst 4, DW_OP_stack_value] $sp
	@DEBUG_VALUE: lv_indev_read_timer_cb:timer <- [DW_OP_LLVM_entry_value 1] $r0
	.loc	17 623 44 is_stmt 1             @ ../GUILib/src/core/lv_indev.c:623:44
	bl	lv_tick_get
.Ltmp233:
	.loc	17 625 22                       @ ../GUILib/src/core/lv_indev.c:625:22
	ldr	r1, [sp, #8]
.Ltmp234:
	.loc	17 623 42                       @ ../GUILib/src/core/lv_indev.c:623:42
	str	r0, [r5, #72]
	.loc	17 625 16                       @ ../GUILib/src/core/lv_indev.c:625:16
	cmp	r1, #20
	beq	.LBB0_123
.Ltmp235:
@ %bb.120:                              @   in Loop: Header=BB0_3 Depth=1
	@DEBUG_VALUE: indev_encoder_proc:last_state <- $r10
	@DEBUG_VALUE: indev_encoder_proc:g <- $r6
	@DEBUG_VALUE: indev_encoder_proc:i <- $r5
	@DEBUG_VALUE: indev_encoder_proc:data <- [DW_OP_plus_uconst 4, DW_OP_stack_value] $sp
	@DEBUG_VALUE: lv_indev_read_timer_cb:timer <- [DW_OP_LLVM_entry_value 1] $r0
	cmp	r1, #19
	beq	.LBB0_124
.Ltmp236:
@ %bb.121:                              @   in Loop: Header=BB0_3 Depth=1
	@DEBUG_VALUE: indev_encoder_proc:last_state <- $r10
	@DEBUG_VALUE: indev_encoder_proc:g <- $r6
	@DEBUG_VALUE: indev_encoder_proc:i <- $r5
	@DEBUG_VALUE: indev_encoder_proc:data <- [DW_OP_plus_uconst 4, DW_OP_stack_value] $sp
	@DEBUG_VALUE: lv_indev_read_timer_cb:timer <- [DW_OP_LLVM_entry_value 1] $r0
	cmp	r1, #10
	bne	.LBB0_139
.Ltmp237:
@ %bb.122:                              @   in Loop: Header=BB0_3 Depth=1
	@DEBUG_VALUE: indev_encoder_proc:last_state <- $r10
	@DEBUG_VALUE: indev_encoder_proc:g <- $r6
	@DEBUG_VALUE: indev_encoder_proc:i <- $r5
	@DEBUG_VALUE: indev_encoder_proc:data <- [DW_OP_plus_uconst 4, DW_OP_stack_value] $sp
	@DEBUG_VALUE: lv_indev_read_timer_cb:timer <- [DW_OP_LLVM_entry_value 1] $r0
	.loc	17 626 31                       @ ../GUILib/src/core/lv_indev.c:626:31
	ldr.w	r0, [r11]
	.loc	17 626 76 is_stmt 0             @ ../GUILib/src/core/lv_indev.c:626:76
	ldr.w	r2, [r8]
	.loc	17 626 17                       @ ../GUILib/src/core/lv_indev.c:626:17
	movs	r1, #6
	b	.LBB0_129
.Ltmp238:
.LBB0_123:                              @   in Loop: Header=BB0_3 Depth=1
	@DEBUG_VALUE: indev_encoder_proc:last_state <- $r10
	@DEBUG_VALUE: indev_encoder_proc:g <- $r6
	@DEBUG_VALUE: indev_encoder_proc:i <- $r5
	@DEBUG_VALUE: indev_encoder_proc:data <- [DW_OP_plus_uconst 4, DW_OP_stack_value] $sp
	@DEBUG_VALUE: lv_indev_read_timer_cb:timer <- [DW_OP_LLVM_entry_value 1] $r0
	.loc	17 0 0                          @ ../GUILib/src/core/lv_indev.c:0:0
	ldrh.w	r0, [sp, #16]
	subs	r0, #1
	b	.LBB0_125
.Ltmp239:
.LBB0_124:                              @   in Loop: Header=BB0_3 Depth=1
	@DEBUG_VALUE: indev_encoder_proc:last_state <- $r10
	@DEBUG_VALUE: indev_encoder_proc:g <- $r6
	@DEBUG_VALUE: indev_encoder_proc:i <- $r5
	@DEBUG_VALUE: indev_encoder_proc:data <- [DW_OP_plus_uconst 4, DW_OP_stack_value] $sp
	@DEBUG_VALUE: lv_indev_read_timer_cb:timer <- [DW_OP_LLVM_entry_value 1] $r0
	ldrh.w	r0, [sp, #16]
	adds	r0, #1
.Ltmp240:
.LBB0_125:                              @   in Loop: Header=BB0_3 Depth=1
	@DEBUG_VALUE: indev_encoder_proc:last_state <- $r10
	@DEBUG_VALUE: indev_encoder_proc:g <- $r6
	@DEBUG_VALUE: indev_encoder_proc:i <- $r5
	@DEBUG_VALUE: indev_encoder_proc:data <- [DW_OP_plus_uconst 4, DW_OP_stack_value] $sp
	@DEBUG_VALUE: lv_indev_read_timer_cb:timer <- [DW_OP_LLVM_entry_value 1] $r0
	strh.w	r0, [sp, #16]
	b	.LBB0_146
.Ltmp241:
.LBB0_126:                              @   in Loop: Header=BB0_3 Depth=1
	@DEBUG_VALUE: indev_encoder_proc:last_state <- $r10
	@DEBUG_VALUE: indev_encoder_proc:g <- $r6
	@DEBUG_VALUE: indev_encoder_proc:i <- $r5
	@DEBUG_VALUE: indev_encoder_proc:data <- [DW_OP_plus_uconst 4, DW_OP_stack_value] $sp
	@DEBUG_VALUE: lv_indev_read_timer_cb:timer <- [DW_OP_LLVM_entry_value 1] $r0
	.loc	17 564 59 is_stmt 1             @ ../GUILib/src/core/lv_indev.c:564:59
	ldr.w	r0, [r11]
	.loc	17 564 43 is_stmt 0             @ ../GUILib/src/core/lv_indev.c:564:43
	movs	r1, #16
	bl	lv_obj_has_flag
.Ltmp242:
	.loc	17 563 77 is_stmt 1             @ ../GUILib/src/core/lv_indev.c:563:77
	eor	r7, r0, #1
.Ltmp243:
.LBB0_127:                              @   in Loop: Header=BB0_3 Depth=1
	@DEBUG_VALUE: indev_encoder_proc:last_state <- $r10
	@DEBUG_VALUE: indev_encoder_proc:g <- $r6
	@DEBUG_VALUE: indev_encoder_proc:i <- $r5
	@DEBUG_VALUE: indev_encoder_proc:data <- [DW_OP_plus_uconst 4, DW_OP_stack_value] $sp
	@DEBUG_VALUE: lv_indev_read_timer_cb:timer <- [DW_OP_LLVM_entry_value 1] $r0
	@DEBUG_VALUE: editable_or_scrollable <- [DW_OP_LLVM_convert 1 7, DW_OP_LLVM_convert 8 7, DW_OP_stack_value] undef
	.loc	17 565 16                       @ ../GUILib/src/core/lv_indev.c:565:16
	mov	r0, r6
	bl	lv_group_get_editing
.Ltmp244:
	.loc	17 565 48 is_stmt 0             @ ../GUILib/src/core/lv_indev.c:565:48
	cmp	r7, #0
	add	r7, sp, #4
	it	eq
	cmpeq	r0, #0
	beq	.LBB0_145
.Ltmp245:
@ %bb.128:                              @   in Loop: Header=BB0_3 Depth=1
	@DEBUG_VALUE: indev_encoder_proc:last_state <- $r10
	@DEBUG_VALUE: indev_encoder_proc:g <- $r6
	@DEBUG_VALUE: indev_encoder_proc:i <- $r5
	@DEBUG_VALUE: indev_encoder_proc:data <- [DW_OP_plus_uconst 4, DW_OP_stack_value] $sp
	@DEBUG_VALUE: lv_indev_read_timer_cb:timer <- [DW_OP_LLVM_entry_value 1] $r0
	.loc	17 566 31 is_stmt 1             @ ../GUILib/src/core/lv_indev.c:566:31
	ldr.w	r0, [r11]
	.loc	17 566 64 is_stmt 0             @ ../GUILib/src/core/lv_indev.c:566:64
	ldr.w	r2, [r8]
	.loc	17 566 17                       @ ../GUILib/src/core/lv_indev.c:566:17
	movs	r1, #1
.Ltmp246:
.LBB0_129:                              @   in Loop: Header=BB0_3 Depth=1
	@DEBUG_VALUE: indev_encoder_proc:last_state <- $r10
	@DEBUG_VALUE: indev_encoder_proc:g <- $r6
	@DEBUG_VALUE: indev_encoder_proc:i <- $r5
	@DEBUG_VALUE: indev_encoder_proc:data <- [DW_OP_plus_uconst 4, DW_OP_stack_value] $sp
	@DEBUG_VALUE: lv_indev_read_timer_cb:timer <- [DW_OP_LLVM_entry_value 1] $r0
	.loc	17 0 0                          @ ../GUILib/src/core/lv_indev.c:0:0
	bl	lv_event_send
.Ltmp247:
	@DEBUG_VALUE: indev_reset_check:proc <- [DW_OP_plus_uconst 4, DW_OP_stack_value] $r5
.LBB0_130:                              @   in Loop: Header=BB0_3 Depth=1
	@DEBUG_VALUE: indev_encoder_proc:last_state <- $r10
	@DEBUG_VALUE: indev_encoder_proc:g <- $r6
	@DEBUG_VALUE: indev_encoder_proc:i <- $r5
	@DEBUG_VALUE: indev_encoder_proc:data <- [DW_OP_plus_uconst 4, DW_OP_stack_value] $sp
	@DEBUG_VALUE: lv_indev_read_timer_cb:timer <- [DW_OP_LLVM_entry_value 1] $r0
	ldrb	r0, [r5, #5]
	lsls	r0, r0, #30
	bmi	.LBB0_112
	b	.LBB0_145
.Ltmp248:
.LBB0_131:                              @   in Loop: Header=BB0_3 Depth=1
	@DEBUG_VALUE: indev_encoder_proc:last_state <- $r10
	@DEBUG_VALUE: indev_encoder_proc:g <- $r6
	@DEBUG_VALUE: indev_encoder_proc:i <- $r5
	@DEBUG_VALUE: indev_encoder_proc:data <- [DW_OP_plus_uconst 4, DW_OP_stack_value] $sp
	@DEBUG_VALUE: lv_indev_read_timer_cb:timer <- [DW_OP_LLVM_entry_value 1] $r0
	.loc	17 687 21 is_stmt 1             @ ../GUILib/src/core/lv_indev.c:687:21
	cbnz	r0, .LBB0_141
.Ltmp249:
@ %bb.132:                              @   in Loop: Header=BB0_3 Depth=1
	@DEBUG_VALUE: indev_encoder_proc:last_state <- $r10
	@DEBUG_VALUE: indev_encoder_proc:g <- $r6
	@DEBUG_VALUE: indev_encoder_proc:i <- $r5
	@DEBUG_VALUE: indev_encoder_proc:data <- [DW_OP_plus_uconst 4, DW_OP_stack_value] $sp
	@DEBUG_VALUE: lv_indev_read_timer_cb:timer <- [DW_OP_LLVM_entry_value 1] $r0
	.loc	17 689 17                       @ ../GUILib/src/core/lv_indev.c:689:17
	mov	r0, r6
	movs	r1, #1
	bl	lv_group_set_editing
.Ltmp250:
	.loc	17 0 17 is_stmt 0               @ ../GUILib/src/core/lv_indev.c:0:17
	b	.LBB0_141
.Ltmp251:
.LBB0_133:                              @   in Loop: Header=BB0_3 Depth=1
	@DEBUG_VALUE: indev_keypad_proc:g <- $r6
	@DEBUG_VALUE: indev_keypad_proc:i <- $r5
	@DEBUG_VALUE: indev_keypad_proc:data <- [DW_OP_plus_uconst 4, DW_OP_stack_value] $sp
	@DEBUG_VALUE: lv_indev_read_timer_cb:timer <- [DW_OP_LLVM_entry_value 1] $r0
	.loc	17 489 17 is_stmt 1             @ ../GUILib/src/core/lv_indev.c:489:17
	mov	r0, r6
	bl	lv_group_send_data
.Ltmp252:
	@DEBUG_VALUE: indev_reset_check:proc <- [DW_OP_plus_uconst 4, DW_OP_stack_value] $r5
	.loc	17 0 17 is_stmt 0               @ ../GUILib/src/core/lv_indev.c:0:17
	b	.LBB0_111
.Ltmp253:
.LBB0_134:                              @   in Loop: Header=BB0_3 Depth=1
	@DEBUG_VALUE: indev_encoder_proc:last_state <- $r10
	@DEBUG_VALUE: indev_encoder_proc:g <- $r6
	@DEBUG_VALUE: indev_encoder_proc:i <- $r5
	@DEBUG_VALUE: editable_or_scrollable <- [DW_OP_LLVM_convert 1 7, DW_OP_LLVM_convert 8 7, DW_OP_stack_value] $r0
	@DEBUG_VALUE: indev_encoder_proc:data <- [DW_OP_plus_uconst 4, DW_OP_stack_value] $sp
	@DEBUG_VALUE: lv_indev_read_timer_cb:timer <- [DW_OP_LLVM_entry_value 1] $r0
	.loc	17 655 31 is_stmt 1             @ ../GUILib/src/core/lv_indev.c:655:31
	ldr.w	r0, [r11]
.Ltmp254:
	.loc	17 655 65 is_stmt 0             @ ../GUILib/src/core/lv_indev.c:655:65
	ldr.w	r2, [r8]
	.loc	17 655 17                       @ ../GUILib/src/core/lv_indev.c:655:17
	movs	r1, #8
	bl	lv_event_send
.Ltmp255:
	@DEBUG_VALUE: indev_reset_check:proc <- [DW_OP_plus_uconst 4, DW_OP_stack_value] $r5
	.loc	17 1118 14 is_stmt 1            @ ../GUILib/src/core/lv_indev.c:1118:14
	ldrb	r0, [r5, #5]
.Ltmp256:
	.loc	17 1118 8 is_stmt 0             @ ../GUILib/src/core/lv_indev.c:1118:8
	lsls	r1, r0, #30
	bmi	.LBB0_112
.Ltmp257:
@ %bb.135:                              @   in Loop: Header=BB0_3 Depth=1
	@DEBUG_VALUE: indev_encoder_proc:last_state <- $r10
	@DEBUG_VALUE: indev_encoder_proc:g <- $r6
	@DEBUG_VALUE: indev_encoder_proc:i <- $r5
	@DEBUG_VALUE: indev_encoder_proc:data <- [DW_OP_plus_uconst 4, DW_OP_stack_value] $sp
	@DEBUG_VALUE: lv_indev_read_timer_cb:timer <- [DW_OP_LLVM_entry_value 1] $r0
	.loc	17 658 20 is_stmt 1             @ ../GUILib/src/core/lv_indev.c:658:20
	lsls	r1, r0, #31
	bne	.LBB0_137
.Ltmp258:
@ %bb.136:                              @   in Loop: Header=BB0_3 Depth=1
	@DEBUG_VALUE: indev_encoder_proc:last_state <- $r10
	@DEBUG_VALUE: indev_encoder_proc:g <- $r6
	@DEBUG_VALUE: indev_encoder_proc:i <- $r5
	@DEBUG_VALUE: indev_encoder_proc:data <- [DW_OP_plus_uconst 4, DW_OP_stack_value] $sp
	@DEBUG_VALUE: lv_indev_read_timer_cb:timer <- [DW_OP_LLVM_entry_value 1] $r0
	.loc	17 658 61 is_stmt 0             @ ../GUILib/src/core/lv_indev.c:658:61
	ldr.w	r0, [r11]
	.loc	17 658 100                      @ ../GUILib/src/core/lv_indev.c:658:100
	ldr.w	r2, [r8]
	.loc	17 658 47                       @ ../GUILib/src/core/lv_indev.c:658:47
	movs	r1, #4
	bl	lv_event_send
.Ltmp259:
	.loc	17 1118 14 is_stmt 1            @ ../GUILib/src/core/lv_indev.c:1118:14
	ldrb	r0, [r5, #5]
.Ltmp260:
.LBB0_137:                              @   in Loop: Header=BB0_3 Depth=1
	@DEBUG_VALUE: indev_encoder_proc:last_state <- $r10
	@DEBUG_VALUE: indev_encoder_proc:g <- $r6
	@DEBUG_VALUE: indev_encoder_proc:i <- $r5
	@DEBUG_VALUE: indev_encoder_proc:data <- [DW_OP_plus_uconst 4, DW_OP_stack_value] $sp
	@DEBUG_VALUE: lv_indev_read_timer_cb:timer <- [DW_OP_LLVM_entry_value 1] $r0
	@DEBUG_VALUE: indev_reset_check:proc <- [DW_OP_plus_uconst 4, DW_OP_stack_value] $r5
	.loc	17 1118 8 is_stmt 0             @ ../GUILib/src/core/lv_indev.c:1118:8
	lsls	r0, r0, #30
	bmi.w	.LBB0_112
.Ltmp261:
@ %bb.138:                              @   in Loop: Header=BB0_3 Depth=1
	@DEBUG_VALUE: indev_encoder_proc:last_state <- $r10
	@DEBUG_VALUE: indev_encoder_proc:g <- $r6
	@DEBUG_VALUE: indev_encoder_proc:i <- $r5
	@DEBUG_VALUE: indev_encoder_proc:data <- [DW_OP_plus_uconst 4, DW_OP_stack_value] $sp
	@DEBUG_VALUE: lv_indev_read_timer_cb:timer <- [DW_OP_LLVM_entry_value 1] $r0
	.loc	17 661 31 is_stmt 1             @ ../GUILib/src/core/lv_indev.c:661:31
	ldr.w	r0, [r11]
	.loc	17 661 64 is_stmt 0             @ ../GUILib/src/core/lv_indev.c:661:64
	ldr.w	r2, [r8]
	.loc	17 661 17                       @ ../GUILib/src/core/lv_indev.c:661:17
	movs	r1, #7
	bl	lv_event_send
.Ltmp262:
	@DEBUG_VALUE: indev_reset_check:proc <- [DW_OP_plus_uconst 4, DW_OP_stack_value] $r5
	.loc	17 1118 14 is_stmt 1            @ ../GUILib/src/core/lv_indev.c:1118:14
	ldrb	r0, [r5, #5]
.Ltmp263:
	.loc	17 1118 8 is_stmt 0             @ ../GUILib/src/core/lv_indev.c:1118:8
	lsls	r0, r0, #30
	bmi.w	.LBB0_112
	b	.LBB0_141
.Ltmp264:
.LBB0_139:                              @   in Loop: Header=BB0_3 Depth=1
	@DEBUG_VALUE: indev_encoder_proc:last_state <- $r10
	@DEBUG_VALUE: indev_encoder_proc:g <- $r6
	@DEBUG_VALUE: indev_encoder_proc:i <- $r5
	@DEBUG_VALUE: indev_encoder_proc:data <- [DW_OP_plus_uconst 4, DW_OP_stack_value] $sp
	@DEBUG_VALUE: lv_indev_read_timer_cb:timer <- [DW_OP_LLVM_entry_value 1] $r0
	.loc	17 638 17 is_stmt 1             @ ../GUILib/src/core/lv_indev.c:638:17
	mov	r0, r6
	bl	lv_group_send_data
.Ltmp265:
	@DEBUG_VALUE: indev_reset_check:proc <- [DW_OP_plus_uconst 4, DW_OP_stack_value] $r5
	.loc	17 0 17 is_stmt 0               @ ../GUILib/src/core/lv_indev.c:0:17
	b	.LBB0_130
.Ltmp266:
.LBB0_140:                              @   in Loop: Header=BB0_3 Depth=1
	@DEBUG_VALUE: indev_encoder_proc:last_state <- $r10
	@DEBUG_VALUE: indev_encoder_proc:g <- $r6
	@DEBUG_VALUE: indev_encoder_proc:i <- $r5
	@DEBUG_VALUE: indev_encoder_proc:data <- [DW_OP_plus_uconst 4, DW_OP_stack_value] $sp
	@DEBUG_VALUE: lv_indev_read_timer_cb:timer <- [DW_OP_LLVM_entry_value 1] $r0
	.loc	17 682 40 is_stmt 1             @ ../GUILib/src/core/lv_indev.c:682:40
	ldr.w	r0, [r11]
	.loc	17 682 21 is_stmt 0             @ ../GUILib/src/core/lv_indev.c:682:21
	movs	r1, #32
	bl	lv_obj_clear_state
.Ltmp267:
.LBB0_141:                              @   in Loop: Header=BB0_3 Depth=1
	@DEBUG_VALUE: indev_encoder_proc:last_state <- $r10
	@DEBUG_VALUE: indev_encoder_proc:g <- $r6
	@DEBUG_VALUE: indev_encoder_proc:i <- $r5
	@DEBUG_VALUE: indev_encoder_proc:data <- [DW_OP_plus_uconst 4, DW_OP_stack_value] $sp
	@DEBUG_VALUE: lv_indev_read_timer_cb:timer <- [DW_OP_LLVM_entry_value 1] $r0
	.loc	17 694 30 is_stmt 1             @ ../GUILib/src/core/lv_indev.c:694:30
	ldrb	r0, [r5, #5]
	.loc	17 693 30                       @ ../GUILib/src/core/lv_indev.c:693:30
	str.w	r9, [r5, #68]
	.loc	17 694 30                       @ ../GUILib/src/core/lv_indev.c:694:30
	and	r0, r0, #254
	b	.LBB0_144
.Ltmp268:
.LBB0_142:                              @   in Loop: Header=BB0_3 Depth=1
	@DEBUG_VALUE: indev_encoder_proc:last_state <- $r10
	@DEBUG_VALUE: indev_encoder_proc:g <- $r6
	@DEBUG_VALUE: indev_encoder_proc:i <- $r5
	@DEBUG_VALUE: indev_encoder_proc:data <- [DW_OP_plus_uconst 4, DW_OP_stack_value] $sp
	@DEBUG_VALUE: lv_indev_read_timer_cb:timer <- [DW_OP_LLVM_entry_value 1] $r0
	.loc	17 613 35                       @ ../GUILib/src/core/lv_indev.c:613:35
	ldr.w	r0, [r11]
	.loc	17 613 73 is_stmt 0             @ ../GUILib/src/core/lv_indev.c:613:73
	ldr.w	r2, [r8]
	.loc	17 613 21                       @ ../GUILib/src/core/lv_indev.c:613:21
	movs	r1, #5
	bl	lv_event_send
.Ltmp269:
	@DEBUG_VALUE: indev_reset_check:proc <- [DW_OP_plus_uconst 4, DW_OP_stack_value] $r5
	.loc	17 1118 14 is_stmt 1            @ ../GUILib/src/core/lv_indev.c:1118:14
	ldrb	r0, [r5, #5]
.Ltmp270:
	.loc	17 1118 8 is_stmt 0             @ ../GUILib/src/core/lv_indev.c:1118:8
	lsls	r0, r0, #30
	bmi.w	.LBB0_112
.Ltmp271:
.LBB0_143:                              @   in Loop: Header=BB0_3 Depth=1
	@DEBUG_VALUE: indev_encoder_proc:last_state <- $r10
	@DEBUG_VALUE: indev_encoder_proc:g <- $r6
	@DEBUG_VALUE: indev_encoder_proc:i <- $r5
	@DEBUG_VALUE: indev_encoder_proc:data <- [DW_OP_plus_uconst 4, DW_OP_stack_value] $sp
	@DEBUG_VALUE: lv_indev_read_timer_cb:timer <- [DW_OP_LLVM_entry_value 1] $r0
	.loc	17 618 34 is_stmt 1             @ ../GUILib/src/core/lv_indev.c:618:34
	ldrb	r0, [r5, #5]
	orr	r0, r0, #1
.Ltmp272:
.LBB0_144:                              @   in Loop: Header=BB0_3 Depth=1
	@DEBUG_VALUE: indev_encoder_proc:last_state <- $r10
	@DEBUG_VALUE: indev_encoder_proc:g <- $r6
	@DEBUG_VALUE: indev_encoder_proc:i <- $r5
	@DEBUG_VALUE: indev_encoder_proc:data <- [DW_OP_plus_uconst 4, DW_OP_stack_value] $sp
	@DEBUG_VALUE: lv_indev_read_timer_cb:timer <- [DW_OP_LLVM_entry_value 1] $r0
	.loc	17 0 0 is_stmt 0                @ ../GUILib/src/core/lv_indev.c:0:0
	strb	r0, [r5, #5]
.Ltmp273:
.LBB0_145:                              @   in Loop: Header=BB0_3 Depth=1
	@DEBUG_VALUE: indev_encoder_proc:last_state <- $r10
	@DEBUG_VALUE: indev_encoder_proc:g <- $r6
	@DEBUG_VALUE: indev_encoder_proc:i <- $r5
	@DEBUG_VALUE: indev_encoder_proc:data <- [DW_OP_plus_uconst 4, DW_OP_stack_value] $sp
	@DEBUG_VALUE: lv_indev_read_timer_cb:timer <- [DW_OP_LLVM_entry_value 1] $r0
	.loc	17 699 14 is_stmt 1             @ ../GUILib/src/core/lv_indev.c:699:14
	ldrh.w	r0, [sp, #16]
.Ltmp274:
.LBB0_146:                              @   in Loop: Header=BB0_3 Depth=1
	@DEBUG_VALUE: indev_encoder_proc:last_state <- $r10
	@DEBUG_VALUE: indev_encoder_proc:g <- $r6
	@DEBUG_VALUE: indev_encoder_proc:i <- $r5
	@DEBUG_VALUE: indev_encoder_proc:data <- [DW_OP_plus_uconst 4, DW_OP_stack_value] $sp
	@DEBUG_VALUE: lv_indev_read_timer_cb:timer <- [DW_OP_LLVM_entry_value 1] $r0
	.loc	17 699 8 is_stmt 0              @ ../GUILib/src/core/lv_indev.c:699:8
	lsls	r0, r0, #16
	.loc	17 696 19 is_stmt 1             @ ../GUILib/src/core/lv_indev.c:696:19
	str.w	r9, [r11]
	.loc	17 699 8                        @ ../GUILib/src/core/lv_indev.c:699:8
	beq.w	.LBB0_113
.Ltmp275:
@ %bb.147:                              @   in Loop: Header=BB0_3 Depth=1
	@DEBUG_VALUE: indev_encoder_proc:last_state <- $r10
	@DEBUG_VALUE: indev_encoder_proc:g <- $r6
	@DEBUG_VALUE: indev_encoder_proc:i <- $r5
	@DEBUG_VALUE: indev_encoder_proc:data <- [DW_OP_plus_uconst 4, DW_OP_stack_value] $sp
	@DEBUG_VALUE: lv_indev_read_timer_cb:timer <- [DW_OP_LLVM_entry_value 1] $r0
	.loc	17 701 12                       @ ../GUILib/src/core/lv_indev.c:701:12
	mov	r0, r6
	bl	lv_group_get_editing
.Ltmp276:
	.loc	17 0 0 is_stmt 0                @ ../GUILib/src/core/lv_indev.c:0:0
	ldrh.w	r1, [sp, #16]
.Ltmp277:
	.loc	17 701 12                       @ ../GUILib/src/core/lv_indev.c:701:12
	cbz	r0, .LBB0_152
.Ltmp278:
@ %bb.148:                              @   in Loop: Header=BB0_3 Depth=1
	@DEBUG_VALUE: indev_encoder_proc:last_state <- $r10
	@DEBUG_VALUE: indev_encoder_proc:g <- $r6
	@DEBUG_VALUE: indev_encoder_proc:i <- $r5
	@DEBUG_VALUE: indev_encoder_proc:data <- [DW_OP_plus_uconst 4, DW_OP_stack_value] $sp
	@DEBUG_VALUE: lv_indev_read_timer_cb:timer <- [DW_OP_LLVM_entry_value 1] $r0
	.loc	17 0 0                          @ ../GUILib/src/core/lv_indev.c:0:0
	sxth	r0, r1
.Ltmp279:
	.loc	17 704 16 is_stmt 1             @ ../GUILib/src/core/lv_indev.c:704:16
	cmp.w	r0, #-1
	ble	.LBB0_156
.Ltmp280:
@ %bb.149:                              @   in Loop: Header=BB0_3 Depth=1
	@DEBUG_VALUE: indev_encoder_proc:last_state <- $r10
	@DEBUG_VALUE: indev_encoder_proc:g <- $r6
	@DEBUG_VALUE: indev_encoder_proc:i <- $r5
	@DEBUG_VALUE: indev_encoder_proc:data <- [DW_OP_plus_uconst 4, DW_OP_stack_value] $sp
	@DEBUG_VALUE: lv_indev_read_timer_cb:timer <- [DW_OP_LLVM_entry_value 1] $r0
	.loc	17 707 21                       @ ../GUILib/src/core/lv_indev.c:707:21
	cmp	r1, #0
	beq.w	.LBB0_113
.Ltmp281:
@ %bb.150:                              @   in Loop: Header=BB0_3 Depth=1
	@DEBUG_VALUE: indev_encoder_proc:last_state <- $r10
	@DEBUG_VALUE: indev_encoder_proc:g <- $r6
	@DEBUG_VALUE: indev_encoder_proc:i <- $r5
	@DEBUG_VALUE: indev_encoder_proc:data <- [DW_OP_plus_uconst 4, DW_OP_stack_value] $sp
	@DEBUG_VALUE: lv_indev_read_timer_cb:timer <- [DW_OP_LLVM_entry_value 1] $r0
	.loc	17 0 21 is_stmt 0               @ ../GUILib/src/core/lv_indev.c:0:21
	movs	r5, #0
.Ltmp282:
	.p2align	2
.LBB0_151:                              @   Parent Loop BB0_3 Depth=1
                                        @ =>  This Inner Loop Header: Depth=2
	@DEBUG_VALUE: indev_encoder_proc:last_state <- $r10
	@DEBUG_VALUE: indev_encoder_proc:g <- $r6
	@DEBUG_VALUE: indev_encoder_proc:data <- [DW_OP_plus_uconst 4, DW_OP_stack_value] $sp
	@DEBUG_VALUE: lv_indev_read_timer_cb:timer <- [DW_OP_LLVM_entry_value 1] $r0
	@DEBUG_VALUE: s <- $r5
	.loc	17 708 53 is_stmt 1             @ ../GUILib/src/core/lv_indev.c:708:53
	mov	r0, r6
	movs	r1, #19
	bl	lv_group_send_data
.Ltmp283:
	.loc	17 708 38 is_stmt 0             @ ../GUILib/src/core/lv_indev.c:708:38
	ldrsh.w	r0, [sp, #16]
	.loc	17 708 49                       @ ../GUILib/src/core/lv_indev.c:708:49
	adds	r5, #1
.Ltmp284:
	@DEBUG_VALUE: s <- $r5
	.loc	17 708 17                       @ ../GUILib/src/core/lv_indev.c:708:17
	cmp	r5, r0
	blt	.LBB0_151
	b	.LBB0_113
.Ltmp285:
.LBB0_152:                              @   in Loop: Header=BB0_3 Depth=1
	@DEBUG_VALUE: indev_encoder_proc:last_state <- $r10
	@DEBUG_VALUE: indev_encoder_proc:g <- $r6
	@DEBUG_VALUE: indev_encoder_proc:i <- $r5
	@DEBUG_VALUE: indev_encoder_proc:data <- [DW_OP_plus_uconst 4, DW_OP_stack_value] $sp
	@DEBUG_VALUE: lv_indev_read_timer_cb:timer <- [DW_OP_LLVM_entry_value 1] $r0
	.loc	17 0 0                          @ ../GUILib/src/core/lv_indev.c:0:0
	sxth	r0, r1
.Ltmp286:
	.loc	17 715 16 is_stmt 1             @ ../GUILib/src/core/lv_indev.c:715:16
	cmp.w	r0, #-1
	ble	.LBB0_158
.Ltmp287:
@ %bb.153:                              @   in Loop: Header=BB0_3 Depth=1
	@DEBUG_VALUE: indev_encoder_proc:last_state <- $r10
	@DEBUG_VALUE: indev_encoder_proc:g <- $r6
	@DEBUG_VALUE: indev_encoder_proc:i <- $r5
	@DEBUG_VALUE: indev_encoder_proc:data <- [DW_OP_plus_uconst 4, DW_OP_stack_value] $sp
	@DEBUG_VALUE: lv_indev_read_timer_cb:timer <- [DW_OP_LLVM_entry_value 1] $r0
	.loc	17 718 21                       @ ../GUILib/src/core/lv_indev.c:718:21
	cmp	r1, #0
	beq.w	.LBB0_113
.Ltmp288:
@ %bb.154:                              @   in Loop: Header=BB0_3 Depth=1
	@DEBUG_VALUE: indev_encoder_proc:last_state <- $r10
	@DEBUG_VALUE: indev_encoder_proc:g <- $r6
	@DEBUG_VALUE: indev_encoder_proc:i <- $r5
	@DEBUG_VALUE: indev_encoder_proc:data <- [DW_OP_plus_uconst 4, DW_OP_stack_value] $sp
	@DEBUG_VALUE: lv_indev_read_timer_cb:timer <- [DW_OP_LLVM_entry_value 1] $r0
	.loc	17 0 21 is_stmt 0               @ ../GUILib/src/core/lv_indev.c:0:21
	movs	r5, #0
.Ltmp289:
	.p2align	2
.LBB0_155:                              @   Parent Loop BB0_3 Depth=1
                                        @ =>  This Inner Loop Header: Depth=2
	@DEBUG_VALUE: indev_encoder_proc:last_state <- $r10
	@DEBUG_VALUE: indev_encoder_proc:g <- $r6
	@DEBUG_VALUE: indev_encoder_proc:data <- [DW_OP_plus_uconst 4, DW_OP_stack_value] $sp
	@DEBUG_VALUE: lv_indev_read_timer_cb:timer <- [DW_OP_LLVM_entry_value 1] $r0
	@DEBUG_VALUE: s <- $r5
	.loc	17 719 53 is_stmt 1             @ ../GUILib/src/core/lv_indev.c:719:53
	mov	r0, r6
	bl	lv_group_focus_next
.Ltmp290:
	.loc	17 719 38 is_stmt 0             @ ../GUILib/src/core/lv_indev.c:719:38
	ldrsh.w	r0, [sp, #16]
	.loc	17 719 49                       @ ../GUILib/src/core/lv_indev.c:719:49
	adds	r5, #1
.Ltmp291:
	@DEBUG_VALUE: s <- $r5
	.loc	17 719 17                       @ ../GUILib/src/core/lv_indev.c:719:17
	cmp	r5, r0
	blt	.LBB0_155
	b	.LBB0_113
.Ltmp292:
.LBB0_156:                              @   in Loop: Header=BB0_3 Depth=1
	@DEBUG_VALUE: indev_encoder_proc:last_state <- $r10
	@DEBUG_VALUE: indev_encoder_proc:g <- $r6
	@DEBUG_VALUE: indev_encoder_proc:i <- $r5
	@DEBUG_VALUE: indev_encoder_proc:data <- [DW_OP_plus_uconst 4, DW_OP_stack_value] $sp
	@DEBUG_VALUE: lv_indev_read_timer_cb:timer <- [DW_OP_LLVM_entry_value 1] $r0
	.loc	17 0 17                         @ ../GUILib/src/core/lv_indev.c:0:17
	movs	r5, #0
.Ltmp293:
	.p2align	2
.LBB0_157:                              @   Parent Loop BB0_3 Depth=1
                                        @ =>  This Inner Loop Header: Depth=2
	@DEBUG_VALUE: indev_encoder_proc:last_state <- $r10
	@DEBUG_VALUE: indev_encoder_proc:g <- $r6
	@DEBUG_VALUE: indev_encoder_proc:data <- [DW_OP_plus_uconst 4, DW_OP_stack_value] $sp
	@DEBUG_VALUE: lv_indev_read_timer_cb:timer <- [DW_OP_LLVM_entry_value 1] $r0
	@DEBUG_VALUE: s <- $r5
	.loc	17 705 54 is_stmt 1             @ ../GUILib/src/core/lv_indev.c:705:54
	mov	r0, r6
	movs	r1, #20
	bl	lv_group_send_data
.Ltmp294:
	.loc	17 705 39 is_stmt 0             @ ../GUILib/src/core/lv_indev.c:705:39
	ldrsh.w	r0, [sp, #16]
	.loc	17 705 50                       @ ../GUILib/src/core/lv_indev.c:705:50
	adds	r5, #1
.Ltmp295:
	@DEBUG_VALUE: s <- $r5
	.loc	17 705 32                       @ ../GUILib/src/core/lv_indev.c:705:32
	rsbs	r0, r0, #0
.Ltmp296:
	.loc	17 705 17                       @ ../GUILib/src/core/lv_indev.c:705:17
	cmp	r5, r0
	blt	.LBB0_157
	b	.LBB0_113
.Ltmp297:
.LBB0_158:                              @   in Loop: Header=BB0_3 Depth=1
	@DEBUG_VALUE: indev_encoder_proc:last_state <- $r10
	@DEBUG_VALUE: indev_encoder_proc:g <- $r6
	@DEBUG_VALUE: indev_encoder_proc:i <- $r5
	@DEBUG_VALUE: indev_encoder_proc:data <- [DW_OP_plus_uconst 4, DW_OP_stack_value] $sp
	@DEBUG_VALUE: lv_indev_read_timer_cb:timer <- [DW_OP_LLVM_entry_value 1] $r0
	.loc	17 0 17                         @ ../GUILib/src/core/lv_indev.c:0:17
	movs	r5, #0
.Ltmp298:
	.p2align	2
.LBB0_159:                              @   Parent Loop BB0_3 Depth=1
                                        @ =>  This Inner Loop Header: Depth=2
	@DEBUG_VALUE: indev_encoder_proc:last_state <- $r10
	@DEBUG_VALUE: indev_encoder_proc:g <- $r6
	@DEBUG_VALUE: indev_encoder_proc:data <- [DW_OP_plus_uconst 4, DW_OP_stack_value] $sp
	@DEBUG_VALUE: lv_indev_read_timer_cb:timer <- [DW_OP_LLVM_entry_value 1] $r0
	@DEBUG_VALUE: s <- $r5
	.loc	17 716 54 is_stmt 1             @ ../GUILib/src/core/lv_indev.c:716:54
	mov	r0, r6
	bl	lv_group_focus_prev
.Ltmp299:
	.loc	17 716 39 is_stmt 0             @ ../GUILib/src/core/lv_indev.c:716:39
	ldrsh.w	r0, [sp, #16]
	.loc	17 716 50                       @ ../GUILib/src/core/lv_indev.c:716:50
	adds	r5, #1
.Ltmp300:
	@DEBUG_VALUE: s <- $r5
	.loc	17 716 32                       @ ../GUILib/src/core/lv_indev.c:716:32
	rsbs	r0, r0, #0
.Ltmp301:
	.loc	17 716 17                       @ ../GUILib/src/core/lv_indev.c:716:17
	cmp	r5, r0
	blt	.LBB0_159
	b	.LBB0_113
.Ltmp302:
.LBB0_160:
	@DEBUG_VALUE: lv_indev_read_timer_cb:timer <- [DW_OP_LLVM_entry_value 1] $r0
	.loc	17 0 17                         @ ../GUILib/src/core/lv_indev.c:0:17
	movs	r0, #0
	.loc	17 116 19 is_stmt 1             @ ../GUILib/src/core/lv_indev.c:116:19
	str.w	r0, [r8]
	.loc	17 117 19                       @ ../GUILib/src/core/lv_indev.c:117:19
	str.w	r0, [r11]
.Ltmp303:
.LBB0_161:
	@DEBUG_VALUE: lv_indev_read_timer_cb:timer <- [DW_OP_LLVM_entry_value 1] $r0
	.loc	17 120 1                        @ ../GUILib/src/core/lv_indev.c:120:1
	add	sp, #20
	pop.w	{r4, r5, r6, r7, r8, r9, r10, r11, pc}
.Ltmp304:
.Lfunc_end0:
	.size	lv_indev_read_timer_cb, .Lfunc_end0-lv_indev_read_timer_cb
	.cfi_endproc
	.cantunwind
	.fnend
                                        @ -- End function
	.section	.text.indev_proc_reset_query_handler,"ax",%progbits
	.p2align	1                               @ -- Begin function indev_proc_reset_query_handler
	.type	indev_proc_reset_query_handler,%function
	.code	16                              @ @indev_proc_reset_query_handler
	.thumb_func
indev_proc_reset_query_handler:
.Lfunc_begin1:
	.loc	17 969 0                        @ ../GUILib/src/core/lv_indev.c:969:0
	.fnstart
	.cfi_startproc
@ %bb.0:
	@DEBUG_VALUE: indev_proc_reset_query_handler:indev <- $r0
	@DEBUG_VALUE: indev_proc_reset_query_handler:indev <- $r0
	.loc	17 970 20 prologue_end          @ ../GUILib/src/core/lv_indev.c:970:20
	ldrb	r1, [r0, #5]
.Ltmp305:
	.loc	17 970 8 is_stmt 0              @ ../GUILib/src/core/lv_indev.c:970:8
	lsls	r2, r1, #30
	.loc	17 987 1 is_stmt 1              @ ../GUILib/src/core/lv_indev.c:987:1
	it	pl
	bxpl	lr
.Ltmp306:
.LBB1_1:
	@DEBUG_VALUE: indev_proc_reset_query_handler:indev <- $r0
	.loc	17 979 46                       @ ../GUILib/src/core/lv_indev.c:979:46
	ldrb.w	r3, [r0, #64]
	movs	r2, #0
	and	r3, r3, #240
	.loc	17 984 53                       @ ../GUILib/src/core/lv_indev.c:984:53
	and	r1, r1, #252
	.loc	17 971 53                       @ ../GUILib/src/core/lv_indev.c:971:53
	strd	r2, r2, [r0, #36]
	.loc	17 973 55                       @ ../GUILib/src/core/lv_indev.c:973:55
	str	r2, [r0, #44]
	.loc	17 975 53                       @ ../GUILib/src/core/lv_indev.c:975:53
	str	r2, [r0, #68]
	.loc	17 976 53                       @ ../GUILib/src/core/lv_indev.c:976:53
	str	r2, [r0, #72]
	.loc	17 979 46                       @ ../GUILib/src/core/lv_indev.c:979:46
	strb.w	r3, [r0, #64]
	.loc	17 977 55                       @ ../GUILib/src/core/lv_indev.c:977:55
	strd	r2, r2, [r0, #24]
	.loc	17 982 53                       @ ../GUILib/src/core/lv_indev.c:982:53
	str	r2, [r0, #60]
	.loc	17 984 53                       @ ../GUILib/src/core/lv_indev.c:984:53
	strb	r1, [r0, #5]
	.loc	17 985 53                       @ ../GUILib/src/core/lv_indev.c:985:53
	movw	r0, :lower16:indev_obj_act
.Ltmp307:
	@DEBUG_VALUE: indev_proc_reset_query_handler:indev <- [DW_OP_LLVM_entry_value 1] $r0
	movt	r0, :upper16:indev_obj_act
	str	r2, [r0]
.Ltmp308:
	.loc	17 987 1                        @ ../GUILib/src/core/lv_indev.c:987:1
	bx	lr
.Ltmp309:
.Lfunc_end1:
	.size	indev_proc_reset_query_handler, .Lfunc_end1-indev_proc_reset_query_handler
	.cfi_endproc
	.cantunwind
	.fnend
                                        @ -- End function
	.section	.text.lv_indev_enable,"ax",%progbits
	.hidden	lv_indev_enable                 @ -- Begin function lv_indev_enable
	.globl	lv_indev_enable
	.p2align	1
	.type	lv_indev_enable,%function
	.code	16                              @ @lv_indev_enable
	.thumb_func
lv_indev_enable:
.Lfunc_begin2:
	.loc	17 123 0                        @ ../GUILib/src/core/lv_indev.c:123:0
	.fnstart
	.cfi_startproc
@ %bb.0:
	@DEBUG_VALUE: lv_indev_enable:indev <- $r0
	@DEBUG_VALUE: lv_indev_enable:indev <- $r0
	@DEBUG_VALUE: lv_indev_enable:en <- [DW_OP_LLVM_convert 1 7, DW_OP_LLVM_convert 8 7, DW_OP_stack_value] $r1
	@DEBUG_VALUE: lv_indev_enable:en <- [DW_OP_LLVM_convert 1 7, DW_OP_LLVM_convert 8 7, DW_OP_stack_value] undef
	@DEBUG_VALUE: lv_indev_enable:en <- [DW_OP_LLVM_convert 1 7, DW_OP_LLVM_convert 8 7, DW_OP_stack_value] $r1
	.loc	17 124 8 prologue_end           @ ../GUILib/src/core/lv_indev.c:124:8
	cbz	r0, .LBB2_2
.Ltmp310:
@ %bb.1:
	@DEBUG_VALUE: lv_indev_enable:en <- [DW_OP_LLVM_convert 1 7, DW_OP_LLVM_convert 8 7, DW_OP_stack_value] $r1
	@DEBUG_VALUE: lv_indev_enable:indev <- $r0
	.loc	17 126 26                       @ ../GUILib/src/core/lv_indev.c:126:26
	ldrb	r2, [r0, #5]
	cmp	r1, #0
	and	r2, r2, #251
	it	eq
	addeq	r2, #4
	strb	r2, [r0, #5]
.Ltmp311:
.LBB2_2:
	@DEBUG_VALUE: lv_indev_enable:en <- [DW_OP_LLVM_convert 1 7, DW_OP_LLVM_convert 8 7, DW_OP_stack_value] $r1
	@DEBUG_VALUE: lv_indev_enable:indev <- $r0
	.loc	17 127 1                        @ ../GUILib/src/core/lv_indev.c:127:1
	bx	lr
.Ltmp312:
.Lfunc_end2:
	.size	lv_indev_enable, .Lfunc_end2-lv_indev_enable
	.cfi_endproc
	.cantunwind
	.fnend
                                        @ -- End function
	.section	.text.lv_indev_get_act,"ax",%progbits
	.hidden	lv_indev_get_act                @ -- Begin function lv_indev_get_act
	.globl	lv_indev_get_act
	.p2align	1
	.type	lv_indev_get_act,%function
	.code	16                              @ @lv_indev_get_act
	.thumb_func
lv_indev_get_act:
.Lfunc_begin3:
	.loc	17 130 0                        @ ../GUILib/src/core/lv_indev.c:130:0
	.fnstart
	.cfi_startproc
@ %bb.0:
	.loc	17 131 12 prologue_end          @ ../GUILib/src/core/lv_indev.c:131:12
	movw	r0, :lower16:indev_act
	movt	r0, :upper16:indev_act
	ldr	r0, [r0]
	.loc	17 131 5 is_stmt 0              @ ../GUILib/src/core/lv_indev.c:131:5
	bx	lr
.Ltmp313:
.Lfunc_end3:
	.size	lv_indev_get_act, .Lfunc_end3-lv_indev_get_act
	.cfi_endproc
	.cantunwind
	.fnend
                                        @ -- End function
	.section	.text.lv_indev_get_type,"ax",%progbits
	.hidden	lv_indev_get_type               @ -- Begin function lv_indev_get_type
	.globl	lv_indev_get_type
	.p2align	1
	.type	lv_indev_get_type,%function
	.code	16                              @ @lv_indev_get_type
	.thumb_func
lv_indev_get_type:
.Lfunc_begin4:
	.loc	17 135 0 is_stmt 1              @ ../GUILib/src/core/lv_indev.c:135:0
	.fnstart
	.cfi_startproc
@ %bb.0:
	@DEBUG_VALUE: lv_indev_get_type:indev <- $r0
	@DEBUG_VALUE: lv_indev_get_type:indev <- $r0
	.loc	17 136 8 prologue_end           @ ../GUILib/src/core/lv_indev.c:136:8
	cmp	r0, #0
	itee	eq
	moveq	r0, #0
.Ltmp314:
	@DEBUG_VALUE: lv_indev_get_type:indev <- [DW_OP_LLVM_entry_value 1] $r0
	.loc	17 138 19                       @ ../GUILib/src/core/lv_indev.c:138:19
	ldrne	r0, [r0]
	.loc	17 138 27 is_stmt 0             @ ../GUILib/src/core/lv_indev.c:138:27
	ldrbne	r0, [r0]
	.loc	17 139 1 is_stmt 1              @ ../GUILib/src/core/lv_indev.c:139:1
	bx	lr
.Ltmp315:
.Lfunc_end4:
	.size	lv_indev_get_type, .Lfunc_end4-lv_indev_get_type
	.cfi_endproc
	.cantunwind
	.fnend
                                        @ -- End function
	.section	.text.lv_indev_reset,"ax",%progbits
	.hidden	lv_indev_reset                  @ -- Begin function lv_indev_reset
	.globl	lv_indev_reset
	.p2align	1
	.type	lv_indev_reset,%function
	.code	16                              @ @lv_indev_reset
	.thumb_func
lv_indev_reset:
.Lfunc_begin5:
	.loc	17 142 0                        @ ../GUILib/src/core/lv_indev.c:142:0
	.fnstart
	.cfi_startproc
@ %bb.0:
	@DEBUG_VALUE: lv_indev_reset:indev <- $r0
	@DEBUG_VALUE: lv_indev_reset:indev <- $r0
	@DEBUG_VALUE: lv_indev_reset:obj <- $r1
	.save	{r4, r5, r7, lr}
	push	{r4, r5, r7, lr}
	.cfi_def_cfa_offset 16
	.cfi_offset lr, -4
	.cfi_offset r7, -8
	.cfi_offset r5, -12
	.cfi_offset r4, -16
	mov	r4, r1
.Ltmp316:
	@DEBUG_VALUE: lv_indev_reset:obj <- $r4
	@DEBUG_VALUE: lv_indev_reset:obj <- $r4
	.loc	17 143 8 prologue_end           @ ../GUILib/src/core/lv_indev.c:143:8
	cbz	r0, .LBB5_7
.Ltmp317:
@ %bb.1:
	@DEBUG_VALUE: lv_indev_reset:obj <- $r4
	@DEBUG_VALUE: lv_indev_reset:indev <- $r0
	.loc	17 145 12                       @ ../GUILib/src/core/lv_indev.c:145:12
	movw	r2, :lower16:indev_act
	movt	r2, :upper16:indev_act
.Ltmp318:
	.loc	17 144 33                       @ ../GUILib/src/core/lv_indev.c:144:33
	ldrb	r1, [r0, #5]
.Ltmp319:
	.loc	17 145 12                       @ ../GUILib/src/core/lv_indev.c:145:12
	ldr	r2, [r2]
.Ltmp320:
	.loc	17 144 33                       @ ../GUILib/src/core/lv_indev.c:144:33
	orr	r1, r1, #2
	.loc	17 145 12                       @ ../GUILib/src/core/lv_indev.c:145:12
	cmp	r2, r0
	.loc	17 144 33                       @ ../GUILib/src/core/lv_indev.c:144:33
	strb	r1, [r0, #5]
	.loc	17 145 12                       @ ../GUILib/src/core/lv_indev.c:145:12
	bne	.LBB5_3
.Ltmp321:
@ %bb.2:
	@DEBUG_VALUE: lv_indev_reset:obj <- $r4
	@DEBUG_VALUE: lv_indev_reset:indev <- $r0
	.loc	17 145 46 is_stmt 0             @ ../GUILib/src/core/lv_indev.c:145:46
	movw	r1, :lower16:indev_obj_act
	movt	r1, :upper16:indev_obj_act
	movs	r2, #0
	str	r2, [r1]
.Ltmp322:
.LBB5_3:
	@DEBUG_VALUE: lv_indev_reset:obj <- $r4
	@DEBUG_VALUE: lv_indev_reset:indev <- $r0
	.loc	17 146 19 is_stmt 1             @ ../GUILib/src/core/lv_indev.c:146:19
	ldr	r1, [r0]
	.loc	17 146 27 is_stmt 0             @ ../GUILib/src/core/lv_indev.c:146:27
	ldrb	r1, [r1]
	.loc	17 146 57                       @ ../GUILib/src/core/lv_indev.c:146:57
	subs	r1, #1
	cmp	r1, #1
	bhi	.LBB5_14
.Ltmp323:
@ %bb.4:
	@DEBUG_VALUE: lv_indev_reset:obj <- $r4
	@DEBUG_VALUE: lv_indev_reset:indev <- $r0
	.loc	17 147 28 is_stmt 1             @ ../GUILib/src/core/lv_indev.c:147:28
	cbz	r4, .LBB5_15
.Ltmp324:
@ %bb.5:
	@DEBUG_VALUE: lv_indev_reset:obj <- $r4
	@DEBUG_VALUE: lv_indev_reset:indev <- $r0
	.loc	17 147 57 is_stmt 0             @ ../GUILib/src/core/lv_indev.c:147:57
	ldr	r1, [r0, #48]
.Ltmp325:
	.loc	17 147 16                       @ ../GUILib/src/core/lv_indev.c:147:16
	cmp	r1, r4
	itt	eq
	moveq	r1, #0
.Ltmp326:
	.loc	17 148 56 is_stmt 1             @ ../GUILib/src/core/lv_indev.c:148:56
	streq	r1, [r0, #48]
.Ltmp327:
	.loc	17 150 57                       @ ../GUILib/src/core/lv_indev.c:150:57
	ldr	r1, [r0, #36]
.Ltmp328:
	.loc	17 150 16 is_stmt 0             @ ../GUILib/src/core/lv_indev.c:150:16
	cmp	r1, r4
	itt	eq
	moveq	r1, #0
.Ltmp329:
	.loc	17 151 51 is_stmt 1             @ ../GUILib/src/core/lv_indev.c:151:51
	streq	r1, [r0, #36]
.Ltmp330:
	.loc	17 153 57                       @ ../GUILib/src/core/lv_indev.c:153:57
	ldr	r1, [r0, #40]
.Ltmp331:
	.loc	17 153 16 is_stmt 0             @ ../GUILib/src/core/lv_indev.c:153:16
	cmp	r1, r4
.Ltmp332:
	.loc	17 177 1 is_stmt 1              @ ../GUILib/src/core/lv_indev.c:177:1
	it	ne
	popne	{r4, r5, r7, pc}
.Ltmp333:
.LBB5_6:
	@DEBUG_VALUE: lv_indev_reset:indev <- $r0
	.loc	17 0 1 is_stmt 0                @ ../GUILib/src/core/lv_indev.c:0:1
	movs	r1, #0
.Ltmp334:
	.loc	17 154 52 is_stmt 1             @ ../GUILib/src/core/lv_indev.c:154:52
	str	r1, [r0, #40]
.Ltmp335:
	.loc	17 177 1                        @ ../GUILib/src/core/lv_indev.c:177:1
	pop	{r4, r5, r7, pc}
.Ltmp336:
.LBB5_7:
	@DEBUG_VALUE: lv_indev_reset:obj <- $r4
	@DEBUG_VALUE: lv_indev_reset:indev <- $r0
	.loc	17 159 26                       @ ../GUILib/src/core/lv_indev.c:159:26
	movs	r0, #0
.Ltmp337:
	@DEBUG_VALUE: lv_indev_reset:indev <- [DW_OP_LLVM_entry_value 1] $r0
	.loc	17 0 26 is_stmt 0               @ ../GUILib/src/core/lv_indev.c:0:26
	movs	r5, #0
.Ltmp338:
	.p2align	2
.LBB5_8:                                @ =>This Inner Loop Header: Depth=1
	@DEBUG_VALUE: lv_indev_reset:obj <- $r4
	@DEBUG_VALUE: lv_indev_reset:indev <- [DW_OP_LLVM_entry_value 1] $r0
	bl	lv_indev_get_next
.Ltmp339:
	@DEBUG_VALUE: i <- $r0
	.loc	17 160 9 is_stmt 1              @ ../GUILib/src/core/lv_indev.c:160:9
	cbz	r0, .LBB5_13
.Ltmp340:
@ %bb.9:                                @   in Loop: Header=BB5_8 Depth=1
	@DEBUG_VALUE: lv_indev_reset:obj <- $r4
	@DEBUG_VALUE: i <- $r0
	@DEBUG_VALUE: lv_indev_reset:indev <- [DW_OP_LLVM_entry_value 1] $r0
	@DEBUG_VALUE: i <- $r0
	.loc	17 161 33                       @ ../GUILib/src/core/lv_indev.c:161:33
	ldrb	r1, [r0, #5]
.Ltmp341:
	.loc	17 162 19                       @ ../GUILib/src/core/lv_indev.c:162:19
	ldr	r2, [r0]
.Ltmp342:
	.loc	17 161 33                       @ ../GUILib/src/core/lv_indev.c:161:33
	orr	r1, r1, #2
	strb	r1, [r0, #5]
.Ltmp343:
	.loc	17 162 27                       @ ../GUILib/src/core/lv_indev.c:162:27
	ldrb	r1, [r2]
	.loc	17 162 57 is_stmt 0             @ ../GUILib/src/core/lv_indev.c:162:57
	subs	r1, #1
	cmp	r1, #1
	bhi	.LBB5_8
.Ltmp344:
@ %bb.10:                               @   in Loop: Header=BB5_8 Depth=1
	@DEBUG_VALUE: lv_indev_reset:obj <- $r4
	@DEBUG_VALUE: i <- $r0
	@DEBUG_VALUE: lv_indev_reset:indev <- [DW_OP_LLVM_entry_value 1] $r0
	.loc	17 163 32 is_stmt 1             @ ../GUILib/src/core/lv_indev.c:163:32
	cbz	r4, .LBB5_12
.Ltmp345:
@ %bb.11:                               @   in Loop: Header=BB5_8 Depth=1
	@DEBUG_VALUE: lv_indev_reset:obj <- $r4
	@DEBUG_VALUE: i <- $r0
	@DEBUG_VALUE: lv_indev_reset:indev <- [DW_OP_LLVM_entry_value 1] $r0
	.loc	17 163 57 is_stmt 0             @ ../GUILib/src/core/lv_indev.c:163:57
	ldr	r1, [r0, #48]
.Ltmp346:
	.loc	17 163 20                       @ ../GUILib/src/core/lv_indev.c:163:20
	cmp	r1, r4
.Ltmp347:
	.loc	17 164 56 is_stmt 1             @ ../GUILib/src/core/lv_indev.c:164:56
	it	eq
	streq	r5, [r0, #48]
.Ltmp348:
	.loc	17 166 57                       @ ../GUILib/src/core/lv_indev.c:166:57
	ldr	r1, [r0, #36]
.Ltmp349:
	.loc	17 166 20 is_stmt 0             @ ../GUILib/src/core/lv_indev.c:166:20
	cmp	r1, r4
.Ltmp350:
	.loc	17 167 51 is_stmt 1             @ ../GUILib/src/core/lv_indev.c:167:51
	it	eq
	streq	r5, [r0, #36]
.Ltmp351:
	.loc	17 169 57                       @ ../GUILib/src/core/lv_indev.c:169:57
	ldr	r1, [r0, #40]
.Ltmp352:
	.loc	17 169 20 is_stmt 0             @ ../GUILib/src/core/lv_indev.c:169:20
	cmp	r1, r4
.Ltmp353:
	.loc	17 170 52 is_stmt 1             @ ../GUILib/src/core/lv_indev.c:170:52
	it	eq
	streq	r5, [r0, #40]
	b	.LBB5_8
.Ltmp354:
.LBB5_12:                               @   in Loop: Header=BB5_8 Depth=1
	@DEBUG_VALUE: lv_indev_reset:obj <- $r4
	@DEBUG_VALUE: i <- $r0
	@DEBUG_VALUE: lv_indev_reset:indev <- [DW_OP_LLVM_entry_value 1] $r0
	.loc	17 164 56                       @ ../GUILib/src/core/lv_indev.c:164:56
	str	r5, [r0, #48]
.Ltmp355:
	.loc	17 167 51                       @ ../GUILib/src/core/lv_indev.c:167:51
	str	r5, [r0, #36]
.Ltmp356:
	.loc	17 170 52                       @ ../GUILib/src/core/lv_indev.c:170:52
	str	r5, [r0, #40]
	b	.LBB5_8
.Ltmp357:
.LBB5_13:
	@DEBUG_VALUE: lv_indev_reset:obj <- $r4
	@DEBUG_VALUE: i <- $r0
	@DEBUG_VALUE: lv_indev_reset:indev <- [DW_OP_LLVM_entry_value 1] $r0
	.loc	17 175 23                       @ ../GUILib/src/core/lv_indev.c:175:23
	movw	r0, :lower16:indev_obj_act
.Ltmp358:
	movt	r0, :upper16:indev_obj_act
	str	r5, [r0]
.Ltmp359:
.LBB5_14:
	@DEBUG_VALUE: lv_indev_reset:obj <- $r4
	.loc	17 177 1                        @ ../GUILib/src/core/lv_indev.c:177:1
	pop	{r4, r5, r7, pc}
.Ltmp360:
.LBB5_15:
	@DEBUG_VALUE: lv_indev_reset:obj <- $r4
	@DEBUG_VALUE: lv_indev_reset:indev <- $r0
	.loc	17 0 1 is_stmt 0                @ ../GUILib/src/core/lv_indev.c:0:1
	movs	r1, #0
.Ltmp361:
	.loc	17 148 56 is_stmt 1             @ ../GUILib/src/core/lv_indev.c:148:56
	str	r1, [r0, #48]
.Ltmp362:
	.loc	17 151 51                       @ ../GUILib/src/core/lv_indev.c:151:51
	str	r1, [r0, #36]
	b	.LBB5_6
.Ltmp363:
.Lfunc_end5:
	.size	lv_indev_reset, .Lfunc_end5-lv_indev_reset
	.cfi_endproc
	.cantunwind
	.fnend
                                        @ -- End function
	.section	.text.lv_indev_reset_long_press,"ax",%progbits
	.hidden	lv_indev_reset_long_press       @ -- Begin function lv_indev_reset_long_press
	.globl	lv_indev_reset_long_press
	.p2align	1
	.type	lv_indev_reset_long_press,%function
	.code	16                              @ @lv_indev_reset_long_press
	.thumb_func
lv_indev_reset_long_press:
.Lfunc_begin6:
	.loc	17 180 0                        @ ../GUILib/src/core/lv_indev.c:180:0
	.fnstart
	.cfi_startproc
@ %bb.0:
	@DEBUG_VALUE: lv_indev_reset_long_press:indev <- $r0
	.save	{r4, lr}
	push	{r4, lr}
	.cfi_def_cfa_offset 8
	.cfi_offset lr, -4
	.cfi_offset r4, -8
	mov	r4, r0
.Ltmp364:
	@DEBUG_VALUE: lv_indev_reset_long_press:indev <- $r4
	.loc	17 181 38 prologue_end          @ ../GUILib/src/core/lv_indev.c:181:38
	ldrb	r0, [r0, #5]
	and	r0, r0, #254
	strb	r0, [r4, #5]
	.loc	17 182 40                       @ ../GUILib/src/core/lv_indev.c:182:40
	bl	lv_tick_get
.Ltmp365:
	.loc	17 182 38 is_stmt 0             @ ../GUILib/src/core/lv_indev.c:182:38
	str	r0, [r4, #72]
	.loc	17 183 40 is_stmt 1             @ ../GUILib/src/core/lv_indev.c:183:40
	bl	lv_tick_get
.Ltmp366:
	.loc	17 183 38 is_stmt 0             @ ../GUILib/src/core/lv_indev.c:183:38
	str	r0, [r4, #68]
	.loc	17 184 1 is_stmt 1              @ ../GUILib/src/core/lv_indev.c:184:1
	pop	{r4, pc}
.Ltmp367:
.Lfunc_end6:
	.size	lv_indev_reset_long_press, .Lfunc_end6-lv_indev_reset_long_press
	.cfi_endproc
	.cantunwind
	.fnend
                                        @ -- End function
	.section	.text.lv_indev_set_cursor,"ax",%progbits
	.hidden	lv_indev_set_cursor             @ -- Begin function lv_indev_set_cursor
	.globl	lv_indev_set_cursor
	.p2align	1
	.type	lv_indev_set_cursor,%function
	.code	16                              @ @lv_indev_set_cursor
	.thumb_func
lv_indev_set_cursor:
.Lfunc_begin7:
	.loc	17 187 0                        @ ../GUILib/src/core/lv_indev.c:187:0
	.fnstart
	.cfi_startproc
@ %bb.0:
	@DEBUG_VALUE: lv_indev_set_cursor:indev <- $r0
	@DEBUG_VALUE: lv_indev_set_cursor:cur_obj <- $r1
	.save	{r4, r5, r7, lr}
	push	{r4, r5, r7, lr}
	.cfi_def_cfa_offset 16
	.cfi_offset lr, -4
	.cfi_offset r7, -8
	.cfi_offset r5, -12
	.cfi_offset r4, -16
	mov	r4, r0
.Ltmp368:
	@DEBUG_VALUE: lv_indev_set_cursor:indev <- $r4
	.loc	17 188 15 prologue_end          @ ../GUILib/src/core/lv_indev.c:188:15
	ldr	r0, [r0]
	.loc	17 188 23 is_stmt 0             @ ../GUILib/src/core/lv_indev.c:188:23
	ldrb	r2, [r0]
.Ltmp369:
	.loc	17 188 8                        @ ../GUILib/src/core/lv_indev.c:188:8
	cmp	r2, #1
	@DEBUG_VALUE: lv_indev_set_cursor:cur_obj <- $r1
	.loc	17 195 1 is_stmt 1              @ ../GUILib/src/core/lv_indev.c:195:1
	it	ne
	popne	{r4, r5, r7, pc}
.Ltmp370:
.LBB7_1:
	@DEBUG_VALUE: lv_indev_set_cursor:cur_obj <- $r1
	.loc	17 191 75                       @ ../GUILib/src/core/lv_indev.c:191:75
	ldr	r0, [r0, #16]
	mov	r5, r1
.Ltmp371:
	@DEBUG_VALUE: lv_indev_set_cursor:cur_obj <- $r5
	.loc	17 190 19                       @ ../GUILib/src/core/lv_indev.c:190:19
	str	r1, [r4, #76]
	.loc	17 191 38                       @ ../GUILib/src/core/lv_indev.c:191:38
	bl	lv_disp_get_layer_sys
.Ltmp372:
	mov	r1, r0
	.loc	17 191 5 is_stmt 0              @ ../GUILib/src/core/lv_indev.c:191:5
	mov	r0, r5
	bl	lv_obj_set_parent
.Ltmp373:
	.loc	17 192 27 is_stmt 1             @ ../GUILib/src/core/lv_indev.c:192:27
	ldr	r0, [r4, #76]
	.loc	17 192 71 is_stmt 0             @ ../GUILib/src/core/lv_indev.c:192:71
	ldrsh.w	r1, [r4, #8]
	.loc	17 192 110                      @ ../GUILib/src/core/lv_indev.c:192:110
	ldrsh.w	r2, [r4, #10]
	.loc	17 192 5                        @ ../GUILib/src/core/lv_indev.c:192:5
	bl	lv_obj_set_pos
.Ltmp374:
	.loc	17 193 30 is_stmt 1             @ ../GUILib/src/core/lv_indev.c:193:30
	ldr	r0, [r4, #76]
	.loc	17 193 5 is_stmt 0              @ ../GUILib/src/core/lv_indev.c:193:5
	movs	r1, #2
	bl	lv_obj_clear_flag
.Ltmp375:
	.loc	17 194 28 is_stmt 1             @ ../GUILib/src/core/lv_indev.c:194:28
	ldr	r0, [r4, #76]
	.loc	17 194 5 is_stmt 0              @ ../GUILib/src/core/lv_indev.c:194:5
	mov.w	r1, #98304
	pop.w	{r4, r5, r7, lr}
.Ltmp376:
	@DEBUG_VALUE: lv_indev_set_cursor:cur_obj <- [DW_OP_LLVM_entry_value 1] $r1
	b	lv_obj_add_flag
.Ltmp377:
.Lfunc_end7:
	.size	lv_indev_set_cursor, .Lfunc_end7-lv_indev_set_cursor
	.cfi_endproc
	.cantunwind
	.fnend
                                        @ -- End function
	.section	.text.lv_indev_set_group,"ax",%progbits
	.hidden	lv_indev_set_group              @ -- Begin function lv_indev_set_group
	.globl	lv_indev_set_group
	.p2align	1
	.type	lv_indev_set_group,%function
	.code	16                              @ @lv_indev_set_group
	.thumb_func
lv_indev_set_group:
.Lfunc_begin8:
	.loc	17 198 0 is_stmt 1              @ ../GUILib/src/core/lv_indev.c:198:0
	.fnstart
	.cfi_startproc
@ %bb.0:
	@DEBUG_VALUE: lv_indev_set_group:indev <- $r0
	@DEBUG_VALUE: lv_indev_set_group:indev <- $r0
	@DEBUG_VALUE: lv_indev_set_group:group <- $r1
	.loc	17 199 15 prologue_end          @ ../GUILib/src/core/lv_indev.c:199:15
	ldr	r2, [r0]
	.loc	17 199 23 is_stmt 0             @ ../GUILib/src/core/lv_indev.c:199:23
	ldrb	r2, [r2]
	.loc	17 199 52                       @ ../GUILib/src/core/lv_indev.c:199:52
	cmp	r2, #4
	@DEBUG_VALUE: lv_indev_set_group:group <- $r1
	beq	.LBB8_2
.Ltmp378:
@ %bb.1:
	@DEBUG_VALUE: lv_indev_set_group:group <- $r1
	@DEBUG_VALUE: lv_indev_set_group:indev <- $r0
	cmp	r2, #2
.Ltmp379:
	.loc	17 200 22 is_stmt 1             @ ../GUILib/src/core/lv_indev.c:200:22
	it	eq
	streq	r1, [r0, #80]
.Ltmp380:
	.loc	17 202 1                        @ ../GUILib/src/core/lv_indev.c:202:1
	bx	lr
.Ltmp381:
.LBB8_2:
	@DEBUG_VALUE: lv_indev_set_group:group <- $r1
	@DEBUG_VALUE: lv_indev_set_group:indev <- $r0
	.loc	17 200 22                       @ ../GUILib/src/core/lv_indev.c:200:22
	str	r1, [r0, #80]
.Ltmp382:
	.loc	17 202 1                        @ ../GUILib/src/core/lv_indev.c:202:1
	bx	lr
.Ltmp383:
.Lfunc_end8:
	.size	lv_indev_set_group, .Lfunc_end8-lv_indev_set_group
	.cfi_endproc
	.cantunwind
	.fnend
                                        @ -- End function
	.section	.text.lv_indev_set_button_points,"ax",%progbits
	.hidden	lv_indev_set_button_points      @ -- Begin function lv_indev_set_button_points
	.globl	lv_indev_set_button_points
	.p2align	1
	.type	lv_indev_set_button_points,%function
	.code	16                              @ @lv_indev_set_button_points
	.thumb_func
lv_indev_set_button_points:
.Lfunc_begin9:
	.loc	17 205 0                        @ ../GUILib/src/core/lv_indev.c:205:0
	.fnstart
	.cfi_startproc
@ %bb.0:
	@DEBUG_VALUE: lv_indev_set_button_points:indev <- $r0
	@DEBUG_VALUE: lv_indev_set_button_points:indev <- $r0
	@DEBUG_VALUE: lv_indev_set_button_points:points <- $r1
	.loc	17 206 15 prologue_end          @ ../GUILib/src/core/lv_indev.c:206:15
	ldr	r2, [r0]
	.loc	17 206 23 is_stmt 0             @ ../GUILib/src/core/lv_indev.c:206:23
	ldrb	r2, [r2]
.Ltmp384:
	.loc	17 206 8                        @ ../GUILib/src/core/lv_indev.c:206:8
	cmp	r2, #3
	@DEBUG_VALUE: lv_indev_set_button_points:points <- $r1
.Ltmp385:
	.loc	17 207 27 is_stmt 1             @ ../GUILib/src/core/lv_indev.c:207:27
	it	eq
	streq	r1, [r0, #84]
.Ltmp386:
	.loc	17 209 1                        @ ../GUILib/src/core/lv_indev.c:209:1
	bx	lr
.Ltmp387:
.Lfunc_end9:
	.size	lv_indev_set_button_points, .Lfunc_end9-lv_indev_set_button_points
	.cfi_endproc
	.cantunwind
	.fnend
                                        @ -- End function
	.section	.text.lv_indev_get_point,"ax",%progbits
	.hidden	lv_indev_get_point              @ -- Begin function lv_indev_get_point
	.globl	lv_indev_get_point
	.p2align	1
	.type	lv_indev_get_point,%function
	.code	16                              @ @lv_indev_get_point
	.thumb_func
lv_indev_get_point:
.Lfunc_begin10:
	.loc	17 212 0                        @ ../GUILib/src/core/lv_indev.c:212:0
	.fnstart
	.cfi_startproc
@ %bb.0:
	@DEBUG_VALUE: lv_indev_get_point:indev <- $r0
	@DEBUG_VALUE: lv_indev_get_point:indev <- $r0
	@DEBUG_VALUE: lv_indev_get_point:point <- $r1
	@DEBUG_VALUE: lv_indev_get_point:point <- $r1
	.loc	17 213 8 prologue_end           @ ../GUILib/src/core/lv_indev.c:213:8
	cbz	r0, .LBB10_3
.Ltmp388:
@ %bb.1:
	@DEBUG_VALUE: lv_indev_get_point:point <- $r1
	@DEBUG_VALUE: lv_indev_get_point:indev <- $r0
	.loc	17 218 15                       @ ../GUILib/src/core/lv_indev.c:218:15
	ldr	r2, [r0]
	.loc	17 218 23 is_stmt 0             @ ../GUILib/src/core/lv_indev.c:218:23
	ldrb	r2, [r2]
	.loc	17 218 53                       @ ../GUILib/src/core/lv_indev.c:218:53
	orr	r2, r2, #2
	cmp	r2, #3
	bne	.LBB10_4
.Ltmp389:
@ %bb.2:
	@DEBUG_VALUE: lv_indev_get_point:point <- $r1
	@DEBUG_VALUE: lv_indev_get_point:indev <- $r0
	.loc	17 223 56 is_stmt 1             @ ../GUILib/src/core/lv_indev.c:223:56
	ldrh	r2, [r0, #8]
	.loc	17 223 18 is_stmt 0             @ ../GUILib/src/core/lv_indev.c:223:18
	strh	r2, [r1]
	.loc	17 224 56 is_stmt 1             @ ../GUILib/src/core/lv_indev.c:224:56
	ldrh	r0, [r0, #10]
.Ltmp390:
	@DEBUG_VALUE: lv_indev_get_point:indev <- [DW_OP_LLVM_entry_value 1] $r0
	.loc	17 0 56 is_stmt 0               @ ../GUILib/src/core/lv_indev.c:0:56
	b	.LBB10_5
.Ltmp391:
.LBB10_3:
	@DEBUG_VALUE: lv_indev_get_point:point <- $r1
	@DEBUG_VALUE: lv_indev_get_point:indev <- $r0
	movs	r0, #0
.Ltmp392:
	@DEBUG_VALUE: lv_indev_get_point:indev <- [DW_OP_LLVM_entry_value 1] $r0
	.loc	17 214 18 is_stmt 1             @ ../GUILib/src/core/lv_indev.c:214:18
	strh	r0, [r1]
	b	.LBB10_5
.Ltmp393:
.LBB10_4:
	@DEBUG_VALUE: lv_indev_get_point:point <- $r1
	@DEBUG_VALUE: lv_indev_get_point:indev <- $r0
	.loc	17 0 18 is_stmt 0               @ ../GUILib/src/core/lv_indev.c:0:18
	mov.w	r2, #-1
	movw	r0, #65535
.Ltmp394:
	@DEBUG_VALUE: lv_indev_get_point:indev <- [DW_OP_LLVM_entry_value 1] $r0
	.loc	17 219 18 is_stmt 1             @ ../GUILib/src/core/lv_indev.c:219:18
	strh	r2, [r1]
.Ltmp395:
.LBB10_5:
	@DEBUG_VALUE: lv_indev_get_point:point <- $r1
	@DEBUG_VALUE: lv_indev_get_point:indev <- [DW_OP_LLVM_entry_value 1] $r0
	.loc	17 0 0 is_stmt 0                @ ../GUILib/src/core/lv_indev.c:0:0
	strh	r0, [r1, #2]
	.loc	17 226 1 is_stmt 1              @ ../GUILib/src/core/lv_indev.c:226:1
	bx	lr
.Ltmp396:
.Lfunc_end10:
	.size	lv_indev_get_point, .Lfunc_end10-lv_indev_get_point
	.cfi_endproc
	.cantunwind
	.fnend
                                        @ -- End function
	.section	.text.lv_indev_get_gesture_dir,"ax",%progbits
	.hidden	lv_indev_get_gesture_dir        @ -- Begin function lv_indev_get_gesture_dir
	.globl	lv_indev_get_gesture_dir
	.p2align	1
	.type	lv_indev_get_gesture_dir,%function
	.code	16                              @ @lv_indev_get_gesture_dir
	.thumb_func
lv_indev_get_gesture_dir:
.Lfunc_begin11:
	.loc	17 229 0                        @ ../GUILib/src/core/lv_indev.c:229:0
	.fnstart
	.cfi_startproc
@ %bb.0:
	@DEBUG_VALUE: lv_indev_get_gesture_dir:indev <- $r0
	@DEBUG_VALUE: lv_indev_get_gesture_dir:indev <- $r0
	.loc	17 230 38 prologue_end          @ ../GUILib/src/core/lv_indev.c:230:38
	ldrb.w	r0, [r0, #64]
.Ltmp397:
	@DEBUG_VALUE: lv_indev_get_gesture_dir:indev <- [DW_OP_LLVM_entry_value 1] $r0
	lsrs	r0, r0, #4
	.loc	17 230 5 is_stmt 0              @ ../GUILib/src/core/lv_indev.c:230:5
	bx	lr
.Ltmp398:
.Lfunc_end11:
	.size	lv_indev_get_gesture_dir, .Lfunc_end11-lv_indev_get_gesture_dir
	.cfi_endproc
	.cantunwind
	.fnend
                                        @ -- End function
	.section	.text.lv_indev_get_key,"ax",%progbits
	.hidden	lv_indev_get_key                @ -- Begin function lv_indev_get_key
	.globl	lv_indev_get_key
	.p2align	1
	.type	lv_indev_get_key,%function
	.code	16                              @ @lv_indev_get_key
	.thumb_func
lv_indev_get_key:
.Lfunc_begin12:
	.loc	17 234 0 is_stmt 1              @ ../GUILib/src/core/lv_indev.c:234:0
	.fnstart
	.cfi_startproc
@ %bb.0:
	@DEBUG_VALUE: lv_indev_get_key:indev <- $r0
	@DEBUG_VALUE: lv_indev_get_key:indev <- $r0
	.loc	17 235 15 prologue_end          @ ../GUILib/src/core/lv_indev.c:235:15
	ldr	r1, [r0]
	.loc	17 235 23 is_stmt 0             @ ../GUILib/src/core/lv_indev.c:235:23
	ldrb	r1, [r1]
.Ltmp399:
	.loc	17 235 8                        @ ../GUILib/src/core/lv_indev.c:235:8
	cmp	r1, #2
.Ltmp400:
	.loc	17 238 41 is_stmt 1             @ ../GUILib/src/core/lv_indev.c:238:41
	ite	eq
	ldreq	r0, [r0, #12]
.Ltmp401:
	@DEBUG_VALUE: lv_indev_get_key:indev <- [DW_OP_LLVM_entry_value 1] $r0
	.loc	17 0 41 is_stmt 0               @ ../GUILib/src/core/lv_indev.c:0:41
	movne	r0, #0
.Ltmp402:
	.loc	17 239 1 is_stmt 1              @ ../GUILib/src/core/lv_indev.c:239:1
	bx	lr
.Ltmp403:
.Lfunc_end12:
	.size	lv_indev_get_key, .Lfunc_end12-lv_indev_get_key
	.cfi_endproc
	.cantunwind
	.fnend
                                        @ -- End function
	.section	.text.lv_indev_get_scroll_dir,"ax",%progbits
	.hidden	lv_indev_get_scroll_dir         @ -- Begin function lv_indev_get_scroll_dir
	.globl	lv_indev_get_scroll_dir
	.p2align	1
	.type	lv_indev_get_scroll_dir,%function
	.code	16                              @ @lv_indev_get_scroll_dir
	.thumb_func
lv_indev_get_scroll_dir:
.Lfunc_begin13:
	.loc	17 242 0                        @ ../GUILib/src/core/lv_indev.c:242:0
	.fnstart
	.cfi_startproc
@ %bb.0:
	@DEBUG_VALUE: lv_indev_get_scroll_dir:indev <- $r0
	@DEBUG_VALUE: lv_indev_get_scroll_dir:indev <- $r0
	.loc	17 243 8 prologue_end           @ ../GUILib/src/core/lv_indev.c:243:8
	cbz	r0, .LBB13_3
.Ltmp404:
@ %bb.1:
	@DEBUG_VALUE: lv_indev_get_scroll_dir:indev <- $r0
	.loc	17 244 15                       @ ../GUILib/src/core/lv_indev.c:244:15
	ldr	r1, [r0]
	.loc	17 244 23 is_stmt 0             @ ../GUILib/src/core/lv_indev.c:244:23
	ldrb	r1, [r1]
	.loc	17 244 53                       @ ../GUILib/src/core/lv_indev.c:244:53
	orr	r1, r1, #2
	cmp	r1, #3
	bne	.LBB13_3
.Ltmp405:
@ %bb.2:
	@DEBUG_VALUE: lv_indev_get_scroll_dir:indev <- $r0
	.loc	17 245 38 is_stmt 1             @ ../GUILib/src/core/lv_indev.c:245:38
	ldrb.w	r0, [r0, #64]
.Ltmp406:
	@DEBUG_VALUE: lv_indev_get_scroll_dir:indev <- [DW_OP_LLVM_entry_value 1] $r0
	and	r0, r0, #15
	.loc	17 246 1                        @ ../GUILib/src/core/lv_indev.c:246:1
	bx	lr
.Ltmp407:
.LBB13_3:
	@DEBUG_VALUE: lv_indev_get_scroll_dir:indev <- $r0
	.loc	17 0 1 is_stmt 0                @ ../GUILib/src/core/lv_indev.c:0:1
	movs	r0, #0
.Ltmp408:
	@DEBUG_VALUE: lv_indev_get_scroll_dir:indev <- [DW_OP_LLVM_entry_value 1] $r0
	.loc	17 246 1                        @ ../GUILib/src/core/lv_indev.c:246:1
	bx	lr
.Ltmp409:
.Lfunc_end13:
	.size	lv_indev_get_scroll_dir, .Lfunc_end13-lv_indev_get_scroll_dir
	.cfi_endproc
	.cantunwind
	.fnend
                                        @ -- End function
	.section	.text.lv_indev_get_scroll_obj,"ax",%progbits
	.hidden	lv_indev_get_scroll_obj         @ -- Begin function lv_indev_get_scroll_obj
	.globl	lv_indev_get_scroll_obj
	.p2align	1
	.type	lv_indev_get_scroll_obj,%function
	.code	16                              @ @lv_indev_get_scroll_obj
	.thumb_func
lv_indev_get_scroll_obj:
.Lfunc_begin14:
	.loc	17 249 0 is_stmt 1              @ ../GUILib/src/core/lv_indev.c:249:0
	.fnstart
	.cfi_startproc
@ %bb.0:
	@DEBUG_VALUE: lv_indev_get_scroll_obj:indev <- $r0
	@DEBUG_VALUE: lv_indev_get_scroll_obj:indev <- $r0
	.loc	17 250 8 prologue_end           @ ../GUILib/src/core/lv_indev.c:250:8
	cbz	r0, .LBB14_2
.Ltmp410:
@ %bb.1:
	@DEBUG_VALUE: lv_indev_get_scroll_obj:indev <- $r0
	.loc	17 251 15                       @ ../GUILib/src/core/lv_indev.c:251:15
	ldr	r1, [r0]
	.loc	17 251 23 is_stmt 0             @ ../GUILib/src/core/lv_indev.c:251:23
	ldrb	r1, [r1]
	.loc	17 251 53                       @ ../GUILib/src/core/lv_indev.c:251:53
	orr	r1, r1, #2
	cmp	r1, #3
.Ltmp411:
	.loc	17 252 38 is_stmt 1             @ ../GUILib/src/core/lv_indev.c:252:38
	itt	eq
	ldreq	r0, [r0, #44]
.Ltmp412:
	@DEBUG_VALUE: lv_indev_get_scroll_obj:indev <- [DW_OP_LLVM_entry_value 1] $r0
	.loc	17 253 1                        @ ../GUILib/src/core/lv_indev.c:253:1
	bxeq	lr
.Ltmp413:
.LBB14_2:
	.loc	17 0 1 is_stmt 0                @ ../GUILib/src/core/lv_indev.c:0:1
	movs	r0, #0
	.loc	17 253 1                        @ ../GUILib/src/core/lv_indev.c:253:1
	bx	lr
.Ltmp414:
.Lfunc_end14:
	.size	lv_indev_get_scroll_obj, .Lfunc_end14-lv_indev_get_scroll_obj
	.cfi_endproc
	.cantunwind
	.fnend
                                        @ -- End function
	.section	.text.lv_indev_get_vect,"ax",%progbits
	.hidden	lv_indev_get_vect               @ -- Begin function lv_indev_get_vect
	.globl	lv_indev_get_vect
	.p2align	1
	.type	lv_indev_get_vect,%function
	.code	16                              @ @lv_indev_get_vect
	.thumb_func
lv_indev_get_vect:
.Lfunc_begin15:
	.loc	17 256 0 is_stmt 1              @ ../GUILib/src/core/lv_indev.c:256:0
	.fnstart
	.cfi_startproc
@ %bb.0:
	@DEBUG_VALUE: lv_indev_get_vect:indev <- $r0
	@DEBUG_VALUE: lv_indev_get_vect:point <- $r1
	movs	r2, #0
	@DEBUG_VALUE: lv_indev_get_vect:point <- $r1
	@DEBUG_VALUE: lv_indev_get_vect:indev <- $r0
.Ltmp415:
	.loc	17 257 14 prologue_end          @ ../GUILib/src/core/lv_indev.c:257:14
	str	r2, [r1]
	.loc	17 260 8                        @ ../GUILib/src/core/lv_indev.c:260:8
	cbz	r0, .LBB15_3
.Ltmp416:
@ %bb.1:
	@DEBUG_VALUE: lv_indev_get_vect:point <- $r1
	@DEBUG_VALUE: lv_indev_get_vect:indev <- $r0
	.loc	17 262 15                       @ ../GUILib/src/core/lv_indev.c:262:15
	ldr	r2, [r0]
	.loc	17 262 23 is_stmt 0             @ ../GUILib/src/core/lv_indev.c:262:23
	ldrb	r2, [r2]
	.loc	17 262 53                       @ ../GUILib/src/core/lv_indev.c:262:53
	orr	r2, r2, #2
	cmp	r2, #3
	bne	.LBB15_3
.Ltmp417:
@ %bb.2:
	@DEBUG_VALUE: lv_indev_get_vect:point <- $r1
	@DEBUG_VALUE: lv_indev_get_vect:indev <- $r0
	.loc	17 263 51 is_stmt 1             @ ../GUILib/src/core/lv_indev.c:263:51
	ldrh	r2, [r0, #20]
	.loc	17 263 18 is_stmt 0             @ ../GUILib/src/core/lv_indev.c:263:18
	strh	r2, [r1]
	.loc	17 264 51 is_stmt 1             @ ../GUILib/src/core/lv_indev.c:264:51
	ldrh	r0, [r0, #22]
.Ltmp418:
	@DEBUG_VALUE: lv_indev_get_vect:indev <- [DW_OP_LLVM_entry_value 1] $r0
	.loc	17 264 18 is_stmt 0             @ ../GUILib/src/core/lv_indev.c:264:18
	strh	r0, [r1, #2]
.Ltmp419:
.LBB15_3:
	@DEBUG_VALUE: lv_indev_get_vect:point <- $r1
	.loc	17 266 1 is_stmt 1              @ ../GUILib/src/core/lv_indev.c:266:1
	bx	lr
.Ltmp420:
.Lfunc_end15:
	.size	lv_indev_get_vect, .Lfunc_end15-lv_indev_get_vect
	.cfi_endproc
	.cantunwind
	.fnend
                                        @ -- End function
	.section	.text.lv_indev_wait_release,"ax",%progbits
	.hidden	lv_indev_wait_release           @ -- Begin function lv_indev_wait_release
	.globl	lv_indev_wait_release
	.p2align	1
	.type	lv_indev_wait_release,%function
	.code	16                              @ @lv_indev_wait_release
	.thumb_func
lv_indev_wait_release:
.Lfunc_begin16:
	.loc	17 269 0                        @ ../GUILib/src/core/lv_indev.c:269:0
	.fnstart
	.cfi_startproc
@ %bb.0:
	@DEBUG_VALUE: lv_indev_wait_release:indev <- $r0
	@DEBUG_VALUE: lv_indev_wait_release:indev <- $r0
	.loc	17 270 8 prologue_end           @ ../GUILib/src/core/lv_indev.c:270:8
	cbz	r0, .LBB16_2
.Ltmp421:
@ %bb.1:
	@DEBUG_VALUE: lv_indev_wait_release:indev <- $r0
	.loc	17 271 36                       @ ../GUILib/src/core/lv_indev.c:271:36
	ldrb	r1, [r0, #5]
	orr	r1, r1, #8
	strb	r1, [r0, #5]
.Ltmp422:
.LBB16_2:
	@DEBUG_VALUE: lv_indev_wait_release:indev <- $r0
	.loc	17 272 1                        @ ../GUILib/src/core/lv_indev.c:272:1
	bx	lr
.Ltmp423:
.Lfunc_end16:
	.size	lv_indev_wait_release, .Lfunc_end16-lv_indev_wait_release
	.cfi_endproc
	.cantunwind
	.fnend
                                        @ -- End function
	.section	.text.lv_indev_get_obj_act,"ax",%progbits
	.hidden	lv_indev_get_obj_act            @ -- Begin function lv_indev_get_obj_act
	.globl	lv_indev_get_obj_act
	.p2align	1
	.type	lv_indev_get_obj_act,%function
	.code	16                              @ @lv_indev_get_obj_act
	.thumb_func
lv_indev_get_obj_act:
.Lfunc_begin17:
	.loc	17 275 0                        @ ../GUILib/src/core/lv_indev.c:275:0
	.fnstart
	.cfi_startproc
@ %bb.0:
	.loc	17 276 12 prologue_end          @ ../GUILib/src/core/lv_indev.c:276:12
	movw	r0, :lower16:indev_obj_act
	movt	r0, :upper16:indev_obj_act
	ldr	r0, [r0]
	.loc	17 276 5 is_stmt 0              @ ../GUILib/src/core/lv_indev.c:276:5
	bx	lr
.Ltmp424:
.Lfunc_end17:
	.size	lv_indev_get_obj_act, .Lfunc_end17-lv_indev_get_obj_act
	.cfi_endproc
	.cantunwind
	.fnend
                                        @ -- End function
	.section	.text.lv_indev_get_read_timer,"ax",%progbits
	.hidden	lv_indev_get_read_timer         @ -- Begin function lv_indev_get_read_timer
	.globl	lv_indev_get_read_timer
	.p2align	1
	.type	lv_indev_get_read_timer,%function
	.code	16                              @ @lv_indev_get_read_timer
	.thumb_func
lv_indev_get_read_timer:
.Lfunc_begin18:
	.loc	17 280 0 is_stmt 1              @ ../GUILib/src/core/lv_indev.c:280:0
	.fnstart
	.cfi_startproc
@ %bb.0:
	@DEBUG_VALUE: lv_indev_get_read_timer:indev <- $r0
	@DEBUG_VALUE: lv_indev_get_read_timer:indev <- $r0
	.loc	17 281 8 prologue_end           @ ../GUILib/src/core/lv_indev.c:281:8
	cmp	r0, #0
	.loc	17 286 19                       @ ../GUILib/src/core/lv_indev.c:286:19
	ite	ne
	ldrne	r0, [r0, #4]
.Ltmp425:
	@DEBUG_VALUE: lv_indev_get_read_timer:indev <- [DW_OP_LLVM_entry_value 1] $r0
	.loc	17 0 19 is_stmt 0               @ ../GUILib/src/core/lv_indev.c:0:19
	moveq	r0, #0
	.loc	17 287 1 is_stmt 1              @ ../GUILib/src/core/lv_indev.c:287:1
	bx	lr
.Ltmp426:
.Lfunc_end18:
	.size	lv_indev_get_read_timer, .Lfunc_end18-lv_indev_get_read_timer
	.cfi_endproc
	.cantunwind
	.fnend
                                        @ -- End function
	.section	.text.lv_indev_search_obj,"ax",%progbits
	.hidden	lv_indev_search_obj             @ -- Begin function lv_indev_search_obj
	.globl	lv_indev_search_obj
	.p2align	1
	.type	lv_indev_search_obj,%function
	.code	16                              @ @lv_indev_search_obj
	.thumb_func
lv_indev_search_obj:
.Lfunc_begin19:
	.loc	17 290 0                        @ ../GUILib/src/core/lv_indev.c:290:0
	.fnstart
	.cfi_startproc
@ %bb.0:
	@DEBUG_VALUE: lv_indev_search_obj:obj <- $r0
	@DEBUG_VALUE: lv_indev_search_obj:point <- $r1
	.save	{r4, r5, r6, lr}
	push	{r4, r5, r6, lr}
	.cfi_def_cfa_offset 16
	.cfi_offset lr, -4
	.cfi_offset r6, -8
	.cfi_offset r5, -12
	.cfi_offset r4, -16
	mov	r5, r1
	mov	r4, r0
.Ltmp427:
	@DEBUG_VALUE: lv_indev_search_obj:found_p <- 0
	@DEBUG_VALUE: lv_indev_search_obj:point <- $r5
	@DEBUG_VALUE: lv_indev_search_obj:obj <- $r4
	.loc	17 294 8 prologue_end           @ ../GUILib/src/core/lv_indev.c:294:8
	bl	lv_obj_hit_test
.Ltmp428:
	.loc	17 294 8 is_stmt 0              @ ../GUILib/src/core/lv_indev.c:294:8
	cbz	r0, .LBB19_10
.Ltmp429:
@ %bb.1:
	@DEBUG_VALUE: lv_indev_search_obj:point <- $r5
	@DEBUG_VALUE: lv_indev_search_obj:obj <- $r4
	@DEBUG_VALUE: lv_indev_search_obj:found_p <- 0
	.loc	17 296 30 is_stmt 1             @ ../GUILib/src/core/lv_indev.c:296:30
	mov	r0, r4
	bl	lv_obj_get_child_cnt
.Ltmp430:
	@DEBUG_VALUE: i <- [DW_OP_constu 1, DW_OP_minus, DW_OP_stack_value] $r0
	@DEBUG_VALUE: child_cnt <- $r0
	.loc	17 297 13                       @ ../GUILib/src/core/lv_indev.c:297:13
	subs	r6, r0, #1
.Ltmp431:
	.p2align	2
.LBB19_2:                               @ =>This Inner Loop Header: Depth=1
	@DEBUG_VALUE: lv_indev_search_obj:found_p <- undef
	@DEBUG_VALUE: i <- $r6
	.loc	17 297 9 is_stmt 0              @ ../GUILib/src/core/lv_indev.c:297:9
	cmp	r6, #0
	bmi	.LBB19_4
.Ltmp432:
@ %bb.3:                                @   in Loop: Header=BB19_2 Depth=1
	@DEBUG_VALUE: i <- $r6
	.loc	17 298 37 is_stmt 1             @ ../GUILib/src/core/lv_indev.c:298:37
	ldr	r0, [r4, #8]
	.loc	17 299 23                       @ ../GUILib/src/core/lv_indev.c:299:23
	mov	r1, r5
	.loc	17 298 48                       @ ../GUILib/src/core/lv_indev.c:298:48
	ldr	r0, [r0]
	.loc	17 298 32 is_stmt 0             @ ../GUILib/src/core/lv_indev.c:298:32
	ldr.w	r0, [r0, r6, lsl #2]
.Ltmp433:
	@DEBUG_VALUE: child <- $r0
	.loc	17 299 23 is_stmt 1             @ ../GUILib/src/core/lv_indev.c:299:23
	bl	lv_indev_search_obj
.Ltmp434:
	@DEBUG_VALUE: lv_indev_search_obj:found_p <- $r0
	.loc	17 0 23 is_stmt 0               @ ../GUILib/src/core/lv_indev.c:0:23
	cmp	r0, #0
	sub.w	r6, r6, #1
.Ltmp435:
	@DEBUG_VALUE: lv_indev_search_obj:found_p <- $r0
	it	ne
	popne	{r4, r5, r6, pc}
	b	.LBB19_2
.Ltmp436:
.LBB19_4:
	@DEBUG_VALUE: i <- $r6
	@DEBUG_VALUE: lv_indev_search_obj:found_p <- undef
	.loc	17 307 31 is_stmt 1             @ ../GUILib/src/core/lv_indev.c:307:31
	mov	r0, r4
	movs	r1, #2
	bl	lv_obj_has_flag
.Ltmp437:
	.loc	17 307 12 is_stmt 0             @ ../GUILib/src/core/lv_indev.c:307:12
	cbz	r0, .LBB19_10
.Ltmp438:
@ %bb.5:
	@DEBUG_VALUE: i <- $r6
	@DEBUG_VALUE: hidden_i <- $r4
	.loc	17 309 13 is_stmt 1             @ ../GUILib/src/core/lv_indev.c:309:13
	cbz	r4, .LBB19_9
.Ltmp439:
@ %bb.6:
	@DEBUG_VALUE: i <- $r6
	@DEBUG_VALUE: hidden_i <- $r4
	.loc	17 0 13 is_stmt 0               @ ../GUILib/src/core/lv_indev.c:0:13
	mov	r5, r4
.Ltmp440:
	.p2align	2
.LBB19_7:                               @ =>This Inner Loop Header: Depth=1
	@DEBUG_VALUE: i <- $r6
	@DEBUG_VALUE: hidden_i <- $r5
	.loc	17 310 20 is_stmt 1             @ ../GUILib/src/core/lv_indev.c:310:20
	mov	r0, r5
	movs	r1, #1
	bl	lv_obj_has_flag
.Ltmp441:
	.loc	17 310 20 is_stmt 0             @ ../GUILib/src/core/lv_indev.c:310:20
	cbnz	r0, .LBB19_10
.Ltmp442:
@ %bb.8:                                @   in Loop: Header=BB19_7 Depth=1
	@DEBUG_VALUE: i <- $r6
	@DEBUG_VALUE: hidden_i <- $r5
	.loc	17 311 28 is_stmt 1             @ ../GUILib/src/core/lv_indev.c:311:28
	mov	r0, r5
	bl	lv_obj_get_parent
.Ltmp443:
	mov	r5, r0
.Ltmp444:
	@DEBUG_VALUE: hidden_i <- $r5
	.loc	17 309 13                       @ ../GUILib/src/core/lv_indev.c:309:13
	cmp	r0, #0
	bne	.LBB19_7
.Ltmp445:
.LBB19_9:
	@DEBUG_VALUE: i <- $r6
	.loc	17 314 37                       @ ../GUILib/src/core/lv_indev.c:314:37
	mov	r0, r4
	bl	lv_obj_get_state
.Ltmp446:
	.loc	17 314 16 is_stmt 0             @ ../GUILib/src/core/lv_indev.c:314:16
	lsls	r0, r0, #24
	it	mi
	movmi	r4, #0
	mov	r0, r4
.Ltmp447:
	@DEBUG_VALUE: lv_indev_search_obj:found_p <- $r0
	.loc	17 0 0                          @ ../GUILib/src/core/lv_indev.c:0:0
	pop	{r4, r5, r6, pc}
.Ltmp448:
.LBB19_10:
	movs	r0, #0
.Ltmp449:
	@DEBUG_VALUE: lv_indev_search_obj:found_p <- $r0
	pop	{r4, r5, r6, pc}
.Ltmp450:
.Lfunc_end19:
	.size	lv_indev_search_obj, .Lfunc_end19-lv_indev_search_obj
	.cfi_endproc
	.cantunwind
	.fnend
                                        @ -- End function
	.section	.text.indev_proc_press,"ax",%progbits
	.p2align	1                               @ -- Begin function indev_proc_press
	.type	indev_proc_press,%function
	.code	16                              @ @indev_proc_press
	.thumb_func
indev_proc_press:
.Lfunc_begin20:
	.loc	17 781 0 is_stmt 1              @ ../GUILib/src/core/lv_indev.c:781:0
	.fnstart
	.cfi_startproc
@ %bb.0:
	@DEBUG_VALUE: indev_proc_press:proc <- $r0
	.save	{r4, r5, r6, r7, r8, lr}
	push.w	{r4, r5, r6, r7, r8, lr}
	.cfi_def_cfa_offset 24
	.cfi_offset lr, -4
	.cfi_offset r8, -8
	.cfi_offset r7, -12
	.cfi_offset r6, -16
	.cfi_offset r5, -20
	.cfi_offset r4, -24
	mov	r4, r0
.Ltmp451:
	@DEBUG_VALUE: indev_proc_press:proc <- $r4
	.loc	17 783 41 prologue_end          @ ../GUILib/src/core/lv_indev.c:783:41
	ldr	r0, [r0, #32]
	.loc	17 783 19 is_stmt 0             @ ../GUILib/src/core/lv_indev.c:783:19
	movw	r7, :lower16:indev_obj_act
	movt	r7, :upper16:indev_obj_act
	str	r0, [r7]
.Ltmp452:
	.loc	17 785 14 is_stmt 1             @ ../GUILib/src/core/lv_indev.c:785:14
	ldrb	r1, [r4, #1]
.Ltmp453:
	.loc	17 785 8 is_stmt 0              @ ../GUILib/src/core/lv_indev.c:785:8
	lsls	r1, r1, #28
	bmi.w	.LBB20_58
.Ltmp454:
@ %bb.1:
	@DEBUG_VALUE: indev_proc_press:proc <- $r4
	.loc	17 787 24 is_stmt 1             @ ../GUILib/src/core/lv_indev.c:787:24
	movw	r8, :lower16:indev_act
	movt	r8, :upper16:indev_act
	ldr.w	r1, [r8]
	.loc	17 787 35 is_stmt 0             @ ../GUILib/src/core/lv_indev.c:787:35
	ldr	r1, [r1]
	.loc	17 0 0                          @ ../GUILib/src/core/lv_indev.c:0:0
	add.w	r5, r4, #4
	.loc	17 787 43                       @ ../GUILib/src/core/lv_indev.c:787:43
	ldr	r6, [r1, #16]
.Ltmp455:
	@DEBUG_VALUE: indev_proc_press:new_obj_searched <- 0
	@DEBUG_VALUE: indev_proc_press:disp <- $r6
	.loc	17 791 8 is_stmt 1              @ ../GUILib/src/core/lv_indev.c:791:8
	cbz	r0, .LBB20_4
.Ltmp456:
@ %bb.2:
	@DEBUG_VALUE: indev_proc_press:disp <- $r6
	@DEBUG_VALUE: indev_proc_press:proc <- $r4
	@DEBUG_VALUE: indev_proc_press:new_obj_searched <- 0
	.loc	17 800 33                       @ ../GUILib/src/core/lv_indev.c:800:33
	ldr	r1, [r4, #40]
	.loc	17 800 52 is_stmt 0             @ ../GUILib/src/core/lv_indev.c:800:52
	cbnz	r1, .LBB20_9
.Ltmp457:
@ %bb.3:
	@DEBUG_VALUE: indev_proc_press:disp <- $r6
	@DEBUG_VALUE: indev_proc_press:proc <- $r4
	@DEBUG_VALUE: indev_proc_press:new_obj_searched <- 0
	.loc	17 801 13 is_stmt 1             @ ../GUILib/src/core/lv_indev.c:801:13
	mov.w	r1, #2048
	bl	lv_obj_has_flag
.Ltmp458:
	.loc	17 800 13                       @ ../GUILib/src/core/lv_indev.c:800:13
	cbnz	r0, .LBB20_9
.Ltmp459:
.LBB20_4:
	@DEBUG_VALUE: indev_proc_press:disp <- $r6
	@DEBUG_VALUE: indev_proc_press:proc <- $r4
	@DEBUG_VALUE: indev_proc_press:new_obj_searched <- 0
	.loc	17 0 0 is_stmt 0                @ ../GUILib/src/core/lv_indev.c:0:0
	mov	r0, r6
	bl	lv_disp_get_layer_sys
.Ltmp460:
	mov	r1, r5
	bl	lv_indev_search_obj
.Ltmp461:
	str	r0, [r7]
	cbnz	r0, .LBB20_7
.Ltmp462:
@ %bb.5:
	@DEBUG_VALUE: indev_proc_press:disp <- $r6
	@DEBUG_VALUE: indev_proc_press:proc <- $r4
	@DEBUG_VALUE: indev_proc_press:new_obj_searched <- 0
	mov	r0, r6
	bl	lv_disp_get_layer_top
.Ltmp463:
	mov	r1, r5
	bl	lv_indev_search_obj
.Ltmp464:
	str	r0, [r7]
	cbnz	r0, .LBB20_7
.Ltmp465:
@ %bb.6:
	@DEBUG_VALUE: indev_proc_press:disp <- $r6
	@DEBUG_VALUE: indev_proc_press:proc <- $r4
	@DEBUG_VALUE: indev_proc_press:new_obj_searched <- 0
	mov	r0, r6
	bl	lv_disp_get_scr_act
.Ltmp466:
	mov	r1, r5
	bl	lv_indev_search_obj
.Ltmp467:
	str	r0, [r7]
.Ltmp468:
.LBB20_7:
	@DEBUG_VALUE: indev_proc_press:disp <- $r6
	@DEBUG_VALUE: indev_proc_press:proc <- $r4
	@DEBUG_VALUE: indev_proc_press:new_obj_searched <- 0
	@DEBUG_VALUE: indev_proc_press:new_obj_searched <- undef
	.loc	17 811 48 is_stmt 1             @ ../GUILib/src/core/lv_indev.c:811:48
	ldr	r0, [r4, #36]
.Ltmp469:
	.loc	17 811 8 is_stmt 0              @ ../GUILib/src/core/lv_indev.c:811:8
	cbz	r0, .LBB20_9
.Ltmp470:
@ %bb.8:
	@DEBUG_VALUE: indev_proc_press:disp <- $r6
	@DEBUG_VALUE: indev_proc_press:proc <- $r4
	.loc	17 0 8                          @ ../GUILib/src/core/lv_indev.c:0:8
	movs	r5, #0
.Ltmp471:
	.loc	17 814 9 is_stmt 1              @ ../GUILib/src/core/lv_indev.c:814:9
	mov	r0, r4
	.loc	17 812 49                       @ ../GUILib/src/core/lv_indev.c:812:49
	str	r5, [r4, #24]
	.loc	17 814 9                        @ ../GUILib/src/core/lv_indev.c:814:9
	bl	_lv_indev_scroll_throw_handler
.Ltmp472:
	@DEBUG_VALUE: indev_reset_check:proc <- $r4
	.loc	17 1118 14                      @ ../GUILib/src/core/lv_indev.c:1118:14
	ldrb	r0, [r4, #1]
.Ltmp473:
	.loc	17 1118 8 is_stmt 0             @ ../GUILib/src/core/lv_indev.c:1118:8
	lsls	r0, r0, #30
.Ltmp474:
	.loc	17 1119 23 is_stmt 1            @ ../GUILib/src/core/lv_indev.c:1119:23
	itt	mi
	strmi	r5, [r7]
.Ltmp475:
	.loc	17 910 1                        @ ../GUILib/src/core/lv_indev.c:910:1
	popmi.w	{r4, r5, r6, r7, r8, pc}
.Ltmp476:
.LBB20_9:
	.loc	17 819 8                        @ ../GUILib/src/core/lv_indev.c:819:8
	ldr	r0, [r7]
	.loc	17 819 45 is_stmt 0             @ ../GUILib/src/core/lv_indev.c:819:45
	ldr	r1, [r4, #32]
.Ltmp477:
	.loc	17 819 8                        @ ../GUILib/src/core/lv_indev.c:819:8
	cmp	r0, r1
	beq	.LBB20_24
@ %bb.10:
.Ltmp478:
	.loc	17 820 74 is_stmt 1             @ ../GUILib/src/core/lv_indev.c:820:74
	ldr	r2, [r4, #4]
	.loc	17 820 42 is_stmt 0             @ ../GUILib/src/core/lv_indev.c:820:42
	str	r2, [r4, #8]
	.loc	17 824 12 is_stmt 1             @ ../GUILib/src/core/lv_indev.c:824:12
	cbz	r1, .LBB20_13
@ %bb.11:
.Ltmp479:
	@DEBUG_VALUE: last_obj <- $r1
	.loc	17 828 58                       @ ../GUILib/src/core/lv_indev.c:828:58
	ldr.w	r2, [r8]
	.loc	17 828 13 is_stmt 0             @ ../GUILib/src/core/lv_indev.c:828:13
	mov	r0, r1
	movs	r1, #3
.Ltmp480:
	bl	lv_event_send
.Ltmp481:
	@DEBUG_VALUE: indev_reset_check:proc <- $r4
	.loc	17 1118 14 is_stmt 1            @ ../GUILib/src/core/lv_indev.c:1118:14
	ldrb	r0, [r4, #1]
.Ltmp482:
	.loc	17 1118 8 is_stmt 0             @ ../GUILib/src/core/lv_indev.c:1118:8
	lsls	r0, r0, #30
	bmi.w	.LBB20_68
.Ltmp483:
@ %bb.12:
	.loc	17 832 40 is_stmt 1             @ ../GUILib/src/core/lv_indev.c:832:40
	ldr	r0, [r7]
.LBB20_13:
	.loc	17 835 12                       @ ../GUILib/src/core/lv_indev.c:835:12
	cmp	r0, #0
	mov.w	r5, #0
	.loc	17 832 38                       @ ../GUILib/src/core/lv_indev.c:832:38
	strd	r0, r0, [r4, #32]
	.loc	17 835 12                       @ ../GUILib/src/core/lv_indev.c:835:12
	beq	.LBB20_23
@ %bb.14:
.Ltmp484:
	.loc	17 837 50                       @ ../GUILib/src/core/lv_indev.c:837:50
	bl	lv_tick_get
.Ltmp485:
	.loc	17 837 48 is_stmt 0             @ ../GUILib/src/core/lv_indev.c:837:48
	str	r0, [r4, #64]
	.loc	17 838 48 is_stmt 1             @ ../GUILib/src/core/lv_indev.c:838:48
	ldrb	r0, [r4, #1]
	.loc	17 843 48                       @ ../GUILib/src/core/lv_indev.c:843:48
	ldrb.w	r1, [r4, #61]
	.loc	17 838 48                       @ ../GUILib/src/core/lv_indev.c:838:48
	and	r0, r0, #254
	strb	r0, [r4, #1]
	.loc	17 843 48                       @ ../GUILib/src/core/lv_indev.c:843:48
	and	r0, r1, #254
	strb.w	r0, [r4, #61]
	.loc	17 850 27                       @ ../GUILib/src/core/lv_indev.c:850:27
	ldr	r0, [r7]
	.loc	17 850 60 is_stmt 0             @ ../GUILib/src/core/lv_indev.c:850:60
	ldr.w	r2, [r8]
	.loc	17 850 13                       @ ../GUILib/src/core/lv_indev.c:850:13
	movs	r1, #1
	.loc	17 842 45 is_stmt 1             @ ../GUILib/src/core/lv_indev.c:842:45
	strb.w	r5, [r4, #60]
	.loc	17 844 48                       @ ../GUILib/src/core/lv_indev.c:844:48
	str	r5, [r4, #56]
	.loc	17 846 48                       @ ../GUILib/src/core/lv_indev.c:846:48
	str	r5, [r4, #16]
	.loc	17 839 50                       @ ../GUILib/src/core/lv_indev.c:839:50
	str	r5, [r4, #20]
	.loc	17 850 13                       @ ../GUILib/src/core/lv_indev.c:850:13
	bl	lv_event_send
.Ltmp486:
	@DEBUG_VALUE: indev_reset_check:proc <- $r4
	.loc	17 1118 14                      @ ../GUILib/src/core/lv_indev.c:1118:14
	ldrb	r0, [r4, #1]
.Ltmp487:
	.loc	17 1118 8 is_stmt 0             @ ../GUILib/src/core/lv_indev.c:1118:8
	lsls	r0, r0, #30
	bmi.w	.LBB20_68
.Ltmp488:
@ %bb.15:
	.loc	17 853 16 is_stmt 1             @ ../GUILib/src/core/lv_indev.c:853:16
	ldr.w	r6, [r8]
	.loc	17 853 32 is_stmt 0             @ ../GUILib/src/core/lv_indev.c:853:32
	ldrb	r0, [r6, #5]
.Ltmp489:
	.loc	17 853 16                       @ ../GUILib/src/core/lv_indev.c:853:16
	lsls	r0, r0, #28
	bmi.w	.LBB20_58
@ %bb.16:
.Ltmp490:
	@DEBUG_VALUE: indev_click_focus:proc <- [DW_OP_plus_uconst 4, DW_OP_stack_value] $r6
	.loc	17 996 24 is_stmt 1             @ ../GUILib/src/core/lv_indev.c:996:24
	ldr	r0, [r7]
	.loc	17 996 8 is_stmt 0              @ ../GUILib/src/core/lv_indev.c:996:8
	movs	r1, #4
	bl	lv_obj_has_flag
.Ltmp491:
	.loc	17 996 77                       @ ../GUILib/src/core/lv_indev.c:996:77
	cmp	r0, #0
	beq.w	.LBB20_45
.Ltmp492:
@ %bb.17:
	@DEBUG_VALUE: indev_click_focus:proc <- [DW_OP_plus_uconst 4, DW_OP_stack_value] $r6
	.loc	17 997 28 is_stmt 1             @ ../GUILib/src/core/lv_indev.c:997:28
	ldr	r1, [r6, #48]
	.loc	17 997 44 is_stmt 0             @ ../GUILib/src/core/lv_indev.c:997:44
	ldr	r0, [r7]
.Ltmp493:
	.loc	17 996 8 is_stmt 1              @ ../GUILib/src/core/lv_indev.c:996:8
	cmp	r1, r0
	beq.w	.LBB20_45
.Ltmp494:
@ %bb.18:
	@DEBUG_VALUE: indev_click_focus:proc <- [DW_OP_plus_uconst 4, DW_OP_stack_value] $r6
	.loc	17 1002 26                      @ ../GUILib/src/core/lv_indev.c:1002:26
	bl	lv_obj_get_group
.Ltmp495:
	.loc	17 1003 47                      @ ../GUILib/src/core/lv_indev.c:1003:47
	ldr	r1, [r6, #48]
	.loc	17 1002 26                      @ ../GUILib/src/core/lv_indev.c:1002:26
	mov	r5, r0
.Ltmp496:
	@DEBUG_VALUE: indev_click_focus:g_act <- $r5
	.loc	17 1003 27                      @ ../GUILib/src/core/lv_indev.c:1003:27
	cmp	r1, #0
	beq	.LBB20_39
.Ltmp497:
@ %bb.19:
	@DEBUG_VALUE: indev_click_focus:proc <- [DW_OP_plus_uconst 4, DW_OP_stack_value] $r6
	@DEBUG_VALUE: indev_click_focus:g_act <- $r5
	.loc	17 1003 62 is_stmt 0            @ ../GUILib/src/core/lv_indev.c:1003:62
	mov	r0, r1
	bl	lv_obj_get_group
.Ltmp498:
	@DEBUG_VALUE: indev_click_focus:g_prev <- $r0
	.loc	17 1006 8 is_stmt 1             @ ../GUILib/src/core/lv_indev.c:1006:8
	cmp	r0, r5
	beq	.LBB20_33
.Ltmp499:
@ %bb.20:
	@DEBUG_VALUE: indev_click_focus:proc <- [DW_OP_plus_uconst 4, DW_OP_stack_value] $r6
	@DEBUG_VALUE: indev_click_focus:g_act <- $r5
	@DEBUG_VALUE: indev_click_focus:g_prev <- $r0
	.loc	17 0 0 is_stmt 0                @ ../GUILib/src/core/lv_indev.c:0:0
	mov	r1, r0
.Ltmp500:
	@DEBUG_VALUE: indev_click_focus:g_prev <- $r1
	@DEBUG_VALUE: indev_click_focus:g_prev <- $r1
	ldr	r0, [r6, #48]
	.loc	17 1026 27 is_stmt 1            @ ../GUILib/src/core/lv_indev.c:1026:27
	cmp	r1, #0
	beq	.LBB20_36
.Ltmp501:
@ %bb.21:
	@DEBUG_VALUE: indev_click_focus:proc <- [DW_OP_plus_uconst 4, DW_OP_stack_value] $r6
	@DEBUG_VALUE: indev_click_focus:g_act <- $r5
	@DEBUG_VALUE: indev_click_focus:g_prev <- $r1
	.loc	17 1032 16                      @ ../GUILib/src/core/lv_indev.c:1032:16
	cmp	r0, #0
	beq	.LBB20_39
.Ltmp502:
@ %bb.22:
	@DEBUG_VALUE: indev_click_focus:proc <- [DW_OP_plus_uconst 4, DW_OP_stack_value] $r6
	@DEBUG_VALUE: indev_click_focus:g_act <- $r5
	@DEBUG_VALUE: indev_click_focus:g_prev <- $r1
	.loc	17 1040 85                      @ ../GUILib/src/core/lv_indev.c:1040:85
	ldr.w	r2, [r8]
	.loc	17 1040 21 is_stmt 0            @ ../GUILib/src/core/lv_indev.c:1040:21
	movs	r1, #16
.Ltmp503:
	.loc	17 0 21                         @ ../GUILib/src/core/lv_indev.c:0:21
	b	.LBB20_38
.Ltmp504:
.LBB20_23:
	.loc	17 874 8 is_stmt 1              @ ../GUILib/src/core/lv_indev.c:874:8
	movs	r0, #0
.Ltmp505:
.LBB20_24:
	.loc	17 863 64                       @ ../GUILib/src/core/lv_indev.c:863:64
	ldrh	r1, [r4, #4]
	.loc	17 863 99 is_stmt 0             @ ../GUILib/src/core/lv_indev.c:863:99
	ldrh	r2, [r4, #8]
	.loc	17 864 64 is_stmt 1             @ ../GUILib/src/core/lv_indev.c:864:64
	ldrh	r3, [r4, #6]
	.loc	17 864 99 is_stmt 0             @ ../GUILib/src/core/lv_indev.c:864:99
	ldrh	r6, [r4, #10]
	.loc	17 863 66 is_stmt 1             @ ../GUILib/src/core/lv_indev.c:863:66
	subs	r1, r1, r2
	sxth	r2, r1
	.loc	17 863 32 is_stmt 0             @ ../GUILib/src/core/lv_indev.c:863:32
	strh	r1, [r4, #16]
	.loc	17 864 66 is_stmt 1             @ ../GUILib/src/core/lv_indev.c:864:66
	subs	r1, r3, r6
	sxth	r3, r1
	.loc	17 864 32 is_stmt 0             @ ../GUILib/src/core/lv_indev.c:864:32
	strh	r1, [r4, #18]
	.loc	17 866 86 is_stmt 1             @ ../GUILib/src/core/lv_indev.c:866:86
	ldrsh.w	r1, [r4, #24]
	.loc	17 867 86                       @ ../GUILib/src/core/lv_indev.c:867:86
	ldrsh.w	r6, [r4, #26]
	.loc	17 866 93                       @ ../GUILib/src/core/lv_indev.c:866:93
	lsrs	r1, r1, #1
	.loc	17 867 93                       @ ../GUILib/src/core/lv_indev.c:867:93
	lsrs	r6, r6, #1
	.loc	17 869 45                       @ ../GUILib/src/core/lv_indev.c:869:45
	add.w	r1, r1, r2, lsr #1
	strh	r1, [r4, #24]
	.loc	17 870 45                       @ ../GUILib/src/core/lv_indev.c:870:45
	add.w	r1, r6, r3, lsr #1
	strh	r1, [r4, #26]
	.loc	17 872 69                       @ ../GUILib/src/core/lv_indev.c:872:69
	ldr	r1, [r4, #24]
	.loc	17 874 8                        @ ../GUILib/src/core/lv_indev.c:874:8
	cmp	r0, #0
	.loc	17 872 69                       @ ../GUILib/src/core/lv_indev.c:872:69
	str	r1, [r4, #28]
	.loc	17 874 8                        @ ../GUILib/src/core/lv_indev.c:874:8
	beq.w	.LBB20_58
@ %bb.25:
.Ltmp506:
	.loc	17 875 57                       @ ../GUILib/src/core/lv_indev.c:875:57
	ldr.w	r2, [r8]
	.loc	17 875 9 is_stmt 0              @ ../GUILib/src/core/lv_indev.c:875:9
	movs	r1, #2
	bl	lv_event_send
.Ltmp507:
	@DEBUG_VALUE: indev_reset_check:proc <- $r4
	.loc	17 1118 14 is_stmt 1            @ ../GUILib/src/core/lv_indev.c:1118:14
	ldrb	r0, [r4, #1]
.Ltmp508:
	.loc	17 1118 8 is_stmt 0             @ ../GUILib/src/core/lv_indev.c:1118:8
	lsls	r0, r0, #30
	bmi.w	.LBB20_68
.Ltmp509:
@ %bb.26:
	.loc	17 878 12 is_stmt 1             @ ../GUILib/src/core/lv_indev.c:878:12
	ldr.w	r0, [r8]
	.loc	17 878 28 is_stmt 0             @ ../GUILib/src/core/lv_indev.c:878:28
	ldrb	r0, [r0, #5]
.Ltmp510:
	.loc	17 878 12                       @ ../GUILib/src/core/lv_indev.c:878:12
	lsls	r0, r0, #28
	bmi.w	.LBB20_58
@ %bb.27:
	.loc	17 880 9 is_stmt 1              @ ../GUILib/src/core/lv_indev.c:880:9
	mov	r0, r4
	bl	_lv_indev_scroll_handler
.Ltmp511:
	@DEBUG_VALUE: indev_reset_check:proc <- $r4
	.loc	17 1118 14                      @ ../GUILib/src/core/lv_indev.c:1118:14
	ldrb	r0, [r4, #1]
.Ltmp512:
	.loc	17 1118 8 is_stmt 0             @ ../GUILib/src/core/lv_indev.c:1118:8
	lsls	r0, r0, #30
	bmi.w	.LBB20_68
.Ltmp513:
@ %bb.28:
	@DEBUG_VALUE: indev_gesture:proc <- $r4
	.loc	17 1066 28 is_stmt 1            @ ../GUILib/src/core/lv_indev.c:1066:28
	ldr	r0, [r4, #40]
.Ltmp514:
	.loc	17 1066 8 is_stmt 0             @ ../GUILib/src/core/lv_indev.c:1066:8
	cmp	r0, #0
	bne.w	.LBB20_56
.Ltmp515:
@ %bb.29:
	@DEBUG_VALUE: indev_gesture:proc <- $r4
	.loc	17 1067 28 is_stmt 1            @ ../GUILib/src/core/lv_indev.c:1067:28
	ldrb.w	r0, [r4, #61]
.Ltmp516:
	.loc	17 1067 8 is_stmt 0             @ ../GUILib/src/core/lv_indev.c:1067:8
	lsls	r0, r0, #31
	bne.w	.LBB20_56
.Ltmp517:
@ %bb.30:
	@DEBUG_VALUE: indev_gesture:proc <- $r4
	.loc	17 1069 50 is_stmt 1            @ ../GUILib/src/core/lv_indev.c:1069:50
	ldr	r5, [r4, #32]
.Ltmp518:
	@DEBUG_VALUE: indev_gesture:gesture_obj <- $r5
	.loc	17 1072 23                      @ ../GUILib/src/core/lv_indev.c:1072:23
	cmp	r5, #0
	beq.w	.LBB20_56
.Ltmp519:
.LBB20_31:                              @ =>This Inner Loop Header: Depth=1
	@DEBUG_VALUE: indev_gesture:gesture_obj <- $r5
	@DEBUG_VALUE: indev_gesture:proc <- $r4
	@DEBUG_VALUE: indev_gesture:gesture_obj <- $r5
	.loc	17 1072 26 is_stmt 0            @ ../GUILib/src/core/lv_indev.c:1072:26
	mov	r0, r5
	mov.w	r1, #8192
	bl	lv_obj_has_flag
.Ltmp520:
	.loc	17 1072 5                       @ ../GUILib/src/core/lv_indev.c:1072:5
	cbz	r0, .LBB20_47
.Ltmp521:
@ %bb.32:                               @   in Loop: Header=BB20_31 Depth=1
	@DEBUG_VALUE: indev_gesture:gesture_obj <- $r5
	@DEBUG_VALUE: indev_gesture:proc <- $r4
	.loc	17 1073 23 is_stmt 1            @ ../GUILib/src/core/lv_indev.c:1073:23
	mov	r0, r5
	bl	lv_obj_get_parent
.Ltmp522:
	mov	r5, r0
.Ltmp523:
	@DEBUG_VALUE: indev_gesture:gesture_obj <- $r5
	.loc	17 1072 23                      @ ../GUILib/src/core/lv_indev.c:1072:23
	cmp	r0, #0
	bne	.LBB20_31
	b	.LBB20_56
.Ltmp524:
.LBB20_33:
	@DEBUG_VALUE: indev_click_focus:proc <- [DW_OP_plus_uconst 4, DW_OP_stack_value] $r6
	@DEBUG_VALUE: indev_click_focus:g_act <- $r5
	@DEBUG_VALUE: indev_click_focus:g_prev <- $r0
	.loc	17 1008 12                      @ ../GUILib/src/core/lv_indev.c:1008:12
	cbnz	r5, .LBB20_40
.Ltmp525:
@ %bb.34:
	@DEBUG_VALUE: indev_click_focus:proc <- [DW_OP_plus_uconst 4, DW_OP_stack_value] $r6
	@DEBUG_VALUE: indev_click_focus:g_act <- $r5
	@DEBUG_VALUE: indev_click_focus:g_prev <- $r0
	.loc	17 1014 36                      @ ../GUILib/src/core/lv_indev.c:1014:36
	ldr	r0, [r6, #48]
.Ltmp526:
	.loc	17 1014 16 is_stmt 0            @ ../GUILib/src/core/lv_indev.c:1014:16
	cbz	r0, .LBB20_41
.Ltmp527:
@ %bb.35:
	@DEBUG_VALUE: indev_click_focus:proc <- [DW_OP_plus_uconst 4, DW_OP_stack_value] $r6
	@DEBUG_VALUE: indev_click_focus:g_act <- $r5
	.loc	17 1015 85 is_stmt 1            @ ../GUILib/src/core/lv_indev.c:1015:85
	ldr.w	r2, [r8]
	.loc	17 1015 17 is_stmt 0            @ ../GUILib/src/core/lv_indev.c:1015:17
	movs	r1, #15
	bl	lv_event_send
.Ltmp528:
	@DEBUG_VALUE: indev_reset_check:proc <- [DW_OP_plus_uconst 4, DW_OP_stack_value] $r6
	.loc	17 1118 14 is_stmt 1            @ ../GUILib/src/core/lv_indev.c:1118:14
	ldrb	r0, [r6, #5]
.Ltmp529:
	.loc	17 1118 8 is_stmt 0             @ ../GUILib/src/core/lv_indev.c:1118:8
	lsls	r0, r0, #30
	bpl	.LBB20_41
	b	.LBB20_44
.Ltmp530:
.LBB20_36:
	@DEBUG_VALUE: indev_click_focus:proc <- [DW_OP_plus_uconst 4, DW_OP_stack_value] $r6
	@DEBUG_VALUE: indev_click_focus:g_act <- $r5
	@DEBUG_VALUE: indev_click_focus:g_prev <- $r1
	.loc	17 1026 12 is_stmt 1            @ ../GUILib/src/core/lv_indev.c:1026:12
	cbz	r0, .LBB20_39
.Ltmp531:
@ %bb.37:
	@DEBUG_VALUE: indev_click_focus:proc <- [DW_OP_plus_uconst 4, DW_OP_stack_value] $r6
	@DEBUG_VALUE: indev_click_focus:g_act <- $r5
	@DEBUG_VALUE: indev_click_focus:g_prev <- $r1
	.loc	17 1027 81                      @ ../GUILib/src/core/lv_indev.c:1027:81
	ldr.w	r2, [r8]
	.loc	17 1027 13 is_stmt 0            @ ../GUILib/src/core/lv_indev.c:1027:13
	movs	r1, #15
.Ltmp532:
.LBB20_38:
	@DEBUG_VALUE: indev_click_focus:proc <- [DW_OP_plus_uconst 4, DW_OP_stack_value] $r6
	@DEBUG_VALUE: indev_click_focus:g_act <- $r5
	.loc	17 0 0                          @ ../GUILib/src/core/lv_indev.c:0:0
	bl	lv_event_send
.Ltmp533:
	@DEBUG_VALUE: indev_reset_check:proc <- [DW_OP_plus_uconst 4, DW_OP_stack_value] $r6
	ldrb	r0, [r6, #5]
	lsls	r0, r0, #30
	bmi	.LBB20_44
.Ltmp534:
.LBB20_39:
	@DEBUG_VALUE: indev_click_focus:proc <- [DW_OP_plus_uconst 4, DW_OP_stack_value] $r6
	@DEBUG_VALUE: indev_click_focus:g_act <- $r5
	@DEBUG_VALUE: indev_click_focus:g_act <- $r5
	cbz	r5, .LBB20_41
.Ltmp535:
.LBB20_40:
	@DEBUG_VALUE: indev_click_focus:proc <- [DW_OP_plus_uconst 4, DW_OP_stack_value] $r6
	@DEBUG_VALUE: indev_click_focus:g_act <- $r5
	ldr	r0, [r7]
	bl	lv_group_focus_obj
.Ltmp536:
	@DEBUG_VALUE: indev_reset_check:proc <- [DW_OP_plus_uconst 4, DW_OP_stack_value] $r6
	b	.LBB20_42
.Ltmp537:
.LBB20_41:
	@DEBUG_VALUE: indev_click_focus:proc <- [DW_OP_plus_uconst 4, DW_OP_stack_value] $r6
	@DEBUG_VALUE: indev_click_focus:g_act <- $r5
	ldr	r0, [r7]
	ldr.w	r2, [r8]
	movs	r1, #14
	bl	lv_event_send
.Ltmp538:
	@DEBUG_VALUE: indev_reset_check:proc <- [DW_OP_plus_uconst 4, DW_OP_stack_value] $r6
.LBB20_42:
	@DEBUG_VALUE: indev_click_focus:proc <- [DW_OP_plus_uconst 4, DW_OP_stack_value] $r6
	@DEBUG_VALUE: indev_click_focus:g_act <- $r5
	ldrb	r0, [r6, #5]
	lsls	r0, r0, #30
	bmi	.LBB20_44
.Ltmp539:
@ %bb.43:
	@DEBUG_VALUE: indev_click_focus:proc <- [DW_OP_plus_uconst 4, DW_OP_stack_value] $r6
	@DEBUG_VALUE: indev_click_focus:g_act <- $r5
	.loc	17 1056 40 is_stmt 1            @ ../GUILib/src/core/lv_indev.c:1056:40
	ldr	r0, [r7]
	.loc	17 1056 38 is_stmt 0            @ ../GUILib/src/core/lv_indev.c:1056:38
	str	r0, [r6, #48]
	b	.LBB20_45
.Ltmp540:
.LBB20_44:
	@DEBUG_VALUE: indev_click_focus:proc <- [DW_OP_plus_uconst 4, DW_OP_stack_value] $r6
	@DEBUG_VALUE: indev_click_focus:g_act <- $r5
	.loc	17 0 38                         @ ../GUILib/src/core/lv_indev.c:0:38
	movs	r0, #0
.Ltmp541:
	str	r0, [r7]
.Ltmp542:
.LBB20_45:
	@DEBUG_VALUE: indev_reset_check:proc <- $r4
	.loc	17 1118 14 is_stmt 1            @ ../GUILib/src/core/lv_indev.c:1118:14
	ldrb	r0, [r4, #1]
.Ltmp543:
	.loc	17 1118 8 is_stmt 0             @ ../GUILib/src/core/lv_indev.c:1118:8
	lsls	r0, r0, #30
	bmi.w	.LBB20_68
.Ltmp544:
@ %bb.46:
	.loc	17 874 8 is_stmt 1              @ ../GUILib/src/core/lv_indev.c:874:8
	ldr	r0, [r7]
	b	.LBB20_24
.LBB20_47:
.Ltmp545:
	@DEBUG_VALUE: indev_gesture:gesture_obj <- $r5
	@DEBUG_VALUE: indev_gesture:proc <- $r4
	.loc	17 1078 46                      @ ../GUILib/src/core/lv_indev.c:1078:46
	ldr.w	r2, [r8]
	.loc	17 1078 9 is_stmt 0             @ ../GUILib/src/core/lv_indev.c:1078:9
	ldrsh.w	r3, [r4, #16]
	.loc	17 1078 57                      @ ../GUILib/src/core/lv_indev.c:1078:57
	ldr	r0, [r2]
	.loc	17 1078 9                       @ ../GUILib/src/core/lv_indev.c:1078:9
	add.w	r6, r3, r3, asr #15
.Ltmp546:
	.loc	17 0 0                          @ ../GUILib/src/core/lv_indev.c:0:0
	ldrsh.w	r1, [r4, #18]
.Ltmp547:
	.loc	17 1078 9                       @ ../GUILib/src/core/lv_indev.c:1078:9
	uxth.w	r12, r3
	eor.w	r3, r6, r3, asr #15
	.loc	17 1078 65                      @ ../GUILib/src/core/lv_indev.c:1078:65
	ldrb	r6, [r0, #26]
	.loc	17 1078 9                       @ ../GUILib/src/core/lv_indev.c:1078:9
	uxth	r0, r3
	.loc	17 1078 87                      @ ../GUILib/src/core/lv_indev.c:1078:87
	cmp	r0, r6
.Ltmp548:
	.loc	17 0 0                          @ ../GUILib/src/core/lv_indev.c:0:0
	uxth	r3, r1
.Ltmp549:
	.loc	17 1078 87                      @ ../GUILib/src/core/lv_indev.c:1078:87
	bhs	.LBB20_49
.Ltmp550:
@ %bb.48:
	@DEBUG_VALUE: indev_gesture:gesture_obj <- $r5
	@DEBUG_VALUE: indev_gesture:proc <- $r4
	.loc	17 0 87                         @ ../GUILib/src/core/lv_indev.c:0:87
	add.w	r0, r1, r1, asr #15
	eor.w	r0, r0, r1, asr #15
	uxth	r0, r0
	.loc	17 1078 87                      @ ../GUILib/src/core/lv_indev.c:1078:87
	cmp	r0, r6
	itt	lo
	movlo	r0, #0
.Ltmp551:
	.loc	17 1080 43 is_stmt 1            @ ../GUILib/src/core/lv_indev.c:1080:43
	strlo	r0, [r4, #56]
.Ltmp552:
.LBB20_49:
	@DEBUG_VALUE: indev_gesture:gesture_obj <- $r5
	@DEBUG_VALUE: indev_gesture:proc <- $r4
	.loc	17 1085 39                      @ ../GUILib/src/core/lv_indev.c:1085:39
	ldrh	r0, [r4, #56]
	.loc	17 1086 39                      @ ../GUILib/src/core/lv_indev.c:1086:39
	ldrh	r6, [r4, #58]
	.loc	17 1085 39                      @ ../GUILib/src/core/lv_indev.c:1085:39
	add	r0, r12
	sxth	r1, r0
	.loc	17 1086 39                      @ ../GUILib/src/core/lv_indev.c:1086:39
	add	r3, r6
.Ltmp553:
	.loc	17 1088 9                       @ ../GUILib/src/core/lv_indev.c:1088:9
	cmp	r1, #0
	mov	lr, r1
.Ltmp554:
	.loc	17 1085 39                      @ ../GUILib/src/core/lv_indev.c:1085:39
	strh	r0, [r4, #56]
	.loc	17 1086 39                      @ ../GUILib/src/core/lv_indev.c:1086:39
	strh	r3, [r4, #58]
.Ltmp555:
	.loc	17 1088 9                       @ ../GUILib/src/core/lv_indev.c:1088:9
	bpl	.LBB20_51
.Ltmp556:
@ %bb.50:
	@DEBUG_VALUE: indev_gesture:gesture_obj <- $r5
	@DEBUG_VALUE: indev_gesture:proc <- $r4
	rsb.w	lr, r1, #0
.Ltmp557:
.LBB20_51:
	@DEBUG_VALUE: indev_gesture:gesture_obj <- $r5
	@DEBUG_VALUE: indev_gesture:proc <- $r4
	.loc	17 1088 64 is_stmt 0            @ ../GUILib/src/core/lv_indev.c:1088:64
	ldr	r6, [r2]
.Ltmp558:
	.loc	17 0 0                          @ ../GUILib/src/core/lv_indev.c:0:0
	sxth	r3, r3
.Ltmp559:
	.loc	17 1088 72                      @ ../GUILib/src/core/lv_indev.c:1088:72
	ldrb	r6, [r6, #27]
	.loc	17 1088 87                      @ ../GUILib/src/core/lv_indev.c:1088:87
	cmp	lr, r6
	bgt	.LBB20_53
.Ltmp560:
@ %bb.52:
	@DEBUG_VALUE: indev_gesture:gesture_obj <- $r5
	@DEBUG_VALUE: indev_gesture:proc <- $r4
	.loc	17 1089 9 is_stmt 1             @ ../GUILib/src/core/lv_indev.c:1089:9
	add.w	r0, r3, r3, asr #15
	eor.w	r0, r0, r3, asr #15
	uxth	r0, r0
.Ltmp561:
	.loc	17 1088 8                       @ ../GUILib/src/core/lv_indev.c:1088:8
	cmp	r0, r6
	bls	.LBB20_56
.Ltmp562:
.LBB20_53:
	@DEBUG_VALUE: indev_gesture:gesture_obj <- $r5
	@DEBUG_VALUE: indev_gesture:proc <- $r4
	.loc	17 1091 42                      @ ../GUILib/src/core/lv_indev.c:1091:42
	ldrb.w	r0, [r4, #61]
.Ltmp563:
	.loc	17 0 0 is_stmt 0                @ ../GUILib/src/core/lv_indev.c:0:0
	ldrb.w	r12, [r4, #60]
.Ltmp564:
	.loc	17 1091 42                      @ ../GUILib/src/core/lv_indev.c:1091:42
	orr	r0, r0, #1
.Ltmp565:
	.loc	17 1093 56 is_stmt 1            @ ../GUILib/src/core/lv_indev.c:1093:56
	cmp	r3, #0
	mov	r6, r3
.Ltmp566:
	.loc	17 1091 42                      @ ../GUILib/src/core/lv_indev.c:1091:42
	strb.w	r0, [r4, #61]
.Ltmp567:
	.loc	17 1093 56                      @ ../GUILib/src/core/lv_indev.c:1093:56
	bpl	.LBB20_55
.Ltmp568:
@ %bb.54:
	@DEBUG_VALUE: indev_gesture:gesture_obj <- $r5
	@DEBUG_VALUE: indev_gesture:proc <- $r4
	rsbs	r6, r3, #0
.Ltmp569:
.LBB20_55:
	@DEBUG_VALUE: indev_gesture:gesture_obj <- $r5
	@DEBUG_VALUE: indev_gesture:proc <- $r4
	.loc	17 0 56 is_stmt 0               @ ../GUILib/src/core/lv_indev.c:0:56
	movs	r0, #16
	.loc	17 1093 12                      @ ../GUILib/src/core/lv_indev.c:1093:12
	cmp	r1, #0
	mov.w	r1, #64
.Ltmp570:
	.loc	17 0 0                          @ ../GUILib/src/core/lv_indev.c:0:0
	and	r12, r12, #15
.Ltmp571:
	.loc	17 1093 12                      @ ../GUILib/src/core/lv_indev.c:1093:12
	it	gt
	movgt	r0, #32
	cmp	r3, #0
	it	gt
	mvngt	r1, #127
	cmp	lr, r6
	it	gt
	movgt	r1, r0
.Ltmp572:
	.loc	17 0 0                          @ ../GUILib/src/core/lv_indev.c:0:0
	add.w	r0, r12, r1
	strb.w	r0, [r4, #60]
.Ltmp573:
	.loc	17 1106 9 is_stmt 1             @ ../GUILib/src/core/lv_indev.c:1106:9
	mov	r0, r5
	movs	r1, #12
	bl	lv_event_send
.Ltmp574:
	@DEBUG_VALUE: indev_reset_check:proc <- $r4
	.loc	17 1118 14                      @ ../GUILib/src/core/lv_indev.c:1118:14
	ldrb	r0, [r4, #1]
.Ltmp575:
	.loc	17 1118 8 is_stmt 0             @ ../GUILib/src/core/lv_indev.c:1118:8
	lsls	r0, r0, #30
	itt	mi
	movmi	r0, #0
.Ltmp576:
	.loc	17 1119 23 is_stmt 1            @ ../GUILib/src/core/lv_indev.c:1119:23
	strmi	r0, [r7]
.Ltmp577:
.LBB20_56:
	@DEBUG_VALUE: indev_reset_check:proc <- $r4
	.loc	17 1118 14                      @ ../GUILib/src/core/lv_indev.c:1118:14
	ldrb	r0, [r4, #1]
.Ltmp578:
	.loc	17 1118 8 is_stmt 0             @ ../GUILib/src/core/lv_indev.c:1118:8
	lsls	r1, r0, #30
	bmi	.LBB20_68
.Ltmp579:
@ %bb.57:
	.loc	17 886 32 is_stmt 1             @ ../GUILib/src/core/lv_indev.c:886:32
	ldr	r1, [r4, #40]
	.loc	17 886 51 is_stmt 0             @ ../GUILib/src/core/lv_indev.c:886:51
	cbz	r1, .LBB20_59
.Ltmp580:
.LBB20_58:
	.loc	17 910 1 is_stmt 1              @ ../GUILib/src/core/lv_indev.c:910:1
	pop.w	{r4, r5, r6, r7, r8, pc}
.LBB20_59:
.Ltmp581:
	.loc	17 886 12                       @ ../GUILib/src/core/lv_indev.c:886:12
	lsls	r0, r0, #31
	bne	.LBB20_65
@ %bb.60:
.Ltmp582:
	.loc	17 888 36                       @ ../GUILib/src/core/lv_indev.c:888:36
	ldr	r0, [r4, #64]
	.loc	17 888 16 is_stmt 0             @ ../GUILib/src/core/lv_indev.c:888:16
	bl	lv_tick_elaps
.Ltmp583:
	.loc	17 888 52                       @ ../GUILib/src/core/lv_indev.c:888:52
	ldr.w	r2, [r8]
	.loc	17 888 63                       @ ../GUILib/src/core/lv_indev.c:888:63
	ldr	r1, [r2]
	.loc	17 888 71                       @ ../GUILib/src/core/lv_indev.c:888:71
	ldrh	r1, [r1, #28]
.Ltmp584:
	.loc	17 888 16                       @ ../GUILib/src/core/lv_indev.c:888:16
	cmp	r0, r1
	bls	.LBB20_63
@ %bb.61:
.Ltmp585:
	.loc	17 889 31 is_stmt 1             @ ../GUILib/src/core/lv_indev.c:889:31
	ldr	r0, [r7]
	.loc	17 889 17 is_stmt 0             @ ../GUILib/src/core/lv_indev.c:889:17
	movs	r1, #5
	bl	lv_event_send
.Ltmp586:
	@DEBUG_VALUE: indev_reset_check:proc <- $r4
	.loc	17 1118 14 is_stmt 1            @ ../GUILib/src/core/lv_indev.c:1118:14
	ldrb	r0, [r4, #1]
.Ltmp587:
	.loc	17 1118 8 is_stmt 0             @ ../GUILib/src/core/lv_indev.c:1118:8
	lsls	r1, r0, #30
	bmi	.LBB20_68
.Ltmp588:
@ %bb.62:
	.loc	17 893 36 is_stmt 1             @ ../GUILib/src/core/lv_indev.c:893:36
	orr	r0, r0, #1
	strb	r0, [r4, #1]
	.loc	17 896 46                       @ ../GUILib/src/core/lv_indev.c:896:46
	bl	lv_tick_get
.Ltmp589:
	.loc	17 896 44 is_stmt 0             @ ../GUILib/src/core/lv_indev.c:896:44
	str	r0, [r4, #68]
.Ltmp590:
.LBB20_63:
	.loc	17 901 32 is_stmt 1             @ ../GUILib/src/core/lv_indev.c:901:32
	ldr	r0, [r4, #40]
	.loc	17 901 51 is_stmt 0             @ ../GUILib/src/core/lv_indev.c:901:51
	cmp	r0, #0
	bne	.LBB20_58
@ %bb.64:
	.loc	17 901 60                       @ ../GUILib/src/core/lv_indev.c:901:60
	ldrb	r0, [r4, #1]
.Ltmp591:
	.loc	17 901 12                       @ ../GUILib/src/core/lv_indev.c:901:12
	lsls	r0, r0, #31
	beq	.LBB20_58
.LBB20_65:
.Ltmp592:
	.loc	17 903 36 is_stmt 1             @ ../GUILib/src/core/lv_indev.c:903:36
	ldr	r0, [r4, #68]
	.loc	17 903 16 is_stmt 0             @ ../GUILib/src/core/lv_indev.c:903:16
	bl	lv_tick_elaps
.Ltmp593:
	.loc	17 903 60                       @ ../GUILib/src/core/lv_indev.c:903:60
	ldr.w	r2, [r8]
	.loc	17 903 71                       @ ../GUILib/src/core/lv_indev.c:903:71
	ldr	r1, [r2]
	.loc	17 903 79                       @ ../GUILib/src/core/lv_indev.c:903:79
	ldrh	r1, [r1, #30]
.Ltmp594:
	.loc	17 903 16                       @ ../GUILib/src/core/lv_indev.c:903:16
	cmp	r0, r1
.Ltmp595:
	.loc	17 910 1 is_stmt 1              @ ../GUILib/src/core/lv_indev.c:910:1
	it	ls
	popls.w	{r4, r5, r6, r7, r8, pc}
.LBB20_66:
.Ltmp596:
	.loc	17 904 31                       @ ../GUILib/src/core/lv_indev.c:904:31
	ldr	r0, [r7]
	.loc	17 904 17 is_stmt 0             @ ../GUILib/src/core/lv_indev.c:904:17
	movs	r1, #6
	bl	lv_event_send
.Ltmp597:
	@DEBUG_VALUE: indev_reset_check:proc <- $r4
	.loc	17 1118 14 is_stmt 1            @ ../GUILib/src/core/lv_indev.c:1118:14
	ldrb	r0, [r4, #1]
.Ltmp598:
	.loc	17 1118 8 is_stmt 0             @ ../GUILib/src/core/lv_indev.c:1118:8
	lsls	r0, r0, #30
	bmi	.LBB20_68
.Ltmp599:
@ %bb.67:
	.loc	17 906 46 is_stmt 1             @ ../GUILib/src/core/lv_indev.c:906:46
	bl	lv_tick_get
.Ltmp600:
	.loc	17 906 44 is_stmt 0             @ ../GUILib/src/core/lv_indev.c:906:44
	str	r0, [r4, #68]
.Ltmp601:
	.loc	17 910 1 is_stmt 1              @ ../GUILib/src/core/lv_indev.c:910:1
	pop.w	{r4, r5, r6, r7, r8, pc}
.LBB20_68:
	.loc	17 0 1 is_stmt 0                @ ../GUILib/src/core/lv_indev.c:0:1
	movs	r0, #0
	str	r0, [r7]
	.loc	17 910 1                        @ ../GUILib/src/core/lv_indev.c:910:1
	pop.w	{r4, r5, r6, r7, r8, pc}
.Ltmp602:
.Lfunc_end20:
	.size	indev_proc_press, .Lfunc_end20-indev_proc_press
	.cfi_endproc
	.cantunwind
	.fnend
                                        @ -- End function
	.section	.text.indev_proc_release,"ax",%progbits
	.p2align	1                               @ -- Begin function indev_proc_release
	.type	indev_proc_release,%function
	.code	16                              @ @indev_proc_release
	.thumb_func
indev_proc_release:
.Lfunc_begin21:
	.loc	17 917 0 is_stmt 1              @ ../GUILib/src/core/lv_indev.c:917:0
	.fnstart
	.cfi_startproc
@ %bb.0:
	@DEBUG_VALUE: indev_proc_release:proc <- $r0
	.save	{r4, r5, r6, r7, lr}
	push	{r4, r5, r6, r7, lr}
	.cfi_def_cfa_offset 20
	.cfi_offset lr, -4
	.cfi_offset r7, -8
	.cfi_offset r6, -12
	.cfi_offset r5, -16
	.cfi_offset r4, -20
	.pad	#4
	sub	sp, #4
	.cfi_def_cfa_offset 24
	mov	r4, r0
.Ltmp603:
	@DEBUG_VALUE: indev_proc_release:proc <- $r4
	.loc	17 918 14 prologue_end          @ ../GUILib/src/core/lv_indev.c:918:14
	ldrb	r0, [r0, #1]
.Ltmp604:
	.loc	17 918 8 is_stmt 0              @ ../GUILib/src/core/lv_indev.c:918:8
	lsls	r1, r0, #28
	bmi	.LBB21_5
.Ltmp605:
@ %bb.1:
	@DEBUG_VALUE: indev_proc_release:proc <- $r4
	.loc	17 925 41 is_stmt 1             @ ../GUILib/src/core/lv_indev.c:925:41
	ldr	r0, [r4, #32]
	.loc	17 926 49                       @ ../GUILib/src/core/lv_indev.c:926:49
	ldr	r5, [r4, #40]
.Ltmp606:
	@DEBUG_VALUE: indev_proc_release:scroll_obj <- $r5
	.loc	17 925 19                       @ ../GUILib/src/core/lv_indev.c:925:19
	movw	r6, :lower16:indev_obj_act
	movt	r6, :upper16:indev_obj_act
	str	r0, [r6]
	.loc	17 929 8                        @ ../GUILib/src/core/lv_indev.c:929:8
	cbz	r0, .LBB21_6
.Ltmp607:
@ %bb.2:
	@DEBUG_VALUE: indev_proc_release:scroll_obj <- $r5
	@DEBUG_VALUE: indev_proc_release:proc <- $r4
	.loc	17 933 57                       @ ../GUILib/src/core/lv_indev.c:933:57
	movw	r7, :lower16:indev_act
	movt	r7, :upper16:indev_act
	ldr	r2, [r7]
	.loc	17 933 9 is_stmt 0              @ ../GUILib/src/core/lv_indev.c:933:9
	movs	r1, #8
	bl	lv_event_send
.Ltmp608:
	@DEBUG_VALUE: indev_reset_check:proc <- $r4
	.loc	17 1118 14 is_stmt 1            @ ../GUILib/src/core/lv_indev.c:1118:14
	ldrb	r0, [r4, #1]
.Ltmp609:
	.loc	17 1118 8 is_stmt 0             @ ../GUILib/src/core/lv_indev.c:1118:8
	lsls	r1, r0, #30
	bmi	.LBB21_12
.Ltmp610:
@ %bb.3:
	@DEBUG_VALUE: indev_proc_release:scroll_obj <- $r5
	@DEBUG_VALUE: indev_proc_release:proc <- $r4
	.loc	17 937 12 is_stmt 1             @ ../GUILib/src/core/lv_indev.c:937:12
	cbz	r5, .LBB21_9
.Ltmp611:
.LBB21_4:
	@DEBUG_VALUE: indev_proc_release:scroll_obj <- $r5
	@DEBUG_VALUE: indev_proc_release:proc <- $r4
	.loc	17 0 12 is_stmt 0               @ ../GUILib/src/core/lv_indev.c:0:12
	movs	r0, #0
	.loc	17 947 37 is_stmt 1             @ ../GUILib/src/core/lv_indev.c:947:37
	str	r0, [r4, #32]
	.loc	17 948 37                       @ ../GUILib/src/core/lv_indev.c:948:37
	strd	r0, r0, [r4, #64]
	b	.LBB21_6
.Ltmp612:
.LBB21_5:
	@DEBUG_VALUE: indev_proc_release:proc <- $r4
	.loc	17 923 38                       @ ../GUILib/src/core/lv_indev.c:923:38
	and	r0, r0, #247
	strb	r0, [r4, #1]
.Ltmp613:
	.loc	17 925 19                       @ ../GUILib/src/core/lv_indev.c:925:19
	movw	r0, :lower16:indev_obj_act
	movs	r1, #0
	movt	r0, :upper16:indev_obj_act
	.loc	17 926 49                       @ ../GUILib/src/core/lv_indev.c:926:49
	ldr	r5, [r4, #40]
.Ltmp614:
	.loc	17 919 38                       @ ../GUILib/src/core/lv_indev.c:919:38
	strd	r1, r1, [r4, #32]
	.loc	17 921 38                       @ ../GUILib/src/core/lv_indev.c:921:38
	str	r1, [r4, #64]
.Ltmp615:
	.loc	17 925 19                       @ ../GUILib/src/core/lv_indev.c:925:19
	str	r1, [r0]
.Ltmp616:
	.loc	17 922 38                       @ ../GUILib/src/core/lv_indev.c:922:38
	str	r1, [r4, #68]
.Ltmp617:
.LBB21_6:
	@DEBUG_VALUE: indev_proc_release:proc <- $r4
	.loc	17 955 8                        @ ../GUILib/src/core/lv_indev.c:955:8
	cbz	r5, .LBB21_13
.Ltmp618:
@ %bb.7:
	@DEBUG_VALUE: indev_proc_release:proc <- $r4
	.loc	17 956 9                        @ ../GUILib/src/core/lv_indev.c:956:9
	mov	r0, r4
	bl	_lv_indev_scroll_throw_handler
.Ltmp619:
	@DEBUG_VALUE: indev_reset_check:proc <- $r4
	.loc	17 1118 14                      @ ../GUILib/src/core/lv_indev.c:1118:14
	ldrb	r0, [r4, #1]
.Ltmp620:
	.loc	17 1118 8 is_stmt 0             @ ../GUILib/src/core/lv_indev.c:1118:8
	lsls	r0, r0, #30
	bpl	.LBB21_13
.Ltmp621:
@ %bb.8:
	@DEBUG_VALUE: indev_reset_check:proc <- $r4
	@DEBUG_VALUE: indev_proc_release:proc <- $r4
	.loc	17 1119 23 is_stmt 1            @ ../GUILib/src/core/lv_indev.c:1119:23
	movw	r0, :lower16:indev_obj_act
	movt	r0, :upper16:indev_obj_act
	movs	r1, #0
	str	r1, [r0]
	b	.LBB21_13
.Ltmp622:
.LBB21_9:
	@DEBUG_VALUE: indev_proc_release:scroll_obj <- $r5
	@DEBUG_VALUE: indev_proc_release:proc <- $r4
	.loc	17 938 16                       @ ../GUILib/src/core/lv_indev.c:938:16
	lsls	r0, r0, #31
	bne	.LBB21_11
.Ltmp623:
@ %bb.10:
	@DEBUG_VALUE: indev_proc_release:scroll_obj <- $r5
	@DEBUG_VALUE: indev_proc_release:proc <- $r4
	.loc	17 939 31                       @ ../GUILib/src/core/lv_indev.c:939:31
	ldr	r0, [r6]
	.loc	17 939 70 is_stmt 0             @ ../GUILib/src/core/lv_indev.c:939:70
	ldr	r2, [r7]
	.loc	17 939 17                       @ ../GUILib/src/core/lv_indev.c:939:17
	movs	r1, #4
	bl	lv_event_send
.Ltmp624:
	@DEBUG_VALUE: indev_reset_check:proc <- $r4
	.loc	17 1118 14 is_stmt 1            @ ../GUILib/src/core/lv_indev.c:1118:14
	ldrb	r0, [r4, #1]
.Ltmp625:
	.loc	17 1118 8 is_stmt 0             @ ../GUILib/src/core/lv_indev.c:1118:8
	lsls	r0, r0, #30
	bmi	.LBB21_12
.Ltmp626:
.LBB21_11:
	@DEBUG_VALUE: indev_proc_release:scroll_obj <- $r5
	@DEBUG_VALUE: indev_proc_release:proc <- $r4
	.loc	17 943 27 is_stmt 1             @ ../GUILib/src/core/lv_indev.c:943:27
	ldr	r0, [r6]
	.loc	17 943 60 is_stmt 0             @ ../GUILib/src/core/lv_indev.c:943:60
	ldr	r2, [r7]
	.loc	17 943 13                       @ ../GUILib/src/core/lv_indev.c:943:13
	movs	r1, #7
	bl	lv_event_send
.Ltmp627:
	@DEBUG_VALUE: indev_reset_check:proc <- $r4
	.loc	17 1118 14 is_stmt 1            @ ../GUILib/src/core/lv_indev.c:1118:14
	ldrb	r0, [r4, #1]
.Ltmp628:
	.loc	17 1118 8 is_stmt 0             @ ../GUILib/src/core/lv_indev.c:1118:8
	lsls	r0, r0, #30
	bpl	.LBB21_4
.Ltmp629:
.LBB21_12:
	@DEBUG_VALUE: indev_proc_release:scroll_obj <- $r5
	@DEBUG_VALUE: indev_proc_release:proc <- $r4
	.loc	17 0 8                          @ ../GUILib/src/core/lv_indev.c:0:8
	movs	r0, #0
	str	r0, [r6]
.Ltmp630:
.LBB21_13:
	@DEBUG_VALUE: indev_proc_release:proc <- $r4
	.loc	17 957 12 is_stmt 1             @ ../GUILib/src/core/lv_indev.c:957:12
	add	sp, #4
	pop	{r4, r5, r6, r7, pc}
.Ltmp631:
.Lfunc_end21:
	.size	indev_proc_release, .Lfunc_end21-indev_proc_release
	.cfi_endproc
	.cantunwind
	.fnend
                                        @ -- End function
	.type	indev_act,%object               @ @indev_act
	.section	.bss.indev_act,"aw",%nobits
	.p2align	2
indev_act:
	.long	0
	.size	indev_act, 4

	.type	indev_obj_act,%object           @ @indev_obj_act
	.section	.bss.indev_obj_act,"aw",%nobits
	.p2align	2
indev_obj_act:
	.long	0
	.size	indev_obj_act, 4

	.section	".note.GNU-stack","",%progbits
	.eabi_attribute	30, 3	@ Tag_ABI_optimization_goals
	.ARM_attribute	16, 1	@ Tag_AV_eba