	.text
	.syntax unified
	.eabi_attribute	67, "2.09"	@ Tag_conformance
	.cpu	cortex-m4
	.eabi_attribute	6, 13	@ Tag_CPU_arch
	.eabi_attribute	7, 77	@ Tag_CPU_arch_profile
	.eabi_attribute	8, 0	@ Tag_ARM_ISA_use
	.eabi_attribute	9, 2	@ Tag_THUMB_ISA_use
	.fpu	fpv4-sp-d16
	.eabi_attribute	27, 1	@ Tag_ABI_HardFP_use
	.eabi_attribute	36, 1	@ Tag_FP_HP_extension
	.eabi_attribute	34, 1	@ Tag_CPU_unaligned_access
	.eabi_attribute	17, 1	@ Tag_ABI_PCS_GOT_use
	.eabi_attribute	20, 2	@ Tag_ABI_FP_denormal
	.eabi_attribute	21, 0	@ Tag_ABI_FP_exceptions
	.eabi_attribute	23, 1	@ Tag_ABI_FP_number_model
	.eabi_attribute	24, 1	@ Tag_ABI_align_needed
	.eabi_attribute	25, 1	@ Tag_ABI_align_preserved
	.eabi_attribute	28, 1	@ Tag_ABI_VFP_args
	.eabi_attribute	38, 1	@ Tag_ABI_FP_16bit_format
	.eabi_attribute	18, 2	@ Tag_ABI_PCS_wchar_t
	.eabi_attribute	26, 1	@ Tag_ABI_enum_size
	.eabi_attribute	14, 0	@ Tag_ABI_PCS_R9_use
	.file	"lv_label.c"
	.file	1 "C:\\Users\\Hyacincher\\Desktop\\HyTelectrl\\Code\\Project" "../GUILib/src/widgets/../core/lv_obj_class.h"
	.file	2 "C:\\Users\\Hyacincher\\Desktop\\HyTelectrl\\Code\\Project" "../GUILib/src/widgets/../core/lv_obj.h"
	.file	3 "D:\\Keil MDK\\ARM\\ARMCLANG\\Bin\\..\\include" "stdint.h"
	.file	4 "C:\\Users\\Hyacincher\\Desktop\\HyTelectrl\\Code\\Project" "../GUILib/src/widgets/../core/../misc/lv_ll.h"
	.file	5 "C:\\Users\\Hyacincher\\Desktop\\HyTelectrl\\Code\\Project" "../GUILib/src/widgets/../core/lv_group.h"
	.file	6 "C:\\Users\\Hyacincher\\Desktop\\HyTelectrl\\Code\\Project" "../GUILib/src/hal/../misc/lv_area.h"
	.file	7 "C:\\Users\\Hyacincher\\Desktop\\HyTelectrl\\Code\\Project" "../GUILib/src/widgets/../core/lv_obj_scroll.h"
	.file	8 "C:\\Users\\Hyacincher\\Desktop\\HyTelectrl\\Code\\Project" "../GUILib/src/hal/../draw/../misc/lv_style.h"
	.file	9 "C:\\Users\\Hyacincher\\Desktop\\HyTelectrl\\Code\\Project" "../GUILib/src/widgets/../misc/lv_color.h"
	.file	10 "C:\\Users\\Hyacincher\\Desktop\\HyTelectrl\\Code\\Project" "../GUILib/src/widgets/../core/lv_obj_style.h"
	.file	11 "C:\\Users\\Hyacincher\\Desktop\\HyTelectrl\\Code\\Project" "../GUILib/src/widgets/../core/lv_event.h"
	.file	12 "C:\\Users\\Hyacincher\\Desktop\\HyTelectrl\\Code\\Project" "../GUILib/src/widgets/lv_label.c"
	.file	13 "C:\\Users\\Hyacincher\\Desktop\\HyTelectrl\\Code\\Project" "../GUILib/src/widgets/lv_label.h"
	.file	14 "C:\\Users\\Hyacincher\\Desktop\\HyTelectrl\\Code\\Project" "../GUILib/src/widgets/../misc/lv_txt.h"
	.file	15 "C:\\Users\\Hyacincher\\Desktop\\HyTelectrl\\Code\\Project" "../GUILib/src/hal/../draw/../misc/lv_types.h"
	.file	16 "C:\\Users\\Hyacincher\\Desktop\\HyTelectrl\\Code\\Project" "../GUILib/src/hal/../draw/lv_draw_label.h"
	.file	17 "C:\\Users\\Hyacincher\\Desktop\\HyTelectrl\\Code\\Project" "../GUILib/src/widgets/../font/lv_font.h"
	.section	.text.lv_label_constructor,"ax",%progbits
	.p2align	2                               @ -- Begin function lv_label_constructor
	.type	lv_label_constructor,%function
	.code	16                              @ @lv_label_constructor
	.thumb_func
lv_label_constructor:
.Lfunc_begin0:
	.loc	12 689 0                        @ ../GUILib/src/widgets/lv_label.c:689:0
	.fnstart
	.cfi_sections .debug_frame
	.cfi_startproc
@ %bb.0:
	@DEBUG_VALUE: lv_label_constructor:class_p <- $r0
	@DEBUG_VALUE: lv_label_constructor:obj <- $r1
	.save	{r4, lr}
	push	{r4, lr}
	.cfi_def_cfa_offset 8
	.cfi_offset lr, -4
	.cfi_offset r4, -8
.Ltmp0:
	@DEBUG_VALUE: lv_label_constructor:label <- $r1
	mov	r4, r1
.Ltmp1:
	.loc	12 696 23 prologue_end          @ ../GUILib/src/widgets/lv_label.c:696:23
	ldrb.w	r1, [r1, #72]
.Ltmp2:
	@DEBUG_VALUE: lv_label_constructor:obj <- [DW_OP_LLVM_entry_value 1] $r1
	.loc	12 0 23 is_stmt 0               @ ../GUILib/src/widgets/lv_label.c:0:23
	movs	r0, #0
.Ltmp3:
	@DEBUG_VALUE: lv_label_constructor:class_p <- [DW_OP_LLVM_entry_value 1] $r0
	@DEBUG_VALUE: lv_label_constructor:label <- $r4
	@DEBUG_VALUE: lv_label_constructor:obj <- $r4
	.loc	12 700 21 is_stmt 1             @ ../GUILib/src/widgets/lv_label.c:700:21
	str	r0, [r4, #68]
	.loc	12 695 23                       @ ../GUILib/src/widgets/lv_label.c:695:23
	strd	r0, r0, [r4, #36]
	.loc	12 706 28                       @ ../GUILib/src/widgets/lv_label.c:706:28
	strd	r0, r0, [r4, #52]
	.loc	12 714 26                       @ ../GUILib/src/widgets/lv_label.c:714:26
	and	r0, r1, #160
	mov.w	r2, #-1
	movw	r3, #65535
	strb.w	r0, [r4, #72]
	.loc	12 716 5                        @ ../GUILib/src/widgets/lv_label.c:716:5
	mov	r0, r4
	movs	r1, #2
	.loc	12 698 23                       @ ../GUILib/src/widgets/lv_label.c:698:23
	strd	r2, r2, [r4, #44]
	.loc	12 710 22                       @ ../GUILib/src/widgets/lv_label.c:710:22
	strd	r3, r3, [r4, #60]
	.loc	12 716 5                        @ ../GUILib/src/widgets/lv_label.c:716:5
	bl	lv_obj_clear_flag
.Ltmp4:
	.loc	12 717 5                        @ ../GUILib/src/widgets/lv_label.c:717:5
	mov	r0, r4
	movs	r1, #0
	bl	lv_label_set_long_mode
.Ltmp5:
	.loc	12 718 5                        @ ../GUILib/src/widgets/lv_label.c:718:5
	adr	r1, .LCPI0_0
	mov	r0, r4
	pop.w	{r4, lr}
.Ltmp6:
	b	lv_label_set_text
.Ltmp7:
	.p2align	2
@ %bb.1:
	.loc	12 0 5 is_stmt 0                @ ../GUILib/src/widgets/lv_label.c:0:5
.LCPI0_0:
.L.str:
	.asciz	"Text\000\000\000"
.Lfunc_end0:
	.size	lv_label_constructor, .Lfunc_end0-lv_label_constructor
	.cfi_endproc
	.cantunwind
	.fnend
                                        @ -- End function
	.section	.text.lv_label_destructor,"ax",%progbits
	.p2align	1                               @ -- Begin function lv_label_destructor
	.type	lv_label_destructor,%function
	.code	16                              @ @lv_label_destructor
	.thumb_func
lv_label_destructor:
.Lfunc_begin1:
	.loc	12 725 0 is_stmt 1              @ ../GUILib/src/widgets/lv_label.c:725:0
	.fnstart
	.cfi_startproc
@ %bb.0:
	@DEBUG_VALUE: lv_label_destructor:class_p <- $r0
	@DEBUG_VALUE: lv_label_destructor:obj <- $r1
	.save	{r4, lr}
	push	{r4, lr}
	.cfi_def_cfa_offset 8
	.cfi_offset lr, -4
	.cfi_offset r4, -8
.Ltmp8:
	@DEBUG_VALUE: lv_label_destructor:label <- $r1
	.loc	12 729 5 prologue_end           @ ../GUILib/src/widgets/lv_label.c:729:5
	mov	r0, r1
.Ltmp9:
	@DEBUG_VALUE: lv_label_destructor:class_p <- [DW_OP_LLVM_entry_value 1] $r0
	.loc	12 0 5 is_stmt 0                @ ../GUILib/src/widgets/lv_label.c:0:5
	mov	r4, r1
.Ltmp10:
	@DEBUG_VALUE: lv_label_destructor:obj <- $r4
	@DEBUG_VALUE: lv_label_destructor:label <- $r4
	@DEBUG_VALUE: lv_label_destructor:obj <- $r4
	.loc	12 729 5                        @ ../GUILib/src/widgets/lv_label.c:729:5
	bl	lv_label_dot_tmp_free
.Ltmp11:
	.loc	12 730 16 is_stmt 1             @ ../GUILib/src/widgets/lv_label.c:730:16
	ldrb.w	r0, [r4, #72]
.Ltmp12:
	.loc	12 730 8 is_stmt 0              @ ../GUILib/src/widgets/lv_label.c:730:8
	lsls	r0, r0, #28
	bmi	.LBB1_2
.Ltmp13:
@ %bb.1:
	@DEBUG_VALUE: lv_label_destructor:label <- $r4
	@DEBUG_VALUE: lv_label_destructor:obj <- $r4
	@DEBUG_VALUE: lv_label_destructor:class_p <- [DW_OP_LLVM_entry_value 1] $r0
	.loc	12 730 47                       @ ../GUILib/src/widgets/lv_label.c:730:47
	ldr	r0, [r4, #36]
	.loc	12 730 28                       @ ../GUILib/src/widgets/lv_label.c:730:28
	bl	lv_mem_free
.Ltmp14:
.LBB1_2:
	@DEBUG_VALUE: lv_label_destructor:label <- $r4
	@DEBUG_VALUE: lv_label_destructor:obj <- $r4
	@DEBUG_VALUE: lv_label_destructor:class_p <- [DW_OP_LLVM_entry_value 1] $r0
	@DEBUG_VALUE: lv_label_destructor:label <- $r4
	.loc	12 0 28                         @ ../GUILib/src/widgets/lv_label.c:0:28
	movs	r0, #0
	.loc	12 731 17 is_stmt 1             @ ../GUILib/src/widgets/lv_label.c:731:17
	str	r0, [r4, #36]
	.loc	12 732 1                        @ ../GUILib/src/widgets/lv_label.c:732:1
	pop	{r4, pc}
.Ltmp15:
.Lfunc_end1:
	.size	lv_label_destructor, .Lfunc_end1-lv_label_destructor
	.cfi_endproc
	.cantunwind
	.fnend
                                        @ -- End function
	.section	.text.lv_label_event,"ax",%progbits
	.p2align	1                               @ -- Begin function lv_label_event
	.type	lv_label_event,%function
	.code	16                              @ @lv_label_event
	.thumb_func
lv_label_event:
.Lfunc_begin2:
	.loc	12 735 0                        @ ../GUILib/src/widgets/lv_label.c:735:0
	.fnstart
	.cfi_startproc
@ %bb.0:
	@DEBUG_VALUE: lv_label_event:class_p <- $r0
	@DEBUG_VALUE: lv_label_event:e <- $r1
	.save	{r4, r5, r6, r7, r8, r9, lr}
	push.w	{r4, r5, r6, r7, r8, r9, lr}
	.cfi_def_cfa_offset 28
	.cfi_offset lr, -4
	.cfi_offset r9, -8
	.cfi_offset r8, -12
	.cfi_offset r7, -16
	.cfi_offset r6, -20
	.cfi_offset r5, -24
	.cfi_offset r4, -28
	.pad	#68
	sub	sp, #68
	.cfi_def_cfa_offset 96
.Ltmp16:
	.loc	12 741 11 prologue_end          @ ../GUILib/src/widgets/lv_label.c:741:11
	movw	r0, :lower16:lv_label_class
.Ltmp17:
	@DEBUG_VALUE: lv_label_event:class_p <- [DW_OP_LLVM_entry_value 1] $r0
	movt	r0, :upper16:lv_label_class
	mov	r5, r1
.Ltmp18:
	@DEBUG_VALUE: lv_label_event:e <- $r5
	bl	lv_obj_event_base
.Ltmp19:
	@DEBUG_VALUE: lv_label_event:res <- $r0
	.loc	12 742 8                        @ ../GUILib/src/widgets/lv_label.c:742:8
	cmp	r0, #1
	bne.w	.LBB2_35
.Ltmp20:
@ %bb.1:
	@DEBUG_VALUE: lv_label_event:e <- $r5
	@DEBUG_VALUE: lv_label_event:res <- $r0
	@DEBUG_VALUE: lv_label_event:class_p <- [DW_OP_LLVM_entry_value 1] $r0
	.loc	12 744 28                       @ ../GUILib/src/widgets/lv_label.c:744:28
	mov	r0, r5
.Ltmp21:
	bl	lv_event_get_code
.Ltmp22:
	mov	r6, r0
.Ltmp23:
	@DEBUG_VALUE: lv_label_event:code <- undef
	.loc	12 745 22                       @ ../GUILib/src/widgets/lv_label.c:745:22
	mov	r0, r5
	bl	lv_event_get_target
.Ltmp24:
	.loc	12 747 8                        @ ../GUILib/src/widgets/lv_label.c:747:8
	cmp	r6, #40
	.loc	12 745 22                       @ ../GUILib/src/widgets/lv_label.c:745:22
	mov	r4, r0
.Ltmp25:
	@DEBUG_VALUE: lv_label_event:obj <- $r4
	.loc	12 747 8                        @ ../GUILib/src/widgets/lv_label.c:747:8
	ble	.LBB2_6
.Ltmp26:
@ %bb.2:
	@DEBUG_VALUE: lv_label_event:e <- $r5
	@DEBUG_VALUE: lv_label_event:obj <- $r4
	@DEBUG_VALUE: lv_label_event:class_p <- [DW_OP_LLVM_entry_value 1] $r0
	cmp	r6, #41
	beq	.LBB2_5
.Ltmp27:
@ %bb.3:
	@DEBUG_VALUE: lv_label_event:e <- $r5
	@DEBUG_VALUE: lv_label_event:obj <- $r4
	@DEBUG_VALUE: lv_label_event:class_p <- [DW_OP_LLVM_entry_value 1] $r0
	cmp	r6, #44
	beq.w	.LBB2_20
.Ltmp28:
@ %bb.4:
	@DEBUG_VALUE: lv_label_event:e <- $r5
	@DEBUG_VALUE: lv_label_event:obj <- $r4
	@DEBUG_VALUE: lv_label_event:class_p <- [DW_OP_LLVM_entry_value 1] $r0
	cmp	r6, #42
	bne.w	.LBB2_35
.Ltmp29:
.LBB2_5:
	@DEBUG_VALUE: lv_label_event:e <- $r5
	@DEBUG_VALUE: lv_label_event:obj <- $r4
	@DEBUG_VALUE: lv_label_event:class_p <- [DW_OP_LLVM_entry_value 1] $r0
	.loc	12 0 0 is_stmt 0                @ ../GUILib/src/widgets/lv_label.c:0:0
	mov	r0, r4
	bl	lv_label_revert_dots
.Ltmp30:
	mov	r0, r4
	add	sp, #68
	pop.w	{r4, r5, r6, r7, r8, r9, lr}
.Ltmp31:
	@DEBUG_VALUE: lv_label_event:e <- [DW_OP_LLVM_entry_value 1] $r1
	b	lv_label_refr_text
.Ltmp32:
.LBB2_6:
	@DEBUG_VALUE: lv_label_event:e <- $r5
	@DEBUG_VALUE: lv_label_event:obj <- $r4
	@DEBUG_VALUE: lv_label_event:class_p <- [DW_OP_LLVM_entry_value 1] $r0
	.loc	12 747 8                        @ ../GUILib/src/widgets/lv_label.c:747:8
	cmp	r6, #19
	beq.w	.LBB2_23
.Ltmp33:
@ %bb.7:
	@DEBUG_VALUE: lv_label_event:e <- $r5
	@DEBUG_VALUE: lv_label_event:obj <- $r4
	@DEBUG_VALUE: lv_label_event:class_p <- [DW_OP_LLVM_entry_value 1] $r0
	cmp	r6, #21
	bne.w	.LBB2_35
.Ltmp34:
@ %bb.8:
	@DEBUG_VALUE: lv_label_event:e <- $r5
	@DEBUG_VALUE: lv_label_event:obj <- $r4
	@DEBUG_VALUE: lv_label_event:class_p <- [DW_OP_LLVM_entry_value 1] $r0
	@DEBUG_VALUE: draw_main:e <- $r5
	.loc	12 793 22 is_stmt 1             @ ../GUILib/src/widgets/lv_label.c:793:22
	mov	r0, r5
	bl	lv_event_get_target
.Ltmp35:
	mov	r4, r0
.Ltmp36:
	@DEBUG_VALUE: draw_main:flag <- [DW_OP_constu 1, DW_OP_and, DW_OP_stack_value] undef
	@DEBUG_VALUE: draw_main:label <- $r4
	@DEBUG_VALUE: draw_main:obj <- $r4
	.loc	12 795 35                       @ ../GUILib/src/widgets/lv_label.c:795:35
	mov	r0, r5
	bl	lv_event_get_param
.Ltmp37:
	mov	r5, r0
.Ltmp38:
	@DEBUG_VALUE: lv_label_event:e <- [DW_OP_LLVM_entry_value 1] $r1
	@DEBUG_VALUE: draw_main:clip_area <- $r5
	.loc	12 0 35 is_stmt 0               @ ../GUILib/src/widgets/lv_label.c:0:35
	add	r1, sp, #60
	.loc	12 798 5 is_stmt 1              @ ../GUILib/src/widgets/lv_label.c:798:5
	mov	r0, r4
	bl	lv_obj_get_content_coords
.Ltmp39:
	@DEBUG_VALUE: draw_main:flag <- 0
	.loc	12 801 15                       @ ../GUILib/src/widgets/lv_label.c:801:15
	ldrb.w	r0, [r4, #72]
.Ltmp40:
	.file	18 "C:\\Users\\Hyacincher\\Desktop\\HyTelectrl\\Code\\Project" "../GUILib/src/widgets/../core/lv_obj_style_gen.h"
	.loc	18 3 26                         @ ../GUILib/src/widgets/../core/lv_obj_style_gen.h:3:26
	movs	r1, #0
.Ltmp41:
	.loc	12 802 8                        @ ../GUILib/src/widgets/lv_label.c:802:8
	ubfx	r7, r0, #4, #2
.Ltmp42:
	@DEBUG_VALUE: lv_obj_get_style_width:part <- 0
	@DEBUG_VALUE: lv_obj_get_style_width:obj <- $r4
	@DEBUG_VALUE: draw_main:flag <- $r7
	.loc	18 3 26                         @ ../GUILib/src/widgets/../core/lv_obj_style_gen.h:3:26
	mov	r0, r4
	movw	r2, #4097
	bl	lv_obj_get_style_prop
.Ltmp43:
	@DEBUG_VALUE: lv_obj_get_style_width:v <- $r0
	.loc	18 4 12                         @ ../GUILib/src/widgets/../core/lv_obj_style_gen.h:4:12
	uxth	r0, r0
.Ltmp44:
	.loc	18 0 12 is_stmt 0               @ ../GUILib/src/widgets/../core/lv_obj_style_gen.h:0:12
	movw	r1, #10193
.Ltmp45:
	.loc	12 803 69 is_stmt 1             @ ../GUILib/src/widgets/lv_label.c:803:69
	cmp	r0, r1
	bne	.LBB2_10
.Ltmp46:
@ %bb.9:
	@DEBUG_VALUE: draw_main:flag <- $r7
	@DEBUG_VALUE: draw_main:clip_area <- $r5
	@DEBUG_VALUE: draw_main:obj <- $r4
	@DEBUG_VALUE: draw_main:label <- $r4
	@DEBUG_VALUE: lv_label_event:e <- [DW_OP_LLVM_entry_value 1] $r1
	@DEBUG_VALUE: lv_label_event:class_p <- [DW_OP_LLVM_entry_value 1] $r0
	.loc	12 803 78 is_stmt 0             @ ../GUILib/src/widgets/lv_label.c:803:78
	ldrh	r0, [r4, #34]
.Ltmp47:
	.loc	12 803 8                        @ ../GUILib/src/widgets/lv_label.c:803:8
	lsls	r0, r0, #21
	it	pl
	addpl	r7, #4
.Ltmp48:
.LBB2_10:
	@DEBUG_VALUE: draw_main:clip_area <- $r5
	@DEBUG_VALUE: draw_main:obj <- $r4
	@DEBUG_VALUE: draw_main:label <- $r4
	@DEBUG_VALUE: lv_label_event:e <- [DW_OP_LLVM_entry_value 1] $r1
	@DEBUG_VALUE: lv_label_event:class_p <- [DW_OP_LLVM_entry_value 1] $r0
	@DEBUG_VALUE: draw_main:flag <- $r7
	.loc	12 0 8                          @ ../GUILib/src/widgets/lv_label.c:0:8
	add	r6, sp, #28
.Ltmp49:
	@DEBUG_VALUE: lv_bidi_calculate_align:align <- [DW_OP_plus_uconst 28, DW_OP_stack_value] $r6
	.loc	12 806 5 is_stmt 1              @ ../GUILib/src/widgets/lv_label.c:806:5
	mov	r0, r6
	bl	lv_draw_label_dsc_init
.Ltmp50:
	.loc	12 808 42                       @ ../GUILib/src/widgets/lv_label.c:808:42
	ldr	r0, [r4, #68]
	.loc	12 812 5                        @ ../GUILib/src/widgets/lv_label.c:812:5
	movs	r1, #0
	.loc	12 808 26                       @ ../GUILib/src/widgets/lv_label.c:808:26
	str.w	r0, [sp, #50]
	.loc	12 812 5                        @ ../GUILib/src/widgets/lv_label.c:812:5
	mov	r0, r4
	mov	r2, r6
	.loc	12 811 25                       @ ../GUILib/src/widgets/lv_label.c:811:25
	strb.w	r7, [sp, #57]
	.loc	12 812 5                        @ ../GUILib/src/widgets/lv_label.c:812:5
	bl	lv_obj_init_draw_label_dsc
.Ltmp51:
	@DEBUG_VALUE: lv_bidi_calculate_align:txt <- undef
	@DEBUG_VALUE: lv_bidi_calculate_align:base_dir <- undef
	.file	19 "C:\\Users\\Hyacincher\\Desktop\\HyTelectrl\\Code\\Project" "../GUILib/src/widgets/../misc/lv_bidi.h"
	.loc	19 133 8                        @ ../GUILib/src/widgets/../misc/lv_bidi.h:133:8
	ldrb.w	r0, [sp, #56]
	cbnz	r0, .LBB2_12
.Ltmp52:
@ %bb.11:
	@DEBUG_VALUE: draw_main:flag <- $r7
	@DEBUG_VALUE: lv_bidi_calculate_align:align <- [DW_OP_plus_uconst 28, DW_OP_stack_value] $r6
	@DEBUG_VALUE: draw_main:clip_area <- $r5
	@DEBUG_VALUE: draw_main:obj <- $r4
	@DEBUG_VALUE: draw_main:label <- $r4
	@DEBUG_VALUE: lv_label_event:e <- [DW_OP_LLVM_entry_value 1] $r1
	@DEBUG_VALUE: lv_label_event:class_p <- [DW_OP_LLVM_entry_value 1] $r0
	.loc	19 0 8 is_stmt 0                @ ../GUILib/src/widgets/../misc/lv_bidi.h:0:8
	movs	r0, #1
	.loc	19 133 46                       @ ../GUILib/src/widgets/../misc/lv_bidi.h:133:46
	strb.w	r0, [sp, #56]
.Ltmp53:
.LBB2_12:
	@DEBUG_VALUE: draw_main:flag <- $r7
	@DEBUG_VALUE: draw_main:clip_area <- $r5
	@DEBUG_VALUE: draw_main:obj <- $r4
	@DEBUG_VALUE: draw_main:label <- $r4
	@DEBUG_VALUE: lv_label_event:e <- [DW_OP_LLVM_entry_value 1] $r1
	@DEBUG_VALUE: lv_label_event:class_p <- [DW_OP_LLVM_entry_value 1] $r0
	@DEBUG_VALUE: lv_label_get_text_selection_start:obj <- $r4
	@DEBUG_VALUE: lv_label_get_text_selection_start:label <- $r4
	@DEBUG_VALUE: lv_label_get_text_selection_end:label <- $r4
	@DEBUG_VALUE: lv_label_get_text_selection_end:obj <- $r4
	.loc	12 613 19 is_stmt 1             @ ../GUILib/src/widgets/lv_label.c:613:19
	ldrd	r2, r0, [r4, #60]
	movw	r1, #65535
.Ltmp54:
	.loc	12 817 61                       @ ../GUILib/src/widgets/lv_label.c:817:61
	cmp	r2, r1
.Ltmp55:
	.loc	12 815 30                       @ ../GUILib/src/widgets/lv_label.c:815:30
	str	r2, [sp, #32]
	.loc	12 816 28                       @ ../GUILib/src/widgets/lv_label.c:816:28
	str	r0, [sp, #36]
.Ltmp56:
	.loc	12 817 61                       @ ../GUILib/src/widgets/lv_label.c:817:61
	it	ne
	cmpne	r0, r1
	beq	.LBB2_14
.Ltmp57:
@ %bb.13:
	@DEBUG_VALUE: draw_main:flag <- $r7
	@DEBUG_VALUE: draw_main:clip_area <- $r5
	@DEBUG_VALUE: draw_main:obj <- $r4
	@DEBUG_VALUE: draw_main:label <- $r4
	@DEBUG_VALUE: lv_label_event:e <- [DW_OP_LLVM_entry_value 1] $r1
	@DEBUG_VALUE: lv_label_event:class_p <- [DW_OP_LLVM_entry_value 1] $r0
	@DEBUG_VALUE: lv_obj_get_style_text_color_filtered:obj <- $r4
	@DEBUG_VALUE: lv_obj_get_style_text_color_filtered:part <- 262144
	.loc	18 321 26                       @ ../GUILib/src/widgets/../core/lv_obj_style_gen.h:321:26
	mov	r0, r4
	mov.w	r1, #262144
	movw	r2, #17495
	bl	lv_obj_get_style_prop
.Ltmp58:
	@DEBUG_VALUE: lv_obj_get_style_text_color_filtered:v <- $r0
	.loc	12 818 36                       @ ../GUILib/src/widgets/lv_label.c:818:36
	strh.w	r0, [sp, #42]
.Ltmp59:
	@DEBUG_VALUE: lv_obj_get_style_bg_color:part <- 262144
	@DEBUG_VALUE: lv_obj_get_style_bg_color:obj <- $r4
	.loc	18 195 26                       @ ../GUILib/src/widgets/../core/lv_obj_style_gen.h:195:26
	mov	r0, r4
	mov.w	r1, #262144
	movs	r2, #32
	bl	lv_obj_get_style_prop
.Ltmp60:
	@DEBUG_VALUE: lv_obj_get_style_bg_color:v <- $r0
	.loc	12 819 39                       @ ../GUILib/src/widgets/lv_label.c:819:39
	strh.w	r0, [sp, #44]
.Ltmp61:
.LBB2_14:
	@DEBUG_VALUE: draw_main:flag <- $r7
	@DEBUG_VALUE: draw_main:clip_area <- $r5
	@DEBUG_VALUE: draw_main:obj <- $r4
	@DEBUG_VALUE: draw_main:label <- $r4
	@DEBUG_VALUE: lv_label_event:e <- [DW_OP_LLVM_entry_value 1] $r1
	@DEBUG_VALUE: lv_label_event:class_p <- [DW_OP_LLVM_entry_value 1] $r0
	.loc	12 824 16                       @ ../GUILib/src/widgets/lv_label.c:824:16
	ldrb.w	r0, [r4, #72]
	.loc	12 824 50 is_stmt 0             @ ../GUILib/src/widgets/lv_label.c:824:50
	and	r1, r0, #6
	cmp	r1, #2
	bne	.LBB2_17
.Ltmp62:
@ %bb.15:
	@DEBUG_VALUE: draw_main:flag <- $r7
	@DEBUG_VALUE: draw_main:clip_area <- $r5
	@DEBUG_VALUE: draw_main:obj <- $r4
	@DEBUG_VALUE: draw_main:label <- $r4
	@DEBUG_VALUE: lv_label_event:e <- [DW_OP_LLVM_entry_value 1] $r1
	@DEBUG_VALUE: lv_label_event:class_p <- [DW_OP_LLVM_entry_value 1] $r0
	.loc	12 825 24 is_stmt 1             @ ../GUILib/src/widgets/lv_label.c:825:24
	ldrb.w	r1, [sp, #56]
	.loc	12 825 54 is_stmt 0             @ ../GUILib/src/widgets/lv_label.c:825:54
	and	r1, r1, #254
	cmp	r1, #2
	bne	.LBB2_17
.Ltmp63:
@ %bb.16:
	@DEBUG_VALUE: draw_main:flag <- $r7
	@DEBUG_VALUE: draw_main:clip_area <- $r5
	@DEBUG_VALUE: draw_main:obj <- $r4
	@DEBUG_VALUE: draw_main:label <- $r4
	@DEBUG_VALUE: lv_label_event:e <- [DW_OP_LLVM_entry_value 1] $r1
	@DEBUG_VALUE: lv_label_event:class_p <- [DW_OP_LLVM_entry_value 1] $r0
	.loc	12 827 110 is_stmt 1            @ ../GUILib/src/widgets/lv_label.c:827:110
	ldrsh.w	r0, [sp, #46]
	.loc	12 827 39 is_stmt 0             @ ../GUILib/src/widgets/lv_label.c:827:39
	ldr	r1, [r4, #36]
	.loc	12 827 60                       @ ../GUILib/src/widgets/lv_label.c:827:60
	ldr	r2, [sp, #28]
	.loc	12 827 81                       @ ../GUILib/src/widgets/lv_label.c:827:81
	ldrsh.w	r3, [sp, #48]
	movw	r6, #8191
	.loc	12 827 9                        @ ../GUILib/src/widgets/lv_label.c:827:9
	strd	r0, r6, [sp]
	add	r0, sp, #20
	str	r7, [sp, #8]
	bl	lv_txt_get_size
.Ltmp64:
	.loc	6 125 33 is_stmt 1              @ ../GUILib/src/hal/../misc/lv_area.h:125:33
	ldrh.w	r0, [sp, #64]
	.loc	6 125 46 is_stmt 0              @ ../GUILib/src/hal/../misc/lv_area.h:125:46
	ldrh.w	r1, [sp, #60]
.Ltmp65:
	.loc	12 829 17 is_stmt 1             @ ../GUILib/src/widgets/lv_label.c:829:17
	ldrsh.w	r2, [sp, #20]
.Ltmp66:
	@DEBUG_VALUE: lv_area_get_width:area_p <- [DW_OP_plus_uconst 60, DW_OP_stack_value] $sp
	.loc	6 125 49                        @ ../GUILib/src/hal/../misc/lv_area.h:125:49
	subs	r0, r0, r1
	adds	r0, #1
	sxth	r0, r0
.Ltmp67:
	.loc	12 829 12                       @ ../GUILib/src/widgets/lv_label.c:829:12
	cmp	r2, r0
	itt	gt
	movgt	r0, #1
.Ltmp68:
	.loc	12 830 34                       @ ../GUILib/src/widgets/lv_label.c:830:34
	strbgt.w	r0, [sp, #56]
.Ltmp69:
	.loc	12 835 15                       @ ../GUILib/src/widgets/lv_label.c:835:15
	ldrb.w	r0, [r4, #72]
.Ltmp70:
.LBB2_17:
	@DEBUG_VALUE: draw_main:flag <- $r7
	@DEBUG_VALUE: draw_main:clip_area <- $r5
	@DEBUG_VALUE: draw_main:obj <- $r4
	@DEBUG_VALUE: draw_main:label <- $r4
	@DEBUG_VALUE: lv_label_event:e <- [DW_OP_LLVM_entry_value 1] $r1
	@DEBUG_VALUE: lv_label_event:class_p <- [DW_OP_LLVM_entry_value 1] $r0
	@DEBUG_VALUE: draw_main:hint <- [DW_OP_plus_uconst 48, DW_OP_stack_value] $r4
	and	r0, r0, #7
	.loc	12 835 58 is_stmt 0             @ ../GUILib/src/widgets/lv_label.c:835:58
	cmp	r0, #3
	beq	.LBB2_19
.Ltmp71:
@ %bb.18:
	@DEBUG_VALUE: draw_main:flag <- $r7
	@DEBUG_VALUE: draw_main:clip_area <- $r5
	@DEBUG_VALUE: draw_main:hint <- [DW_OP_plus_uconst 48, DW_OP_stack_value] $r4
	@DEBUG_VALUE: draw_main:obj <- $r4
	@DEBUG_VALUE: draw_main:label <- $r4
	@DEBUG_VALUE: lv_label_event:e <- [DW_OP_LLVM_entry_value 1] $r1
	@DEBUG_VALUE: lv_label_event:class_p <- [DW_OP_LLVM_entry_value 1] $r0
	@DEBUG_VALUE: draw_main:hint <- undef
	@DEBUG_VALUE: lv_area_get_height:area_p <- [DW_OP_plus_uconst 60, DW_OP_stack_value] $sp
	.loc	6 135 33 is_stmt 1              @ ../GUILib/src/hal/../misc/lv_area.h:135:33
	ldrh.w	r0, [sp, #66]
	.loc	6 135 46 is_stmt 0              @ ../GUILib/src/hal/../misc/lv_area.h:135:46
	ldrh.w	r1, [sp, #62]
	.loc	6 135 49                        @ ../GUILib/src/hal/../misc/lv_area.h:135:49
	subs	r0, r0, r1
	adds	r0, #1
	sxth	r0, r0
.Ltmp72:
	.loc	12 835 8 is_stmt 1              @ ../GUILib/src/widgets/lv_label.c:835:8
	cmp.w	r0, #1024
	bge	.LBB2_26
.Ltmp73:
.LBB2_19:
	@DEBUG_VALUE: draw_main:flag <- $r7
	@DEBUG_VALUE: draw_main:clip_area <- $r5
	@DEBUG_VALUE: draw_main:obj <- $r4
	@DEBUG_VALUE: draw_main:label <- $r4
	@DEBUG_VALUE: lv_label_event:e <- [DW_OP_LLVM_entry_value 1] $r1
	@DEBUG_VALUE: lv_label_event:class_p <- [DW_OP_LLVM_entry_value 1] $r0
	.loc	12 0 8 is_stmt 0                @ ../GUILib/src/widgets/lv_label.c:0:8
	movs	r6, #0
	@DEBUG_VALUE: draw_main:hint <- 0
	b	.LBB2_27
.Ltmp74:
.LBB2_20:
	@DEBUG_VALUE: lv_label_event:e <- $r5
	@DEBUG_VALUE: lv_label_event:obj <- $r4
	@DEBUG_VALUE: lv_label_event:class_p <- [DW_OP_LLVM_entry_value 1] $r0
	@DEBUG_VALUE: label <- $r4
	@DEBUG_VALUE: lv_obj_get_style_text_font:obj <- $r4
	@DEBUG_VALUE: lv_obj_get_style_text_font:part <- 0
	.loc	18 333 26 is_stmt 1             @ ../GUILib/src/widgets/../core/lv_obj_style_gen.h:333:26
	mov	r0, r4
	movs	r1, #0
	movw	r2, #5209
	bl	lv_obj_get_style_prop
.Ltmp75:
	mov	r8, r0
.Ltmp76:
	@DEBUG_VALUE: lv_obj_get_style_text_letter_space:part <- 0
	@DEBUG_VALUE: lv_obj_get_style_text_letter_space:obj <- $r4
	@DEBUG_VALUE: font <- $r8
	@DEBUG_VALUE: lv_obj_get_style_text_font:v <- $r8
	.loc	18 339 26                       @ ../GUILib/src/widgets/../core/lv_obj_style_gen.h:339:26
	mov	r0, r4
	movs	r1, #0
	movw	r2, #5210
	bl	lv_obj_get_style_prop
.Ltmp77:
	mov	r9, r0
.Ltmp78:
	@DEBUG_VALUE: lv_obj_get_style_text_line_space:part <- 0
	@DEBUG_VALUE: lv_obj_get_style_text_line_space:obj <- $r4
	@DEBUG_VALUE: letter_space <- [DW_OP_LLVM_convert 32 7, DW_OP_LLVM_convert 16 7, DW_OP_stack_value] $r9
	@DEBUG_VALUE: lv_obj_get_style_text_letter_space:v <- $r9
	.loc	18 345 26                       @ ../GUILib/src/widgets/../core/lv_obj_style_gen.h:345:26
	mov	r0, r4
	movs	r1, #0
	movw	r2, #5211
	bl	lv_obj_get_style_prop
.Ltmp79:
	.loc	12 772 19                       @ ../GUILib/src/widgets/lv_label.c:772:19
	ldrb.w	r1, [r4, #72]
.Ltmp80:
	@DEBUG_VALUE: flag <- [DW_OP_constu 1, DW_OP_and, DW_OP_stack_value] undef
	.loc	18 345 26                       @ ../GUILib/src/widgets/../core/lv_obj_style_gen.h:345:26
	mov	r6, r0
.Ltmp81:
	@DEBUG_VALUE: line_space <- [DW_OP_LLVM_convert 32 7, DW_OP_LLVM_convert 16 7, DW_OP_stack_value] $r6
	@DEBUG_VALUE: lv_obj_get_style_text_line_space:v <- $r6
	@DEBUG_VALUE: flag <- 0
	@DEBUG_VALUE: lv_obj_get_style_text_line_space:part <- 0
	@DEBUG_VALUE: lv_obj_get_style_text_line_space:obj <- $r4
	.loc	12 775 24                       @ ../GUILib/src/widgets/lv_label.c:775:24
	mov	r0, r4
	.loc	12 773 12                       @ ../GUILib/src/widgets/lv_label.c:773:12
	ubfx	r7, r1, #4, #2
.Ltmp82:
	@DEBUG_VALUE: flag <- $r7
	.loc	12 775 24                       @ ../GUILib/src/widgets/lv_label.c:775:24
	bl	lv_obj_get_content_width
.Ltmp83:
	@DEBUG_VALUE: lv_obj_get_style_width:part <- 0
	@DEBUG_VALUE: lv_obj_get_style_width:obj <- $r4
	@DEBUG_VALUE: w <- undef
	.loc	18 3 26                         @ ../GUILib/src/widgets/../core/lv_obj_style_gen.h:3:26
	mov	r0, r4
	movs	r1, #0
	movw	r2, #4097
	bl	lv_obj_get_style_prop
.Ltmp84:
	@DEBUG_VALUE: lv_obj_get_style_width:v <- $r0
	.loc	18 4 12                         @ ../GUILib/src/widgets/../core/lv_obj_style_gen.h:4:12
	uxth	r0, r0
.Ltmp85:
	.loc	18 0 12 is_stmt 0               @ ../GUILib/src/widgets/../core/lv_obj_style_gen.h:0:12
	movw	r1, #10193
.Ltmp86:
	.loc	12 776 73 is_stmt 1             @ ../GUILib/src/widgets/lv_label.c:776:73
	cmp	r0, r1
	bne	.LBB2_24
.Ltmp87:
@ %bb.21:
	@DEBUG_VALUE: letter_space <- [DW_OP_LLVM_convert 32 7, DW_OP_LLVM_convert 16 7, DW_OP_stack_value] $r9
	@DEBUG_VALUE: font <- $r8
	@DEBUG_VALUE: flag <- $r7
	@DEBUG_VALUE: line_space <- [DW_OP_LLVM_convert 32 7, DW_OP_LLVM_convert 16 7, DW_OP_stack_value] $r6
	@DEBUG_VALUE: lv_label_event:e <- $r5
	@DEBUG_VALUE: label <- $r4
	@DEBUG_VALUE: lv_label_event:obj <- $r4
	@DEBUG_VALUE: lv_label_event:class_p <- [DW_OP_LLVM_entry_value 1] $r0
	.loc	12 776 82 is_stmt 0             @ ../GUILib/src/widgets/lv_label.c:776:82
	ldrh	r0, [r4, #34]
.Ltmp88:
	.loc	12 776 12                       @ ../GUILib/src/widgets/lv_label.c:776:12
	lsls	r0, r0, #21
	bmi	.LBB2_24
.Ltmp89:
@ %bb.22:
	@DEBUG_VALUE: letter_space <- [DW_OP_LLVM_convert 32 7, DW_OP_LLVM_convert 16 7, DW_OP_stack_value] $r9
	@DEBUG_VALUE: font <- $r8
	@DEBUG_VALUE: flag <- $r7
	@DEBUG_VALUE: line_space <- [DW_OP_LLVM_convert 32 7, DW_OP_LLVM_convert 16 7, DW_OP_stack_value] $r6
	@DEBUG_VALUE: lv_label_event:e <- $r5
	@DEBUG_VALUE: label <- $r4
	@DEBUG_VALUE: lv_label_event:obj <- $r4
	@DEBUG_VALUE: lv_label_event:class_p <- [DW_OP_LLVM_entry_value 1] $r0
	.loc	12 0 12                         @ ../GUILib/src/widgets/lv_label.c:0:12
	movw	r0, #8191
	b	.LBB2_25
.Ltmp90:
.LBB2_23:
	@DEBUG_VALUE: lv_label_event:e <- $r5
	@DEBUG_VALUE: lv_label_event:obj <- $r4
	@DEBUG_VALUE: lv_label_event:class_p <- [DW_OP_LLVM_entry_value 1] $r0
	@DEBUG_VALUE: lv_obj_get_style_text_font:obj <- $r4
	@DEBUG_VALUE: lv_obj_get_style_text_font:part <- 0
	.loc	18 333 26 is_stmt 1             @ ../GUILib/src/widgets/../core/lv_obj_style_gen.h:333:26
	mov	r0, r4
	movs	r1, #0
	movw	r2, #5209
	bl	lv_obj_get_style_prop
.Ltmp91:
	@DEBUG_VALUE: lv_font_get_line_height:font_p <- $r0
	@DEBUG_VALUE: font <- $r0
	@DEBUG_VALUE: lv_obj_get_style_text_font:v <- $r0
	.loc	17 120 20                       @ ../GUILib/src/widgets/../font/lv_font.h:120:20
	ldrsh.w	r0, [r0, #8]
.Ltmp92:
	@DEBUG_VALUE: font_h <- $r0
	.loc	12 759 46                       @ ../GUILib/src/widgets/lv_label.c:759:46
	ubfx	r1, r0, #29, #2
	add	r0, r1
.Ltmp93:
	sxth	r0, r0
	asrs	r1, r0, #2
	.loc	12 759 9 is_stmt 0              @ ../GUILib/src/widgets/lv_label.c:759:9
	mov	r0, r5
	add	sp, #68
	pop.w	{r4, r5, r6, r7, r8, r9, lr}
.Ltmp94:
	@DEBUG_VALUE: lv_label_event:e <- [DW_OP_LLVM_entry_value 1] $r1
	b	lv_event_set_ext_draw_size
.Ltmp95:
.LBB2_24:
	@DEBUG_VALUE: letter_space <- [DW_OP_LLVM_convert 32 7, DW_OP_LLVM_convert 16 7, DW_OP_stack_value] $r9
	@DEBUG_VALUE: font <- $r8
	@DEBUG_VALUE: flag <- $r7
	@DEBUG_VALUE: line_space <- [DW_OP_LLVM_convert 32 7, DW_OP_LLVM_convert 16 7, DW_OP_stack_value] $r6
	@DEBUG_VALUE: lv_label_event:e <- $r5
	@DEBUG_VALUE: label <- $r4
	@DEBUG_VALUE: lv_label_event:obj <- $r4
	@DEBUG_VALUE: lv_label_event:class_p <- [DW_OP_LLVM_entry_value 1] $r0
	.loc	12 777 18 is_stmt 1             @ ../GUILib/src/widgets/lv_label.c:777:18
	mov	r0, r4
	bl	lv_obj_get_content_width
.Ltmp96:
	@DEBUG_VALUE: w <- undef
.LBB2_25:
	@DEBUG_VALUE: letter_space <- [DW_OP_LLVM_convert 32 7, DW_OP_LLVM_convert 16 7, DW_OP_stack_value] $r9
	@DEBUG_VALUE: font <- $r8
	@DEBUG_VALUE: flag <- $r7
	@DEBUG_VALUE: line_space <- [DW_OP_LLVM_convert 32 7, DW_OP_LLVM_convert 16 7, DW_OP_stack_value] $r6
	@DEBUG_VALUE: lv_label_event:e <- $r5
	@DEBUG_VALUE: label <- $r4
	@DEBUG_VALUE: lv_label_event:obj <- $r4
	@DEBUG_VALUE: lv_label_event:class_p <- [DW_OP_LLVM_entry_value 1] $r0
	@DEBUG_VALUE: w <- $r0
	.loc	12 779 39                       @ ../GUILib/src/widgets/lv_label.c:779:39
	ldr	r1, [r4, #36]
	.loc	12 779 9 is_stmt 0              @ ../GUILib/src/widgets/lv_label.c:779:9
	sxth	r2, r6
	strd	r2, r0, [sp]
	sxth.w	r3, r9
	add	r0, sp, #28
.Ltmp97:
	mov	r2, r8
	str	r7, [sp, #8]
	bl	lv_txt_get_size
.Ltmp98:
	.loc	12 781 34 is_stmt 1             @ ../GUILib/src/widgets/lv_label.c:781:34
	mov	r0, r5
	bl	lv_event_get_param
.Ltmp99:
	@DEBUG_VALUE: self_size <- $r0
	.loc	12 782 24                       @ ../GUILib/src/widgets/lv_label.c:782:24
	ldrsh.w	r1, [r0]
	ldrsh.w	r3, [sp, #28]
	.loc	12 783 24                       @ ../GUILib/src/widgets/lv_label.c:783:24
	ldrsh.w	r2, [r0, #2]
	ldrsh.w	r7, [sp, #30]
.Ltmp100:
	.loc	12 782 24                       @ ../GUILib/src/widgets/lv_label.c:782:24
	cmp	r1, r3
	it	gt
	movgt	r3, r1
	.loc	12 782 22 is_stmt 0             @ ../GUILib/src/widgets/lv_label.c:782:22
	strh	r3, [r0]
	.loc	12 783 24 is_stmt 1             @ ../GUILib/src/widgets/lv_label.c:783:24
	cmp	r2, r7
	it	gt
	movgt	r7, r2
	.loc	12 783 22 is_stmt 0             @ ../GUILib/src/widgets/lv_label.c:783:22
	strh	r7, [r0, #2]
	b	.LBB2_35
.Ltmp101:
.LBB2_26:
	@DEBUG_VALUE: draw_main:flag <- $r7
	@DEBUG_VALUE: draw_main:clip_area <- $r5
	@DEBUG_VALUE: draw_main:obj <- $r4
	@DEBUG_VALUE: draw_main:label <- $r4
	@DEBUG_VALUE: lv_area_get_height:area_p <- [DW_OP_plus_uconst 60, DW_OP_stack_value] $sp
	@DEBUG_VALUE: lv_label_event:e <- [DW_OP_LLVM_entry_value 1] $r1
	@DEBUG_VALUE: lv_label_event:class_p <- [DW_OP_LLVM_entry_value 1] $r0
	.loc	12 0 22                         @ ../GUILib/src/widgets/lv_label.c:0:22
	add.w	r6, r4, #48
	@DEBUG_VALUE: draw_main:hint <- $r6
.Ltmp102:
.LBB2_27:
	@DEBUG_VALUE: draw_main:flag <- $r7
	@DEBUG_VALUE: draw_main:clip_area <- $r5
	@DEBUG_VALUE: draw_main:obj <- $r4
	@DEBUG_VALUE: draw_main:label <- $r4
	@DEBUG_VALUE: lv_label_event:e <- [DW_OP_LLVM_entry_value 1] $r1
	@DEBUG_VALUE: lv_label_event:class_p <- [DW_OP_LLVM_entry_value 1] $r0
	@DEBUG_VALUE: draw_main:hint <- $r6
	add	r0, sp, #20
	add	r1, sp, #60
.Ltmp103:
	.loc	12 844 22 is_stmt 1             @ ../GUILib/src/widgets/lv_label.c:844:22
	mov	r2, r5
	bl	_lv_area_intersect
.Ltmp104:
	@DEBUG_VALUE: draw_main:is_common <- [DW_OP_LLVM_convert 1 7, DW_OP_LLVM_convert 8 7, DW_OP_stack_value] undef
	.loc	12 845 8                        @ ../GUILib/src/widgets/lv_label.c:845:8
	cmp	r0, #0
	beq	.LBB2_35
.Ltmp105:
@ %bb.28:
	@DEBUG_VALUE: draw_main:flag <- $r7
	@DEBUG_VALUE: draw_main:hint <- $r6
	@DEBUG_VALUE: draw_main:clip_area <- $r5
	@DEBUG_VALUE: draw_main:obj <- $r4
	@DEBUG_VALUE: draw_main:label <- $r4
	@DEBUG_VALUE: lv_label_event:e <- [DW_OP_LLVM_entry_value 1] $r1
	@DEBUG_VALUE: lv_label_event:class_p <- [DW_OP_LLVM_entry_value 1] $r0
	.loc	12 847 15                       @ ../GUILib/src/widgets/lv_label.c:847:15
	ldrb.w	r0, [r4, #72]
.Ltmp106:
	.loc	12 847 8 is_stmt 0              @ ../GUILib/src/widgets/lv_label.c:847:8
	lsls	r1, r0, #29
	bne	.LBB2_30
.Ltmp107:
@ %bb.29:
	@DEBUG_VALUE: draw_main:flag <- $r7
	@DEBUG_VALUE: draw_main:hint <- $r6
	@DEBUG_VALUE: draw_main:clip_area <- $r5
	@DEBUG_VALUE: draw_main:obj <- $r4
	@DEBUG_VALUE: draw_main:label <- $r4
	@DEBUG_VALUE: lv_label_event:e <- [DW_OP_LLVM_entry_value 1] $r1
	@DEBUG_VALUE: lv_label_event:class_p <- [DW_OP_LLVM_entry_value 1] $r0
	.loc	12 848 24 is_stmt 1             @ ../GUILib/src/widgets/lv_label.c:848:24
	mov	r0, r4
	bl	lv_obj_get_scroll_top
.Ltmp108:
	@DEBUG_VALUE: s <- $r0
	.loc	12 849 38                       @ ../GUILib/src/widgets/lv_label.c:849:38
	rsbs	r0, r0, #0
.Ltmp109:
	.loc	12 849 9 is_stmt 0              @ ../GUILib/src/widgets/lv_label.c:849:9
	sxth	r2, r0
	add	r0, sp, #60
	movs	r1, #0
	bl	lv_area_move
.Ltmp110:
	.loc	12 850 37 is_stmt 1             @ ../GUILib/src/widgets/lv_label.c:850:37
	ldrh	r1, [r4, #26]
.Ltmp111:
	.loc	12 853 15                       @ ../GUILib/src/widgets/lv_label.c:853:15
	ldrb.w	r0, [r4, #72]
.Ltmp112:
	.loc	12 850 23                       @ ../GUILib/src/widgets/lv_label.c:850:23
	strh.w	r1, [sp, #66]
.Ltmp113:
.LBB2_30:
	@DEBUG_VALUE: draw_main:flag <- $r7
	@DEBUG_VALUE: draw_main:hint <- $r6
	@DEBUG_VALUE: draw_main:clip_area <- $r5
	@DEBUG_VALUE: draw_main:obj <- $r4
	@DEBUG_VALUE: draw_main:label <- $r4
	@DEBUG_VALUE: lv_label_event:e <- [DW_OP_LLVM_entry_value 1] $r1
	@DEBUG_VALUE: lv_label_event:class_p <- [DW_OP_LLVM_entry_value 1] $r0
	.loc	12 853 49                       @ ../GUILib/src/widgets/lv_label.c:853:49
	and	r0, r0, #6
	.loc	12 0 0 is_stmt 0                @ ../GUILib/src/widgets/lv_label.c:0:0
	ldr	r3, [r4, #36]
	.loc	12 853 49                       @ ../GUILib/src/widgets/lv_label.c:853:49
	cmp	r0, #2
	add	r0, sp, #60
	ittee	ne
	addne.w	r2, sp, #28
.Ltmp114:
	.loc	12 856 9 is_stmt 1              @ ../GUILib/src/widgets/lv_label.c:856:9
	movne	r1, r5
	addeq.w	r1, sp, #20
	addeq.w	r2, sp, #28
.Ltmp115:
	.loc	12 0 0 is_stmt 0                @ ../GUILib/src/widgets/lv_label.c:0:0
	str	r6, [sp]
	bl	lv_draw_label
.Ltmp116:
	.loc	12 859 15 is_stmt 1             @ ../GUILib/src/widgets/lv_label.c:859:15
	ldrb.w	r0, [r4, #72]
	and	r0, r0, #7
.Ltmp117:
	.loc	12 859 8 is_stmt 0              @ ../GUILib/src/widgets/lv_label.c:859:8
	cmp	r0, #3
	bne	.LBB2_35
.Ltmp118:
@ %bb.31:
	@DEBUG_VALUE: draw_main:flag <- $r7
	@DEBUG_VALUE: draw_main:hint <- $r6
	@DEBUG_VALUE: draw_main:clip_area <- $r5
	@DEBUG_VALUE: draw_main:obj <- $r4
	@DEBUG_VALUE: draw_main:label <- $r4
	@DEBUG_VALUE: lv_label_event:e <- [DW_OP_LLVM_entry_value 1] $r1
	@DEBUG_VALUE: lv_label_event:class_p <- [DW_OP_LLVM_entry_value 1] $r0
	.loc	12 861 110 is_stmt 1            @ ../GUILib/src/widgets/lv_label.c:861:110
	ldrsh.w	r0, [sp, #46]
	.loc	12 861 39 is_stmt 0             @ ../GUILib/src/widgets/lv_label.c:861:39
	ldr	r1, [r4, #36]
	.loc	12 861 60                       @ ../GUILib/src/widgets/lv_label.c:861:60
	ldr	r2, [sp, #28]
	.loc	12 861 81                       @ ../GUILib/src/widgets/lv_label.c:861:81
	ldrsh.w	r3, [sp, #48]
	movw	r5, #8191
.Ltmp119:
	.loc	12 861 9                        @ ../GUILib/src/widgets/lv_label.c:861:9
	strd	r0, r5, [sp]
	add	r0, sp, #16
	str	r7, [sp, #8]
	bl	lv_txt_get_size
.Ltmp120:
	.loc	6 125 33 is_stmt 1              @ ../GUILib/src/hal/../misc/lv_area.h:125:33
	ldrh.w	r0, [sp, #64]
	.loc	6 125 46 is_stmt 0              @ ../GUILib/src/hal/../misc/lv_area.h:125:46
	ldrh.w	r2, [sp, #60]
.Ltmp121:
	.loc	12 865 17 is_stmt 1             @ ../GUILib/src/widgets/lv_label.c:865:17
	ldrsh.w	r1, [sp, #16]
.Ltmp122:
	@DEBUG_VALUE: lv_area_get_width:area_p <- [DW_OP_plus_uconst 60, DW_OP_stack_value] $sp
	.loc	6 125 49                        @ ../GUILib/src/hal/../misc/lv_area.h:125:49
	subs	r0, r0, r2
	adds	r0, #1
	sxth	r0, r0
.Ltmp123:
	.loc	12 865 12                       @ ../GUILib/src/widgets/lv_label.c:865:12
	cmp	r1, r0
	ble	.LBB2_33
.Ltmp124:
@ %bb.32:
	@DEBUG_VALUE: draw_main:flag <- $r7
	@DEBUG_VALUE: draw_main:hint <- $r6
	@DEBUG_VALUE: draw_main:obj <- $r4
	@DEBUG_VALUE: draw_main:label <- $r4
	@DEBUG_VALUE: lv_label_event:e <- [DW_OP_LLVM_entry_value 1] $r1
	@DEBUG_VALUE: lv_label_event:class_p <- [DW_OP_LLVM_entry_value 1] $r0
	.loc	12 866 50                       @ ../GUILib/src/widgets/lv_label.c:866:50
	ldrh.w	r2, [r4, #68]
	.loc	12 867 75                       @ ../GUILib/src/widgets/lv_label.c:867:75
	ldr	r0, [sp, #28]
	.loc	12 866 52                       @ ../GUILib/src/widgets/lv_label.c:866:52
	adds	r5, r2, r1
	.loc	12 867 36                       @ ../GUILib/src/widgets/lv_label.c:867:36
	movs	r1, #32
	movs	r2, #32
	bl	lv_font_get_glyph_width
.Ltmp125:
	.loc	12 867 91 is_stmt 0             @ ../GUILib/src/widgets/lv_label.c:867:91
	add.w	r0, r0, r0, lsl #1
	.loc	12 866 61 is_stmt 1             @ ../GUILib/src/widgets/lv_label.c:866:61
	add	r0, r5
	.loc	12 866 34 is_stmt 0             @ ../GUILib/src/widgets/lv_label.c:866:34
	strh.w	r0, [sp, #50]
	.loc	12 868 50 is_stmt 1             @ ../GUILib/src/widgets/lv_label.c:868:50
	ldrh.w	r0, [r4, #70]
	.loc	12 870 75                       @ ../GUILib/src/widgets/lv_label.c:870:75
	ldr	r3, [r4, #36]
	.loc	12 868 34                       @ ../GUILib/src/widgets/lv_label.c:868:34
	strh.w	r0, [sp, #52]
	add	r0, sp, #60
	add	r1, sp, #20
	add	r2, sp, #28
	.loc	12 870 13                       @ ../GUILib/src/widgets/lv_label.c:870:13
	str	r6, [sp]
	bl	lv_draw_label
.Ltmp126:
.LBB2_33:
	@DEBUG_VALUE: draw_main:flag <- $r7
	@DEBUG_VALUE: draw_main:hint <- $r6
	@DEBUG_VALUE: draw_main:obj <- $r4
	@DEBUG_VALUE: draw_main:label <- $r4
	@DEBUG_VALUE: lv_label_event:e <- [DW_OP_LLVM_entry_value 1] $r1
	@DEBUG_VALUE: lv_label_event:class_p <- [DW_OP_LLVM_entry_value 1] $r0
	.loc	6 135 33                        @ ../GUILib/src/hal/../misc/lv_area.h:135:33
	ldrh.w	r1, [sp, #66]
	.loc	6 135 46 is_stmt 0              @ ../GUILib/src/hal/../misc/lv_area.h:135:46
	ldrh.w	r2, [sp, #62]
.Ltmp127:
	.loc	12 874 17 is_stmt 1             @ ../GUILib/src/widgets/lv_label.c:874:17
	ldrsh.w	r0, [sp, #18]
.Ltmp128:
	@DEBUG_VALUE: lv_area_get_height:area_p <- [DW_OP_plus_uconst 60, DW_OP_stack_value] $sp
	.loc	6 135 49                        @ ../GUILib/src/hal/../misc/lv_area.h:135:49
	subs	r1, r1, r2
	adds	r1, #1
	sxth	r1, r1
.Ltmp129:
	.loc	12 874 12                       @ ../GUILib/src/widgets/lv_label.c:874:12
	cmp	r0, r1
	ble	.LBB2_35
.Ltmp130:
@ %bb.34:
	@DEBUG_VALUE: draw_main:flag <- $r7
	@DEBUG_VALUE: draw_main:hint <- $r6
	@DEBUG_VALUE: draw_main:obj <- $r4
	@DEBUG_VALUE: draw_main:label <- $r4
	@DEBUG_VALUE: lv_label_event:e <- [DW_OP_LLVM_entry_value 1] $r1
	@DEBUG_VALUE: lv_label_event:class_p <- [DW_OP_LLVM_entry_value 1] $r0
	.loc	12 875 50                       @ ../GUILib/src/widgets/lv_label.c:875:50
	ldrh.w	r1, [r4, #68]
	.loc	12 876 50                       @ ../GUILib/src/widgets/lv_label.c:876:50
	ldrh.w	r2, [r4, #70]
	@DEBUG_VALUE: lv_font_get_line_height:font_p <- $r1
	.loc	12 875 34                       @ ../GUILib/src/widgets/lv_label.c:875:34
	strh.w	r1, [sp, #50]
	.loc	12 876 102                      @ ../GUILib/src/widgets/lv_label.c:876:102
	ldr	r1, [sp, #28]
	.loc	12 876 52 is_stmt 0             @ ../GUILib/src/widgets/lv_label.c:876:52
	add	r0, r2
.Ltmp131:
	.loc	17 120 20 is_stmt 1             @ ../GUILib/src/widgets/../font/lv_font.h:120:20
	ldrh	r1, [r1, #8]
.Ltmp132:
	.loc	12 878 75                       @ ../GUILib/src/widgets/lv_label.c:878:75
	ldr	r3, [r4, #36]
	.loc	12 876 61                       @ ../GUILib/src/widgets/lv_label.c:876:61
	add	r0, r1
	.loc	12 876 34 is_stmt 0             @ ../GUILib/src/widgets/lv_label.c:876:34
	strh.w	r0, [sp, #52]
	add	r0, sp, #60
	add	r1, sp, #20
	add	r2, sp, #28
	.loc	12 878 13 is_stmt 1             @ ../GUILib/src/widgets/lv_label.c:878:13
	str	r6, [sp]
	bl	lv_draw_label
.Ltmp133:
.LBB2_35:
	@DEBUG_VALUE: lv_label_event:class_p <- [DW_OP_LLVM_entry_value 1] $r0
	.loc	12 788 1                        @ ../GUILib/src/widgets/lv_label.c:788:1
	add	sp, #68
	pop.w	{r4, r5, r6, r7, r8, r9, pc}
.Ltmp134:
.Lfunc_end2:
	.size	lv_label_event, .Lfunc_end2-lv_label_event
	.cfi_endproc
	.cantunwind
	.fnend
                                        @ -- End function
	.section	.text.lv_label_create,"ax",%progbits
	.hidden	lv_label_create                 @ -- Begin function lv_label_create
	.globl	lv_label_create
	.p2align	1
	.type	lv_label_create,%function
	.code	16                              @ @lv_label_create
	.thumb_func
lv_label_create:
.Lfunc_begin3:
	.loc	12 74 0                         @ ../GUILib/src/widgets/lv_label.c:74:0
	.fnstart
	.cfi_startproc
@ %bb.0:
	@DEBUG_VALUE: lv_label_create:parent <- $r0
	.save	{r4, lr}
	push	{r4, lr}
	.cfi_def_cfa_offset 8
	.cfi_offset lr, -4
	.cfi_offset r4, -8
	mov	r1, r0
.Ltmp135:
	@DEBUG_VALUE: lv_label_create:parent <- $r1
	.loc	12 76 22 prologue_end           @ ../GUILib/src/widgets/lv_label.c:76:22
	movw	r0, :lower16:lv_label_class
	movt	r0, :upper16:lv_label_class
	@DEBUG_VALUE: lv_label_create:parent <- $r1
	bl	lv_obj_class_create_obj
.Ltmp136:
	mov	r4, r0
.Ltmp137:
	@DEBUG_VALUE: lv_label_create:obj <- $r4
	.loc	12 77 5                         @ ../GUILib/src/widgets/lv_label.c:77:5
	bl	lv_obj_class_init_obj
.Ltmp138:
	.loc	12 78 5                         @ ../GUILib/src/widgets/lv_label.c:78:5
	mov	r0, r4
	pop	{r4, pc}
.Ltmp139:
.Lfunc_end3:
	.size	lv_label_create, .Lfunc_end3-lv_label_create
	.cfi_endproc
	.cantunwind
	.fnend
                                        @ -- End function
	.section	.text.lv_label_set_text,"ax",%progbits
	.hidden	lv_label_set_text               @ -- Begin function lv_label_set_text
	.globl	lv_label_set_text
	.p2align	1
	.type	lv_label_set_text,%function
	.code	16                              @ @lv_label_set_text
	.thumb_func
lv_label_set_text:
.Lfunc_begin4:
	.loc	12 86 0                         @ ../GUILib/src/widgets/lv_label.c:86:0
	.fnstart
	.cfi_startproc
@ %bb.0:
	@DEBUG_VALUE: lv_label_set_text:obj <- $r0
	@DEBUG_VALUE: lv_label_set_text:text <- $r1
	.save	{r4, r5, r6, lr}
	push	{r4, r5, r6, lr}
	.cfi_def_cfa_offset 16
	.cfi_offset lr, -4
	.cfi_offset r6, -8
	.cfi_offset r5, -12
	.cfi_offset r4, -16
.Ltmp140:
	@DEBUG_VALUE: lv_label_set_text:label <- $r0
	mov	r5, r1
.Ltmp141:
	@DEBUG_VALUE: lv_label_set_text:text <- $r5
	mov	r4, r0
.Ltmp142:
	@DEBUG_VALUE: lv_label_set_text:label <- $r4
	@DEBUG_VALUE: lv_label_set_text:text <- $r5
	@DEBUG_VALUE: lv_label_set_text:obj <- $r4
	.loc	12 90 5 prologue_end            @ ../GUILib/src/widgets/lv_label.c:90:5
	bl	lv_obj_invalidate
.Ltmp143:
	.loc	12 0 0 is_stmt 0                @ ../GUILib/src/widgets/lv_label.c:0:0
	ldr	r6, [r4, #36]
	mov	r0, r6
	.loc	12 93 8 is_stmt 1               @ ../GUILib/src/widgets/lv_label.c:93:8
	cbz	r5, .LBB4_2
.Ltmp144:
@ %bb.1:
	@DEBUG_VALUE: lv_label_set_text:text <- $r5
	@DEBUG_VALUE: lv_label_set_text:obj <- $r4
	@DEBUG_VALUE: lv_label_set_text:label <- $r4
	.loc	12 95 28                        @ ../GUILib/src/widgets/lv_label.c:95:28
	cmp	r6, r5
	mov	r0, r5
	bne	.LBB4_5
.Ltmp145:
.LBB4_2:
	@DEBUG_VALUE: lv_label_set_text:text <- $r5
	@DEBUG_VALUE: lv_label_set_text:obj <- $r4
	@DEBUG_VALUE: lv_label_set_text:label <- $r4
	.loc	12 95 38 is_stmt 0              @ ../GUILib/src/widgets/lv_label.c:95:38
	ldrb.w	r1, [r4, #72]
	mov	r5, r0
.Ltmp146:
	.loc	12 95 8                         @ ../GUILib/src/widgets/lv_label.c:95:8
	lsls	r1, r1, #28
	bmi	.LBB4_5
.Ltmp147:
@ %bb.3:
	@DEBUG_VALUE: lv_label_set_text:obj <- $r4
	@DEBUG_VALUE: lv_label_set_text:label <- $r4
	.loc	12 107 51 is_stmt 1             @ ../GUILib/src/widgets/lv_label.c:107:51
	mov	r0, r6
	bl	strlen
.Ltmp148:
	.loc	12 107 71 is_stmt 0             @ ../GUILib/src/widgets/lv_label.c:107:71
	adds	r1, r0, #1
	.loc	12 107 23                       @ ../GUILib/src/widgets/lv_label.c:107:23
	mov	r0, r6
	bl	lv_mem_realloc
.Ltmp149:
	.loc	12 107 21                       @ ../GUILib/src/widgets/lv_label.c:107:21
	str	r0, [r4, #36]
.Ltmp150:
	.loc	12 110 9 is_stmt 1              @ ../GUILib/src/widgets/lv_label.c:110:9
	cbnz	r0, .LBB4_10
.Ltmp151:
	.p2align	2
.LBB4_4:                                @ =>This Inner Loop Header: Depth=1
	@DEBUG_VALUE: lv_label_set_text:obj <- $r4
	@DEBUG_VALUE: lv_label_set_text:label <- $r4
	.loc	12 110 9 is_stmt 0              @ ../GUILib/src/widgets/lv_label.c:110:9
	b	.LBB4_4
.Ltmp152:
.LBB4_5:
	@DEBUG_VALUE: lv_label_set_text:obj <- $r4
	@DEBUG_VALUE: lv_label_set_text:label <- $r4
	.loc	12 115 32 is_stmt 1             @ ../GUILib/src/widgets/lv_label.c:115:32
	cbz	r6, .LBB4_8
.Ltmp153:
@ %bb.6:
	@DEBUG_VALUE: lv_label_set_text:obj <- $r4
	@DEBUG_VALUE: lv_label_set_text:label <- $r4
	.loc	12 115 42 is_stmt 0             @ ../GUILib/src/widgets/lv_label.c:115:42
	ldrb.w	r0, [r4, #72]
.Ltmp154:
	.loc	12 115 12                       @ ../GUILib/src/widgets/lv_label.c:115:12
	lsls	r0, r0, #28
	bmi	.LBB4_8
.Ltmp155:
@ %bb.7:
	@DEBUG_VALUE: lv_label_set_text:obj <- $r4
	@DEBUG_VALUE: lv_label_set_text:label <- $r4
	.loc	12 116 13 is_stmt 1             @ ../GUILib/src/widgets/lv_label.c:116:13
	mov	r0, r6
	bl	lv_mem_free
.Ltmp156:
	.loc	12 0 13 is_stmt 0               @ ../GUILib/src/widgets/lv_label.c:0:13
	movs	r0, #0
	.loc	12 117 25 is_stmt 1             @ ../GUILib/src/widgets/lv_label.c:117:25
	str	r0, [r4, #36]
.Ltmp157:
.LBB4_8:
	@DEBUG_VALUE: lv_label_set_text:obj <- $r4
	@DEBUG_VALUE: lv_label_set_text:label <- $r4
	.loc	12 131 22                       @ ../GUILib/src/widgets/lv_label.c:131:22
	mov	r0, r5
	bl	strlen
.Ltmp158:
	.loc	12 131 35 is_stmt 0             @ ../GUILib/src/widgets/lv_label.c:131:35
	adds	r0, #1
.Ltmp159:
	@DEBUG_VALUE: len <- $r0
	.loc	12 134 23 is_stmt 1             @ ../GUILib/src/widgets/lv_label.c:134:23
	bl	lv_mem_alloc
.Ltmp160:
	.loc	12 134 21 is_stmt 0             @ ../GUILib/src/widgets/lv_label.c:134:21
	str	r0, [r4, #36]
.Ltmp161:
	.loc	12 135 9 is_stmt 1              @ ../GUILib/src/widgets/lv_label.c:135:9
	cbz	r0, .LBB4_11
.Ltmp162:
@ %bb.9:
	@DEBUG_VALUE: lv_label_set_text:obj <- $r4
	@DEBUG_VALUE: lv_label_set_text:label <- $r4
	.loc	12 137 9                        @ ../GUILib/src/widgets/lv_label.c:137:9
	mov	r1, r5
	bl	strcpy
.Ltmp163:
	.loc	12 141 27                       @ ../GUILib/src/widgets/lv_label.c:141:27
	ldrb.w	r0, [r4, #72]
	and	r0, r0, #247
	strb.w	r0, [r4, #72]
.Ltmp164:
.LBB4_10:
	@DEBUG_VALUE: lv_label_set_text:obj <- $r4
	@DEBUG_VALUE: lv_label_set_text:label <- $r4
	.loc	12 144 5                        @ ../GUILib/src/widgets/lv_label.c:144:5
	mov	r0, r4
	pop.w	{r4, r5, r6, lr}
.Ltmp165:
	b	lv_label_refr_text
.Ltmp166:
	.p2align	2
.LBB4_11:                               @ =>This Inner Loop Header: Depth=1
	@DEBUG_VALUE: lv_label_set_text:obj <- $r4
	@DEBUG_VALUE: lv_label_set_text:label <- $r4
	.loc	12 135 9                        @ ../GUILib/src/widgets/lv_label.c:135:9
	b	.LBB4_11
.Ltmp167:
.Lfunc_end4:
	.size	lv_label_set_text, .Lfunc_end4-lv_label_set_text
	.cfi_endproc
	.cantunwind
	.fnend
                                        @ -- End function
	.section	.text.lv_label_refr_text,"ax",%progbits
	.p2align	1                               @ -- Begin function lv_label_refr_text
	.type	lv_label_refr_text,%function
	.code	16                              @ @lv_label_refr_text
	.thumb_func
lv_label_refr_text:
.Lfunc_begin5:
	.loc	12 888 0                        @ ../GUILib/src/widgets/lv_label.c:888:0
	.fnstart
	.cfi_startproc
@ %bb.0:
	@DEBUG_VALUE: lv_label_refr_text:obj <- $r0
	.save	{r4, r5, r6, r7, r8, r9, r10, r11, lr}
	push.w	{r4, r5, r6, r7, r8, r9, r10, r11, lr}
	.cfi_def_cfa_offset 36
	.cfi_offset lr, -4
	.cfi_offset r11, -8
	.cfi_offset r10, -12
	.cfi_offset r9, -16
	.cfi_offset r8, -20
	.cfi_offset r7, -24
	.cfi_offset r6, -28
	.cfi_offset r5, -32
	.cfi_offset r4, -36
	.pad	#92
	sub	sp, #92
	.cfi_def_cfa_offset 128
	mov	r11, r0
.Ltmp168:
	@DEBUG_VALUE: lv_label_refr_text:label <- $r11
	@DEBUG_VALUE: lv_label_refr_text:obj <- $r11
	.loc	12 890 15 prologue_end          @ ../GUILib/src/widgets/lv_label.c:890:15
	ldr	r0, [r0, #36]
.Ltmp169:
	.loc	12 890 8 is_stmt 0              @ ../GUILib/src/widgets/lv_label.c:890:8
	cmp	r0, #0
	beq.w	.LBB5_63
.Ltmp170:
@ %bb.1:
	@DEBUG_VALUE: lv_label_refr_text:obj <- $r11
	@DEBUG_VALUE: lv_label_refr_text:label <- $r11
	.loc	12 0 8                          @ ../GUILib/src/widgets/lv_label.c:0:8
	mov.w	r0, #-1
	.loc	12 892 28 is_stmt 1             @ ../GUILib/src/widgets/lv_label.c:892:28
	str.w	r0, [r11, #48]
	add	r1, sp, #84
	.loc	12 896 5                        @ ../GUILib/src/widgets/lv_label.c:896:5
	mov	r0, r11
	bl	lv_obj_get_content_coords
.Ltmp171:
	@DEBUG_VALUE: lv_area_get_width:area_p <- [DW_OP_plus_uconst 84, DW_OP_stack_value] $sp
	.loc	6 125 33                        @ ../GUILib/src/hal/../misc/lv_area.h:125:33
	ldrh.w	r0, [sp, #88]
	.loc	6 125 46 is_stmt 0              @ ../GUILib/src/hal/../misc/lv_area.h:125:46
	ldrh.w	r1, [sp, #84]
.Ltmp172:
	.loc	18 333 26 is_stmt 1             @ ../GUILib/src/widgets/../core/lv_obj_style_gen.h:333:26
	movw	r2, #5209
.Ltmp173:
	.loc	6 125 49                        @ ../GUILib/src/hal/../misc/lv_area.h:125:49
	subs	r0, r0, r1
	adds	r5, r0, #1
.Ltmp174:
	@DEBUG_VALUE: lv_obj_get_style_text_font:part <- 0
	@DEBUG_VALUE: lv_obj_get_style_text_font:obj <- $r11
	@DEBUG_VALUE: lv_label_refr_text:max_w <- $r5
	.loc	18 333 26                       @ ../GUILib/src/widgets/../core/lv_obj_style_gen.h:333:26
	mov	r0, r11
	movs	r1, #0
	bl	lv_obj_get_style_prop
.Ltmp175:
	mov	r10, r0
.Ltmp176:
	@DEBUG_VALUE: lv_obj_get_style_text_line_space:part <- 0
	@DEBUG_VALUE: lv_obj_get_style_text_line_space:obj <- $r11
	@DEBUG_VALUE: lv_label_refr_text:font <- $r10
	@DEBUG_VALUE: lv_obj_get_style_text_font:v <- $r10
	.loc	18 345 26                       @ ../GUILib/src/widgets/../core/lv_obj_style_gen.h:345:26
	mov	r0, r11
	movs	r1, #0
	movw	r2, #5211
	bl	lv_obj_get_style_prop
.Ltmp177:
	mov	r6, r0
.Ltmp178:
	@DEBUG_VALUE: lv_obj_get_style_text_letter_space:part <- 0
	@DEBUG_VALUE: lv_obj_get_style_text_letter_space:obj <- $r11
	@DEBUG_VALUE: lv_label_refr_text:line_space <- [DW_OP_LLVM_convert 32 7, DW_OP_LLVM_convert 16 7, DW_OP_stack_value] $r6
	@DEBUG_VALUE: lv_obj_get_style_text_line_space:v <- $r6
	.loc	18 339 26                       @ ../GUILib/src/widgets/../core/lv_obj_style_gen.h:339:26
	mov	r0, r11
	movs	r1, #0
	movw	r2, #5210
	bl	lv_obj_get_style_prop
.Ltmp179:
	.loc	12 905 15                       @ ../GUILib/src/widgets/lv_label.c:905:15
	ldrb.w	r1, [r11, #72]
.Ltmp180:
	@DEBUG_VALUE: lv_label_refr_text:flag <- [DW_OP_constu 1, DW_OP_and, DW_OP_stack_value] undef
	.loc	18 339 26                       @ ../GUILib/src/widgets/../core/lv_obj_style_gen.h:339:26
	mov	r7, r0
.Ltmp181:
	@DEBUG_VALUE: lv_label_refr_text:letter_space <- [DW_OP_LLVM_convert 32 7, DW_OP_LLVM_convert 16 7, DW_OP_stack_value] $r7
	@DEBUG_VALUE: lv_obj_get_style_text_letter_space:v <- $r7
	@DEBUG_VALUE: lv_label_refr_text:flag <- 0
	@DEBUG_VALUE: lv_obj_get_style_text_letter_space:part <- 0
	@DEBUG_VALUE: lv_obj_get_style_text_letter_space:obj <- $r11
	.loc	12 906 8                        @ ../GUILib/src/widgets/lv_label.c:906:8
	ubfx	r4, r1, #4, #2
.Ltmp182:
	@DEBUG_VALUE: lv_obj_get_style_width:part <- 0
	@DEBUG_VALUE: lv_obj_get_style_width:obj <- $r11
	@DEBUG_VALUE: lv_label_refr_text:flag <- $r4
	.loc	18 3 26                         @ ../GUILib/src/widgets/../core/lv_obj_style_gen.h:3:26
	mov	r0, r11
	movs	r1, #0
	movw	r2, #4097
	bl	lv_obj_get_style_prop
.Ltmp183:
	@DEBUG_VALUE: lv_obj_get_style_width:v <- $r0
	.loc	18 4 12                         @ ../GUILib/src/widgets/../core/lv_obj_style_gen.h:4:12
	uxth	r0, r0
.Ltmp184:
	.loc	18 0 12 is_stmt 0               @ ../GUILib/src/widgets/../core/lv_obj_style_gen.h:0:12
	movw	r1, #10193
.Ltmp185:
	.loc	12 907 69 is_stmt 1             @ ../GUILib/src/widgets/lv_label.c:907:69
	cmp	r0, r1
	bne	.LBB5_3
.Ltmp186:
@ %bb.2:
	@DEBUG_VALUE: lv_label_refr_text:obj <- $r11
	@DEBUG_VALUE: lv_label_refr_text:label <- $r11
	@DEBUG_VALUE: lv_label_refr_text:font <- $r10
	@DEBUG_VALUE: lv_label_refr_text:letter_space <- [DW_OP_LLVM_convert 32 7, DW_OP_LLVM_convert 16 7, DW_OP_stack_value] $r7
	@DEBUG_VALUE: lv_label_refr_text:line_space <- [DW_OP_LLVM_convert 32 7, DW_OP_LLVM_convert 16 7, DW_OP_stack_value] $r6
	@DEBUG_VALUE: lv_label_refr_text:max_w <- $r5
	@DEBUG_VALUE: lv_label_refr_text:flag <- $r4
	.loc	12 907 78 is_stmt 0             @ ../GUILib/src/widgets/lv_label.c:907:78
	ldrh.w	r0, [r11, #34]
.Ltmp187:
	.loc	12 907 8                        @ ../GUILib/src/widgets/lv_label.c:907:8
	lsls	r0, r0, #21
	it	pl
	addpl	r4, #4
.Ltmp188:
.LBB5_3:
	@DEBUG_VALUE: lv_label_refr_text:obj <- $r11
	@DEBUG_VALUE: lv_label_refr_text:label <- $r11
	@DEBUG_VALUE: lv_label_refr_text:font <- $r10
	@DEBUG_VALUE: lv_label_refr_text:letter_space <- [DW_OP_LLVM_convert 32 7, DW_OP_LLVM_convert 16 7, DW_OP_stack_value] $r7
	@DEBUG_VALUE: lv_label_refr_text:line_space <- [DW_OP_LLVM_convert 32 7, DW_OP_LLVM_convert 16 7, DW_OP_stack_value] $r6
	@DEBUG_VALUE: lv_label_refr_text:max_w <- $r5
	@DEBUG_VALUE: lv_label_refr_text:flag <- $r4
	.loc	12 909 35 is_stmt 1             @ ../GUILib/src/widgets/lv_label.c:909:35
	ldr.w	r1, [r11, #36]
	.loc	12 909 5 is_stmt 0              @ ../GUILib/src/widgets/lv_label.c:909:5
	sxth	r0, r5
	sxth	r2, r6
	strd	r2, r0, [sp]
	sxth	r3, r7
	add	r0, sp, #80
	mov	r2, r10
	str	r4, [sp, #8]
	bl	lv_txt_get_size
.Ltmp189:
	.loc	12 911 5 is_stmt 1              @ ../GUILib/src/widgets/lv_label.c:911:5
	mov	r0, r11
	bl	lv_obj_refresh_self_size
.Ltmp190:
	.loc	12 914 15                       @ ../GUILib/src/widgets/lv_label.c:914:15
	ldrb.w	r0, [r11, #72]
.Ltmp191:
	.loc	12 914 8 is_stmt 0              @ ../GUILib/src/widgets/lv_label.c:914:8
	and	r0, r0, #7
	cmp	r0, #1
	beq	.LBB5_11
.Ltmp192:
@ %bb.4:
	@DEBUG_VALUE: lv_label_refr_text:obj <- $r11
	@DEBUG_VALUE: lv_label_refr_text:label <- $r11
	@DEBUG_VALUE: lv_label_refr_text:font <- $r10
	@DEBUG_VALUE: lv_label_refr_text:letter_space <- [DW_OP_LLVM_convert 32 7, DW_OP_LLVM_convert 16 7, DW_OP_stack_value] $r7
	@DEBUG_VALUE: lv_label_refr_text:line_space <- [DW_OP_LLVM_convert 32 7, DW_OP_LLVM_convert 16 7, DW_OP_stack_value] $r6
	@DEBUG_VALUE: lv_label_refr_text:max_w <- $r5
	@DEBUG_VALUE: lv_label_refr_text:flag <- $r4
	cmp	r0, #3
	beq	.LBB5_14
.Ltmp193:
@ %bb.5:
	@DEBUG_VALUE: lv_label_refr_text:obj <- $r11
	@DEBUG_VALUE: lv_label_refr_text:label <- $r11
	@DEBUG_VALUE: lv_label_refr_text:font <- $r10
	@DEBUG_VALUE: lv_label_refr_text:letter_space <- [DW_OP_LLVM_convert 32 7, DW_OP_LLVM_convert 16 7, DW_OP_stack_value] $r7
	@DEBUG_VALUE: lv_label_refr_text:line_space <- [DW_OP_LLVM_convert 32 7, DW_OP_LLVM_convert 16 7, DW_OP_stack_value] $r6
	@DEBUG_VALUE: lv_label_refr_text:max_w <- $r5
	@DEBUG_VALUE: lv_label_refr_text:flag <- $r4
	cmp	r0, #2
	bne.w	.LBB5_62
.Ltmp194:
@ %bb.6:
	@DEBUG_VALUE: lv_label_refr_text:obj <- $r11
	@DEBUG_VALUE: lv_label_refr_text:label <- $r11
	@DEBUG_VALUE: lv_label_refr_text:font <- $r10
	@DEBUG_VALUE: lv_label_refr_text:letter_space <- [DW_OP_LLVM_convert 32 7, DW_OP_LLVM_convert 16 7, DW_OP_stack_value] $r7
	@DEBUG_VALUE: lv_label_refr_text:line_space <- [DW_OP_LLVM_convert 32 7, DW_OP_LLVM_convert 16 7, DW_OP_stack_value] $r6
	@DEBUG_VALUE: lv_label_refr_text:max_w <- $r5
	@DEBUG_VALUE: lv_label_refr_text:flag <- $r4
	@DEBUG_VALUE: lv_obj_get_style_anim_speed:obj <- $r11
	@DEBUG_VALUE: lv_obj_get_style_anim_speed:part <- 0
	.loc	18 165 26 is_stmt 1             @ ../GUILib/src/widgets/../core/lv_obj_style_gen.h:165:26
	mov	r0, r11
	movs	r1, #0
	movs	r2, #102
	bl	lv_obj_get_style_prop
.Ltmp195:
	mov	r8, r0
.Ltmp196:
	@DEBUG_VALUE: anim_speed <- [DW_OP_LLVM_convert 32 7, DW_OP_LLVM_convert 16 7, DW_OP_stack_value] $r8
	@DEBUG_VALUE: lv_obj_get_style_anim_speed:v <- $r8
	.loc	12 916 12                       @ ../GUILib/src/widgets/lv_label.c:916:12
	lsls	r0, r0, #16
	bne	.LBB5_8
.Ltmp197:
@ %bb.7:
	@DEBUG_VALUE: lv_label_refr_text:obj <- $r11
	@DEBUG_VALUE: lv_label_refr_text:label <- $r11
	@DEBUG_VALUE: lv_label_refr_text:font <- $r10
	@DEBUG_VALUE: anim_speed <- [DW_OP_LLVM_convert 32 7, DW_OP_LLVM_convert 16 7, DW_OP_stack_value] $r8
	@DEBUG_VALUE: lv_label_refr_text:letter_space <- [DW_OP_LLVM_convert 32 7, DW_OP_LLVM_convert 16 7, DW_OP_stack_value] $r7
	@DEBUG_VALUE: lv_label_refr_text:line_space <- [DW_OP_LLVM_convert 32 7, DW_OP_LLVM_convert 16 7, DW_OP_stack_value] $r6
	@DEBUG_VALUE: lv_label_refr_text:max_w <- $r5
	@DEBUG_VALUE: lv_label_refr_text:flag <- $r4
	.loc	12 916 42 is_stmt 0             @ ../GUILib/src/widgets/lv_label.c:916:42
	mov	r0, r11
	bl	lv_obj_get_disp
.Ltmp198:
	bl	lv_disp_get_dpi
.Ltmp199:
	.loc	12 0 42                         @ ../GUILib/src/widgets/lv_label.c:0:42
	movw	r1, #21846
	movt	r1, #21845
	.loc	12 916 42                       @ ../GUILib/src/widgets/lv_label.c:916:42
	smmul	r0, r0, r1
	add.w	r0, r0, r0, lsr #31
	uxth.w	r8, r0
.Ltmp200:
	@DEBUG_VALUE: anim_speed <- [DW_OP_LLVM_convert 32 7, DW_OP_LLVM_convert 16 7, DW_OP_stack_value] $r8
.LBB5_8:
	@DEBUG_VALUE: lv_label_refr_text:obj <- $r11
	@DEBUG_VALUE: lv_label_refr_text:label <- $r11
	@DEBUG_VALUE: lv_label_refr_text:font <- $r10
	@DEBUG_VALUE: anim_speed <- [DW_OP_LLVM_convert 32 7, DW_OP_LLVM_convert 16 7, DW_OP_stack_value] $r8
	@DEBUG_VALUE: lv_label_refr_text:letter_space <- [DW_OP_LLVM_convert 32 7, DW_OP_LLVM_convert 16 7, DW_OP_stack_value] $r7
	@DEBUG_VALUE: lv_label_refr_text:line_space <- [DW_OP_LLVM_convert 32 7, DW_OP_LLVM_convert 16 7, DW_OP_stack_value] $r6
	@DEBUG_VALUE: lv_label_refr_text:max_w <- $r5
	@DEBUG_VALUE: lv_label_refr_text:flag <- $r4
	@DEBUG_VALUE: anim_speed <- [DW_OP_LLVM_convert 32 7, DW_OP_LLVM_convert 16 7, DW_OP_stack_value] $r8
	.loc	12 0 42                         @ ../GUILib/src/widgets/lv_label.c:0:42
	add	r0, sp, #16
	.loc	12 918 9 is_stmt 1              @ ../GUILib/src/widgets/lv_label.c:918:9
	bl	lv_anim_init
.Ltmp201:
	@DEBUG_VALUE: lv_anim_set_var:var <- $r11
	@DEBUG_VALUE: lv_anim_set_var:a <- [DW_OP_plus_uconst 16, DW_OP_stack_value] $sp
	.loc	6 125 33                        @ ../GUILib/src/hal/../misc/lv_area.h:125:33
	ldrh.w	r1, [sp, #88]
	.loc	6 125 46 is_stmt 0              @ ../GUILib/src/hal/../misc/lv_area.h:125:46
	ldrh.w	r2, [sp, #84]
.Ltmp202:
	@DEBUG_VALUE: lv_anim_set_playback_delay:delay <- 300
	@DEBUG_VALUE: lv_anim_set_playback_delay:a <- [DW_OP_plus_uconst 16, DW_OP_stack_value] $sp
	.loc	6 0 46                          @ ../GUILib/src/hal/../misc/lv_area.h:0:46
	mvn	r0, #2
.Ltmp203:
	@DEBUG_VALUE: lv_anim_set_repeat_count:cnt <- -1
	@DEBUG_VALUE: lv_anim_set_repeat_count:a <- [DW_OP_plus_uconst 16, DW_OP_stack_value] $sp
	.loc	6 125 49                        @ ../GUILib/src/hal/../misc/lv_area.h:125:49
	subs	r1, r1, r2
.Ltmp204:
	.loc	12 925 17 is_stmt 1             @ ../GUILib/src/widgets/lv_label.c:925:17
	ldrsh.w	r7, [sp, #80]
.Ltmp205:
	@DEBUG_VALUE: lv_area_get_width:area_p <- [DW_OP_plus_uconst 84, DW_OP_stack_value] $sp
	.loc	6 125 49                        @ ../GUILib/src/hal/../misc/lv_area.h:125:49
	adds	r1, #1
.Ltmp206:
	.file	20 "C:\\Users\\Hyacincher\\Desktop\\HyTelectrl\\Code\\Project" "../GUILib/src/widgets/../core/../misc/lv_anim.h"
	.loc	20 254 19                       @ ../GUILib/src/widgets/../core/../misc/lv_anim.h:254:19
	adds	r0, #2
.Ltmp207:
	.loc	6 125 49                        @ ../GUILib/src/hal/../misc/lv_area.h:125:49
	sxth	r6, r1
.Ltmp208:
	.loc	20 254 19                       @ ../GUILib/src/widgets/../core/../misc/lv_anim.h:254:19
	strh.w	r0, [sp, #76]
	mov.w	r0, #300
.Ltmp209:
	.loc	12 925 12                       @ ../GUILib/src/widgets/lv_label.c:925:12
	cmp	r7, r6
.Ltmp210:
	@DEBUG_VALUE: lv_anim_set_repeat_delay:delay <- 300
	@DEBUG_VALUE: lv_anim_set_repeat_delay:a <- [DW_OP_plus_uconst 16, DW_OP_stack_value] $sp
	.loc	20 123 12                       @ ../GUILib/src/widgets/../core/../misc/lv_anim.h:123:12
	str.w	r11, [sp, #16]
.Ltmp211:
	.loc	20 244 23                       @ ../GUILib/src/widgets/../core/../misc/lv_anim.h:244:23
	str	r0, [sp, #64]
.Ltmp212:
	.loc	20 264 21                       @ ../GUILib/src/widgets/../core/../misc/lv_anim.h:264:21
	str	r0, [sp, #72]
.Ltmp213:
	@DEBUG_VALUE: hor_anim <- 0
	.loc	12 925 12                       @ ../GUILib/src/widgets/lv_label.c:925:12
	ble.w	.LBB5_22
.Ltmp214:
@ %bb.9:
	@DEBUG_VALUE: lv_label_refr_text:obj <- $r11
	@DEBUG_VALUE: lv_label_refr_text:label <- $r11
	@DEBUG_VALUE: lv_label_refr_text:font <- $r10
	@DEBUG_VALUE: anim_speed <- [DW_OP_LLVM_convert 32 7, DW_OP_LLVM_convert 16 7, DW_OP_stack_value] $r8
	@DEBUG_VALUE: lv_label_refr_text:max_w <- $r5
	@DEBUG_VALUE: lv_label_refr_text:flag <- $r4
	@DEBUG_VALUE: hor_anim <- 0
	@DEBUG_VALUE: lv_area_get_width:area_p <- [DW_OP_plus_uconst 84, DW_OP_stack_value] $sp
	.loc	12 944 70                       @ ../GUILib/src/widgets/lv_label.c:944:70
	subs	r0, r6, r7
.Ltmp215:
	.loc	20 135 16                       @ ../GUILib/src/widgets/../core/../misc/lv_anim.h:135:16
	movw	r1, :lower16:set_ofs_x_anim
	movs	r4, #0
.Ltmp216:
	@DEBUG_VALUE: lv_anim_set_values:start <- 0
	@DEBUG_VALUE: lv_anim_set_values:a <- [DW_OP_plus_uconst 16, DW_OP_stack_value] $sp
	@DEBUG_VALUE: lv_anim_set_values:end <- $r0
	.loc	20 168 18                       @ ../GUILib/src/widgets/../core/../misc/lv_anim.h:168:18
	str	r0, [sp, #52]
.Ltmp217:
	@DEBUG_VALUE: lv_anim_set_exec_cb:exec_cb <- undef
	@DEBUG_VALUE: lv_anim_set_exec_cb:a <- [DW_OP_plus_uconst 16, DW_OP_stack_value] $sp
	@DEBUG_VALUE: lv_anim_set_exec_cb:a <- [DW_OP_plus_uconst 16, DW_OP_stack_value] $sp
	.loc	20 135 16                       @ ../GUILib/src/widgets/../core/../misc/lv_anim.h:135:16
	movt	r1, :upper16:set_ofs_x_anim
.Ltmp218:
	@DEBUG_VALUE: lv_anim_set_exec_cb:exec_cb <- $r1
	.loc	12 949 36                       @ ../GUILib/src/widgets/lv_label.c:949:36
	mov	r0, r11
.Ltmp219:
	.loc	20 166 20                       @ ../GUILib/src/widgets/../core/../misc/lv_anim.h:166:20
	strd	r4, r4, [sp, #44]
.Ltmp220:
	.loc	20 135 16                       @ ../GUILib/src/widgets/../core/../misc/lv_anim.h:135:16
	str	r1, [sp, #20]
.Ltmp221:
	.loc	12 949 36                       @ ../GUILib/src/widgets/lv_label.c:949:36
	bl	lv_anim_get
.Ltmp222:
	@DEBUG_VALUE: playback_now <- 0
	@DEBUG_VALUE: act_time <- 0
	@DEBUG_VALUE: anim_cur <- $r0
	.loc	12 952 16                       @ ../GUILib/src/widgets/lv_label.c:952:16
	cmp	r0, #0
	beq.w	.LBB5_33
.Ltmp223:
@ %bb.10:
	@DEBUG_VALUE: lv_label_refr_text:obj <- $r11
	@DEBUG_VALUE: lv_label_refr_text:label <- $r11
	@DEBUG_VALUE: lv_label_refr_text:font <- $r10
	@DEBUG_VALUE: anim_speed <- [DW_OP_LLVM_convert 32 7, DW_OP_LLVM_convert 16 7, DW_OP_stack_value] $r8
	@DEBUG_VALUE: lv_label_refr_text:max_w <- $r5
	@DEBUG_VALUE: anim_cur <- $r0
	@DEBUG_VALUE: act_time <- 0
	@DEBUG_VALUE: playback_now <- 0
	@DEBUG_VALUE: hor_anim <- 0
	.loc	12 954 42                       @ ../GUILib/src/widgets/lv_label.c:954:42
	ldrb.w	r1, [r0, #62]
	.loc	12 953 38                       @ ../GUILib/src/widgets/lv_label.c:953:38
	ldr	r0, [r0, #44]
.Ltmp224:
	@DEBUG_VALUE: act_time <- $r0
	.loc	12 954 32                       @ ../GUILib/src/widgets/lv_label.c:954:32
	ubfx	r4, r1, #1, #1
.Ltmp225:
	@DEBUG_VALUE: playback_now <- [DW_OP_LLVM_convert 1 7, DW_OP_LLVM_convert 8 7, DW_OP_stack_value] $r4
	.loc	12 0 32 is_stmt 0               @ ../GUILib/src/widgets/lv_label.c:0:32
	b	.LBB5_34
.Ltmp226:
.LBB5_11:
	@DEBUG_VALUE: lv_label_refr_text:obj <- $r11
	@DEBUG_VALUE: lv_label_refr_text:label <- $r11
	@DEBUG_VALUE: lv_label_refr_text:font <- $r10
	@DEBUG_VALUE: lv_label_refr_text:letter_space <- [DW_OP_LLVM_convert 32 7, DW_OP_LLVM_convert 16 7, DW_OP_stack_value] $r7
	@DEBUG_VALUE: lv_label_refr_text:line_space <- [DW_OP_LLVM_convert 32 7, DW_OP_LLVM_convert 16 7, DW_OP_stack_value] $r6
	@DEBUG_VALUE: lv_label_refr_text:max_w <- $r5
	@DEBUG_VALUE: lv_label_refr_text:flag <- $r4
	.loc	6 135 33 is_stmt 1              @ ../GUILib/src/hal/../misc/lv_area.h:135:33
	ldrh.w	r0, [sp, #90]
	.loc	6 135 46 is_stmt 0              @ ../GUILib/src/hal/../misc/lv_area.h:135:46
	ldrh.w	r1, [sp, #86]
.Ltmp227:
	.loc	12 1085 17 is_stmt 1            @ ../GUILib/src/widgets/lv_label.c:1085:17
	ldrsh.w	r2, [sp, #82]
.Ltmp228:
	@DEBUG_VALUE: lv_area_get_height:area_p <- [DW_OP_plus_uconst 84, DW_OP_stack_value] $sp
	.loc	6 135 49                        @ ../GUILib/src/hal/../misc/lv_area.h:135:49
	subs	r0, r0, r1
	adds	r0, #1
	sxth	r0, r0
.Ltmp229:
	.loc	12 1085 12                      @ ../GUILib/src/widgets/lv_label.c:1085:12
	cmp	r2, r0
	ble	.LBB5_13
.Ltmp230:
@ %bb.12:
	@DEBUG_VALUE: lv_label_refr_text:obj <- $r11
	@DEBUG_VALUE: lv_label_refr_text:label <- $r11
	@DEBUG_VALUE: lv_label_refr_text:font <- $r10
	@DEBUG_VALUE: lv_label_refr_text:letter_space <- [DW_OP_LLVM_convert 32 7, DW_OP_LLVM_convert 16 7, DW_OP_stack_value] $r7
	@DEBUG_VALUE: lv_label_refr_text:line_space <- [DW_OP_LLVM_convert 32 7, DW_OP_LLVM_convert 16 7, DW_OP_stack_value] $r6
	@DEBUG_VALUE: lv_label_refr_text:max_w <- $r5
	@DEBUG_VALUE: lv_label_refr_text:flag <- $r4
	.loc	12 1088 17                      @ ../GUILib/src/widgets/lv_label.c:1088:17
	movw	r0, :lower16:_lv_txt_get_encoded_length
	movt	r0, :upper16:_lv_txt_get_encoded_length
	ldr	r1, [r0]
	.loc	12 1088 51 is_stmt 0            @ ../GUILib/src/widgets/lv_label.c:1088:51
	ldr.w	r0, [r11, #36]
	.loc	12 1088 17                      @ ../GUILib/src/widgets/lv_label.c:1088:17
	blx	r1
.Ltmp231:
	.loc	12 1088 17                      @ ../GUILib/src/widgets/lv_label.c:1088:17
	cmp	r0, #3
	bhi.w	.LBB5_30
.Ltmp232:
.LBB5_13:
	@DEBUG_VALUE: lv_label_refr_text:obj <- $r11
	@DEBUG_VALUE: lv_label_refr_text:label <- $r11
	@DEBUG_VALUE: lv_label_refr_text:font <- $r10
	@DEBUG_VALUE: lv_label_refr_text:letter_space <- [DW_OP_LLVM_convert 32 7, DW_OP_LLVM_convert 16 7, DW_OP_stack_value] $r7
	@DEBUG_VALUE: lv_label_refr_text:line_space <- [DW_OP_LLVM_convert 32 7, DW_OP_LLVM_convert 16 7, DW_OP_stack_value] $r6
	@DEBUG_VALUE: lv_label_refr_text:max_w <- $r5
	@DEBUG_VALUE: lv_label_refr_text:flag <- $r4
	.loc	12 0 17                         @ ../GUILib/src/widgets/lv_label.c:0:17
	mov.w	r0, #-1
	b	.LBB5_61
.Ltmp233:
.LBB5_14:
	@DEBUG_VALUE: lv_label_refr_text:obj <- $r11
	@DEBUG_VALUE: lv_label_refr_text:label <- $r11
	@DEBUG_VALUE: lv_label_refr_text:font <- $r10
	@DEBUG_VALUE: lv_label_refr_text:letter_space <- [DW_OP_LLVM_convert 32 7, DW_OP_LLVM_convert 16 7, DW_OP_stack_value] $r7
	@DEBUG_VALUE: lv_label_refr_text:line_space <- [DW_OP_LLVM_convert 32 7, DW_OP_LLVM_convert 16 7, DW_OP_stack_value] $r6
	@DEBUG_VALUE: lv_label_refr_text:max_w <- $r5
	@DEBUG_VALUE: lv_label_refr_text:flag <- $r4
	@DEBUG_VALUE: lv_obj_get_style_anim_speed:obj <- $r11
	@DEBUG_VALUE: lv_obj_get_style_anim_speed:part <- 0
	.loc	18 165 26 is_stmt 1             @ ../GUILib/src/widgets/../core/lv_obj_style_gen.h:165:26
	mov	r0, r11
	movs	r1, #0
	movs	r2, #102
	bl	lv_obj_get_style_prop
.Ltmp234:
	mov	r9, r0
.Ltmp235:
	@DEBUG_VALUE: anim_speed <- [DW_OP_LLVM_convert 32 7, DW_OP_LLVM_convert 16 7, DW_OP_stack_value] $r9
	@DEBUG_VALUE: lv_obj_get_style_anim_speed:v <- $r9
	.loc	12 1017 12                      @ ../GUILib/src/widgets/lv_label.c:1017:12
	lsls	r0, r0, #16
	bne	.LBB5_16
.Ltmp236:
@ %bb.15:
	@DEBUG_VALUE: lv_label_refr_text:obj <- $r11
	@DEBUG_VALUE: lv_label_refr_text:label <- $r11
	@DEBUG_VALUE: lv_label_refr_text:font <- $r10
	@DEBUG_VALUE: anim_speed <- [DW_OP_LLVM_convert 32 7, DW_OP_LLVM_convert 16 7, DW_OP_stack_value] $r9
	@DEBUG_VALUE: lv_label_refr_text:letter_space <- [DW_OP_LLVM_convert 32 7, DW_OP_LLVM_convert 16 7, DW_OP_stack_value] $r7
	@DEBUG_VALUE: lv_label_refr_text:line_space <- [DW_OP_LLVM_convert 32 7, DW_OP_LLVM_convert 16 7, DW_OP_stack_value] $r6
	@DEBUG_VALUE: lv_label_refr_text:max_w <- $r5
	@DEBUG_VALUE: lv_label_refr_text:flag <- $r4
	.loc	12 1017 42 is_stmt 0            @ ../GUILib/src/widgets/lv_label.c:1017:42
	mov	r0, r11
	bl	lv_obj_get_disp
.Ltmp237:
	bl	lv_disp_get_dpi
.Ltmp238:
	.loc	12 0 42                         @ ../GUILib/src/widgets/lv_label.c:0:42
	movw	r1, #21846
	movt	r1, #21845
	.loc	12 1017 42                      @ ../GUILib/src/widgets/lv_label.c:1017:42
	smmul	r0, r0, r1
	add.w	r0, r0, r0, lsr #31
	uxth.w	r9, r0
.Ltmp239:
	@DEBUG_VALUE: anim_speed <- [DW_OP_LLVM_convert 32 7, DW_OP_LLVM_convert 16 7, DW_OP_stack_value] $r9
.LBB5_16:
	@DEBUG_VALUE: lv_label_refr_text:obj <- $r11
	@DEBUG_VALUE: lv_label_refr_text:label <- $r11
	@DEBUG_VALUE: lv_label_refr_text:font <- $r10
	@DEBUG_VALUE: anim_speed <- [DW_OP_LLVM_convert 32 7, DW_OP_LLVM_convert 16 7, DW_OP_stack_value] $r9
	@DEBUG_VALUE: lv_label_refr_text:letter_space <- [DW_OP_LLVM_convert 32 7, DW_OP_LLVM_convert 16 7, DW_OP_stack_value] $r7
	@DEBUG_VALUE: lv_label_refr_text:line_space <- [DW_OP_LLVM_convert 32 7, DW_OP_LLVM_convert 16 7, DW_OP_stack_value] $r6
	@DEBUG_VALUE: lv_label_refr_text:max_w <- $r5
	@DEBUG_VALUE: lv_label_refr_text:flag <- $r4
	@DEBUG_VALUE: anim_speed <- [DW_OP_LLVM_convert 32 7, DW_OP_LLVM_convert 16 7, DW_OP_stack_value] $r9
	.loc	12 0 42                         @ ../GUILib/src/widgets/lv_label.c:0:42
	add	r0, sp, #16
	.loc	12 1019 9 is_stmt 1             @ ../GUILib/src/widgets/lv_label.c:1019:9
	bl	lv_anim_init
.Ltmp240:
	@DEBUG_VALUE: lv_anim_set_var:var <- $r11
	@DEBUG_VALUE: lv_anim_set_var:a <- [DW_OP_plus_uconst 16, DW_OP_stack_value] $sp
	.loc	6 125 33                        @ ../GUILib/src/hal/../misc/lv_area.h:125:33
	ldrh.w	r1, [sp, #88]
	.loc	6 125 46 is_stmt 0              @ ../GUILib/src/hal/../misc/lv_area.h:125:46
	ldrh.w	r2, [sp, #84]
.Ltmp241:
	@DEBUG_VALUE: lv_anim_set_repeat_count:cnt <- -1
	@DEBUG_VALUE: lv_anim_set_repeat_count:a <- [DW_OP_plus_uconst 16, DW_OP_stack_value] $sp
	.loc	12 1024 17 is_stmt 1            @ ../GUILib/src/widgets/lv_label.c:1024:17
	ldrsh.w	r7, [sp, #80]
.Ltmp242:
	@DEBUG_VALUE: lv_area_get_width:area_p <- [DW_OP_plus_uconst 84, DW_OP_stack_value] $sp
	.loc	6 125 49                        @ ../GUILib/src/hal/../misc/lv_area.h:125:49
	subs	r1, r1, r2
	adds	r1, #1
	mvn	r0, #2
	sxth	r6, r1
.Ltmp243:
	.loc	20 254 19                       @ ../GUILib/src/widgets/../core/../misc/lv_anim.h:254:19
	adds	r0, #2
.Ltmp244:
	.loc	12 1024 12                      @ ../GUILib/src/widgets/lv_label.c:1024:12
	cmp	r7, r6
.Ltmp245:
	.loc	20 123 12                       @ ../GUILib/src/widgets/../core/../misc/lv_anim.h:123:12
	str.w	r11, [sp, #16]
.Ltmp246:
	.loc	20 254 19                       @ ../GUILib/src/widgets/../core/../misc/lv_anim.h:254:19
	strh.w	r0, [sp, #76]
.Ltmp247:
	@DEBUG_VALUE: hor_anim <- 0
	@DEBUG_VALUE: lv_anim_set_repeat_count:cnt <- -1
	@DEBUG_VALUE: lv_anim_set_repeat_count:a <- [DW_OP_plus_uconst 16, DW_OP_stack_value] $sp
	.loc	12 1024 12                      @ ../GUILib/src/widgets/lv_label.c:1024:12
	ble	.LBB5_23
.Ltmp248:
@ %bb.17:
	@DEBUG_VALUE: lv_label_refr_text:obj <- $r11
	@DEBUG_VALUE: lv_label_refr_text:label <- $r11
	@DEBUG_VALUE: lv_label_refr_text:font <- $r10
	@DEBUG_VALUE: anim_speed <- [DW_OP_LLVM_convert 32 7, DW_OP_LLVM_convert 16 7, DW_OP_stack_value] $r9
	@DEBUG_VALUE: lv_label_refr_text:max_w <- $r5
	@DEBUG_VALUE: lv_label_refr_text:flag <- $r4
	@DEBUG_VALUE: hor_anim <- 0
	@DEBUG_VALUE: anim_speed <- [DW_OP_LLVM_convert 32 7, DW_OP_LLVM_convert 16 7, DW_OP_stack_value] $r9
	.loc	12 1043 49                      @ ../GUILib/src/widgets/lv_label.c:1043:49
	mov	r0, r10
	movs	r1, #32
	movs	r2, #32
	bl	lv_font_get_glyph_width
.Ltmp249:
	.loc	12 1043 89 is_stmt 0            @ ../GUILib/src/widgets/lv_label.c:1043:89
	sub.w	r0, r0, r0, lsl #2
.Ltmp250:
	.loc	20 135 16 is_stmt 1             @ ../GUILib/src/widgets/../core/../misc/lv_anim.h:135:16
	movw	r8, :lower16:set_ofs_x_anim
.Ltmp251:
	.loc	12 1043 47                      @ ../GUILib/src/widgets/lv_label.c:1043:47
	subs	r2, r0, r7
	movs	r4, #0
.Ltmp252:
	@DEBUG_VALUE: lv_anim_set_values:start <- 0
	@DEBUG_VALUE: lv_anim_set_values:a <- [DW_OP_plus_uconst 16, DW_OP_stack_value] $sp
	@DEBUG_VALUE: lv_anim_set_values:end <- $r2
	.loc	20 135 16                       @ ../GUILib/src/widgets/../core/../misc/lv_anim.h:135:16
	movt	r8, :upper16:set_ofs_x_anim
.Ltmp253:
	@DEBUG_VALUE: lv_anim_set_exec_cb:exec_cb <- $r8
	.loc	12 1046 56                      @ ../GUILib/src/widgets/lv_label.c:1046:56
	uxth.w	r0, r9
	.loc	12 1046 34 is_stmt 0            @ ../GUILib/src/widgets/lv_label.c:1046:34
	movs	r1, #0
.Ltmp254:
	.loc	20 166 20 is_stmt 1             @ ../GUILib/src/widgets/../core/../misc/lv_anim.h:166:20
	strd	r4, r4, [sp, #44]
	.loc	20 168 18                       @ ../GUILib/src/widgets/../core/../misc/lv_anim.h:168:18
	str	r2, [sp, #52]
.Ltmp255:
	@DEBUG_VALUE: lv_anim_set_exec_cb:a <- [DW_OP_plus_uconst 16, DW_OP_stack_value] $sp
	.loc	20 135 16                       @ ../GUILib/src/widgets/../core/../misc/lv_anim.h:135:16
	str.w	r8, [sp, #20]
.Ltmp256:
	.loc	12 1046 34                      @ ../GUILib/src/widgets/lv_label.c:1046:34
	bl	lv_anim_speed_to_time
.Ltmp257:
	@DEBUG_VALUE: lv_anim_set_time:a <- [DW_OP_plus_uconst 16, DW_OP_stack_value] $sp
	@DEBUG_VALUE: lv_anim_set_time:duration <- $r0
	.loc	20 145 13                       @ ../GUILib/src/widgets/../core/../misc/lv_anim.h:145:13
	str	r0, [sp, #56]
.Ltmp258:
	.loc	12 1048 36                      @ ../GUILib/src/widgets/lv_label.c:1048:36
	mov	r0, r11
.Ltmp259:
	mov	r1, r8
	bl	lv_anim_get
.Ltmp260:
	@DEBUG_VALUE: anim_cur <- $r0
	.loc	12 1049 32                      @ ../GUILib/src/widgets/lv_label.c:1049:32
	cbz	r0, .LBB5_19
.Ltmp261:
@ %bb.18:
	@DEBUG_VALUE: lv_label_refr_text:obj <- $r11
	@DEBUG_VALUE: lv_label_refr_text:label <- $r11
	@DEBUG_VALUE: lv_label_refr_text:font <- $r10
	@DEBUG_VALUE: anim_speed <- [DW_OP_LLVM_convert 32 7, DW_OP_LLVM_convert 16 7, DW_OP_stack_value] $r9
	@DEBUG_VALUE: lv_label_refr_text:max_w <- $r5
	@DEBUG_VALUE: anim_cur <- $r0
	@DEBUG_VALUE: hor_anim <- 0
	.loc	12 1049 53 is_stmt 0            @ ../GUILib/src/widgets/lv_label.c:1049:53
	ldr	r4, [r0, #44]
.Ltmp262:
.LBB5_19:
	@DEBUG_VALUE: lv_label_refr_text:obj <- $r11
	@DEBUG_VALUE: lv_label_refr_text:label <- $r11
	@DEBUG_VALUE: lv_label_refr_text:font <- $r10
	@DEBUG_VALUE: anim_speed <- [DW_OP_LLVM_convert 32 7, DW_OP_LLVM_convert 16 7, DW_OP_stack_value] $r9
	@DEBUG_VALUE: lv_label_refr_text:max_w <- $r5
	@DEBUG_VALUE: anim_cur <- $r0
	@DEBUG_VALUE: hor_anim <- 0
	@DEBUG_VALUE: act_time <- $r4
	.loc	12 1050 29 is_stmt 1            @ ../GUILib/src/widgets/lv_label.c:1050:29
	ldr	r0, [sp, #56]
.Ltmp263:
	.loc	12 1050 16 is_stmt 0            @ ../GUILib/src/widgets/lv_label.c:1050:16
	cmp	r4, r0
	bge	.LBB5_21
.Ltmp264:
@ %bb.20:
	@DEBUG_VALUE: lv_label_refr_text:obj <- $r11
	@DEBUG_VALUE: lv_label_refr_text:label <- $r11
	@DEBUG_VALUE: lv_label_refr_text:font <- $r10
	@DEBUG_VALUE: anim_speed <- [DW_OP_LLVM_convert 32 7, DW_OP_LLVM_convert 16 7, DW_OP_stack_value] $r9
	@DEBUG_VALUE: lv_label_refr_text:max_w <- $r5
	@DEBUG_VALUE: act_time <- $r4
	@DEBUG_VALUE: hor_anim <- 0
	.loc	12 1052 31 is_stmt 1            @ ../GUILib/src/widgets/lv_label.c:1052:31
	ldrb.w	r0, [sp, #78]
	.loc	12 1051 28                      @ ../GUILib/src/widgets/lv_label.c:1051:28
	str	r4, [sp, #60]
	.loc	12 1052 31                      @ ../GUILib/src/widgets/lv_label.c:1052:31
	and	r0, r0, #254
	strb.w	r0, [sp, #78]
.Ltmp265:
.LBB5_21:
	@DEBUG_VALUE: lv_label_refr_text:obj <- $r11
	@DEBUG_VALUE: lv_label_refr_text:label <- $r11
	@DEBUG_VALUE: lv_label_refr_text:font <- $r10
	@DEBUG_VALUE: anim_speed <- [DW_OP_LLVM_convert 32 7, DW_OP_LLVM_convert 16 7, DW_OP_stack_value] $r9
	@DEBUG_VALUE: lv_label_refr_text:max_w <- $r5
	@DEBUG_VALUE: act_time <- $r4
	@DEBUG_VALUE: hor_anim <- 0
	.loc	12 0 31 is_stmt 0               @ ../GUILib/src/widgets/lv_label.c:0:31
	add	r0, sp, #16
	.loc	12 1055 13 is_stmt 1            @ ../GUILib/src/widgets/lv_label.c:1055:13
	bl	lv_anim_start
.Ltmp266:
	@DEBUG_VALUE: hor_anim <- 1
	.loc	12 0 13 is_stmt 0               @ ../GUILib/src/widgets/lv_label.c:0:13
	b	.LBB5_24
.Ltmp267:
.LBB5_22:
	@DEBUG_VALUE: lv_label_refr_text:obj <- $r11
	@DEBUG_VALUE: lv_label_refr_text:label <- $r11
	@DEBUG_VALUE: lv_label_refr_text:font <- $r10
	@DEBUG_VALUE: anim_speed <- [DW_OP_LLVM_convert 32 7, DW_OP_LLVM_convert 16 7, DW_OP_stack_value] $r8
	@DEBUG_VALUE: lv_label_refr_text:max_w <- $r5
	@DEBUG_VALUE: lv_label_refr_text:flag <- $r4
	@DEBUG_VALUE: hor_anim <- 0
	.loc	12 976 13 is_stmt 1             @ ../GUILib/src/widgets/lv_label.c:976:13
	movw	r1, :lower16:set_ofs_x_anim
	movt	r1, :upper16:set_ofs_x_anim
	mov	r0, r11
	bl	lv_anim_del
.Ltmp268:
	.loc	12 0 13 is_stmt 0               @ ../GUILib/src/widgets/lv_label.c:0:13
	movs	r0, #0
	.loc	12 977 29 is_stmt 1             @ ../GUILib/src/widgets/lv_label.c:977:29
	strh.w	r0, [r11, #68]
	b	.LBB5_38
.Ltmp269:
.LBB5_23:
	@DEBUG_VALUE: lv_label_refr_text:obj <- $r11
	@DEBUG_VALUE: lv_label_refr_text:label <- $r11
	@DEBUG_VALUE: lv_label_refr_text:font <- $r10
	@DEBUG_VALUE: anim_speed <- [DW_OP_LLVM_convert 32 7, DW_OP_LLVM_convert 16 7, DW_OP_stack_value] $r9
	@DEBUG_VALUE: lv_label_refr_text:max_w <- $r5
	@DEBUG_VALUE: lv_label_refr_text:flag <- $r4
	@DEBUG_VALUE: hor_anim <- 0
	.loc	12 1060 13                      @ ../GUILib/src/widgets/lv_label.c:1060:13
	movw	r1, :lower16:set_ofs_x_anim
	movt	r1, :upper16:set_ofs_x_anim
	mov	r0, r11
	bl	lv_anim_del
.Ltmp270:
	.loc	12 0 13 is_stmt 0               @ ../GUILib/src/widgets/lv_label.c:0:13
	movs	r0, #0
	.loc	12 1061 29 is_stmt 1            @ ../GUILib/src/widgets/lv_label.c:1061:29
	strh.w	r0, [r11, #68]
.Ltmp271:
.LBB5_24:
	@DEBUG_VALUE: lv_label_refr_text:obj <- $r11
	@DEBUG_VALUE: lv_label_refr_text:label <- $r11
	@DEBUG_VALUE: lv_label_refr_text:font <- $r10
	@DEBUG_VALUE: anim_speed <- [DW_OP_LLVM_convert 32 7, DW_OP_LLVM_convert 16 7, DW_OP_stack_value] $r9
	@DEBUG_VALUE: lv_label_refr_text:max_w <- $r5
	@DEBUG_VALUE: hor_anim <- undef
	@DEBUG_VALUE: lv_area_get_height:area_p <- [DW_OP_plus_uconst 84, DW_OP_stack_value] $sp
	.loc	12 1064 53                      @ ../GUILib/src/widgets/lv_label.c:1064:53
	cmp	r7, r6
	bgt.w	.LBB5_42
.Ltmp272:
@ %bb.25:
	@DEBUG_VALUE: lv_label_refr_text:obj <- $r11
	@DEBUG_VALUE: lv_label_refr_text:label <- $r11
	@DEBUG_VALUE: lv_label_refr_text:font <- $r10
	@DEBUG_VALUE: anim_speed <- [DW_OP_LLVM_convert 32 7, DW_OP_LLVM_convert 16 7, DW_OP_stack_value] $r9
	@DEBUG_VALUE: lv_label_refr_text:max_w <- $r5
	.loc	12 0 0 is_stmt 0                @ ../GUILib/src/widgets/lv_label.c:0:0
	ldrh.w	r1, [sp, #90]
	ldrh.w	r2, [sp, #86]
	ldrsh.w	r0, [sp, #82]
	subs	r1, r1, r2
	adds	r1, #1
	.loc	12 1064 53                      @ ../GUILib/src/widgets/lv_label.c:1064:53
	sxth	r1, r1
	cmp	r0, r1
	ble.w	.LBB5_42
.Ltmp273:
@ %bb.26:
	@DEBUG_VALUE: lv_label_refr_text:obj <- $r11
	@DEBUG_VALUE: lv_label_refr_text:label <- $r11
	@DEBUG_VALUE: lv_label_refr_text:font <- $r10
	@DEBUG_VALUE: anim_speed <- [DW_OP_LLVM_convert 32 7, DW_OP_LLVM_convert 16 7, DW_OP_stack_value] $r9
	@DEBUG_VALUE: lv_label_refr_text:max_w <- $r5
	@DEBUG_VALUE: lv_font_get_line_height:font_p <- $r10
	.loc	17 120 20 is_stmt 1             @ ../GUILib/src/widgets/../font/lv_font.h:120:20
	ldrsh.w	r1, [r10, #8]
.Ltmp274:
	.loc	20 135 16                       @ ../GUILib/src/widgets/../core/../misc/lv_anim.h:135:16
	movw	r5, :lower16:set_ofs_y_anim
.Ltmp275:
	.loc	12 1065 47                      @ ../GUILib/src/widgets/lv_label.c:1065:47
	add	r0, r1
	rsbs	r2, r0, #0
	movs	r4, #0
.Ltmp276:
	@DEBUG_VALUE: lv_anim_set_values:start <- 0
	@DEBUG_VALUE: lv_anim_set_values:a <- [DW_OP_plus_uconst 16, DW_OP_stack_value] $sp
	@DEBUG_VALUE: lv_anim_set_values:end <- $r2
	.loc	20 135 16                       @ ../GUILib/src/widgets/../core/../misc/lv_anim.h:135:16
	movt	r5, :upper16:set_ofs_y_anim
.Ltmp277:
	@DEBUG_VALUE: lv_anim_set_exec_cb:exec_cb <- $r5
	.loc	12 1067 56                      @ ../GUILib/src/widgets/lv_label.c:1067:56
	uxth.w	r0, r9
	.loc	12 1067 34 is_stmt 0            @ ../GUILib/src/widgets/lv_label.c:1067:34
	movs	r1, #0
.Ltmp278:
	.loc	20 166 20 is_stmt 1             @ ../GUILib/src/widgets/../core/../misc/lv_anim.h:166:20
	strd	r4, r4, [sp, #44]
	.loc	20 168 18                       @ ../GUILib/src/widgets/../core/../misc/lv_anim.h:168:18
	str	r2, [sp, #52]
.Ltmp279:
	@DEBUG_VALUE: lv_anim_set_exec_cb:a <- [DW_OP_plus_uconst 16, DW_OP_stack_value] $sp
	.loc	20 135 16                       @ ../GUILib/src/widgets/../core/../misc/lv_anim.h:135:16
	str	r5, [sp, #20]
.Ltmp280:
	.loc	12 1067 34                      @ ../GUILib/src/widgets/lv_label.c:1067:34
	bl	lv_anim_speed_to_time
.Ltmp281:
	@DEBUG_VALUE: lv_anim_set_time:a <- [DW_OP_plus_uconst 16, DW_OP_stack_value] $sp
	@DEBUG_VALUE: lv_anim_set_time:duration <- $r0
	.loc	20 145 13                       @ ../GUILib/src/widgets/../core/../misc/lv_anim.h:145:13
	str	r0, [sp, #56]
.Ltmp282:
	.loc	12 1069 36                      @ ../GUILib/src/widgets/lv_label.c:1069:36
	mov	r0, r11
.Ltmp283:
	mov	r1, r5
	bl	lv_anim_get
.Ltmp284:
	@DEBUG_VALUE: anim_cur <- $r0
	.loc	12 1070 32                      @ ../GUILib/src/widgets/lv_label.c:1070:32
	cbz	r0, .LBB5_28
.Ltmp285:
@ %bb.27:
	@DEBUG_VALUE: lv_label_refr_text:obj <- $r11
	@DEBUG_VALUE: lv_label_refr_text:label <- $r11
	@DEBUG_VALUE: lv_label_refr_text:font <- $r10
	@DEBUG_VALUE: anim_speed <- [DW_OP_LLVM_convert 32 7, DW_OP_LLVM_convert 16 7, DW_OP_stack_value] $r9
	@DEBUG_VALUE: anim_cur <- $r0
	.loc	12 1070 53 is_stmt 0            @ ../GUILib/src/widgets/lv_label.c:1070:53
	ldr	r4, [r0, #44]
.Ltmp286:
.LBB5_28:
	@DEBUG_VALUE: lv_label_refr_text:obj <- $r11
	@DEBUG_VALUE: lv_label_refr_text:label <- $r11
	@DEBUG_VALUE: lv_label_refr_text:font <- $r10
	@DEBUG_VALUE: anim_speed <- [DW_OP_LLVM_convert 32 7, DW_OP_LLVM_convert 16 7, DW_OP_stack_value] $r9
	@DEBUG_VALUE: anim_cur <- $r0
	@DEBUG_VALUE: act_time <- $r4
	.loc	12 1071 29 is_stmt 1            @ ../GUILib/src/widgets/lv_label.c:1071:29
	ldr	r0, [sp, #56]
.Ltmp287:
	.loc	12 1071 16 is_stmt 0            @ ../GUILib/src/widgets/lv_label.c:1071:16
	cmp	r4, r0
	bge.w	.LBB5_48
.Ltmp288:
@ %bb.29:
	@DEBUG_VALUE: lv_label_refr_text:obj <- $r11
	@DEBUG_VALUE: lv_label_refr_text:label <- $r11
	@DEBUG_VALUE: lv_label_refr_text:font <- $r10
	@DEBUG_VALUE: anim_speed <- [DW_OP_LLVM_convert 32 7, DW_OP_LLVM_convert 16 7, DW_OP_stack_value] $r9
	@DEBUG_VALUE: act_time <- $r4
	.loc	12 1073 31 is_stmt 1            @ ../GUILib/src/widgets/lv_label.c:1073:31
	ldrb.w	r0, [sp, #78]
	.loc	12 1072 28                      @ ../GUILib/src/widgets/lv_label.c:1072:28
	str	r4, [sp, #60]
	.loc	12 1073 31                      @ ../GUILib/src/widgets/lv_label.c:1073:31
	and	r0, r0, #254
	strb.w	r0, [sp, #78]
	b	.LBB5_48
.Ltmp289:
.LBB5_30:
	@DEBUG_VALUE: lv_label_refr_text:obj <- $r11
	@DEBUG_VALUE: lv_label_refr_text:label <- $r11
	@DEBUG_VALUE: lv_label_refr_text:font <- $r10
	@DEBUG_VALUE: lv_label_refr_text:letter_space <- [DW_OP_LLVM_convert 32 7, DW_OP_LLVM_convert 16 7, DW_OP_stack_value] $r7
	@DEBUG_VALUE: lv_label_refr_text:line_space <- [DW_OP_LLVM_convert 32 7, DW_OP_LLVM_convert 16 7, DW_OP_stack_value] $r6
	@DEBUG_VALUE: lv_label_refr_text:max_w <- $r5
	@DEBUG_VALUE: lv_label_refr_text:flag <- $r4
	@DEBUG_VALUE: lv_area_get_width:area_p <- [DW_OP_plus_uconst 84, DW_OP_stack_value] $sp
	.loc	6 125 33                        @ ../GUILib/src/hal/../misc/lv_area.h:125:33
	ldrh.w	r0, [sp, #88]
	.loc	6 125 46 is_stmt 0              @ ../GUILib/src/hal/../misc/lv_area.h:125:46
	ldrh.w	r1, [sp, #84]
.Ltmp290:
	.loc	12 1095 20 is_stmt 1            @ ../GUILib/src/widgets/lv_label.c:1095:20
	movs	r2, #46
.Ltmp291:
	.loc	6 125 49                        @ ../GUILib/src/hal/../misc/lv_area.h:125:49
	subs	r4, r0, r1
.Ltmp292:
	.loc	12 1095 20                      @ ../GUILib/src/widgets/lv_label.c:1095:20
	mov	r0, r10
	movs	r1, #46
	bl	lv_font_get_glyph_width
.Ltmp293:
	.loc	6 135 33                        @ ../GUILib/src/hal/../misc/lv_area.h:135:33
	ldrh.w	r1, [sp, #90]
	.loc	6 135 46 is_stmt 0              @ ../GUILib/src/hal/../misc/lv_area.h:135:46
	ldrh.w	r2, [sp, #86]
.Ltmp294:
	.loc	12 1095 60 is_stmt 1            @ ../GUILib/src/widgets/lv_label.c:1095:60
	add	r0, r7
.Ltmp295:
	.loc	6 135 49                        @ ../GUILib/src/hal/../misc/lv_area.h:135:49
	subs	r1, r1, r2
.Ltmp296:
	.loc	12 1099 25                      @ ../GUILib/src/widgets/lv_label.c:1099:25
	ldrsh.w	r2, [r10, #8]
.Ltmp297:
	.loc	6 135 49                        @ ../GUILib/src/hal/../misc/lv_area.h:135:49
	adds	r1, #1
.Ltmp298:
	.loc	12 1095 76                      @ ../GUILib/src/widgets/lv_label.c:1095:76
	sub.w	r0, r0, r0, lsl #2
	.loc	12 1098 24                      @ ../GUILib/src/widgets/lv_label.c:1098:24
	sxth	r3, r1
.Ltmp299:
	@DEBUG_VALUE: lv_font_get_line_height:font_p <- undef
	.loc	12 1099 55                      @ ../GUILib/src/widgets/lv_label.c:1099:55
	sxtah	r7, r2, r6
.Ltmp300:
	.loc	6 125 49                        @ ../GUILib/src/hal/../misc/lv_area.h:125:49
	add	r0, r4
.Ltmp301:
	@DEBUG_VALUE: lv_area_get_width:area_p <- [DW_OP_plus_uconst 84, DW_OP_stack_value] $sp
	.loc	12 1098 28                      @ ../GUILib/src/widgets/lv_label.c:1098:28
	sdiv	r5, r3, r7
.Ltmp302:
	.loc	12 1094 50                      @ ../GUILib/src/widgets/lv_label.c:1094:50
	adds	r0, #1
	.loc	12 1094 17 is_stmt 0            @ ../GUILib/src/widgets/lv_label.c:1094:17
	strh.w	r0, [sp, #16]
	@DEBUG_VALUE: lv_area_get_height:area_p <- [DW_OP_plus_uconst 84, DW_OP_stack_value] $sp
	.loc	12 1098 28 is_stmt 1            @ ../GUILib/src/widgets/lv_label.c:1098:28
	mls	r0, r5, r7, r3
.Ltmp303:
	@DEBUG_VALUE: lv_font_get_line_height:font_p <- undef
	@DEBUG_VALUE: y_overed <- [DW_OP_LLVM_convert 32 7, DW_OP_LLVM_convert 16 7, DW_OP_stack_value] $r0
	.loc	12 1100 16                      @ ../GUILib/src/widgets/lv_label.c:1100:16
	subs	r3, r1, r6
	subs	r1, r1, r0
	add	r1, r2
	cmp	r0, r2
	it	lt
	sublt	r1, r3, r0
.Ltmp304:
	.loc	12 0 0 is_stmt 0                @ ../GUILib/src/widgets/lv_label.c:0:0
	strh.w	r1, [sp, #18]
	add	r1, sp, #16
.Ltmp305:
	.loc	12 1109 34 is_stmt 1            @ ../GUILib/src/widgets/lv_label.c:1109:34
	mov	r0, r11
.Ltmp306:
	bl	lv_label_get_letter_on
.Ltmp307:
	.loc	12 1112 44                      @ ../GUILib/src/widgets/lv_label.c:1112:44
	ldr.w	r6, [r11, #36]
.Ltmp308:
	.loc	12 1109 34                      @ ../GUILib/src/widgets/lv_label.c:1109:34
	mov	r5, r0
.Ltmp309:
	@DEBUG_VALUE: letter_id <- $r5
	.loc	12 1112 30                      @ ../GUILib/src/widgets/lv_label.c:1112:30
	mov	r0, r6
	bl	strlen
.Ltmp310:
	.loc	12 1113 36                      @ ../GUILib/src/widgets/lv_label.c:1113:36
	movw	r1, :lower16:_lv_txt_encoded_get_byte_id
	movt	r1, :upper16:_lv_txt_encoded_get_byte_id
	ldr	r2, [r1]
	.loc	12 1112 30                      @ ../GUILib/src/widgets/lv_label.c:1112:30
	mov	r8, r0
.Ltmp311:
	@DEBUG_VALUE: txt_len <- $r8
	.loc	12 1113 36                      @ ../GUILib/src/widgets/lv_label.c:1113:36
	mov	r0, r6
	mov	r1, r5
	blx	r2
.Ltmp312:
	@DEBUG_VALUE: byte_id <- $r0
	.loc	12 1114 27                      @ ../GUILib/src/widgets/lv_label.c:1114:27
	add.w	r10, r0, #3
.Ltmp313:
	.loc	12 1114 13 is_stmt 0            @ ../GUILib/src/widgets/lv_label.c:1114:13
	cmp	r10, r8
	.loc	12 1113 22 is_stmt 1            @ ../GUILib/src/widgets/lv_label.c:1113:22
	str	r0, [sp, #12]
	.loc	12 1114 13                      @ ../GUILib/src/widgets/lv_label.c:1114:13
	bls.w	.LBB5_49
.Ltmp314:
@ %bb.31:
	@DEBUG_VALUE: lv_label_refr_text:obj <- $r11
	@DEBUG_VALUE: lv_label_refr_text:label <- $r11
	@DEBUG_VALUE: txt_len <- $r8
	@DEBUG_VALUE: letter_id <- $r5
	@DEBUG_VALUE: byte_id <- $r0
	@DEBUG_VALUE: lv_area_get_height:area_p <- [DW_OP_plus_uconst 84, DW_OP_stack_value] $sp
	@DEBUG_VALUE: lv_area_get_width:area_p <- [DW_OP_plus_uconst 84, DW_OP_stack_value] $sp
	.loc	12 0 13 is_stmt 0               @ ../GUILib/src/widgets/lv_label.c:0:13
	movw	r4, :lower16:_lv_txt_encoded_prev
	movt	r4, :upper16:_lv_txt_encoded_prev
	add	r7, sp, #12
.Ltmp315:
	.p2align	2
.LBB5_32:                               @ =>This Inner Loop Header: Depth=1
	@DEBUG_VALUE: lv_label_refr_text:obj <- $r11
	@DEBUG_VALUE: lv_label_refr_text:label <- $r11
	@DEBUG_VALUE: txt_len <- $r8
	@DEBUG_VALUE: letter_id <- $r5
	@DEBUG_VALUE: letter_id <- $r5
	.loc	12 1115 17 is_stmt 1            @ ../GUILib/src/widgets/lv_label.c:1115:17
	ldr	r2, [r4]
	.loc	12 1115 45 is_stmt 0            @ ../GUILib/src/widgets/lv_label.c:1115:45
	ldr.w	r0, [r11, #36]
.Ltmp316:
	@DEBUG_VALUE: byte_id <- [DW_OP_plus_uconst 12, DW_OP_deref] $sp
	.loc	12 1115 17                      @ ../GUILib/src/widgets/lv_label.c:1115:17
	mov	r1, r7
	blx	r2
.Ltmp317:
	.loc	12 1114 19 is_stmt 1            @ ../GUILib/src/widgets/lv_label.c:1114:19
	ldr	r6, [sp, #12]
.Ltmp318:
	@DEBUG_VALUE: byte_id <- $r6
	.loc	12 1116 26                      @ ../GUILib/src/widgets/lv_label.c:1116:26
	subs	r5, #1
.Ltmp319:
	@DEBUG_VALUE: letter_id <- $r5
	.loc	12 1114 27                      @ ../GUILib/src/widgets/lv_label.c:1114:27
	add.w	r10, r6, #3
	.loc	12 1114 13 is_stmt 0            @ ../GUILib/src/widgets/lv_label.c:1114:13
	cmp	r10, r8
	bhi	.LBB5_32
	b	.LBB5_50
.Ltmp320:
.LBB5_33:
	@DEBUG_VALUE: lv_label_refr_text:obj <- $r11
	@DEBUG_VALUE: lv_label_refr_text:label <- $r11
	@DEBUG_VALUE: lv_label_refr_text:font <- $r10
	@DEBUG_VALUE: anim_speed <- [DW_OP_LLVM_convert 32 7, DW_OP_LLVM_convert 16 7, DW_OP_stack_value] $r8
	@DEBUG_VALUE: lv_label_refr_text:max_w <- $r5
	@DEBUG_VALUE: anim_cur <- $r0
	@DEBUG_VALUE: lv_anim_set_exec_cb:a <- [DW_OP_plus_uconst 16, DW_OP_stack_value] $sp
	@DEBUG_VALUE: lv_anim_set_exec_cb:a <- [DW_OP_plus_uconst 16, DW_OP_stack_value] $sp
	@DEBUG_VALUE: lv_anim_set_values:a <- [DW_OP_plus_uconst 16, DW_OP_stack_value] $sp
	@DEBUG_VALUE: lv_area_get_width:area_p <- [DW_OP_plus_uconst 84, DW_OP_stack_value] $sp
	@DEBUG_VALUE: act_time <- 0
	@DEBUG_VALUE: playback_now <- 0
	@DEBUG_VALUE: lv_anim_set_values:start <- 0
	@DEBUG_VALUE: hor_anim <- 0
	.loc	12 0 0                          @ ../GUILib/src/widgets/lv_label.c:0:0
	movs	r0, #0
.Ltmp321:
.LBB5_34:
	@DEBUG_VALUE: lv_label_refr_text:obj <- $r11
	@DEBUG_VALUE: lv_label_refr_text:label <- $r11
	@DEBUG_VALUE: lv_label_refr_text:font <- $r10
	@DEBUG_VALUE: anim_speed <- [DW_OP_LLVM_convert 32 7, DW_OP_LLVM_convert 16 7, DW_OP_stack_value] $r8
	@DEBUG_VALUE: lv_label_refr_text:max_w <- $r5
	@DEBUG_VALUE: hor_anim <- 0
	@DEBUG_VALUE: act_time <- $r0
	@DEBUG_VALUE: playback_now <- undef
	.loc	12 956 29 is_stmt 1             @ ../GUILib/src/widgets/lv_label.c:956:29
	ldr	r1, [sp, #56]
.Ltmp322:
	.loc	12 956 16 is_stmt 0             @ ../GUILib/src/widgets/lv_label.c:956:16
	cmp	r0, r1
	bge	.LBB5_37
.Ltmp323:
@ %bb.35:
	@DEBUG_VALUE: lv_label_refr_text:obj <- $r11
	@DEBUG_VALUE: lv_label_refr_text:label <- $r11
	@DEBUG_VALUE: lv_label_refr_text:font <- $r10
	@DEBUG_VALUE: anim_speed <- [DW_OP_LLVM_convert 32 7, DW_OP_LLVM_convert 16 7, DW_OP_stack_value] $r8
	@DEBUG_VALUE: lv_label_refr_text:max_w <- $r5
	@DEBUG_VALUE: act_time <- $r0
	@DEBUG_VALUE: hor_anim <- 0
	.loc	12 958 31 is_stmt 1             @ ../GUILib/src/widgets/lv_label.c:958:31
	ldrb.w	r1, [sp, #78]
	.loc	12 957 28                       @ ../GUILib/src/widgets/lv_label.c:957:28
	str	r0, [sp, #60]
	.loc	12 958 31                       @ ../GUILib/src/widgets/lv_label.c:958:31
	and	r0, r1, #254
.Ltmp324:
	strb.w	r0, [sp, #78]
	.loc	12 959 20                       @ ../GUILib/src/widgets/lv_label.c:959:20
	cbz	r4, .LBB5_37
.Ltmp325:
@ %bb.36:
	@DEBUG_VALUE: lv_label_refr_text:obj <- $r11
	@DEBUG_VALUE: lv_label_refr_text:label <- $r11
	@DEBUG_VALUE: lv_label_refr_text:font <- $r10
	@DEBUG_VALUE: anim_speed <- [DW_OP_LLVM_convert 32 7, DW_OP_LLVM_convert 16 7, DW_OP_stack_value] $r8
	@DEBUG_VALUE: lv_label_refr_text:max_w <- $r5
	@DEBUG_VALUE: hor_anim <- 0
	.loc	12 960 36                       @ ../GUILib/src/widgets/lv_label.c:960:36
	and	r0, r1, #252
	adds	r0, #2
	strb.w	r0, [sp, #78]
	.loc	12 964 39                       @ ../GUILib/src/widgets/lv_label.c:964:39
	ldr	r0, [sp, #52]
	.loc	12 963 34                       @ ../GUILib/src/widgets/lv_label.c:963:34
	ldr	r1, [sp, #44]
.Ltmp326:
	@DEBUG_VALUE: tmp <- $r1
	.loc	12 964 35                       @ ../GUILib/src/widgets/lv_label.c:964:35
	str	r0, [sp, #44]
	.loc	12 965 35                       @ ../GUILib/src/widgets/lv_label.c:965:35
	str	r1, [sp, #52]
.Ltmp327:
.LBB5_37:
	@DEBUG_VALUE: lv_label_refr_text:obj <- $r11
	@DEBUG_VALUE: lv_label_refr_text:label <- $r11
	@DEBUG_VALUE: lv_label_refr_text:font <- $r10
	@DEBUG_VALUE: anim_speed <- [DW_OP_LLVM_convert 32 7, DW_OP_LLVM_convert 16 7, DW_OP_stack_value] $r8
	@DEBUG_VALUE: lv_label_refr_text:max_w <- $r5
	@DEBUG_VALUE: hor_anim <- 0
	.loc	12 969 70                       @ ../GUILib/src/widgets/lv_label.c:969:70
	ldr	r1, [sp, #44]
	.loc	12 969 85 is_stmt 0             @ ../GUILib/src/widgets/lv_label.c:969:85
	ldr	r2, [sp, #52]
	.loc	12 969 56                       @ ../GUILib/src/widgets/lv_label.c:969:56
	uxth.w	r0, r8
	.loc	12 969 34                       @ ../GUILib/src/widgets/lv_label.c:969:34
	bl	lv_anim_speed_to_time
.Ltmp328:
	@DEBUG_VALUE: lv_anim_set_time:a <- [DW_OP_plus_uconst 16, DW_OP_stack_value] $sp
	@DEBUG_VALUE: lv_anim_set_time:duration <- $r0
	.loc	20 145 13 is_stmt 1             @ ../GUILib/src/widgets/../core/../misc/lv_anim.h:145:13
	str	r0, [sp, #56]
.Ltmp329:
	@DEBUG_VALUE: lv_anim_set_playback_time:a <- [DW_OP_plus_uconst 16, DW_OP_stack_value] $sp
	@DEBUG_VALUE: lv_anim_set_playback_time:time <- $r0
	.loc	20 234 22                       @ ../GUILib/src/widgets/../core/../misc/lv_anim.h:234:22
	str	r0, [sp, #68]
	add	r0, sp, #16
.Ltmp330:
	.loc	12 971 13                       @ ../GUILib/src/widgets/lv_label.c:971:13
	bl	lv_anim_start
.Ltmp331:
	@DEBUG_VALUE: hor_anim <- 1
.LBB5_38:
	@DEBUG_VALUE: lv_label_refr_text:obj <- $r11
	@DEBUG_VALUE: lv_label_refr_text:label <- $r11
	@DEBUG_VALUE: lv_label_refr_text:font <- $r10
	@DEBUG_VALUE: anim_speed <- [DW_OP_LLVM_convert 32 7, DW_OP_LLVM_convert 16 7, DW_OP_stack_value] $r8
	@DEBUG_VALUE: lv_label_refr_text:max_w <- $r5
	@DEBUG_VALUE: hor_anim <- undef
	@DEBUG_VALUE: lv_area_get_height:area_p <- [DW_OP_plus_uconst 84, DW_OP_stack_value] $sp
	.loc	12 980 53                       @ ../GUILib/src/widgets/lv_label.c:980:53
	cmp	r7, r6
	bgt	.LBB5_42
.Ltmp332:
@ %bb.39:
	@DEBUG_VALUE: lv_label_refr_text:obj <- $r11
	@DEBUG_VALUE: lv_label_refr_text:label <- $r11
	@DEBUG_VALUE: lv_label_refr_text:font <- $r10
	@DEBUG_VALUE: anim_speed <- [DW_OP_LLVM_convert 32 7, DW_OP_LLVM_convert 16 7, DW_OP_stack_value] $r8
	@DEBUG_VALUE: lv_label_refr_text:max_w <- $r5
	.loc	12 0 0 is_stmt 0                @ ../GUILib/src/widgets/lv_label.c:0:0
	ldrh.w	r1, [sp, #90]
	ldrh.w	r2, [sp, #86]
	ldrsh.w	r0, [sp, #82]
	subs	r1, r1, r2
	adds	r1, #1
	sxth	r1, r1
	.loc	12 980 53                       @ ../GUILib/src/widgets/lv_label.c:980:53
	cmp	r0, r1
	ble	.LBB5_42
.Ltmp333:
@ %bb.40:
	@DEBUG_VALUE: lv_label_refr_text:obj <- $r11
	@DEBUG_VALUE: lv_label_refr_text:label <- $r11
	@DEBUG_VALUE: lv_label_refr_text:font <- $r10
	@DEBUG_VALUE: anim_speed <- [DW_OP_LLVM_convert 32 7, DW_OP_LLVM_convert 16 7, DW_OP_stack_value] $r8
	@DEBUG_VALUE: lv_label_refr_text:max_w <- $r5
	@DEBUG_VALUE: lv_area_get_height:area_p <- [DW_OP_plus_uconst 84, DW_OP_stack_value] $sp
	.loc	17 120 20 is_stmt 1             @ ../GUILib/src/widgets/../font/lv_font.h:120:20
	ldrsh.w	r2, [r10, #8]
.Ltmp334:
	.loc	12 981 71                       @ ../GUILib/src/widgets/lv_label.c:981:71
	subs	r0, r1, r0
	@DEBUG_VALUE: lv_font_get_line_height:font_p <- undef
	.loc	12 981 80 is_stmt 0             @ ../GUILib/src/widgets/lv_label.c:981:80
	subs	r0, r0, r2
.Ltmp335:
	.loc	20 135 16 is_stmt 1             @ ../GUILib/src/widgets/../core/../misc/lv_anim.h:135:16
	movw	r1, :lower16:set_ofs_y_anim
	movs	r4, #0
.Ltmp336:
	@DEBUG_VALUE: lv_anim_set_values:start <- 0
	@DEBUG_VALUE: lv_anim_set_values:a <- [DW_OP_plus_uconst 16, DW_OP_stack_value] $sp
	@DEBUG_VALUE: lv_anim_set_values:end <- $r0
	.loc	20 168 18                       @ ../GUILib/src/widgets/../core/../misc/lv_anim.h:168:18
	str	r0, [sp, #52]
.Ltmp337:
	@DEBUG_VALUE: lv_anim_set_exec_cb:a <- [DW_OP_plus_uconst 16, DW_OP_stack_value] $sp
	.loc	20 135 16                       @ ../GUILib/src/widgets/../core/../misc/lv_anim.h:135:16
	movt	r1, :upper16:set_ofs_y_anim
.Ltmp338:
	@DEBUG_VALUE: lv_anim_set_exec_cb:exec_cb <- $r1
	.loc	12 984 36                       @ ../GUILib/src/widgets/lv_label.c:984:36
	mov	r0, r11
.Ltmp339:
	.loc	20 166 20                       @ ../GUILib/src/widgets/../core/../misc/lv_anim.h:166:20
	strd	r4, r4, [sp, #44]
.Ltmp340:
	.loc	20 135 16                       @ ../GUILib/src/widgets/../core/../misc/lv_anim.h:135:16
	str	r1, [sp, #20]
.Ltmp341:
	.loc	12 984 36                       @ ../GUILib/src/widgets/lv_label.c:984:36
	bl	lv_anim_get
.Ltmp342:
	@DEBUG_VALUE: playback_now <- 0
	@DEBUG_VALUE: act_time <- 0
	@DEBUG_VALUE: anim_cur <- $r0
	.loc	12 987 16                       @ ../GUILib/src/widgets/lv_label.c:987:16
	cbz	r0, .LBB5_43
.Ltmp343:
@ %bb.41:
	@DEBUG_VALUE: lv_label_refr_text:obj <- $r11
	@DEBUG_VALUE: lv_label_refr_text:label <- $r11
	@DEBUG_VALUE: lv_label_refr_text:font <- $r10
	@DEBUG_VALUE: anim_speed <- [DW_OP_LLVM_convert 32 7, DW_OP_LLVM_convert 16 7, DW_OP_stack_value] $r8
	@DEBUG_VALUE: lv_label_refr_text:max_w <- $r5
	@DEBUG_VALUE: anim_cur <- $r0
	@DEBUG_VALUE: act_time <- 0
	@DEBUG_VALUE: playback_now <- 0
	.loc	12 989 42                       @ ../GUILib/src/widgets/lv_label.c:989:42
	ldrb.w	r1, [r0, #62]
	.loc	12 988 38                       @ ../GUILib/src/widgets/lv_label.c:988:38
	ldr	r0, [r0, #44]
.Ltmp344:
	@DEBUG_VALUE: act_time <- $r0
	.loc	12 989 32                       @ ../GUILib/src/widgets/lv_label.c:989:32
	ubfx	r4, r1, #1, #1
.Ltmp345:
	@DEBUG_VALUE: playback_now <- [DW_OP_LLVM_convert 1 7, DW_OP_LLVM_convert 8 7, DW_OP_stack_value] $r4
	.loc	12 0 32 is_stmt 0               @ ../GUILib/src/widgets/lv_label.c:0:32
	b	.LBB5_44
.Ltmp346:
.LBB5_42:
	@DEBUG_VALUE: lv_label_refr_text:obj <- $r11
	@DEBUG_VALUE: lv_label_refr_text:label <- $r11
	@DEBUG_VALUE: lv_label_refr_text:font <- $r10
	@DEBUG_VALUE: lv_label_refr_text:max_w <- $r5
	movw	r1, :lower16:set_ofs_y_anim
	movt	r1, :upper16:set_ofs_y_anim
	mov	r0, r11
	bl	lv_anim_del
.Ltmp347:
	movs	r0, #0
	strh.w	r0, [r11, #70]
	b	.LBB5_62
.Ltmp348:
.LBB5_43:
	@DEBUG_VALUE: lv_label_refr_text:obj <- $r11
	@DEBUG_VALUE: lv_label_refr_text:label <- $r11
	@DEBUG_VALUE: lv_label_refr_text:font <- $r10
	@DEBUG_VALUE: anim_speed <- [DW_OP_LLVM_convert 32 7, DW_OP_LLVM_convert 16 7, DW_OP_stack_value] $r8
	@DEBUG_VALUE: lv_label_refr_text:max_w <- $r5
	@DEBUG_VALUE: anim_cur <- $r0
	@DEBUG_VALUE: lv_anim_set_exec_cb:a <- [DW_OP_plus_uconst 16, DW_OP_stack_value] $sp
	@DEBUG_VALUE: lv_anim_set_values:a <- [DW_OP_plus_uconst 16, DW_OP_stack_value] $sp
	@DEBUG_VALUE: lv_area_get_height:area_p <- [DW_OP_plus_uconst 84, DW_OP_stack_value] $sp
	@DEBUG_VALUE: act_time <- 0
	@DEBUG_VALUE: playback_now <- 0
	@DEBUG_VALUE: lv_anim_set_values:start <- 0
	movs	r0, #0
.Ltmp349:
.LBB5_44:
	@DEBUG_VALUE: lv_label_refr_text:obj <- $r11
	@DEBUG_VALUE: lv_label_refr_text:label <- $r11
	@DEBUG_VALUE: lv_label_refr_text:font <- $r10
	@DEBUG_VALUE: anim_speed <- [DW_OP_LLVM_convert 32 7, DW_OP_LLVM_convert 16 7, DW_OP_stack_value] $r8
	@DEBUG_VALUE: lv_label_refr_text:max_w <- $r5
	@DEBUG_VALUE: act_time <- $r0
	@DEBUG_VALUE: playback_now <- undef
	.loc	12 991 29 is_stmt 1             @ ../GUILib/src/widgets/lv_label.c:991:29
	ldr	r1, [sp, #56]
.Ltmp350:
	.loc	12 991 16 is_stmt 0             @ ../GUILib/src/widgets/lv_label.c:991:16
	cmp	r0, r1
	bge	.LBB5_47
.Ltmp351:
@ %bb.45:
	@DEBUG_VALUE: lv_label_refr_text:obj <- $r11
	@DEBUG_VALUE: lv_label_refr_text:label <- $r11
	@DEBUG_VALUE: lv_label_refr_text:font <- $r10
	@DEBUG_VALUE: anim_speed <- [DW_OP_LLVM_convert 32 7, DW_OP_LLVM_convert 16 7, DW_OP_stack_value] $r8
	@DEBUG_VALUE: lv_label_refr_text:max_w <- $r5
	@DEBUG_VALUE: act_time <- $r0
	.loc	12 993 31 is_stmt 1             @ ../GUILib/src/widgets/lv_label.c:993:31
	ldrb.w	r1, [sp, #78]
	.loc	12 992 28                       @ ../GUILib/src/widgets/lv_label.c:992:28
	str	r0, [sp, #60]
	.loc	12 993 31                       @ ../GUILib/src/widgets/lv_label.c:993:31
	and	r0, r1, #254
.Ltmp352:
	strb.w	r0, [sp, #78]
	.loc	12 994 20                       @ ../GUILib/src/widgets/lv_label.c:994:20
	cbz	r4, .LBB5_47
.Ltmp353:
@ %bb.46:
	@DEBUG_VALUE: lv_label_refr_text:obj <- $r11
	@DEBUG_VALUE: lv_label_refr_text:label <- $r11
	@DEBUG_VALUE: lv_label_refr_text:font <- $r10
	@DEBUG_VALUE: anim_speed <- [DW_OP_LLVM_convert 32 7, DW_OP_LLVM_convert 16 7, DW_OP_stack_value] $r8
	@DEBUG_VALUE: lv_label_refr_text:max_w <- $r5
	.loc	12 995 36                       @ ../GUILib/src/widgets/lv_label.c:995:36
	and	r0, r1, #252
	adds	r0, #2
	strb.w	r0, [sp, #78]
	.loc	12 999 39                       @ ../GUILib/src/widgets/lv_label.c:999:39
	ldr	r0, [sp, #52]
	.loc	12 998 34                       @ ../GUILib/src/widgets/lv_label.c:998:34
	ldr	r1, [sp, #44]
.Ltmp354:
	@DEBUG_VALUE: tmp <- $r1
	.loc	12 999 35                       @ ../GUILib/src/widgets/lv_label.c:999:35
	str	r0, [sp, #44]
	.loc	12 1000 35                      @ ../GUILib/src/widgets/lv_label.c:1000:35
	str	r1, [sp, #52]
.Ltmp355:
.LBB5_47:
	@DEBUG_VALUE: lv_label_refr_text:obj <- $r11
	@DEBUG_VALUE: lv_label_refr_text:label <- $r11
	@DEBUG_VALUE: lv_label_refr_text:font <- $r10
	@DEBUG_VALUE: anim_speed <- [DW_OP_LLVM_convert 32 7, DW_OP_LLVM_convert 16 7, DW_OP_stack_value] $r8
	@DEBUG_VALUE: lv_label_refr_text:max_w <- $r5
	.loc	12 1004 70                      @ ../GUILib/src/widgets/lv_label.c:1004:70
	ldr	r1, [sp, #44]
	.loc	12 1004 85 is_stmt 0            @ ../GUILib/src/widgets/lv_label.c:1004:85
	ldr	r2, [sp, #52]
	.loc	12 1004 56                      @ ../GUILib/src/widgets/lv_label.c:1004:56
	uxth.w	r0, r8
	.loc	12 1004 34                      @ ../GUILib/src/widgets/lv_label.c:1004:34
	bl	lv_anim_speed_to_time
.Ltmp356:
	@DEBUG_VALUE: lv_anim_set_time:a <- [DW_OP_plus_uconst 16, DW_OP_stack_value] $sp
	@DEBUG_VALUE: lv_anim_set_time:duration <- $r0
	.loc	20 145 13 is_stmt 1             @ ../GUILib/src/widgets/../core/../misc/lv_anim.h:145:13
	str	r0, [sp, #56]
.Ltmp357:
	@DEBUG_VALUE: lv_anim_set_playback_time:a <- [DW_OP_plus_uconst 16, DW_OP_stack_value] $sp
	@DEBUG_VALUE: lv_anim_set_playback_time:time <- $r0
	.loc	20 234 22                       @ ../GUILib/src/widgets/../core/../misc/lv_anim.h:234:22
	str	r0, [sp, #68]
.Ltmp358:
.LBB5_48:
	@DEBUG_VALUE: lv_label_refr_text:obj <- $r11
	@DEBUG_VALUE: lv_label_refr_text:label <- $r11
	@DEBUG_VALUE: lv_label_refr_text:font <- $r10
	.loc	20 0 22 is_stmt 0               @ ../GUILib/src/widgets/../core/../misc/lv_anim.h:0:22
	add	r0, sp, #16
	bl	lv_anim_start
.Ltmp359:
	b	.LBB5_62
.Ltmp360:
.LBB5_49:
	@DEBUG_VALUE: lv_label_refr_text:obj <- $r11
	@DEBUG_VALUE: lv_label_refr_text:label <- $r11
	@DEBUG_VALUE: txt_len <- $r8
	@DEBUG_VALUE: letter_id <- $r5
	@DEBUG_VALUE: byte_id <- $r0
	@DEBUG_VALUE: lv_area_get_height:area_p <- [DW_OP_plus_uconst 84, DW_OP_stack_value] $sp
	@DEBUG_VALUE: lv_area_get_width:area_p <- [DW_OP_plus_uconst 84, DW_OP_stack_value] $sp
	mov	r6, r0
	@DEBUG_VALUE: byte_id <- $r6
	@DEBUG_VALUE: byte_id <- $r6
.Ltmp361:
.LBB5_50:
	@DEBUG_VALUE: lv_label_refr_text:obj <- $r11
	@DEBUG_VALUE: lv_label_refr_text:label <- $r11
	@DEBUG_VALUE: txt_len <- $r8
	@DEBUG_VALUE: byte_id <- $r6
	@DEBUG_VALUE: letter_id <- $r5
	movs	r4, #0
	mov.w	r9, #3
.Ltmp362:
	@DEBUG_VALUE: i <- 0
	@DEBUG_VALUE: len <- 0
	.loc	12 1124 58 is_stmt 1            @ ../GUILib/src/widgets/lv_label.c:1124:58
	mov	r0, r6
.Ltmp363:
	.p2align	2
.LBB5_51:                               @ =>This Inner Loop Header: Depth=1
	@DEBUG_VALUE: lv_label_refr_text:obj <- $r11
	@DEBUG_VALUE: lv_label_refr_text:label <- $r11
	@DEBUG_VALUE: txt_len <- $r8
	@DEBUG_VALUE: letter_id <- $r5
	@DEBUG_VALUE: len <- $r4
	@DEBUG_VALUE: i <- undef
	.loc	12 1124 24 is_stmt 0            @ ../GUILib/src/widgets/lv_label.c:1124:24
	movw	r2, :lower16:_lv_txt_encoded_size
	.loc	12 1124 53                      @ ../GUILib/src/widgets/lv_label.c:1124:53
	ldr.w	r1, [r11, #36]
.Ltmp364:
	@DEBUG_VALUE: byte_id <- $r0
	.loc	12 1124 24                      @ ../GUILib/src/widgets/lv_label.c:1124:24
	movt	r2, :upper16:_lv_txt_encoded_size
	ldr	r2, [r2]
	.loc	12 1124 46                      @ ../GUILib/src/widgets/lv_label.c:1124:46
	add	r0, r1
.Ltmp365:
	.loc	12 1124 24                      @ ../GUILib/src/widgets/lv_label.c:1124:24
	blx	r2
.Ltmp366:
	.loc	12 1124 21                      @ ../GUILib/src/widgets/lv_label.c:1124:21
	add	r4, r0
.Ltmp367:
	@DEBUG_VALUE: len <- $r4
	.loc	12 1125 17 is_stmt 1            @ ../GUILib/src/widgets/lv_label.c:1125:17
	movw	r0, :lower16:_lv_txt_encoded_next
	movt	r0, :upper16:_lv_txt_encoded_next
	ldr	r2, [r0]
	.loc	12 1125 45 is_stmt 0            @ ../GUILib/src/widgets/lv_label.c:1125:45
	ldr.w	r0, [r11, #36]
.Ltmp368:
	@DEBUG_VALUE: byte_id <- [DW_OP_plus_uconst 12, DW_OP_deref] $sp
	.loc	12 1125 17                      @ ../GUILib/src/widgets/lv_label.c:1125:17
	add	r1, sp, #12
	.loc	12 1124 21 is_stmt 1            @ ../GUILib/src/widgets/lv_label.c:1124:21
	uxtb	r7, r4
	.loc	12 1125 17                      @ ../GUILib/src/widgets/lv_label.c:1125:17
	blx	r2
.Ltmp369:
	@DEBUG_VALUE: i <- [DW_OP_plus_uconst 1, DW_OP_stack_value] undef
	@DEBUG_VALUE: byte_id <- undef
	.loc	12 1126 44                      @ ../GUILib/src/widgets/lv_label.c:1126:44
	cmp	r7, #3
	bhi	.LBB5_54
.Ltmp370:
@ %bb.52:                               @   in Loop: Header=BB5_51 Depth=1
	@DEBUG_VALUE: lv_label_refr_text:obj <- $r11
	@DEBUG_VALUE: lv_label_refr_text:label <- $r11
	@DEBUG_VALUE: txt_len <- $r8
	@DEBUG_VALUE: letter_id <- $r5
	@DEBUG_VALUE: len <- $r4
	.loc	12 0 44 is_stmt 0               @ ../GUILib/src/widgets/lv_label.c:0:44
	ldr	r0, [sp, #12]
.Ltmp371:
	@DEBUG_VALUE: byte_id <- $r0
	.loc	12 1126 44                      @ ../GUILib/src/widgets/lv_label.c:1126:44
	cmp	r0, r8
	bhi	.LBB5_54
.Ltmp372:
@ %bb.53:                               @   in Loop: Header=BB5_51 Depth=1
	@DEBUG_VALUE: lv_label_refr_text:obj <- $r11
	@DEBUG_VALUE: lv_label_refr_text:label <- $r11
	@DEBUG_VALUE: txt_len <- $r8
	@DEBUG_VALUE: letter_id <- $r5
	@DEBUG_VALUE: len <- $r4
	@DEBUG_VALUE: byte_id <- $r0
	cmp.w	r9, #0
	sub.w	r9, r9, #1
	bne	.LBB5_51
.Ltmp373:
.LBB5_54:
	@DEBUG_VALUE: lv_label_refr_text:obj <- $r11
	@DEBUG_VALUE: lv_label_refr_text:label <- $r11
	@DEBUG_VALUE: txt_len <- $r8
	@DEBUG_VALUE: letter_id <- $r5
	@DEBUG_VALUE: len <- $r4
	@DEBUG_VALUE: len <- undef
	.loc	12 1131 50 is_stmt 1            @ ../GUILib/src/widgets/lv_label.c:1131:50
	ldr.w	r0, [r11, #36]
	.loc	12 1131 43 is_stmt 0            @ ../GUILib/src/widgets/lv_label.c:1131:43
	add.w	r8, r0, r6
.Ltmp374:
	@DEBUG_VALUE: lv_label_set_dot_tmp:label <- $r11
	@DEBUG_VALUE: lv_label_set_dot_tmp:data <- undef
	@DEBUG_VALUE: lv_label_set_dot_tmp:obj <- $r11
	@DEBUG_VALUE: lv_label_set_dot_tmp:len <- $r7
	.loc	12 1182 5 is_stmt 1             @ ../GUILib/src/widgets/lv_label.c:1182:5
	mov	r0, r11
	bl	lv_label_dot_tmp_free
.Ltmp375:
	.loc	12 1183 8                       @ ../GUILib/src/widgets/lv_label.c:1183:8
	cmp	r7, #5
	blo	.LBB5_57
.Ltmp376:
@ %bb.55:
	@DEBUG_VALUE: lv_label_set_dot_tmp:obj <- $r11
	@DEBUG_VALUE: lv_label_set_dot_tmp:label <- $r11
	@DEBUG_VALUE: lv_label_refr_text:obj <- $r11
	@DEBUG_VALUE: lv_label_refr_text:label <- $r11
	@DEBUG_VALUE: lv_label_set_dot_tmp:len <- $r7
	@DEBUG_VALUE: letter_id <- $r5
	.loc	12 1186 47                      @ ../GUILib/src/widgets/lv_label.c:1186:47
	adds	r0, r7, #1
	.loc	12 1186 30 is_stmt 0            @ ../GUILib/src/widgets/lv_label.c:1186:30
	bl	lv_mem_alloc
.Ltmp377:
	.loc	12 1186 28                      @ ../GUILib/src/widgets/lv_label.c:1186:28
	str.w	r0, [r11, #40]
	cbz	r0, .LBB5_62
.Ltmp378:
@ %bb.56:
	@DEBUG_VALUE: lv_label_set_dot_tmp:obj <- $r11
	@DEBUG_VALUE: lv_label_set_dot_tmp:label <- $r11
	@DEBUG_VALUE: lv_label_refr_text:obj <- $r11
	@DEBUG_VALUE: lv_label_refr_text:label <- $r11
	@DEBUG_VALUE: lv_label_set_dot_tmp:len <- $r7
	@DEBUG_VALUE: letter_id <- $r5
	.loc	12 1191 9 is_stmt 1             @ ../GUILib/src/widgets/lv_label.c:1191:9
	mov	r1, r8
	mov	r2, r7
	bl	lv_memcpy
.Ltmp379:
	.loc	12 1192 20                      @ ../GUILib/src/widgets/lv_label.c:1192:20
	ldr.w	r0, [r11, #40]
	movs	r1, #0
	.loc	12 1192 33 is_stmt 0            @ ../GUILib/src/widgets/lv_label.c:1192:33
	strb	r1, [r0, r7]
	.loc	12 1193 33 is_stmt 1            @ ../GUILib/src/widgets/lv_label.c:1193:33
	ldrb.w	r0, [r11, #72]
	orr	r0, r0, #64
	strb.w	r0, [r11, #72]
	b	.LBB5_58
.Ltmp380:
.LBB5_57:
	@DEBUG_VALUE: lv_label_set_dot_tmp:obj <- $r11
	@DEBUG_VALUE: lv_label_set_dot_tmp:label <- $r11
	@DEBUG_VALUE: lv_label_refr_text:obj <- $r11
	@DEBUG_VALUE: lv_label_refr_text:label <- $r11
	@DEBUG_VALUE: lv_label_set_dot_tmp:len <- $r7
	@DEBUG_VALUE: letter_id <- $r5
	.loc	12 1197 30                      @ ../GUILib/src/widgets/lv_label.c:1197:30
	ldrb.w	r0, [r11, #72]
	.loc	12 1198 9                       @ ../GUILib/src/widgets/lv_label.c:1198:9
	mov	r1, r8
	.loc	12 1197 30                      @ ../GUILib/src/widgets/lv_label.c:1197:30
	and	r0, r0, #191
	strb.w	r0, [r11, #72]
	.loc	12 1198 26                      @ ../GUILib/src/widgets/lv_label.c:1198:26
	add.w	r0, r11, #40
	.loc	12 1198 9 is_stmt 0             @ ../GUILib/src/widgets/lv_label.c:1198:9
	mov	r2, r7
	bl	lv_memcpy
.Ltmp381:
.LBB5_58:
	@DEBUG_VALUE: lv_label_set_dot_tmp:obj <- $r11
	@DEBUG_VALUE: lv_label_set_dot_tmp:label <- $r11
	@DEBUG_VALUE: lv_label_refr_text:obj <- $r11
	@DEBUG_VALUE: lv_label_refr_text:label <- $r11
	@DEBUG_VALUE: lv_label_set_dot_tmp:len <- $r7
	@DEBUG_VALUE: letter_id <- $r5
	.loc	12 0 9                          @ ../GUILib/src/widgets/lv_label.c:0:9
	movs	r0, #0
	movs	r1, #46
.Ltmp382:
	.p2align	2
.LBB5_59:                               @ =>This Inner Loop Header: Depth=1
	@DEBUG_VALUE: lv_label_refr_text:obj <- $r11
	@DEBUG_VALUE: lv_label_refr_text:label <- $r11
	@DEBUG_VALUE: letter_id <- $r5
	@DEBUG_VALUE: i <- $r0
	.loc	12 1133 28 is_stmt 1            @ ../GUILib/src/widgets/lv_label.c:1133:28
	ldr.w	r2, [r11, #36]
	.loc	12 1133 50 is_stmt 0            @ ../GUILib/src/widgets/lv_label.c:1133:50
	add	r2, r6
	strb	r1, [r2, r0]
.Ltmp383:
	.loc	12 1132 51 is_stmt 1            @ ../GUILib/src/widgets/lv_label.c:1132:51
	adds	r0, #1
.Ltmp384:
	@DEBUG_VALUE: i <- $r0
	.loc	12 1132 17 is_stmt 0            @ ../GUILib/src/widgets/lv_label.c:1132:17
	cmp	r0, #3
	bne	.LBB5_59
.Ltmp385:
@ %bb.60:
	@DEBUG_VALUE: lv_label_refr_text:obj <- $r11
	@DEBUG_VALUE: lv_label_refr_text:label <- $r11
	@DEBUG_VALUE: letter_id <- $r5
	@DEBUG_VALUE: i <- $r0
	.loc	12 1135 24 is_stmt 1            @ ../GUILib/src/widgets/lv_label.c:1135:24
	ldr.w	r0, [r11, #36]
.Ltmp386:
	.loc	12 0 24 is_stmt 0               @ ../GUILib/src/widgets/lv_label.c:0:24
	movs	r1, #0
	.loc	12 1135 61                      @ ../GUILib/src/widgets/lv_label.c:1135:61
	strb.w	r1, [r0, r10]
	.loc	12 1136 73 is_stmt 1            @ ../GUILib/src/widgets/lv_label.c:1136:73
	adds	r0, r5, #3
.Ltmp387:
.LBB5_61:
	@DEBUG_VALUE: lv_label_refr_text:obj <- $r11
	@DEBUG_VALUE: lv_label_refr_text:label <- $r11
	.loc	12 0 0 is_stmt 0                @ ../GUILib/src/widgets/lv_label.c:0:0
	str.w	r0, [r11, #44]
.Ltmp388:
.LBB5_62:
	@DEBUG_VALUE: lv_label_refr_text:obj <- $r11
	@DEBUG_VALUE: lv_label_refr_text:label <- $r11
	.loc	12 1144 5 is_stmt 1             @ ../GUILib/src/widgets/lv_label.c:1144:5
	mov	r0, r11
	bl	lv_obj_invalidate
.Ltmp389:
.LBB5_63:
	@DEBUG_VALUE: lv_label_refr_text:obj <- $r11
	@DEBUG_VALUE: lv_label_refr_text:label <- $r11
	.loc	12 1145 1                       @ ../GUILib/src/widgets/lv_label.c:1145:1
	add	sp, #92
	pop.w	{r4, r5, r6, r7, r8, r9, r10, r11, pc}
.Ltmp390:
.Lfunc_end5:
	.size	lv_label_refr_text, .Lfunc_end5-lv_label_refr_text
	.cfi_endproc
	.cantunwind
	.fnend
                                        @ -- End function
	.section	.text.lv_label_set_text_fmt,"ax",%progbits
	.hidden	lv_label_set_text_fmt           @ -- Begin function lv_label_set_text_fmt
	.globl	lv_label_set_text_fmt
	.p2align	1
	.type	lv_label_set_text_fmt,%function
	.code	16                              @ @lv_label_set_text_fmt
	.thumb_func
lv_label_set_text_fmt:
.Lfunc_begin6:
	.loc	12 148 0                        @ ../GUILib/src/widgets/lv_label.c:148:0
	.fnstart
	.cfi_startproc
@ %bb.0:
	@DEBUG_VALUE: lv_label_set_text_fmt:obj <- $r0
	@DEBUG_VALUE: lv_label_set_text_fmt:fmt <- $r1
	.pad	#8
	sub	sp, #8
	.cfi_def_cfa_offset 8
	.save	{r4, r5, r7, lr}
	push	{r4, r5, r7, lr}
	.cfi_def_cfa_offset 24
	.cfi_offset lr, -12
	.cfi_offset r7, -16
	.cfi_offset r5, -20
	.cfi_offset r4, -24
	.pad	#8
	sub	sp, #8
	.cfi_def_cfa_offset 32
	str	r2, [sp, #24]
	@DEBUG_VALUE: lv_label_set_text_fmt:fmt <- $r1
	@DEBUG_VALUE: lv_label_set_text_fmt:obj <- $r0
	str	r3, [sp, #28]
.Ltmp391:
	.loc	12 150 5 prologue_end           @ ../GUILib/src/widgets/lv_label.c:150:5
	cbz	r1, .LBB6_5
.Ltmp392:
@ %bb.1:
	@DEBUG_VALUE: lv_label_set_text_fmt:fmt <- $r1
	@DEBUG_VALUE: lv_label_set_text_fmt:obj <- $r0
	.loc	12 0 5 is_stmt 0                @ ../GUILib/src/widgets/lv_label.c:0:5
	mov	r5, r1
.Ltmp393:
	@DEBUG_VALUE: lv_label_set_text_fmt:fmt <- $r5
	@DEBUG_VALUE: lv_label_set_text_fmt:fmt <- $r5
	mov	r4, r0
.Ltmp394:
	@DEBUG_VALUE: lv_label_set_text_fmt:obj <- $r4
	.loc	12 152 5 is_stmt 1              @ ../GUILib/src/widgets/lv_label.c:152:5
	bl	lv_obj_invalidate
.Ltmp395:
	@DEBUG_VALUE: lv_label_set_text_fmt:label <- $r4
	.loc	12 161 15                       @ ../GUILib/src/widgets/lv_label.c:161:15
	ldr	r0, [r4, #36]
	.loc	12 161 28 is_stmt 0             @ ../GUILib/src/widgets/lv_label.c:161:28
	cbz	r0, .LBB6_4
.Ltmp396:
@ %bb.2:
	@DEBUG_VALUE: lv_label_set_text_fmt:fmt <- $r5
	@DEBUG_VALUE: lv_label_set_text_fmt:label <- $r4
	@DEBUG_VALUE: lv_label_set_text_fmt:obj <- $r4
	.loc	12 161 38                       @ ../GUILib/src/widgets/lv_label.c:161:38
	ldrb.w	r1, [r4, #72]
.Ltmp397:
	.loc	12 161 8                        @ ../GUILib/src/widgets/lv_label.c:161:8
	lsls	r1, r1, #28
	bmi	.LBB6_4
.Ltmp398:
@ %bb.3:
	@DEBUG_VALUE: lv_label_set_text_fmt:fmt <- $r5
	@DEBUG_VALUE: lv_label_set_text_fmt:label <- $r4
	@DEBUG_VALUE: lv_label_set_text_fmt:obj <- $r4
	.loc	12 162 9 is_stmt 1              @ ../GUILib/src/widgets/lv_label.c:162:9
	bl	lv_mem_free
.Ltmp399:
	.loc	12 0 9 is_stmt 0                @ ../GUILib/src/widgets/lv_label.c:0:9
	movs	r0, #0
	.loc	12 163 21 is_stmt 1             @ ../GUILib/src/widgets/lv_label.c:163:21
	str	r0, [r4, #36]
.Ltmp400:
.LBB6_4:
	@DEBUG_VALUE: lv_label_set_text_fmt:fmt <- $r5
	@DEBUG_VALUE: lv_label_set_text_fmt:label <- $r4
	@DEBUG_VALUE: lv_label_set_text_fmt:obj <- $r4
	.loc	12 0 21 is_stmt 0               @ ../GUILib/src/widgets/lv_label.c:0:21
	add	r1, sp, #24
	.loc	12 168 19 is_stmt 1             @ ../GUILib/src/widgets/lv_label.c:168:19
	mov	r0, r5
	.loc	12 167 5                        @ ../GUILib/src/widgets/lv_label.c:167:5
	str	r1, [sp, #4]
	.loc	12 168 19                       @ ../GUILib/src/widgets/lv_label.c:168:19
	bl	_lv_txt_set_text_vfmt
.Ltmp401:
	.loc	12 170 23                       @ ../GUILib/src/widgets/lv_label.c:170:23
	ldrb.w	r1, [r4, #72]
	.loc	12 168 17                       @ ../GUILib/src/widgets/lv_label.c:168:17
	str	r0, [r4, #36]
	.loc	12 170 23                       @ ../GUILib/src/widgets/lv_label.c:170:23
	and	r0, r1, #247
	strb.w	r0, [r4, #72]
	.loc	12 172 5                        @ ../GUILib/src/widgets/lv_label.c:172:5
	mov	r0, r4
	bl	lv_label_refr_text
.Ltmp402:
	.loc	12 173 1                        @ ../GUILib/src/widgets/lv_label.c:173:1
	add	sp, #8
	pop.w	{r4, r5, r7, lr}
.Ltmp403:
	@DEBUG_VALUE: lv_label_set_text_fmt:fmt <- [DW_OP_LLVM_entry_value 1] $r1
	@DEBUG_VALUE: lv_label_set_text_fmt:obj <- [DW_OP_LLVM_entry_value 1] $r0
	add	sp, #8
	bx	lr
.Ltmp404:
	.p2align	2
.LBB6_5:                                @ =>This Inner Loop Header: Depth=1
	@DEBUG_VALUE: lv_label_set_text_fmt:fmt <- $r1
	@DEBUG_VALUE: lv_label_set_text_fmt:obj <- $r0
	.loc	12 150 5                        @ ../GUILib/src/widgets/lv_label.c:150:5
	b	.LBB6_5
.Ltmp405:
.Lfunc_end6:
	.size	lv_label_set_text_fmt, .Lfunc_end6-lv_label_set_text_fmt
	.cfi_endproc
	.cantunwind
	.fnend
                                        @ -- End function
	.section	.text.lv_label_set_text_static,"ax",%progbits
	.hidden	lv_label_set_text_static        @ -- Begin function lv_label_set_text_static
	.globl	lv_label_set_text_static
	.p2align	1
	.type	lv_label_set_text_static,%function
	.code	16                              @ @lv_label_set_text_static
	.thumb_func
lv_label_set_text_static:
.Lfunc_begin7:
	.loc	12 176 0                        @ ../GUILib/src/widgets/lv_label.c:176:0
	.fnstart
	.cfi_startproc
@ %bb.0:
	@DEBUG_VALUE: lv_label_set_text_static:obj <- $r0
	@DEBUG_VALUE: lv_label_set_text_static:text <- $r1
	.save	{r4, r5, r7, lr}
	push	{r4, r5, r7, lr}
	.cfi_def_cfa_offset 16
	.cfi_offset lr, -4
	.cfi_offset r7, -8
	.cfi_offset r5, -12
	.cfi_offset r4, -16
.Ltmp406:
	@DEBUG_VALUE: lv_label_set_text_static:label <- $r0
	mov	r4, r0
.Ltmp407:
	@DEBUG_VALUE: lv_label_set_text_static:label <- $r4
	@DEBUG_VALUE: lv_label_set_text_static:obj <- $r4
	.loc	12 180 15 prologue_end          @ ../GUILib/src/widgets/lv_label.c:180:15
	ldrb.w	r0, [r0, #72]
	mov	r5, r1
.Ltmp408:
	@DEBUG_VALUE: lv_label_set_text_static:text <- $r5
	@DEBUG_VALUE: lv_label_set_text_static:text <- $r5
	.loc	12 180 31 is_stmt 0             @ ../GUILib/src/widgets/lv_label.c:180:31
	lsls	r0, r0, #28
	bmi	.LBB7_3
.Ltmp409:
@ %bb.1:
	@DEBUG_VALUE: lv_label_set_text_static:text <- $r5
	@DEBUG_VALUE: lv_label_set_text_static:obj <- $r4
	@DEBUG_VALUE: lv_label_set_text_static:label <- $r4
	@DEBUG_VALUE: lv_label_set_text_static:label <- $r4
	.loc	12 180 41                       @ ../GUILib/src/widgets/lv_label.c:180:41
	ldr	r0, [r4, #36]
.Ltmp410:
	.loc	12 180 8                        @ ../GUILib/src/widgets/lv_label.c:180:8
	cbz	r0, .LBB7_3
.Ltmp411:
@ %bb.2:
	@DEBUG_VALUE: lv_label_set_text_static:text <- $r5
	@DEBUG_VALUE: lv_label_set_text_static:obj <- $r4
	@DEBUG_VALUE: lv_label_set_text_static:label <- $r4
	.loc	12 181 9 is_stmt 1              @ ../GUILib/src/widgets/lv_label.c:181:9
	bl	lv_mem_free
.Ltmp412:
	.loc	12 0 9 is_stmt 0                @ ../GUILib/src/widgets/lv_label.c:0:9
	movs	r0, #0
	.loc	12 182 21 is_stmt 1             @ ../GUILib/src/widgets/lv_label.c:182:21
	str	r0, [r4, #36]
.Ltmp413:
.LBB7_3:
	@DEBUG_VALUE: lv_label_set_text_static:text <- $r5
	@DEBUG_VALUE: lv_label_set_text_static:obj <- $r4
	@DEBUG_VALUE: lv_label_set_text_static:label <- $r4
	.loc	12 185 8                        @ ../GUILib/src/widgets/lv_label.c:185:8
	cbz	r5, .LBB7_5
.Ltmp414:
@ %bb.4:
	@DEBUG_VALUE: lv_label_set_text_static:text <- $r5
	@DEBUG_VALUE: lv_label_set_text_static:obj <- $r4
	@DEBUG_VALUE: lv_label_set_text_static:label <- $r4
	.loc	12 186 27                       @ ../GUILib/src/widgets/lv_label.c:186:27
	ldrb.w	r0, [r4, #72]
	.loc	12 187 27                       @ ../GUILib/src/widgets/lv_label.c:187:27
	str	r5, [r4, #36]
	.loc	12 186 27                       @ ../GUILib/src/widgets/lv_label.c:186:27
	orr	r0, r0, #8
	strb.w	r0, [r4, #72]
.Ltmp415:
.LBB7_5:
	@DEBUG_VALUE: lv_label_set_text_static:text <- $r5
	@DEBUG_VALUE: lv_label_set_text_static:obj <- $r4
	@DEBUG_VALUE: lv_label_set_text_static:label <- $r4
	.loc	12 190 5                        @ ../GUILib/src/widgets/lv_label.c:190:5
	mov	r0, r4
	pop.w	{r4, r5, r7, lr}
.Ltmp416:
	@DEBUG_VALUE: lv_label_set_text_static:text <- [DW_OP_LLVM_entry_value 1] $r1
	b	lv_label_refr_text
.Ltmp417:
.Lfunc_end7:
	.size	lv_label_set_text_static, .Lfunc_end7-lv_label_set_text_static
	.cfi_endproc
	.cantunwind
	.fnend
                                        @ -- End function
	.section	.text.lv_label_set_long_mode,"ax",%progbits
	.hidden	lv_label_set_long_mode          @ -- Begin function lv_label_set_long_mode
	.globl	lv_label_set_long_mode
	.p2align	1
	.type	lv_label_set_long_mode,%function
	.code	16                              @ @lv_label_set_long_mode
	.thumb_func
lv_label_set_long_mode:
.Lfunc_begin8:
	.loc	12 194 0                        @ ../GUILib/src/widgets/lv_label.c:194:0
	.fnstart
	.cfi_startproc
@ %bb.0:
	@DEBUG_VALUE: lv_label_set_long_mode:obj <- $r0
	@DEBUG_VALUE: lv_label_set_long_mode:long_mode <- $r1
	.save	{r4, r5, r7, lr}
	push	{r4, r5, r7, lr}
	.cfi_def_cfa_offset 16
	.cfi_offset lr, -4
	.cfi_offset r7, -8
	.cfi_offset r5, -12
	.cfi_offset r4, -16
	mov	r5, r1
.Ltmp418:
	@DEBUG_VALUE: lv_label_set_long_mode:long_mode <- $r5
	.loc	12 200 5 prologue_end           @ ../GUILib/src/widgets/lv_label.c:200:5
	movw	r1, :lower16:set_ofs_x_anim
	movt	r1, :upper16:set_ofs_x_anim
	mov	r4, r0
.Ltmp419:
	@DEBUG_VALUE: lv_label_set_long_mode:label <- $r4
	@DEBUG_VALUE: lv_label_set_long_mode:long_mode <- $r5
	@DEBUG_VALUE: lv_label_set_long_mode:obj <- $r4
	bl	lv_anim_del
.Ltmp420:
	.loc	12 201 5                        @ ../GUILib/src/widgets/lv_label.c:201:5
	movw	r1, :lower16:set_ofs_y_anim
	movt	r1, :upper16:set_ofs_y_anim
	mov	r0, r4
	bl	lv_anim_del
.Ltmp421:
	.loc	12 0 0 is_stmt 0                @ ../GUILib/src/widgets/lv_label.c:0:0
	ldrb.w	r1, [r4, #72]
	movs	r0, #0
.Ltmp422:
	.loc	12 202 21 is_stmt 1             @ ../GUILib/src/widgets/lv_label.c:202:21
	str	r0, [r4, #68]
.Ltmp423:
	.loc	12 205 42                       @ ../GUILib/src/widgets/lv_label.c:205:42
	subs	r2, r5, #2
	and	r0, r1, #223
	cmp	r2, #3
	it	lo
	orrlo	r0, r1, #32
.Ltmp424:
	.loc	12 211 15                       @ ../GUILib/src/widgets/lv_label.c:211:15
	and	r1, r0, #7
	.loc	12 211 46 is_stmt 0             @ ../GUILib/src/widgets/lv_label.c:211:46
	cmp	r1, #1
.Ltmp425:
	.loc	12 0 0                          @ ../GUILib/src/widgets/lv_label.c:0:0
	strb.w	r0, [r4, #72]
.Ltmp426:
	.loc	12 211 46                       @ ../GUILib/src/widgets/lv_label.c:211:46
	bne	.LBB8_3
.Ltmp427:
@ %bb.1:
	@DEBUG_VALUE: lv_label_set_long_mode:long_mode <- $r5
	@DEBUG_VALUE: lv_label_set_long_mode:obj <- $r4
	@DEBUG_VALUE: lv_label_set_long_mode:label <- $r4
	.loc	12 211 56                       @ ../GUILib/src/widgets/lv_label.c:211:56
	ldr	r1, [r4, #44]
.Ltmp428:
	.loc	12 211 8                        @ ../GUILib/src/widgets/lv_label.c:211:8
	adds	r1, #1
	beq	.LBB8_3
.Ltmp429:
@ %bb.2:
	@DEBUG_VALUE: lv_label_set_long_mode:long_mode <- $r5
	@DEBUG_VALUE: lv_label_set_long_mode:obj <- $r4
	@DEBUG_VALUE: lv_label_set_long_mode:label <- $r4
	.loc	12 212 9 is_stmt 1              @ ../GUILib/src/widgets/lv_label.c:212:9
	mov	r0, r4
	bl	lv_label_revert_dots
.Ltmp430:
	.loc	12 215 22                       @ ../GUILib/src/widgets/lv_label.c:215:22
	ldrb.w	r0, [r4, #72]
.Ltmp431:
.LBB8_3:
	@DEBUG_VALUE: lv_label_set_long_mode:long_mode <- $r5
	@DEBUG_VALUE: lv_label_set_long_mode:obj <- $r4
	@DEBUG_VALUE: lv_label_set_long_mode:label <- $r4
	and	r1, r5, #7
	and	r0, r0, #248
	add	r1, r0
	.loc	12 216 5                        @ ../GUILib/src/widgets/lv_label.c:216:5
	mov	r0, r4
	.loc	12 215 22                       @ ../GUILib/src/widgets/lv_label.c:215:22
	strb.w	r1, [r4, #72]
	.loc	12 216 5                        @ ../GUILib/src/widgets/lv_label.c:216:5
	pop.w	{r4, r5, r7, lr}
.Ltmp432:
	b	lv_label_refr_text
.Ltmp433:
.Lfunc_end8:
	.size	lv_label_set_long_mode, .Lfunc_end8-lv_label_set_long_mode
	.cfi_endproc
	.cantunwind
	.fnend
                                        @ -- End function
	.section	.text.set_ofs_x_anim,"ax",%progbits
	.p2align	1                               @ -- Begin function set_ofs_x_anim
	.type	set_ofs_x_anim,%function
	.code	16                              @ @set_ofs_x_anim
	.thumb_func
set_ofs_x_anim:
.Lfunc_begin9:
	.loc	12 1236 0                       @ ../GUILib/src/widgets/lv_label.c:1236:0
	.fnstart
	.cfi_startproc
@ %bb.0:
	@DEBUG_VALUE: set_ofs_x_anim:obj <- $r0
	@DEBUG_VALUE: set_ofs_x_anim:obj <- $r0
	@DEBUG_VALUE: set_ofs_x_anim:v <- $r1
	@DEBUG_VALUE: set_ofs_x_anim:v <- $r1
	@DEBUG_VALUE: set_ofs_x_anim:label <- $r0
	@DEBUG_VALUE: set_ofs_x_anim:label <- $r0
	.loc	12 1238 24 prologue_end         @ ../GUILib/src/widgets/lv_label.c:1238:24
	strh.w	r1, [r0, #68]
.Ltmp434:
	.loc	12 1239 5                       @ ../GUILib/src/widgets/lv_label.c:1239:5
	b	lv_obj_invalidate
.Ltmp435:
.Lfunc_end9:
	.size	set_ofs_x_anim, .Lfunc_end9-set_ofs_x_anim
	.cfi_endproc
	.file	21 "C:\\Users\\Hyacincher\\Desktop\\HyTelectrl\\Code\\Project" "../GUILib/src/widgets/../core/lv_obj_pos.h"
	.cantunwind
	.fnend
                                        @ -- End function
	.section	.text.set_ofs_y_anim,"ax",%progbits
	.p2align	1                               @ -- Begin function set_ofs_y_anim
	.type	set_ofs_y_anim,%function
	.code	16                              @ @set_ofs_y_anim
	.thumb_func
set_ofs_y_anim:
.Lfunc_begin10:
	.loc	12 1243 0                       @ ../GUILib/src/widgets/lv_label.c:1243:0
	.fnstart
	.cfi_startproc
@ %bb.0:
	@DEBUG_VALUE: set_ofs_y_anim:obj <- $r0
	@DEBUG_VALUE: set_ofs_y_anim:obj <- $r0
	@DEBUG_VALUE: set_ofs_y_anim:v <- $r1
	@DEBUG_VALUE: set_ofs_y_anim:v <- $r1
	@DEBUG_VALUE: set_ofs_y_anim:label <- $r0
	@DEBUG_VALUE: set_ofs_y_anim:label <- $r0
	.loc	12 1245 24 prologue_end         @ ../GUILib/src/widgets/lv_label.c:1245:24
	strh.w	r1, [r0, #70]
.Ltmp436:
	.loc	12 1246 5                       @ ../GUILib/src/widgets/lv_label.c:1246:5
	b	lv_obj_invalidate
.Ltmp437:
.Lfunc_end10:
	.size	set_ofs_y_anim, .Lfunc_end10-set_ofs_y_anim
	.cfi_endproc
	.cantunwind
	.fnend
                                        @ -- End function
	.section	.text.lv_label_revert_dots,"ax",%progbits
	.p2align	1                               @ -- Begin function lv_label_revert_dots
	.type	lv_label_revert_dots,%function
	.code	16                              @ @lv_label_revert_dots
	.thumb_func
lv_label_revert_dots:
.Lfunc_begin11:
	.loc	12 1149 0                       @ ../GUILib/src/widgets/lv_label.c:1149:0
	.fnstart
	.cfi_startproc
@ %bb.0:
	@DEBUG_VALUE: lv_label_revert_dots:obj <- $r0
	.save	{r4, r5, r6, lr}
	push	{r4, r5, r6, lr}
	.cfi_def_cfa_offset 16
	.cfi_offset lr, -4
	.cfi_offset r6, -8
	.cfi_offset r5, -12
	.cfi_offset r4, -16
.Ltmp438:
	@DEBUG_VALUE: lv_label_revert_dots:label <- $r0
	mov	r6, r0
.Ltmp439:
	@DEBUG_VALUE: lv_label_revert_dots:label <- $r6
	@DEBUG_VALUE: lv_label_revert_dots:obj <- $r6
	.loc	12 1153 15 prologue_end         @ ../GUILib/src/widgets/lv_label.c:1153:15
	ldrb.w	r0, [r0, #72]
	and	r0, r0, #7
.Ltmp440:
	.loc	12 1153 8 is_stmt 0             @ ../GUILib/src/widgets/lv_label.c:1153:8
	cmp	r0, #1
	.loc	12 1169 1 is_stmt 1             @ ../GUILib/src/widgets/lv_label.c:1169:1
	it	ne
	popne	{r4, r5, r6, pc}
.Ltmp441:
.LBB11_1:
	.loc	12 1154 15                      @ ../GUILib/src/widgets/lv_label.c:1154:15
	ldr	r1, [r6, #44]
.Ltmp442:
	.loc	12 1154 8 is_stmt 0             @ ../GUILib/src/widgets/lv_label.c:1154:8
	adds	r0, r1, #1
	beq	.LBB11_6
@ %bb.2:
	.loc	12 1156 25 is_stmt 1            @ ../GUILib/src/widgets/lv_label.c:1156:25
	movw	r0, :lower16:_lv_txt_encoded_get_byte_id
	movt	r0, :upper16:_lv_txt_encoded_get_byte_id
	ldr	r2, [r0]
	.loc	12 1156 60 is_stmt 0            @ ../GUILib/src/widgets/lv_label.c:1156:60
	ldr	r0, [r6, #36]
	.loc	12 1155 40 is_stmt 1            @ ../GUILib/src/widgets/lv_label.c:1155:40
	subs	r1, #3
.Ltmp443:
	@DEBUG_VALUE: lv_label_revert_dots:letter_i <- $r1
	.loc	12 1156 25                      @ ../GUILib/src/widgets/lv_label.c:1156:25
	blx	r2
.Ltmp444:
	.loc	12 1211 15                      @ ../GUILib/src/widgets/lv_label.c:1211:15
	ldrb.w	r1, [r6, #72]
.Ltmp445:
	@DEBUG_VALUE: lv_label_get_dot_tmp:label <- $r6
	@DEBUG_VALUE: lv_label_get_dot_tmp:obj <- $r6
	@DEBUG_VALUE: lv_label_revert_dots:i <- 0
	@DEBUG_VALUE: lv_label_revert_dots:byte_i <- $r0
	.loc	12 0 0 is_stmt 0                @ ../GUILib/src/widgets/lv_label.c:0:0
	add.w	r12, r6, #40
.Ltmp446:
	@DEBUG_VALUE: lv_label_get_dot_tmp:label <- $r6
	.loc	12 1211 8                       @ ../GUILib/src/widgets/lv_label.c:1211:8
	lsls	r1, r1, #25
.Ltmp447:
	.loc	12 1212 27 is_stmt 1            @ ../GUILib/src/widgets/lv_label.c:1212:27
	it	mi
	ldrmi.w	r12, [r12]
.Ltmp448:
	@DEBUG_VALUE: lv_label_revert_dots:i <- 0
	@DEBUG_VALUE: lv_label_revert_dots:dot_tmp <- $r12
	.loc	12 1161 18                      @ ../GUILib/src/widgets/lv_label.c:1161:18
	ldr	r1, [r6, #36]
	movs	r3, #0
	.loc	12 1161 11 is_stmt 0            @ ../GUILib/src/widgets/lv_label.c:1161:11
	ldrb	r2, [r1, r0]
	.loc	12 1161 5                       @ ../GUILib/src/widgets/lv_label.c:1161:5
	cmp	r2, #0
	.loc	12 1161 11                      @ ../GUILib/src/widgets/lv_label.c:1161:11
	add.w	r2, r1, r0
	.loc	12 1161 5                       @ ../GUILib/src/widgets/lv_label.c:1161:5
	beq	.LBB11_5
.Ltmp449:
@ %bb.3:
	@DEBUG_VALUE: lv_label_revert_dots:dot_tmp <- $r12
	@DEBUG_VALUE: lv_label_get_dot_tmp:obj <- $r6
	@DEBUG_VALUE: lv_label_get_dot_tmp:label <- $r6
	@DEBUG_VALUE: lv_label_revert_dots:byte_i <- $r0
	@DEBUG_VALUE: lv_label_revert_dots:i <- 0
	.loc	12 0 5                          @ ../GUILib/src/widgets/lv_label.c:0:5
	movs	r1, #0
.Ltmp450:
	.p2align	2
.LBB11_4:                               @ =>This Inner Loop Header: Depth=1
	@DEBUG_VALUE: lv_label_revert_dots:dot_tmp <- $r12
	@DEBUG_VALUE: lv_label_revert_dots:byte_i <- $r0
	@DEBUG_VALUE: lv_label_revert_dots:i <- $r1
	.loc	12 1162 35 is_stmt 1            @ ../GUILib/src/widgets/lv_label.c:1162:35
	ldrb.w	r3, [r12, r3]
	.loc	12 1163 10                      @ ../GUILib/src/widgets/lv_label.c:1163:10
	adds	r1, #1
.Ltmp451:
	@DEBUG_VALUE: lv_label_revert_dots:i <- $r1
	.loc	12 1162 33                      @ ../GUILib/src/widgets/lv_label.c:1162:33
	strb	r3, [r2]
.Ltmp452:
	.loc	12 1161 18                      @ ../GUILib/src/widgets/lv_label.c:1161:18
	ldr	r2, [r6, #36]
	.loc	12 1161 30 is_stmt 0            @ ../GUILib/src/widgets/lv_label.c:1161:30
	uxtab	r4, r0, r1
	.loc	12 1161 11                      @ ../GUILib/src/widgets/lv_label.c:1161:11
	ldrb	r5, [r2, r4]
	.loc	12 1161 32                      @ ../GUILib/src/widgets/lv_label.c:1161:32
	uxtb	r3, r1
	.loc	12 1161 5                       @ ../GUILib/src/widgets/lv_label.c:1161:5
	cmp	r5, #0
	.loc	12 1161 11                      @ ../GUILib/src/widgets/lv_label.c:1161:11
	add	r2, r4
	.loc	12 1161 5                       @ ../GUILib/src/widgets/lv_label.c:1161:5
	bne	.LBB11_4
.Ltmp453:
.LBB11_5:
	@DEBUG_VALUE: lv_label_revert_dots:dot_tmp <- $r12
	@DEBUG_VALUE: lv_label_revert_dots:byte_i <- $r0
	.loc	12 1165 31 is_stmt 1            @ ../GUILib/src/widgets/lv_label.c:1165:31
	ldrb.w	r0, [r12, r3]
.Ltmp454:
	.loc	12 1165 29 is_stmt 0            @ ../GUILib/src/widgets/lv_label.c:1165:29
	strb	r0, [r2]
	.loc	12 1166 5 is_stmt 1             @ ../GUILib/src/widgets/lv_label.c:1166:5
	mov	r0, r6
	bl	lv_label_dot_tmp_free
.Ltmp455:
	.loc	12 0 5 is_stmt 0                @ ../GUILib/src/widgets/lv_label.c:0:5
	mov.w	r0, #-1
	.loc	12 1168 20 is_stmt 1            @ ../GUILib/src/widgets/lv_label.c:1168:20
	str	r0, [r6, #44]
.LBB11_6:
	.loc	12 1169 1                       @ ../GUILib/src/widgets/lv_label.c:1169:1
	pop	{r4, r5, r6, pc}
.Ltmp456:
.Lfunc_end11:
	.size	lv_label_revert_dots, .Lfunc_end11-lv_label_revert_dots
	.cfi_endproc
	.cantunwind
	.fnend
                                        @ -- End function
	.section	.text.lv_label_set_recolor,"ax",%progbits
	.hidden	lv_label_set_recolor            @ -- Begin function lv_label_set_recolor
	.globl	lv_label_set_recolor
	.p2align	1
	.type	lv_label_set_recolor,%function
	.code	16                              @ @lv_label_set_recolor
	.thumb_func
lv_label_set_recolor:
.Lfunc_begin12:
	.loc	12 220 0                        @ ../GUILib/src/widgets/lv_label.c:220:0
	.fnstart
	.cfi_startproc
@ %bb.0:
	@DEBUG_VALUE: lv_label_set_recolor:obj <- $r0
	@DEBUG_VALUE: lv_label_set_recolor:obj <- $r0
	@DEBUG_VALUE: lv_label_set_recolor:en <- [DW_OP_LLVM_convert 1 7, DW_OP_LLVM_convert 8 7, DW_OP_stack_value] $r1
	@DEBUG_VALUE: lv_label_set_recolor:label <- $r0
	@DEBUG_VALUE: lv_label_set_recolor:label <- $r0
	.loc	12 224 15 prologue_end          @ ../GUILib/src/widgets/lv_label.c:224:15
	ldrb.w	r2, [r0, #72]
	@DEBUG_VALUE: lv_label_set_recolor:en <- [DW_OP_LLVM_convert 1 7, DW_OP_LLVM_convert 8 7, DW_OP_stack_value] $r1
	movs	r3, #1
	.loc	12 224 23 is_stmt 0             @ ../GUILib/src/widgets/lv_label.c:224:23
	and	r12, r2, #16
	eor.w	r3, r3, r12, lsr #4
.Ltmp457:
	.loc	12 224 8                        @ ../GUILib/src/widgets/lv_label.c:224:8
	eors	r3, r1
	.loc	12 230 1 is_stmt 1              @ ../GUILib/src/widgets/lv_label.c:230:1
	it	ne
	bxne	lr
.Ltmp458:
.LBB12_1:
	@DEBUG_VALUE: lv_label_set_recolor:en <- [DW_OP_LLVM_convert 1 7, DW_OP_LLVM_convert 8 7, DW_OP_stack_value] $r1
	@DEBUG_VALUE: lv_label_set_recolor:label <- $r0
	@DEBUG_VALUE: lv_label_set_recolor:obj <- $r0
	.loc	12 226 20                       @ ../GUILib/src/widgets/lv_label.c:226:20
	and	r2, r2, #239
	bfi	r2, r1, #4, #1
	strb.w	r2, [r0, #72]
.Ltmp459:
	.loc	12 229 5                        @ ../GUILib/src/widgets/lv_label.c:229:5
	b	lv_label_refr_text
.Ltmp460:
.Lfunc_end12:
	.size	lv_label_set_recolor, .Lfunc_end12-lv_label_set_recolor
	.cfi_endproc
	.cantunwind
	.fnend
                                        @ -- End function
	.section	.text.lv_label_set_text_sel_start,"ax",%progbits
	.hidden	lv_label_set_text_sel_start     @ -- Begin function lv_label_set_text_sel_start
	.globl	lv_label_set_text_sel_start
	.p2align	1
	.type	lv_label_set_text_sel_start,%function
	.code	16                              @ @lv_label_set_text_sel_start
	.thumb_func
lv_label_set_text_sel_start:
.Lfunc_begin13:
	.loc	12 233 0                        @ ../GUILib/src/widgets/lv_label.c:233:0
	.fnstart
	.cfi_startproc
@ %bb.0:
	@DEBUG_VALUE: lv_label_set_text_sel_start:obj <- $r0
	@DEBUG_VALUE: lv_label_set_text_sel_start:obj <- $r0
	@DEBUG_VALUE: lv_label_set_text_sel_start:index <- $r1
	@DEBUG_VALUE: lv_label_set_text_sel_start:index <- $r1
	@DEBUG_VALUE: lv_label_set_text_sel_start:label <- $r0
	@DEBUG_VALUE: lv_label_set_text_sel_start:label <- $r0
	.loc	12 238 24 prologue_end          @ ../GUILib/src/widgets/lv_label.c:238:24
	str	r1, [r0, #60]
.Ltmp461:
	.loc	12 239 5                        @ ../GUILib/src/widgets/lv_label.c:239:5
	b	lv_obj_invalidate
.Ltmp462:
.Lfunc_end13:
	.size	lv_label_set_text_sel_start, .Lfunc_end13-lv_label_set_text_sel_start
	.cfi_endproc
	.cantunwind
	.fnend
                                        @ -- End function
	.section	.text.lv_label_set_text_sel_end,"ax",%progbits
	.hidden	lv_label_set_text_sel_end       @ -- Begin function lv_label_set_text_sel_end
	.globl	lv_label_set_text_sel_end
	.p2align	1
	.type	lv_label_set_text_sel_end,%function
	.code	16                              @ @lv_label_set_text_sel_end
	.thumb_func
lv_label_set_text_sel_end:
.Lfunc_begin14:
	.loc	12 247 0                        @ ../GUILib/src/widgets/lv_label.c:247:0
	.fnstart
	.cfi_startproc
@ %bb.0:
	@DEBUG_VALUE: lv_label_set_text_sel_end:obj <- $r0
	@DEBUG_VALUE: lv_label_set_text_sel_end:obj <- $r0
	@DEBUG_VALUE: lv_label_set_text_sel_end:index <- $r1
	@DEBUG_VALUE: lv_label_set_text_sel_end:index <- $r1
	@DEBUG_VALUE: lv_label_set_text_sel_end:label <- $r0
	@DEBUG_VALUE: lv_label_set_text_sel_end:label <- $r0
	.loc	12 252 24 prologue_end          @ ../GUILib/src/widgets/lv_label.c:252:24
	str	r1, [r0, #64]
.Ltmp463:
	.loc	12 253 5                        @ ../GUILib/src/widgets/lv_label.c:253:5
	b	lv_obj_invalidate
.Ltmp464:
.Lfunc_end14:
	.size	lv_label_set_text_sel_end, .Lfunc_end14-lv_label_set_text_sel_end
	.cfi_endproc
	.cantunwind
	.fnend
                                        @ -- End function
	.section	.text.lv_label_get_text,"ax",%progbits
	.hidden	lv_label_get_text               @ -- Begin function lv_label_get_text
	.globl	lv_label_get_text
	.p2align	1
	.type	lv_label_get_text,%function
	.code	16                              @ @lv_label_get_text
	.thumb_func
lv_label_get_text:
.Lfunc_begin15:
	.loc	12 265 0                        @ ../GUILib/src/widgets/lv_label.c:265:0
	.fnstart
	.cfi_startproc
@ %bb.0:
	@DEBUG_VALUE: lv_label_get_text:obj <- $r0
	@DEBUG_VALUE: lv_label_get_text:obj <- $r0
	@DEBUG_VALUE: lv_label_get_text:label <- $r0
	@DEBUG_VALUE: lv_label_get_text:label <- $r0
	.loc	12 268 19 prologue_end          @ ../GUILib/src/widgets/lv_label.c:268:19
	ldr	r0, [r0, #36]
.Ltmp465:
	@DEBUG_VALUE: lv_label_get_text:obj <- [DW_OP_LLVM_entry_value 1] $r0
	.loc	12 268 5 is_stmt 0              @ ../GUILib/src/widgets/lv_label.c:268:5
	bx	lr
.Ltmp466:
.Lfunc_end15:
	.size	lv_label_get_text, .Lfunc_end15-lv_label_get_text
	.cfi_endproc
	.cantunwind
	.fnend
                                        @ -- End function
	.section	.text.lv_label_get_long_mode,"ax",%progbits
	.hidden	lv_label_get_long_mode          @ -- Begin function lv_label_get_long_mode
	.globl	lv_label_get_long_mode
	.p2align	1
	.type	lv_label_get_long_mode,%function
	.code	16                              @ @lv_label_get_long_mode
	.thumb_func
lv_label_get_long_mode:
.Lfunc_begin16:
	.loc	12 272 0 is_stmt 1              @ ../GUILib/src/widgets/lv_label.c:272:0
	.fnstart
	.cfi_startproc
@ %bb.0:
	@DEBUG_VALUE: lv_label_get_long_mode:obj <- $r0
	@DEBUG_VALUE: lv_label_get_long_mode:obj <- $r0
	@DEBUG_VALUE: lv_label_get_long_mode:label <- $r0
	@DEBUG_VALUE: lv_label_get_long_mode:label <- $r0
	.loc	12 275 19 prologue_end          @ ../GUILib/src/widgets/lv_label.c:275:19
	ldrb.w	r0, [r0, #72]
.Ltmp467:
	@DEBUG_VALUE: lv_label_get_long_mode:obj <- [DW_OP_LLVM_entry_value 1] $r0
	.loc	12 275 5 is_stmt 0              @ ../GUILib/src/widgets/lv_label.c:275:5
	and	r0, r0, #7
	bx	lr
.Ltmp468:
.Lfunc_end16:
	.size	lv_label_get_long_mode, .Lfunc_end16-lv_label_get_long_mode
	.cfi_endproc
	.cantunwind
	.fnend
                                        @ -- End function
	.section	.text.lv_label_get_recolor,"ax",%progbits
	.hidden	lv_label_get_recolor            @ -- Begin function lv_label_get_recolor
	.globl	lv_label_get_recolor
	.p2align	1
	.type	lv_label_get_recolor,%function
	.code	16                              @ @lv_label_get_recolor
	.thumb_func
lv_label_get_recolor:
.Lfunc_begin17:
	.loc	12 279 0 is_stmt 1              @ ../GUILib/src/widgets/lv_label.c:279:0
	.fnstart
	.cfi_startproc
@ %bb.0:
	@DEBUG_VALUE: lv_label_get_recolor:obj <- $r0
	@DEBUG_VALUE: lv_label_get_recolor:obj <- $r0
	@DEBUG_VALUE: lv_label_get_recolor:label <- $r0
	@DEBUG_VALUE: lv_label_get_recolor:label <- $r0
	.loc	12 283 19 prologue_end          @ ../GUILib/src/widgets/lv_label.c:283:19
	ldrb.w	r0, [r0, #72]
.Ltmp469:
	@DEBUG_VALUE: lv_label_get_recolor:obj <- [DW_OP_LLVM_entry_value 1] $r0
	.loc	12 283 12 is_stmt 0             @ ../GUILib/src/widgets/lv_label.c:283:12
	ubfx	r0, r0, #4, #1
	.loc	12 283 5                        @ ../GUILib/src/widgets/lv_label.c:283:5
	bx	lr
.Ltmp470:
.Lfunc_end17:
	.size	lv_label_get_recolor, .Lfunc_end17-lv_label_get_recolor
	.cfi_endproc
	.cantunwind
	.fnend
                                        @ -- End function
	.section	.text.lv_label_get_letter_pos,"ax",%progbits
	.hidden	lv_label_get_letter_pos         @ -- Begin function lv_label_get_letter_pos
	.globl	lv_label_get_letter_pos
	.p2align	1
	.type	lv_label_get_letter_pos,%function
	.code	16                              @ @lv_label_get_letter_pos
	.thumb_func
lv_label_get_letter_pos:
.Lfunc_begin18:
	.loc	12 287 0 is_stmt 1              @ ../GUILib/src/widgets/lv_label.c:287:0
	.fnstart
	.cfi_startproc
@ %bb.0:
	@DEBUG_VALUE: lv_label_get_letter_pos:obj <- $r0
	@DEBUG_VALUE: lv_label_get_letter_pos:char_id <- $r1
	@DEBUG_VALUE: lv_label_get_letter_pos:pos <- $r2
	@DEBUG_VALUE: lv_label_get_letter_pos:pos <- $r2
	@DEBUG_VALUE: lv_label_get_letter_pos:char_id <- $r1
	.loc	12 289 5 prologue_end           @ ../GUILib/src/widgets/lv_label.c:289:5
	cmp	r2, #0
	@DEBUG_VALUE: lv_label_get_letter_pos:obj <- $r0
	beq	.LBB18_7
.Ltmp471:
@ %bb.1:
	@DEBUG_VALUE: lv_label_get_letter_pos:pos <- $r2
	@DEBUG_VALUE: lv_label_get_letter_pos:char_id <- $r1
	@DEBUG_VALUE: lv_label_get_letter_pos:obj <- $r0
	.save	{r4, r5, r6, r7, r8, r9, r10, r11, lr}
	push.w	{r4, r5, r6, r7, r8, r9, r10, r11, lr}
	.cfi_def_cfa_offset 36
	.cfi_offset lr, -4
	.cfi_offset r11, -8
	.cfi_offset r10, -12
	.cfi_offset r9, -16
	.cfi_offset r8, -20
	.cfi_offset r7, -24
	.cfi_offset r6, -28
	.cfi_offset r5, -32
	.cfi_offset r4, -36
	.pad	#52
	sub	sp, #52
	.cfi_def_cfa_offset 88
.Ltmp472:
	.loc	12 268 19                       @ ../GUILib/src/widgets/lv_label.c:268:19
	ldr	r6, [r0, #36]
.Ltmp473:
	@DEBUG_VALUE: lv_label_get_letter_pos:txt <- $r6
	.loc	12 0 19 is_stmt 0               @ ../GUILib/src/widgets/lv_label.c:0:19
	mov	r7, r2
.Ltmp474:
	@DEBUG_VALUE: lv_label_get_letter_pos:pos <- $r7
	@DEBUG_VALUE: lv_label_get_letter_pos:pos <- $r7
	mov	r11, r1
.Ltmp475:
	@DEBUG_VALUE: lv_label_get_letter_pos:char_id <- $r11
	@DEBUG_VALUE: lv_label_get_letter_pos:char_id <- $r11
	.loc	12 293 29 is_stmt 1             @ ../GUILib/src/widgets/lv_label.c:293:29
	movs	r1, #0
	mov	r2, r6
	mov	r5, r0
.Ltmp476:
	@DEBUG_VALUE: lv_label_get_letter_pos:obj <- $r5
	@DEBUG_VALUE: lv_label_get_letter_pos:label <- $r5
	@DEBUG_VALUE: lv_label_get_text:obj <- $r5
	@DEBUG_VALUE: lv_label_get_text:label <- $r5
	.loc	12 0 29 is_stmt 0               @ ../GUILib/src/widgets/lv_label.c:0:29
	movs	r4, #0
	.loc	12 293 29                       @ ../GUILib/src/widgets/lv_label.c:293:29
	bl	lv_obj_calculate_style_text_align
.Ltmp477:
	.loc	12 295 8 is_stmt 1              @ ../GUILib/src/widgets/lv_label.c:295:8
	ldrb	r1, [r6]
.Ltmp478:
	.loc	12 293 29                       @ ../GUILib/src/widgets/lv_label.c:293:29
	mov	r10, r0
.Ltmp479:
	@DEBUG_VALUE: lv_label_get_letter_pos:align <- undef
	.loc	12 295 8                        @ ../GUILib/src/widgets/lv_label.c:295:8
	cmp	r1, #0
	beq	.LBB18_8
.Ltmp480:
@ %bb.2:
	@DEBUG_VALUE: lv_label_get_letter_pos:char_id <- $r11
	@DEBUG_VALUE: lv_label_get_letter_pos:pos <- $r7
	@DEBUG_VALUE: lv_label_get_letter_pos:txt <- $r6
	@DEBUG_VALUE: lv_label_get_letter_pos:label <- $r5
	@DEBUG_VALUE: lv_label_get_letter_pos:obj <- $r5
	@DEBUG_VALUE: lv_label_get_letter_pos:label <- $r5
	.loc	12 0 8 is_stmt 0                @ ../GUILib/src/widgets/lv_label.c:0:8
	add	r1, sp, #44
	.loc	12 312 5 is_stmt 1              @ ../GUILib/src/widgets/lv_label.c:312:5
	mov	r0, r5
	bl	lv_obj_get_content_coords
.Ltmp481:
	@DEBUG_VALUE: lv_area_get_width:area_p <- [DW_OP_plus_uconst 44, DW_OP_stack_value] $sp
	@DEBUG_VALUE: lv_label_get_letter_pos:new_line_start <- 0
	@DEBUG_VALUE: lv_label_get_letter_pos:line_start <- 0
	.loc	6 125 33                        @ ../GUILib/src/hal/../misc/lv_area.h:125:33
	ldrh.w	r8, [sp, #48]
	.loc	6 125 46 is_stmt 0              @ ../GUILib/src/hal/../misc/lv_area.h:125:46
	ldrh.w	r9, [sp, #44]
.Ltmp482:
	@DEBUG_VALUE: lv_obj_get_style_text_font:part <- 0
	@DEBUG_VALUE: lv_obj_get_style_text_font:obj <- $r5
	@DEBUG_VALUE: lv_label_get_letter_pos:max_w <- undef
	.loc	18 333 26 is_stmt 1             @ ../GUILib/src/widgets/../core/lv_obj_style_gen.h:333:26
	mov	r0, r5
	movs	r1, #0
	movw	r2, #5209
	bl	lv_obj_get_style_prop
.Ltmp483:
	mov	r4, r0
.Ltmp484:
	@DEBUG_VALUE: lv_obj_get_style_text_line_space:part <- 0
	@DEBUG_VALUE: lv_obj_get_style_text_line_space:obj <- $r5
	@DEBUG_VALUE: lv_label_get_letter_pos:font <- $r4
	@DEBUG_VALUE: lv_obj_get_style_text_font:v <- $r4
	.loc	18 345 26                       @ ../GUILib/src/widgets/../core/lv_obj_style_gen.h:345:26
	mov	r0, r5
	movs	r1, #0
	movw	r2, #5211
	bl	lv_obj_get_style_prop
.Ltmp485:
	str	r0, [sp, #12]                   @ 4-byte Spill
.Ltmp486:
	@DEBUG_VALUE: lv_label_get_letter_pos:line_space <- [DW_OP_plus_uconst 12, DW_OP_deref_size 4, DW_OP_LLVM_convert 32 7, DW_OP_LLVM_convert 16 7, DW_OP_stack_value] $sp
	@DEBUG_VALUE: lv_obj_get_style_text_line_space:v <- [DW_OP_plus_uconst 12] [$sp+0]
	@DEBUG_VALUE: lv_obj_get_style_text_letter_space:part <- 0
	@DEBUG_VALUE: lv_obj_get_style_text_letter_space:obj <- $r5
	.loc	18 339 26                       @ ../GUILib/src/widgets/../core/lv_obj_style_gen.h:339:26
	mov	r0, r5
	movs	r1, #0
	movw	r2, #5210
	bl	lv_obj_get_style_prop
.Ltmp487:
	str	r0, [sp, #28]                   @ 4-byte Spill
.Ltmp488:
	@DEBUG_VALUE: lv_label_get_letter_pos:letter_space <- [DW_OP_plus_uconst 28, DW_OP_deref_size 4, DW_OP_LLVM_convert 32 7, DW_OP_LLVM_convert 16 7, DW_OP_stack_value] $sp
	@DEBUG_VALUE: lv_obj_get_style_text_letter_space:v <- [DW_OP_plus_uconst 28] [$sp+0]
	.loc	12 324 15                       @ ../GUILib/src/widgets/lv_label.c:324:15
	ldrb.w	r0, [r5, #72]
.Ltmp489:
	@DEBUG_VALUE: lv_label_get_letter_pos:flag <- [DW_OP_constu 1, DW_OP_and, DW_OP_stack_value] undef
	.loc	17 120 20                       @ ../GUILib/src/widgets/../font/lv_font.h:120:20
	ldrh	r1, [r4, #8]
.Ltmp490:
	@DEBUG_VALUE: lv_label_get_letter_pos:y <- 0
	@DEBUG_VALUE: lv_label_get_letter_pos:letter_height <- undef
	@DEBUG_VALUE: lv_label_get_letter_pos:flag <- 0
	.loc	12 325 8                        @ ../GUILib/src/widgets/lv_label.c:325:8
	ubfx	r0, r0, #4, #2
.Ltmp491:
	@DEBUG_VALUE: lv_label_get_letter_pos:flag <- $r0
	str	r1, [sp, #8]                    @ 4-byte Spill
.Ltmp492:
	.loc	18 3 26                         @ ../GUILib/src/widgets/../core/lv_obj_style_gen.h:3:26
	str	r0, [sp, #40]                   @ 4-byte Spill
.Ltmp493:
	@DEBUG_VALUE: lv_label_get_letter_pos:flag <- [DW_OP_plus_uconst 40] [$sp+0]
	@DEBUG_VALUE: lv_obj_get_style_width:part <- 0
	@DEBUG_VALUE: lv_obj_get_style_width:obj <- $r5
	@DEBUG_VALUE: lv_label_get_letter_pos:flag <- [DW_OP_plus_uconst 40] [$sp+0]
	mov	r0, r5
	movs	r1, #0
	movw	r2, #4097
	str	r4, [sp, #36]                   @ 4-byte Spill
.Ltmp494:
	@DEBUG_VALUE: lv_label_get_letter_pos:font <- [DW_OP_plus_uconst 36] [$sp+0]
	@DEBUG_VALUE: lv_font_get_line_height:font_p <- [DW_OP_plus_uconst 36] [$sp+0]
	@DEBUG_VALUE: lv_label_get_letter_pos:font <- [DW_OP_plus_uconst 36] [$sp+0]
	bl	lv_obj_get_style_prop
.Ltmp495:
	@DEBUG_VALUE: lv_obj_get_style_width:v <- $r0
	.loc	18 4 12                         @ ../GUILib/src/widgets/../core/lv_obj_style_gen.h:4:12
	uxth	r0, r0
.Ltmp496:
	.loc	18 0 12 is_stmt 0               @ ../GUILib/src/widgets/../core/lv_obj_style_gen.h:0:12
	movw	r1, #10193
.Ltmp497:
	.loc	12 326 69 is_stmt 1             @ ../GUILib/src/widgets/lv_label.c:326:69
	cmp	r0, r1
	bne	.LBB18_4
.Ltmp498:
@ %bb.3:
	@DEBUG_VALUE: lv_label_get_letter_pos:char_id <- $r11
	@DEBUG_VALUE: lv_label_get_letter_pos:pos <- $r7
	@DEBUG_VALUE: lv_label_get_letter_pos:txt <- $r6
	@DEBUG_VALUE: lv_label_get_letter_pos:label <- $r5
	@DEBUG_VALUE: lv_label_get_letter_pos:obj <- $r5
	@DEBUG_VALUE: lv_label_get_letter_pos:font <- [DW_OP_plus_uconst 36] [$sp+0]
	@DEBUG_VALUE: lv_label_get_letter_pos:flag <- [DW_OP_plus_uconst 40] [$sp+0]
	@DEBUG_VALUE: lv_label_get_letter_pos:letter_space <- [DW_OP_plus_uconst 28, DW_OP_deref_size 4, DW_OP_LLVM_convert 32 7, DW_OP_LLVM_convert 16 7, DW_OP_stack_value] $sp
	@DEBUG_VALUE: lv_label_get_letter_pos:line_space <- [DW_OP_plus_uconst 12, DW_OP_deref_size 4, DW_OP_LLVM_convert 32 7, DW_OP_LLVM_convert 16 7, DW_OP_stack_value] $sp
	@DEBUG_VALUE: lv_label_get_letter_pos:y <- 0
	@DEBUG_VALUE: lv_label_get_letter_pos:line_start <- 0
	@DEBUG_VALUE: lv_label_get_letter_pos:new_line_start <- 0
	.loc	12 326 78 is_stmt 0             @ ../GUILib/src/widgets/lv_label.c:326:78
	ldrh	r0, [r5, #34]
.Ltmp499:
	.loc	12 326 8                        @ ../GUILib/src/widgets/lv_label.c:326:8
	lsls	r0, r0, #21
	ldr	r0, [sp, #40]                   @ 4-byte Reload
	it	pl
	addpl	r0, #4
	str	r0, [sp, #40]                   @ 4-byte Spill
.Ltmp500:
.LBB18_4:
	@DEBUG_VALUE: lv_label_get_letter_pos:char_id <- $r11
	@DEBUG_VALUE: lv_label_get_letter_pos:pos <- $r7
	@DEBUG_VALUE: lv_label_get_letter_pos:txt <- $r6
	@DEBUG_VALUE: lv_label_get_letter_pos:label <- $r5
	@DEBUG_VALUE: lv_label_get_letter_pos:obj <- $r5
	@DEBUG_VALUE: lv_label_get_letter_pos:font <- [DW_OP_plus_uconst 36] [$sp+0]
	@DEBUG_VALUE: lv_label_get_letter_pos:flag <- [DW_OP_plus_uconst 40] [$sp+0]
	@DEBUG_VALUE: lv_label_get_letter_pos:letter_space <- [DW_OP_plus_uconst 28, DW_OP_deref_size 4, DW_OP_LLVM_convert 32 7, DW_OP_LLVM_convert 16 7, DW_OP_stack_value] $sp
	@DEBUG_VALUE: lv_label_get_letter_pos:line_space <- [DW_OP_plus_uconst 12, DW_OP_deref_size 4, DW_OP_LLVM_convert 32 7, DW_OP_LLVM_convert 16 7, DW_OP_stack_value] $sp
	@DEBUG_VALUE: lv_label_get_letter_pos:y <- 0
	@DEBUG_VALUE: lv_label_get_letter_pos:line_start <- 0
	@DEBUG_VALUE: lv_label_get_letter_pos:new_line_start <- 0
	@DEBUG_VALUE: lv_label_get_letter_pos:max_w <- undef
	@DEBUG_VALUE: lv_label_get_letter_pos:flag <- [DW_OP_plus_uconst 40] [$sp+0]
	.loc	12 328 24 is_stmt 1             @ ../GUILib/src/widgets/lv_label.c:328:24
	movw	r0, :lower16:_lv_txt_encoded_get_byte_id
	movt	r0, :upper16:_lv_txt_encoded_get_byte_id
	ldr	r2, [r0]
	mov	r0, r6
	mov	r1, r11
	blx	r2
.Ltmp501:
	.loc	12 331 11                       @ ../GUILib/src/widgets/lv_label.c:331:11
	ldrb	r1, [r6]
	.loc	12 328 24                       @ ../GUILib/src/widgets/lv_label.c:328:24
	mov	r2, r0
.Ltmp502:
	@DEBUG_VALUE: lv_label_get_letter_pos:byte_id <- $r2
	@DEBUG_VALUE: lv_label_get_letter_pos:y <- 0
	@DEBUG_VALUE: lv_label_get_letter_pos:new_line_start <- 0
	@DEBUG_VALUE: lv_label_get_letter_pos:line_start <- 0
	.loc	12 331 5                        @ ../GUILib/src/widgets/lv_label.c:331:5
	str.w	r10, [sp, #24]                  @ 4-byte Spill
	strd	r7, r11, [sp, #16]              @ 8-byte Folded Spill
	cbz	r1, .LBB18_11
.Ltmp503:
@ %bb.5:
	@DEBUG_VALUE: lv_label_get_letter_pos:char_id <- $r11
	@DEBUG_VALUE: lv_label_get_letter_pos:pos <- $r7
	@DEBUG_VALUE: lv_label_get_letter_pos:txt <- $r6
	@DEBUG_VALUE: lv_label_get_letter_pos:label <- $r5
	@DEBUG_VALUE: lv_label_get_letter_pos:obj <- $r5
	@DEBUG_VALUE: lv_label_get_letter_pos:byte_id <- $r2
	@DEBUG_VALUE: lv_label_get_letter_pos:font <- [DW_OP_plus_uconst 36] [$sp+0]
	@DEBUG_VALUE: lv_label_get_letter_pos:flag <- [DW_OP_plus_uconst 40] [$sp+0]
	@DEBUG_VALUE: lv_label_get_letter_pos:letter_space <- [DW_OP_plus_uconst 28, DW_OP_deref_size 4, DW_OP_LLVM_convert 32 7, DW_OP_LLVM_convert 16 7, DW_OP_stack_value] $sp
	@DEBUG_VALUE: lv_label_get_letter_pos:line_space <- [DW_OP_plus_uconst 12, DW_OP_deref_size 4, DW_OP_LLVM_convert 32 7, DW_OP_LLVM_convert 16 7, DW_OP_stack_value] $sp
	@DEBUG_VALUE: lv_label_get_letter_pos:y <- 0
	@DEBUG_VALUE: lv_label_get_letter_pos:line_start <- 0
	@DEBUG_VALUE: lv_label_get_letter_pos:new_line_start <- 0
	.loc	12 0 5 is_stmt 0                @ ../GUILib/src/widgets/lv_label.c:0:5
	sub.w	r0, r8, r9
.Ltmp504:
	.loc	12 332 27 is_stmt 1             @ ../GUILib/src/widgets/lv_label.c:332:27
	ldr	r1, [sp, #28]                   @ 4-byte Reload
	adds	r0, #1
	@DEBUG_VALUE: lv_label_get_letter_pos:y <- 0
.Ltmp505:
	@DEBUG_VALUE: lv_label_get_letter_pos:max_w <- $r0
	@DEBUG_VALUE: lv_label_get_letter_pos:line_start <- 0
	sxth.w	r10, r1
	sxth.w	r8, r0
	ldr	r1, [sp, #36]                   @ 4-byte Reload
	ldr	r5, [sp, #40]                   @ 4-byte Reload
.Ltmp506:
	@DEBUG_VALUE: lv_label_get_letter_pos:obj <- [DW_OP_LLVM_entry_value 1] $r0
	mov	r0, r6
.Ltmp507:
	.loc	12 0 27 is_stmt 0               @ ../GUILib/src/widgets/lv_label.c:0:27
	mov	r9, r2
.Ltmp508:
	@DEBUG_VALUE: lv_label_get_letter_pos:byte_id <- $r9
	.loc	12 332 27                       @ ../GUILib/src/widgets/lv_label.c:332:27
	mov	r2, r10
	mov	r3, r8
	str	r5, [sp]
	bl	_lv_txt_get_next_line
.Ltmp509:
	.loc	12 0 27                         @ ../GUILib/src/widgets/lv_label.c:0:27
	mov	r2, r9
	.loc	12 332 27                       @ ../GUILib/src/widgets/lv_label.c:332:27
	mov	r4, r0
.Ltmp510:
	@DEBUG_VALUE: lv_label_get_letter_pos:new_line_start <- $r4
	.loc	12 333 37 is_stmt 1             @ ../GUILib/src/widgets/lv_label.c:333:37
	cmp	r9, r0
	bhs	.LBB18_12
.Ltmp511:
@ %bb.6:
	@DEBUG_VALUE: lv_label_get_letter_pos:char_id <- $r11
	@DEBUG_VALUE: lv_label_get_letter_pos:byte_id <- $r9
	@DEBUG_VALUE: lv_label_get_letter_pos:pos <- $r7
	@DEBUG_VALUE: lv_label_get_letter_pos:txt <- $r6
	@DEBUG_VALUE: lv_label_get_letter_pos:new_line_start <- $r4
	@DEBUG_VALUE: lv_label_get_letter_pos:font <- [DW_OP_plus_uconst 36] [$sp+0]
	@DEBUG_VALUE: lv_label_get_letter_pos:flag <- [DW_OP_plus_uconst 40] [$sp+0]
	@DEBUG_VALUE: lv_label_get_letter_pos:letter_space <- [DW_OP_plus_uconst 28, DW_OP_deref_size 4, DW_OP_LLVM_convert 32 7, DW_OP_LLVM_convert 16 7, DW_OP_stack_value] $sp
	@DEBUG_VALUE: lv_label_get_letter_pos:line_space <- [DW_OP_plus_uconst 12, DW_OP_deref_size 4, DW_OP_LLVM_convert 32 7, DW_OP_LLVM_convert 16 7, DW_OP_stack_value] $sp
	@DEBUG_VALUE: lv_label_get_letter_pos:obj <- [DW_OP_LLVM_entry_value 1] $r0
	@DEBUG_VALUE: lv_label_get_letter_pos:y <- 0
	@DEBUG_VALUE: lv_label_get_letter_pos:line_start <- 0
	.loc	12 0 37 is_stmt 0               @ ../GUILib/src/widgets/lv_label.c:0:37
	movs	r7, #0
.Ltmp512:
	@DEBUG_VALUE: lv_label_get_letter_pos:pos <- [DW_OP_LLVM_entry_value 1] $r2
	movs	r5, #0
	b	.LBB18_17
.Ltmp513:
	.p2align	2
.LBB18_7:                               @ =>This Inner Loop Header: Depth=1
	@DEBUG_VALUE: lv_label_get_letter_pos:pos <- $r2
	@DEBUG_VALUE: lv_label_get_letter_pos:char_id <- $r1
	@DEBUG_VALUE: lv_label_get_letter_pos:obj <- $r0
	.loc	12 289 5 is_stmt 1              @ ../GUILib/src/widgets/lv_label.c:289:5
	b	.LBB18_7
.Ltmp514:
.LBB18_8:
	@DEBUG_VALUE: lv_label_get_letter_pos:char_id <- $r11
	@DEBUG_VALUE: lv_label_get_letter_pos:pos <- $r7
	@DEBUG_VALUE: lv_label_get_letter_pos:txt <- $r6
	@DEBUG_VALUE: lv_label_get_letter_pos:label <- $r5
	@DEBUG_VALUE: lv_label_get_letter_pos:obj <- $r5
	.loc	12 297 9                        @ ../GUILib/src/widgets/lv_label.c:297:9
	cmp.w	r10, #3
	.loc	12 296 16                       @ ../GUILib/src/widgets/lv_label.c:296:16
	strh	r4, [r7, #2]
	.loc	12 297 9                        @ ../GUILib/src/widgets/lv_label.c:297:9
	beq.w	.LBB18_28
.Ltmp515:
@ %bb.9:
	@DEBUG_VALUE: lv_label_get_letter_pos:char_id <- $r11
	@DEBUG_VALUE: lv_label_get_letter_pos:pos <- $r7
	@DEBUG_VALUE: lv_label_get_letter_pos:txt <- $r6
	@DEBUG_VALUE: lv_label_get_letter_pos:label <- $r5
	@DEBUG_VALUE: lv_label_get_letter_pos:obj <- $r5
	cmp.w	r10, #2
	beq	.LBB18_15
.Ltmp516:
@ %bb.10:
	@DEBUG_VALUE: lv_label_get_letter_pos:char_id <- $r11
	@DEBUG_VALUE: lv_label_get_letter_pos:pos <- $r7
	@DEBUG_VALUE: lv_label_get_letter_pos:txt <- $r6
	@DEBUG_VALUE: lv_label_get_letter_pos:label <- $r5
	@DEBUG_VALUE: lv_label_get_letter_pos:obj <- $r5
	cmp.w	r10, #1
	itt	eq
	moveq	r0, #0
.Ltmp517:
	.loc	12 299 24                       @ ../GUILib/src/widgets/lv_label.c:299:24
	strheq	r0, [r7]
	b	.LBB18_30
.Ltmp518:
.LBB18_11:
	@DEBUG_VALUE: lv_label_get_letter_pos:char_id <- $r11
	@DEBUG_VALUE: lv_label_get_letter_pos:pos <- $r7
	@DEBUG_VALUE: lv_label_get_letter_pos:txt <- $r6
	@DEBUG_VALUE: lv_label_get_letter_pos:label <- $r5
	@DEBUG_VALUE: lv_label_get_letter_pos:obj <- $r5
	@DEBUG_VALUE: lv_label_get_letter_pos:byte_id <- $r2
	@DEBUG_VALUE: lv_label_get_letter_pos:font <- [DW_OP_plus_uconst 36] [$sp+0]
	@DEBUG_VALUE: lv_label_get_letter_pos:flag <- [DW_OP_plus_uconst 40] [$sp+0]
	@DEBUG_VALUE: lv_label_get_letter_pos:letter_space <- [DW_OP_plus_uconst 28, DW_OP_deref_size 4, DW_OP_LLVM_convert 32 7, DW_OP_LLVM_convert 16 7, DW_OP_stack_value] $sp
	@DEBUG_VALUE: lv_label_get_letter_pos:line_space <- [DW_OP_plus_uconst 12, DW_OP_deref_size 4, DW_OP_LLVM_convert 32 7, DW_OP_LLVM_convert 16 7, DW_OP_stack_value] $sp
	@DEBUG_VALUE: lv_label_get_letter_pos:y <- 0
	@DEBUG_VALUE: lv_label_get_letter_pos:line_start <- 0
	@DEBUG_VALUE: lv_label_get_letter_pos:new_line_start <- 0
	.loc	12 0 24 is_stmt 0               @ ../GUILib/src/widgets/lv_label.c:0:24
	movs	r7, #0
.Ltmp519:
	@DEBUG_VALUE: lv_label_get_letter_pos:pos <- [DW_OP_LLVM_entry_value 1] $r2
	movs	r5, #0
.Ltmp520:
	@DEBUG_VALUE: lv_label_get_letter_pos:obj <- [DW_OP_LLVM_entry_value 1] $r0
	movs	r4, #0
	b	.LBB18_17
.Ltmp521:
.LBB18_12:
	@DEBUG_VALUE: lv_label_get_letter_pos:char_id <- $r11
	@DEBUG_VALUE: lv_label_get_letter_pos:byte_id <- $r9
	@DEBUG_VALUE: lv_label_get_letter_pos:pos <- $r7
	@DEBUG_VALUE: lv_label_get_letter_pos:txt <- $r6
	@DEBUG_VALUE: lv_label_get_letter_pos:new_line_start <- $r4
	@DEBUG_VALUE: lv_label_get_letter_pos:font <- [DW_OP_plus_uconst 36] [$sp+0]
	@DEBUG_VALUE: lv_label_get_letter_pos:flag <- [DW_OP_plus_uconst 40] [$sp+0]
	@DEBUG_VALUE: lv_label_get_letter_pos:letter_space <- [DW_OP_plus_uconst 28, DW_OP_deref_size 4, DW_OP_LLVM_convert 32 7, DW_OP_LLVM_convert 16 7, DW_OP_stack_value] $sp
	@DEBUG_VALUE: lv_label_get_letter_pos:line_space <- [DW_OP_plus_uconst 12, DW_OP_deref_size 4, DW_OP_LLVM_convert 32 7, DW_OP_LLVM_convert 16 7, DW_OP_stack_value] $sp
	@DEBUG_VALUE: lv_label_get_letter_pos:obj <- [DW_OP_LLVM_entry_value 1] $r0
	@DEBUG_VALUE: lv_label_get_letter_pos:y <- 0
	@DEBUG_VALUE: lv_label_get_letter_pos:line_start <- 0
	ldrd	r1, r0, [sp, #8]                @ 8-byte Folded Reload
	str.w	r10, [sp, #32]                  @ 4-byte Spill
	add.w	r11, r1, r0
.Ltmp522:
	@DEBUG_VALUE: lv_label_get_letter_pos:char_id <- [DW_OP_LLVM_entry_value 1] $r1
	movs	r7, #0
.Ltmp523:
	@DEBUG_VALUE: lv_label_get_letter_pos:pos <- [DW_OP_LLVM_entry_value 1] $r2
	movs	r5, #0
.Ltmp524:
	.p2align	2
.LBB18_13:                              @ =>This Inner Loop Header: Depth=1
	@DEBUG_VALUE: lv_label_get_letter_pos:byte_id <- $r9
	@DEBUG_VALUE: lv_label_get_letter_pos:txt <- $r6
	@DEBUG_VALUE: lv_label_get_letter_pos:new_line_start <- $r4
	@DEBUG_VALUE: lv_label_get_letter_pos:font <- [DW_OP_plus_uconst 36] [$sp+0]
	@DEBUG_VALUE: lv_label_get_letter_pos:flag <- [DW_OP_plus_uconst 40] [$sp+0]
	@DEBUG_VALUE: lv_label_get_letter_pos:letter_space <- [DW_OP_plus_uconst 28, DW_OP_deref_size 4, DW_OP_LLVM_convert 32 7, DW_OP_LLVM_convert 16 7, DW_OP_stack_value] $sp
	@DEBUG_VALUE: lv_label_get_letter_pos:line_space <- [DW_OP_plus_uconst 12, DW_OP_deref_size 4, DW_OP_LLVM_convert 32 7, DW_OP_LLVM_convert 16 7, DW_OP_stack_value] $sp
	@DEBUG_VALUE: lv_label_get_letter_pos:pos <- [DW_OP_LLVM_entry_value 1] $r2
	@DEBUG_VALUE: lv_label_get_letter_pos:char_id <- [DW_OP_LLVM_entry_value 1] $r1
	@DEBUG_VALUE: lv_label_get_letter_pos:obj <- [DW_OP_LLVM_entry_value 1] $r0
	.loc	12 333 40 is_stmt 1             @ ../GUILib/src/widgets/lv_label.c:333:40
	ldrb	r0, [r6, r4]
.Ltmp525:
	@DEBUG_VALUE: lv_label_get_letter_pos:y <- undef
	@DEBUG_VALUE: lv_label_get_letter_pos:new_line_start <- $r10
	@DEBUG_VALUE: lv_label_get_letter_pos:line_start <- $r10
	.loc	12 0 40 is_stmt 0               @ ../GUILib/src/widgets/lv_label.c:0:40
	mov	r10, r4
.Ltmp526:
	@DEBUG_VALUE: lv_label_get_letter_pos:y <- $r7
	@DEBUG_VALUE: lv_label_get_letter_pos:line_start <- $r5
	.loc	12 333 12                       @ ../GUILib/src/widgets/lv_label.c:333:12
	cbz	r0, .LBB18_16
.Ltmp527:
@ %bb.14:                               @   in Loop: Header=BB18_13 Depth=1
	@DEBUG_VALUE: lv_label_get_letter_pos:byte_id <- $r9
	@DEBUG_VALUE: lv_label_get_letter_pos:y <- $r7
	@DEBUG_VALUE: lv_label_get_letter_pos:txt <- $r6
	@DEBUG_VALUE: lv_label_get_letter_pos:line_start <- $r5
	@DEBUG_VALUE: lv_label_get_letter_pos:font <- [DW_OP_plus_uconst 36] [$sp+0]
	@DEBUG_VALUE: lv_label_get_letter_pos:flag <- [DW_OP_plus_uconst 40] [$sp+0]
	@DEBUG_VALUE: lv_label_get_letter_pos:letter_space <- [DW_OP_plus_uconst 28, DW_OP_deref_size 4, DW_OP_LLVM_convert 32 7, DW_OP_LLVM_convert 16 7, DW_OP_stack_value] $sp
	@DEBUG_VALUE: lv_label_get_letter_pos:line_space <- [DW_OP_plus_uconst 12, DW_OP_deref_size 4, DW_OP_LLVM_convert 32 7, DW_OP_LLVM_convert 16 7, DW_OP_stack_value] $sp
	@DEBUG_VALUE: lv_label_get_letter_pos:pos <- [DW_OP_LLVM_entry_value 1] $r2
	@DEBUG_VALUE: lv_label_get_letter_pos:char_id <- [DW_OP_LLVM_entry_value 1] $r1
	@DEBUG_VALUE: lv_label_get_letter_pos:obj <- [DW_OP_LLVM_entry_value 1] $r0
	.loc	12 332 27 is_stmt 1             @ ../GUILib/src/widgets/lv_label.c:332:27
	ldrd	r2, r1, [sp, #32]               @ 8-byte Folded Reload
	ldr	r5, [sp, #40]                   @ 4-byte Reload
.Ltmp528:
	.loc	12 0 0 is_stmt 0                @ ../GUILib/src/widgets/lv_label.c:0:0
	add.w	r0, r6, r10
.Ltmp529:
	.loc	12 332 27                       @ ../GUILib/src/widgets/lv_label.c:332:27
	mov	r3, r8
.Ltmp530:
	.loc	12 0 0                          @ ../GUILib/src/widgets/lv_label.c:0:0
	add	r7, r11
.Ltmp531:
	@DEBUG_VALUE: lv_label_get_letter_pos:y <- $r7
	@DEBUG_VALUE: lv_label_get_letter_pos:line_start <- $r10
	.loc	12 332 27                       @ ../GUILib/src/widgets/lv_label.c:332:27
	str	r5, [sp]
	bl	_lv_txt_get_next_line
.Ltmp532:
	.loc	12 332 24                       @ ../GUILib/src/widgets/lv_label.c:332:24
	add.w	r4, r0, r10
.Ltmp533:
	@DEBUG_VALUE: lv_label_get_letter_pos:new_line_start <- $r4
	.loc	12 0 24                         @ ../GUILib/src/widgets/lv_label.c:0:24
	mov	r2, r9
.Ltmp534:
	.loc	12 333 37 is_stmt 1             @ ../GUILib/src/widgets/lv_label.c:333:37
	cmp	r9, r4
	mov	r5, r10
.Ltmp535:
	@DEBUG_VALUE: lv_label_get_letter_pos:line_start <- $r5
	@DEBUG_VALUE: lv_label_get_letter_pos:line_start <- $r5
	.loc	12 0 37 is_stmt 0               @ ../GUILib/src/widgets/lv_label.c:0:37
	bhs	.LBB18_13
	b	.LBB18_17
.Ltmp536:
.LBB18_15:
	@DEBUG_VALUE: lv_label_get_letter_pos:char_id <- $r11
	@DEBUG_VALUE: lv_label_get_letter_pos:pos <- $r7
	@DEBUG_VALUE: lv_label_get_letter_pos:txt <- $r6
	@DEBUG_VALUE: lv_label_get_letter_pos:label <- $r5
	@DEBUG_VALUE: lv_label_get_letter_pos:obj <- $r5
	.loc	12 305 26 is_stmt 1             @ ../GUILib/src/widgets/lv_label.c:305:26
	mov	r0, r5
	bl	lv_obj_get_content_width
.Ltmp537:
	uxth	r1, r0
	.loc	12 305 56 is_stmt 0             @ ../GUILib/src/widgets/lv_label.c:305:56
	add.w	r0, r0, r1, lsr #15
	sxth	r0, r0
	lsrs	r0, r0, #1
	b	.LBB18_29
.Ltmp538:
.LBB18_16:
	@DEBUG_VALUE: lv_label_get_letter_pos:byte_id <- $r9
	@DEBUG_VALUE: lv_label_get_letter_pos:y <- $r7
	@DEBUG_VALUE: lv_label_get_letter_pos:txt <- $r6
	@DEBUG_VALUE: lv_label_get_letter_pos:line_start <- $r5
	@DEBUG_VALUE: lv_label_get_letter_pos:font <- [DW_OP_plus_uconst 36] [$sp+0]
	@DEBUG_VALUE: lv_label_get_letter_pos:flag <- [DW_OP_plus_uconst 40] [$sp+0]
	@DEBUG_VALUE: lv_label_get_letter_pos:letter_space <- [DW_OP_plus_uconst 28, DW_OP_deref_size 4, DW_OP_LLVM_convert 32 7, DW_OP_LLVM_convert 16 7, DW_OP_stack_value] $sp
	@DEBUG_VALUE: lv_label_get_letter_pos:line_space <- [DW_OP_plus_uconst 12, DW_OP_deref_size 4, DW_OP_LLVM_convert 32 7, DW_OP_LLVM_convert 16 7, DW_OP_stack_value] $sp
	@DEBUG_VALUE: lv_label_get_letter_pos:pos <- [DW_OP_LLVM_entry_value 1] $r2
	@DEBUG_VALUE: lv_label_get_letter_pos:char_id <- [DW_OP_LLVM_entry_value 1] $r1
	@DEBUG_VALUE: lv_label_get_letter_pos:obj <- [DW_OP_LLVM_entry_value 1] $r0
	.loc	12 0 0                          @ ../GUILib/src/widgets/lv_label.c:0:0
	mov	r4, r10
.Ltmp539:
.LBB18_17:
	@DEBUG_VALUE: lv_label_get_letter_pos:txt <- $r6
	@DEBUG_VALUE: lv_label_get_letter_pos:font <- [DW_OP_plus_uconst 36] [$sp+0]
	@DEBUG_VALUE: lv_label_get_letter_pos:flag <- [DW_OP_plus_uconst 40] [$sp+0]
	@DEBUG_VALUE: lv_label_get_letter_pos:letter_space <- [DW_OP_plus_uconst 28, DW_OP_deref_size 4, DW_OP_LLVM_convert 32 7, DW_OP_LLVM_convert 16 7, DW_OP_stack_value] $sp
	@DEBUG_VALUE: lv_label_get_letter_pos:line_space <- [DW_OP_plus_uconst 12, DW_OP_deref_size 4, DW_OP_LLVM_convert 32 7, DW_OP_LLVM_convert 16 7, DW_OP_stack_value] $sp
	@DEBUG_VALUE: lv_label_get_letter_pos:pos <- [DW_OP_LLVM_entry_value 1] $r2
	@DEBUG_VALUE: lv_label_get_letter_pos:obj <- [DW_OP_LLVM_entry_value 1] $r0
	@DEBUG_VALUE: lv_label_get_letter_pos:new_line_start <- $r4
	.loc	12 341 8 is_stmt 1              @ ../GUILib/src/widgets/lv_label.c:341:8
	cbz	r2, .LBB18_22
.Ltmp540:
@ %bb.18:
	@DEBUG_VALUE: lv_label_get_letter_pos:txt <- $r6
	@DEBUG_VALUE: lv_label_get_letter_pos:new_line_start <- $r4
	@DEBUG_VALUE: lv_label_get_letter_pos:font <- [DW_OP_plus_uconst 36] [$sp+0]
	@DEBUG_VALUE: lv_label_get_letter_pos:flag <- [DW_OP_plus_uconst 40] [$sp+0]
	@DEBUG_VALUE: lv_label_get_letter_pos:letter_space <- [DW_OP_plus_uconst 28, DW_OP_deref_size 4, DW_OP_LLVM_convert 32 7, DW_OP_LLVM_convert 16 7, DW_OP_stack_value] $sp
	@DEBUG_VALUE: lv_label_get_letter_pos:line_space <- [DW_OP_plus_uconst 12, DW_OP_deref_size 4, DW_OP_LLVM_convert 32 7, DW_OP_LLVM_convert 16 7, DW_OP_stack_value] $sp
	@DEBUG_VALUE: lv_label_get_letter_pos:pos <- [DW_OP_LLVM_entry_value 1] $r2
	@DEBUG_VALUE: lv_label_get_letter_pos:obj <- [DW_OP_LLVM_entry_value 1] $r0
	.loc	12 342 25                       @ ../GUILib/src/widgets/lv_label.c:342:25
	adds	r0, r2, r6
	.loc	12 342 13 is_stmt 0             @ ../GUILib/src/widgets/lv_label.c:342:13
	ldrb	r0, [r0, #-1]
	ldr.w	r11, [sp, #24]                  @ 4-byte Reload
	.loc	12 342 38                       @ ../GUILib/src/widgets/lv_label.c:342:38
	cmp	r0, #13
	beq	.LBB18_20
.Ltmp541:
@ %bb.19:
	@DEBUG_VALUE: lv_label_get_letter_pos:txt <- $r6
	@DEBUG_VALUE: lv_label_get_letter_pos:new_line_start <- $r4
	@DEBUG_VALUE: lv_label_get_letter_pos:font <- [DW_OP_plus_uconst 36] [$sp+0]
	@DEBUG_VALUE: lv_label_get_letter_pos:flag <- [DW_OP_plus_uconst 40] [$sp+0]
	@DEBUG_VALUE: lv_label_get_letter_pos:letter_space <- [DW_OP_plus_uconst 28, DW_OP_deref_size 4, DW_OP_LLVM_convert 32 7, DW_OP_LLVM_convert 16 7, DW_OP_stack_value] $sp
	@DEBUG_VALUE: lv_label_get_letter_pos:line_space <- [DW_OP_plus_uconst 12, DW_OP_deref_size 4, DW_OP_LLVM_convert 32 7, DW_OP_LLVM_convert 16 7, DW_OP_stack_value] $sp
	@DEBUG_VALUE: lv_label_get_letter_pos:pos <- [DW_OP_LLVM_entry_value 1] $r2
	@DEBUG_VALUE: lv_label_get_letter_pos:obj <- [DW_OP_LLVM_entry_value 1] $r0
	cmp	r0, #10
	bne	.LBB18_23
.Ltmp542:
.LBB18_20:
	@DEBUG_VALUE: lv_label_get_letter_pos:txt <- $r6
	@DEBUG_VALUE: lv_label_get_letter_pos:new_line_start <- $r4
	@DEBUG_VALUE: lv_label_get_letter_pos:font <- [DW_OP_plus_uconst 36] [$sp+0]
	@DEBUG_VALUE: lv_label_get_letter_pos:flag <- [DW_OP_plus_uconst 40] [$sp+0]
	@DEBUG_VALUE: lv_label_get_letter_pos:letter_space <- [DW_OP_plus_uconst 28, DW_OP_deref_size 4, DW_OP_LLVM_convert 32 7, DW_OP_LLVM_convert 16 7, DW_OP_stack_value] $sp
	@DEBUG_VALUE: lv_label_get_letter_pos:line_space <- [DW_OP_plus_uconst 12, DW_OP_deref_size 4, DW_OP_LLVM_convert 32 7, DW_OP_LLVM_convert 16 7, DW_OP_stack_value] $sp
	@DEBUG_VALUE: lv_label_get_letter_pos:pos <- [DW_OP_LLVM_entry_value 1] $r2
	@DEBUG_VALUE: lv_label_get_letter_pos:obj <- [DW_OP_LLVM_entry_value 1] $r0
	.loc	12 342 70                       @ ../GUILib/src/widgets/lv_label.c:342:70
	ldrb	r0, [r6, r2]
.Ltmp543:
	.loc	12 342 12                       @ ../GUILib/src/widgets/lv_label.c:342:12
	cbnz	r0, .LBB18_23
.Ltmp544:
@ %bb.21:
	@DEBUG_VALUE: lv_label_get_letter_pos:txt <- $r6
	@DEBUG_VALUE: lv_label_get_letter_pos:new_line_start <- $r4
	@DEBUG_VALUE: lv_label_get_letter_pos:font <- [DW_OP_plus_uconst 36] [$sp+0]
	@DEBUG_VALUE: lv_label_get_letter_pos:flag <- [DW_OP_plus_uconst 40] [$sp+0]
	@DEBUG_VALUE: lv_label_get_letter_pos:letter_space <- [DW_OP_plus_uconst 28, DW_OP_deref_size 4, DW_OP_LLVM_convert 32 7, DW_OP_LLVM_convert 16 7, DW_OP_stack_value] $sp
	@DEBUG_VALUE: lv_label_get_letter_pos:line_space <- [DW_OP_plus_uconst 12, DW_OP_deref_size 4, DW_OP_LLVM_convert 32 7, DW_OP_LLVM_convert 16 7, DW_OP_stack_value] $sp
	@DEBUG_VALUE: lv_label_get_letter_pos:pos <- [DW_OP_LLVM_entry_value 1] $r2
	@DEBUG_VALUE: lv_label_get_letter_pos:obj <- [DW_OP_LLVM_entry_value 1] $r0
	.loc	12 343 32 is_stmt 1             @ ../GUILib/src/widgets/lv_label.c:343:32
	ldrd	r1, r0, [sp, #8]                @ 8-byte Folded Reload
.Ltmp545:
	.loc	12 0 0 is_stmt 0                @ ../GUILib/src/widgets/lv_label.c:0:0
	mov	r5, r2
.Ltmp546:
	.loc	12 343 32                       @ ../GUILib/src/widgets/lv_label.c:343:32
	add	r0, r1
	.loc	12 343 15                       @ ../GUILib/src/widgets/lv_label.c:343:15
	add	r7, r0
.Ltmp547:
	@DEBUG_VALUE: lv_label_get_letter_pos:y <- $r7
	@DEBUG_VALUE: lv_label_get_letter_pos:line_start <- $r2
	.loc	12 0 15                         @ ../GUILib/src/widgets/lv_label.c:0:15
	b	.LBB18_23
.Ltmp548:
.LBB18_22:
	@DEBUG_VALUE: lv_label_get_letter_pos:txt <- $r6
	@DEBUG_VALUE: lv_label_get_letter_pos:new_line_start <- $r4
	@DEBUG_VALUE: lv_label_get_letter_pos:font <- [DW_OP_plus_uconst 36] [$sp+0]
	@DEBUG_VALUE: lv_label_get_letter_pos:flag <- [DW_OP_plus_uconst 40] [$sp+0]
	@DEBUG_VALUE: lv_label_get_letter_pos:letter_space <- [DW_OP_plus_uconst 28, DW_OP_deref_size 4, DW_OP_LLVM_convert 32 7, DW_OP_LLVM_convert 16 7, DW_OP_stack_value] $sp
	@DEBUG_VALUE: lv_label_get_letter_pos:line_space <- [DW_OP_plus_uconst 12, DW_OP_deref_size 4, DW_OP_LLVM_convert 32 7, DW_OP_LLVM_convert 16 7, DW_OP_stack_value] $sp
	@DEBUG_VALUE: lv_label_get_letter_pos:pos <- [DW_OP_LLVM_entry_value 1] $r2
	@DEBUG_VALUE: lv_label_get_letter_pos:obj <- [DW_OP_LLVM_entry_value 1] $r0
	ldr.w	r11, [sp, #24]                  @ 4-byte Reload
.Ltmp549:
.LBB18_23:
	@DEBUG_VALUE: lv_label_get_letter_pos:txt <- $r6
	@DEBUG_VALUE: lv_label_get_letter_pos:new_line_start <- $r4
	@DEBUG_VALUE: lv_label_get_letter_pos:font <- [DW_OP_plus_uconst 36] [$sp+0]
	@DEBUG_VALUE: lv_label_get_letter_pos:flag <- [DW_OP_plus_uconst 40] [$sp+0]
	@DEBUG_VALUE: lv_label_get_letter_pos:letter_space <- [DW_OP_plus_uconst 28, DW_OP_deref_size 4, DW_OP_LLVM_convert 32 7, DW_OP_LLVM_convert 16 7, DW_OP_stack_value] $sp
	@DEBUG_VALUE: lv_label_get_letter_pos:line_space <- [DW_OP_plus_uconst 12, DW_OP_deref_size 4, DW_OP_LLVM_convert 32 7, DW_OP_LLVM_convert 16 7, DW_OP_stack_value] $sp
	@DEBUG_VALUE: lv_label_get_letter_pos:pos <- [DW_OP_LLVM_entry_value 1] $r2
	@DEBUG_VALUE: lv_label_get_letter_pos:obj <- [DW_OP_LLVM_entry_value 1] $r0
	@DEBUG_VALUE: lv_label_get_letter_pos:line_start <- $r5
	@DEBUG_VALUE: lv_label_get_letter_pos:y <- $r7
	ldr.w	r10, [sp, #28]                  @ 4-byte Reload
	.loc	12 372 17 is_stmt 1             @ ../GUILib/src/widgets/lv_label.c:372:17
	add.w	r9, r6, r5
.Ltmp550:
	@DEBUG_VALUE: lv_label_get_letter_pos:bidi_txt <- $r9
	.loc	12 373 31                       @ ../GUILib/src/widgets/lv_label.c:373:31
	subs	r1, r2, r5
.Ltmp551:
	@DEBUG_VALUE: lv_label_get_letter_pos:visual_byte_pos <- $r1
	.loc	12 377 20                       @ ../GUILib/src/widgets/lv_label.c:377:20
	sxth.w	r8, r10
	ldr	r2, [sp, #36]                   @ 4-byte Reload
	ldr	r6, [sp, #40]                   @ 4-byte Reload
.Ltmp552:
	mov	r0, r9
	mov	r3, r8
	str	r6, [sp]
	bl	lv_txt_get_width
.Ltmp553:
	mov	r6, r0
.Ltmp554:
	@DEBUG_VALUE: lv_label_get_letter_pos:x <- $r6
	.loc	12 378 8                        @ ../GUILib/src/widgets/lv_label.c:378:8
	ldr	r0, [sp, #20]                   @ 4-byte Reload
	cmp	r5, r0
	it	ne
	addne	r6, r10
.Ltmp555:
	@DEBUG_VALUE: lv_label_get_letter_pos:x <- $r6
	.loc	12 380 8                        @ ../GUILib/src/widgets/lv_label.c:380:8
	cmp.w	r11, #3
	beq	.LBB18_26
.Ltmp556:
@ %bb.24:
	@DEBUG_VALUE: lv_label_get_letter_pos:bidi_txt <- $r9
	@DEBUG_VALUE: lv_label_get_letter_pos:y <- $r7
	@DEBUG_VALUE: lv_label_get_letter_pos:x <- $r6
	@DEBUG_VALUE: lv_label_get_letter_pos:line_start <- $r5
	@DEBUG_VALUE: lv_label_get_letter_pos:new_line_start <- $r4
	@DEBUG_VALUE: lv_label_get_letter_pos:font <- [DW_OP_plus_uconst 36] [$sp+0]
	@DEBUG_VALUE: lv_label_get_letter_pos:flag <- [DW_OP_plus_uconst 40] [$sp+0]
	@DEBUG_VALUE: lv_label_get_letter_pos:letter_space <- [DW_OP_plus_uconst 28, DW_OP_deref_size 4, DW_OP_LLVM_convert 32 7, DW_OP_LLVM_convert 16 7, DW_OP_stack_value] $sp
	@DEBUG_VALUE: lv_label_get_letter_pos:line_space <- [DW_OP_plus_uconst 12, DW_OP_deref_size 4, DW_OP_LLVM_convert 32 7, DW_OP_LLVM_convert 16 7, DW_OP_stack_value] $sp
	@DEBUG_VALUE: lv_label_get_letter_pos:pos <- [DW_OP_LLVM_entry_value 1] $r2
	@DEBUG_VALUE: lv_label_get_letter_pos:obj <- [DW_OP_LLVM_entry_value 1] $r0
	.loc	12 0 8 is_stmt 0                @ ../GUILib/src/widgets/lv_label.c:0:8
	ldr.w	r10, [sp, #16]                  @ 4-byte Reload
	.loc	12 380 8                        @ ../GUILib/src/widgets/lv_label.c:380:8
	cmp.w	r11, #2
	bne	.LBB18_27
.Ltmp557:
@ %bb.25:
	@DEBUG_VALUE: lv_label_get_letter_pos:bidi_txt <- $r9
	@DEBUG_VALUE: lv_label_get_letter_pos:y <- $r7
	@DEBUG_VALUE: lv_label_get_letter_pos:x <- $r6
	@DEBUG_VALUE: lv_label_get_letter_pos:line_start <- $r5
	@DEBUG_VALUE: lv_label_get_letter_pos:new_line_start <- $r4
	@DEBUG_VALUE: lv_label_get_letter_pos:font <- [DW_OP_plus_uconst 36] [$sp+0]
	@DEBUG_VALUE: lv_label_get_letter_pos:flag <- [DW_OP_plus_uconst 40] [$sp+0]
	@DEBUG_VALUE: lv_label_get_letter_pos:letter_space <- [DW_OP_plus_uconst 28, DW_OP_deref_size 4, DW_OP_LLVM_convert 32 7, DW_OP_LLVM_convert 16 7, DW_OP_stack_value] $sp
	@DEBUG_VALUE: lv_label_get_letter_pos:line_space <- [DW_OP_plus_uconst 12, DW_OP_deref_size 4, DW_OP_LLVM_convert 32 7, DW_OP_LLVM_convert 16 7, DW_OP_stack_value] $sp
	@DEBUG_VALUE: lv_label_get_letter_pos:pos <- [DW_OP_LLVM_entry_value 1] $r2
	@DEBUG_VALUE: lv_label_get_letter_pos:obj <- [DW_OP_LLVM_entry_value 1] $r0
	.loc	12 382 60 is_stmt 1             @ ../GUILib/src/widgets/lv_label.c:382:60
	subs	r1, r4, r5
	.loc	12 382 18 is_stmt 0             @ ../GUILib/src/widgets/lv_label.c:382:18
	ldr	r2, [sp, #36]                   @ 4-byte Reload
	ldr	r5, [sp, #40]                   @ 4-byte Reload
.Ltmp558:
	mov	r0, r9
	mov	r3, r8
	str	r5, [sp]
	bl	lv_txt_get_width
.Ltmp559:
	@DEBUG_VALUE: line_w <- $r0
	.loc	6 125 33 is_stmt 1              @ ../GUILib/src/hal/../misc/lv_area.h:125:33
	ldrh.w	r1, [sp, #48]
	.loc	6 125 46 is_stmt 0              @ ../GUILib/src/hal/../misc/lv_area.h:125:46
	ldrh.w	r2, [sp, #44]
.Ltmp560:
	.loc	12 382 18 is_stmt 1             @ ../GUILib/src/widgets/lv_label.c:382:18
	uxth	r3, r0
.Ltmp561:
	@DEBUG_VALUE: lv_area_get_width:area_p <- [DW_OP_plus_uconst 44, DW_OP_stack_value] $sp
	.loc	6 125 49                        @ ../GUILib/src/hal/../misc/lv_area.h:125:49
	subs	r1, r1, r2
	adds	r1, #1
	uxth	r2, r1
.Ltmp562:
	.loc	12 383 58                       @ ../GUILib/src/widgets/lv_label.c:383:58
	add.w	r0, r0, r3, lsr #15
.Ltmp563:
	.loc	12 383 45 is_stmt 0             @ ../GUILib/src/widgets/lv_label.c:383:45
	add.w	r1, r1, r2, lsr #15
	.loc	12 383 58                       @ ../GUILib/src/widgets/lv_label.c:383:58
	sxth	r0, r0
	.loc	12 383 45                       @ ../GUILib/src/widgets/lv_label.c:383:45
	sxth	r1, r1
	.loc	12 383 49                       @ ../GUILib/src/widgets/lv_label.c:383:49
	sub.w	r0, r6, r0, asr #1
	.loc	12 383 11                       @ ../GUILib/src/widgets/lv_label.c:383:11
	add.w	r6, r0, r1, asr #1
.Ltmp564:
	@DEBUG_VALUE: lv_label_get_letter_pos:x <- $r6
	.loc	12 0 11                         @ ../GUILib/src/widgets/lv_label.c:0:11
	b	.LBB18_27
.Ltmp565:
.LBB18_26:
	@DEBUG_VALUE: lv_label_get_letter_pos:bidi_txt <- $r9
	@DEBUG_VALUE: lv_label_get_letter_pos:y <- $r7
	@DEBUG_VALUE: lv_label_get_letter_pos:x <- $r6
	@DEBUG_VALUE: lv_label_get_letter_pos:line_start <- $r5
	@DEBUG_VALUE: lv_label_get_letter_pos:new_line_start <- $r4
	@DEBUG_VALUE: lv_label_get_letter_pos:font <- [DW_OP_plus_uconst 36] [$sp+0]
	@DEBUG_VALUE: lv_label_get_letter_pos:flag <- [DW_OP_plus_uconst 40] [$sp+0]
	@DEBUG_VALUE: lv_label_get_letter_pos:letter_space <- [DW_OP_plus_uconst 28, DW_OP_deref_size 4, DW_OP_LLVM_convert 32 7, DW_OP_LLVM_convert 16 7, DW_OP_stack_value] $sp
	@DEBUG_VALUE: lv_label_get_letter_pos:line_space <- [DW_OP_plus_uconst 12, DW_OP_deref_size 4, DW_OP_LLVM_convert 32 7, DW_OP_LLVM_convert 16 7, DW_OP_stack_value] $sp
	@DEBUG_VALUE: lv_label_get_letter_pos:pos <- [DW_OP_LLVM_entry_value 1] $r2
	@DEBUG_VALUE: lv_label_get_letter_pos:obj <- [DW_OP_LLVM_entry_value 1] $r0
	.loc	12 388 60 is_stmt 1             @ ../GUILib/src/widgets/lv_label.c:388:60
	subs	r1, r4, r5
	.loc	12 388 18 is_stmt 0             @ ../GUILib/src/widgets/lv_label.c:388:18
	ldr	r2, [sp, #36]                   @ 4-byte Reload
	ldr	r5, [sp, #40]                   @ 4-byte Reload
.Ltmp566:
	mov	r0, r9
	mov	r3, r8
	str	r5, [sp]
	bl	lv_txt_get_width
.Ltmp567:
	@DEBUG_VALUE: lv_area_get_width:area_p <- [DW_OP_plus_uconst 44, DW_OP_stack_value] $sp
	@DEBUG_VALUE: line_w <- $r0
	.loc	6 125 33 is_stmt 1              @ ../GUILib/src/hal/../misc/lv_area.h:125:33
	ldrh.w	r1, [sp, #48]
	.loc	6 125 46 is_stmt 0              @ ../GUILib/src/hal/../misc/lv_area.h:125:46
	ldrh.w	r2, [sp, #44]
	.loc	6 125 36                        @ ../GUILib/src/hal/../misc/lv_area.h:125:36
	add	r1, r6
.Ltmp568:
	.loc	12 390 11 is_stmt 1             @ ../GUILib/src/widgets/lv_label.c:390:11
	add	r0, r2
.Ltmp569:
	subs	r0, r1, r0
	ldr.w	r10, [sp, #16]                  @ 4-byte Reload
	adds	r6, r0, #1
.Ltmp570:
	@DEBUG_VALUE: lv_label_get_letter_pos:x <- $r6
.LBB18_27:
	@DEBUG_VALUE: lv_label_get_letter_pos:bidi_txt <- $r9
	@DEBUG_VALUE: lv_label_get_letter_pos:y <- $r7
	@DEBUG_VALUE: lv_label_get_letter_pos:x <- $r6
	@DEBUG_VALUE: lv_label_get_letter_pos:new_line_start <- $r4
	@DEBUG_VALUE: lv_label_get_letter_pos:font <- [DW_OP_plus_uconst 36] [$sp+0]
	@DEBUG_VALUE: lv_label_get_letter_pos:flag <- [DW_OP_plus_uconst 40] [$sp+0]
	@DEBUG_VALUE: lv_label_get_letter_pos:letter_space <- [DW_OP_plus_uconst 28, DW_OP_deref_size 4, DW_OP_LLVM_convert 32 7, DW_OP_LLVM_convert 16 7, DW_OP_stack_value] $sp
	@DEBUG_VALUE: lv_label_get_letter_pos:line_space <- [DW_OP_plus_uconst 12, DW_OP_deref_size 4, DW_OP_LLVM_convert 32 7, DW_OP_LLVM_convert 16 7, DW_OP_stack_value] $sp
	@DEBUG_VALUE: lv_label_get_letter_pos:pos <- [DW_OP_LLVM_entry_value 1] $r2
	@DEBUG_VALUE: lv_label_get_letter_pos:obj <- [DW_OP_LLVM_entry_value 1] $r0
	@DEBUG_VALUE: lv_label_get_letter_pos:x <- $r6
	.loc	12 392 12                       @ ../GUILib/src/widgets/lv_label.c:392:12
	strh.w	r6, [r10]
	.loc	12 393 12                       @ ../GUILib/src/widgets/lv_label.c:393:12
	strh.w	r7, [r10, #2]
	b	.LBB18_30
.Ltmp571:
.LBB18_28:
	@DEBUG_VALUE: lv_label_get_letter_pos:char_id <- $r11
	@DEBUG_VALUE: lv_label_get_letter_pos:pos <- $r7
	@DEBUG_VALUE: lv_label_get_letter_pos:txt <- $r6
	@DEBUG_VALUE: lv_label_get_letter_pos:label <- $r5
	@DEBUG_VALUE: lv_label_get_letter_pos:obj <- $r5
	.loc	12 302 26                       @ ../GUILib/src/widgets/lv_label.c:302:26
	mov	r0, r5
	bl	lv_obj_get_content_width
.Ltmp572:
.LBB18_29:
	@DEBUG_VALUE: lv_label_get_letter_pos:char_id <- $r11
	@DEBUG_VALUE: lv_label_get_letter_pos:pos <- $r7
	@DEBUG_VALUE: lv_label_get_letter_pos:txt <- $r6
	@DEBUG_VALUE: lv_label_get_letter_pos:label <- $r5
	@DEBUG_VALUE: lv_label_get_letter_pos:obj <- $r5
	.loc	12 0 0 is_stmt 0                @ ../GUILib/src/widgets/lv_label.c:0:0
	strh	r0, [r7]
.Ltmp573:
.LBB18_30:
	.loc	12 398 1 is_stmt 1              @ ../GUILib/src/widgets/lv_label.c:398:1
	add	sp, #52
	pop.w	{r4, r5, r6, r7, r8, r9, r10, r11, pc}
.Ltmp574:
.Lfunc_end18:
	.size	lv_label_get_letter_pos, .Lfunc_end18-lv_label_get_letter_pos
	.cfi_endproc
	.cantunwind
	.fnend
                                        @ -- End function
	.section	.text.lv_label_get_letter_on,"ax",%progbits
	.hidden	lv_label_get_letter_on          @ -- Begin function lv_label_get_letter_on
	.globl	lv_label_get_letter_on
	.p2align	1
	.type	lv_label_get_letter_on,%function
	.code	16                              @ @lv_label_get_letter_on
	.thumb_func
lv_label_get_letter_on:
.Lfunc_begin19:
	.loc	12 401 0                        @ ../GUILib/src/widgets/lv_label.c:401:0
	.fnstart
	.cfi_startproc
@ %bb.0:
	@DEBUG_VALUE: lv_label_get_letter_on:obj <- $r0
	@DEBUG_VALUE: lv_label_get_letter_on:pos_in <- $r1
	@DEBUG_VALUE: lv_label_get_letter_on:pos_in <- $r1
	.loc	12 403 5 prologue_end           @ ../GUILib/src/widgets/lv_label.c:403:5
	cmp	r1, #0
	@DEBUG_VALUE: lv_label_get_letter_on:obj <- $r0
	beq.w	.LBB19_7
.Ltmp575:
@ %bb.1:
	@DEBUG_VALUE: lv_label_get_letter_on:pos_in <- $r1
	@DEBUG_VALUE: lv_label_get_letter_on:obj <- $r0
	.save	{r4, r5, r6, r7, r8, r9, r10, r11, lr}
	push.w	{r4, r5, r6, r7, r8, r9, r10, r11, lr}
	.cfi_def_cfa_offset 36
	.cfi_offset lr, -4
	.cfi_offset r11, -8
	.cfi_offset r10, -12
	.cfi_offset r9, -16
	.cfi_offset r8, -20
	.cfi_offset r7, -24
	.cfi_offset r6, -28
	.cfi_offset r5, -32
	.cfi_offset r4, -36
	.pad	#68
	sub	sp, #68
	.cfi_def_cfa_offset 104
	mov	r5, r1
.Ltmp576:
	@DEBUG_VALUE: lv_label_get_letter_on:pos_in <- $r5
	.loc	12 407 21                       @ ../GUILib/src/widgets/lv_label.c:407:21
	ldrh.w	r11, [r1]
.Ltmp577:
	@DEBUG_VALUE: lv_obj_get_style_pad_left:part <- 0
	@DEBUG_VALUE: lv_obj_get_style_pad_left:obj <- $r4
	.loc	18 105 26                       @ ../GUILib/src/widgets/../core/lv_obj_style_gen.h:105:26
	movs	r1, #0
	movw	r2, #6162
	mov	r4, r0
.Ltmp578:
	@DEBUG_VALUE: lv_label_get_letter_on:obj <- $r4
	@DEBUG_VALUE: lv_label_get_letter_on:label <- $r4
	bl	lv_obj_get_style_prop
.Ltmp579:
	.loc	12 408 21                       @ ../GUILib/src/widgets/lv_label.c:408:21
	ldrh	r1, [r5, #2]
.Ltmp580:
	.loc	18 105 26                       @ ../GUILib/src/widgets/../core/lv_obj_style_gen.h:105:26
	str	r0, [sp, #4]                    @ 4-byte Spill
.Ltmp581:
	@DEBUG_VALUE: lv_label_get_letter_on:pos <- [DW_OP_LLVM_fragment 0 16] undef
	@DEBUG_VALUE: lv_obj_get_style_pad_left:v <- [DW_OP_plus_uconst 4] [$sp+0]
	@DEBUG_VALUE: lv_obj_get_style_pad_top:part <- 0
	@DEBUG_VALUE: lv_obj_get_style_pad_top:obj <- $r4
	@DEBUG_VALUE: lv_obj_get_style_pad_left:part <- 0
	@DEBUG_VALUE: lv_obj_get_style_pad_left:obj <- $r4
	str	r1, [sp, #24]                   @ 4-byte Spill
.Ltmp582:
	.loc	18 93 26                        @ ../GUILib/src/widgets/../core/lv_obj_style_gen.h:93:26
	mov	r0, r4
	movs	r1, #0
	movw	r2, #6160
	bl	lv_obj_get_style_prop
.Ltmp583:
	str	r0, [sp, #20]                   @ 4-byte Spill
.Ltmp584:
	@DEBUG_VALUE: lv_label_get_letter_on:pos <- [DW_OP_LLVM_fragment 16 16] undef
	@DEBUG_VALUE: lv_obj_get_style_pad_top:v <- [DW_OP_plus_uconst 20] [$sp+0]
	.loc	18 0 26 is_stmt 0               @ ../GUILib/src/widgets/../core/lv_obj_style_gen.h:0:26
	add	r1, sp, #60
.Ltmp585:
	.loc	12 411 5 is_stmt 1              @ ../GUILib/src/widgets/lv_label.c:411:5
	mov	r0, r4
	bl	lv_obj_get_content_coords
.Ltmp586:
	@DEBUG_VALUE: lv_label_get_text:label <- $r4
	@DEBUG_VALUE: lv_label_get_text:obj <- $r4
	.loc	12 268 19                       @ ../GUILib/src/widgets/lv_label.c:268:19
	ldr	r7, [r4, #36]
.Ltmp587:
	@DEBUG_VALUE: lv_area_get_width:area_p <- [DW_OP_plus_uconst 60, DW_OP_stack_value] $sp
	@DEBUG_VALUE: lv_label_get_letter_on:new_line_start <- 0
	@DEBUG_VALUE: lv_label_get_letter_on:line_start <- 0
	@DEBUG_VALUE: lv_label_get_letter_on:txt <- $r7
	.loc	6 125 33                        @ ../GUILib/src/hal/../misc/lv_area.h:125:33
	ldrh.w	r8, [sp, #64]
	.loc	6 125 46 is_stmt 0              @ ../GUILib/src/hal/../misc/lv_area.h:125:46
	ldrh.w	r9, [sp, #60]
.Ltmp588:
	@DEBUG_VALUE: lv_obj_get_style_text_font:part <- 0
	@DEBUG_VALUE: lv_obj_get_style_text_font:obj <- $r4
	@DEBUG_VALUE: lv_label_get_letter_on:max_w <- undef
	.loc	18 333 26 is_stmt 1             @ ../GUILib/src/widgets/../core/lv_obj_style_gen.h:333:26
	mov	r0, r4
	movs	r1, #0
	movw	r2, #5209
	bl	lv_obj_get_style_prop
.Ltmp589:
	mov	r6, r0
.Ltmp590:
	@DEBUG_VALUE: lv_obj_get_style_text_line_space:part <- 0
	@DEBUG_VALUE: lv_obj_get_style_text_line_space:obj <- $r4
	@DEBUG_VALUE: lv_label_get_letter_on:font <- $r6
	@DEBUG_VALUE: lv_obj_get_style_text_font:v <- $r6
	.loc	18 345 26                       @ ../GUILib/src/widgets/../core/lv_obj_style_gen.h:345:26
	mov	r0, r4
	movs	r1, #0
	movw	r2, #5211
	bl	lv_obj_get_style_prop
.Ltmp591:
	mov	r5, r0
.Ltmp592:
	@DEBUG_VALUE: lv_label_get_letter_on:pos_in <- [DW_OP_LLVM_entry_value 1] $r1
	@DEBUG_VALUE: lv_label_get_letter_on:line_space <- [DW_OP_LLVM_convert 32 7, DW_OP_LLVM_convert 16 7, DW_OP_stack_value] $r5
	@DEBUG_VALUE: lv_obj_get_style_text_line_space:v <- $r5
	@DEBUG_VALUE: lv_obj_get_style_text_letter_space:part <- 0
	@DEBUG_VALUE: lv_obj_get_style_text_letter_space:obj <- $r4
	.loc	18 339 26                       @ ../GUILib/src/widgets/../core/lv_obj_style_gen.h:339:26
	mov	r0, r4
	movs	r1, #0
	movw	r2, #5210
	bl	lv_obj_get_style_prop
.Ltmp593:
	str	r0, [sp, #16]                   @ 4-byte Spill
.Ltmp594:
	@DEBUG_VALUE: lv_label_get_letter_on:letter_space <- [DW_OP_plus_uconst 16, DW_OP_deref_size 4, DW_OP_LLVM_convert 32 7, DW_OP_LLVM_convert 16 7, DW_OP_stack_value] $sp
	@DEBUG_VALUE: lv_obj_get_style_text_letter_space:v <- [DW_OP_plus_uconst 16] [$sp+0]
	.loc	12 425 15                       @ ../GUILib/src/widgets/lv_label.c:425:15
	ldrb.w	r0, [r4, #72]
.Ltmp595:
	@DEBUG_VALUE: lv_label_get_letter_on:flag <- [DW_OP_constu 1, DW_OP_and, DW_OP_stack_value] undef
	.loc	17 120 20                       @ ../GUILib/src/widgets/../font/lv_font.h:120:20
	ldrsh.w	r1, [r6, #8]
.Ltmp596:
	@DEBUG_VALUE: lv_label_get_letter_on:y <- 0
	@DEBUG_VALUE: lv_label_get_letter_on:letter_height <- undef
	@DEBUG_VALUE: lv_label_get_letter_on:flag <- 0
	.loc	12 426 8                        @ ../GUILib/src/widgets/lv_label.c:426:8
	ubfx	r0, r0, #4, #2
.Ltmp597:
	@DEBUG_VALUE: lv_label_get_letter_on:flag <- $r0
	str	r1, [sp, #28]                   @ 4-byte Spill
.Ltmp598:
	.loc	18 3 26                         @ ../GUILib/src/widgets/../core/lv_obj_style_gen.h:3:26
	str	r0, [sp, #36]                   @ 4-byte Spill
.Ltmp599:
	@DEBUG_VALUE: lv_label_get_letter_on:flag <- [DW_OP_plus_uconst 36] [$sp+0]
	@DEBUG_VALUE: lv_obj_get_style_width:part <- 0
	@DEBUG_VALUE: lv_obj_get_style_width:obj <- $r4
	@DEBUG_VALUE: lv_label_get_letter_on:flag <- [DW_OP_plus_uconst 36] [$sp+0]
	mov	r0, r4
	movs	r1, #0
	movw	r2, #4097
	str	r6, [sp, #40]                   @ 4-byte Spill
.Ltmp600:
	@DEBUG_VALUE: lv_label_get_letter_on:font <- [DW_OP_plus_uconst 40] [$sp+0]
	@DEBUG_VALUE: lv_font_get_line_height:font_p <- [DW_OP_plus_uconst 40] [$sp+0]
	@DEBUG_VALUE: lv_label_get_letter_on:font <- [DW_OP_plus_uconst 40] [$sp+0]
	bl	lv_obj_get_style_prop
.Ltmp601:
	@DEBUG_VALUE: lv_obj_get_style_width:v <- $r0
	.loc	18 4 12                         @ ../GUILib/src/widgets/../core/lv_obj_style_gen.h:4:12
	uxth	r0, r0
.Ltmp602:
	.loc	18 0 12 is_stmt 0               @ ../GUILib/src/widgets/../core/lv_obj_style_gen.h:0:12
	movw	r1, #10193
.Ltmp603:
	.loc	12 427 69 is_stmt 1             @ ../GUILib/src/widgets/lv_label.c:427:69
	cmp	r0, r1
	bne	.LBB19_3
.Ltmp604:
@ %bb.2:
	@DEBUG_VALUE: lv_label_get_letter_on:txt <- $r7
	@DEBUG_VALUE: lv_label_get_letter_on:line_space <- [DW_OP_LLVM_convert 32 7, DW_OP_LLVM_convert 16 7, DW_OP_stack_value] $r5
	@DEBUG_VALUE: lv_label_get_letter_on:label <- $r4
	@DEBUG_VALUE: lv_label_get_letter_on:obj <- $r4
	@DEBUG_VALUE: lv_label_get_letter_on:font <- [DW_OP_plus_uconst 40] [$sp+0]
	@DEBUG_VALUE: lv_label_get_letter_on:flag <- [DW_OP_plus_uconst 36] [$sp+0]
	@DEBUG_VALUE: lv_label_get_letter_on:letter_space <- [DW_OP_plus_uconst 16, DW_OP_deref_size 4, DW_OP_LLVM_convert 32 7, DW_OP_LLVM_convert 16 7, DW_OP_stack_value] $sp
	@DEBUG_VALUE: lv_label_get_letter_on:y <- 0
	@DEBUG_VALUE: lv_label_get_letter_on:pos_in <- [DW_OP_LLVM_entry_value 1] $r1
	@DEBUG_VALUE: lv_label_get_letter_on:line_start <- 0
	@DEBUG_VALUE: lv_label_get_letter_on:new_line_start <- 0
	.loc	12 427 78 is_stmt 0             @ ../GUILib/src/widgets/lv_label.c:427:78
	ldrh	r0, [r4, #34]
.Ltmp605:
	.loc	12 427 8                        @ ../GUILib/src/widgets/lv_label.c:427:8
	lsls	r0, r0, #21
	ldr	r0, [sp, #36]                   @ 4-byte Reload
	it	pl
	addpl	r0, #4
	str	r0, [sp, #36]                   @ 4-byte Spill
.Ltmp606:
.LBB19_3:
	@DEBUG_VALUE: lv_label_get_letter_on:txt <- $r7
	@DEBUG_VALUE: lv_label_get_letter_on:line_space <- [DW_OP_LLVM_convert 32 7, DW_OP_LLVM_convert 16 7, DW_OP_stack_value] $r5
	@DEBUG_VALUE: lv_label_get_letter_on:label <- $r4
	@DEBUG_VALUE: lv_label_get_letter_on:obj <- $r4
	@DEBUG_VALUE: lv_label_get_letter_on:font <- [DW_OP_plus_uconst 40] [$sp+0]
	@DEBUG_VALUE: lv_label_get_letter_on:flag <- [DW_OP_plus_uconst 36] [$sp+0]
	@DEBUG_VALUE: lv_label_get_letter_on:letter_space <- [DW_OP_plus_uconst 16, DW_OP_deref_size 4, DW_OP_LLVM_convert 32 7, DW_OP_LLVM_convert 16 7, DW_OP_stack_value] $sp
	@DEBUG_VALUE: lv_label_get_letter_on:y <- 0
	@DEBUG_VALUE: lv_label_get_letter_on:pos_in <- [DW_OP_LLVM_entry_value 1] $r1
	@DEBUG_VALUE: lv_label_get_letter_on:line_start <- 0
	@DEBUG_VALUE: lv_label_get_letter_on:new_line_start <- 0
	@DEBUG_VALUE: lv_label_get_letter_on:pos <- [DW_OP_LLVM_fragment 0 16] undef
	@DEBUG_VALUE: lv_label_get_letter_on:pos <- [DW_OP_LLVM_fragment 16 16] undef
	@DEBUG_VALUE: lv_label_get_letter_on:max_w <- undef
	@DEBUG_VALUE: lv_label_get_letter_on:flag <- [DW_OP_plus_uconst 36] [$sp+0]
	.loc	12 429 89 is_stmt 1             @ ../GUILib/src/widgets/lv_label.c:429:89
	ldr	r2, [r4, #36]
	.loc	12 429 29 is_stmt 0             @ ../GUILib/src/widgets/lv_label.c:429:29
	mov	r0, r4
	movs	r1, #0
	mov.w	r10, #0
	bl	lv_obj_calculate_style_text_align
.Ltmp607:
	.loc	12 432 11 is_stmt 1             @ ../GUILib/src/widgets/lv_label.c:432:11
	ldrb	r1, [r7]
	str	r7, [sp, #32]                   @ 4-byte Spill
.Ltmp608:
	@DEBUG_VALUE: lv_label_get_letter_on:align <- undef
	@DEBUG_VALUE: lv_label_get_letter_on:y <- undef
	@DEBUG_VALUE: lv_label_get_letter_on:new_line_start <- 0
	@DEBUG_VALUE: lv_label_get_letter_on:line_start <- 0
	.loc	12 432 5 is_stmt 0              @ ../GUILib/src/widgets/lv_label.c:432:5
	strd	r11, r0, [sp, #8]               @ 8-byte Folded Spill
	cbz	r1, .LBB19_8
.Ltmp609:
@ %bb.4:
	@DEBUG_VALUE: lv_label_get_letter_on:txt <- $r7
	@DEBUG_VALUE: lv_label_get_letter_on:line_space <- [DW_OP_LLVM_convert 32 7, DW_OP_LLVM_convert 16 7, DW_OP_stack_value] $r5
	@DEBUG_VALUE: lv_label_get_letter_on:label <- $r4
	@DEBUG_VALUE: lv_label_get_letter_on:obj <- $r4
	@DEBUG_VALUE: lv_label_get_letter_on:font <- [DW_OP_plus_uconst 40] [$sp+0]
	@DEBUG_VALUE: lv_label_get_letter_on:flag <- [DW_OP_plus_uconst 36] [$sp+0]
	@DEBUG_VALUE: lv_label_get_letter_on:letter_space <- [DW_OP_plus_uconst 16, DW_OP_deref_size 4, DW_OP_LLVM_convert 32 7, DW_OP_LLVM_convert 16 7, DW_OP_stack_value] $sp
	@DEBUG_VALUE: lv_label_get_letter_on:pos_in <- [DW_OP_LLVM_entry_value 1] $r1
	@DEBUG_VALUE: lv_label_get_letter_on:line_start <- 0
	@DEBUG_VALUE: lv_label_get_letter_on:new_line_start <- 0
	.loc	12 0 5                          @ ../GUILib/src/widgets/lv_label.c:0:5
	ldrd	r2, r1, [sp, #20]               @ 8-byte Folded Reload
	sub.w	r0, r8, r9
	subs	r1, r1, r2
.Ltmp610:
	@DEBUG_VALUE: lv_label_get_letter_on:pos <- [DW_OP_LLVM_fragment 16 16] $r1
	sxth	r1, r1
.Ltmp611:
	str	r1, [sp, #24]                   @ 4-byte Spill
	sxth	r1, r5
	str	r1, [sp, #20]                   @ 4-byte Spill
	ldr	r1, [sp, #16]                   @ 4-byte Reload
	adds	r0, #1
.Ltmp612:
	@DEBUG_VALUE: lv_label_get_letter_on:max_w <- $r0
	ldr	r5, [sp, #36]                   @ 4-byte Reload
.Ltmp613:
	mov	r4, r7
.Ltmp614:
	@DEBUG_VALUE: lv_label_get_letter_on:txt <- $r4
	@DEBUG_VALUE: lv_label_get_letter_on:obj <- [DW_OP_LLVM_entry_value 1] $r0
	movs	r7, #0
	sxth.w	r8, r1
	sxth	r6, r0
	mov.w	r9, #0
.Ltmp615:
	.p2align	2
.LBB19_5:                               @ =>This Inner Loop Header: Depth=1
	@DEBUG_VALUE: lv_label_get_letter_on:font <- [DW_OP_plus_uconst 40] [$sp+0]
	@DEBUG_VALUE: lv_label_get_letter_on:flag <- [DW_OP_plus_uconst 36] [$sp+0]
	@DEBUG_VALUE: lv_label_get_letter_on:letter_space <- [DW_OP_plus_uconst 16, DW_OP_deref_size 4, DW_OP_LLVM_convert 32 7, DW_OP_LLVM_convert 16 7, DW_OP_stack_value] $sp
	@DEBUG_VALUE: lv_label_get_letter_on:obj <- [DW_OP_LLVM_entry_value 1] $r0
	@DEBUG_VALUE: lv_label_get_letter_on:pos_in <- [DW_OP_LLVM_entry_value 1] $r1
	@DEBUG_VALUE: lv_label_get_letter_on:line_start <- $r7
	.loc	12 433 27 is_stmt 1             @ ../GUILib/src/widgets/lv_label.c:433:27
	ldr	r1, [sp, #40]                   @ 4-byte Reload
	mov	r0, r4
	mov	r2, r8
	mov	r3, r6
	str	r5, [sp]
	bl	_lv_txt_get_next_line
.Ltmp616:
	.loc	12 435 23                       @ ../GUILib/src/widgets/lv_label.c:435:23
	ldr	r1, [sp, #28]                   @ 4-byte Reload
.Ltmp617:
	.loc	12 435 12 is_stmt 0             @ ../GUILib/src/widgets/lv_label.c:435:12
	ldr	r2, [sp, #24]                   @ 4-byte Reload
.Ltmp618:
	.loc	12 435 23                       @ ../GUILib/src/widgets/lv_label.c:435:23
	sxtah	r1, r1, r9
.Ltmp619:
	.loc	12 435 12                       @ ../GUILib/src/widgets/lv_label.c:435:12
	cmp	r1, r2
	.loc	12 433 24 is_stmt 1             @ ../GUILib/src/widgets/lv_label.c:433:24
	add.w	r10, r0, r7
.Ltmp620:
	@DEBUG_VALUE: lv_label_get_letter_on:new_line_start <- $r10
	.loc	12 435 12                       @ ../GUILib/src/widgets/lv_label.c:435:12
	bge	.LBB19_9
.Ltmp621:
@ %bb.6:                                @   in Loop: Header=BB19_5 Depth=1
	@DEBUG_VALUE: lv_label_get_letter_on:new_line_start <- $r10
	@DEBUG_VALUE: lv_label_get_letter_on:line_start <- $r7
	@DEBUG_VALUE: lv_label_get_letter_on:font <- [DW_OP_plus_uconst 40] [$sp+0]
	@DEBUG_VALUE: lv_label_get_letter_on:flag <- [DW_OP_plus_uconst 36] [$sp+0]
	@DEBUG_VALUE: lv_label_get_letter_on:letter_space <- [DW_OP_plus_uconst 16, DW_OP_deref_size 4, DW_OP_LLVM_convert 32 7, DW_OP_LLVM_convert 16 7, DW_OP_stack_value] $sp
	@DEBUG_VALUE: lv_label_get_letter_on:obj <- [DW_OP_LLVM_entry_value 1] $r0
	@DEBUG_VALUE: lv_label_get_letter_on:pos_in <- [DW_OP_LLVM_entry_value 1] $r1
	.loc	12 444 11                       @ ../GUILib/src/widgets/lv_label.c:444:11
	ldr	r0, [sp, #20]                   @ 4-byte Reload
	mov	r7, r10
.Ltmp622:
	add.w	r9, r1, r0
.Ltmp623:
	@DEBUG_VALUE: lv_label_get_letter_on:y <- undef
	@DEBUG_VALUE: lv_label_get_letter_on:new_line_start <- $r10
	@DEBUG_VALUE: lv_label_get_letter_on:line_start <- $r10
	.loc	12 0 11 is_stmt 0               @ ../GUILib/src/widgets/lv_label.c:0:11
	ldr	r1, [sp, #32]                   @ 4-byte Reload
.Ltmp624:
	mov	r11, r10
	.loc	12 432 11 is_stmt 1             @ ../GUILib/src/widgets/lv_label.c:432:11
	ldrb.w	r0, [r1, r10]
	add.w	r4, r1, r10
	.loc	12 432 5 is_stmt 0              @ ../GUILib/src/widgets/lv_label.c:432:5
	cmp	r0, #0
	bne	.LBB19_5
	b	.LBB19_12
.Ltmp625:
	.p2align	2
.LBB19_7:                               @ =>This Inner Loop Header: Depth=1
	@DEBUG_VALUE: lv_label_get_letter_on:pos_in <- $r1
	@DEBUG_VALUE: lv_label_get_letter_on:obj <- $r0
	.loc	12 403 5 is_stmt 1              @ ../GUILib/src/widgets/lv_label.c:403:5
	b	.LBB19_7
.Ltmp626:
.LBB19_8:
	@DEBUG_VALUE: lv_label_get_letter_on:txt <- $r7
	@DEBUG_VALUE: lv_label_get_letter_on:line_space <- [DW_OP_LLVM_convert 32 7, DW_OP_LLVM_convert 16 7, DW_OP_stack_value] $r5
	@DEBUG_VALUE: lv_label_get_letter_on:label <- $r4
	@DEBUG_VALUE: lv_label_get_letter_on:obj <- $r4
	@DEBUG_VALUE: lv_label_get_letter_on:font <- [DW_OP_plus_uconst 40] [$sp+0]
	@DEBUG_VALUE: lv_label_get_letter_on:flag <- [DW_OP_plus_uconst 36] [$sp+0]
	@DEBUG_VALUE: lv_label_get_letter_on:letter_space <- [DW_OP_plus_uconst 16, DW_OP_deref_size 4, DW_OP_LLVM_convert 32 7, DW_OP_LLVM_convert 16 7, DW_OP_stack_value] $sp
	@DEBUG_VALUE: lv_label_get_letter_on:pos_in <- [DW_OP_LLVM_entry_value 1] $r1
	@DEBUG_VALUE: lv_label_get_letter_on:line_start <- 0
	@DEBUG_VALUE: lv_label_get_letter_on:new_line_start <- 0
	.loc	12 0 5 is_stmt 0                @ ../GUILib/src/widgets/lv_label.c:0:5
	mov	r4, r7
.Ltmp627:
	@DEBUG_VALUE: lv_label_get_letter_on:txt <- $r4
	@DEBUG_VALUE: lv_label_get_letter_on:obj <- [DW_OP_LLVM_entry_value 1] $r0
	mov.w	r11, #0
	b	.LBB19_12
.Ltmp628:
.LBB19_9:
	@DEBUG_VALUE: lv_label_get_letter_on:new_line_start <- $r10
	@DEBUG_VALUE: lv_label_get_letter_on:line_start <- $r7
	@DEBUG_VALUE: lv_label_get_letter_on:font <- [DW_OP_plus_uconst 40] [$sp+0]
	@DEBUG_VALUE: lv_label_get_letter_on:flag <- [DW_OP_plus_uconst 36] [$sp+0]
	@DEBUG_VALUE: lv_label_get_letter_on:letter_space <- [DW_OP_plus_uconst 16, DW_OP_deref_size 4, DW_OP_LLVM_convert 32 7, DW_OP_LLVM_convert 16 7, DW_OP_stack_value] $sp
	@DEBUG_VALUE: lv_label_get_letter_on:obj <- [DW_OP_LLVM_entry_value 1] $r0
	@DEBUG_VALUE: lv_label_get_letter_on:pos_in <- [DW_OP_LLVM_entry_value 1] $r1
	@DEBUG_VALUE: tmp <- $r10
	.loc	12 440 22 is_stmt 1             @ ../GUILib/src/widgets/lv_label.c:440:22
	movw	r0, :lower16:_lv_txt_encoded_prev
	movt	r0, :upper16:_lv_txt_encoded_prev
	ldr	r5, [sp, #32]                   @ 4-byte Reload
	ldr	r2, [r0]
.Ltmp629:
	@DEBUG_VALUE: tmp <- [DW_OP_plus_uconst 56, DW_OP_deref] $sp
	.loc	12 0 22 is_stmt 0               @ ../GUILib/src/widgets/lv_label.c:0:22
	add	r1, sp, #56
	.loc	12 440 22                       @ ../GUILib/src/widgets/lv_label.c:440:22
	mov	r0, r5
	.loc	12 438 22 is_stmt 1             @ ../GUILib/src/widgets/lv_label.c:438:22
	str.w	r10, [sp, #56]
	.loc	12 440 22                       @ ../GUILib/src/widgets/lv_label.c:440:22
	blx	r2
.Ltmp630:
	@DEBUG_VALUE: letter <- $r0
	.loc	12 441 31                       @ ../GUILib/src/widgets/lv_label.c:441:31
	cmp	r0, #10
	beq	.LBB19_11
.Ltmp631:
@ %bb.10:
	@DEBUG_VALUE: lv_label_get_letter_on:new_line_start <- $r10
	@DEBUG_VALUE: lv_label_get_letter_on:line_start <- $r7
	@DEBUG_VALUE: letter <- $r0
	@DEBUG_VALUE: tmp <- [DW_OP_plus_uconst 56, DW_OP_deref] $sp
	@DEBUG_VALUE: lv_label_get_letter_on:font <- [DW_OP_plus_uconst 40] [$sp+0]
	@DEBUG_VALUE: lv_label_get_letter_on:flag <- [DW_OP_plus_uconst 36] [$sp+0]
	@DEBUG_VALUE: lv_label_get_letter_on:letter_space <- [DW_OP_plus_uconst 16, DW_OP_deref_size 4, DW_OP_LLVM_convert 32 7, DW_OP_LLVM_convert 16 7, DW_OP_stack_value] $sp
	@DEBUG_VALUE: lv_label_get_letter_on:obj <- [DW_OP_LLVM_entry_value 1] $r0
	@DEBUG_VALUE: lv_label_get_letter_on:pos_in <- [DW_OP_LLVM_entry_value 1] $r1
	.loc	12 441 34 is_stmt 0             @ ../GUILib/src/widgets/lv_label.c:441:34
	ldrb.w	r0, [r5, r10]
.Ltmp632:
	.loc	12 441 16                       @ ../GUILib/src/widgets/lv_label.c:441:16
	cmp	r0, #0
	it	eq
	addeq.w	r10, r10, #1
.Ltmp633:
.LBB19_11:
	@DEBUG_VALUE: lv_label_get_letter_on:line_start <- $r7
	@DEBUG_VALUE: tmp <- [DW_OP_plus_uconst 56, DW_OP_deref] $sp
	@DEBUG_VALUE: lv_label_get_letter_on:font <- [DW_OP_plus_uconst 40] [$sp+0]
	@DEBUG_VALUE: lv_label_get_letter_on:flag <- [DW_OP_plus_uconst 36] [$sp+0]
	@DEBUG_VALUE: lv_label_get_letter_on:letter_space <- [DW_OP_plus_uconst 16, DW_OP_deref_size 4, DW_OP_LLVM_convert 32 7, DW_OP_LLVM_convert 16 7, DW_OP_stack_value] $sp
	@DEBUG_VALUE: lv_label_get_letter_on:obj <- [DW_OP_LLVM_entry_value 1] $r0
	@DEBUG_VALUE: lv_label_get_letter_on:pos_in <- [DW_OP_LLVM_entry_value 1] $r1
	.loc	12 0 0                          @ ../GUILib/src/widgets/lv_label.c:0:0
	mov	r11, r10
.Ltmp634:
	@DEBUG_VALUE: lv_label_get_letter_on:new_line_start <- $r11
	mov	r10, r7
.Ltmp635:
	@DEBUG_VALUE: lv_label_get_letter_on:line_start <- $r10
	@DEBUG_VALUE: lv_label_get_letter_on:line_start <- $r10
.LBB19_12:
	@DEBUG_VALUE: lv_label_get_letter_on:font <- [DW_OP_plus_uconst 40] [$sp+0]
	@DEBUG_VALUE: lv_label_get_letter_on:flag <- [DW_OP_plus_uconst 36] [$sp+0]
	@DEBUG_VALUE: lv_label_get_letter_on:letter_space <- [DW_OP_plus_uconst 16, DW_OP_deref_size 4, DW_OP_LLVM_convert 32 7, DW_OP_LLVM_convert 16 7, DW_OP_stack_value] $sp
	@DEBUG_VALUE: lv_label_get_letter_on:obj <- [DW_OP_LLVM_entry_value 1] $r0
	@DEBUG_VALUE: lv_label_get_letter_on:pos_in <- [DW_OP_LLVM_entry_value 1] $r1
	@DEBUG_VALUE: lv_label_get_letter_on:pos <- [DW_OP_LLVM_fragment 0 16] undef
	@DEBUG_VALUE: lv_label_get_letter_on:new_line_start <- $r11
	@DEBUG_VALUE: lv_label_get_letter_on:bidi_txt <- $r4
	@DEBUG_VALUE: lv_label_get_letter_on:x <- 0
	ldr	r0, [sp, #12]                   @ 4-byte Reload
	.loc	12 460 8 is_stmt 1              @ ../GUILib/src/widgets/lv_label.c:460:8
	cmp	r0, #3
	beq	.LBB19_15
.Ltmp636:
@ %bb.13:
	@DEBUG_VALUE: lv_label_get_letter_on:new_line_start <- $r11
	@DEBUG_VALUE: lv_label_get_letter_on:bidi_txt <- $r4
	@DEBUG_VALUE: lv_label_get_letter_on:font <- [DW_OP_plus_uconst 40] [$sp+0]
	@DEBUG_VALUE: lv_label_get_letter_on:flag <- [DW_OP_plus_uconst 36] [$sp+0]
	@DEBUG_VALUE: lv_label_get_letter_on:letter_space <- [DW_OP_plus_uconst 16, DW_OP_deref_size 4, DW_OP_LLVM_convert 32 7, DW_OP_LLVM_convert 16 7, DW_OP_stack_value] $sp
	@DEBUG_VALUE: lv_label_get_letter_on:x <- 0
	@DEBUG_VALUE: lv_label_get_letter_on:obj <- [DW_OP_LLVM_entry_value 1] $r0
	@DEBUG_VALUE: lv_label_get_letter_on:pos_in <- [DW_OP_LLVM_entry_value 1] $r1
	cmp	r0, #2
	bne	.LBB19_16
.Ltmp637:
@ %bb.14:
	@DEBUG_VALUE: lv_label_get_letter_on:new_line_start <- $r11
	@DEBUG_VALUE: lv_label_get_letter_on:bidi_txt <- $r4
	@DEBUG_VALUE: lv_label_get_letter_on:font <- [DW_OP_plus_uconst 40] [$sp+0]
	@DEBUG_VALUE: lv_label_get_letter_on:flag <- [DW_OP_plus_uconst 36] [$sp+0]
	@DEBUG_VALUE: lv_label_get_letter_on:letter_space <- [DW_OP_plus_uconst 16, DW_OP_deref_size 4, DW_OP_LLVM_convert 32 7, DW_OP_LLVM_convert 16 7, DW_OP_stack_value] $sp
	@DEBUG_VALUE: lv_label_get_letter_on:x <- 0
	@DEBUG_VALUE: lv_label_get_letter_on:obj <- [DW_OP_LLVM_entry_value 1] $r0
	@DEBUG_VALUE: lv_label_get_letter_on:pos_in <- [DW_OP_LLVM_entry_value 1] $r1
	.loc	12 462 18                       @ ../GUILib/src/widgets/lv_label.c:462:18
	ldr	r0, [sp, #16]                   @ 4-byte Reload
	ldrd	r7, r2, [sp, #36]               @ 8-byte Folded Reload
	.loc	12 462 60 is_stmt 0             @ ../GUILib/src/widgets/lv_label.c:462:60
	sub.w	r1, r11, r10
	.loc	12 462 18                       @ ../GUILib/src/widgets/lv_label.c:462:18
	sxth	r3, r0
	mov	r0, r4
	str	r7, [sp]
	bl	lv_txt_get_width
.Ltmp638:
	@DEBUG_VALUE: line_w <- $r0
	.loc	6 125 33 is_stmt 1              @ ../GUILib/src/hal/../misc/lv_area.h:125:33
	ldrh.w	r1, [sp, #64]
	.loc	6 125 46 is_stmt 0              @ ../GUILib/src/hal/../misc/lv_area.h:125:46
	ldrh.w	r2, [sp, #60]
.Ltmp639:
	.loc	12 462 18 is_stmt 1             @ ../GUILib/src/widgets/lv_label.c:462:18
	uxth	r3, r0
.Ltmp640:
	@DEBUG_VALUE: lv_area_get_width:area_p <- [DW_OP_plus_uconst 60, DW_OP_stack_value] $sp
	.loc	6 125 49                        @ ../GUILib/src/hal/../misc/lv_area.h:125:49
	subs	r1, r1, r2
	adds	r1, #1
	uxth	r2, r1
.Ltmp641:
	.loc	12 463 45                       @ ../GUILib/src/widgets/lv_label.c:463:45
	add.w	r1, r1, r2, lsr #15
	sxth	r1, r1
	.loc	12 463 58 is_stmt 0             @ ../GUILib/src/widgets/lv_label.c:463:58
	add.w	r0, r0, r3, lsr #15
.Ltmp642:
	.loc	12 463 45                       @ ../GUILib/src/widgets/lv_label.c:463:45
	asrs	r1, r1, #1
	.loc	12 463 58                       @ ../GUILib/src/widgets/lv_label.c:463:58
	sxth	r0, r0
	.loc	12 463 49                       @ ../GUILib/src/widgets/lv_label.c:463:49
	sub.w	r5, r1, r0, asr #1
.Ltmp643:
	@DEBUG_VALUE: lv_label_get_letter_on:x <- $r5
	.loc	12 0 49                         @ ../GUILib/src/widgets/lv_label.c:0:49
	b	.LBB19_17
.Ltmp644:
.LBB19_15:
	@DEBUG_VALUE: lv_label_get_letter_on:new_line_start <- $r11
	@DEBUG_VALUE: lv_label_get_letter_on:bidi_txt <- $r4
	@DEBUG_VALUE: lv_label_get_letter_on:font <- [DW_OP_plus_uconst 40] [$sp+0]
	@DEBUG_VALUE: lv_label_get_letter_on:flag <- [DW_OP_plus_uconst 36] [$sp+0]
	@DEBUG_VALUE: lv_label_get_letter_on:letter_space <- [DW_OP_plus_uconst 16, DW_OP_deref_size 4, DW_OP_LLVM_convert 32 7, DW_OP_LLVM_convert 16 7, DW_OP_stack_value] $sp
	@DEBUG_VALUE: lv_label_get_letter_on:x <- 0
	@DEBUG_VALUE: lv_label_get_letter_on:obj <- [DW_OP_LLVM_entry_value 1] $r0
	@DEBUG_VALUE: lv_label_get_letter_on:pos_in <- [DW_OP_LLVM_entry_value 1] $r1
	.loc	12 467 18 is_stmt 1             @ ../GUILib/src/widgets/lv_label.c:467:18
	ldr	r0, [sp, #16]                   @ 4-byte Reload
	ldrd	r7, r2, [sp, #36]               @ 8-byte Folded Reload
	.loc	12 467 60 is_stmt 0             @ ../GUILib/src/widgets/lv_label.c:467:60
	sub.w	r1, r11, r10
	.loc	12 467 18                       @ ../GUILib/src/widgets/lv_label.c:467:18
	sxth	r3, r0
	mov	r0, r4
	str	r7, [sp]
	bl	lv_txt_get_width
.Ltmp645:
	@DEBUG_VALUE: lv_area_get_width:area_p <- [DW_OP_plus_uconst 60, DW_OP_stack_value] $sp
	@DEBUG_VALUE: line_w <- $r0
	.loc	6 125 46 is_stmt 1              @ ../GUILib/src/hal/../misc/lv_area.h:125:46
	ldrh.w	r1, [sp, #60]
	.loc	6 125 33 is_stmt 0              @ ../GUILib/src/hal/../misc/lv_area.h:125:33
	ldrh.w	r2, [sp, #64]
.Ltmp646:
	.loc	12 468 45 is_stmt 1             @ ../GUILib/src/widgets/lv_label.c:468:45
	add	r0, r1
.Ltmp647:
	subs	r0, r2, r0
	adds	r5, r0, #1
.Ltmp648:
	@DEBUG_VALUE: lv_label_get_letter_on:x <- $r5
	.loc	12 0 45 is_stmt 0               @ ../GUILib/src/widgets/lv_label.c:0:45
	b	.LBB19_17
.Ltmp649:
.LBB19_16:
	@DEBUG_VALUE: lv_label_get_letter_on:new_line_start <- $r11
	@DEBUG_VALUE: lv_label_get_letter_on:bidi_txt <- $r4
	@DEBUG_VALUE: lv_label_get_letter_on:font <- [DW_OP_plus_uconst 40] [$sp+0]
	@DEBUG_VALUE: lv_label_get_letter_on:flag <- [DW_OP_plus_uconst 36] [$sp+0]
	@DEBUG_VALUE: lv_label_get_letter_on:letter_space <- [DW_OP_plus_uconst 16, DW_OP_deref_size 4, DW_OP_LLVM_convert 32 7, DW_OP_LLVM_convert 16 7, DW_OP_stack_value] $sp
	@DEBUG_VALUE: lv_label_get_letter_on:x <- 0
	@DEBUG_VALUE: lv_label_get_letter_on:obj <- [DW_OP_LLVM_entry_value 1] $r0
	@DEBUG_VALUE: lv_label_get_letter_on:pos_in <- [DW_OP_LLVM_entry_value 1] $r1
	movs	r5, #0
.Ltmp650:
.LBB19_17:
	@DEBUG_VALUE: lv_label_get_letter_on:new_line_start <- $r11
	@DEBUG_VALUE: lv_label_get_letter_on:bidi_txt <- $r4
	@DEBUG_VALUE: lv_label_get_letter_on:font <- [DW_OP_plus_uconst 40] [$sp+0]
	@DEBUG_VALUE: lv_label_get_letter_on:flag <- [DW_OP_plus_uconst 36] [$sp+0]
	@DEBUG_VALUE: lv_label_get_letter_on:letter_space <- [DW_OP_plus_uconst 16, DW_OP_deref_size 4, DW_OP_LLVM_convert 32 7, DW_OP_LLVM_convert 16 7, DW_OP_stack_value] $sp
	@DEBUG_VALUE: lv_label_get_letter_on:obj <- [DW_OP_LLVM_entry_value 1] $r0
	@DEBUG_VALUE: lv_label_get_letter_on:pos_in <- [DW_OP_LLVM_entry_value 1] $r1
	ldr	r7, [sp, #32]                   @ 4-byte Reload
.Ltmp651:
	@DEBUG_VALUE: lv_label_get_letter_on:pos <- [DW_OP_LLVM_fragment 0 16] undef
	@DEBUG_VALUE: lv_label_get_letter_on:x <- $r5
	movs	r1, #0
.Ltmp652:
	@DEBUG_VALUE: lv_label_get_letter_on:cmd_state <- 0
	.loc	12 476 8 is_stmt 1              @ ../GUILib/src/widgets/lv_label.c:476:8
	cmp	r11, r10
	.loc	12 471 25                       @ ../GUILib/src/widgets/lv_label.c:471:25
	strb.w	r1, [sp, #55]
.Ltmp653:
	@DEBUG_VALUE: lv_label_get_letter_on:i <- 0
	.loc	12 473 14                       @ ../GUILib/src/widgets/lv_label.c:473:14
	str	r1, [sp, #56]
.Ltmp654:
	@DEBUG_VALUE: lv_label_get_letter_on:i_act <- 0
	.loc	12 476 8                        @ ../GUILib/src/widgets/lv_label.c:476:8
	bls	.LBB19_28
.Ltmp655:
@ %bb.18:
	@DEBUG_VALUE: lv_label_get_letter_on:new_line_start <- $r11
	@DEBUG_VALUE: lv_label_get_letter_on:x <- $r5
	@DEBUG_VALUE: lv_label_get_letter_on:bidi_txt <- $r4
	@DEBUG_VALUE: lv_label_get_letter_on:font <- [DW_OP_plus_uconst 40] [$sp+0]
	@DEBUG_VALUE: lv_label_get_letter_on:flag <- [DW_OP_plus_uconst 36] [$sp+0]
	@DEBUG_VALUE: lv_label_get_letter_on:letter_space <- [DW_OP_plus_uconst 16, DW_OP_deref_size 4, DW_OP_LLVM_convert 32 7, DW_OP_LLVM_convert 16 7, DW_OP_stack_value] $sp
	@DEBUG_VALUE: lv_label_get_letter_on:i_act <- 0
	@DEBUG_VALUE: lv_label_get_letter_on:i <- 0
	@DEBUG_VALUE: lv_label_get_letter_on:cmd_state <- 0
	@DEBUG_VALUE: lv_label_get_letter_on:obj <- [DW_OP_LLVM_entry_value 1] $r0
	@DEBUG_VALUE: lv_label_get_letter_on:pos_in <- [DW_OP_LLVM_entry_value 1] $r1
	.loc	12 0 8 is_stmt 0                @ ../GUILib/src/widgets/lv_label.c:0:8
	ldrd	r1, r0, [sp, #4]                @ 8-byte Folded Reload
	movs	r6, #0
	subs	r0, r0, r1
.Ltmp656:
	@DEBUG_VALUE: lv_label_get_letter_on:pos <- [DW_OP_LLVM_fragment 0 16] $r0
	ldr	r1, [sp, #36]                   @ 4-byte Reload
	sxth.w	r8, r0
	and	r9, r1, #1
.Ltmp657:
	.p2align	2
.LBB19_19:                              @ =>This Inner Loop Header: Depth=1
	@DEBUG_VALUE: lv_label_get_letter_on:new_line_start <- $r11
	@DEBUG_VALUE: lv_label_get_letter_on:x <- $r5
	@DEBUG_VALUE: lv_label_get_letter_on:bidi_txt <- $r4
	@DEBUG_VALUE: lv_label_get_letter_on:font <- [DW_OP_plus_uconst 40] [$sp+0]
	@DEBUG_VALUE: lv_label_get_letter_on:flag <- [DW_OP_plus_uconst 36] [$sp+0]
	@DEBUG_VALUE: lv_label_get_letter_on:letter_space <- [DW_OP_plus_uconst 16, DW_OP_deref_size 4, DW_OP_LLVM_convert 32 7, DW_OP_LLVM_convert 16 7, DW_OP_stack_value] $sp
	@DEBUG_VALUE: lv_label_get_letter_on:obj <- [DW_OP_LLVM_entry_value 1] $r0
	@DEBUG_VALUE: lv_label_get_letter_on:pos_in <- [DW_OP_LLVM_entry_value 1] $r1
	@DEBUG_VALUE: lv_label_get_letter_on:x <- $r5
	@DEBUG_VALUE: lv_label_get_letter_on:i <- [DW_OP_plus_uconst 56, DW_OP_deref] $sp
	@DEBUG_VALUE: lv_label_get_letter_on:i_act <- $r6
	@DEBUG_VALUE: letter <- [DW_OP_plus_uconst 48, DW_OP_deref] $sp
	@DEBUG_VALUE: letter_next <- [DW_OP_plus_uconst 44, DW_OP_deref] $sp
	.loc	12 482 13 is_stmt 1             @ ../GUILib/src/widgets/lv_label.c:482:13
	mov	r0, r4
	add	r1, sp, #48
	add	r2, sp, #44
	add	r3, sp, #56
	bl	_lv_txt_encoded_letter_next_2
.Ltmp658:
	.loc	12 485 16                       @ ../GUILib/src/widgets/lv_label.c:485:16
	cmp.w	r9, #0
	beq	.LBB19_22
.Ltmp659:
@ %bb.20:                               @   in Loop: Header=BB19_19 Depth=1
	@DEBUG_VALUE: lv_label_get_letter_on:new_line_start <- $r11
	@DEBUG_VALUE: lv_label_get_letter_on:i_act <- $r6
	@DEBUG_VALUE: lv_label_get_letter_on:x <- $r5
	@DEBUG_VALUE: lv_label_get_letter_on:bidi_txt <- $r4
	@DEBUG_VALUE: letter_next <- [DW_OP_plus_uconst 44, DW_OP_deref] $sp
	@DEBUG_VALUE: letter <- [DW_OP_plus_uconst 48, DW_OP_deref] $sp
	@DEBUG_VALUE: lv_label_get_letter_on:i <- [DW_OP_plus_uconst 56, DW_OP_deref] $sp
	@DEBUG_VALUE: lv_label_get_letter_on:font <- [DW_OP_plus_uconst 40] [$sp+0]
	@DEBUG_VALUE: lv_label_get_letter_on:flag <- [DW_OP_plus_uconst 36] [$sp+0]
	@DEBUG_VALUE: lv_label_get_letter_on:letter_space <- [DW_OP_plus_uconst 16, DW_OP_deref_size 4, DW_OP_LLVM_convert 32 7, DW_OP_LLVM_convert 16 7, DW_OP_stack_value] $sp
	@DEBUG_VALUE: lv_label_get_letter_on:obj <- [DW_OP_LLVM_entry_value 1] $r0
	@DEBUG_VALUE: lv_label_get_letter_on:pos_in <- [DW_OP_LLVM_entry_value 1] $r1
	.loc	12 486 56                       @ ../GUILib/src/widgets/lv_label.c:486:56
	ldr	r0, [sp, #56]
.Ltmp660:
	@DEBUG_VALUE: lv_label_get_letter_on:i <- $r0
	.loc	12 486 47 is_stmt 0             @ ../GUILib/src/widgets/lv_label.c:486:47
	ldrb	r1, [r4, r0]
.Ltmp661:
	@DEBUG_VALUE: lv_label_get_letter_on:cmd_state <- [DW_OP_plus_uconst 55, DW_OP_deref] $sp
	.loc	12 486 20                       @ ../GUILib/src/widgets/lv_label.c:486:20
	add.w	r0, sp, #55
.Ltmp662:
	bl	_lv_txt_is_cmd
.Ltmp663:
	.loc	12 486 20                       @ ../GUILib/src/widgets/lv_label.c:486:20
	cbz	r0, .LBB19_22
.Ltmp664:
@ %bb.21:                               @   in Loop: Header=BB19_19 Depth=1
	@DEBUG_VALUE: lv_label_get_letter_on:new_line_start <- $r11
	@DEBUG_VALUE: lv_label_get_letter_on:i_act <- $r6
	@DEBUG_VALUE: lv_label_get_letter_on:x <- $r5
	@DEBUG_VALUE: lv_label_get_letter_on:bidi_txt <- $r4
	@DEBUG_VALUE: lv_label_get_letter_on:cmd_state <- [DW_OP_plus_uconst 55, DW_OP_deref] $sp
	@DEBUG_VALUE: lv_label_get_letter_on:font <- [DW_OP_plus_uconst 40] [$sp+0]
	@DEBUG_VALUE: lv_label_get_letter_on:flag <- [DW_OP_plus_uconst 36] [$sp+0]
	@DEBUG_VALUE: lv_label_get_letter_on:letter_space <- [DW_OP_plus_uconst 16, DW_OP_deref_size 4, DW_OP_LLVM_convert 32 7, DW_OP_LLVM_convert 16 7, DW_OP_stack_value] $sp
	@DEBUG_VALUE: lv_label_get_letter_on:obj <- [DW_OP_LLVM_entry_value 1] $r0
	@DEBUG_VALUE: lv_label_get_letter_on:pos_in <- [DW_OP_LLVM_entry_value 1] $r1
	.loc	12 477 15 is_stmt 1             @ ../GUILib/src/widgets/lv_label.c:477:15
	ldr	r1, [sp, #56]
	.loc	12 477 17 is_stmt 0             @ ../GUILib/src/widgets/lv_label.c:477:17
	add.w	r0, r1, r10
	b	.LBB19_26
.Ltmp665:
	.p2align	2
.LBB19_22:                              @   in Loop: Header=BB19_19 Depth=1
	@DEBUG_VALUE: lv_label_get_letter_on:new_line_start <- $r11
	@DEBUG_VALUE: lv_label_get_letter_on:i_act <- $r6
	@DEBUG_VALUE: lv_label_get_letter_on:x <- $r5
	@DEBUG_VALUE: lv_label_get_letter_on:bidi_txt <- $r4
	@DEBUG_VALUE: letter_next <- [DW_OP_plus_uconst 44, DW_OP_deref] $sp
	@DEBUG_VALUE: letter <- [DW_OP_plus_uconst 48, DW_OP_deref] $sp
	@DEBUG_VALUE: lv_label_get_letter_on:font <- [DW_OP_plus_uconst 40] [$sp+0]
	@DEBUG_VALUE: lv_label_get_letter_on:flag <- [DW_OP_plus_uconst 36] [$sp+0]
	@DEBUG_VALUE: lv_label_get_letter_on:letter_space <- [DW_OP_plus_uconst 16, DW_OP_deref_size 4, DW_OP_LLVM_convert 32 7, DW_OP_LLVM_convert 16 7, DW_OP_stack_value] $sp
	@DEBUG_VALUE: lv_label_get_letter_on:obj <- [DW_OP_LLVM_entry_value 1] $r0
	@DEBUG_VALUE: lv_label_get_letter_on:pos_in <- [DW_OP_LLVM_entry_value 1] $r1
	.loc	12 491 59 is_stmt 1             @ ../GUILib/src/widgets/lv_label.c:491:59
	ldr	r1, [sp, #48]
.Ltmp666:
	@DEBUG_VALUE: letter <- $r1
	@DEBUG_VALUE: letter_next <- $r2
	.loc	12 491 29 is_stmt 0             @ ../GUILib/src/widgets/lv_label.c:491:29
	ldrd	r0, r2, [sp, #40]               @ 4-byte Reload
.Ltmp667:
	bl	lv_font_get_glyph_width
.Ltmp668:
	@DEBUG_VALUE: gw <- undef
	.loc	12 494 28 is_stmt 1             @ ../GUILib/src/widgets/lv_label.c:494:28
	sxth	r0, r0
	.loc	12 494 26 is_stmt 0             @ ../GUILib/src/widgets/lv_label.c:494:26
	sxtah	r2, r0, r5
	.loc	12 494 31                       @ ../GUILib/src/widgets/lv_label.c:494:31
	cmp	r2, r8
	bgt	.LBB19_27
.Ltmp669:
@ %bb.23:                               @   in Loop: Header=BB19_19 Depth=1
	@DEBUG_VALUE: lv_label_get_letter_on:new_line_start <- $r11
	@DEBUG_VALUE: lv_label_get_letter_on:i_act <- $r6
	@DEBUG_VALUE: lv_label_get_letter_on:x <- $r5
	@DEBUG_VALUE: lv_label_get_letter_on:bidi_txt <- $r4
	@DEBUG_VALUE: lv_label_get_letter_on:font <- [DW_OP_plus_uconst 40] [$sp+0]
	@DEBUG_VALUE: lv_label_get_letter_on:flag <- [DW_OP_plus_uconst 36] [$sp+0]
	@DEBUG_VALUE: lv_label_get_letter_on:letter_space <- [DW_OP_plus_uconst 16, DW_OP_deref_size 4, DW_OP_LLVM_convert 32 7, DW_OP_LLVM_convert 16 7, DW_OP_stack_value] $sp
	@DEBUG_VALUE: lv_label_get_letter_on:obj <- [DW_OP_LLVM_entry_value 1] $r0
	@DEBUG_VALUE: lv_label_get_letter_on:pos_in <- [DW_OP_LLVM_entry_value 1] $r1
	.loc	12 494 34                       @ ../GUILib/src/widgets/lv_label.c:494:34
	ldr	r1, [sp, #56]
.Ltmp670:
	@DEBUG_VALUE: lv_label_get_letter_on:i <- $r1
	.loc	12 494 36                       @ ../GUILib/src/widgets/lv_label.c:494:36
	add.w	r0, r1, r10
	.loc	12 494 67                       @ ../GUILib/src/widgets/lv_label.c:494:67
	cmp	r0, r11
	beq	.LBB19_27
.Ltmp671:
@ %bb.24:                               @   in Loop: Header=BB19_19 Depth=1
	@DEBUG_VALUE: lv_label_get_letter_on:new_line_start <- $r11
	@DEBUG_VALUE: lv_label_get_letter_on:i_act <- $r6
	@DEBUG_VALUE: lv_label_get_letter_on:x <- $r5
	@DEBUG_VALUE: lv_label_get_letter_on:bidi_txt <- $r4
	@DEBUG_VALUE: lv_label_get_letter_on:i <- $r1
	@DEBUG_VALUE: lv_label_get_letter_on:font <- [DW_OP_plus_uconst 40] [$sp+0]
	@DEBUG_VALUE: lv_label_get_letter_on:flag <- [DW_OP_plus_uconst 36] [$sp+0]
	@DEBUG_VALUE: lv_label_get_letter_on:letter_space <- [DW_OP_plus_uconst 16, DW_OP_deref_size 4, DW_OP_LLVM_convert 32 7, DW_OP_LLVM_convert 16 7, DW_OP_stack_value] $sp
	@DEBUG_VALUE: lv_label_get_letter_on:obj <- [DW_OP_LLVM_entry_value 1] $r0
	@DEBUG_VALUE: lv_label_get_letter_on:pos_in <- [DW_OP_LLVM_entry_value 1] $r1
	.loc	12 494 81                       @ ../GUILib/src/widgets/lv_label.c:494:81
	add.w	r3, r6, r10
	.loc	12 494 71                       @ ../GUILib/src/widgets/lv_label.c:494:71
	ldrb	r3, [r7, r3]
.Ltmp672:
	.loc	12 494 16                       @ ../GUILib/src/widgets/lv_label.c:494:16
	cbz	r3, .LBB19_27
.Ltmp673:
@ %bb.25:                               @   in Loop: Header=BB19_19 Depth=1
	@DEBUG_VALUE: lv_label_get_letter_on:new_line_start <- $r11
	@DEBUG_VALUE: lv_label_get_letter_on:i_act <- $r6
	@DEBUG_VALUE: lv_label_get_letter_on:x <- $r5
	@DEBUG_VALUE: lv_label_get_letter_on:bidi_txt <- $r4
	@DEBUG_VALUE: lv_label_get_letter_on:i <- $r1
	@DEBUG_VALUE: lv_label_get_letter_on:font <- [DW_OP_plus_uconst 40] [$sp+0]
	@DEBUG_VALUE: lv_label_get_letter_on:flag <- [DW_OP_plus_uconst 36] [$sp+0]
	@DEBUG_VALUE: lv_label_get_letter_on:letter_space <- [DW_OP_plus_uconst 16, DW_OP_deref_size 4, DW_OP_LLVM_convert 32 7, DW_OP_LLVM_convert 16 7, DW_OP_stack_value] $sp
	@DEBUG_VALUE: lv_label_get_letter_on:obj <- [DW_OP_LLVM_entry_value 1] $r0
	@DEBUG_VALUE: lv_label_get_letter_on:pos_in <- [DW_OP_LLVM_entry_value 1] $r1
	@DEBUG_VALUE: lv_label_get_letter_on:x <- [DW_OP_LLVM_convert 32 7, DW_OP_LLVM_convert 16 7, DW_OP_stack_value] $r2
	.loc	12 499 15 is_stmt 1             @ ../GUILib/src/widgets/lv_label.c:499:15
	ldr	r3, [sp, #16]                   @ 4-byte Reload
.Ltmp674:
	.loc	12 474 14                       @ ../GUILib/src/widgets/lv_label.c:474:14
	mov	r6, r1
.Ltmp675:
	.loc	12 499 15                       @ ../GUILib/src/widgets/lv_label.c:499:15
	adds	r5, r2, r3
.Ltmp676:
	@DEBUG_VALUE: lv_label_get_letter_on:i_act <- $r1
	@DEBUG_VALUE: lv_label_get_letter_on:x <- $r5
.LBB19_26:                              @   in Loop: Header=BB19_19 Depth=1
	@DEBUG_VALUE: lv_label_get_letter_on:new_line_start <- $r11
	@DEBUG_VALUE: lv_label_get_letter_on:x <- $r5
	@DEBUG_VALUE: lv_label_get_letter_on:bidi_txt <- $r4
	@DEBUG_VALUE: lv_label_get_letter_on:font <- [DW_OP_plus_uconst 40] [$sp+0]
	@DEBUG_VALUE: lv_label_get_letter_on:flag <- [DW_OP_plus_uconst 36] [$sp+0]
	@DEBUG_VALUE: lv_label_get_letter_on:letter_space <- [DW_OP_plus_uconst 16, DW_OP_deref_size 4, DW_OP_LLVM_convert 32 7, DW_OP_LLVM_convert 16 7, DW_OP_stack_value] $sp
	@DEBUG_VALUE: lv_label_get_letter_on:obj <- [DW_OP_LLVM_entry_value 1] $r0
	@DEBUG_VALUE: lv_label_get_letter_on:pos_in <- [DW_OP_LLVM_entry_value 1] $r1
	@DEBUG_VALUE: lv_label_get_letter_on:x <- $r5
	@DEBUG_VALUE: lv_label_get_letter_on:i <- $r1
	@DEBUG_VALUE: lv_label_get_letter_on:i_act <- $r6
	.loc	12 477 9                        @ ../GUILib/src/widgets/lv_label.c:477:9
	cmp	r0, r11
	blo	.LBB19_19
	b	.LBB19_28
.Ltmp677:
.LBB19_27:
	@DEBUG_VALUE: lv_label_get_letter_on:new_line_start <- $r11
	@DEBUG_VALUE: lv_label_get_letter_on:i_act <- $r6
	@DEBUG_VALUE: lv_label_get_letter_on:x <- $r5
	@DEBUG_VALUE: lv_label_get_letter_on:bidi_txt <- $r4
	@DEBUG_VALUE: lv_label_get_letter_on:font <- [DW_OP_plus_uconst 40] [$sp+0]
	@DEBUG_VALUE: lv_label_get_letter_on:flag <- [DW_OP_plus_uconst 36] [$sp+0]
	@DEBUG_VALUE: lv_label_get_letter_on:letter_space <- [DW_OP_plus_uconst 16, DW_OP_deref_size 4, DW_OP_LLVM_convert 32 7, DW_OP_LLVM_convert 16 7, DW_OP_stack_value] $sp
	@DEBUG_VALUE: lv_label_get_letter_on:obj <- [DW_OP_LLVM_entry_value 1] $r0
	@DEBUG_VALUE: lv_label_get_letter_on:pos_in <- [DW_OP_LLVM_entry_value 1] $r1
	@DEBUG_VALUE: lv_label_get_letter_on:i <- $r6
	.loc	12 495 19                       @ ../GUILib/src/widgets/lv_label.c:495:19
	str	r6, [sp, #56]
.Ltmp678:
	.loc	12 518 57                       @ ../GUILib/src/widgets/lv_label.c:518:57
	mov	r1, r6
.Ltmp679:
	@DEBUG_VALUE: lv_label_get_letter_on:i <- $r1
.LBB19_28:
	@DEBUG_VALUE: lv_label_get_letter_on:new_line_start <- $r11
	@DEBUG_VALUE: lv_label_get_letter_on:x <- $r5
	@DEBUG_VALUE: lv_label_get_letter_on:bidi_txt <- $r4
	@DEBUG_VALUE: lv_label_get_letter_on:font <- [DW_OP_plus_uconst 40] [$sp+0]
	@DEBUG_VALUE: lv_label_get_letter_on:flag <- [DW_OP_plus_uconst 36] [$sp+0]
	@DEBUG_VALUE: lv_label_get_letter_on:letter_space <- [DW_OP_plus_uconst 16, DW_OP_deref_size 4, DW_OP_LLVM_convert 32 7, DW_OP_LLVM_convert 16 7, DW_OP_stack_value] $sp
	@DEBUG_VALUE: lv_label_get_letter_on:obj <- [DW_OP_LLVM_entry_value 1] $r0
	@DEBUG_VALUE: lv_label_get_letter_on:pos_in <- [DW_OP_LLVM_entry_value 1] $r1
	.loc	12 518 19 is_stmt 0             @ ../GUILib/src/widgets/lv_label.c:518:19
	movw	r5, :lower16:_lv_txt_encoded_get_char_id
.Ltmp680:
	movt	r5, :upper16:_lv_txt_encoded_get_char_id
	ldr	r2, [r5]
.Ltmp681:
	@DEBUG_VALUE: lv_label_get_letter_on:i <- $r1
	mov	r0, r4
	blx	r2
.Ltmp682:
	.loc	12 521 27 is_stmt 1             @ ../GUILib/src/widgets/lv_label.c:521:27
	ldr	r2, [r5]
	.loc	12 518 19                       @ ../GUILib/src/widgets/lv_label.c:518:19
	mov	r4, r0
.Ltmp683:
	@DEBUG_VALUE: lv_label_get_letter_on:logical_pos <- $r4
	.loc	12 521 27                       @ ../GUILib/src/widgets/lv_label.c:521:27
	mov	r0, r7
	mov	r1, r10
	blx	r2
.Ltmp684:
	.loc	12 521 25 is_stmt 0             @ ../GUILib/src/widgets/lv_label.c:521:25
	add	r0, r4
	.loc	12 521 5                        @ ../GUILib/src/widgets/lv_label.c:521:5
	add	sp, #68
	pop.w	{r4, r5, r6, r7, r8, r9, r10, r11, pc}
.Ltmp685:
.Lfunc_end19:
	.size	lv_label_get_letter_on, .Lfunc_end19-lv_label_get_letter_on
	.cfi_endproc
	.cantunwind
	.fnend
                                        @ -- End function
	.section	.text.lv_label_is_char_under_pos,"ax",%progbits
	.hidden	lv_label_is_char_under_pos      @ -- Begin function lv_label_is_char_under_pos
	.globl	lv_label_is_char_under_pos
	.p2align	1
	.type	lv_label_is_char_under_pos,%function
	.code	16                              @ @lv_label_is_char_under_pos
	.thumb_func
lv_label_is_char_under_pos:
.Lfunc_begin20:
	.loc	12 525 0 is_stmt 1              @ ../GUILib/src/widgets/lv_label.c:525:0
	.fnstart
	.cfi_startproc
@ %bb.0:
	@DEBUG_VALUE: lv_label_is_char_under_pos:obj <- $r0
	@DEBUG_VALUE: lv_label_is_char_under_pos:pos <- $r1
	.save	{r4, r5, r6, r7, r8, r9, r10, r11, lr}
	push.w	{r4, r5, r6, r7, r8, r9, r10, r11, lr}
	.cfi_def_cfa_offset 36
	.cfi_offset lr, -4
	.cfi_offset r11, -8
	.cfi_offset r10, -12
	.cfi_offset r9, -16
	.cfi_offset r8, -20
	.cfi_offset r7, -24
	.cfi_offset r6, -28
	.cfi_offset r5, -32
	.cfi_offset r4, -36
	.pad	#60
	sub	sp, #60
	.cfi_def_cfa_offset 96
.Ltmp686:
	.loc	12 527 5 prologue_end           @ ../GUILib/src/widgets/lv_label.c:527:5
	cmp	r1, #0
	@DEBUG_VALUE: lv_label_is_char_under_pos:obj <- $r0
	str	r1, [sp, #28]                   @ 4-byte Spill
.Ltmp687:
	@DEBUG_VALUE: lv_label_is_char_under_pos:pos <- [DW_OP_plus_uconst 28] [$sp+0]
	@DEBUG_VALUE: lv_label_is_char_under_pos:pos <- [DW_OP_plus_uconst 28] [$sp+0]
	beq	.LBB20_7
.Ltmp688:
@ %bb.1:
	@DEBUG_VALUE: lv_label_is_char_under_pos:obj <- $r0
	@DEBUG_VALUE: lv_label_is_char_under_pos:pos <- [DW_OP_plus_uconst 28] [$sp+0]
	.loc	12 0 5 is_stmt 0                @ ../GUILib/src/widgets/lv_label.c:0:5
	add	r1, sp, #52
	mov	r7, r0
.Ltmp689:
	@DEBUG_VALUE: lv_label_is_char_under_pos:obj <- $r7
	.loc	12 530 5 is_stmt 1              @ ../GUILib/src/widgets/lv_label.c:530:5
	bl	lv_obj_get_content_coords
.Ltmp690:
	@DEBUG_VALUE: lv_label_get_text:label <- $r7
	@DEBUG_VALUE: lv_label_get_text:obj <- $r7
	.loc	12 268 19                       @ ../GUILib/src/widgets/lv_label.c:268:19
	ldr	r6, [r7, #36]
.Ltmp691:
	@DEBUG_VALUE: lv_area_get_width:area_p <- [DW_OP_plus_uconst 52, DW_OP_stack_value] $sp
	@DEBUG_VALUE: lv_label_is_char_under_pos:new_line_start <- 0
	@DEBUG_VALUE: lv_label_is_char_under_pos:line_start <- 0
	@DEBUG_VALUE: lv_label_is_char_under_pos:label <- $r7
	@DEBUG_VALUE: lv_label_is_char_under_pos:txt <- $r6
	.loc	6 125 33                        @ ../GUILib/src/hal/../misc/lv_area.h:125:33
	ldrh.w	r8, [sp, #56]
	.loc	6 125 46 is_stmt 0              @ ../GUILib/src/hal/../misc/lv_area.h:125:46
	ldrh.w	r9, [sp, #52]
.Ltmp692:
	@DEBUG_VALUE: lv_obj_get_style_text_font:part <- 0
	@DEBUG_VALUE: lv_obj_get_style_text_font:obj <- $r7
	@DEBUG_VALUE: lv_label_is_char_under_pos:max_w <- undef
	.loc	18 333 26 is_stmt 1             @ ../GUILib/src/widgets/../core/lv_obj_style_gen.h:333:26
	mov	r0, r7
	movs	r1, #0
	movw	r2, #5209
	bl	lv_obj_get_style_prop
.Ltmp693:
	mov	r5, r0
.Ltmp694:
	@DEBUG_VALUE: lv_obj_get_style_text_line_space:part <- 0
	@DEBUG_VALUE: lv_obj_get_style_text_line_space:obj <- $r7
	@DEBUG_VALUE: lv_label_is_char_under_pos:font <- $r5
	@DEBUG_VALUE: lv_obj_get_style_text_font:v <- $r5
	.loc	18 345 26                       @ ../GUILib/src/widgets/../core/lv_obj_style_gen.h:345:26
	mov	r0, r7
	movs	r1, #0
	movw	r2, #5211
	bl	lv_obj_get_style_prop
.Ltmp695:
	mov	r4, r0
.Ltmp696:
	@DEBUG_VALUE: lv_label_is_char_under_pos:line_space <- [DW_OP_LLVM_convert 32 7, DW_OP_LLVM_convert 16 7, DW_OP_stack_value] $r4
	@DEBUG_VALUE: lv_obj_get_style_text_line_space:v <- $r4
	@DEBUG_VALUE: lv_obj_get_style_text_letter_space:part <- 0
	@DEBUG_VALUE: lv_obj_get_style_text_letter_space:obj <- $r7
	.loc	18 339 26                       @ ../GUILib/src/widgets/../core/lv_obj_style_gen.h:339:26
	mov	r0, r7
	movs	r1, #0
	movw	r2, #5210
	bl	lv_obj_get_style_prop
.Ltmp697:
	.loc	17 120 20                       @ ../GUILib/src/widgets/../font/lv_font.h:120:20
	ldrsh.w	r1, [r5, #8]
.Ltmp698:
	@DEBUG_VALUE: lv_label_is_char_under_pos:letter_height <- undef
	.loc	12 540 89                       @ ../GUILib/src/widgets/lv_label.c:540:89
	ldr	r2, [r7, #36]
	str	r1, [sp, #20]                   @ 4-byte Spill
.Ltmp699:
	.loc	18 339 26                       @ ../GUILib/src/widgets/../core/lv_obj_style_gen.h:339:26
	str	r0, [sp, #12]                   @ 4-byte Spill
.Ltmp700:
	@DEBUG_VALUE: lv_label_is_char_under_pos:letter_space <- [DW_OP_plus_uconst 12, DW_OP_deref_size 4, DW_OP_LLVM_convert 32 7, DW_OP_LLVM_convert 16 7, DW_OP_stack_value] $sp
	@DEBUG_VALUE: lv_obj_get_style_text_letter_space:v <- [DW_OP_plus_uconst 12] [$sp+0]
	@DEBUG_VALUE: lv_obj_get_style_text_letter_space:part <- 0
	@DEBUG_VALUE: lv_obj_get_style_text_letter_space:obj <- $r7
	.loc	12 540 29                       @ ../GUILib/src/widgets/lv_label.c:540:29
	mov	r0, r7
	movs	r1, #0
	str	r5, [sp, #32]                   @ 4-byte Spill
.Ltmp701:
	@DEBUG_VALUE: lv_label_is_char_under_pos:font <- [DW_OP_plus_uconst 32] [$sp+0]
	@DEBUG_VALUE: lv_font_get_line_height:font_p <- [DW_OP_plus_uconst 32] [$sp+0]
	@DEBUG_VALUE: lv_label_is_char_under_pos:font <- [DW_OP_plus_uconst 32] [$sp+0]
	bl	lv_obj_calculate_style_text_align
.Ltmp702:
	.loc	12 545 15                       @ ../GUILib/src/widgets/lv_label.c:545:15
	ldrb.w	r1, [r7, #72]
.Ltmp703:
	@DEBUG_VALUE: lv_label_is_char_under_pos:flag <- [DW_OP_constu 1, DW_OP_and, DW_OP_stack_value] undef
	.loc	12 540 29                       @ ../GUILib/src/widgets/lv_label.c:540:29
	str	r0, [sp, #8]                    @ 4-byte Spill
.Ltmp704:
	@DEBUG_VALUE: lv_label_is_char_under_pos:y <- 0
	@DEBUG_VALUE: lv_label_is_char_under_pos:align <- undef
	@DEBUG_VALUE: lv_label_is_char_under_pos:flag <- 0
	.loc	12 546 8                        @ ../GUILib/src/widgets/lv_label.c:546:8
	ubfx	r0, r1, #4, #2
.Ltmp705:
	@DEBUG_VALUE: lv_label_is_char_under_pos:flag <- $r0
	.loc	18 3 26                         @ ../GUILib/src/widgets/../core/lv_obj_style_gen.h:3:26
	str	r0, [sp, #24]                   @ 4-byte Spill
.Ltmp706:
	@DEBUG_VALUE: lv_label_is_char_under_pos:flag <- [DW_OP_plus_uconst 24] [$sp+0]
	@DEBUG_VALUE: lv_obj_get_style_width:part <- 0
	@DEBUG_VALUE: lv_obj_get_style_width:obj <- $r7
	@DEBUG_VALUE: lv_label_is_char_under_pos:flag <- [DW_OP_plus_uconst 24] [$sp+0]
	mov	r0, r7
	movs	r1, #0
	movw	r2, #4097
	bl	lv_obj_get_style_prop
.Ltmp707:
	@DEBUG_VALUE: lv_obj_get_style_width:v <- $r0
	.loc	18 4 12                         @ ../GUILib/src/widgets/../core/lv_obj_style_gen.h:4:12
	uxth	r0, r0
.Ltmp708:
	.loc	18 0 12 is_stmt 0               @ ../GUILib/src/widgets/../core/lv_obj_style_gen.h:0:12
	movw	r1, #10193
.Ltmp709:
	.loc	12 547 69 is_stmt 1             @ ../GUILib/src/widgets/lv_label.c:547:69
	cmp	r0, r1
	bne	.LBB20_3
.Ltmp710:
@ %bb.2:
	@DEBUG_VALUE: lv_label_is_char_under_pos:label <- $r7
	@DEBUG_VALUE: lv_label_is_char_under_pos:obj <- $r7
	@DEBUG_VALUE: lv_label_is_char_under_pos:txt <- $r6
	@DEBUG_VALUE: lv_label_is_char_under_pos:line_space <- [DW_OP_LLVM_convert 32 7, DW_OP_LLVM_convert 16 7, DW_OP_stack_value] $r4
	@DEBUG_VALUE: lv_label_is_char_under_pos:flag <- [DW_OP_plus_uconst 24] [$sp+0]
	@DEBUG_VALUE: lv_label_is_char_under_pos:font <- [DW_OP_plus_uconst 32] [$sp+0]
	@DEBUG_VALUE: lv_label_is_char_under_pos:letter_space <- [DW_OP_plus_uconst 12, DW_OP_deref_size 4, DW_OP_LLVM_convert 32 7, DW_OP_LLVM_convert 16 7, DW_OP_stack_value] $sp
	@DEBUG_VALUE: lv_label_is_char_under_pos:pos <- [DW_OP_plus_uconst 28] [$sp+0]
	@DEBUG_VALUE: lv_label_is_char_under_pos:y <- 0
	@DEBUG_VALUE: lv_label_is_char_under_pos:line_start <- 0
	@DEBUG_VALUE: lv_label_is_char_under_pos:new_line_start <- 0
	.loc	12 547 78 is_stmt 0             @ ../GUILib/src/widgets/lv_label.c:547:78
	ldrh	r0, [r7, #34]
.Ltmp711:
	.loc	12 547 8                        @ ../GUILib/src/widgets/lv_label.c:547:8
	lsls	r0, r0, #21
	ldr	r0, [sp, #24]                   @ 4-byte Reload
	it	pl
	addpl	r0, #4
	str	r0, [sp, #24]                   @ 4-byte Spill
.Ltmp712:
.LBB20_3:
	@DEBUG_VALUE: lv_label_is_char_under_pos:label <- $r7
	@DEBUG_VALUE: lv_label_is_char_under_pos:obj <- $r7
	@DEBUG_VALUE: lv_label_is_char_under_pos:txt <- $r6
	@DEBUG_VALUE: lv_label_is_char_under_pos:line_space <- [DW_OP_LLVM_convert 32 7, DW_OP_LLVM_convert 16 7, DW_OP_stack_value] $r4
	@DEBUG_VALUE: lv_label_is_char_under_pos:flag <- [DW_OP_plus_uconst 24] [$sp+0]
	@DEBUG_VALUE: lv_label_is_char_under_pos:font <- [DW_OP_plus_uconst 32] [$sp+0]
	@DEBUG_VALUE: lv_label_is_char_under_pos:letter_space <- [DW_OP_plus_uconst 12, DW_OP_deref_size 4, DW_OP_LLVM_convert 32 7, DW_OP_LLVM_convert 16 7, DW_OP_stack_value] $sp
	@DEBUG_VALUE: lv_label_is_char_under_pos:pos <- [DW_OP_plus_uconst 28] [$sp+0]
	@DEBUG_VALUE: lv_label_is_char_under_pos:y <- 0
	@DEBUG_VALUE: lv_label_is_char_under_pos:line_start <- 0
	@DEBUG_VALUE: lv_label_is_char_under_pos:new_line_start <- 0
	@DEBUG_VALUE: lv_label_is_char_under_pos:line_start <- 0
	@DEBUG_VALUE: lv_label_is_char_under_pos:new_line_start <- 0
	@DEBUG_VALUE: lv_label_is_char_under_pos:max_w <- undef
	@DEBUG_VALUE: lv_label_is_char_under_pos:flag <- [DW_OP_plus_uconst 24] [$sp+0]
	@DEBUG_VALUE: lv_label_is_char_under_pos:y <- undef
	.loc	12 550 11 is_stmt 1             @ ../GUILib/src/widgets/lv_label.c:550:11
	ldrb	r0, [r6]
	.loc	12 550 5 is_stmt 0              @ ../GUILib/src/widgets/lv_label.c:550:5
	cbz	r0, .LBB20_8
.Ltmp713:
@ %bb.4:
	@DEBUG_VALUE: lv_label_is_char_under_pos:label <- $r7
	@DEBUG_VALUE: lv_label_is_char_under_pos:obj <- $r7
	@DEBUG_VALUE: lv_label_is_char_under_pos:txt <- $r6
	@DEBUG_VALUE: lv_label_is_char_under_pos:line_space <- [DW_OP_LLVM_convert 32 7, DW_OP_LLVM_convert 16 7, DW_OP_stack_value] $r4
	@DEBUG_VALUE: lv_label_is_char_under_pos:flag <- [DW_OP_plus_uconst 24] [$sp+0]
	@DEBUG_VALUE: lv_label_is_char_under_pos:font <- [DW_OP_plus_uconst 32] [$sp+0]
	@DEBUG_VALUE: lv_label_is_char_under_pos:letter_space <- [DW_OP_plus_uconst 12, DW_OP_deref_size 4, DW_OP_LLVM_convert 32 7, DW_OP_LLVM_convert 16 7, DW_OP_stack_value] $sp
	@DEBUG_VALUE: lv_label_is_char_under_pos:pos <- [DW_OP_plus_uconst 28] [$sp+0]
	@DEBUG_VALUE: lv_label_is_char_under_pos:line_start <- 0
	@DEBUG_VALUE: lv_label_is_char_under_pos:new_line_start <- 0
	.loc	12 0 5                          @ ../GUILib/src/widgets/lv_label.c:0:5
	sxth	r1, r4
	sub.w	r0, r8, r9
	str	r1, [sp, #16]                   @ 4-byte Spill
	ldr	r1, [sp, #12]                   @ 4-byte Reload
	adds	r0, #1
.Ltmp714:
	@DEBUG_VALUE: lv_label_is_char_under_pos:max_w <- $r0
	mov.w	r10, #0
	sxth	r5, r1
	sxth	r7, r0
.Ltmp715:
	@DEBUG_VALUE: lv_label_is_char_under_pos:obj <- [DW_OP_LLVM_entry_value 1] $r0
	mov	r4, r6
.Ltmp716:
	mov.w	r11, #0
.Ltmp717:
	.p2align	2
.LBB20_5:                               @ =>This Inner Loop Header: Depth=1
	@DEBUG_VALUE: lv_label_is_char_under_pos:flag <- [DW_OP_plus_uconst 24] [$sp+0]
	@DEBUG_VALUE: lv_label_is_char_under_pos:font <- [DW_OP_plus_uconst 32] [$sp+0]
	@DEBUG_VALUE: lv_label_is_char_under_pos:letter_space <- [DW_OP_plus_uconst 12, DW_OP_deref_size 4, DW_OP_LLVM_convert 32 7, DW_OP_LLVM_convert 16 7, DW_OP_stack_value] $sp
	@DEBUG_VALUE: lv_label_is_char_under_pos:pos <- [DW_OP_plus_uconst 28] [$sp+0]
	@DEBUG_VALUE: lv_label_is_char_under_pos:obj <- [DW_OP_LLVM_entry_value 1] $r0
	@DEBUG_VALUE: lv_label_is_char_under_pos:line_start <- $r10
	mov	r9, r6
.Ltmp718:
	@DEBUG_VALUE: lv_label_is_char_under_pos:txt <- $r9
	.loc	12 551 27 is_stmt 1             @ ../GUILib/src/widgets/lv_label.c:551:27
	ldr	r1, [sp, #32]                   @ 4-byte Reload
	ldr	r6, [sp, #24]                   @ 4-byte Reload
	mov	r0, r4
	mov	r2, r5
	mov	r3, r7
	str	r6, [sp]
	bl	_lv_txt_get_next_line
.Ltmp719:
	.loc	12 553 17                       @ ../GUILib/src/widgets/lv_label.c:553:17
	ldr	r1, [sp, #28]                   @ 4-byte Reload
.Ltmp720:
	.loc	12 551 24                       @ ../GUILib/src/widgets/lv_label.c:551:24
	add.w	r8, r0, r10
.Ltmp721:
	@DEBUG_VALUE: lv_label_is_char_under_pos:new_line_start <- $r8
	.loc	12 553 17                       @ ../GUILib/src/widgets/lv_label.c:553:17
	ldrsh.w	r2, [r1, #2]
	.loc	12 553 24 is_stmt 0             @ ../GUILib/src/widgets/lv_label.c:553:24
	ldr	r1, [sp, #20]                   @ 4-byte Reload
	sxtah	r1, r1, r11
.Ltmp722:
	.loc	12 553 12                       @ ../GUILib/src/widgets/lv_label.c:553:12
	cmp	r1, r2
	bge	.LBB20_9
.Ltmp723:
@ %bb.6:                                @   in Loop: Header=BB20_5 Depth=1
	@DEBUG_VALUE: lv_label_is_char_under_pos:line_start <- $r10
	@DEBUG_VALUE: lv_label_is_char_under_pos:new_line_start <- $r8
	@DEBUG_VALUE: lv_label_is_char_under_pos:flag <- [DW_OP_plus_uconst 24] [$sp+0]
	@DEBUG_VALUE: lv_label_is_char_under_pos:font <- [DW_OP_plus_uconst 32] [$sp+0]
	@DEBUG_VALUE: lv_label_is_char_under_pos:letter_space <- [DW_OP_plus_uconst 12, DW_OP_deref_size 4, DW_OP_LLVM_convert 32 7, DW_OP_LLVM_convert 16 7, DW_OP_stack_value] $sp
	@DEBUG_VALUE: lv_label_is_char_under_pos:pos <- [DW_OP_plus_uconst 28] [$sp+0]
	@DEBUG_VALUE: lv_label_is_char_under_pos:obj <- [DW_OP_LLVM_entry_value 1] $r0
	.loc	12 554 11 is_stmt 1             @ ../GUILib/src/widgets/lv_label.c:554:11
	ldr	r0, [sp, #16]                   @ 4-byte Reload
	mov	r6, r9
	add.w	r11, r1, r0
.Ltmp724:
	@DEBUG_VALUE: lv_label_is_char_under_pos:y <- undef
	@DEBUG_VALUE: lv_label_is_char_under_pos:new_line_start <- $r8
	@DEBUG_VALUE: lv_label_is_char_under_pos:line_start <- $r8
	.loc	12 550 11                       @ ../GUILib/src/widgets/lv_label.c:550:11
	ldrb.w	r0, [r9, r8]
	add.w	r4, r9, r8
	.loc	12 550 5 is_stmt 0              @ ../GUILib/src/widgets/lv_label.c:550:5
	cmp	r0, #0
	mov	r10, r8
	bne	.LBB20_5
	b	.LBB20_10
.Ltmp725:
	.p2align	2
.LBB20_7:                               @ =>This Inner Loop Header: Depth=1
	@DEBUG_VALUE: lv_label_is_char_under_pos:obj <- $r0
	@DEBUG_VALUE: lv_label_is_char_under_pos:pos <- [DW_OP_plus_uconst 28] [$sp+0]
	.loc	12 527 5 is_stmt 1              @ ../GUILib/src/widgets/lv_label.c:527:5
	b	.LBB20_7
.Ltmp726:
.LBB20_8:
	@DEBUG_VALUE: lv_label_is_char_under_pos:label <- $r7
	@DEBUG_VALUE: lv_label_is_char_under_pos:obj <- $r7
	@DEBUG_VALUE: lv_label_is_char_under_pos:txt <- $r6
	@DEBUG_VALUE: lv_label_is_char_under_pos:line_space <- [DW_OP_LLVM_convert 32 7, DW_OP_LLVM_convert 16 7, DW_OP_stack_value] $r4
	@DEBUG_VALUE: lv_label_is_char_under_pos:flag <- [DW_OP_plus_uconst 24] [$sp+0]
	@DEBUG_VALUE: lv_label_is_char_under_pos:font <- [DW_OP_plus_uconst 32] [$sp+0]
	@DEBUG_VALUE: lv_label_is_char_under_pos:letter_space <- [DW_OP_plus_uconst 12, DW_OP_deref_size 4, DW_OP_LLVM_convert 32 7, DW_OP_LLVM_convert 16 7, DW_OP_stack_value] $sp
	@DEBUG_VALUE: lv_label_is_char_under_pos:pos <- [DW_OP_plus_uconst 28] [$sp+0]
	@DEBUG_VALUE: lv_label_is_char_under_pos:line_start <- 0
	@DEBUG_VALUE: lv_label_is_char_under_pos:new_line_start <- 0
	.loc	12 0 5 is_stmt 0                @ ../GUILib/src/widgets/lv_label.c:0:5
	mov.w	r10, #0
	.loc	12 550 11 is_stmt 1             @ ../GUILib/src/widgets/lv_label.c:550:11
	mov	r4, r6
.Ltmp727:
	.loc	12 0 0 is_stmt 0                @ ../GUILib/src/widgets/lv_label.c:0:0
	mov.w	r8, #0
	b	.LBB20_10
.Ltmp728:
.LBB20_9:
	@DEBUG_VALUE: lv_label_is_char_under_pos:line_start <- $r10
	@DEBUG_VALUE: lv_label_is_char_under_pos:new_line_start <- $r8
	@DEBUG_VALUE: lv_label_is_char_under_pos:flag <- [DW_OP_plus_uconst 24] [$sp+0]
	@DEBUG_VALUE: lv_label_is_char_under_pos:font <- [DW_OP_plus_uconst 32] [$sp+0]
	@DEBUG_VALUE: lv_label_is_char_under_pos:letter_space <- [DW_OP_plus_uconst 12, DW_OP_deref_size 4, DW_OP_LLVM_convert 32 7, DW_OP_LLVM_convert 16 7, DW_OP_stack_value] $sp
	@DEBUG_VALUE: lv_label_is_char_under_pos:pos <- [DW_OP_plus_uconst 28] [$sp+0]
	@DEBUG_VALUE: lv_label_is_char_under_pos:obj <- [DW_OP_LLVM_entry_value 1] $r0
	mov	r6, r9
.Ltmp729:
	@DEBUG_VALUE: lv_label_is_char_under_pos:txt <- $r6
.LBB20_10:
	@DEBUG_VALUE: lv_label_is_char_under_pos:flag <- [DW_OP_plus_uconst 24] [$sp+0]
	@DEBUG_VALUE: lv_label_is_char_under_pos:font <- [DW_OP_plus_uconst 32] [$sp+0]
	@DEBUG_VALUE: lv_label_is_char_under_pos:letter_space <- [DW_OP_plus_uconst 12, DW_OP_deref_size 4, DW_OP_LLVM_convert 32 7, DW_OP_LLVM_convert 16 7, DW_OP_stack_value] $sp
	@DEBUG_VALUE: lv_label_is_char_under_pos:pos <- [DW_OP_plus_uconst 28] [$sp+0]
	@DEBUG_VALUE: lv_label_is_char_under_pos:new_line_start <- $r8
	@DEBUG_VALUE: lv_label_is_char_under_pos:x <- 0
	@DEBUG_VALUE: lv_label_is_char_under_pos:last_x <- 0
	ldr	r0, [sp, #8]                    @ 4-byte Reload
	.loc	12 562 8 is_stmt 1              @ ../GUILib/src/widgets/lv_label.c:562:8
	cmp	r0, #3
	beq	.LBB20_13
.Ltmp730:
@ %bb.11:
	@DEBUG_VALUE: lv_label_is_char_under_pos:new_line_start <- $r8
	@DEBUG_VALUE: lv_label_is_char_under_pos:flag <- [DW_OP_plus_uconst 24] [$sp+0]
	@DEBUG_VALUE: lv_label_is_char_under_pos:font <- [DW_OP_plus_uconst 32] [$sp+0]
	@DEBUG_VALUE: lv_label_is_char_under_pos:letter_space <- [DW_OP_plus_uconst 12, DW_OP_deref_size 4, DW_OP_LLVM_convert 32 7, DW_OP_LLVM_convert 16 7, DW_OP_stack_value] $sp
	@DEBUG_VALUE: lv_label_is_char_under_pos:pos <- [DW_OP_plus_uconst 28] [$sp+0]
	@DEBUG_VALUE: lv_label_is_char_under_pos:last_x <- 0
	@DEBUG_VALUE: lv_label_is_char_under_pos:x <- 0
	cmp	r0, #2
	bne	.LBB20_14
.Ltmp731:
@ %bb.12:
	@DEBUG_VALUE: lv_label_is_char_under_pos:new_line_start <- $r8
	@DEBUG_VALUE: lv_label_is_char_under_pos:flag <- [DW_OP_plus_uconst 24] [$sp+0]
	@DEBUG_VALUE: lv_label_is_char_under_pos:font <- [DW_OP_plus_uconst 32] [$sp+0]
	@DEBUG_VALUE: lv_label_is_char_under_pos:letter_space <- [DW_OP_plus_uconst 12, DW_OP_deref_size 4, DW_OP_LLVM_convert 32 7, DW_OP_LLVM_convert 16 7, DW_OP_stack_value] $sp
	@DEBUG_VALUE: lv_label_is_char_under_pos:pos <- [DW_OP_plus_uconst 28] [$sp+0]
	@DEBUG_VALUE: lv_label_is_char_under_pos:last_x <- 0
	@DEBUG_VALUE: lv_label_is_char_under_pos:x <- 0
	.loc	12 564 18                       @ ../GUILib/src/widgets/lv_label.c:564:18
	ldr	r0, [sp, #12]                   @ 4-byte Reload
	ldr	r2, [sp, #32]                   @ 4-byte Reload
	ldr	r7, [sp, #24]                   @ 4-byte Reload
	.loc	12 564 68 is_stmt 0             @ ../GUILib/src/widgets/lv_label.c:564:68
	sub.w	r1, r8, r10
	.loc	12 564 18                       @ ../GUILib/src/widgets/lv_label.c:564:18
	sxth	r3, r0
	mov	r0, r4
	str	r7, [sp]
	bl	lv_txt_get_width
.Ltmp732:
	@DEBUG_VALUE: line_w <- $r0
	.loc	6 125 33 is_stmt 1              @ ../GUILib/src/hal/../misc/lv_area.h:125:33
	ldrh.w	r1, [sp, #56]
	.loc	6 125 46 is_stmt 0              @ ../GUILib/src/hal/../misc/lv_area.h:125:46
	ldrh.w	r2, [sp, #52]
.Ltmp733:
	.loc	12 564 18 is_stmt 1             @ ../GUILib/src/widgets/lv_label.c:564:18
	uxth	r3, r0
.Ltmp734:
	@DEBUG_VALUE: lv_area_get_width:area_p <- [DW_OP_plus_uconst 52, DW_OP_stack_value] $sp
	.loc	6 125 49                        @ ../GUILib/src/hal/../misc/lv_area.h:125:49
	subs	r1, r1, r2
	adds	r1, #1
	uxth	r2, r1
.Ltmp735:
	.loc	12 565 45                       @ ../GUILib/src/widgets/lv_label.c:565:45
	add.w	r1, r1, r2, lsr #15
	sxth	r1, r1
	.loc	12 565 58 is_stmt 0             @ ../GUILib/src/widgets/lv_label.c:565:58
	add.w	r0, r0, r3, lsr #15
.Ltmp736:
	.loc	12 565 45                       @ ../GUILib/src/widgets/lv_label.c:565:45
	asrs	r1, r1, #1
	.loc	12 565 58                       @ ../GUILib/src/widgets/lv_label.c:565:58
	sxth	r0, r0
	.loc	12 565 49                       @ ../GUILib/src/widgets/lv_label.c:565:49
	sub.w	r0, r1, r0, asr #1
.Ltmp737:
	@DEBUG_VALUE: lv_label_is_char_under_pos:x <- $r0
	.loc	12 0 49                         @ ../GUILib/src/widgets/lv_label.c:0:49
	b	.LBB20_15
.Ltmp738:
.LBB20_13:
	@DEBUG_VALUE: lv_label_is_char_under_pos:new_line_start <- $r8
	@DEBUG_VALUE: lv_label_is_char_under_pos:flag <- [DW_OP_plus_uconst 24] [$sp+0]
	@DEBUG_VALUE: lv_label_is_char_under_pos:font <- [DW_OP_plus_uconst 32] [$sp+0]
	@DEBUG_VALUE: lv_label_is_char_under_pos:letter_space <- [DW_OP_plus_uconst 12, DW_OP_deref_size 4, DW_OP_LLVM_convert 32 7, DW_OP_LLVM_convert 16 7, DW_OP_stack_value] $sp
	@DEBUG_VALUE: lv_label_is_char_under_pos:pos <- [DW_OP_plus_uconst 28] [$sp+0]
	@DEBUG_VALUE: lv_label_is_char_under_pos:last_x <- 0
	@DEBUG_VALUE: lv_label_is_char_under_pos:x <- 0
	.loc	12 569 18 is_stmt 1             @ ../GUILib/src/widgets/lv_label.c:569:18
	ldr	r0, [sp, #12]                   @ 4-byte Reload
	ldr	r2, [sp, #32]                   @ 4-byte Reload
	ldr	r7, [sp, #24]                   @ 4-byte Reload
	.loc	12 569 68 is_stmt 0             @ ../GUILib/src/widgets/lv_label.c:569:68
	sub.w	r1, r8, r10
	.loc	12 569 18                       @ ../GUILib/src/widgets/lv_label.c:569:18
	sxth	r3, r0
	mov	r0, r4
	str	r7, [sp]
	bl	lv_txt_get_width
.Ltmp739:
	@DEBUG_VALUE: lv_area_get_width:area_p <- [DW_OP_plus_uconst 52, DW_OP_stack_value] $sp
	@DEBUG_VALUE: line_w <- $r0
	.loc	6 125 46 is_stmt 1              @ ../GUILib/src/hal/../misc/lv_area.h:125:46
	ldrh.w	r1, [sp, #52]
	.loc	6 125 33 is_stmt 0              @ ../GUILib/src/hal/../misc/lv_area.h:125:33
	ldrh.w	r2, [sp, #56]
.Ltmp740:
	.loc	12 570 45 is_stmt 1             @ ../GUILib/src/widgets/lv_label.c:570:45
	add	r0, r1
.Ltmp741:
	subs	r0, r2, r0
	adds	r0, #1
.Ltmp742:
	@DEBUG_VALUE: lv_label_is_char_under_pos:x <- $r0
	.loc	12 0 45 is_stmt 0               @ ../GUILib/src/widgets/lv_label.c:0:45
	b	.LBB20_15
.Ltmp743:
.LBB20_14:
	@DEBUG_VALUE: lv_label_is_char_under_pos:new_line_start <- $r8
	@DEBUG_VALUE: lv_label_is_char_under_pos:flag <- [DW_OP_plus_uconst 24] [$sp+0]
	@DEBUG_VALUE: lv_label_is_char_under_pos:font <- [DW_OP_plus_uconst 32] [$sp+0]
	@DEBUG_VALUE: lv_label_is_char_under_pos:letter_space <- [DW_OP_plus_uconst 12, DW_OP_deref_size 4, DW_OP_LLVM_convert 32 7, DW_OP_LLVM_convert 16 7, DW_OP_stack_value] $sp
	@DEBUG_VALUE: lv_label_is_char_under_pos:pos <- [DW_OP_plus_uconst 28] [$sp+0]
	@DEBUG_VALUE: lv_label_is_char_under_pos:last_x <- 0
	@DEBUG_VALUE: lv_label_is_char_under_pos:x <- 0
	movs	r0, #0
.Ltmp744:
.LBB20_15:
	@DEBUG_VALUE: lv_label_is_char_under_pos:new_line_start <- $r8
	@DEBUG_VALUE: lv_label_is_char_under_pos:flag <- [DW_OP_plus_uconst 24] [$sp+0]
	@DEBUG_VALUE: lv_label_is_char_under_pos:font <- [DW_OP_plus_uconst 32] [$sp+0]
	@DEBUG_VALUE: lv_label_is_char_under_pos:letter_space <- [DW_OP_plus_uconst 12, DW_OP_deref_size 4, DW_OP_LLVM_convert 32 7, DW_OP_LLVM_convert 16 7, DW_OP_stack_value] $sp
	@DEBUG_VALUE: lv_label_is_char_under_pos:pos <- [DW_OP_plus_uconst 28] [$sp+0]
	@DEBUG_VALUE: lv_label_is_char_under_pos:last_x <- 0
	@DEBUG_VALUE: lv_label_is_char_under_pos:x <- $r0
	mov.w	r11, #0
.Ltmp745:
	@DEBUG_VALUE: lv_label_is_char_under_pos:cmd_state <- 0
	.loc	12 580 8 is_stmt 1              @ ../GUILib/src/widgets/lv_label.c:580:8
	cmp.w	r8, #0
	.loc	12 573 25                       @ ../GUILib/src/widgets/lv_label.c:573:25
	strb.w	r11, [sp, #51]
.Ltmp746:
	@DEBUG_VALUE: lv_label_is_char_under_pos:i <- $r10
	@DEBUG_VALUE: lv_label_is_char_under_pos:letter <- 0
	@DEBUG_VALUE: lv_label_is_char_under_pos:i_current <- $r10
	.loc	12 577 14                       @ ../GUILib/src/widgets/lv_label.c:577:14
	strd	r11, r10, [sp, #40]
.Ltmp747:
	@DEBUG_VALUE: lv_label_is_char_under_pos:letter_next <- 0
	.loc	12 578 14                       @ ../GUILib/src/widgets/lv_label.c:578:14
	str.w	r11, [sp, #36]
	.loc	12 580 8                        @ ../GUILib/src/widgets/lv_label.c:580:8
	beq	.LBB20_26
.Ltmp748:
@ %bb.16:
	@DEBUG_VALUE: lv_label_is_char_under_pos:i_current <- $r10
	@DEBUG_VALUE: lv_label_is_char_under_pos:i <- $r10
	@DEBUG_VALUE: lv_label_is_char_under_pos:new_line_start <- $r8
	@DEBUG_VALUE: lv_label_is_char_under_pos:x <- $r0
	@DEBUG_VALUE: lv_label_is_char_under_pos:flag <- [DW_OP_plus_uconst 24] [$sp+0]
	@DEBUG_VALUE: lv_label_is_char_under_pos:font <- [DW_OP_plus_uconst 32] [$sp+0]
	@DEBUG_VALUE: lv_label_is_char_under_pos:letter_space <- [DW_OP_plus_uconst 12, DW_OP_deref_size 4, DW_OP_LLVM_convert 32 7, DW_OP_LLVM_convert 16 7, DW_OP_stack_value] $sp
	@DEBUG_VALUE: lv_label_is_char_under_pos:pos <- [DW_OP_plus_uconst 28] [$sp+0]
	@DEBUG_VALUE: lv_label_is_char_under_pos:letter_next <- 0
	@DEBUG_VALUE: lv_label_is_char_under_pos:letter <- 0
	@DEBUG_VALUE: lv_label_is_char_under_pos:cmd_state <- 0
	@DEBUG_VALUE: lv_label_is_char_under_pos:last_x <- 0
	.loc	12 0 8 is_stmt 0                @ ../GUILib/src/widgets/lv_label.c:0:8
	sub.w	r7, r8, #1
	@DEBUG_VALUE: lv_label_is_char_under_pos:i_current <- $r10
	@DEBUG_VALUE: lv_label_is_char_under_pos:i <- $r10
	@DEBUG_VALUE: lv_label_is_char_under_pos:last_x <- 0
	@DEBUG_VALUE: lv_label_is_char_under_pos:x <- $r0
.Ltmp749:
	.loc	12 581 9 is_stmt 1              @ ../GUILib/src/widgets/lv_label.c:581:9
	cmp	r10, r7
	bls	.LBB20_18
.Ltmp750:
@ %bb.17:
	@DEBUG_VALUE: lv_label_is_char_under_pos:i_current <- $r10
	@DEBUG_VALUE: lv_label_is_char_under_pos:i <- $r10
	@DEBUG_VALUE: lv_label_is_char_under_pos:new_line_start <- $r8
	@DEBUG_VALUE: lv_label_is_char_under_pos:x <- $r0
	@DEBUG_VALUE: lv_label_is_char_under_pos:flag <- [DW_OP_plus_uconst 24] [$sp+0]
	@DEBUG_VALUE: lv_label_is_char_under_pos:font <- [DW_OP_plus_uconst 32] [$sp+0]
	@DEBUG_VALUE: lv_label_is_char_under_pos:letter_space <- [DW_OP_plus_uconst 12, DW_OP_deref_size 4, DW_OP_LLVM_convert 32 7, DW_OP_LLVM_convert 16 7, DW_OP_stack_value] $sp
	@DEBUG_VALUE: lv_label_is_char_under_pos:pos <- [DW_OP_plus_uconst 28] [$sp+0]
	@DEBUG_VALUE: lv_label_is_char_under_pos:letter_next <- 0
	@DEBUG_VALUE: lv_label_is_char_under_pos:letter <- 0
	@DEBUG_VALUE: lv_label_is_char_under_pos:cmd_state <- 0
	@DEBUG_VALUE: lv_label_is_char_under_pos:last_x <- 0
	.loc	12 0 9 is_stmt 0                @ ../GUILib/src/widgets/lv_label.c:0:9
	mov.w	r11, #0
	b	.LBB20_26
.Ltmp751:
.LBB20_18:
	@DEBUG_VALUE: lv_label_is_char_under_pos:i_current <- $r10
	@DEBUG_VALUE: lv_label_is_char_under_pos:i <- $r10
	@DEBUG_VALUE: lv_label_is_char_under_pos:new_line_start <- $r8
	@DEBUG_VALUE: lv_label_is_char_under_pos:x <- $r0
	@DEBUG_VALUE: lv_label_is_char_under_pos:flag <- [DW_OP_plus_uconst 24] [$sp+0]
	@DEBUG_VALUE: lv_label_is_char_under_pos:font <- [DW_OP_plus_uconst 32] [$sp+0]
	@DEBUG_VALUE: lv_label_is_char_under_pos:letter_space <- [DW_OP_plus_uconst 12, DW_OP_deref_size 4, DW_OP_LLVM_convert 32 7, DW_OP_LLVM_convert 16 7, DW_OP_stack_value] $sp
	@DEBUG_VALUE: lv_label_is_char_under_pos:pos <- [DW_OP_plus_uconst 28] [$sp+0]
	@DEBUG_VALUE: lv_label_is_char_under_pos:letter_next <- 0
	@DEBUG_VALUE: lv_label_is_char_under_pos:letter <- 0
	@DEBUG_VALUE: lv_label_is_char_under_pos:cmd_state <- 0
	@DEBUG_VALUE: lv_label_is_char_under_pos:last_x <- 0
	ldr	r1, [sp, #24]                   @ 4-byte Reload
	add	r4, sp, #36
	and	r9, r1, #1
	movs	r1, #0
	add	r5, sp, #44
	add.w	r8, sp, #51
.Ltmp752:
.LBB20_19:                              @ =>This Loop Header: Depth=1
                                        @     Child Loop BB20_20 Depth 2
	@DEBUG_VALUE: lv_label_is_char_under_pos:i_current <- $r10
	@DEBUG_VALUE: lv_label_is_char_under_pos:i <- $r10
	@DEBUG_VALUE: lv_label_is_char_under_pos:x <- $r0
	@DEBUG_VALUE: lv_label_is_char_under_pos:flag <- [DW_OP_plus_uconst 24] [$sp+0]
	@DEBUG_VALUE: lv_label_is_char_under_pos:font <- [DW_OP_plus_uconst 32] [$sp+0]
	@DEBUG_VALUE: lv_label_is_char_under_pos:letter_space <- [DW_OP_plus_uconst 12, DW_OP_deref_size 4, DW_OP_LLVM_convert 32 7, DW_OP_LLVM_convert 16 7, DW_OP_stack_value] $sp
	@DEBUG_VALUE: lv_label_is_char_under_pos:pos <- [DW_OP_plus_uconst 28] [$sp+0]
	mov	r11, r0
.Ltmp753:
	@DEBUG_VALUE: lv_label_is_char_under_pos:x <- $r11
	@DEBUG_VALUE: lv_label_is_char_under_pos:x <- $r11
	@DEBUG_VALUE: lv_label_is_char_under_pos:i_current <- $r10
	@DEBUG_VALUE: lv_label_is_char_under_pos:last_x <- [DW_OP_plus_uconst 24] [$sp+0]
	@DEBUG_VALUE: lv_label_is_char_under_pos:x <- $r11
	str	r1, [sp, #24]                   @ 4-byte Spill
.Ltmp754:
	.p2align	2
.LBB20_20:                              @   Parent Loop BB20_19 Depth=1
                                        @ =>  This Inner Loop Header: Depth=2
	@DEBUG_VALUE: lv_label_is_char_under_pos:x <- $r11
	@DEBUG_VALUE: lv_label_is_char_under_pos:i_current <- $r10
	@DEBUG_VALUE: lv_label_is_char_under_pos:last_x <- [DW_OP_plus_uconst 24] [$sp+0]
	@DEBUG_VALUE: lv_label_is_char_under_pos:flag <- [DW_OP_plus_uconst 24] [$sp+0]
	@DEBUG_VALUE: lv_label_is_char_under_pos:font <- [DW_OP_plus_uconst 32] [$sp+0]
