	.text
	.syntax unified
	.eabi_attribute	67, "2.09"	@ Tag_conformance
	.cpu	cortex-m4
	.eabi_attribute	6, 13	@ Tag_CPU_arch
	.eabi_attribute	7, 77	@ Tag_CPU_arch_profile
	.eabi_attribute	8, 0	@ Tag_ARM_ISA_use
	.eabi_attribute	9, 2	@ Tag_THUMB_ISA_use
	.fpu	fpv4-sp-d16
	.eabi_attribute	27, 1	@ Tag_ABI_HardFP_use
	.eabi_attribute	36, 1	@ Tag_FP_HP_extension
	.eabi_attribute	34, 1	@ Tag_CPU_unaligned_access
	.eabi_attribute	17, 1	@ Tag_ABI_PCS_GOT_use
	.eabi_attribute	20, 2	@ Tag_ABI_FP_denormal
	.eabi_attribute	21, 0	@ Tag_ABI_FP_exceptions
	.eabi_attribute	23, 1	@ Tag_ABI_FP_number_model
	.eabi_attribute	24, 1	@ Tag_ABI_align_needed
	.eabi_attribute	25, 1	@ Tag_ABI_align_preserved
	.eabi_attribute	28, 1	@ Tag_ABI_VFP_args
	.eabi_attribute	38, 1	@ Tag_ABI_FP_16bit_format
	.eabi_attribute	18, 2	@ Tag_ABI_PCS_wchar_t
	.eabi_attribute	26, 1	@ Tag_ABI_enum_size
	.eabi_attribute	14, 0	@ Tag_ABI_PCS_R9_use
	.file	"lv_ll.c"
	.file	1 "D:\\Keil MDK\\ARM\\ARMCLANG\\Bin\\..\\include" "stdint.h"
	.file	2 "C:\\Users\\Hyacincher\\Desktop\\HyTelectrl\\Code\\Project" "../GUILib/src/misc/lv_ll.h"
	.section	.text._lv_ll_init,"ax",%progbits
	.hidden	_lv_ll_init                     @ -- Begin function _lv_ll_init
	.globl	_lv_ll_init
	.p2align	1
	.type	_lv_ll_init,%function
	.code	16                              @ @_lv_ll_init
	.thumb_func
_lv_ll_init:
.Lfunc_begin0:
	.file	3 "C:\\Users\\Hyacincher\\Desktop\\HyTelectrl\\Code\\Project" "../GUILib/src/misc/lv_ll.c"
	.loc	3 48 0                          @ ../GUILib/src/misc/lv_ll.c:48:0
	.fnstart
	.cfi_sections .debug_frame
	.cfi_startproc
@ %bb.0:
	@DEBUG_VALUE: _lv_ll_init:ll_p <- $r0
	@DEBUG_VALUE: _lv_ll_init:node_size <- $r1
	.loc	3 56 28 prologue_end            @ ../GUILib/src/misc/lv_ll.c:56:28
	adds	r1, #3
.Ltmp0:
	@DEBUG_VALUE: _lv_ll_init:node_size <- [DW_OP_LLVM_entry_value 1] $r1
	.loc	3 0 28 is_stmt 0                @ ../GUILib/src/misc/lv_ll.c:0:28
	movs	r2, #0
.Ltmp1:
	@DEBUG_VALUE: _lv_ll_init:node_size <- $r1
	@DEBUG_VALUE: _lv_ll_init:ll_p <- $r0
	.loc	3 56 33                         @ ../GUILib/src/misc/lv_ll.c:56:33
	bic	r1, r1, #3
.Ltmp2:
	@DEBUG_VALUE: _lv_ll_init:node_size <- [DW_OP_LLVM_entry_value 1] $r1
	@DEBUG_VALUE: _lv_ll_init:node_size <- $r1
	.loc	3 59 18 is_stmt 1               @ ../GUILib/src/misc/lv_ll.c:59:18
	strd	r1, r2, [r0]
	.loc	3 50 16                         @ ../GUILib/src/misc/lv_ll.c:50:16
	str	r2, [r0, #8]
	.loc	3 60 1                          @ ../GUILib/src/misc/lv_ll.c:60:1
	bx	lr
.Ltmp3:
.Lfunc_end0:
	.size	_lv_ll_init, .Lfunc_end0-_lv_ll_init
	.cfi_endproc
	.cantunwind
	.fnend
                                        @ -- End function
	.section	.text._lv_ll_ins_head,"ax",%progbits
	.hidden	_lv_ll_ins_head                 @ -- Begin function _lv_ll_ins_head
	.globl	_lv_ll_ins_head
	.p2align	1
	.type	_lv_ll_ins_head,%function
	.code	16                              @ @_lv_ll_ins_head
	.thumb_func
_lv_ll_ins_head:
.Lfunc_begin1:
	.loc	3 68 0                          @ ../GUILib/src/misc/lv_ll.c:68:0
	.fnstart
	.cfi_startproc
@ %bb.0:
	@DEBUG_VALUE: _lv_ll_ins_head:ll_p <- $r0
	.save	{r4, lr}
	push	{r4, lr}
	.cfi_def_cfa_offset 8
	.cfi_offset lr, -4
	.cfi_offset r4, -8
	mov	r4, r0
.Ltmp4:
	@DEBUG_VALUE: _lv_ll_ins_head:ll_p <- $r4
	.loc	3 71 32 prologue_end            @ ../GUILib/src/misc/lv_ll.c:71:32
	ldr	r0, [r0]
	.loc	3 71 39 is_stmt 0               @ ../GUILib/src/misc/lv_ll.c:71:39
	adds	r0, #8
	.loc	3 71 13                         @ ../GUILib/src/misc/lv_ll.c:71:13
	bl	lv_mem_alloc
.Ltmp5:
	@DEBUG_VALUE: _lv_ll_ins_head:n_new <- $r0
	.loc	3 73 8 is_stmt 1                @ ../GUILib/src/misc/lv_ll.c:73:8
	cbz	r0, .LBB1_4
.Ltmp6:
@ %bb.1:
	@DEBUG_VALUE: _lv_ll_ins_head:ll_p <- $r4
	@DEBUG_VALUE: _lv_ll_ins_head:n_new <- $r0
	@DEBUG_VALUE: node_set_prev:ll_p <- $r4
	@DEBUG_VALUE: node_set_prev:act <- $r0
	@DEBUG_VALUE: node_set_prev:prev <- 0
	@DEBUG_VALUE: node_set_prev:act8 <- $r0
	.loc	3 384 13                        @ ../GUILib/src/misc/lv_ll.c:384:13
	ldr	r1, [r4]
	movs	r2, #0
.Ltmp7:
	@DEBUG_VALUE: node_set_prev:prev_node_p <- undef
	@DEBUG_VALUE: node_set_prev:act_node_p <- undef
	.loc	3 389 17                        @ ../GUILib/src/misc/lv_ll.c:389:17
	str	r2, [r0, r1]
.Ltmp8:
	.loc	3 75 42                         @ ../GUILib/src/misc/lv_ll.c:75:42
	ldr	r2, [r4, #4]
.Ltmp9:
	@DEBUG_VALUE: node_set_next:act_node_p <- [DW_OP_plus_uconst 4, DW_OP_stack_value] undef
	@DEBUG_VALUE: node_set_next:next_node_p <- undef
	@DEBUG_VALUE: node_set_next:act8 <- [DW_OP_plus_uconst 4, DW_OP_stack_value] undef
	.loc	3 384 10                        @ ../GUILib/src/misc/lv_ll.c:384:10
	adds	r3, r0, r1
.Ltmp10:
	@DEBUG_VALUE: node_set_next:act <- $r0
	@DEBUG_VALUE: node_set_next:ll_p <- $r4
	@DEBUG_VALUE: node_set_next:next <- $r2
	@DEBUG_VALUE: node_set_prev:act8 <- $r3
	@DEBUG_VALUE: node_set_prev:act8 <- $r0
	@DEBUG_VALUE: node_set_prev:prev <- 0
	@DEBUG_VALUE: node_set_prev:act <- $r0
	@DEBUG_VALUE: node_set_prev:ll_p <- $r4
	.loc	3 407 17                        @ ../GUILib/src/misc/lv_ll.c:407:17
	str	r2, [r3, #4]
.Ltmp11:
	.loc	3 77 18                         @ ../GUILib/src/misc/lv_ll.c:77:18
	ldr	r2, [r4, #4]
.Ltmp12:
	.loc	3 77 12 is_stmt 0               @ ../GUILib/src/misc/lv_ll.c:77:12
	cbz	r2, .LBB1_3
.Ltmp13:
@ %bb.2:
	@DEBUG_VALUE: _lv_ll_ins_head:ll_p <- $r4
	@DEBUG_VALUE: _lv_ll_ins_head:n_new <- $r0
	@DEBUG_VALUE: node_set_prev:ll_p <- $r4
	@DEBUG_VALUE: node_set_prev:act <- $r2
	@DEBUG_VALUE: node_set_prev:prev <- $r0
	@DEBUG_VALUE: node_set_prev:act8 <- undef
	@DEBUG_VALUE: node_set_prev:act_node_p <- undef
	@DEBUG_VALUE: node_set_prev:prev_node_p <- undef
	.loc	3 389 17 is_stmt 1              @ ../GUILib/src/misc/lv_ll.c:389:17
	str	r0, [r2, r1]
.Ltmp14:
.LBB1_3:
	@DEBUG_VALUE: _lv_ll_ins_head:ll_p <- $r4
	@DEBUG_VALUE: _lv_ll_ins_head:n_new <- $r0
	.loc	3 82 18                         @ ../GUILib/src/misc/lv_ll.c:82:18
	ldr	r1, [r4, #8]
.Ltmp15:
	.loc	3 81 20                         @ ../GUILib/src/misc/lv_ll.c:81:20
	str	r0, [r4, #4]
	.loc	3 82 12                         @ ../GUILib/src/misc/lv_ll.c:82:12
	cbz	r1, .LBB1_5
.Ltmp16:
.LBB1_4:
	@DEBUG_VALUE: _lv_ll_ins_head:ll_p <- $r4
	@DEBUG_VALUE: _lv_ll_ins_head:n_new <- $r0
	.loc	3 87 5                          @ ../GUILib/src/misc/lv_ll.c:87:5
	pop	{r4, pc}
.Ltmp17:
.LBB1_5:
	@DEBUG_VALUE: _lv_ll_ins_head:ll_p <- $r4
	@DEBUG_VALUE: _lv_ll_ins_head:n_new <- $r0
	.loc	3 83 24                         @ ../GUILib/src/misc/lv_ll.c:83:24
	str	r0, [r4, #8]
.Ltmp18:
	.loc	3 87 5                          @ ../GUILib/src/misc/lv_ll.c:87:5
	pop	{r4, pc}
.Ltmp19:
.Lfunc_end1:
	.size	_lv_ll_ins_head, .Lfunc_end1-_lv_ll_ins_head
	.cfi_endproc
	.cantunwind
	.fnend
                                        @ -- End function
	.section	.text._lv_ll_ins_prev,"ax",%progbits
	.hidden	_lv_ll_ins_prev                 @ -- Begin function _lv_ll_ins_prev
	.globl	_lv_ll_ins_prev
	.p2align	1
	.type	_lv_ll_ins_prev,%function
	.code	16                              @ @_lv_ll_ins_prev
	.thumb_func
_lv_ll_ins_prev:
.Lfunc_begin2:
	.loc	3 97 0                          @ ../GUILib/src/misc/lv_ll.c:97:0
	.fnstart
	.cfi_startproc
@ %bb.0:
	@DEBUG_VALUE: _lv_ll_ins_prev:ll_p <- $r0
	@DEBUG_VALUE: _lv_ll_ins_prev:n_act <- $r1
	.save	{r4, r5, r7, lr}
	push	{r4, r5, r7, lr}
	.cfi_def_cfa_offset 16
	.cfi_offset lr, -4
	.cfi_offset r7, -8
	.cfi_offset r5, -12
	.cfi_offset r4, -16
	mov	r5, r0
	@DEBUG_VALUE: _lv_ll_ins_prev:n_act <- $r1
.Ltmp20:
	@DEBUG_VALUE: _lv_ll_ins_prev:ll_p <- $r5
	.loc	3 100 21 prologue_end           @ ../GUILib/src/misc/lv_ll.c:100:21
	cmp	r0, #0
	mov.w	r0, #0
	beq	.LBB2_8
.Ltmp21:
@ %bb.1:
	@DEBUG_VALUE: _lv_ll_ins_prev:ll_p <- $r5
	@DEBUG_VALUE: _lv_ll_ins_prev:n_act <- $r1
	.loc	3 0 21 is_stmt 0                @ ../GUILib/src/misc/lv_ll.c:0:21
	mov	r4, r1
.Ltmp22:
	@DEBUG_VALUE: _lv_ll_ins_prev:n_act <- $r4
	.loc	3 100 21                        @ ../GUILib/src/misc/lv_ll.c:100:21
	cbz	r1, .LBB2_8
.Ltmp23:
@ %bb.2:
	@DEBUG_VALUE: _lv_ll_ins_prev:ll_p <- $r5
	@DEBUG_VALUE: _lv_ll_ins_prev:n_act <- $r4
	@DEBUG_VALUE: _lv_ll_get_head:ll_p <- $r5
	.loc	3 259 18 is_stmt 1              @ ../GUILib/src/misc/lv_ll.c:259:18
	ldr	r0, [r5, #4]
.Ltmp24:
	.loc	3 102 8                         @ ../GUILib/src/misc/lv_ll.c:102:8
	cmp	r0, r4
	beq	.LBB2_7
.Ltmp25:
@ %bb.3:
	@DEBUG_VALUE: _lv_ll_ins_prev:ll_p <- $r5
	@DEBUG_VALUE: _lv_ll_ins_prev:n_act <- $r4
	.loc	3 107 36                        @ ../GUILib/src/misc/lv_ll.c:107:36
	ldr	r0, [r5]
	.loc	3 107 43 is_stmt 0              @ ../GUILib/src/misc/lv_ll.c:107:43
	adds	r0, #8
	.loc	3 107 17                        @ ../GUILib/src/misc/lv_ll.c:107:17
	bl	lv_mem_alloc
.Ltmp26:
	@DEBUG_VALUE: _lv_ll_ins_prev:n_new <- $r0
	.loc	3 108 12 is_stmt 1              @ ../GUILib/src/misc/lv_ll.c:108:12
	cbz	r0, .LBB2_9
.Ltmp27:
@ %bb.4:
	@DEBUG_VALUE: _lv_ll_ins_prev:ll_p <- $r5
	@DEBUG_VALUE: _lv_ll_ins_prev:n_act <- $r4
	@DEBUG_VALUE: _lv_ll_ins_prev:n_new <- $r0
	@DEBUG_VALUE: _lv_ll_get_prev:ll_p <- $r5
	@DEBUG_VALUE: _lv_ll_get_prev:n_act <- $r4
	@DEBUG_VALUE: _lv_ll_get_prev:n_act_d <- $r4
	.loc	3 299 16                        @ ../GUILib/src/misc/lv_ll.c:299:16
	ldr	r1, [r5]
.Ltmp28:
	@DEBUG_VALUE: _lv_ll_get_prev:n_act_d <- undef
	.loc	3 300 12                        @ ../GUILib/src/misc/lv_ll.c:300:12
	ldr	r2, [r4, r1]
.Ltmp29:
	@DEBUG_VALUE: node_set_next:next <- $r0
	@DEBUG_VALUE: node_set_next:ll_p <- undef
	@DEBUG_VALUE: node_set_next:act <- $r2
	@DEBUG_VALUE: n_prev <- $r2
	.loc	3 0 0 is_stmt 0                 @ ../GUILib/src/misc/lv_ll.c:0:0
	adds	r3, r1, #4
	@DEBUG_VALUE: node_set_next:act <- $r2
	@DEBUG_VALUE: node_set_next:next <- $r0
.Ltmp30:
	.loc	3 400 8 is_stmt 1               @ ../GUILib/src/misc/lv_ll.c:400:8
	cbz	r2, .LBB2_6
.Ltmp31:
@ %bb.5:
	@DEBUG_VALUE: _lv_ll_ins_prev:ll_p <- $r5
	@DEBUG_VALUE: _lv_ll_ins_prev:n_act <- $r4
	@DEBUG_VALUE: n_prev <- $r2
	@DEBUG_VALUE: node_set_next:act <- $r2
	@DEBUG_VALUE: node_set_next:next <- $r0
	@DEBUG_VALUE: _lv_ll_ins_prev:n_new <- $r0
	@DEBUG_VALUE: node_set_next:act8 <- undef
	@DEBUG_VALUE: node_set_next:act_node_p <- undef
	@DEBUG_VALUE: node_set_next:next_node_p <- undef
	.loc	3 407 17                        @ ../GUILib/src/misc/lv_ll.c:407:17
	str	r0, [r2, r3]
.Ltmp32:
.LBB2_6:
	@DEBUG_VALUE: _lv_ll_ins_prev:ll_p <- $r5
	@DEBUG_VALUE: _lv_ll_ins_prev:n_act <- $r4
	@DEBUG_VALUE: n_prev <- $r2
	@DEBUG_VALUE: _lv_ll_ins_prev:n_new <- $r0
	@DEBUG_VALUE: node_set_prev:ll_p <- undef
	@DEBUG_VALUE: node_set_prev:act <- $r0
	@DEBUG_VALUE: node_set_prev:prev <- $r2
	@DEBUG_VALUE: node_set_prev:act8 <- undef
	@DEBUG_VALUE: node_set_prev:act_node_p <- undef
	@DEBUG_VALUE: node_set_prev:prev_node_p <- undef
	.loc	3 389 17                        @ ../GUILib/src/misc/lv_ll.c:389:17
	str	r2, [r0, r1]
.Ltmp33:
	@DEBUG_VALUE: node_set_prev:prev_node_p <- undef
	@DEBUG_VALUE: node_set_prev:prev <- $r0
	@DEBUG_VALUE: node_set_prev:act <- $r4
	@DEBUG_VALUE: node_set_prev:ll_p <- undef
	.loc	3 389 17 is_stmt 0              @ ../GUILib/src/misc/lv_ll.c:389:17
	str	r0, [r4, r1]
.Ltmp34:
	@DEBUG_VALUE: node_set_next:next_node_p <- undef
	@DEBUG_VALUE: node_set_next:act_node_p <- undef
	@DEBUG_VALUE: node_set_next:act8 <- undef
	@DEBUG_VALUE: node_set_next:next <- $r4
	@DEBUG_VALUE: node_set_next:act <- $r0
	@DEBUG_VALUE: node_set_next:ll_p <- undef
	.loc	3 407 17 is_stmt 1              @ ../GUILib/src/misc/lv_ll.c:407:17
	str	r4, [r0, r3]
	@DEBUG_VALUE: node_set_prev:act_node_p <- undef
	@DEBUG_VALUE: node_set_prev:act8 <- undef
	@DEBUG_VALUE: _lv_ll_ins_prev:n_new <- $r0
	b	.LBB2_8
.Ltmp35:
.LBB2_7:
	@DEBUG_VALUE: _lv_ll_ins_prev:ll_p <- $r5
	@DEBUG_VALUE: _lv_ll_ins_prev:n_act <- $r4
	.loc	3 103 17                        @ ../GUILib/src/misc/lv_ll.c:103:17
	mov	r0, r5
	bl	_lv_ll_ins_head
.Ltmp36:
	@DEBUG_VALUE: _lv_ll_ins_prev:n_new <- $r0
	.loc	3 104 12                        @ ../GUILib/src/misc/lv_ll.c:104:12
	cbz	r0, .LBB2_9
.Ltmp37:
.LBB2_8:
	@DEBUG_VALUE: _lv_ll_ins_prev:ll_p <- $r5
	.loc	3 119 1                         @ ../GUILib/src/misc/lv_ll.c:119:1
	pop	{r4, r5, r7, pc}
.Ltmp38:
.LBB2_9:
	@DEBUG_VALUE: _lv_ll_ins_prev:ll_p <- $r5
	@DEBUG_VALUE: _lv_ll_ins_prev:n_act <- $r4
	@DEBUG_VALUE: _lv_ll_ins_prev:n_new <- $r0
	.loc	3 0 1 is_stmt 0                 @ ../GUILib/src/misc/lv_ll.c:0:1
	movs	r0, #0
.Ltmp39:
	.loc	3 119 1                         @ ../GUILib/src/misc/lv_ll.c:119:1
	pop	{r4, r5, r7, pc}
.Ltmp40:
.Lfunc_end2:
	.size	_lv_ll_ins_prev, .Lfunc_end2-_lv_ll_ins_prev
	.cfi_endproc
	.cantunwind
	.fnend
                                        @ -- End function
	.section	.text._lv_ll_get_head,"ax",%progbits
	.hidden	_lv_ll_get_head                 @ -- Begin function _lv_ll_get_head
	.globl	_lv_ll_get_head
	.p2align	1
	.type	_lv_ll_get_head,%function
	.code	16                              @ @_lv_ll_get_head
	.thumb_func
_lv_ll_get_head:
.Lfunc_begin3:
	.loc	3 257 0 is_stmt 1               @ ../GUILib/src/misc/lv_ll.c:257:0
	.fnstart
	.cfi_startproc
@ %bb.0:
	@DEBUG_VALUE: _lv_ll_get_head:ll_p <- $r0
	@DEBUG_VALUE: _lv_ll_get_head:ll_p <- $r0
	.loc	3 258 8 prologue_end            @ ../GUILib/src/misc/lv_ll.c:258:8
	cmp	r0, #0
	.loc	3 259 18                        @ ../GUILib/src/misc/lv_ll.c:259:18
	ite	ne
	ldrne	r0, [r0, #4]
.Ltmp41:
	@DEBUG_VALUE: _lv_ll_get_head:ll_p <- [DW_OP_LLVM_entry_value 1] $r0
	.loc	3 0 18 is_stmt 0                @ ../GUILib/src/misc/lv_ll.c:0:18
	moveq	r0, #0
	.loc	3 260 1 is_stmt 1               @ ../GUILib/src/misc/lv_ll.c:260:1
	bx	lr
.Ltmp42:
.Lfunc_end3:
	.size	_lv_ll_get_head, .Lfunc_end3-_lv_ll_get_head
	.cfi_endproc
	.cantunwind
	.fnend
                                        @ -- End function
	.section	.text._lv_ll_get_prev,"ax",%progbits
	.hidden	_lv_ll_get_prev                 @ -- Begin function _lv_ll_get_prev
	.globl	_lv_ll_get_prev
	.p2align	1
	.type	_lv_ll_get_prev,%function
	.code	16                              @ @_lv_ll_get_prev
	.thumb_func
_lv_ll_get_prev:
.Lfunc_begin4:
	.loc	3 295 0                         @ ../GUILib/src/misc/lv_ll.c:295:0
	.fnstart
	.cfi_startproc
@ %bb.0:
	@DEBUG_VALUE: _lv_ll_get_prev:ll_p <- $r0
	@DEBUG_VALUE: _lv_ll_get_prev:ll_p <- $r0
	@DEBUG_VALUE: _lv_ll_get_prev:n_act <- $r1
	@DEBUG_VALUE: _lv_ll_get_prev:n_act_d <- $r1
	.loc	3 299 16 prologue_end           @ ../GUILib/src/misc/lv_ll.c:299:16
	ldr	r0, [r0]
.Ltmp43:
	@DEBUG_VALUE: _lv_ll_get_prev:ll_p <- [DW_OP_LLVM_entry_value 1] $r0
	@DEBUG_VALUE: _lv_ll_get_prev:n_act_d <- $r1
	@DEBUG_VALUE: _lv_ll_get_prev:n_act_d <- undef
	@DEBUG_VALUE: _lv_ll_get_prev:n_act <- $r1
	.loc	3 300 12                        @ ../GUILib/src/misc/lv_ll.c:300:12
	ldr	r0, [r1, r0]
	.loc	3 300 5 is_stmt 0               @ ../GUILib/src/misc/lv_ll.c:300:5
	bx	lr
.Ltmp44:
.Lfunc_end4:
	.size	_lv_ll_get_prev, .Lfunc_end4-_lv_ll_get_prev
	.cfi_endproc
	.cantunwind
	.fnend
                                        @ -- End function
	.section	.text._lv_ll_ins_tail,"ax",%progbits
	.hidden	_lv_ll_ins_tail                 @ -- Begin function _lv_ll_ins_tail
	.globl	_lv_ll_ins_tail
	.p2align	1
	.type	_lv_ll_ins_tail,%function
	.code	16                              @ @_lv_ll_ins_tail
	.thumb_func
_lv_ll_ins_tail:
.Lfunc_begin5:
	.loc	3 127 0 is_stmt 1               @ ../GUILib/src/misc/lv_ll.c:127:0
	.fnstart
	.cfi_startproc
@ %bb.0:
	@DEBUG_VALUE: _lv_ll_ins_tail:ll_p <- $r0
	.save	{r4, lr}
	push	{r4, lr}
	.cfi_def_cfa_offset 8
	.cfi_offset lr, -4
	.cfi_offset r4, -8
	mov	r4, r0
.Ltmp45:
	@DEBUG_VALUE: _lv_ll_ins_tail:ll_p <- $r4
	.loc	3 130 32 prologue_end           @ ../GUILib/src/misc/lv_ll.c:130:32
	ldr	r0, [r0]
	.loc	3 130 39 is_stmt 0              @ ../GUILib/src/misc/lv_ll.c:130:39
	adds	r0, #8
	.loc	3 130 13                        @ ../GUILib/src/misc/lv_ll.c:130:13
	bl	lv_mem_alloc
.Ltmp46:
	@DEBUG_VALUE: _lv_ll_ins_tail:n_new <- $r0
	.loc	3 132 8 is_stmt 1               @ ../GUILib/src/misc/lv_ll.c:132:8
	cbz	r0, .LBB5_4
.Ltmp47:
@ %bb.1:
	@DEBUG_VALUE: _lv_ll_ins_tail:ll_p <- $r4
	@DEBUG_VALUE: _lv_ll_ins_tail:n_new <- $r0
	@DEBUG_VALUE: node_set_next:ll_p <- $r4
	@DEBUG_VALUE: node_set_next:act <- $r0
	@DEBUG_VALUE: node_set_next:next <- 0
	@DEBUG_VALUE: node_set_next:act8 <- $r0
	.loc	3 403 13                        @ ../GUILib/src/misc/lv_ll.c:403:13
	ldr	r2, [r4]
	movs	r3, #0
.Ltmp48:
	@DEBUG_VALUE: node_set_next:next_node_p <- undef
	@DEBUG_VALUE: node_set_next:act_node_p <- undef
	@DEBUG_VALUE: node_set_next:act8 <- undef
	adds	r1, r2, #4
	.loc	3 407 17                        @ ../GUILib/src/misc/lv_ll.c:407:17
	str	r3, [r0, r1]
.Ltmp49:
	.loc	3 134 42                        @ ../GUILib/src/misc/lv_ll.c:134:42
	ldr	r3, [r4, #8]
.Ltmp50:
	@DEBUG_VALUE: node_set_prev:prev_node_p <- undef
	@DEBUG_VALUE: node_set_prev:act_node_p <- undef
	@DEBUG_VALUE: node_set_prev:act8 <- undef
	@DEBUG_VALUE: node_set_prev:act <- $r0
	@DEBUG_VALUE: node_set_prev:ll_p <- $r4
	@DEBUG_VALUE: node_set_prev:prev <- $r3
	.loc	3 389 17                        @ ../GUILib/src/misc/lv_ll.c:389:17
	str	r3, [r0, r2]
.Ltmp51:
	.loc	3 135 18                        @ ../GUILib/src/misc/lv_ll.c:135:18
	ldr	r2, [r4, #8]
.Ltmp52:
	.loc	3 135 12 is_stmt 0              @ ../GUILib/src/misc/lv_ll.c:135:12
	cbz	r2, .LBB5_3
.Ltmp53:
@ %bb.2:
	@DEBUG_VALUE: _lv_ll_ins_tail:ll_p <- $r4
	@DEBUG_VALUE: _lv_ll_ins_tail:n_new <- $r0
	@DEBUG_VALUE: node_set_next:ll_p <- $r4
	@DEBUG_VALUE: node_set_next:act <- $r2
	@DEBUG_VALUE: node_set_next:next <- $r0
	@DEBUG_VALUE: node_set_next:act8 <- undef
	@DEBUG_VALUE: node_set_next:act_node_p <- undef
	@DEBUG_VALUE: node_set_next:next_node_p <- undef
	.loc	3 407 17 is_stmt 1              @ ../GUILib/src/misc/lv_ll.c:407:17
	str	r0, [r2, r1]
.Ltmp54:
.LBB5_3:
	@DEBUG_VALUE: _lv_ll_ins_tail:ll_p <- $r4
	@DEBUG_VALUE: _lv_ll_ins_tail:n_new <- $r0
	.loc	3 140 18                        @ ../GUILib/src/misc/lv_ll.c:140:18
	ldr	r1, [r4, #4]
.Ltmp55:
	.loc	3 139 20                        @ ../GUILib/src/misc/lv_ll.c:139:20
	str	r0, [r4, #8]
	.loc	3 140 12                        @ ../GUILib/src/misc/lv_ll.c:140:12
	cbz	r1, .LBB5_5
.Ltmp56:
.LBB5_4:
	@DEBUG_VALUE: _lv_ll_ins_tail:ll_p <- $r4
	@DEBUG_VALUE: _lv_ll_ins_tail:n_new <- $r0
	.loc	3 145 5                         @ ../GUILib/src/misc/lv_ll.c:145:5
	pop	{r4, pc}
.Ltmp57:
.LBB5_5:
	@DEBUG_VALUE: _lv_ll_ins_tail:ll_p <- $r4
	@DEBUG_VALUE: _lv_ll_ins_tail:n_new <- $r0
	.loc	3 141 24                        @ ../GUILib/src/misc/lv_ll.c:141:24
	str	r0, [r4, #4]
.Ltmp58:
	.loc	3 145 5                         @ ../GUILib/src/misc/lv_ll.c:145:5
	pop	{r4, pc}
.Ltmp59:
.Lfunc_end5:
	.size	_lv_ll_ins_tail, .Lfunc_end5-_lv_ll_ins_tail
	.cfi_endproc
	.cantunwind
	.fnend
                                        @ -- End function
	.section	.text._lv_ll_remove,"ax",%progbits
	.hidden	_lv_ll_remove                   @ -- Begin function _lv_ll_remove
	.globl	_lv_ll_remove
	.p2align	1
	.type	_lv_ll_remove,%function
	.code	16                              @ @_lv_ll_remove
	.thumb_func
_lv_ll_remove:
.Lfunc_begin6:
	.loc	3 155 0                         @ ../GUILib/src/misc/lv_ll.c:155:0
	.fnstart
	.cfi_startproc
@ %bb.0:
	@DEBUG_VALUE: _lv_ll_remove:ll_p <- $r0
	@DEBUG_VALUE: _lv_ll_remove:ll_p <- $r0
	@DEBUG_VALUE: _lv_ll_remove:node_p <- $r1
	.save	{r7, lr}
	push	{r7, lr}
	.cfi_def_cfa_offset 8
	.cfi_offset lr, -4
	.cfi_offset r7, -8
	@DEBUG_VALUE: _lv_ll_remove:node_p <- $r1
.Ltmp60:
	.loc	3 156 8 prologue_end            @ ../GUILib/src/misc/lv_ll.c:156:8
	cbz	r0, .LBB6_7
.Ltmp61:
@ %bb.1:
	@DEBUG_VALUE: _lv_ll_remove:node_p <- $r1
	@DEBUG_VALUE: _lv_ll_remove:ll_p <- $r0
	@DEBUG_VALUE: _lv_ll_get_head:ll_p <- $r0
	.loc	3 259 18                        @ ../GUILib/src/misc/lv_ll.c:259:18
	ldr	r2, [r0, #4]
.Ltmp62:
	.loc	3 158 8                         @ ../GUILib/src/misc/lv_ll.c:158:8
	cmp	r2, r1
	beq	.LBB6_8
.Ltmp63:
@ %bb.2:
	@DEBUG_VALUE: _lv_ll_remove:node_p <- $r1
	@DEBUG_VALUE: _lv_ll_remove:ll_p <- $r0
	@DEBUG_VALUE: _lv_ll_get_prev:ll_p <- $r0
	@DEBUG_VALUE: _lv_ll_get_prev:ll_p <- $r0
	@DEBUG_VALUE: _lv_ll_get_prev:n_act <- $r1
	@DEBUG_VALUE: _lv_ll_get_prev:n_act <- $r1
	@DEBUG_VALUE: _lv_ll_get_prev:n_act_d <- $r1
	@DEBUG_VALUE: _lv_ll_get_prev:n_act_d <- $r1
	.loc	3 0 0 is_stmt 0                 @ ../GUILib/src/misc/lv_ll.c:0:0
	ldr.w	lr, [r0]
.Ltmp64:
	@DEBUG_VALUE: _lv_ll_get_tail:ll_p <- $r0
	.loc	3 270 18 is_stmt 1              @ ../GUILib/src/misc/lv_ll.c:270:18
	ldr	r2, [r0, #8]
.Ltmp65:
	@DEBUG_VALUE: _lv_ll_get_prev:n_act_d <- undef
	@DEBUG_VALUE: _lv_ll_get_prev:n_act_d <- undef
	.loc	3 0 0 is_stmt 0                 @ ../GUILib/src/misc/lv_ll.c:0:0
	ldr.w	r3, [r1, lr]
.Ltmp66:
	.loc	3 168 13 is_stmt 1              @ ../GUILib/src/misc/lv_ll.c:168:13
	cmp	r2, r1
	beq	.LBB6_9
.Ltmp67:
@ %bb.3:
	@DEBUG_VALUE: _lv_ll_remove:node_p <- $r1
	@DEBUG_VALUE: _lv_ll_remove:ll_p <- $r0
	@DEBUG_VALUE: n_prev <- $r3
	@DEBUG_VALUE: _lv_ll_get_next:ll_p <- undef
	@DEBUG_VALUE: _lv_ll_get_next:n_act <- $r1
	@DEBUG_VALUE: _lv_ll_get_next:n_act_d <- $r1
	.loc	3 284 16                        @ ../GUILib/src/misc/lv_ll.c:284:16
	add.w	r12, lr, #4
.Ltmp68:
	@DEBUG_VALUE: _lv_ll_get_next:n_act_d <- undef
	.loc	3 285 12                        @ ../GUILib/src/misc/lv_ll.c:285:12
	ldr.w	r0, [r1, r12]
.Ltmp69:
	@DEBUG_VALUE: _lv_ll_remove:ll_p <- [DW_OP_LLVM_entry_value 1] $r0
	@DEBUG_VALUE: node_set_next:act <- $r3
	@DEBUG_VALUE: node_set_next:ll_p <- undef
	@DEBUG_VALUE: node_set_next:next <- $r0
	@DEBUG_VALUE: n_next <- $r0
	.loc	3 400 8                         @ ../GUILib/src/misc/lv_ll.c:400:8
	cbz	r3, .LBB6_5
.Ltmp70:
@ %bb.4:
	@DEBUG_VALUE: node_set_next:act <- $r3
	@DEBUG_VALUE: n_prev <- $r3
	@DEBUG_VALUE: _lv_ll_remove:node_p <- $r1
	@DEBUG_VALUE: n_next <- $r0
	@DEBUG_VALUE: node_set_next:next <- $r0
	@DEBUG_VALUE: _lv_ll_remove:ll_p <- [DW_OP_LLVM_entry_value 1] $r0
	@DEBUG_VALUE: node_set_next:act8 <- undef
	@DEBUG_VALUE: node_set_next:act_node_p <- undef
	@DEBUG_VALUE: node_set_next:next_node_p <- undef
	.loc	3 407 17                        @ ../GUILib/src/misc/lv_ll.c:407:17
	str.w	r0, [r3, r12]
.Ltmp71:
.LBB6_5:
	@DEBUG_VALUE: n_prev <- $r3
	@DEBUG_VALUE: _lv_ll_remove:node_p <- $r1
	@DEBUG_VALUE: n_next <- $r0
	@DEBUG_VALUE: _lv_ll_remove:ll_p <- [DW_OP_LLVM_entry_value 1] $r0
	@DEBUG_VALUE: node_set_prev:ll_p <- undef
	@DEBUG_VALUE: node_set_prev:act <- $r0
	@DEBUG_VALUE: node_set_prev:prev <- $r3
	.loc	3 380 8                         @ ../GUILib/src/misc/lv_ll.c:380:8
	cbz	r0, .LBB6_7
.Ltmp72:
@ %bb.6:
	@DEBUG_VALUE: node_set_prev:prev <- $r3
	@DEBUG_VALUE: n_prev <- $r3
	@DEBUG_VALUE: _lv_ll_remove:node_p <- $r1
	@DEBUG_VALUE: node_set_prev:act <- $r0
	@DEBUG_VALUE: n_next <- $r0
	@DEBUG_VALUE: _lv_ll_remove:ll_p <- [DW_OP_LLVM_entry_value 1] $r0
	@DEBUG_VALUE: node_set_prev:act8 <- undef
	@DEBUG_VALUE: node_set_prev:act_node_p <- undef
	@DEBUG_VALUE: node_set_prev:prev_node_p <- undef
	.loc	3 389 17                        @ ../GUILib/src/misc/lv_ll.c:389:17
	str.w	r3, [r0, lr]
.Ltmp73:
.LBB6_7:
	@DEBUG_VALUE: _lv_ll_remove:node_p <- $r1
	.loc	3 185 1                         @ ../GUILib/src/misc/lv_ll.c:185:1
	pop	{r7, pc}
.Ltmp74:
.LBB6_8:
	@DEBUG_VALUE: _lv_ll_remove:node_p <- $r1
	@DEBUG_VALUE: _lv_ll_remove:ll_p <- $r0
	@DEBUG_VALUE: _lv_ll_get_next:ll_p <- $r0
	@DEBUG_VALUE: _lv_ll_get_next:n_act <- $r1
	@DEBUG_VALUE: _lv_ll_get_next:n_act_d <- $r1
	.loc	3 284 16                        @ ../GUILib/src/misc/lv_ll.c:284:16
	ldr	r2, [r0]
	add	r1, r2
.Ltmp75:
	@DEBUG_VALUE: _lv_ll_remove:node_p <- [DW_OP_LLVM_entry_value 1] $r1
	@DEBUG_VALUE: _lv_ll_get_next:n_act_d <- [DW_OP_plus_uconst 4, DW_OP_stack_value] $r1
	.loc	3 285 12                        @ ../GUILib/src/misc/lv_ll.c:285:12
	ldr	r1, [r1, #4]
.Ltmp76:
	.loc	3 161 12                        @ ../GUILib/src/misc/lv_ll.c:161:12
	cmp	r1, #0
	.loc	3 160 20                        @ ../GUILib/src/misc/lv_ll.c:160:20
	str	r1, [r0, #4]
	ittee	eq
	moveq	r1, #0
.Ltmp77:
	.loc	3 162 24                        @ ../GUILib/src/misc/lv_ll.c:162:24
	streq	r1, [r0, #8]
	movne	r0, #0
.Ltmp78:
	@DEBUG_VALUE: _lv_ll_remove:ll_p <- [DW_OP_LLVM_entry_value 1] $r0
	@DEBUG_VALUE: node_set_prev:prev <- 0
	@DEBUG_VALUE: node_set_prev:act <- $r1
	.loc	3 389 17                        @ ../GUILib/src/misc/lv_ll.c:389:17
	strne	r0, [r1, r2]
.Ltmp79:
	.loc	3 185 1                         @ ../GUILib/src/misc/lv_ll.c:185:1
	pop	{r7, pc}
.Ltmp80:
.LBB6_9:
	@DEBUG_VALUE: _lv_ll_remove:node_p <- $r1
	@DEBUG_VALUE: _lv_ll_remove:ll_p <- $r0
	.loc	3 170 20                        @ ../GUILib/src/misc/lv_ll.c:170:20
	str	r3, [r0, #8]
	.loc	3 171 12                        @ ../GUILib/src/misc/lv_ll.c:171:12
	cbz	r3, .LBB6_11
.Ltmp81:
@ %bb.10:
	@DEBUG_VALUE: _lv_ll_remove:node_p <- $r1
	@DEBUG_VALUE: _lv_ll_remove:ll_p <- $r0
	@DEBUG_VALUE: node_set_next:ll_p <- undef
	@DEBUG_VALUE: node_set_next:act <- $r3
	@DEBUG_VALUE: node_set_next:next <- 0
	@DEBUG_VALUE: node_set_next:act8 <- $r3
	.loc	3 403 13                        @ ../GUILib/src/misc/lv_ll.c:403:13
	add.w	r0, lr, r3
.Ltmp82:
	@DEBUG_VALUE: _lv_ll_remove:ll_p <- [DW_OP_LLVM_entry_value 1] $r0
.LBB6_11:
	@DEBUG_VALUE: _lv_ll_remove:node_p <- $r1
	.loc	3 0 13 is_stmt 0                @ ../GUILib/src/misc/lv_ll.c:0:13
	movs	r1, #0
.Ltmp83:
	@DEBUG_VALUE: _lv_ll_remove:node_p <- [DW_OP_LLVM_entry_value 1] $r1
	str	r1, [r0, #4]
.Ltmp84:
	.loc	3 185 1 is_stmt 1               @ ../GUILib/src/misc/lv_ll.c:185:1
	pop	{r7, pc}
.Ltmp85:
.Lfunc_end6:
	.size	_lv_ll_remove, .Lfunc_end6-_lv_ll_remove
	.cfi_endproc
	.cantunwind
	.fnend
                                        @ -- End function
	.section	.text._lv_ll_get_next,"ax",%progbits
	.hidden	_lv_ll_get_next                 @ -- Begin function _lv_ll_get_next
	.globl	_lv_ll_get_next
	.p2align	1
	.type	_lv_ll_get_next,%function
	.code	16                              @ @_lv_ll_get_next
	.thumb_func
_lv_ll_get_next:
.Lfunc_begin7:
	.loc	3 280 0                         @ ../GUILib/src/misc/lv_ll.c:280:0
	.fnstart
	.cfi_startproc
@ %bb.0:
	@DEBUG_VALUE: _lv_ll_get_next:ll_p <- $r0
	@DEBUG_VALUE: _lv_ll_get_next:ll_p <- $r0
	@DEBUG_VALUE: _lv_ll_get_next:n_act <- $r1
	@DEBUG_VALUE: _lv_ll_get_next:n_act_d <- $r1
	.loc	3 284 16 prologue_end           @ ../GUILib/src/misc/lv_ll.c:284:16
	ldr	r0, [r0]
.Ltmp86:
	@DEBUG_VALUE: _lv_ll_get_next:ll_p <- [DW_OP_LLVM_entry_value 1] $r0
	@DEBUG_VALUE: _lv_ll_get_next:n_act_d <- $r1
	@DEBUG_VALUE: _lv_ll_get_next:n_act <- $r1
	add	r0, r1
.Ltmp87:
	@DEBUG_VALUE: _lv_ll_get_next:n_act_d <- [DW_OP_plus_uconst 4, DW_OP_stack_value] $r0
	.loc	3 285 12                        @ ../GUILib/src/misc/lv_ll.c:285:12
	ldr	r0, [r0, #4]
.Ltmp88:
	.loc	3 285 5 is_stmt 0               @ ../GUILib/src/misc/lv_ll.c:285:5
	bx	lr
.Ltmp89:
.Lfunc_end7:
	.size	_lv_ll_get_next, .Lfunc_end7-_lv_ll_get_next
	.cfi_endproc
	.cantunwind
	.fnend
                                        @ -- End function
	.section	.text._lv_ll_get_tail,"ax",%progbits
	.hidden	_lv_ll_get_tail                 @ -- Begin function _lv_ll_get_tail
	.globl	_lv_ll_get_tail
	.p2align	1
	.type	_lv_ll_get_tail,%function
	.code	16                              @ @_lv_ll_get_tail
	.thumb_func
_lv_ll_get_tail:
.Lfunc_begin8:
	.loc	3 268 0 is_stmt 1               @ ../GUILib/src/misc/lv_ll.c:268:0
	.fnstart
	.cfi_startproc
@ %bb.0:
	@DEBUG_VALUE: _lv_ll_get_tail:ll_p <- $r0
	@DEBUG_VALUE: _lv_ll_get_tail:ll_p <- $r0
	.loc	3 269 8 prologue_end            @ ../GUILib/src/misc/lv_ll.c:269:8
	cmp	r0, #0
	.loc	3 270 18                        @ ../GUILib/src/misc/lv_ll.c:270:18
	ite	ne
	ldrne	r0, [r0, #8]
.Ltmp90:
	@DEBUG_VALUE: _lv_ll_get_tail:ll_p <- [DW_OP_LLVM_entry_value 1] $r0
	.loc	3 0 18 is_stmt 0                @ ../GUILib/src/misc/lv_ll.c:0:18
	moveq	r0, #0
	.loc	3 271 1 is_stmt 1               @ ../GUILib/src/misc/lv_ll.c:271:1
	bx	lr
.Ltmp91:
.Lfunc_end8:
	.size	_lv_ll_get_tail, .Lfunc_end8-_lv_ll_get_tail
	.cfi_endproc
	.cantunwind
	.fnend
                                        @ -- End function
	.section	.text._lv_ll_clear,"ax",%progbits
	.hidden	_lv_ll_clear                    @ -- Begin function _lv_ll_clear
	.globl	_lv_ll_clear
	.p2align	1
	.type	_lv_ll_clear,%function
	.code	16                              @ @_lv_ll_clear
	.thumb_func
_lv_ll_clear:
.Lfunc_begin9:
	.loc	3 192 0                         @ ../GUILib/src/misc/lv_ll.c:192:0
	.fnstart
	.cfi_startproc
@ %bb.0:
	@DEBUG_VALUE: _lv_ll_clear:ll_p <- $r0
	@DEBUG_VALUE: _lv_ll_get_head:ll_p <- $r0
	@DEBUG_VALUE: _lv_ll_get_head:ll_p <- $r0
	@DEBUG_VALUE: _lv_ll_clear:ll_p <- $r0
	.save	{r4, r5, r6, lr}
	push	{r4, r5, r6, lr}
	.cfi_def_cfa_offset 16
	.cfi_offset lr, -4
	.cfi_offset r6, -8
	.cfi_offset r5, -12
	.cfi_offset r4, -16
.Ltmp92:
	.loc	3 258 8 prologue_end            @ ../GUILib/src/misc/lv_ll.c:258:8
	cbz	r0, .LBB9_3
.Ltmp93:
@ %bb.1:
	@DEBUG_VALUE: _lv_ll_get_head:ll_p <- $r0
	@DEBUG_VALUE: _lv_ll_clear:ll_p <- $r0
	.loc	3 259 18                        @ ../GUILib/src/misc/lv_ll.c:259:18
	ldr	r5, [r0, #4]
.Ltmp94:
	@DEBUG_VALUE: _lv_ll_clear:i_next <- 0
	@DEBUG_VALUE: _lv_ll_clear:i <- $r5
	.loc	3 0 18 is_stmt 0                @ ../GUILib/src/misc/lv_ll.c:0:18
	mov	r4, r0
.Ltmp95:
	@DEBUG_VALUE: _lv_ll_clear:ll_p <- $r4
	@DEBUG_VALUE: _lv_ll_clear:ll_p <- $r4
	@DEBUG_VALUE: _lv_ll_get_head:ll_p <- $r4
	.loc	3 199 5 is_stmt 1               @ ../GUILib/src/misc/lv_ll.c:199:5
	cbz	r5, .LBB9_3
.Ltmp96:
	.p2align	2
.LBB9_2:                                @ =>This Inner Loop Header: Depth=1
	@DEBUG_VALUE: _lv_ll_clear:i <- $r5
	@DEBUG_VALUE: _lv_ll_clear:ll_p <- $r4
	@DEBUG_VALUE: _lv_ll_clear:i <- $r5
	@DEBUG_VALUE: _lv_ll_get_next:ll_p <- $r4
	@DEBUG_VALUE: _lv_ll_get_next:n_act <- $r5
	@DEBUG_VALUE: _lv_ll_get_next:n_act_d <- $r5
	.loc	3 284 16                        @ ../GUILib/src/misc/lv_ll.c:284:16
	ldr	r0, [r4]
.Ltmp97:
	.loc	3 202 9                         @ ../GUILib/src/misc/lv_ll.c:202:9
	mov	r1, r5
.Ltmp98:
	.loc	3 284 16                        @ ../GUILib/src/misc/lv_ll.c:284:16
	add	r0, r5
.Ltmp99:
	@DEBUG_VALUE: _lv_ll_get_next:n_act_d <- [DW_OP_plus_uconst 4, DW_OP_stack_value] $r0
	.loc	3 285 12                        @ ../GUILib/src/misc/lv_ll.c:285:12
	ldr	r6, [r0, #4]
.Ltmp100:
	@DEBUG_VALUE: _lv_ll_clear:i_next <- $r6
	.loc	3 202 9                         @ ../GUILib/src/misc/lv_ll.c:202:9
	mov	r0, r4
.Ltmp101:
	bl	_lv_ll_remove
.Ltmp102:
	.loc	3 203 9                         @ ../GUILib/src/misc/lv_ll.c:203:9
	mov	r0, r5
	bl	lv_mem_free
.Ltmp103:
	@DEBUG_VALUE: _lv_ll_clear:i <- $r6
	.loc	3 199 5                         @ ../GUILib/src/misc/lv_ll.c:199:5
	cmp	r6, #0
	mov	r5, r6
.Ltmp104:
	@DEBUG_VALUE: _lv_ll_clear:i_next <- $r5
	@DEBUG_VALUE: _lv_ll_clear:i_next <- $r5
	@DEBUG_VALUE: _lv_ll_clear:i_next <- $r5
	@DEBUG_VALUE: _lv_ll_clear:i <- $r5
	bne	.LBB9_2
.Ltmp105:
.LBB9_3:
	.loc	3 207 1                         @ ../GUILib/src/misc/lv_ll.c:207:1
	pop	{r4, r5, r6, pc}
.Ltmp106:
.Lfunc_end9:
	.size	_lv_ll_clear, .Lfunc_end9-_lv_ll_clear
	.cfi_endproc
	.cantunwind
	.fnend
                                        @ -- End function
	.section	.text._lv_ll_chg_list,"ax",%progbits
	.hidden	_lv_ll_chg_list                 @ -- Begin function _lv_ll_chg_list
	.globl	_lv_ll_chg_list
	.p2align	1
	.type	_lv_ll_chg_list,%function
	.code	16                              @ @_lv_ll_chg_list
	.thumb_func
_lv_ll_chg_list:
.Lfunc_begin10:
	.loc	3 218 0                         @ ../GUILib/src/misc/lv_ll.c:218:0
	.fnstart
	.cfi_startproc
@ %bb.0:
	@DEBUG_VALUE: _lv_ll_chg_list:ll_ori_p <- $r0
	@DEBUG_VALUE: _lv_ll_chg_list:ll_new_p <- $r1
	@DEBUG_VALUE: _lv_ll_chg_list:node <- $r2
	@DEBUG_VALUE: _lv_ll_chg_list:head <- [DW_OP_LLVM_convert 1 7, DW_OP_LLVM_convert 8 7, DW_OP_stack_value] $r3
	.save	{r4, r5, r6, lr}
	push	{r4, r5, r6, lr}
	.cfi_def_cfa_offset 16
	.cfi_offset lr, -4
	.cfi_offset r6, -8
	.cfi_offset r5, -12
	.cfi_offset r4, -16
	mov	r5, r1
.Ltmp107:
	@DEBUG_VALUE: _lv_ll_chg_list:ll_new_p <- $r5
	@DEBUG_VALUE: _lv_ll_chg_list:head <- [DW_OP_LLVM_convert 1 7, DW_OP_LLVM_convert 8 7, DW_OP_stack_value] $r6
	@DEBUG_VALUE: _lv_ll_chg_list:node <- $r4
	@DEBUG_VALUE: _lv_ll_chg_list:ll_new_p <- $r5
	@DEBUG_VALUE: _lv_ll_chg_list:ll_ori_p <- $r0
	@DEBUG_VALUE: _lv_ll_chg_list:ll_ori_p <- $r0
	.loc	3 219 5 prologue_end            @ ../GUILib/src/misc/lv_ll.c:219:5
	mov	r1, r2
	mov	r6, r3
.Ltmp108:
	.loc	3 0 5 is_stmt 0                 @ ../GUILib/src/misc/lv_ll.c:0:5
	mov	r4, r2
.Ltmp109:
	.loc	3 219 5                         @ ../GUILib/src/misc/lv_ll.c:219:5
	bl	_lv_ll_remove
.Ltmp110:
	@DEBUG_VALUE: _lv_ll_chg_list:ll_ori_p <- [DW_OP_LLVM_entry_value 1] $r0
	.loc	3 221 8 is_stmt 1               @ ../GUILib/src/misc/lv_ll.c:221:8
	cbz	r6, .LBB10_3
.Ltmp111:
@ %bb.1:
	@DEBUG_VALUE: _lv_ll_chg_list:ll_new_p <- $r5
	@DEBUG_VALUE: _lv_ll_chg_list:ll_ori_p <- [DW_OP_LLVM_entry_value 1] $r0
	@DEBUG_VALUE: node_set_prev:ll_p <- $r5
	@DEBUG_VALUE: node_set_prev:act <- $r4
	@DEBUG_VALUE: node_set_prev:prev <- 0
	.loc	3 380 8                         @ ../GUILib/src/misc/lv_ll.c:380:8
	cbz	r4, .LBB10_9
.Ltmp112:
@ %bb.2:
	@DEBUG_VALUE: node_set_prev:ll_p <- $r5
	@DEBUG_VALUE: _lv_ll_chg_list:ll_new_p <- $r5
	@DEBUG_VALUE: node_set_prev:act <- $r4
	@DEBUG_VALUE: node_set_prev:prev <- 0
	@DEBUG_VALUE: _lv_ll_chg_list:ll_ori_p <- [DW_OP_LLVM_entry_value 1] $r0
	@DEBUG_VALUE: node_set_prev:act8 <- $r4
	.loc	3 384 13                        @ ../GUILib/src/misc/lv_ll.c:384:13
	ldr	r1, [r5]
	movs	r0, #0
.Ltmp113:
	@DEBUG_VALUE: node_set_prev:prev_node_p <- undef
	@DEBUG_VALUE: node_set_prev:act_node_p <- undef
	.loc	3 389 17                        @ ../GUILib/src/misc/lv_ll.c:389:17
	str	r0, [r4, r1]
.Ltmp114:
	.loc	3 224 49                        @ ../GUILib/src/misc/lv_ll.c:224:49
	mov	r0, r5
	ldr	r2, [r0, #4]!
.Ltmp115:
	@DEBUG_VALUE: node_set_next:act_node_p <- [DW_OP_plus_uconst 4, DW_OP_stack_value] undef
	@DEBUG_VALUE: node_set_next:next_node_p <- undef
	@DEBUG_VALUE: node_set_next:act8 <- [DW_OP_plus_uconst 4, DW_OP_stack_value] undef
	.loc	3 384 10                        @ ../GUILib/src/misc/lv_ll.c:384:10
	add	r1, r4
.Ltmp116:
	@DEBUG_VALUE: node_set_next:next <- $r2
	@DEBUG_VALUE: node_set_prev:act8 <- $r1
	@DEBUG_VALUE: node_set_prev:act8 <- $r4
	@DEBUG_VALUE: node_set_next:act <- $r4
	@DEBUG_VALUE: node_set_next:ll_p <- $r5
	.loc	3 407 17                        @ ../GUILib/src/misc/lv_ll.c:407:17
	str	r2, [r1, #4]
	b	.LBB10_10
.Ltmp117:
.LBB10_3:
	@DEBUG_VALUE: _lv_ll_chg_list:ll_new_p <- $r5
	@DEBUG_VALUE: _lv_ll_chg_list:ll_ori_p <- [DW_OP_LLVM_entry_value 1] $r0
	.loc	3 237 49                        @ ../GUILib/src/misc/lv_ll.c:237:49
	ldr	r0, [r5, #8]
.Ltmp118:
	@DEBUG_VALUE: node_set_prev:act <- $r4
	@DEBUG_VALUE: node_set_prev:ll_p <- $r5
	@DEBUG_VALUE: node_set_prev:prev <- $r0
	.loc	3 380 8                         @ ../GUILib/src/misc/lv_ll.c:380:8
	cbz	r4, .LBB10_5
.Ltmp119:
@ %bb.4:
	@DEBUG_VALUE: node_set_prev:ll_p <- $r5
	@DEBUG_VALUE: _lv_ll_chg_list:ll_new_p <- $r5
	@DEBUG_VALUE: node_set_prev:act <- $r4
	@DEBUG_VALUE: node_set_prev:prev <- $r0
	@DEBUG_VALUE: _lv_ll_chg_list:ll_ori_p <- [DW_OP_LLVM_entry_value 1] $r0
	@DEBUG_VALUE: node_set_prev:act8 <- $r4
	.loc	3 384 13                        @ ../GUILib/src/misc/lv_ll.c:384:13
	ldr	r1, [r5]
	.loc	3 384 10 is_stmt 0              @ ../GUILib/src/misc/lv_ll.c:384:10
	adds	r2, r4, r1
.Ltmp120:
	@DEBUG_VALUE: node_set_prev:prev_node_p <- undef
	@DEBUG_VALUE: node_set_prev:act_node_p <- $r2
	@DEBUG_VALUE: node_set_prev:act8 <- $r2
	.loc	3 389 17 is_stmt 1              @ ../GUILib/src/misc/lv_ll.c:389:17
	str	r0, [r4, r1]
	movs	r0, #0
.Ltmp121:
	@DEBUG_VALUE: node_set_next:act_node_p <- [DW_OP_plus_uconst 4, DW_OP_stack_value] $r2
	@DEBUG_VALUE: node_set_next:next_node_p <- undef
	@DEBUG_VALUE: node_set_next:act8 <- [DW_OP_plus_uconst 4, DW_OP_stack_value] $r2
	@DEBUG_VALUE: node_set_next:next <- 0
	@DEBUG_VALUE: node_set_next:act <- $r4
	@DEBUG_VALUE: node_set_next:ll_p <- $r5
	.loc	3 407 17                        @ ../GUILib/src/misc/lv_ll.c:407:17
	str	r0, [r2, #4]
.Ltmp122:
	.loc	3 240 22                        @ ../GUILib/src/misc/lv_ll.c:240:22
	ldr	r0, [r5, #8]
.Ltmp123:
.LBB10_5:
	@DEBUG_VALUE: _lv_ll_chg_list:ll_new_p <- $r5
	@DEBUG_VALUE: _lv_ll_chg_list:ll_ori_p <- [DW_OP_LLVM_entry_value 1] $r0
	.loc	3 240 12 is_stmt 0              @ ../GUILib/src/misc/lv_ll.c:240:12
	cbz	r0, .LBB10_7
.Ltmp124:
@ %bb.6:
	@DEBUG_VALUE: _lv_ll_chg_list:ll_new_p <- $r5
	@DEBUG_VALUE: _lv_ll_chg_list:ll_ori_p <- [DW_OP_LLVM_entry_value 1] $r0
	@DEBUG_VALUE: node_set_next:ll_p <- $r5
	@DEBUG_VALUE: node_set_next:act <- $r0
	@DEBUG_VALUE: node_set_next:next <- $r4
	@DEBUG_VALUE: node_set_next:act8 <- $r0
	.loc	3 403 13 is_stmt 1              @ ../GUILib/src/misc/lv_ll.c:403:13
	ldr	r1, [r5]
	add	r0, r1
.Ltmp125:
	@DEBUG_VALUE: node_set_next:act_node_p <- [DW_OP_plus_uconst 4, DW_OP_stack_value] $r0
	@DEBUG_VALUE: node_set_next:next_node_p <- undef
	@DEBUG_VALUE: node_set_next:act8 <- [DW_OP_plus_uconst 4, DW_OP_stack_value] $r0
	.loc	3 407 17                        @ ../GUILib/src/misc/lv_ll.c:407:17
	str	r4, [r0, #4]
.Ltmp126:
.LBB10_7:
	@DEBUG_VALUE: _lv_ll_chg_list:ll_new_p <- $r5
	@DEBUG_VALUE: _lv_ll_chg_list:ll_ori_p <- [DW_OP_LLVM_entry_value 1] $r0
	.loc	3 245 22                        @ ../GUILib/src/misc/lv_ll.c:245:22
	ldr	r0, [r5, #4]
.Ltmp127:
	.loc	3 244 24                        @ ../GUILib/src/misc/lv_ll.c:244:24
	str	r4, [r5, #8]
	.loc	3 245 12                        @ ../GUILib/src/misc/lv_ll.c:245:12
	cbz	r0, .LBB10_14
.Ltmp128:
.LBB10_8:
	@DEBUG_VALUE: _lv_ll_chg_list:ll_new_p <- $r5
	@DEBUG_VALUE: _lv_ll_chg_list:ll_ori_p <- [DW_OP_LLVM_entry_value 1] $r0
	.loc	3 249 1                         @ ../GUILib/src/misc/lv_ll.c:249:1
	pop	{r4, r5, r6, pc}
.Ltmp129:
.LBB10_9:
	@DEBUG_VALUE: _lv_ll_chg_list:ll_new_p <- $r5
	@DEBUG_VALUE: _lv_ll_chg_list:ll_ori_p <- [DW_OP_LLVM_entry_value 1] $r0
	.loc	3 224 49                        @ ../GUILib/src/misc/lv_ll.c:224:49
	adds	r0, r5, #4
	@DEBUG_VALUE: node_set_next:act <- $r4
	@DEBUG_VALUE: node_set_next:ll_p <- $r5
.Ltmp130:
.LBB10_10:
	@DEBUG_VALUE: _lv_ll_chg_list:ll_new_p <- $r5
	@DEBUG_VALUE: _lv_ll_chg_list:ll_ori_p <- [DW_OP_LLVM_entry_value 1] $r0
	.loc	3 226 22                        @ ../GUILib/src/misc/lv_ll.c:226:22
	ldr	r0, [r0]
.Ltmp131:
	.loc	3 226 12 is_stmt 0              @ ../GUILib/src/misc/lv_ll.c:226:12
	cbz	r0, .LBB10_12
.Ltmp132:
@ %bb.11:
	@DEBUG_VALUE: _lv_ll_chg_list:ll_new_p <- $r5
	@DEBUG_VALUE: _lv_ll_chg_list:ll_ori_p <- [DW_OP_LLVM_entry_value 1] $r0
	@DEBUG_VALUE: node_set_prev:ll_p <- $r5
	@DEBUG_VALUE: node_set_prev:act <- $r0
	@DEBUG_VALUE: node_set_prev:prev <- $r4
	@DEBUG_VALUE: node_set_prev:act8 <- $r0
	.loc	3 384 13 is_stmt 1              @ ../GUILib/src/misc/lv_ll.c:384:13
	ldr	r1, [r5]
.Ltmp133:
	@DEBUG_VALUE: node_set_prev:prev_node_p <- undef
	@DEBUG_VALUE: node_set_prev:act_node_p <- undef
	@DEBUG_VALUE: node_set_prev:act8 <- undef
	.loc	3 389 17                        @ ../GUILib/src/misc/lv_ll.c:389:17
	str	r4, [r0, r1]
.Ltmp134:
.LBB10_12:
	@DEBUG_VALUE: _lv_ll_chg_list:ll_new_p <- $r5
	@DEBUG_VALUE: _lv_ll_chg_list:ll_ori_p <- [DW_OP_LLVM_entry_value 1] $r0
	.loc	3 231 22                        @ ../GUILib/src/misc/lv_ll.c:231:22
	ldr	r0, [r5, #8]
.Ltmp135:
	.loc	3 230 24                        @ ../GUILib/src/misc/lv_ll.c:230:24
	str	r4, [r5, #4]
	.loc	3 231 12                        @ ../GUILib/src/misc/lv_ll.c:231:12
	cmp	r0, #0
	bne	.LBB10_8
.Ltmp136:
@ %bb.13:
	@DEBUG_VALUE: _lv_ll_chg_list:ll_new_p <- $r5
	@DEBUG_VALUE: _lv_ll_chg_list:ll_ori_p <- [DW_OP_LLVM_entry_value 1] $r0
	.loc	3 232 28                        @ ../GUILib/src/misc/lv_ll.c:232:28
	str	r4, [r5, #8]
.Ltmp137:
	.loc	3 249 1                         @ ../GUILib/src/misc/lv_ll.c:249:1
	pop	{r4, r5, r6, pc}
.Ltmp138:
.LBB10_14:
	@DEBUG_VALUE: _lv_ll_chg_list:ll_new_p <- $r5
	@DEBUG_VALUE: _lv_ll_chg_list:ll_ori_p <- [DW_OP_LLVM_entry_value 1] $r0
	.loc	3 246 28                        @ ../GUILib/src/misc/lv_ll.c:246:28
	str	r4, [r5, #4]
.Ltmp139:
	.loc	3 249 1                         @ ../GUILib/src/misc/lv_ll.c:249:1
	pop	{r4, r5, r6, pc}
.Ltmp140:
.Lfunc_end10:
	.size	_lv_ll_chg_list, .Lfunc_end10-_lv_ll_chg_list
	.cfi_endproc
	.cantunwind
	.fnend
                                        @ -- End function
	.section	.text._lv_ll_get_len,"ax",%progbits
	.hidden	_lv_ll_get_len                  @ -- Begin function _lv_ll_get_len
	.globl	_lv_ll_get_len
	.p2align	1
	.type	_lv_ll_get_len,%function
	.code	16                              @ @_lv_ll_get_len
	.thumb_func
_lv_ll_get_len:
.Lfunc_begin11:
	.loc	3 309 0                         @ ../GUILib/src/misc/lv_ll.c:309:0
	.fnstart
	.cfi_startproc
@ %bb.0:
	@DEBUG_VALUE: _lv_ll_get_len:ll_p <- $r0
	@DEBUG_VALUE: _lv_ll_get_len:ll_p <- $r0
	@DEBUG_VALUE: _lv_ll_get_head:ll_p <- $r0
	@DEBUG_VALUE: _lv_ll_get_head:ll_p <- $r0
	@DEBUG_VALUE: _lv_ll_get_len:len <- 0
	.loc	3 258 8 prologue_end            @ ../GUILib/src/misc/lv_ll.c:258:8
	cbz	r0, .LBB11_5
.Ltmp141:
@ %bb.1:
	@DEBUG_VALUE: _lv_ll_get_head:ll_p <- $r0
	@DEBUG_VALUE: _lv_ll_get_len:ll_p <- $r0
	@DEBUG_VALUE: _lv_ll_get_len:len <- 0
	.loc	3 259 18                        @ ../GUILib/src/misc/lv_ll.c:259:18
	ldr	r1, [r0, #4]
.Ltmp142:
	@DEBUG_VALUE: _lv_ll_get_len:node <- $r1
	@DEBUG_VALUE: _lv_ll_get_len:len <- 0
	.loc	3 313 5                         @ ../GUILib/src/misc/lv_ll.c:313:5
	cbz	r1, .LBB11_5
.Ltmp143:
@ %bb.2:
	@DEBUG_VALUE: _lv_ll_get_len:node <- $r1
	@DEBUG_VALUE: _lv_ll_get_head:ll_p <- $r0
	@DEBUG_VALUE: _lv_ll_get_len:ll_p <- $r0
	@DEBUG_VALUE: _lv_ll_get_len:len <- 0
	.loc	3 0 5 is_stmt 0                 @ ../GUILib/src/misc/lv_ll.c:0:5
	ldr	r0, [r0]
.Ltmp144:
	@DEBUG_VALUE: _lv_ll_get_len:ll_p <- [DW_OP_LLVM_entry_value 1] $r0
	adds	r2, r0, #4
	movs	r0, #0
.Ltmp145:
	.p2align	2
.LBB11_3:                               @ =>This Inner Loop Header: Depth=1
	@DEBUG_VALUE: _lv_ll_get_len:node <- $r1
	@DEBUG_VALUE: _lv_ll_get_len:ll_p <- [DW_OP_LLVM_entry_value 1] $r0
	@DEBUG_VALUE: _lv_ll_get_len:len <- $r0
	@DEBUG_VALUE: _lv_ll_get_len:node <- $r1
	.loc	3 285 12 is_stmt 1              @ ../GUILib/src/misc/lv_ll.c:285:12
	ldr	r1, [r1, r2]
.Ltmp146:
	@DEBUG_VALUE: _lv_ll_get_len:node <- $r1
	.loc	3 314 12                        @ ../GUILib/src/misc/lv_ll.c:314:12
	adds	r0, #1
.Ltmp147:
	@DEBUG_VALUE: _lv_ll_get_next:n_act_d <- undef
	@DEBUG_VALUE: _lv_ll_get_next:n_act <- $r1
	@DEBUG_VALUE: _lv_ll_get_next:ll_p <- undef
	@DEBUG_VALUE: _lv_ll_get_len:len <- $r0
	.loc	3 313 5                         @ ../GUILib/src/misc/lv_ll.c:313:5
	cmp	r1, #0
	bne	.LBB11_3
.Ltmp148:
@ %bb.4:
	@DEBUG_VALUE: _lv_ll_get_len:node <- $r1
	@DEBUG_VALUE: _lv_ll_get_len:len <- $r0
	@DEBUG_VALUE: _lv_ll_get_len:ll_p <- [DW_OP_LLVM_entry_value 1] $r0
	.loc	3 317 5                         @ ../GUILib/src/misc/lv_ll.c:317:5
	bx	lr
.Ltmp149:
.LBB11_5:
	@DEBUG_VALUE: _lv_ll_get_len:ll_p <- $r0
	@DEBUG_VALUE: _lv_ll_get_len:len <- 0
	.loc	3 0 5 is_stmt 0                 @ ../GUILib/src/misc/lv_ll.c:0:5
	movs	r0, #0
.Ltmp150:
	@DEBUG_VALUE: _lv_ll_get_len:ll_p <- [DW_OP_LLVM_entry_value 1] $r0
	.loc	3 317 5                         @ ../GUILib/src/misc/lv_ll.c:317:5
	bx	lr
.Ltmp151:
.Lfunc_end11:
	.size	_lv_ll_get_len, .Lfunc_end11-_lv_ll_get_len
	.cfi_endproc
	.cantunwind
	.fnend
                                        @ -- End function
	.section	.text._lv_ll_move_before,"ax",%progbits
	.hidden	_lv_ll_move_before              @ -- Begin function _lv_ll_move_before
	.globl	_lv_ll_move_before
	.p2align	1
	.type	_lv_ll_move_before,%function
	.code	16                              @ @_lv_ll_move_before
	.thumb_func
_lv_ll_move_before:
.Lfunc_begin12:
	.loc	3 327 0 is_stmt 1               @ ../GUILib/src/misc/lv_ll.c:327:0
	.fnstart
	.cfi_startproc
@ %bb.0:
	@DEBUG_VALUE: _lv_ll_move_before:ll_p <- $r0
	@DEBUG_VALUE: _lv_ll_move_before:n_act <- $r1
	@DEBUG_VALUE: _lv_ll_move_before:n_after <- $r2
	@DEBUG_VALUE: _lv_ll_move_before:n_after <- $r2
	@DEBUG_VALUE: _lv_ll_move_before:n_act <- $r1
	.save	{r4, r5, r6, r7, lr}
	push	{r4, r5, r6, r7, lr}
	.cfi_def_cfa_offset 20
	.cfi_offset lr, -4
	.cfi_offset r7, -8
	.cfi_offset r6, -12
	.cfi_offset r5, -16
	.cfi_offset r4, -20
	.pad	#4
	sub	sp, #4
	.cfi_def_cfa_offset 24
.Ltmp152:
	.loc	3 328 8 prologue_end            @ ../GUILib/src/misc/lv_ll.c:328:8
	cmp	r1, r2
	@DEBUG_VALUE: _lv_ll_move_before:ll_p <- $r0
	beq	.LBB12_21
.Ltmp153:
@ %bb.1:
	@DEBUG_VALUE: _lv_ll_move_before:n_after <- $r2
	@DEBUG_VALUE: _lv_ll_move_before:n_act <- $r1
	@DEBUG_VALUE: _lv_ll_move_before:ll_p <- $r0
	.loc	3 0 8 is_stmt 0                 @ ../GUILib/src/misc/lv_ll.c:0:8
	mov	r6, r2
.Ltmp154:
	@DEBUG_VALUE: _lv_ll_move_before:n_after <- $r6
	mov	r4, r1
.Ltmp155:
	@DEBUG_VALUE: _lv_ll_move_before:n_act <- $r4
	@DEBUG_VALUE: _lv_ll_move_before:n_act <- $r4
	mov	r5, r0
.Ltmp156:
	@DEBUG_VALUE: _lv_ll_move_before:ll_p <- $r5
	@DEBUG_VALUE: _lv_ll_move_before:ll_p <- $r5
	.loc	3 331 8 is_stmt 1               @ ../GUILib/src/misc/lv_ll.c:331:8
	cbz	r2, .LBB12_3
.Ltmp157:
@ %bb.2:
	@DEBUG_VALUE: _lv_ll_move_before:n_after <- $r6
	@DEBUG_VALUE: _lv_ll_move_before:ll_p <- $r5
	@DEBUG_VALUE: _lv_ll_move_before:n_act <- $r4
	@DEBUG_VALUE: _lv_ll_get_prev:ll_p <- $r5
	@DEBUG_VALUE: _lv_ll_get_prev:n_act <- $r6
	@DEBUG_VALUE: _lv_ll_get_prev:n_act_d <- $r6
	.loc	3 299 16                        @ ../GUILib/src/misc/lv_ll.c:299:16
	ldr	r0, [r5]
	.loc	3 299 13 is_stmt 0              @ ../GUILib/src/misc/lv_ll.c:299:13
	add	r0, r6
.Ltmp158:
	@DEBUG_VALUE: _lv_ll_move_before:n_before <- undef
	@DEBUG_VALUE: _lv_ll_get_prev:n_act_d <- $r0
	.loc	3 0 13                          @ ../GUILib/src/misc/lv_ll.c:0:13
	b	.LBB12_5
.Ltmp159:
.LBB12_3:
	@DEBUG_VALUE: _lv_ll_move_before:n_after <- $r6
	@DEBUG_VALUE: _lv_ll_move_before:ll_p <- $r5
	@DEBUG_VALUE: _lv_ll_move_before:n_act <- $r4
	@DEBUG_VALUE: _lv_ll_get_tail:ll_p <- $r5
	.loc	3 269 8 is_stmt 1               @ ../GUILib/src/misc/lv_ll.c:269:8
	cbz	r5, .LBB12_10
.Ltmp160:
@ %bb.4:
	@DEBUG_VALUE: _lv_ll_move_before:n_after <- $r6
	@DEBUG_VALUE: _lv_ll_get_tail:ll_p <- $r5
	@DEBUG_VALUE: _lv_ll_move_before:ll_p <- $r5
	@DEBUG_VALUE: _lv_ll_move_before:n_act <- $r4
	.loc	3 270 18                        @ ../GUILib/src/misc/lv_ll.c:270:18
	add.w	r0, r5, #8
.Ltmp161:
.LBB12_5:
	@DEBUG_VALUE: _lv_ll_move_before:n_after <- $r6
	@DEBUG_VALUE: _lv_ll_move_before:ll_p <- $r5
	@DEBUG_VALUE: _lv_ll_move_before:n_act <- $r4
	.loc	3 0 0 is_stmt 0                 @ ../GUILib/src/misc/lv_ll.c:0:0
	ldr	r7, [r0]
.Ltmp162:
	@DEBUG_VALUE: node_set_next:act <- $r7
	@DEBUG_VALUE: node_set_prev:prev <- $r7
	@DEBUG_VALUE: _lv_ll_move_before:n_before <- $r7
	.loc	3 336 8 is_stmt 1               @ ../GUILib/src/misc/lv_ll.c:336:8
	cmp	r7, r4
	beq	.LBB12_21
.Ltmp163:
@ %bb.6:
	@DEBUG_VALUE: _lv_ll_move_before:n_before <- $r7
	@DEBUG_VALUE: node_set_next:act <- $r7
	@DEBUG_VALUE: _lv_ll_move_before:n_after <- $r6
	@DEBUG_VALUE: _lv_ll_move_before:ll_p <- $r5
	@DEBUG_VALUE: _lv_ll_move_before:n_act <- $r4
	.loc	3 339 5                         @ ../GUILib/src/misc/lv_ll.c:339:5
	mov	r0, r5
	mov	r1, r4
	bl	_lv_ll_remove
.Ltmp164:
	@DEBUG_VALUE: node_set_next:next <- $r4
	@DEBUG_VALUE: node_set_next:ll_p <- $r5
	@DEBUG_VALUE: node_set_next:act <- $r7
	.loc	3 400 12                        @ ../GUILib/src/misc/lv_ll.c:400:12
	clz	r0, r7
	lsr.w	r0, r0, #5
	cbz	r7, .LBB12_8
.Ltmp165:
@ %bb.7:
	@DEBUG_VALUE: _lv_ll_move_before:n_before <- $r7
	@DEBUG_VALUE: node_set_next:act <- $r7
	@DEBUG_VALUE: _lv_ll_move_before:n_after <- $r6
	@DEBUG_VALUE: node_set_next:ll_p <- $r5
	@DEBUG_VALUE: _lv_ll_move_before:ll_p <- $r5
	@DEBUG_VALUE: node_set_next:next <- $r4
	@DEBUG_VALUE: _lv_ll_move_before:n_act <- $r4
	@DEBUG_VALUE: node_set_next:act8 <- $r7
	.loc	3 403 13                        @ ../GUILib/src/misc/lv_ll.c:403:13
	ldr	r1, [r5]
	add	r1, r7
.Ltmp166:
	@DEBUG_VALUE: node_set_next:act_node_p <- [DW_OP_plus_uconst 4, DW_OP_stack_value] $r1
	@DEBUG_VALUE: node_set_next:next_node_p <- undef
	@DEBUG_VALUE: node_set_next:act8 <- [DW_OP_plus_uconst 4, DW_OP_stack_value] $r1
	.loc	3 407 17                        @ ../GUILib/src/misc/lv_ll.c:407:17
	str	r4, [r1, #4]
.Ltmp167:
.LBB12_8:
	@DEBUG_VALUE: _lv_ll_move_before:n_before <- $r7
	@DEBUG_VALUE: _lv_ll_move_before:n_after <- $r6
	@DEBUG_VALUE: _lv_ll_move_before:ll_p <- $r5
	@DEBUG_VALUE: _lv_ll_move_before:n_act <- $r4
	@DEBUG_VALUE: node_set_prev:prev <- $r7
	@DEBUG_VALUE: node_set_prev:ll_p <- $r5
	@DEBUG_VALUE: node_set_prev:act <- $r4
	.loc	3 0 17 is_stmt 0                @ ../GUILib/src/misc/lv_ll.c:0:17
	cbnz	r4, .LBB12_12
.Ltmp168:
@ %bb.9:
	@DEBUG_VALUE: _lv_ll_move_before:n_before <- $r7
	@DEBUG_VALUE: node_set_prev:prev <- $r7
	@DEBUG_VALUE: _lv_ll_move_before:n_after <- $r6
	@DEBUG_VALUE: node_set_prev:ll_p <- $r5
	@DEBUG_VALUE: _lv_ll_move_before:ll_p <- $r5
	@DEBUG_VALUE: node_set_prev:act <- $r4
	@DEBUG_VALUE: _lv_ll_move_before:n_act <- $r4
	movs	r1, #1
	b	.LBB12_13
.Ltmp169:
.LBB12_10:
	@DEBUG_VALUE: _lv_ll_move_before:n_after <- $r6
	@DEBUG_VALUE: _lv_ll_move_before:ll_p <- $r5
	@DEBUG_VALUE: _lv_ll_move_before:n_act <- $r4
	.loc	3 336 8 is_stmt 1               @ ../GUILib/src/misc/lv_ll.c:336:8
	cbz	r4, .LBB12_21
.Ltmp170:
@ %bb.11:
	@DEBUG_VALUE: _lv_ll_move_before:n_after <- $r6
	@DEBUG_VALUE: _lv_ll_move_before:ll_p <- $r5
	@DEBUG_VALUE: _lv_ll_move_before:n_act <- $r4
	.loc	3 339 5                         @ ../GUILib/src/misc/lv_ll.c:339:5
	movs	r0, #0
	mov	r1, r4
	movs	r7, #0
	bl	_lv_ll_remove
.Ltmp171:
	.loc	3 0 5 is_stmt 0                 @ ../GUILib/src/misc/lv_ll.c:0:5
	movs	r0, #1
	@DEBUG_VALUE: node_set_prev:act <- $r4
	@DEBUG_VALUE: node_set_prev:ll_p <- $r5
	@DEBUG_VALUE: node_set_next:next <- $r4
	@DEBUG_VALUE: node_set_next:ll_p <- $r5
.Ltmp172:
.LBB12_12:
	@DEBUG_VALUE: _lv_ll_move_before:n_after <- $r6
	@DEBUG_VALUE: node_set_prev:ll_p <- $r5
	@DEBUG_VALUE: _lv_ll_move_before:ll_p <- $r5
	@DEBUG_VALUE: node_set_prev:act <- $r4
	@DEBUG_VALUE: _lv_ll_move_before:n_act <- $r4
	@DEBUG_VALUE: node_set_prev:act8 <- $r4
	.loc	3 384 13 is_stmt 1              @ ../GUILib/src/misc/lv_ll.c:384:13
	ldr	r1, [r5]
.Ltmp173:
	@DEBUG_VALUE: node_set_prev:prev_node_p <- undef
	@DEBUG_VALUE: node_set_prev:act_node_p <- undef
	@DEBUG_VALUE: node_set_prev:act8 <- undef
	.loc	3 389 17                        @ ../GUILib/src/misc/lv_ll.c:389:17
	str	r7, [r4, r1]
	movs	r1, #0
.Ltmp174:
.LBB12_13:
	@DEBUG_VALUE: _lv_ll_move_before:n_after <- $r6
	@DEBUG_VALUE: _lv_ll_move_before:ll_p <- $r5
	@DEBUG_VALUE: _lv_ll_move_before:n_act <- $r4
	@DEBUG_VALUE: node_set_prev:ll_p <- $r5
	@DEBUG_VALUE: node_set_prev:act <- $r6
	@DEBUG_VALUE: node_set_prev:prev <- $r4
	.loc	3 380 8                         @ ../GUILib/src/misc/lv_ll.c:380:8
	cbz	r6, .LBB12_15
.Ltmp175:
@ %bb.14:
	@DEBUG_VALUE: node_set_prev:act <- $r6
	@DEBUG_VALUE: _lv_ll_move_before:n_after <- $r6
	@DEBUG_VALUE: node_set_prev:ll_p <- $r5
	@DEBUG_VALUE: _lv_ll_move_before:ll_p <- $r5
	@DEBUG_VALUE: node_set_prev:prev <- $r4
	@DEBUG_VALUE: _lv_ll_move_before:n_act <- $r4
	@DEBUG_VALUE: node_set_prev:act8 <- $r6
	.loc	3 384 13                        @ ../GUILib/src/misc/lv_ll.c:384:13
	ldr	r2, [r5]
.Ltmp176:
	@DEBUG_VALUE: node_set_prev:prev_node_p <- undef
	@DEBUG_VALUE: node_set_prev:act_node_p <- undef
	@DEBUG_VALUE: node_set_prev:act8 <- undef
	.loc	3 389 17                        @ ../GUILib/src/misc/lv_ll.c:389:17
	str	r4, [r6, r2]
.Ltmp177:
.LBB12_15:
	@DEBUG_VALUE: _lv_ll_move_before:n_after <- $r6
	@DEBUG_VALUE: _lv_ll_move_before:ll_p <- $r5
	@DEBUG_VALUE: _lv_ll_move_before:n_act <- $r4
	@DEBUG_VALUE: node_set_next:ll_p <- $r5
	@DEBUG_VALUE: node_set_next:act <- $r4
	@DEBUG_VALUE: node_set_next:next <- $r6
	.loc	3 400 8                         @ ../GUILib/src/misc/lv_ll.c:400:8
	cbnz	r1, .LBB12_17
.Ltmp178:
@ %bb.16:
	@DEBUG_VALUE: node_set_next:next <- $r6
	@DEBUG_VALUE: _lv_ll_move_before:n_after <- $r6
	@DEBUG_VALUE: node_set_next:ll_p <- $r5
	@DEBUG_VALUE: _lv_ll_move_before:ll_p <- $r5
	@DEBUG_VALUE: node_set_next:act <- $r4
	@DEBUG_VALUE: _lv_ll_move_before:n_act <- $r4
	@DEBUG_VALUE: node_set_next:act8 <- $r4
	.loc	3 403 13                        @ ../GUILib/src/misc/lv_ll.c:403:13
	ldr	r1, [r5]
	add	r1, r4
.Ltmp179:
	@DEBUG_VALUE: node_set_next:act_node_p <- [DW_OP_plus_uconst 4, DW_OP_stack_value] $r1
	@DEBUG_VALUE: node_set_next:next_node_p <- undef
	@DEBUG_VALUE: node_set_next:act8 <- [DW_OP_plus_uconst 4, DW_OP_stack_value] $r1
	.loc	3 407 17                        @ ../GUILib/src/misc/lv_ll.c:407:17
	str	r6, [r1, #4]
.Ltmp180:
.LBB12_17:
	@DEBUG_VALUE: _lv_ll_move_before:n_after <- $r6
	@DEBUG_VALUE: _lv_ll_move_before:ll_p <- $r5
	@DEBUG_VALUE: _lv_ll_move_before:n_act <- $r4
	.loc	3 348 8                         @ ../GUILib/src/misc/lv_ll.c:348:8
	cbnz	r6, .LBB12_19
.Ltmp181:
@ %bb.18:
	@DEBUG_VALUE: _lv_ll_move_before:n_after <- $r6
	@DEBUG_VALUE: _lv_ll_move_before:ll_p <- $r5
	@DEBUG_VALUE: _lv_ll_move_before:n_act <- $r4
	.loc	3 348 36 is_stmt 0              @ ../GUILib/src/misc/lv_ll.c:348:36
	str	r4, [r5, #8]
.Ltmp182:
.LBB12_19:
	@DEBUG_VALUE: _lv_ll_move_before:n_after <- $r6
	@DEBUG_VALUE: _lv_ll_move_before:ll_p <- $r5
	@DEBUG_VALUE: _lv_ll_move_before:n_act <- $r4
	.loc	3 351 8 is_stmt 1               @ ../GUILib/src/misc/lv_ll.c:351:8
	cbz	r0, .LBB12_21
.Ltmp183:
@ %bb.20:
	@DEBUG_VALUE: _lv_ll_move_before:n_after <- $r6
	@DEBUG_VALUE: _lv_ll_move_before:ll_p <- $r5
	@DEBUG_VALUE: _lv_ll_move_before:n_act <- $r4
	.loc	3 351 37 is_stmt 0              @ ../GUILib/src/misc/lv_ll.c:351:37
	str	r4, [r5, #4]
.Ltmp184:
.LBB12_21:
	.loc	3 352 1 is_stmt 1               @ ../GUILib/src/misc/lv_ll.c:352:1
	add	sp, #4
	pop	{r4, r5, r6, r7, pc}
.Ltmp185:
.Lfunc_end12:
	.size	_lv_ll_move_before, .Lfunc_end12-_lv_ll_move_before
	.cfi_endproc
	.cantunwind
	.fnend
                                        @ -- End function
	.section	.text._lv_ll_is_empty,"ax",%progbits
	.hidden	_lv_ll_is_empty                 @ -- Begin function _lv_ll_is_empty
	.globl	_lv_ll_is_empty
	.p2align	1
	.type	_lv_ll_is_empty,%function
	.code	16                              @ @_lv_ll_is_empty
	.thumb_func
_lv_ll_is_empty:
.Lfunc_begin13:
	.loc	3 360 0                         @ ../GUILib/src/misc/lv_ll.c:360:0
	.fnstart
	.cfi_startproc
@ %bb.0:
	@DEBUG_VALUE: _lv_ll_is_empty:ll_p <- $r0
	@DEBUG_VALUE: _lv_ll_is_empty:ll_p <- $r0
	.loc	3 361 8 prologue_end            @ ../GUILib/src/misc/lv_ll.c:361:8
	cbz	r0, .LBB13_4
.Ltmp186:
@ %bb.1:
	@DEBUG_VALUE: _lv_ll_is_empty:ll_p <- $r0
	.loc	3 363 14                        @ ../GUILib/src/misc/lv_ll.c:363:14
	ldr	r1, [r0, #4]
	.loc	3 363 27 is_stmt 0              @ ../GUILib/src/misc/lv_ll.c:363:27
	cbnz	r1, .LBB13_3
.Ltmp187:
@ %bb.2:
	@DEBUG_VALUE: _lv_ll_is_empty:ll_p <- $r0
	.loc	3 363 36                        @ ../GUILib/src/misc/lv_ll.c:363:36
	ldr	r0, [r0, #8]
.Ltmp188:
	@DEBUG_VALUE: _lv_ll_is_empty:ll_p <- [DW_OP_LLVM_entry_value 1] $r0
	.loc	3 363 8                         @ ../GUILib/src/misc/lv_ll.c:363:8
	cbz	r0, .LBB13_4
.Ltmp189:
.LBB13_3:
	.loc	3 0 8                           @ ../GUILib/src/misc/lv_ll.c:0:8
	movs	r0, #0
	.loc	3 366 1 is_stmt 1               @ ../GUILib/src/misc/lv_ll.c:366:1
	bx	lr
.LBB13_4:
	.loc	3 0 1 is_stmt 0                 @ ../GUILib/src/misc/lv_ll.c:0:1
	movs	r0, #1
	.loc	3 366 1                         @ ../GUILib/src/misc/lv_ll.c:366:1
	bx	lr
.Ltmp190:
.Lfunc_end13:
	.size	_lv_ll_is_empty, .Lfunc_end13-_lv_ll_is_empty
	.cfi_endproc
	.cantunwind
	.fnend
                                        @ -- End function
	.section	".note.GNU-stack","",%progbits
	.eabi_attribute	30, 3	@ Tag_ABI_optimization_goals
	.ARM_attribute	16, 1	@ Tag_AV_eba