	.text
	.syntax unified
	.eabi_attribute	67, "2.09"	@ Tag_conformance
	.cpu	cortex-m4
	.eabi_attribute	6, 13	@ Tag_CPU_arch
	.eabi_attribute	7, 77	@ Tag_CPU_arch_profile
	.eabi_attribute	8, 0	@ Tag_ARM_ISA_use
	.eabi_attribute	9, 2	@ Tag_THUMB_ISA_use
	.fpu	fpv4-sp-d16
	.eabi_attribute	27, 1	@ Tag_ABI_HardFP_use
	.eabi_attribute	36, 1	@ Tag_FP_HP_extension
	.eabi_attribute	34, 1	@ Tag_CPU_unaligned_access
	.eabi_attribute	17, 1	@ Tag_ABI_PCS_GOT_use
	.eabi_attribute	20, 2	@ Tag_ABI_FP_denormal
	.eabi_attribute	21, 0	@ Tag_ABI_FP_exceptions
	.eabi_attribute	23, 1	@ Tag_ABI_FP_number_model
	.eabi_attribute	24, 1	@ Tag_ABI_align_needed
	.eabi_attribute	25, 1	@ Tag_ABI_align_preserved
	.eabi_attribute	28, 1	@ Tag_ABI_VFP_args
	.eabi_attribute	38, 1	@ Tag_ABI_FP_16bit_format
	.eabi_attribute	18, 2	@ Tag_ABI_PCS_wchar_t
	.eabi_attribute	26, 1	@ Tag_ABI_enum_size
	.eabi_attribute	14, 0	@ Tag_ABI_PCS_R9_use
	.file	"lv_list.c"
	.file	1 "C:\\Users\\Hyacincher\\Desktop\\HyTelectrl\\Code\\Project" "../GUILib/src/extra/widgets/list/../../../core/lv_obj_class.h"
	.file	2 "C:\\Users\\Hyacincher\\Desktop\\HyTelectrl\\Code\\Project" "../GUILib/src/extra/widgets/list/../../../widgets/../core/lv_obj.h"
	.file	3 "D:\\Keil MDK\\ARM\\ARMCLANG\\Bin\\..\\include" "stdint.h"
	.file	4 "C:\\Users\\Hyacincher\\Desktop\\HyTelectrl\\Code\\Project" "../GUILib/src/extra/widgets/list/../../../core/../misc/lv_ll.h"
	.file	5 "C:\\Users\\Hyacincher\\Desktop\\HyTelectrl\\Code\\Project" "../GUILib/src/extra/widgets/list/../../../core/lv_group.h"
	.file	6 "C:\\Users\\Hyacincher\\Desktop\\HyTelectrl\\Code\\Project" "../GUILib/src/hal/../misc/lv_area.h"
	.file	7 "C:\\Users\\Hyacincher\\Desktop\\HyTelectrl\\Code\\Project" "../GUILib/src/extra/widgets/list/../../../core/lv_obj_scroll.h"
	.file	8 "C:\\Users\\Hyacincher\\Desktop\\HyTelectrl\\Code\\Project" "../GUILib/src/hal/../draw/../misc/lv_style.h"
	.file	9 "C:\\Users\\Hyacincher\\Desktop\\HyTelectrl\\Code\\Project" "../GUILib/src/hal/../misc/lv_color.h"
	.file	10 "C:\\Users\\Hyacincher\\Desktop\\HyTelectrl\\Code\\Project" "../GUILib/src/extra/widgets/list/../../../core/lv_obj_style.h"
	.file	11 "C:\\Users\\Hyacincher\\Desktop\\HyTelectrl\\Code\\Project" "../GUILib/src/extra/widgets/list/../../../core/lv_event.h"
	.file	12 "C:\\Users\\Hyacincher\\Desktop\\HyTelectrl\\Code\\Project" "../GUILib/src/extra/widgets/list/lv_list.c"
	.file	13 "C:\\Users\\Hyacincher\\Desktop\\HyTelectrl\\Code\\Project" "../GUILib/src/extra/widgets/list/../../layouts/flex/lv_flex.h"
	.file	14 "C:\\Users\\Hyacincher\\Desktop\\HyTelectrl\\Code\\Project" "../GUILib/src/extra/widgets/list/../../../widgets/lv_label.h"
	.section	.text.lv_list_create,"ax",%progbits
	.hidden	lv_list_create                  @ -- Begin function lv_list_create
	.globl	lv_list_create
	.p2align	1
	.type	lv_list_create,%function
	.code	16                              @ @lv_list_create
	.thumb_func
lv_list_create:
.Lfunc_begin0:
	.loc	12 57 0                         @ ../GUILib/src/extra/widgets/list/lv_list.c:57:0
	.fnstart
	.cfi_sections .debug_frame
	.cfi_startproc
@ %bb.0:
	@DEBUG_VALUE: lv_list_create:parent <- $r0
	.save	{r4, lr}
	push	{r4, lr}
	.cfi_def_cfa_offset 8
	.cfi_offset lr, -4
	.cfi_offset r4, -8
	mov	r1, r0
.Ltmp0:
	@DEBUG_VALUE: lv_list_create:parent <- $r1
	.loc	12 59 22 prologue_end           @ ../GUILib/src/extra/widgets/list/lv_list.c:59:22
	movw	r0, :lower16:lv_list_class
	movt	r0, :upper16:lv_list_class
	@DEBUG_VALUE: lv_list_create:parent <- $r1
	bl	lv_obj_class_create_obj
.Ltmp1:
	mov	r4, r0
.Ltmp2:
	@DEBUG_VALUE: lv_list_create:obj <- $r4
	.loc	12 60 5                         @ ../GUILib/src/extra/widgets/list/lv_list.c:60:5
	bl	lv_obj_class_init_obj
.Ltmp3:
	.loc	12 61 5                         @ ../GUILib/src/extra/widgets/list/lv_list.c:61:5
	mov	r0, r4
	movs	r1, #1
	bl	lv_obj_set_flex_flow
.Ltmp4:
	.loc	12 62 5                         @ ../GUILib/src/extra/widgets/list/lv_list.c:62:5
	mov	r0, r4
	pop	{r4, pc}
.Ltmp5:
.Lfunc_end0:
	.size	lv_list_create, .Lfunc_end0-lv_list_create
	.cfi_endproc
	.cantunwind
	.fnend
                                        @ -- End function
	.section	.text.lv_list_add_text,"ax",%progbits
	.hidden	lv_list_add_text                @ -- Begin function lv_list_add_text
	.globl	lv_list_add_text
	.p2align	1
	.type	lv_list_add_text,%function
	.code	16                              @ @lv_list_add_text
	.thumb_func
lv_list_add_text:
.Lfunc_begin1:
	.loc	12 66 0                         @ ../GUILib/src/extra/widgets/list/lv_list.c:66:0
	.fnstart
	.cfi_startproc
@ %bb.0:
	@DEBUG_VALUE: lv_list_add_text:list <- $r0
	@DEBUG_VALUE: lv_list_add_text:txt <- $r1
	.save	{r4, r5, r7, lr}
	push	{r4, r5, r7, lr}
	.cfi_def_cfa_offset 16
	.cfi_offset lr, -4
	.cfi_offset r7, -8
	.cfi_offset r5, -12
	.cfi_offset r4, -16
	mov	r4, r1
.Ltmp6:
	@DEBUG_VALUE: lv_list_add_text:txt <- $r4
	mov	r1, r0
	@DEBUG_VALUE: lv_list_add_text:txt <- $r4
.Ltmp7:
	@DEBUG_VALUE: lv_list_add_text:list <- $r1
	.loc	12 68 22 prologue_end           @ ../GUILib/src/extra/widgets/list/lv_list.c:68:22
	movw	r0, :lower16:lv_list_text_class
	movt	r0, :upper16:lv_list_text_class
	@DEBUG_VALUE: lv_list_add_text:list <- $r1
	bl	lv_obj_class_create_obj
.Ltmp8:
	mov	r5, r0
.Ltmp9:
	@DEBUG_VALUE: lv_list_add_text:obj <- $r5
	.loc	12 69 5                         @ ../GUILib/src/extra/widgets/list/lv_list.c:69:5
	bl	lv_obj_class_init_obj
.Ltmp10:
	.loc	12 70 5                         @ ../GUILib/src/extra/widgets/list/lv_list.c:70:5
	mov	r0, r5
	mov	r1, r4
.Ltmp11:
	@DEBUG_VALUE: lv_list_add_text:txt <- $r1
	bl	lv_label_set_text
.Ltmp12:
	.loc	12 71 5                         @ ../GUILib/src/extra/widgets/list/lv_list.c:71:5
	mov	r0, r5
	movs	r1, #3
	bl	lv_label_set_long_mode
.Ltmp13:
	.loc	12 72 5                         @ ../GUILib/src/extra/widgets/list/lv_list.c:72:5
	mov	r0, r5
	movw	r1, #8292
	bl	lv_obj_set_width
.Ltmp14:
	.loc	12 73 5                         @ ../GUILib/src/extra/widgets/list/lv_list.c:73:5
	mov	r0, r5
	pop	{r4, r5, r7, pc}
.Ltmp15:
.Lfunc_end1:
	.size	lv_list_add_text, .Lfunc_end1-lv_list_add_text
	.cfi_endproc
	.cantunwind
	.fnend
                                        @ -- End function
	.section	.text.lv_list_add_btn,"ax",%progbits
	.hidden	lv_list_add_btn                 @ -- Begin function lv_list_add_btn
	.globl	lv_list_add_btn
	.p2align	1
	.type	lv_list_add_btn,%function
	.code	16                              @ @lv_list_add_btn
	.thumb_func
lv_list_add_btn:
.Lfunc_begin2:
	.loc	12 77 0                         @ ../GUILib/src/extra/widgets/list/lv_list.c:77:0
	.fnstart
	.cfi_startproc
@ %bb.0:
	@DEBUG_VALUE: lv_list_add_btn:list <- $r0
	@DEBUG_VALUE: lv_list_add_btn:icon <- $r1
	@DEBUG_VALUE: lv_list_add_btn:txt <- $r2
	.save	{r4, r5, r6, lr}
	push	{r4, r5, r6, lr}
	.cfi_def_cfa_offset 16
	.cfi_offset lr, -4
	.cfi_offset r6, -8
	.cfi_offset r5, -12
	.cfi_offset r4, -16
	mov	r6, r1
.Ltmp16:
	@DEBUG_VALUE: lv_list_add_btn:icon <- $r6
	mov	r1, r0
.Ltmp17:
	@DEBUG_VALUE: lv_list_add_btn:txt <- $r5
	@DEBUG_VALUE: lv_list_add_btn:icon <- $r6
	@DEBUG_VALUE: lv_list_add_btn:list <- $r1
	.loc	12 79 22 prologue_end           @ ../GUILib/src/extra/widgets/list/lv_list.c:79:22
	movw	r0, :lower16:lv_list_btn_class
	movt	r0, :upper16:lv_list_btn_class
	@DEBUG_VALUE: lv_list_add_btn:list <- $r1
	mov	r5, r2
.Ltmp18:
	bl	lv_obj_class_create_obj
.Ltmp19:
	mov	r4, r0
.Ltmp20:
	@DEBUG_VALUE: lv_list_add_btn:obj <- $r4
	.loc	12 80 5                         @ ../GUILib/src/extra/widgets/list/lv_list.c:80:5
	bl	lv_obj_class_init_obj
.Ltmp21:
	.loc	12 81 5                         @ ../GUILib/src/extra/widgets/list/lv_list.c:81:5
	mov	r0, r4
	movw	r1, #8292
	movw	r2, #10193
	bl	lv_obj_set_size
.Ltmp22:
	.loc	12 82 5                         @ ../GUILib/src/extra/widgets/list/lv_list.c:82:5
	mov	r0, r4
	movs	r1, #0
	bl	lv_obj_set_flex_flow
.Ltmp23:
	.loc	12 84 8                         @ ../GUILib/src/extra/widgets/list/lv_list.c:84:8
	cbz	r6, .LBB2_2
.Ltmp24:
@ %bb.1:
	@DEBUG_VALUE: lv_list_add_btn:icon <- $r6
	@DEBUG_VALUE: lv_list_add_btn:obj <- $r4
	.loc	12 85 26                        @ ../GUILib/src/extra/widgets/list/lv_list.c:85:26
	mov	r0, r4
	bl	lv_img_create
.Ltmp25:
	@DEBUG_VALUE: img <- $r0
	.loc	12 86 9                         @ ../GUILib/src/extra/widgets/list/lv_list.c:86:9
	mov	r1, r6
	bl	lv_img_set_src
.Ltmp26:
.LBB2_2:
	@DEBUG_VALUE: lv_list_add_btn:icon <- $r6
	@DEBUG_VALUE: lv_list_add_btn:obj <- $r4
	.loc	12 89 8                         @ ../GUILib/src/extra/widgets/list/lv_list.c:89:8
	cbz	r5, .LBB2_4
.Ltmp27:
@ %bb.3:
	@DEBUG_VALUE: lv_list_add_btn:icon <- $r6
	@DEBUG_VALUE: lv_list_add_btn:obj <- $r4
	.loc	12 90 28                        @ ../GUILib/src/extra/widgets/list/lv_list.c:90:28
	mov	r0, r4
	bl	lv_label_create
.Ltmp28:
	.loc	12 91 9                         @ ../GUILib/src/extra/widgets/list/lv_list.c:91:9
	mov	r1, r5
	.loc	12 90 28                        @ ../GUILib/src/extra/widgets/list/lv_list.c:90:28
	mov	r6, r0
.Ltmp29:
	@DEBUG_VALUE: label <- $r6
	.loc	12 91 9                         @ ../GUILib/src/extra/widgets/list/lv_list.c:91:9
	bl	lv_label_set_text
.Ltmp30:
	.loc	12 92 9                         @ ../GUILib/src/extra/widgets/list/lv_list.c:92:9
	mov	r0, r6
	movs	r1, #3
	bl	lv_label_set_long_mode
.Ltmp31:
	.loc	12 93 9                         @ ../GUILib/src/extra/widgets/list/lv_list.c:93:9
	mov	r0, r6
	movs	r1, #1
	bl	lv_obj_set_flex_grow
.Ltmp32:
.LBB2_4:
	@DEBUG_VALUE: lv_list_add_btn:obj <- $r4
	.loc	12 96 5                         @ ../GUILib/src/extra/widgets/list/lv_list.c:96:5
	mov	r0, r4
	pop	{r4, r5, r6, pc}
.Ltmp33:
.Lfunc_end2:
	.size	lv_list_add_btn, .Lfunc_end2-lv_list_add_btn
	.cfi_endproc
	.cantunwind
	.fnend
                                        @ -- End function
	.section	.text.lv_list_get_btn_text,"ax",%progbits
	.hidden	lv_list_get_btn_text            @ -- Begin function lv_list_get_btn_text
	.globl	lv_list_get_btn_text
	.p2align	1
	.type	lv_list_get_btn_text,%function
	.code	16                              @ @lv_list_get_btn_text
	.thumb_func
lv_list_get_btn_text:
.Lfunc_begin3:
	.loc	12 100 0                        @ ../GUILib/src/extra/widgets/list/lv_list.c:100:0
	.fnstart
	.cfi_startproc
@ %bb.0:
	@DEBUG_VALUE: lv_list_get_btn_text:list <- $r0
	@DEBUG_VALUE: lv_list_get_btn_text:btn <- $r1
	.save	{r4, r5, r6, r7, lr}
	push	{r4, r5, r6, r7, lr}
	.cfi_def_cfa_offset 20
	.cfi_offset lr, -4
	.cfi_offset r7, -8
	.cfi_offset r6, -12
	.cfi_offset r5, -16
	.cfi_offset r4, -20
	.pad	#4
	sub	sp, #4
	.cfi_def_cfa_offset 24
.Ltmp34:
	.loc	12 103 20 prologue_end          @ ../GUILib/src/extra/widgets/list/lv_list.c:103:20
	mov	r0, r1
.Ltmp35:
	@DEBUG_VALUE: lv_list_get_btn_text:list <- [DW_OP_LLVM_entry_value 1] $r0
	.loc	12 0 20 is_stmt 0               @ ../GUILib/src/extra/widgets/list/lv_list.c:0:20
	mov	r4, r1
.Ltmp36:
	@DEBUG_VALUE: lv_list_get_btn_text:btn <- $r4
	@DEBUG_VALUE: lv_list_get_btn_text:i <- 0
	@DEBUG_VALUE: lv_list_get_btn_text:btn <- $r4
	.loc	12 103 20                       @ ../GUILib/src/extra/widgets/list/lv_list.c:103:20
	bl	lv_obj_get_child_cnt
.Ltmp37:
	.loc	12 103 5                        @ ../GUILib/src/extra/widgets/list/lv_list.c:103:5
	cbz	r0, .LBB3_4
.Ltmp38:
@ %bb.1:
	@DEBUG_VALUE: lv_list_get_btn_text:btn <- $r4
	@DEBUG_VALUE: lv_list_get_btn_text:i <- 0
	@DEBUG_VALUE: lv_list_get_btn_text:list <- [DW_OP_LLVM_entry_value 1] $r0
	.loc	12 0 5                          @ ../GUILib/src/extra/widgets/list/lv_list.c:0:5
	movw	r6, :lower16:lv_label_class
	movs	r5, #0
	movt	r6, :upper16:lv_label_class
.Ltmp39:
	.p2align	2
.LBB3_2:                                @ =>This Inner Loop Header: Depth=1
	@DEBUG_VALUE: lv_list_get_btn_text:btn <- $r4
	@DEBUG_VALUE: lv_list_get_btn_text:list <- [DW_OP_LLVM_entry_value 1] $r0
	@DEBUG_VALUE: lv_list_get_btn_text:i <- $r5
	.loc	12 104 28 is_stmt 1             @ ../GUILib/src/extra/widgets/list/lv_list.c:104:28
	mov	r0, r4
	mov	r1, r5
	bl	lv_obj_get_child
.Ltmp40:
	.loc	12 105 12                       @ ../GUILib/src/extra/widgets/list/lv_list.c:105:12
	mov	r1, r6
.Ltmp41:
	.loc	12 104 28                       @ ../GUILib/src/extra/widgets/list/lv_list.c:104:28
	mov	r7, r0
.Ltmp42:
	@DEBUG_VALUE: child <- $r7
	.loc	12 105 12                       @ ../GUILib/src/extra/widgets/list/lv_list.c:105:12
	bl	lv_obj_check_type
.Ltmp43:
	@DEBUG_VALUE: lv_list_get_btn_text:i <- undef
	.loc	12 105 12 is_stmt 0             @ ../GUILib/src/extra/widgets/list/lv_list.c:105:12
	cbnz	r0, .LBB3_5
.Ltmp44:
@ %bb.3:                                @   in Loop: Header=BB3_2 Depth=1
	@DEBUG_VALUE: lv_list_get_btn_text:btn <- $r4
	@DEBUG_VALUE: lv_list_get_btn_text:list <- [DW_OP_LLVM_entry_value 1] $r0
	.loc	12 103 20 is_stmt 1             @ ../GUILib/src/extra/widgets/list/lv_list.c:103:20
	mov	r0, r4
.Ltmp45:
	.loc	12 0 0 is_stmt 0                @ ../GUILib/src/extra/widgets/list/lv_list.c:0:0
	adds	r5, #1
.Ltmp46:
	@DEBUG_VALUE: lv_list_get_btn_text:i <- $r5
	.loc	12 103 20                       @ ../GUILib/src/extra/widgets/list/lv_list.c:103:20
	bl	lv_obj_get_child_cnt
.Ltmp47:
	.loc	12 103 5                        @ ../GUILib/src/extra/widgets/list/lv_list.c:103:5
	cmp	r5, r0
	blo	.LBB3_2
.Ltmp48:
.LBB3_4:
	@DEBUG_VALUE: lv_list_get_btn_text:btn <- $r4
	@DEBUG_VALUE: lv_list_get_btn_text:list <- [DW_OP_LLVM_entry_value 1] $r0
	.loc	12 112 1 is_stmt 1              @ ../GUILib/src/extra/widgets/list/lv_list.c:112:1
	movw	r0, :lower16:.L.str
	movt	r0, :upper16:.L.str
	add	sp, #4
	pop	{r4, r5, r6, r7, pc}
.Ltmp49:
.LBB3_5:
	@DEBUG_VALUE: child <- $r7
	@DEBUG_VALUE: lv_list_get_btn_text:btn <- $r4
	@DEBUG_VALUE: lv_list_get_btn_text:list <- [DW_OP_LLVM_entry_value 1] $r0
	.loc	12 106 20                       @ ../GUILib/src/extra/widgets/list/lv_list.c:106:20
	mov	r0, r7
	add	sp, #4
	pop.w	{r4, r5, r6, r7, lr}
.Ltmp50:
	b	lv_label_get_text
.Ltmp51:
.Lfunc_end3:
	.size	lv_list_get_btn_text, .Lfunc_end3-lv_list_get_btn_text
	.cfi_endproc
	.cantunwind
	.fnend
                                        @ -- End function
	.hidden	lv_list_class                   @ @lv_list_class
	.type	lv_list_class,%object
	.section	.rodata.lv_list_class,"a",%progbits
	.globl	lv_list_class
	.p2align	2
lv_list_class:
	.long	lv_obj_class
	.long	0
	.long	0
	.long	0
	.long	0
	.short	333                             @ 0x14d
	.short	444                             @ 0x1bc
	.byte	0                               @ 0x0
	.byte	0                               @ 0x0
	.byte	0                               @ 0x0
	.zero	1
	.size	lv_list_class, 28

	.hidden	lv_list_btn_class               @ @lv_list_btn_class
	.type	lv_list_btn_class,%object
	.section	.rodata.lv_list_btn_class,"a",%progbits
	.globl	lv_list_btn_class
	.p2align	2
lv_list_btn_class:
	.long	lv_btn_class
	.long	0
	.long	0
	.long	0
	.long	0
	.short	0                               @ 0x0
	.short	0                               @ 0x0
	.byte	0                               @ 0x0
	.byte	0                               @ 0x0
	.byte	0                               @ 0x0
	.zero	1
	.size	lv_list_btn_class, 28

	.hidden	lv_list_text_class              @ @lv_list_text_class
	.type	lv_list_text_class,%object
	.section	.rodata.lv_list_text_class,"a",%progbits
	.globl	lv_list_text_class
	.p2align	2
lv_list_text_class:
	.long	lv_label_class
	.long	0
	.long	0
	.long	0
	.long	0
	.short	0                               @ 0x0
	.short	0                               @ 0x0
	.byte	0                               @ 0x0
	.byte	0                               @ 0x0
	.byte	0                               @ 0x0
	.zero	1
	.size	lv_list_text_class, 28

	.type	.L.str,%object                  @ @.str
	.section	.rodata.str1.1,"aMS",%progbits,1
.L.str:
	.zero	1
	.size	.L.str, 1

	.section	".note.GNU-stack","",%progbits
	.eabi_attribute	30, 3	@ Tag_ABI_optimization_goals
	.ARM_attribute	16, 1	@ Tag_AV_eba