	.text
	.syntax unified
	.eabi_attribute	67, "2.09"	@ Tag_conformance
	.cpu	cortex-m4
	.eabi_attribute	6, 13	@ Tag_CPU_arch
	.eabi_attribute	7, 77	@ Tag_CPU_arch_profile
	.eabi_attribute	8, 0	@ Tag_ARM_ISA_use
	.eabi_attribute	9, 2	@ Tag_THUMB_ISA_use
	.fpu	fpv4-sp-d16
	.eabi_attribute	27, 1	@ Tag_ABI_HardFP_use
	.eabi_attribute	36, 1	@ Tag_FP_HP_extension
	.eabi_attribute	34, 1	@ Tag_CPU_unaligned_access
	.eabi_attribute	17, 1	@ Tag_ABI_PCS_GOT_use
	.eabi_attribute	20, 2	@ Tag_ABI_FP_denormal
	.eabi_attribute	21, 0	@ Tag_ABI_FP_exceptions
	.eabi_attribute	23, 1	@ Tag_ABI_FP_number_model
	.eabi_attribute	24, 1	@ Tag_ABI_align_needed
	.eabi_attribute	25, 1	@ Tag_ABI_align_preserved
	.eabi_attribute	28, 1	@ Tag_ABI_VFP_args
	.eabi_attribute	38, 1	@ Tag_ABI_FP_16bit_format
	.eabi_attribute	18, 2	@ Tag_ABI_PCS_wchar_t
	.eabi_attribute	26, 1	@ Tag_ABI_enum_size
	.eabi_attribute	14, 0	@ Tag_ABI_PCS_R9_use
	.file	"lv_obj_class.c"
	.file	1 "C:\\Users\\Hyacincher\\Desktop\\HyTelectrl\\Code\\Project" "../GUILib/src/core/lv_event.h"
	.file	2 "C:\\Users\\Hyacincher\\Desktop\\HyTelectrl\\Code\\Project" "../GUILib/src/hal/../draw/../misc/lv_style.h"
	.file	3 "C:\\Users\\Hyacincher\\Desktop\\HyTelectrl\\Code\\Project" "../GUILib/src/core/../core/lv_obj.h"
	.file	4 "C:\\Users\\Hyacincher\\Desktop\\HyTelectrl\\Code\\Project" "../GUILib/src/core/lv_obj_class.h"
	.section	.text.lv_obj_class_create_obj,"ax",%progbits
	.hidden	lv_obj_class_create_obj         @ -- Begin function lv_obj_class_create_obj
	.globl	lv_obj_class_create_obj
	.p2align	1
	.type	lv_obj_class_create_obj,%function
	.code	16                              @ @lv_obj_class_create_obj
	.thumb_func
lv_obj_class_create_obj:
.Lfunc_begin0:
	.file	5 "C:\\Users\\Hyacincher\\Desktop\\HyTelectrl\\Code\\Project" "../GUILib/src/core/lv_obj_class.c"
	.loc	5 44 0                          @ ../GUILib/src/core/lv_obj_class.c:44:0
	.fnstart
	.cfi_sections .debug_frame
	.cfi_startproc
@ %bb.0:
	@DEBUG_VALUE: lv_obj_class_create_obj:class_p <- $r0
	@DEBUG_VALUE: lv_obj_class_create_obj:parent <- $r1
	@DEBUG_VALUE: get_instance_size:class_p <- $r0
	.save	{r4, r5, r6, r7, lr}
	push	{r4, r5, r6, r7, lr}
	.cfi_def_cfa_offset 20
	.cfi_offset lr, -4
	.cfi_offset r7, -8
	.cfi_offset r6, -12
	.cfi_offset r5, -16
	.cfi_offset r4, -20
	.pad	#4
	sub	sp, #4
	.cfi_def_cfa_offset 24
	@DEBUG_VALUE: get_instance_size:base <- $r0
	mov	r6, r0
.Ltmp0:
	@DEBUG_VALUE: get_instance_size:base <- $r6
	@DEBUG_VALUE: get_instance_size:class_p <- $r6
	@DEBUG_VALUE: lv_obj_class_create_obj:class_p <- $r6
	mov	r5, r1
.Ltmp1:
	@DEBUG_VALUE: lv_obj_class_create_obj:parent <- $r5
	@DEBUG_VALUE: lv_obj_class_create_obj:parent <- $r5
	.loc	5 196 16 prologue_end           @ ../GUILib/src/core/lv_obj_class.c:196:16
	cbz	r0, .LBB0_4
.Ltmp2:
@ %bb.1:
	@DEBUG_VALUE: lv_obj_class_create_obj:class_p <- $r6
	@DEBUG_VALUE: get_instance_size:class_p <- $r6
	@DEBUG_VALUE: get_instance_size:base <- $r6
	@DEBUG_VALUE: lv_obj_class_create_obj:parent <- $r5
	.loc	5 0 16 is_stmt 0                @ ../GUILib/src/core/lv_obj_class.c:0:16
	movw	r0, #65520
	movt	r0, #15
	mov	r1, r6
.Ltmp3:
	.p2align	2
.LBB0_2:                                @ =>This Inner Loop Header: Depth=1
	@DEBUG_VALUE: lv_obj_class_create_obj:class_p <- $r6
	@DEBUG_VALUE: get_instance_size:class_p <- $r6
	@DEBUG_VALUE: lv_obj_class_create_obj:parent <- $r5
	@DEBUG_VALUE: get_instance_size:base <- $r1
	.loc	5 196 25                        @ ../GUILib/src/core/lv_obj_class.c:196:25
	ldr	r2, [r1, #24]
	.loc	5 196 5                         @ ../GUILib/src/core/lv_obj_class.c:196:5
	tst	r2, r0
	bne	.LBB0_5
.Ltmp4:
@ %bb.3:                                @   in Loop: Header=BB0_2 Depth=1
	@DEBUG_VALUE: lv_obj_class_create_obj:class_p <- $r6
	@DEBUG_VALUE: get_instance_size:class_p <- $r6
	@DEBUG_VALUE: lv_obj_class_create_obj:parent <- $r5
	@DEBUG_VALUE: get_instance_size:base <- $r1
	.loc	5 196 58                        @ ../GUILib/src/core/lv_obj_class.c:196:58
	ldr	r1, [r1]
.Ltmp5:
	@DEBUG_VALUE: get_instance_size:base <- $r1
	.loc	5 196 16                        @ ../GUILib/src/core/lv_obj_class.c:196:16
	cmp	r1, #0
	bne	.LBB0_2
.Ltmp6:
.LBB0_4:
	@DEBUG_VALUE: lv_obj_class_create_obj:class_p <- $r6
	@DEBUG_VALUE: get_instance_size:class_p <- $r6
	@DEBUG_VALUE: lv_obj_class_create_obj:parent <- $r5
	.loc	5 0 16                          @ ../GUILib/src/core/lv_obj_class.c:0:16
	movs	r7, #0
	b	.LBB0_6
.Ltmp7:
.LBB0_5:
	@DEBUG_VALUE: lv_obj_class_create_obj:class_p <- $r6
	@DEBUG_VALUE: get_instance_size:class_p <- $r6
	@DEBUG_VALUE: lv_obj_class_create_obj:parent <- $r5
	@DEBUG_VALUE: get_instance_size:base <- $r1
	.loc	5 200 18 is_stmt 1              @ ../GUILib/src/core/lv_obj_class.c:200:18
	ubfx	r7, r2, #4, #16
.Ltmp8:
.LBB0_6:
	@DEBUG_VALUE: lv_obj_class_create_obj:class_p <- $r6
	@DEBUG_VALUE: lv_obj_class_create_obj:parent <- $r5
	@DEBUG_VALUE: lv_obj_class_create_obj:s <- $r7
	.loc	5 47 22                         @ ../GUILib/src/core/lv_obj_class.c:47:22
	mov	r0, r7
	bl	lv_mem_alloc
.Ltmp9:
	@DEBUG_VALUE: lv_obj_class_create_obj:obj <- $r0
	.loc	5 48 8                          @ ../GUILib/src/core/lv_obj_class.c:48:8
	cbz	r0, .LBB0_15
.Ltmp10:
@ %bb.7:
	@DEBUG_VALUE: lv_obj_class_create_obj:s <- $r7
	@DEBUG_VALUE: lv_obj_class_create_obj:class_p <- $r6
	@DEBUG_VALUE: lv_obj_class_create_obj:parent <- $r5
	@DEBUG_VALUE: lv_obj_class_create_obj:obj <- $r0
	.loc	5 49 5                          @ ../GUILib/src/core/lv_obj_class.c:49:5
	mov	r1, r7
	.loc	5 0 0 is_stmt 0                 @ ../GUILib/src/core/lv_obj_class.c:0:0
	mov	r4, r0
.Ltmp11:
	@DEBUG_VALUE: lv_obj_class_create_obj:obj <- $r4
	.loc	5 49 5                          @ ../GUILib/src/core/lv_obj_class.c:49:5
	bl	lv_memset_00
.Ltmp12:
	.loc	5 50 18 is_stmt 1               @ ../GUILib/src/core/lv_obj_class.c:50:18
	str	r6, [r4]
	.loc	5 51 17                         @ ../GUILib/src/core/lv_obj_class.c:51:17
	str	r5, [r4, #4]
	.loc	5 54 8                          @ ../GUILib/src/core/lv_obj_class.c:54:8
	cbz	r5, .LBB0_12
.Ltmp13:
@ %bb.8:
	@DEBUG_VALUE: lv_obj_class_create_obj:s <- $r7
	@DEBUG_VALUE: lv_obj_class_create_obj:class_p <- $r6
	@DEBUG_VALUE: lv_obj_class_create_obj:parent <- $r5
	@DEBUG_VALUE: lv_obj_class_create_obj:obj <- $r4
	.loc	5 83 20                         @ ../GUILib/src/core/lv_obj_class.c:83:20
	ldr	r1, [r5, #8]
.Ltmp14:
	.loc	5 83 12 is_stmt 0               @ ../GUILib/src/core/lv_obj_class.c:83:12
	cbnz	r1, .LBB0_10
.Ltmp15:
@ %bb.9:
	@DEBUG_VALUE: lv_obj_class_create_obj:s <- $r7
	@DEBUG_VALUE: lv_obj_class_create_obj:class_p <- $r6
	@DEBUG_VALUE: lv_obj_class_create_obj:parent <- $r5
	@DEBUG_VALUE: lv_obj_class_create_obj:obj <- $r4
	.loc	5 84 13 is_stmt 1               @ ../GUILib/src/core/lv_obj_class.c:84:13
	mov	r0, r5
	bl	lv_obj_allocate_spec_attr
.Ltmp16:
	.loc	5 87 20                         @ ../GUILib/src/core/lv_obj_class.c:87:20
	ldr	r1, [r5, #8]
.Ltmp17:
.LBB0_10:
	@DEBUG_VALUE: lv_obj_class_create_obj:s <- $r7
	@DEBUG_VALUE: lv_obj_class_create_obj:class_p <- $r6
	@DEBUG_VALUE: lv_obj_class_create_obj:parent <- $r5
	@DEBUG_VALUE: lv_obj_class_create_obj:obj <- $r4
	.loc	5 87 31 is_stmt 0               @ ../GUILib/src/core/lv_obj_class.c:87:31
	ldr	r0, [r1]
.Ltmp18:
	.loc	5 87 12                         @ ../GUILib/src/core/lv_obj_class.c:87:12
	cbz	r0, .LBB0_16
.Ltmp19:
@ %bb.11:
	@DEBUG_VALUE: lv_obj_class_create_obj:s <- $r7
	@DEBUG_VALUE: lv_obj_class_create_obj:class_p <- $r6
	@DEBUG_VALUE: lv_obj_class_create_obj:parent <- $r5
	@DEBUG_VALUE: lv_obj_class_create_obj:obj <- $r4
	.loc	5 93 41 is_stmt 1               @ ../GUILib/src/core/lv_obj_class.c:93:41
	ldr	r2, [r1, #4]
	adds	r2, #1
	str	r2, [r1, #4]
	.loc	5 95 77                         @ ../GUILib/src/core/lv_obj_class.c:95:77
	lsls	r1, r2, #2
	.loc	5 94 43                         @ ../GUILib/src/core/lv_obj_class.c:94:43
	bl	lv_mem_realloc
.Ltmp20:
	.loc	5 94 21 is_stmt 0               @ ../GUILib/src/core/lv_obj_class.c:94:21
	ldr	r1, [r5, #8]
	.loc	5 96 60 is_stmt 1               @ ../GUILib/src/core/lv_obj_class.c:96:60
	ldr	r2, [r1, #4]
	.loc	5 94 41                         @ ../GUILib/src/core/lv_obj_class.c:94:41
	str	r0, [r1]
	.loc	5 96 13                         @ ../GUILib/src/core/lv_obj_class.c:96:13
	add.w	r0, r0, r2, lsl #2
	.loc	5 96 75 is_stmt 0               @ ../GUILib/src/core/lv_obj_class.c:96:75
	str	r4, [r0, #-4]
	b	.LBB0_19
.Ltmp21:
.LBB0_12:
	@DEBUG_VALUE: lv_obj_class_create_obj:s <- $r7
	@DEBUG_VALUE: lv_obj_class_create_obj:class_p <- $r6
	@DEBUG_VALUE: lv_obj_class_create_obj:parent <- $r5
	@DEBUG_VALUE: lv_obj_class_create_obj:obj <- $r4
	.loc	5 56 28 is_stmt 1               @ ../GUILib/src/core/lv_obj_class.c:56:28
	bl	lv_disp_get_default
.Ltmp22:
	@DEBUG_VALUE: disp <- $r0
	.loc	5 57 12                         @ ../GUILib/src/core/lv_obj_class.c:57:12
	cbz	r0, .LBB0_15
.Ltmp23:
@ %bb.13:
	@DEBUG_VALUE: lv_obj_class_create_obj:s <- $r7
	@DEBUG_VALUE: lv_obj_class_create_obj:class_p <- $r6
	@DEBUG_VALUE: lv_obj_class_create_obj:parent <- $r5
	@DEBUG_VALUE: lv_obj_class_create_obj:obj <- $r4
	@DEBUG_VALUE: disp <- $r0
	.loc	5 0 0 is_stmt 0                 @ ../GUILib/src/core/lv_obj_class.c:0:0
	mov	r5, r0
.Ltmp24:
	@DEBUG_VALUE: lv_obj_class_create_obj:parent <- [DW_OP_LLVM_entry_value 1] $r1
	@DEBUG_VALUE: disp <- $r5
	.loc	5 62 18 is_stmt 1               @ ../GUILib/src/core/lv_obj_class.c:62:18
	ldr	r0, [r0, #12]
.Ltmp25:
	.loc	5 62 12 is_stmt 0               @ ../GUILib/src/core/lv_obj_class.c:62:12
	cbz	r0, .LBB0_17
.Ltmp26:
@ %bb.14:
	@DEBUG_VALUE: lv_obj_class_create_obj:s <- $r7
	@DEBUG_VALUE: lv_obj_class_create_obj:class_p <- $r6
	@DEBUG_VALUE: disp <- $r5
	@DEBUG_VALUE: lv_obj_class_create_obj:obj <- $r4
	@DEBUG_VALUE: lv_obj_class_create_obj:parent <- [DW_OP_LLVM_entry_value 1] $r1
	.loc	5 68 29 is_stmt 1               @ ../GUILib/src/core/lv_obj_class.c:68:29
	ldr	r1, [r5, #36]
	adds	r1, #1
	str	r1, [r5, #36]
	.loc	5 69 78                         @ ../GUILib/src/core/lv_obj_class.c:69:78
	lsls	r1, r1, #2
	.loc	5 69 29 is_stmt 0               @ ../GUILib/src/core/lv_obj_class.c:69:29
	bl	lv_mem_realloc
.Ltmp27:
	.loc	5 70 33 is_stmt 1               @ ../GUILib/src/core/lv_obj_class.c:70:33
	ldr	r1, [r5, #36]
	.loc	5 69 27                         @ ../GUILib/src/core/lv_obj_class.c:69:27
	str	r0, [r5, #12]
	.loc	5 70 13                         @ ../GUILib/src/core/lv_obj_class.c:70:13
	add.w	r0, r0, r1, lsl #2
	.loc	5 70 49 is_stmt 0               @ ../GUILib/src/core/lv_obj_class.c:70:49
	str	r4, [r0, #-4]
	b	.LBB0_18
.Ltmp28:
.LBB0_15:
	@DEBUG_VALUE: lv_obj_class_create_obj:s <- $r7
	@DEBUG_VALUE: lv_obj_class_create_obj:class_p <- $r6
	@DEBUG_VALUE: lv_obj_class_create_obj:parent <- $r5
	.loc	5 0 49                          @ ../GUILib/src/core/lv_obj_class.c:0:49
	movs	r4, #0
	b	.LBB0_19
.Ltmp29:
.LBB0_16:
	@DEBUG_VALUE: lv_obj_class_create_obj:s <- $r7
	@DEBUG_VALUE: lv_obj_class_create_obj:class_p <- $r6
	@DEBUG_VALUE: lv_obj_class_create_obj:parent <- $r5
	@DEBUG_VALUE: lv_obj_class_create_obj:obj <- $r4
	.loc	5 88 43 is_stmt 1               @ ../GUILib/src/core/lv_obj_class.c:88:43
	movs	r0, #4
	bl	lv_mem_alloc
.Ltmp30:
	.loc	5 88 21 is_stmt 0               @ ../GUILib/src/core/lv_obj_class.c:88:21
	ldr	r1, [r5, #8]
	.loc	5 88 41                         @ ../GUILib/src/core/lv_obj_class.c:88:41
	str	r0, [r1]
	.loc	5 89 44 is_stmt 1               @ ../GUILib/src/core/lv_obj_class.c:89:44
	str	r4, [r0]
	.loc	5 90 21                         @ ../GUILib/src/core/lv_obj_class.c:90:21
	ldr	r0, [r5, #8]
	movs	r1, #1
	.loc	5 90 42 is_stmt 0               @ ../GUILib/src/core/lv_obj_class.c:90:42
	str	r1, [r0, #4]
	b	.LBB0_19
.Ltmp31:
.LBB0_17:
	@DEBUG_VALUE: lv_obj_class_create_obj:s <- $r7
	@DEBUG_VALUE: lv_obj_class_create_obj:class_p <- $r6
	@DEBUG_VALUE: disp <- $r5
	@DEBUG_VALUE: lv_obj_class_create_obj:obj <- $r4
	@DEBUG_VALUE: lv_obj_class_create_obj:parent <- [DW_OP_LLVM_entry_value 1] $r1
	.loc	5 63 29 is_stmt 1               @ ../GUILib/src/core/lv_obj_class.c:63:29
	movs	r0, #4
	bl	lv_mem_alloc
.Ltmp32:
	.loc	5 63 27 is_stmt 0               @ ../GUILib/src/core/lv_obj_class.c:63:27
	str	r0, [r5, #12]
	.loc	5 64 30 is_stmt 1               @ ../GUILib/src/core/lv_obj_class.c:64:30
	str	r4, [r0]
	movs	r0, #1
	.loc	5 65 30                         @ ../GUILib/src/core/lv_obj_class.c:65:30
	str	r0, [r5, #36]
.Ltmp33:
.LBB0_18:
	@DEBUG_VALUE: lv_obj_class_create_obj:s <- $r7
	@DEBUG_VALUE: lv_obj_class_create_obj:class_p <- $r6
	@DEBUG_VALUE: disp <- $r5
	@DEBUG_VALUE: lv_obj_class_create_obj:obj <- $r4
	@DEBUG_VALUE: lv_obj_class_create_obj:parent <- [DW_OP_LLVM_entry_value 1] $r1
	.loc	5 0 30 is_stmt 0                @ ../GUILib/src/core/lv_obj_class.c:0:30
	movs	r0, #0
	.loc	5 74 24 is_stmt 1               @ ../GUILib/src/core/lv_obj_class.c:74:24
	str	r0, [r4, #20]
	.loc	5 76 26                         @ ../GUILib/src/core/lv_obj_class.c:76:26
	movs	r0, #0
	bl	lv_disp_get_hor_res
.Ltmp34:
	.loc	5 76 52 is_stmt 0               @ ../GUILib/src/core/lv_obj_class.c:76:52
	subs	r0, #1
	.loc	5 76 24                         @ ../GUILib/src/core/lv_obj_class.c:76:24
	strh	r0, [r4, #24]
	.loc	5 77 26 is_stmt 1               @ ../GUILib/src/core/lv_obj_class.c:77:26
	movs	r0, #0
	bl	lv_disp_get_ver_res
.Ltmp35:
	.loc	5 77 52 is_stmt 0               @ ../GUILib/src/core/lv_obj_class.c:77:52
	subs	r0, #1
	.loc	5 77 24                         @ ../GUILib/src/core/lv_obj_class.c:77:24
	strh	r0, [r4, #26]
.Ltmp36:
.LBB0_19:
	@DEBUG_VALUE: lv_obj_class_create_obj:s <- $r7
	@DEBUG_VALUE: lv_obj_class_create_obj:class_p <- $r6
	.loc	5 101 1 is_stmt 1               @ ../GUILib/src/core/lv_obj_class.c:101:1
	mov	r0, r4
	add	sp, #4
	pop	{r4, r5, r6, r7, pc}
.Ltmp37:
.Lfunc_end0:
	.size	lv_obj_class_create_obj, .Lfunc_end0-lv_obj_class_create_obj
	.cfi_endproc
	.file	6 "D:\\Keil MDK\\ARM\\ARMCLANG\\Bin\\..\\include" "stdint.h"
	.file	7 "C:\\Users\\Hyacincher\\Desktop\\HyTelectrl\\Code\\Project" "../GUILib/src/core/../misc/lv_ll.h"
	.file	8 "C:\\Users\\Hyacincher\\Desktop\\HyTelectrl\\Code\\Project" "../GUILib/src/core/lv_group.h"
	.file	9 "C:\\Users\\Hyacincher\\Desktop\\HyTelectrl\\Code\\Project" "../GUILib/src/hal/../misc/lv_area.h"
	.file	10 "C:\\Users\\Hyacincher\\Desktop\\HyTelectrl\\Code\\Project" "../GUILib/src/core/lv_obj_scroll.h"
	.file	11 "C:\\Users\\Hyacincher\\Desktop\\HyTelectrl\\Code\\Project" "../GUILib/src/hal/../misc/lv_color.h"
	.file	12 "C:\\Users\\Hyacincher\\Desktop\\HyTelectrl\\Code\\Project" "../GUILib/src/core/lv_obj_style.h"
	.cantunwind
	.fnend
                                        @ -- End function
	.section	.text.lv_obj_class_init_obj,"ax",%progbits
	.hidden	lv_obj_class_init_obj           @ -- Begin function lv_obj_class_init_obj
	.globl	lv_obj_class_init_obj
	.p2align	1
	.type	lv_obj_class_init_obj,%function
	.code	16                              @ @lv_obj_class_init_obj
	.thumb_func
lv_obj_class_init_obj:
.Lfunc_begin1:
	.loc	5 104 0                         @ ../GUILib/src/core/lv_obj_class.c:104:0
	.fnstart
	.cfi_startproc
@ %bb.0:
	@DEBUG_VALUE: lv_obj_class_init_obj:obj <- $r0
	.save	{r4, r5, r7, lr}
	push	{r4, r5, r7, lr}
	.cfi_def_cfa_offset 16
	.cfi_offset lr, -4
	.cfi_offset r7, -8
	.cfi_offset r5, -12
	.cfi_offset r4, -16
	mov	r4, r0
.Ltmp38:
	@DEBUG_VALUE: lv_obj_class_init_obj:obj <- $r4
	.loc	5 105 5 prologue_end            @ ../GUILib/src/core/lv_obj_class.c:105:5
	bl	lv_obj_mark_layout_as_dirty
.Ltmp39:
	.loc	5 106 5                         @ ../GUILib/src/core/lv_obj_class.c:106:5
	movs	r0, #0
	bl	lv_obj_enable_style_refresh
.Ltmp40:
	.loc	5 108 5                         @ ../GUILib/src/core/lv_obj_class.c:108:5
	mov	r0, r4
	bl	lv_theme_apply
.Ltmp41:
	.loc	5 109 5                         @ ../GUILib/src/core/lv_obj_class.c:109:5
	mov	r0, r4
	bl	lv_obj_construct
.Ltmp42:
	.loc	5 111 5                         @ ../GUILib/src/core/lv_obj_class.c:111:5
	movs	r0, #1
	bl	lv_obj_enable_style_refresh
.Ltmp43:
	.loc	5 112 5                         @ ../GUILib/src/core/lv_obj_class.c:112:5
	mov	r0, r4
	mov.w	r1, #983040
	movw	r2, #65535
	bl	lv_obj_refresh_style
.Ltmp44:
	.loc	5 114 5                         @ ../GUILib/src/core/lv_obj_class.c:114:5
	mov	r0, r4
	bl	lv_obj_refresh_self_size
.Ltmp45:
	.loc	5 116 30                        @ ../GUILib/src/core/lv_obj_class.c:116:30
	bl	lv_group_get_default
.Ltmp46:
	@DEBUG_VALUE: lv_obj_class_init_obj:def_group <- $r0
	.loc	5 117 18                        @ ../GUILib/src/core/lv_obj_class.c:117:18
	cbz	r0, .LBB1_7
.Ltmp47:
@ %bb.1:
	@DEBUG_VALUE: lv_obj_class_init_obj:obj <- $r4
	@DEBUG_VALUE: lv_obj_class_init_obj:def_group <- $r0
	@DEBUG_VALUE: lv_obj_is_group_def:obj <- $r4
	@DEBUG_VALUE: lv_obj_is_group_def:class_p <- undef
	.loc	5 0 0 is_stmt 0                 @ ../GUILib/src/core/lv_obj_class.c:0:0
	ldr	r1, [r4]
.Ltmp48:
	@DEBUG_VALUE: lv_obj_is_group_def:class_p <- $r1
	.p2align	2
.LBB1_2:                                @ =>This Inner Loop Header: Depth=1
	@DEBUG_VALUE: lv_obj_is_group_def:obj <- $r4
	@DEBUG_VALUE: lv_obj_class_init_obj:obj <- $r4
	@DEBUG_VALUE: lv_obj_is_group_def:class_p <- $r1
	@DEBUG_VALUE: lv_obj_class_init_obj:def_group <- $r0
	.loc	5 163 19 is_stmt 1              @ ../GUILib/src/core/lv_obj_class.c:163:19
	cbz	r1, .LBB1_7
.Ltmp49:
@ %bb.3:                                @   in Loop: Header=BB1_2 Depth=1
	@DEBUG_VALUE: lv_obj_is_group_def:obj <- $r4
	@DEBUG_VALUE: lv_obj_class_init_obj:obj <- $r4
	@DEBUG_VALUE: lv_obj_is_group_def:class_p <- $r1
	@DEBUG_VALUE: lv_obj_class_init_obj:def_group <- $r0
	.loc	5 163 31 is_stmt 0              @ ../GUILib/src/core/lv_obj_class.c:163:31
	ldr	r2, [r1, #24]
	.loc	5 163 41                        @ ../GUILib/src/core/lv_obj_class.c:163:41
	ands	r2, r2, #12
.Ltmp50:
	@DEBUG_VALUE: lv_obj_is_group_def:class_p <- undef
	.loc	5 163 5                         @ ../GUILib/src/core/lv_obj_class.c:163:5
	bne	.LBB1_5
.Ltmp51:
@ %bb.4:                                @   in Loop: Header=BB1_2 Depth=1
	@DEBUG_VALUE: lv_obj_is_group_def:obj <- $r4
	@DEBUG_VALUE: lv_obj_class_init_obj:obj <- $r4
	@DEBUG_VALUE: lv_obj_class_init_obj:def_group <- $r0
	.loc	5 0 0                           @ ../GUILib/src/core/lv_obj_class.c:0:0
	ldr	r1, [r1]
.Ltmp52:
	@DEBUG_VALUE: lv_obj_is_group_def:class_p <- $r1
	b	.LBB1_2
.Ltmp53:
.LBB1_5:
	@DEBUG_VALUE: lv_obj_is_group_def:obj <- $r4
	@DEBUG_VALUE: lv_obj_class_init_obj:obj <- $r4
	@DEBUG_VALUE: lv_obj_class_init_obj:def_group <- $r0
	.loc	5 163 5                         @ ../GUILib/src/core/lv_obj_class.c:163:5
	cmp	r2, #4
	bne	.LBB1_7
.Ltmp54:
@ %bb.6:
	@DEBUG_VALUE: lv_obj_class_init_obj:obj <- $r4
	@DEBUG_VALUE: lv_obj_class_init_obj:def_group <- $r0
	.loc	5 118 9 is_stmt 1               @ ../GUILib/src/core/lv_obj_class.c:118:9
	mov	r1, r4
	bl	lv_group_add_obj
.Ltmp55:
.LBB1_7:
	@DEBUG_VALUE: lv_obj_class_init_obj:obj <- $r4
	.loc	5 121 25                        @ ../GUILib/src/core/lv_obj_class.c:121:25
	mov	r0, r4
	bl	lv_obj_get_parent
.Ltmp56:
	@DEBUG_VALUE: lv_obj_class_init_obj:parent <- $r0
	.loc	5 122 8                         @ ../GUILib/src/core/lv_obj_class.c:122:8
	cbz	r0, .LBB1_9
.Ltmp57:
@ %bb.8:
	@DEBUG_VALUE: lv_obj_class_init_obj:obj <- $r4
	@DEBUG_VALUE: lv_obj_class_init_obj:parent <- $r0
	.loc	5 125 9                         @ ../GUILib/src/core/lv_obj_class.c:125:9
	movs	r1, #34
	mov	r2, r4
.Ltmp58:
	.loc	5 0 0 is_stmt 0                 @ ../GUILib/src/core/lv_obj_class.c:0:0
	mov	r5, r0
.Ltmp59:
	@DEBUG_VALUE: lv_obj_class_init_obj:parent <- $r5
	.loc	5 125 9                         @ ../GUILib/src/core/lv_obj_class.c:125:9
	bl	lv_event_send
.Ltmp60:
	.loc	5 126 9 is_stmt 1               @ ../GUILib/src/core/lv_obj_class.c:126:9
	mov	r0, r5
	movs	r1, #35
	mov	r2, r4
	bl	lv_event_send
.Ltmp61:
	.loc	5 129 9                         @ ../GUILib/src/core/lv_obj_class.c:129:9
	mov	r0, r4
	pop.w	{r4, r5, r7, lr}
.Ltmp62:
	@DEBUG_VALUE: lv_obj_class_init_obj:obj <- [DW_OP_LLVM_entry_value 1] $r0
	b	lv_obj_invalidate
.Ltmp63:
.LBB1_9:
	@DEBUG_VALUE: lv_obj_class_init_obj:obj <- $r4
	@DEBUG_VALUE: lv_obj_class_init_obj:parent <- $r0
	.loc	5 131 1                         @ ../GUILib/src/core/lv_obj_class.c:131:1
	pop	{r4, r5, r7, pc}
.Ltmp64:
.Lfunc_end1:
	.size	lv_obj_class_init_obj, .Lfunc_end1-lv_obj_class_init_obj
	.cfi_endproc
	.file	13 "C:\\Users\\Hyacincher\\Desktop\\HyTelectrl\\Code\\Project" "../GUILib/src/core/lv_obj_pos.h"
	.cantunwind
	.fnend
                                        @ -- End function
	.section	.text.lv_obj_construct,"ax",%progbits
	.p2align	1                               @ -- Begin function lv_obj_construct
	.type	lv_obj_construct,%function
	.code	16                              @ @lv_obj_construct
	.thumb_func
lv_obj_construct:
.Lfunc_begin2:
	.loc	5 175 0                         @ ../GUILib/src/core/lv_obj_class.c:175:0
	.fnstart
	.cfi_startproc
@ %bb.0:
	@DEBUG_VALUE: lv_obj_construct:obj <- $r0
	.save	{r4, r5, r7, lr}
	push	{r4, r5, r7, lr}
	.cfi_def_cfa_offset 16
	.cfi_offset lr, -4
	.cfi_offset r7, -8
	.cfi_offset r5, -12
	.cfi_offset r4, -16
.Ltmp65:
	.loc	5 176 52 prologue_end           @ ../GUILib/src/core/lv_obj_class.c:176:52
	ldr	r5, [r0]
.Ltmp66:
	@DEBUG_VALUE: lv_obj_construct:original_class_p <- $r5
	.loc	5 0 52 is_stmt 0                @ ../GUILib/src/core/lv_obj_class.c:0:52
	mov	r4, r0
.Ltmp67:
	@DEBUG_VALUE: lv_obj_construct:obj <- $r4
	@DEBUG_VALUE: lv_obj_construct:obj <- $r4
	.loc	5 178 22 is_stmt 1              @ ../GUILib/src/core/lv_obj_class.c:178:22
	ldr	r0, [r5]
.Ltmp68:
	.loc	5 178 8 is_stmt 0               @ ../GUILib/src/core/lv_obj_class.c:178:8
	cbz	r0, .LBB2_2
.Ltmp69:
@ %bb.1:
	@DEBUG_VALUE: lv_obj_construct:original_class_p <- $r5
	@DEBUG_VALUE: lv_obj_construct:obj <- $r4
	.loc	5 180 22 is_stmt 1              @ ../GUILib/src/core/lv_obj_class.c:180:22
	str	r0, [r4]
	.loc	5 183 9                         @ ../GUILib/src/core/lv_obj_class.c:183:9
	mov	r0, r4
	bl	lv_obj_construct
.Ltmp70:
.LBB2_2:
	@DEBUG_VALUE: lv_obj_construct:original_class_p <- $r5
	@DEBUG_VALUE: lv_obj_construct:obj <- $r4
	.loc	5 189 22                        @ ../GUILib/src/core/lv_obj_class.c:189:22
	ldr	r2, [r5, #4]
.Ltmp71:
	.loc	5 187 18                        @ ../GUILib/src/core/lv_obj_class.c:187:18
	str	r5, [r4]
	.loc	5 189 8                         @ ../GUILib/src/core/lv_obj_class.c:189:8
	cbz	r2, .LBB2_4
.Ltmp72:
@ %bb.3:
	@DEBUG_VALUE: lv_obj_construct:original_class_p <- $r5
	@DEBUG_VALUE: lv_obj_construct:obj <- $r4
	.loc	5 189 38 is_stmt 0              @ ../GUILib/src/core/lv_obj_class.c:189:38
	mov	r0, r5
	mov	r1, r4
	pop.w	{r4, r5, r7, lr}
.Ltmp73:
	@DEBUG_VALUE: lv_obj_construct:obj <- [DW_OP_LLVM_entry_value 1] $r0
	bx	r2
.Ltmp74:
.LBB2_4:
	@DEBUG_VALUE: lv_obj_construct:original_class_p <- $r5
	@DEBUG_VALUE: lv_obj_construct:obj <- $r4
	.loc	5 190 1 is_stmt 1               @ ../GUILib/src/core/lv_obj_class.c:190:1
	pop	{r4, r5, r7, pc}
.Ltmp75:
.Lfunc_end2:
	.size	lv_obj_construct, .Lfunc_end2-lv_obj_construct
	.cfi_endproc
	.cantunwind
	.fnend
                                        @ -- End function
	.section	.text.lv_obj_is_group_def,"ax",%progbits
	.hidden	lv_obj_is_group_def             @ -- Begin function lv_obj_is_group_def
	.globl	lv_obj_is_group_def
	.p2align	1
	.type	lv_obj_is_group_def,%function
	.code	16                              @ @lv_obj_is_group_def
	.thumb_func
lv_obj_is_group_def:
.Lfunc_begin3:
	.loc	5 159 0                         @ ../GUILib/src/core/lv_obj_class.c:159:0
	.fnstart
	.cfi_startproc
@ %bb.0:
	.p2align	2
.LBB3_1:                                @ =>This Inner Loop Header: Depth=1
	.loc	5 0 0 prologue_end              @ ../GUILib/src/core/lv_obj_class.c:0:0
	ldr	r0, [r0]
.Ltmp76:
	@DEBUG_VALUE: lv_obj_is_group_def:class_p <- $r0
	.loc	5 163 19                        @ ../GUILib/src/core/lv_obj_class.c:163:19
	cbz	r0, .LBB3_4
.Ltmp77:
@ %bb.2:                                @   in Loop: Header=BB3_1 Depth=1
	@DEBUG_VALUE: lv_obj_is_group_def:class_p <- $r0
	.loc	5 163 31 is_stmt 0              @ ../GUILib/src/core/lv_obj_class.c:163:31
	ldr	r1, [r0, #24]
	.loc	5 163 41                        @ ../GUILib/src/core/lv_obj_class.c:163:41
	ands	r1, r1, #12
.Ltmp78:
	@DEBUG_VALUE: lv_obj_is_group_def:class_p <- undef
	.loc	5 163 5                         @ ../GUILib/src/core/lv_obj_class.c:163:5
	beq	.LBB3_1
.Ltmp79:
@ %bb.3:
	.loc	5 167 31 is_stmt 1              @ ../GUILib/src/core/lv_obj_class.c:167:31
	subs	r0, r1, #4
	clz	r0, r0
	lsrs	r0, r0, #5
	.loc	5 168 1                         @ ../GUILib/src/core/lv_obj_class.c:168:1
	bx	lr
.LBB3_4:
.Ltmp80:
	@DEBUG_VALUE: lv_obj_is_group_def:class_p <- $r0
	.loc	5 0 1 is_stmt 0                 @ ../GUILib/src/core/lv_obj_class.c:0:1
	movs	r0, #0
.Ltmp81:
	.loc	5 168 1                         @ ../GUILib/src/core/lv_obj_class.c:168:1
	bx	lr
.Ltmp82:
.Lfunc_end3:
	.size	lv_obj_is_group_def, .Lfunc_end3-lv_obj_is_group_def
	.cfi_endproc
	.cantunwind
	.fnend
                                        @ -- End function
	.section	.text._lv_obj_destruct,"ax",%progbits
	.hidden	_lv_obj_destruct                @ -- Begin function _lv_obj_destruct
	.globl	_lv_obj_destruct
	.p2align	1
	.type	_lv_obj_destruct,%function
	.code	16                              @ @_lv_obj_destruct
	.thumb_func
_lv_obj_destruct:
.Lfunc_begin4:
	.loc	5 134 0 is_stmt 1               @ ../GUILib/src/core/lv_obj_class.c:134:0
	.fnstart
	.cfi_startproc
@ %bb.0:
	.save	{r4, lr}
	push	{r4, lr}
	.cfi_def_cfa_offset 8
	.cfi_offset lr, -4
	.cfi_offset r4, -8
	mov	r4, r0
.Ltmp83:
	.loc	5 135 13 prologue_end           @ ../GUILib/src/core/lv_obj_class.c:135:13
	ldr	r0, [r0]
	.p2align	2
.LBB4_1:                                @ =>This Inner Loop Header: Depth=1
	.loc	5 135 22 is_stmt 0              @ ../GUILib/src/core/lv_obj_class.c:135:22
	ldr	r2, [r0, #8]
.Ltmp84:
	@DEBUG_VALUE: _lv_obj_destruct:obj <- undef
	.loc	5 135 8                         @ ../GUILib/src/core/lv_obj_class.c:135:8
	cbz	r2, .LBB4_3
.Ltmp85:
@ %bb.2:                                @   in Loop: Header=BB4_1 Depth=1
	.loc	5 135 37                        @ ../GUILib/src/core/lv_obj_class.c:135:37
	mov	r1, r4
	blx	r2
.Ltmp86:
	.loc	5 137 13 is_stmt 1              @ ../GUILib/src/core/lv_obj_class.c:137:13
	ldr	r0, [r4]
.LBB4_3:                                @   in Loop: Header=BB4_1 Depth=1
	.loc	5 137 22 is_stmt 0              @ ../GUILib/src/core/lv_obj_class.c:137:22
	ldr	r0, [r0]
.Ltmp87:
	.loc	5 137 8                         @ ../GUILib/src/core/lv_obj_class.c:137:8
	cbz	r0, .LBB4_5
@ %bb.4:                                @   in Loop: Header=BB4_1 Depth=1
.Ltmp88:
	.loc	5 139 22 is_stmt 1              @ ../GUILib/src/core/lv_obj_class.c:139:22
	str	r0, [r4]
	b	.LBB4_1
.Ltmp89:
.LBB4_5:
	.loc	5 144 1                         @ ../GUILib/src/core/lv_obj_class.c:144:1
	pop	{r4, pc}
.Ltmp90:
.Lfunc_end4:
	.size	_lv_obj_destruct, .Lfunc_end4-_lv_obj_destruct
	.cfi_endproc
	.cantunwind
	.fnend
                                        @ -- End function
	.section	.text.lv_obj_is_editable,"ax",%progbits
	.hidden	lv_obj_is_editable              @ -- Begin function lv_obj_is_editable
	.globl	lv_obj_is_editable
	.p2align	1
	.type	lv_obj_is_editable,%function
	.code	16                              @ @lv_obj_is_editable
	.thumb_func
lv_obj_is_editable:
.Lfunc_begin5:
	.loc	5 147 0                         @ ../GUILib/src/core/lv_obj_class.c:147:0
	.fnstart
	.cfi_startproc
@ %bb.0:
	.p2align	2
.LBB5_1:                                @ =>This Inner Loop Header: Depth=1
	.loc	5 0 0 prologue_end              @ ../GUILib/src/core/lv_obj_class.c:0:0
	ldr	r0, [r0]
.Ltmp91:
	@DEBUG_VALUE: lv_obj_is_editable:class_p <- $r0
	.loc	5 151 19                        @ ../GUILib/src/core/lv_obj_class.c:151:19
	cbz	r0, .LBB5_4
.Ltmp92:
@ %bb.2:                                @   in Loop: Header=BB5_1 Depth=1
	@DEBUG_VALUE: lv_obj_is_editable:class_p <- $r0
	.loc	5 151 31 is_stmt 0              @ ../GUILib/src/core/lv_obj_class.c:151:31
	ldr	r1, [r0, #24]
	ands	r1, r1, #3
.Ltmp93:
	@DEBUG_VALUE: lv_obj_is_editable:class_p <- undef
	.loc	5 151 5                         @ ../GUILib/src/core/lv_obj_class.c:151:5
	beq	.LBB5_1
.Ltmp94:
@ %bb.3:
	.loc	5 155 30 is_stmt 1              @ ../GUILib/src/core/lv_obj_class.c:155:30
	subs	r0, r1, #1
	clz	r0, r0
	lsrs	r0, r0, #5
	.loc	5 156 1                         @ ../GUILib/src/core/lv_obj_class.c:156:1
	bx	lr
.LBB5_4:
.Ltmp95:
	@DEBUG_VALUE: lv_obj_is_editable:class_p <- $r0
	.loc	5 0 1 is_stmt 0                 @ ../GUILib/src/core/lv_obj_class.c:0:1
	movs	r0, #0
.Ltmp96:
	.loc	5 156 1                         @ ../GUILib/src/core/lv_obj_class.c:156:1
	bx	lr
.Ltmp97:
.Lfunc_end5:
	.size	lv_obj_is_editable, .Lfunc_end5-lv_obj_is_editable
	.cfi_endproc
	.cantunwind
	.fnend
                                        @ -- End function
	.file	14 "C:\\Users\\Hyacincher\\Desktop\\HyTelectrl\\Code\\Project" "../GUILib/src/hal/lv_hal_disp.h"
	.file	15 "C:\\Users\\Hyacincher\\Desktop\\HyTelectrl\\Code\\Project" "../GUILib/src/hal/../misc/lv_timer.h"
	.file	16 "C:\\Users\\Hyacincher\\Desktop\\HyTelectrl\\Code\\Project" "../GUILib/src/core/lv_theme.h"
	.file	17 "C:\\Users\\Hyacincher\\Desktop\\HyTelectrl\\Code\\Project" "../GUILib/src/hal/../draw/../font/lv_font.h"
	.section	".note.GNU-stack","",%progbits
	.eabi_attribute	30, 3	@ Tag_ABI_optimization_goals
	.ARM_attribute	16, 1	@ Tag_AV_eba