	.text
	.syntax unified
	.eabi_attribute	67, "2.09"	@ Tag_conformance
	.cpu	cortex-m4
	.eabi_attribute	6, 13	@ Tag_CPU_arch
	.eabi_attribute	7, 77	@ Tag_CPU_arch_profile
	.eabi_attribute	8, 0	@ Tag_ARM_ISA_use
	.eabi_attribute	9, 2	@ Tag_THUMB_ISA_use
	.fpu	fpv4-sp-d16
	.eabi_attribute	27, 1	@ Tag_ABI_HardFP_use
	.eabi_attribute	36, 1	@ Tag_FP_HP_extension
	.eabi_attribute	34, 1	@ Tag_CPU_unaligned_access
	.eabi_attribute	17, 1	@ Tag_ABI_PCS_GOT_use
	.eabi_attribute	20, 2	@ Tag_ABI_FP_denormal
	.eabi_attribute	21, 0	@ Tag_ABI_FP_exceptions
	.eabi_attribute	23, 1	@ Tag_ABI_FP_number_model
	.eabi_attribute	24, 1	@ Tag_ABI_align_needed
	.eabi_attribute	25, 1	@ Tag_ABI_align_preserved
	.eabi_attribute	28, 1	@ Tag_ABI_VFP_args
	.eabi_attribute	38, 1	@ Tag_ABI_FP_16bit_format
	.eabi_attribute	18, 2	@ Tag_ABI_PCS_wchar_t
	.eabi_attribute	26, 1	@ Tag_ABI_enum_size
	.eabi_attribute	14, 0	@ Tag_ABI_PCS_R9_use
	.file	"lv_printf.c"
	.file	1 "D:\\Keil MDK\\ARM\\ARMCLANG\\Bin\\..\\include" "stddef.h"
	.section	.text.lv_snprintf,"ax",%progbits
	.hidden	lv_snprintf                     @ -- Begin function lv_snprintf
	.globl	lv_snprintf
	.p2align	1
	.type	lv_snprintf,%function
	.code	16                              @ @lv_snprintf
	.thumb_func
lv_snprintf:
.Lfunc_begin0:
	.file	2 "C:\\Users\\Hyacincher\\Desktop\\HyTelectrl\\Code\\Project" "../GUILib/src/misc/lv_printf.c"
	.loc	2 866 0                         @ ../GUILib/src/misc/lv_printf.c:866:0
	.fnstart
	.cfi_sections .debug_frame
	.cfi_startproc
@ %bb.0:
	@DEBUG_VALUE: lv_snprintf:buffer <- $r0
	@DEBUG_VALUE: lv_snprintf:count <- $r1
	@DEBUG_VALUE: lv_snprintf:format <- $r2
	.pad	#4
	sub	sp, #4
	.cfi_def_cfa_offset 4
	.save	{r7, lr}
	push	{r7, lr}
	.cfi_def_cfa_offset 12
	.cfi_offset lr, -8
	.cfi_offset r7, -12
	.pad	#12
	sub	sp, #12
	.cfi_def_cfa_offset 24
	mov	r12, r2
	mov	r2, r1
.Ltmp0:
	@DEBUG_VALUE: lv_snprintf:format <- [DW_OP_LLVM_entry_value 1] $r2
	mov	r1, r0
.Ltmp1:
	@DEBUG_VALUE: lv_snprintf:count <- [DW_OP_LLVM_entry_value 1] $r1
	.loc	2 869 21 prologue_end           @ ../GUILib/src/misc/lv_printf.c:869:21
	movw	r0, :lower16:_out_buffer
.Ltmp2:
	@DEBUG_VALUE: lv_snprintf:buffer <- [DW_OP_LLVM_entry_value 1] $r0
	.loc	2 0 21 is_stmt 0                @ ../GUILib/src/misc/lv_printf.c:0:21
	str	r3, [sp, #20]
	add.w	lr, sp, #20
.Ltmp3:
	@DEBUG_VALUE: lv_snprintf:format <- $r12
	@DEBUG_VALUE: lv_snprintf:count <- $r2
	@DEBUG_VALUE: lv_snprintf:buffer <- $r1
	.loc	2 869 21                        @ ../GUILib/src/misc/lv_printf.c:869:21
	movt	r0, :upper16:_out_buffer
	@DEBUG_VALUE: lv_snprintf:count <- $r2
	@DEBUG_VALUE: lv_snprintf:buffer <- $r1
	mov	r3, r12
.Ltmp4:
	@DEBUG_VALUE: lv_snprintf:format <- $r3
	.loc	2 868 5 is_stmt 1               @ ../GUILib/src/misc/lv_printf.c:868:5
	str.w	lr, [sp, #8]
	.loc	2 869 21                        @ ../GUILib/src/misc/lv_printf.c:869:21
	str.w	lr, [sp]
	bl	_vsnprintf
.Ltmp5:
	@DEBUG_VALUE: lv_snprintf:ret <- $r0
	.loc	2 871 5                         @ ../GUILib/src/misc/lv_printf.c:871:5
	add	sp, #12
	pop.w	{r7, lr}
	add	sp, #4
	bx	lr
.Ltmp6:
.Lfunc_end0:
	.size	lv_snprintf, .Lfunc_end0-lv_snprintf
	.cfi_endproc
	.cantunwind
	.fnend
                                        @ -- End function
	.section	.text._vsnprintf,"ax",%progbits
	.p2align	2                               @ -- Begin function _vsnprintf
	.type	_vsnprintf,%function
	.code	16                              @ @_vsnprintf
	.thumb_func
_vsnprintf:
.Lfunc_begin1:
	.loc	2 551 0                         @ ../GUILib/src/misc/lv_printf.c:551:0
	.fnstart
	.cfi_startproc
@ %bb.0:
	@DEBUG_VALUE: _vsnprintf:out <- $r0
	@DEBUG_VALUE: _vsnprintf:buffer <- $r1
	@DEBUG_VALUE: _vsnprintf:maxlen <- $r2
	@DEBUG_VALUE: _vsnprintf:format <- $r3
	.save	{r4, r5, r6, r7, r8, r9, r10, r11, lr}
	push.w	{r4, r5, r6, r7, r8, r9, r10, r11, lr}
	.cfi_def_cfa_offset 36
	.cfi_offset lr, -4
	.cfi_offset r11, -8
	.cfi_offset r10, -12
	.cfi_offset r9, -16
	.cfi_offset r8, -20
	.cfi_offset r7, -24
	.cfi_offset r6, -28
	.cfi_offset r5, -32
	.cfi_offset r4, -36
	.pad	#76
	sub	sp, #76
	.cfi_def_cfa_offset 112
	mov	r8, r1
.Ltmp7:
	@DEBUG_VALUE: _vsnprintf:buffer <- $r8
	ldr	r1, [sp, #112]
.Ltmp8:
	.loc	2 555 8 prologue_end            @ ../GUILib/src/misc/lv_printf.c:555:8
	movw	r6, :lower16:_out_null
	mov	r4, r3
.Ltmp9:
	@DEBUG_VALUE: _vsnprintf:format <- $r4
	.loc	2 0 8 is_stmt 0                 @ ../GUILib/src/misc/lv_printf.c:0:8
	mov	r5, r2
.Ltmp10:
	@DEBUG_VALUE: _vsnprintf:maxlen <- $r5
	.loc	2 555 8                         @ ../GUILib/src/misc/lv_printf.c:555:8
	movt	r6, :upper16:_out_null
	mov.w	r11, #0
	str	r1, [sp, #68]                   @ 4-byte Spill
.Ltmp11:
	@DEBUG_VALUE: _vsnprintf:idx <- 0
	@DEBUG_VALUE: _vsnprintf:va <- [DW_OP_plus_uconst 68] [$sp+0]
	@DEBUG_VALUE: _vsnprintf:format <- $r4
	@DEBUG_VALUE: _vsnprintf:maxlen <- $r5
	@DEBUG_VALUE: _vsnprintf:buffer <- $r8
	@DEBUG_VALUE: _vsnprintf:out <- $r0
	cmp.w	r8, #0
	it	ne
	movne	r6, r0
.Ltmp12:
	@DEBUG_VALUE: _vsnprintf:out <- $r6
	@DEBUG_VALUE: _vsnprintf:out <- $r6
.LBB1_1:                                @ =>This Loop Header: Depth=1
                                        @     Child Loop BB1_2 Depth 2
                                        @     Child Loop BB1_6 Depth 2
                                        @     Child Loop BB1_20 Depth 2
                                        @     Child Loop BB1_29 Depth 2
                                        @     Child Loop BB1_87 Depth 2
                                        @     Child Loop BB1_92 Depth 2
                                        @     Child Loop BB1_120 Depth 2
                                        @     Child Loop BB1_128 Depth 2
                                        @     Child Loop BB1_83 Depth 2
                                        @     Child Loop BB1_114 Depth 2
	@DEBUG_VALUE: _vsnprintf:va <- [DW_OP_plus_uconst 68] [$sp+0]
	.loc	2 560 5 is_stmt 1               @ ../GUILib/src/misc/lv_printf.c:560:5
	add.w	r10, r4, #1
	mov.w	r9, #0
.Ltmp13:
	.p2align	2
.LBB1_2:                                @   Parent Loop BB1_1 Depth=1
                                        @ =>  This Inner Loop Header: Depth=2
	@DEBUG_VALUE: _vsnprintf:va <- [DW_OP_plus_uconst 68] [$sp+0]
	@DEBUG_VALUE: _vsnprintf:format <- undef
	@DEBUG_VALUE: _vsnprintf:va <- [DW_OP_plus_uconst 68] [$sp+0]
	@DEBUG_VALUE: _vsnprintf:idx <- undef
	.loc	2 560 11 is_stmt 0              @ ../GUILib/src/misc/lv_printf.c:560:11
	ldrb.w	r0, [r4, r9]
	add.w	r7, r11, r9
	.loc	2 560 5                         @ ../GUILib/src/misc/lv_printf.c:560:5
	cmp	r0, #0
	beq.w	.LBB1_130
.Ltmp14:
@ %bb.3:                                @   in Loop: Header=BB1_2 Depth=2
	@DEBUG_VALUE: _vsnprintf:va <- [DW_OP_plus_uconst 68] [$sp+0]
	cmp	r0, #37
	beq	.LBB1_5
.Ltmp15:
@ %bb.4:                                @   in Loop: Header=BB1_2 Depth=2
	@DEBUG_VALUE: _vsnprintf:va <- [DW_OP_plus_uconst 68] [$sp+0]
	@DEBUG_VALUE: _vsnprintf:idx <- [DW_OP_plus_uconst 1, DW_OP_stack_value] undef
	.loc	2 564 13 is_stmt 1              @ ../GUILib/src/misc/lv_printf.c:564:13
	mov	r1, r8
	mov	r2, r7
	mov	r3, r5
	blx	r6
.Ltmp16:
	@DEBUG_VALUE: _vsnprintf:format <- [DW_OP_plus_uconst 1, DW_OP_stack_value] undef
	.loc	2 566 13                        @ ../GUILib/src/misc/lv_printf.c:566:13
	add.w	r9, r9, #1
	add.w	r10, r10, #1
	b	.LBB1_2
.Ltmp17:
	.p2align	2
.LBB1_5:                                @   in Loop: Header=BB1_1 Depth=1
	@DEBUG_VALUE: _vsnprintf:va <- [DW_OP_plus_uconst 68] [$sp+0]
	.loc	2 0 13 is_stmt 0                @ ../GUILib/src/misc/lv_printf.c:0:13
	str	r6, [sp, #56]                   @ 4-byte Spill
.Ltmp18:
	@DEBUG_VALUE: _vsnprintf:out <- [DW_OP_plus_uconst 56] [$sp+0]
	movs	r6, #0
.Ltmp19:
	.p2align	2
.LBB1_6:                                @   Parent Loop BB1_1 Depth=1
                                        @ =>  This Inner Loop Header: Depth=2
	@DEBUG_VALUE: _vsnprintf:va <- [DW_OP_plus_uconst 68] [$sp+0]
	@DEBUG_VALUE: _vsnprintf:format <- $r10
	@DEBUG_VALUE: _vsnprintf:flags <- $r6
	.loc	2 576 20 is_stmt 1              @ ../GUILib/src/misc/lv_printf.c:576:20
	ldrb.w	r0, [r10]
	.loc	2 576 13 is_stmt 0              @ ../GUILib/src/misc/lv_printf.c:576:13
	cmp	r0, #42
	ble	.LBB1_11
.Ltmp20:
@ %bb.7:                                @   in Loop: Header=BB1_6 Depth=2
	@DEBUG_VALUE: _vsnprintf:format <- $r10
	@DEBUG_VALUE: _vsnprintf:flags <- $r6
	@DEBUG_VALUE: _vsnprintf:va <- [DW_OP_plus_uconst 68] [$sp+0]
	cmp	r0, #43
	beq	.LBB1_14
.Ltmp21:
@ %bb.8:                                @   in Loop: Header=BB1_6 Depth=2
	@DEBUG_VALUE: _vsnprintf:format <- $r10
	@DEBUG_VALUE: _vsnprintf:flags <- $r6
	@DEBUG_VALUE: _vsnprintf:va <- [DW_OP_plus_uconst 68] [$sp+0]
	cmp	r0, #48
	beq	.LBB1_15
.Ltmp22:
@ %bb.9:                                @   in Loop: Header=BB1_6 Depth=2
	@DEBUG_VALUE: _vsnprintf:format <- $r10
	@DEBUG_VALUE: _vsnprintf:flags <- $r6
	@DEBUG_VALUE: _vsnprintf:va <- [DW_OP_plus_uconst 68] [$sp+0]
	cmp	r0, #45
	bne	.LBB1_18
.Ltmp23:
@ %bb.10:                               @   in Loop: Header=BB1_6 Depth=2
	@DEBUG_VALUE: _vsnprintf:format <- $r10
	@DEBUG_VALUE: _vsnprintf:flags <- $r6
	@DEBUG_VALUE: _vsnprintf:va <- [DW_OP_plus_uconst 68] [$sp+0]
	.loc	2 0 13                          @ ../GUILib/src/misc/lv_printf.c:0:13
	movs	r0, #2
.Ltmp24:
	@DEBUG_VALUE: _vsnprintf:n <- 1
	@DEBUG_VALUE: _vsnprintf:flags <- undef
	@DEBUG_VALUE: _vsnprintf:format <- [DW_OP_plus_uconst 1, DW_OP_stack_value] $r10
	b	.LBB1_17
.Ltmp25:
	.p2align	2
.LBB1_11:                               @   in Loop: Header=BB1_6 Depth=2
	@DEBUG_VALUE: _vsnprintf:format <- $r10
	@DEBUG_VALUE: _vsnprintf:flags <- $r6
	@DEBUG_VALUE: _vsnprintf:va <- [DW_OP_plus_uconst 68] [$sp+0]
	.loc	2 576 13                        @ ../GUILib/src/misc/lv_printf.c:576:13
	cmp	r0, #32
	beq	.LBB1_16
.Ltmp26:
@ %bb.12:                               @   in Loop: Header=BB1_6 Depth=2
	@DEBUG_VALUE: _vsnprintf:format <- $r10
	@DEBUG_VALUE: _vsnprintf:flags <- $r6
	@DEBUG_VALUE: _vsnprintf:va <- [DW_OP_plus_uconst 68] [$sp+0]
	cmp	r0, #35
	bne	.LBB1_18
.Ltmp27:
@ %bb.13:                               @   in Loop: Header=BB1_6 Depth=2
	@DEBUG_VALUE: _vsnprintf:format <- $r10
	@DEBUG_VALUE: _vsnprintf:flags <- $r6
	@DEBUG_VALUE: _vsnprintf:va <- [DW_OP_plus_uconst 68] [$sp+0]
	.loc	2 0 13                          @ ../GUILib/src/misc/lv_printf.c:0:13
	movs	r0, #16
.Ltmp28:
	@DEBUG_VALUE: _vsnprintf:n <- 1
	@DEBUG_VALUE: _vsnprintf:flags <- undef
	@DEBUG_VALUE: _vsnprintf:format <- [DW_OP_plus_uconst 1, DW_OP_stack_value] $r10
	b	.LBB1_17
.Ltmp29:
.LBB1_14:                               @   in Loop: Header=BB1_6 Depth=2
	@DEBUG_VALUE: _vsnprintf:format <- $r10
	@DEBUG_VALUE: _vsnprintf:flags <- $r6
	@DEBUG_VALUE: _vsnprintf:va <- [DW_OP_plus_uconst 68] [$sp+0]
	movs	r0, #4
.Ltmp30:
	@DEBUG_VALUE: _vsnprintf:n <- 1
	@DEBUG_VALUE: _vsnprintf:flags <- undef
	@DEBUG_VALUE: _vsnprintf:format <- [DW_OP_plus_uconst 1, DW_OP_stack_value] $r10
	b	.LBB1_17
.Ltmp31:
.LBB1_15:                               @   in Loop: Header=BB1_6 Depth=2
	@DEBUG_VALUE: _vsnprintf:format <- $r10
	@DEBUG_VALUE: _vsnprintf:flags <- $r6
	@DEBUG_VALUE: _vsnprintf:va <- [DW_OP_plus_uconst 68] [$sp+0]
	movs	r0, #1
	b	.LBB1_17
.Ltmp32:
.LBB1_16:                               @   in Loop: Header=BB1_6 Depth=2
	@DEBUG_VALUE: _vsnprintf:format <- $r10
	@DEBUG_VALUE: _vsnprintf:flags <- $r6
	@DEBUG_VALUE: _vsnprintf:va <- [DW_OP_plus_uconst 68] [$sp+0]
	movs	r0, #8
.Ltmp33:
	@DEBUG_VALUE: _vsnprintf:n <- 1
	@DEBUG_VALUE: _vsnprintf:flags <- undef
	@DEBUG_VALUE: _vsnprintf:format <- [DW_OP_plus_uconst 1, DW_OP_stack_value] $r10
	.p2align	2
.LBB1_17:                               @   in Loop: Header=BB1_6 Depth=2
	@DEBUG_VALUE: _vsnprintf:va <- [DW_OP_plus_uconst 68] [$sp+0]
	orrs	r6, r0
.Ltmp34:
	@DEBUG_VALUE: _vsnprintf:n <- undef
	@DEBUG_VALUE: _vsnprintf:flags <- $r6
	.loc	2 606 9 is_stmt 1               @ ../GUILib/src/misc/lv_printf.c:606:9
	add.w	r10, r10, #1
	b	.LBB1_6
.Ltmp35:
	.p2align	2
.LBB1_18:                               @   in Loop: Header=BB1_1 Depth=1
	@DEBUG_VALUE: _vsnprintf:format <- $r10
	@DEBUG_VALUE: _vsnprintf:flags <- $r6
	@DEBUG_VALUE: _vsnprintf:va <- [DW_OP_plus_uconst 68] [$sp+0]
	@DEBUG_VALUE: _vsnprintf:format <- [DW_OP_plus_uconst 1, DW_OP_plus_uconst 1, DW_OP_stack_value] undef
	@DEBUG_VALUE: _vsnprintf:n <- undef
	@DEBUG_VALUE: _vsnprintf:width <- 0
	@DEBUG_VALUE: _is_digit:ch <- $r0
	.loc	2 154 24                        @ ../GUILib/src/misc/lv_printf.c:154:24
	sub.w	r1, r0, #48
	uxtb	r1, r1
.Ltmp36:
	.loc	2 610 12                        @ ../GUILib/src/misc/lv_printf.c:610:12
	cmp	r1, #9
	bhi	.LBB1_21
.Ltmp37:
@ %bb.19:                               @   in Loop: Header=BB1_1 Depth=1
	@DEBUG_VALUE: _vsnprintf:flags <- $r6
	@DEBUG_VALUE: _is_digit:ch <- $r0
	@DEBUG_VALUE: _vsnprintf:va <- [DW_OP_plus_uconst 68] [$sp+0]
	@DEBUG_VALUE: _vsnprintf:width <- 0
	.loc	2 0 12 is_stmt 0                @ ../GUILib/src/misc/lv_printf.c:0:12
	movs	r4, #0
.Ltmp38:
	.p2align	2
.LBB1_20:                               @   Parent Loop BB1_1 Depth=1
                                        @ =>  This Inner Loop Header: Depth=2
	@DEBUG_VALUE: _vsnprintf:flags <- $r6
	@DEBUG_VALUE: _vsnprintf:va <- [DW_OP_plus_uconst 68] [$sp+0]
	@DEBUG_VALUE: _vsnprintf:width <- 0
	.loc	2 162 38 is_stmt 1              @ ../GUILib/src/misc/lv_printf.c:162:38
	mov	r1, r0
.Ltmp39:
	@DEBUG_VALUE: _atoi:i <- $r4
	.loc	2 162 15 is_stmt 0              @ ../GUILib/src/misc/lv_printf.c:162:15
	add.w	r0, r4, r4, lsl #2
	lsls	r2, r0, #1
.Ltmp40:
	.loc	2 161 21 is_stmt 1              @ ../GUILib/src/misc/lv_printf.c:161:21
	ldrb	r0, [r10, #1]!
.Ltmp41:
	.loc	2 162 50                        @ ../GUILib/src/misc/lv_printf.c:162:50
	uxtab	r1, r2, r1
.Ltmp42:
	@DEBUG_VALUE: _is_digit:ch <- $r0
	.loc	2 154 24                        @ ../GUILib/src/misc/lv_printf.c:154:24
	sub.w	r2, r0, #48
	uxtb	r2, r2
.Ltmp43:
	.loc	2 161 5                         @ ../GUILib/src/misc/lv_printf.c:161:5
	cmp	r2, #10
.Ltmp44:
	.loc	2 162 21                        @ ../GUILib/src/misc/lv_printf.c:162:21
	sub.w	r4, r1, #48
.Ltmp45:
	@DEBUG_VALUE: _atoi:i <- $r4
	.loc	2 161 5                         @ ../GUILib/src/misc/lv_printf.c:161:5
	blo	.LBB1_20
	b	.LBB1_26
.Ltmp46:
	.p2align	2
.LBB1_21:                               @   in Loop: Header=BB1_1 Depth=1
	@DEBUG_VALUE: _vsnprintf:flags <- $r6
	@DEBUG_VALUE: _vsnprintf:va <- [DW_OP_plus_uconst 68] [$sp+0]
	@DEBUG_VALUE: _vsnprintf:width <- 0
	@DEBUG_VALUE: _vsnprintf:format <- [DW_OP_plus_uconst 1, DW_OP_plus_uconst 1, DW_OP_stack_value] undef
	.loc	2 613 17                        @ ../GUILib/src/misc/lv_printf.c:613:17
	cmp	r0, #42
	bne	.LBB1_25
.Ltmp47:
@ %bb.22:                               @   in Loop: Header=BB1_1 Depth=1
	@DEBUG_VALUE: _vsnprintf:flags <- $r6
	@DEBUG_VALUE: _vsnprintf:va <- [DW_OP_plus_uconst 68] [$sp+0]
	@DEBUG_VALUE: _vsnprintf:width <- 0
	.loc	2 614 27                        @ ../GUILib/src/misc/lv_printf.c:614:27
	ldr	r1, [sp, #68]                   @ 4-byte Reload
	ldr	r0, [r1], #4
.Ltmp48:
	@DEBUG_VALUE: w <- $r0
	@DEBUG_VALUE: _vsnprintf:va <- $r1
	.loc	2 615 16                        @ ../GUILib/src/misc/lv_printf.c:615:16
	cmp	r0, #0
	mov	r4, r0
	str	r1, [sp, #68]                   @ 4-byte Spill
.Ltmp49:
	@DEBUG_VALUE: _vsnprintf:va <- [DW_OP_plus_uconst 68] [$sp+0]
	@DEBUG_VALUE: _vsnprintf:va <- [DW_OP_plus_uconst 68] [$sp+0]
	@DEBUG_VALUE: _vsnprintf:va <- [DW_OP_plus_uconst 68] [$sp+0]
	bpl	.LBB1_24
.Ltmp50:
@ %bb.23:                               @   in Loop: Header=BB1_1 Depth=1
	@DEBUG_VALUE: _vsnprintf:flags <- $r6
	@DEBUG_VALUE: w <- $r0
	@DEBUG_VALUE: _vsnprintf:va <- [DW_OP_plus_uconst 68] [$sp+0]
	@DEBUG_VALUE: _vsnprintf:width <- 0
	rsbs	r4, r0, #0
.Ltmp51:
.LBB1_24:                               @   in Loop: Header=BB1_1 Depth=1
	@DEBUG_VALUE: _vsnprintf:flags <- $r6
	@DEBUG_VALUE: w <- $r0
	@DEBUG_VALUE: _vsnprintf:va <- [DW_OP_plus_uconst 68] [$sp+0]
	@DEBUG_VALUE: _vsnprintf:width <- 0
	cmp	r0, #0
.Ltmp52:
	.loc	2 627 12                        @ ../GUILib/src/misc/lv_printf.c:627:12
	ldrb	r0, [r10, #1]!
.Ltmp53:
	.loc	2 615 16                        @ ../GUILib/src/misc/lv_printf.c:615:16
	it	mi
	orrmi	r6, r6, #2
.Ltmp54:
	@DEBUG_VALUE: _vsnprintf:width <- $r4
	@DEBUG_VALUE: _vsnprintf:flags <- $r6
	@DEBUG_VALUE: _vsnprintf:format <- [DW_OP_plus_uconst 2, DW_OP_stack_value] undef
	.loc	2 0 16 is_stmt 0                @ ../GUILib/src/misc/lv_printf.c:0:16
	b	.LBB1_26
.Ltmp55:
.LBB1_25:                               @   in Loop: Header=BB1_1 Depth=1
	@DEBUG_VALUE: _vsnprintf:flags <- $r6
	@DEBUG_VALUE: _vsnprintf:va <- [DW_OP_plus_uconst 68] [$sp+0]
	@DEBUG_VALUE: _vsnprintf:width <- 0
	movs	r4, #0
.Ltmp56:
.LBB1_26:                               @   in Loop: Header=BB1_1 Depth=1
	@DEBUG_VALUE: _vsnprintf:flags <- $r6
	@DEBUG_VALUE: _vsnprintf:va <- [DW_OP_plus_uconst 68] [$sp+0]
	@DEBUG_VALUE: _vsnprintf:format <- $r10
	@DEBUG_VALUE: _vsnprintf:va <- [DW_OP_plus_uconst 68] [$sp+0]
	@DEBUG_VALUE: _vsnprintf:flags <- $r6
	@DEBUG_VALUE: _vsnprintf:width <- $r4
	@DEBUG_VALUE: _vsnprintf:precision <- 0
	.loc	2 627 12 is_stmt 1              @ ../GUILib/src/misc/lv_printf.c:627:12
	cmp	r0, #46
	strd	r8, r5, [sp, #60]               @ 8-byte Folded Spill
	bne	.LBB1_31
.Ltmp57:
@ %bb.27:                               @   in Loop: Header=BB1_1 Depth=1
	@DEBUG_VALUE: _vsnprintf:format <- $r10
	@DEBUG_VALUE: _vsnprintf:flags <- $r6
	@DEBUG_VALUE: _vsnprintf:width <- $r4
	@DEBUG_VALUE: _vsnprintf:va <- [DW_OP_plus_uconst 68] [$sp+0]
	@DEBUG_VALUE: _vsnprintf:precision <- 0
	.loc	2 630 26                        @ ../GUILib/src/misc/lv_printf.c:630:26
	mov	r1, r10
	ldrb	r0, [r1, #1]!
.Ltmp58:
	@DEBUG_VALUE: _is_digit:ch <- $r0
	@DEBUG_VALUE: _vsnprintf:format <- $r1
	.loc	2 628 19                        @ ../GUILib/src/misc/lv_printf.c:628:19
	orr	r6, r6, #1024
.Ltmp59:
	@DEBUG_VALUE: _vsnprintf:flags <- $r6
	.loc	2 154 24                        @ ../GUILib/src/misc/lv_printf.c:154:24
	sub.w	r2, r0, #48
	uxtb	r2, r2
.Ltmp60:
	.loc	2 630 16                        @ ../GUILib/src/misc/lv_printf.c:630:16
	cmp	r2, #9
	bhi	.LBB1_37
.Ltmp61:
@ %bb.28:                               @   in Loop: Header=BB1_1 Depth=1
	@DEBUG_VALUE: _vsnprintf:flags <- $r6
	@DEBUG_VALUE: _vsnprintf:width <- $r4
	@DEBUG_VALUE: _vsnprintf:format <- $r1
	@DEBUG_VALUE: _vsnprintf:va <- [DW_OP_plus_uconst 68] [$sp+0]
	@DEBUG_VALUE: _vsnprintf:precision <- 0
	.loc	2 161 5                         @ ../GUILib/src/misc/lv_printf.c:161:5
	add.w	r1, r10, #2
.Ltmp62:
	.loc	2 0 5 is_stmt 0                 @ ../GUILib/src/misc/lv_printf.c:0:5
	mov.w	r8, #0
.Ltmp63:
	.p2align	2
.LBB1_29:                               @   Parent Loop BB1_1 Depth=1
                                        @ =>  This Inner Loop Header: Depth=2
	@DEBUG_VALUE: _vsnprintf:flags <- $r6
	@DEBUG_VALUE: _vsnprintf:width <- $r4
	@DEBUG_VALUE: _vsnprintf:va <- [DW_OP_plus_uconst 68] [$sp+0]
	@DEBUG_VALUE: _vsnprintf:precision <- 0
	@DEBUG_VALUE: _atoi:i <- $r8
	.loc	2 162 15 is_stmt 1              @ ../GUILib/src/misc/lv_printf.c:162:15
	add.w	r2, r8, r8, lsl #2
	lsls	r2, r2, #1
	.loc	2 162 50 is_stmt 0              @ ../GUILib/src/misc/lv_printf.c:162:50
	uxtab	r2, r2, r0
.Ltmp64:
	.loc	2 161 21 is_stmt 1              @ ../GUILib/src/misc/lv_printf.c:161:21
	ldrb	r0, [r1], #1
.Ltmp65:
	@DEBUG_VALUE: _is_digit:ch <- $r0
	.loc	2 162 21                        @ ../GUILib/src/misc/lv_printf.c:162:21
	sub.w	r8, r2, #48
.Ltmp66:
	@DEBUG_VALUE: _atoi:i <- $r8
	.loc	2 154 24                        @ ../GUILib/src/misc/lv_printf.c:154:24
	sub.w	r3, r0, #48
	uxtb	r3, r3
.Ltmp67:
	.loc	2 161 5                         @ ../GUILib/src/misc/lv_printf.c:161:5
	cmp	r3, #10
	blo	.LBB1_29
.Ltmp68:
@ %bb.30:                               @   in Loop: Header=BB1_1 Depth=1
	@DEBUG_VALUE: _vsnprintf:flags <- $r6
	@DEBUG_VALUE: _vsnprintf:width <- $r4
	@DEBUG_VALUE: _vsnprintf:va <- [DW_OP_plus_uconst 68] [$sp+0]
	@DEBUG_VALUE: _vsnprintf:precision <- 0
	.loc	2 641 16                        @ ../GUILib/src/misc/lv_printf.c:641:16
	sub.w	r10, r1, #1
	b	.LBB1_32
.Ltmp69:
	.p2align	2
.LBB1_31:                               @   in Loop: Header=BB1_1 Depth=1
	@DEBUG_VALUE: _vsnprintf:format <- $r10
	@DEBUG_VALUE: _vsnprintf:flags <- $r6
	@DEBUG_VALUE: _vsnprintf:width <- $r4
	@DEBUG_VALUE: _vsnprintf:va <- [DW_OP_plus_uconst 68] [$sp+0]
	@DEBUG_VALUE: _vsnprintf:precision <- 0
	.loc	2 0 16 is_stmt 0                @ ../GUILib/src/misc/lv_printf.c:0:16
	mov.w	r8, #0
.Ltmp70:
.LBB1_32:                               @   in Loop: Header=BB1_1 Depth=1
	@DEBUG_VALUE: _vsnprintf:flags <- $r6
	@DEBUG_VALUE: _vsnprintf:width <- $r4
	@DEBUG_VALUE: _vsnprintf:va <- [DW_OP_plus_uconst 68] [$sp+0]
	@DEBUG_VALUE: _vsnprintf:format <- $r10
	@DEBUG_VALUE: _vsnprintf:va <- [DW_OP_plus_uconst 68] [$sp+0]
	@DEBUG_VALUE: _vsnprintf:flags <- $r6
	@DEBUG_VALUE: _vsnprintf:precision <- $r8
	.loc	2 641 9                         @ ../GUILib/src/misc/lv_printf.c:641:9
	sub.w	r1, r0, #104
	ror.w	r3, r1, #1
	cmp	r3, #9
	bhi	.LBB1_47
.Ltmp71:
@ %bb.33:                               @   in Loop: Header=BB1_1 Depth=1
	@DEBUG_VALUE: _vsnprintf:format <- $r10
	@DEBUG_VALUE: _vsnprintf:precision <- $r8
	@DEBUG_VALUE: _vsnprintf:flags <- $r6
	@DEBUG_VALUE: _vsnprintf:width <- $r4
	@DEBUG_VALUE: _vsnprintf:va <- [DW_OP_plus_uconst 68] [$sp+0]
	.loc	2 0 9                           @ ../GUILib/src/misc/lv_printf.c:0:9
	mov.w	r12, #1
	mov.w	r2, #256
.LCPI1_0:
	tbb	[pc, r3]
.Ltmp72:
@ %bb.34:
.LJTI1_0:
	.byte	(.LBB1_35-(.LCPI1_0+4))/2
	.byte	(.LBB1_39-(.LCPI1_0+4))/2
	.byte	(.LBB1_40-(.LCPI1_0+4))/2
	.byte	(.LBB1_47-(.LCPI1_0+4))/2
	.byte	(.LBB1_47-(.LCPI1_0+4))/2
	.byte	(.LBB1_47-(.LCPI1_0+4))/2
	.byte	(.LBB1_42-(.LCPI1_0+4))/2
	.byte	(.LBB1_47-(.LCPI1_0+4))/2
	.byte	(.LBB1_47-(.LCPI1_0+4))/2
	.byte	(.LBB1_42-(.LCPI1_0+4))/2
	.p2align	1
.LBB1_35:                               @   in Loop: Header=BB1_1 Depth=1
.Ltmp73:
	@DEBUG_VALUE: _vsnprintf:format <- $r10
	@DEBUG_VALUE: _vsnprintf:precision <- $r8
	@DEBUG_VALUE: _vsnprintf:flags <- $r6
	@DEBUG_VALUE: _vsnprintf:width <- $r4
	@DEBUG_VALUE: _vsnprintf:va <- [DW_OP_plus_uconst 68] [$sp+0]
	@DEBUG_VALUE: _vsnprintf:flags <- undef
	.loc	2 653 20 is_stmt 1              @ ../GUILib/src/misc/lv_printf.c:653:20
	mov	r1, r10
	ldrb	r0, [r1, #1]!
.Ltmp74:
	@DEBUG_VALUE: _vsnprintf:format <- $r1
	.loc	2 653 20 is_stmt 0              @ ../GUILib/src/misc/lv_printf.c:653:20
	cmp	r0, #104
	bne	.LBB1_44
.Ltmp75:
@ %bb.36:                               @   in Loop: Header=BB1_1 Depth=1
	@DEBUG_VALUE: _vsnprintf:precision <- $r8
	@DEBUG_VALUE: _vsnprintf:width <- $r4
	@DEBUG_VALUE: _vsnprintf:format <- $r1
	@DEBUG_VALUE: _vsnprintf:va <- [DW_OP_plus_uconst 68] [$sp+0]
	.loc	2 0 20                          @ ../GUILib/src/misc/lv_printf.c:0:20
	mov.w	r12, #2
	movs	r2, #192
	b	.LBB1_42
.Ltmp76:
.LBB1_37:                               @   in Loop: Header=BB1_1 Depth=1
	@DEBUG_VALUE: _vsnprintf:flags <- $r6
	@DEBUG_VALUE: _vsnprintf:width <- $r4
	@DEBUG_VALUE: _vsnprintf:format <- $r1
	@DEBUG_VALUE: _vsnprintf:va <- [DW_OP_plus_uconst 68] [$sp+0]
	@DEBUG_VALUE: _vsnprintf:precision <- 0
	@DEBUG_VALUE: _vsnprintf:format <- $r1
	.loc	2 633 21 is_stmt 1              @ ../GUILib/src/misc/lv_printf.c:633:21
	cmp	r0, #42
	bne	.LBB1_43
.Ltmp77:
@ %bb.38:                               @   in Loop: Header=BB1_1 Depth=1
	@DEBUG_VALUE: _vsnprintf:flags <- $r6
	@DEBUG_VALUE: _vsnprintf:width <- $r4
	@DEBUG_VALUE: _vsnprintf:format <- $r1
	@DEBUG_VALUE: _vsnprintf:va <- [DW_OP_plus_uconst 68] [$sp+0]
	@DEBUG_VALUE: _vsnprintf:precision <- 0
	.loc	2 634 39                        @ ../GUILib/src/misc/lv_printf.c:634:39
	ldr	r0, [sp, #68]                   @ 4-byte Reload
	ldr	r1, [r0], #4
.Ltmp78:
	@DEBUG_VALUE: prec <- $r1
	@DEBUG_VALUE: _vsnprintf:va <- $r0
	.loc	2 641 16                        @ ../GUILib/src/misc/lv_printf.c:641:16
	str	r0, [sp, #68]                   @ 4-byte Spill
.Ltmp79:
	@DEBUG_VALUE: _vsnprintf:va <- [DW_OP_plus_uconst 68] [$sp+0]
	@DEBUG_VALUE: _vsnprintf:va <- [DW_OP_plus_uconst 68] [$sp+0]
	@DEBUG_VALUE: _vsnprintf:va <- [DW_OP_plus_uconst 68] [$sp+0]
	ldrb	r0, [r10, #2]!
.Ltmp80:
	@DEBUG_VALUE: _vsnprintf:format <- $r10
	.loc	2 635 29                        @ ../GUILib/src/misc/lv_printf.c:635:29
	bic.w	r8, r1, r1, asr #31
	@DEBUG_VALUE: prec <- $r1
.Ltmp81:
	@DEBUG_VALUE: _vsnprintf:precision <- $r8
	.loc	2 0 29 is_stmt 0                @ ../GUILib/src/misc/lv_printf.c:0:29
	b	.LBB1_32
.Ltmp82:
.LBB1_39:                               @   in Loop: Header=BB1_1 Depth=1
	@DEBUG_VALUE: _vsnprintf:format <- $r10
	@DEBUG_VALUE: _vsnprintf:precision <- $r8
	@DEBUG_VALUE: _vsnprintf:flags <- $r6
	@DEBUG_VALUE: _vsnprintf:width <- $r4
	@DEBUG_VALUE: _vsnprintf:va <- [DW_OP_plus_uconst 68] [$sp+0]
	mov.w	r12, #1
	mov.w	r2, #512
.Ltmp83:
	@DEBUG_VALUE: _vsnprintf:flags <- undef
	@DEBUG_VALUE: _vsnprintf:format <- undef
	b	.LBB1_42
.Ltmp84:
.LBB1_40:                               @   in Loop: Header=BB1_1 Depth=1
	@DEBUG_VALUE: _vsnprintf:format <- $r10
	@DEBUG_VALUE: _vsnprintf:precision <- $r8
	@DEBUG_VALUE: _vsnprintf:flags <- $r6
	@DEBUG_VALUE: _vsnprintf:width <- $r4
	@DEBUG_VALUE: _vsnprintf:va <- [DW_OP_plus_uconst 68] [$sp+0]
	@DEBUG_VALUE: _vsnprintf:flags <- undef
	.loc	2 645 20 is_stmt 1              @ ../GUILib/src/misc/lv_printf.c:645:20
	mov	r1, r10
	ldrb	r0, [r1, #1]!
.Ltmp85:
	@DEBUG_VALUE: _vsnprintf:format <- $r1
	.loc	2 645 20 is_stmt 0              @ ../GUILib/src/misc/lv_printf.c:645:20
	cmp	r0, #108
	bne	.LBB1_45
.Ltmp86:
@ %bb.41:                               @   in Loop: Header=BB1_1 Depth=1
	@DEBUG_VALUE: _vsnprintf:precision <- $r8
	@DEBUG_VALUE: _vsnprintf:width <- $r4
	@DEBUG_VALUE: _vsnprintf:format <- $r1
	@DEBUG_VALUE: _vsnprintf:va <- [DW_OP_plus_uconst 68] [$sp+0]
	.loc	2 0 20                          @ ../GUILib/src/misc/lv_printf.c:0:20
	mov.w	r12, #2
	mov.w	r2, #768
.Ltmp87:
	.p2align	2
.LBB1_42:                               @   in Loop: Header=BB1_1 Depth=1
	@DEBUG_VALUE: _vsnprintf:precision <- $r8
	@DEBUG_VALUE: _vsnprintf:width <- $r4
	@DEBUG_VALUE: _vsnprintf:va <- [DW_OP_plus_uconst 68] [$sp+0]
	.loc	2 677 16 is_stmt 1              @ ../GUILib/src/misc/lv_printf.c:677:16
	ldrb.w	r0, [r10, r12]
.Ltmp88:
	.loc	2 0 0 is_stmt 0                 @ ../GUILib/src/misc/lv_printf.c:0:0
	orrs	r6, r2
	add	r10, r12
	b	.LBB1_47
.Ltmp89:
.LBB1_43:                               @   in Loop: Header=BB1_1 Depth=1
	@DEBUG_VALUE: _vsnprintf:flags <- $r6
	@DEBUG_VALUE: _vsnprintf:width <- $r4
	@DEBUG_VALUE: _vsnprintf:format <- $r1
	@DEBUG_VALUE: _vsnprintf:va <- [DW_OP_plus_uconst 68] [$sp+0]
	@DEBUG_VALUE: _vsnprintf:precision <- 0
	mov.w	r8, #0
	mov	r10, r1
.Ltmp90:
	@DEBUG_VALUE: _vsnprintf:format <- $r10
	@DEBUG_VALUE: _vsnprintf:format <- $r10
	b	.LBB1_32
.Ltmp91:
.LBB1_44:                               @   in Loop: Header=BB1_1 Depth=1
	@DEBUG_VALUE: _vsnprintf:precision <- $r8
	@DEBUG_VALUE: _vsnprintf:width <- $r4
	@DEBUG_VALUE: _vsnprintf:format <- $r1
	@DEBUG_VALUE: _vsnprintf:va <- [DW_OP_plus_uconst 68] [$sp+0]
	orr	r6, r6, #128
.Ltmp92:
	@DEBUG_VALUE: _vsnprintf:flags <- $r6
	b	.LBB1_46
.Ltmp93:
.LBB1_45:                               @   in Loop: Header=BB1_1 Depth=1
	@DEBUG_VALUE: _vsnprintf:precision <- $r8
	@DEBUG_VALUE: _vsnprintf:width <- $r4
	@DEBUG_VALUE: _vsnprintf:format <- $r1
	@DEBUG_VALUE: _vsnprintf:va <- [DW_OP_plus_uconst 68] [$sp+0]
	orr	r6, r6, #256
.Ltmp94:
	@DEBUG_VALUE: _vsnprintf:flags <- $r6
.LBB1_46:                               @   in Loop: Header=BB1_1 Depth=1
	@DEBUG_VALUE: _vsnprintf:precision <- $r8
	@DEBUG_VALUE: _vsnprintf:flags <- $r6
	@DEBUG_VALUE: _vsnprintf:width <- $r4
	@DEBUG_VALUE: _vsnprintf:format <- $r1
	@DEBUG_VALUE: _vsnprintf:va <- [DW_OP_plus_uconst 68] [$sp+0]
	mov	r10, r1
.Ltmp95:
	@DEBUG_VALUE: _vsnprintf:format <- $r10
	@DEBUG_VALUE: _vsnprintf:format <- $r10
	.p2align	2
.LBB1_47:                               @   in Loop: Header=BB1_1 Depth=1
	@DEBUG_VALUE: _vsnprintf:precision <- $r8
	@DEBUG_VALUE: _vsnprintf:width <- $r4
	@DEBUG_VALUE: _vsnprintf:va <- [DW_OP_plus_uconst 68] [$sp+0]
	@DEBUG_VALUE: _vsnprintf:format <- $r10
	@DEBUG_VALUE: _vsnprintf:flags <- $r6
	.loc	2 677 9                         @ ../GUILib/src/misc/lv_printf.c:677:9
	cmp	r0, #97
	mov.w	r1, #16
	ble	.LBB1_52
.Ltmp96:
@ %bb.48:                               @   in Loop: Header=BB1_1 Depth=1
	@DEBUG_VALUE: _vsnprintf:format <- $r10
	@DEBUG_VALUE: _vsnprintf:precision <- $r8
	@DEBUG_VALUE: _vsnprintf:flags <- $r6
	@DEBUG_VALUE: _vsnprintf:width <- $r4
	@DEBUG_VALUE: _vsnprintf:va <- [DW_OP_plus_uconst 68] [$sp+0]
	.loc	2 0 9                           @ ../GUILib/src/misc/lv_printf.c:0:9
	sub.w	r2, r0, #98
	cmp	r2, #19
	bhi	.LBB1_57
.Ltmp97:
@ %bb.49:                               @   in Loop: Header=BB1_1 Depth=1
	@DEBUG_VALUE: _vsnprintf:format <- $r10
	@DEBUG_VALUE: _vsnprintf:precision <- $r8
	@DEBUG_VALUE: _vsnprintf:flags <- $r6
	@DEBUG_VALUE: _vsnprintf:width <- $r4
	@DEBUG_VALUE: _vsnprintf:va <- [DW_OP_plus_uconst 68] [$sp+0]
	movs	r1, #8
.LCPI1_1:
	tbb	[pc, r2]
.Ltmp98:
@ %bb.50:
.LJTI1_1:
	.byte	(.LBB1_61-(.LCPI1_1+4))/2
	.byte	(.LBB1_80-(.LCPI1_1+4))/2
	.byte	(.LBB1_51-(.LCPI1_1+4))/2
	.byte	(.LBB1_60-(.LCPI1_1+4))/2
	.byte	(.LBB1_60-(.LCPI1_1+4))/2
	.byte	(.LBB1_60-(.LCPI1_1+4))/2
	.byte	(.LBB1_60-(.LCPI1_1+4))/2
	.byte	(.LBB1_51-(.LCPI1_1+4))/2
	.byte	(.LBB1_60-(.LCPI1_1+4))/2
	.byte	(.LBB1_60-(.LCPI1_1+4))/2
	.byte	(.LBB1_60-(.LCPI1_1+4))/2
	.byte	(.LBB1_60-(.LCPI1_1+4))/2
	.byte	(.LBB1_60-(.LCPI1_1+4))/2
	.byte	(.LBB1_62-(.LCPI1_1+4))/2
	.byte	(.LBB1_55-(.LCPI1_1+4))/2
	.byte	(.LBB1_60-(.LCPI1_1+4))/2
	.byte	(.LBB1_60-(.LCPI1_1+4))/2
	.byte	(.LBB1_85-(.LCPI1_1+4))/2
	.byte	(.LBB1_60-(.LCPI1_1+4))/2
	.byte	(.LBB1_51-(.LCPI1_1+4))/2
	.p2align	1
.LBB1_51:                               @   in Loop: Header=BB1_1 Depth=1
.Ltmp99:
	@DEBUG_VALUE: _vsnprintf:format <- $r10
	@DEBUG_VALUE: _vsnprintf:precision <- $r8
	@DEBUG_VALUE: _vsnprintf:flags <- $r6
	@DEBUG_VALUE: _vsnprintf:width <- $r4
	@DEBUG_VALUE: _vsnprintf:va <- [DW_OP_plus_uconst 68] [$sp+0]
	@DEBUG_VALUE: base <- 10
	.loc	2 713 31 is_stmt 1              @ ../GUILib/src/misc/lv_printf.c:713:31
	bic	r6, r6, #16
.Ltmp100:
	@DEBUG_VALUE: _vsnprintf:flags <- $r6
	.loc	2 0 31 is_stmt 0                @ ../GUILib/src/misc/lv_printf.c:0:31
	movs	r1, #10
	b	.LBB1_58
.Ltmp101:
.LBB1_52:                               @   in Loop: Header=BB1_1 Depth=1
	@DEBUG_VALUE: _vsnprintf:format <- $r10
	@DEBUG_VALUE: _vsnprintf:precision <- $r8
	@DEBUG_VALUE: _vsnprintf:flags <- $r6
	@DEBUG_VALUE: _vsnprintf:width <- $r4
	@DEBUG_VALUE: _vsnprintf:va <- [DW_OP_plus_uconst 68] [$sp+0]
	.loc	2 677 9 is_stmt 1               @ ../GUILib/src/misc/lv_printf.c:677:9
	cmp	r0, #37
	beq.w	.LBB1_94
.Ltmp102:
@ %bb.53:                               @   in Loop: Header=BB1_1 Depth=1
	@DEBUG_VALUE: _vsnprintf:format <- $r10
	@DEBUG_VALUE: _vsnprintf:precision <- $r8
	@DEBUG_VALUE: _vsnprintf:flags <- $r6
	@DEBUG_VALUE: _vsnprintf:width <- $r4
	@DEBUG_VALUE: _vsnprintf:va <- [DW_OP_plus_uconst 68] [$sp+0]
	cmp	r0, #80
	beq	.LBB1_55
.Ltmp103:
@ %bb.54:                               @   in Loop: Header=BB1_1 Depth=1
	@DEBUG_VALUE: _vsnprintf:format <- $r10
	@DEBUG_VALUE: _vsnprintf:precision <- $r8
	@DEBUG_VALUE: _vsnprintf:flags <- $r6
	@DEBUG_VALUE: _vsnprintf:width <- $r4
	@DEBUG_VALUE: _vsnprintf:va <- [DW_OP_plus_uconst 68] [$sp+0]
	cmp	r0, #88
	beq	.LBB1_58
	b	.LBB1_60
.Ltmp104:
.LBB1_55:                               @   in Loop: Header=BB1_1 Depth=1
	@DEBUG_VALUE: _vsnprintf:format <- $r10
	@DEBUG_VALUE: _vsnprintf:precision <- $r8
	@DEBUG_VALUE: _vsnprintf:flags <- $r6
	@DEBUG_VALUE: _vsnprintf:width <- $r4
	@DEBUG_VALUE: _vsnprintf:va <- [DW_OP_plus_uconst 68] [$sp+0]
	@DEBUG_VALUE: _vsnprintf:flags <- [DW_OP_constu 16, DW_OP_or, DW_OP_stack_value] $r6
	@DEBUG_VALUE: base <- 16
	.loc	2 702 28                        @ ../GUILib/src/misc/lv_printf.c:702:28
	mov	r2, r10
	ldrb	r1, [r2, #1]!
.Ltmp105:
	.loc	2 700 35                        @ ../GUILib/src/misc/lv_printf.c:700:35
	orr	r6, r6, #272
.Ltmp106:
	@DEBUG_VALUE: _vsnprintf:flags <- $r6
	@DEBUG_VALUE: _vsnprintf:format <- $r10
	.loc	2 702 28                        @ ../GUILib/src/misc/lv_printf.c:702:28
	cmp	r1, #86
	mov.w	r1, #16
	bne	.LBB1_58
.Ltmp107:
@ %bb.56:                               @   in Loop: Header=BB1_1 Depth=1
	@DEBUG_VALUE: _vsnprintf:format <- $r10
	@DEBUG_VALUE: _vsnprintf:precision <- $r8
	@DEBUG_VALUE: _vsnprintf:flags <- $r6
	@DEBUG_VALUE: _vsnprintf:width <- $r4
	@DEBUG_VALUE: _vsnprintf:va <- [DW_OP_plus_uconst 68] [$sp+0]
	@DEBUG_VALUE: base <- 16
	.loc	2 0 28 is_stmt 0                @ ../GUILib/src/misc/lv_printf.c:0:28
	movs	r0, #86
	mov	r10, r2
.Ltmp108:
	b	.LBB1_62
.Ltmp109:
.LBB1_57:                               @   in Loop: Header=BB1_1 Depth=1
	@DEBUG_VALUE: _vsnprintf:format <- $r10
	@DEBUG_VALUE: _vsnprintf:precision <- $r8
	@DEBUG_VALUE: _vsnprintf:flags <- $r6
	@DEBUG_VALUE: _vsnprintf:width <- $r4
	@DEBUG_VALUE: _vsnprintf:va <- [DW_OP_plus_uconst 68] [$sp+0]
	.loc	2 677 9 is_stmt 1               @ ../GUILib/src/misc/lv_printf.c:677:9
	cmp	r0, #120
	bne	.LBB1_60
.Ltmp110:
	.p2align	2
.LBB1_58:                               @   in Loop: Header=BB1_1 Depth=1
	@DEBUG_VALUE: _vsnprintf:format <- $r10
	@DEBUG_VALUE: _vsnprintf:precision <- $r8
	@DEBUG_VALUE: _vsnprintf:flags <- $r6
	@DEBUG_VALUE: _vsnprintf:width <- $r4
	@DEBUG_VALUE: _vsnprintf:va <- [DW_OP_plus_uconst 68] [$sp+0]
	@DEBUG_VALUE: _vsnprintf:format <- $r10
	@DEBUG_VALUE: _vsnprintf:flags <- $r6
	@DEBUG_VALUE: base <- $r1
	.loc	2 716 39                        @ ../GUILib/src/misc/lv_printf.c:716:39
	orr	r2, r0, #8
	cmp	r2, #88
.Ltmp111:
	.loc	2 717 31                        @ ../GUILib/src/misc/lv_printf.c:717:31
	it	eq
	orreq	r6, r6, #32
.Ltmp112:
	@DEBUG_VALUE: _vsnprintf:flags <- $r6
	@DEBUG_VALUE: _vsnprintf:format <- $r10
	@DEBUG_VALUE: _vsnprintf:flags <- $r6
	.loc	2 721 41                        @ ../GUILib/src/misc/lv_printf.c:721:41
	cmp	r0, #100
	beq	.LBB1_63
.Ltmp113:
@ %bb.59:                               @   in Loop: Header=BB1_1 Depth=1
	@DEBUG_VALUE: _vsnprintf:format <- $r10
	@DEBUG_VALUE: _vsnprintf:precision <- $r8
	@DEBUG_VALUE: _vsnprintf:flags <- $r6
	@DEBUG_VALUE: _vsnprintf:width <- $r4
	@DEBUG_VALUE: base <- $r1
	@DEBUG_VALUE: _vsnprintf:va <- [DW_OP_plus_uconst 68] [$sp+0]
	cmp	r0, #105
.Ltmp114:
	.loc	2 722 31                        @ ../GUILib/src/misc/lv_printf.c:722:31
	it	ne
	bicne	r6, r6, #12
.Ltmp115:
	@DEBUG_VALUE: _vsnprintf:flags <- $r6
	.loc	2 0 31 is_stmt 0                @ ../GUILib/src/misc/lv_printf.c:0:31
	b	.LBB1_63
.Ltmp116:
.LBB1_60:                               @   in Loop: Header=BB1_1 Depth=1
	@DEBUG_VALUE: _vsnprintf:format <- $r10
	@DEBUG_VALUE: _vsnprintf:precision <- $r8
	@DEBUG_VALUE: _vsnprintf:flags <- $r6
	@DEBUG_VALUE: _vsnprintf:width <- $r4
	@DEBUG_VALUE: _vsnprintf:va <- [DW_OP_plus_uconst 68] [$sp+0]
	@DEBUG_VALUE: _vsnprintf:idx <- [DW_OP_plus_uconst 1, DW_OP_stack_value] undef
	.loc	2 850 17 is_stmt 1              @ ../GUILib/src/misc/lv_printf.c:850:17
	add.w	r11, r7, #1
	b	.LBB1_95
.Ltmp117:
.LBB1_61:                               @   in Loop: Header=BB1_1 Depth=1
	@DEBUG_VALUE: _vsnprintf:format <- $r10
	@DEBUG_VALUE: _vsnprintf:precision <- $r8
	@DEBUG_VALUE: _vsnprintf:flags <- $r6
	@DEBUG_VALUE: _vsnprintf:width <- $r4
	@DEBUG_VALUE: _vsnprintf:va <- [DW_OP_plus_uconst 68] [$sp+0]
	.loc	2 0 17 is_stmt 0                @ ../GUILib/src/misc/lv_printf.c:0:17
	movs	r1, #2
	movs	r0, #98
	@DEBUG_VALUE: base <- 2
.Ltmp118:
.LBB1_62:                               @   in Loop: Header=BB1_1 Depth=1
	@DEBUG_VALUE: _vsnprintf:precision <- $r8
	@DEBUG_VALUE: _vsnprintf:flags <- $r6
	@DEBUG_VALUE: _vsnprintf:width <- $r4
	@DEBUG_VALUE: _vsnprintf:va <- [DW_OP_plus_uconst 68] [$sp+0]
	.loc	2 722 31 is_stmt 1              @ ../GUILib/src/misc/lv_printf.c:722:31
	bic	r6, r6, #12
.Ltmp119:
	@DEBUG_VALUE: _vsnprintf:flags <- $r6
.LBB1_63:                               @   in Loop: Header=BB1_1 Depth=1
	@DEBUG_VALUE: _vsnprintf:precision <- $r8
	@DEBUG_VALUE: _vsnprintf:flags <- $r6
	@DEBUG_VALUE: _vsnprintf:width <- $r4
	@DEBUG_VALUE: _vsnprintf:va <- [DW_OP_plus_uconst 68] [$sp+0]
	@DEBUG_VALUE: _vsnprintf:flags <- $r6
	.loc	2 726 24                        @ ../GUILib/src/misc/lv_printf.c:726:24
	lsls	r2, r6, #21
	it	mi
	bicmi	r6, r6, #1
.Ltmp120:
	@DEBUG_VALUE: _vsnprintf:flags <- $r6
	@DEBUG_VALUE: _vsnprintf:format <- $r10
	.loc	2 731 41                        @ ../GUILib/src/misc/lv_printf.c:731:41
	cmp	r0, #86
	beq	.LBB1_70
.Ltmp121:
@ %bb.64:                               @   in Loop: Header=BB1_1 Depth=1
	@DEBUG_VALUE: _vsnprintf:format <- $r10
	@DEBUG_VALUE: _vsnprintf:precision <- $r8
	@DEBUG_VALUE: _vsnprintf:flags <- $r6
	@DEBUG_VALUE: _vsnprintf:width <- $r4
	@DEBUG_VALUE: _vsnprintf:va <- [DW_OP_plus_uconst 68] [$sp+0]
	cmp	r0, #105
	beq	.LBB1_66
.Ltmp122:
@ %bb.65:                               @   in Loop: Header=BB1_1 Depth=1
	@DEBUG_VALUE: _vsnprintf:format <- $r10
	@DEBUG_VALUE: _vsnprintf:precision <- $r8
	@DEBUG_VALUE: _vsnprintf:flags <- $r6
	@DEBUG_VALUE: _vsnprintf:width <- $r4
	@DEBUG_VALUE: _vsnprintf:va <- [DW_OP_plus_uconst 68] [$sp+0]
	cmp	r0, #100
	bne	.LBB1_71
.Ltmp123:
.LBB1_66:                               @   in Loop: Header=BB1_1 Depth=1
	@DEBUG_VALUE: _vsnprintf:format <- $r10
	@DEBUG_VALUE: _vsnprintf:precision <- $r8
	@DEBUG_VALUE: _vsnprintf:flags <- $r6
	@DEBUG_VALUE: _vsnprintf:width <- $r4
	@DEBUG_VALUE: _vsnprintf:va <- [DW_OP_plus_uconst 68] [$sp+0]
	.loc	2 0 41 is_stmt 0                @ ../GUILib/src/misc/lv_printf.c:0:41
	ldr	r3, [sp, #68]                   @ 4-byte Reload
.Ltmp124:
	.loc	2 733 28 is_stmt 1              @ ../GUILib/src/misc/lv_printf.c:733:28
	lsls	r0, r6, #22
	bmi	.LBB1_75
.Ltmp125:
@ %bb.67:                               @   in Loop: Header=BB1_1 Depth=1
	@DEBUG_VALUE: _vsnprintf:format <- $r10
	@DEBUG_VALUE: _vsnprintf:precision <- $r8
	@DEBUG_VALUE: _vsnprintf:flags <- $r6
	@DEBUG_VALUE: _vsnprintf:width <- $r4
	@DEBUG_VALUE: _vsnprintf:va <- [DW_OP_plus_uconst 68] [$sp+0]
	.loc	2 740 33                        @ ../GUILib/src/misc/lv_printf.c:740:33
	lsls	r0, r6, #23
	bmi	.LBB1_76
.Ltmp126:
@ %bb.68:                               @   in Loop: Header=BB1_1 Depth=1
	@DEBUG_VALUE: _vsnprintf:format <- $r10
	@DEBUG_VALUE: _vsnprintf:precision <- $r8
	@DEBUG_VALUE: _vsnprintf:flags <- $r6
	@DEBUG_VALUE: _vsnprintf:width <- $r4
	@DEBUG_VALUE: _vsnprintf:va <- [DW_OP_plus_uconst 68] [$sp+0]
	.loc	2 746 47                        @ ../GUILib/src/misc/lv_printf.c:746:47
	lsls	r0, r6, #25
	bmi.w	.LBB1_96
.Ltmp127:
@ %bb.69:                               @   in Loop: Header=BB1_1 Depth=1
	@DEBUG_VALUE: _vsnprintf:format <- $r10
	@DEBUG_VALUE: _vsnprintf:precision <- $r8
	@DEBUG_VALUE: _vsnprintf:flags <- $r6
	@DEBUG_VALUE: _vsnprintf:width <- $r4
	@DEBUG_VALUE: _vsnprintf:va <- [DW_OP_plus_uconst 68] [$sp+0]
	@DEBUG_VALUE: _vsnprintf:va <- [DW_OP_plus_uconst 4, DW_OP_stack_value] $r3
	.loc	2 0 0 is_stmt 0                 @ ../GUILib/src/misc/lv_printf.c:0:0
	ldr	r0, [r3]
	.loc	2 746 94                        @ ../GUILib/src/misc/lv_printf.c:746:94
	lsls	r2, r6, #24
	.loc	2 746 118                       @ ../GUILib/src/misc/lv_printf.c:746:118
	it	mi
	sxthmi	r0, r0
	b	.LBB1_97
.Ltmp128:
.LBB1_70:                               @   in Loop: Header=BB1_1 Depth=1
	@DEBUG_VALUE: _vsnprintf:format <- $r10
	@DEBUG_VALUE: _vsnprintf:precision <- $r8
	@DEBUG_VALUE: _vsnprintf:flags <- $r6
	@DEBUG_VALUE: _vsnprintf:width <- $r4
	@DEBUG_VALUE: _vsnprintf:va <- [DW_OP_plus_uconst 68] [$sp+0]
	.loc	2 753 47 is_stmt 1              @ ../GUILib/src/misc/lv_printf.c:753:47
	ldr	r1, [sp, #68]                   @ 4-byte Reload
	ldr.w	r8, [sp, #60]                   @ 4-byte Reload
.Ltmp129:
	ldr	r0, [r1], #4
.Ltmp130:
	@DEBUG_VALUE: vaf <- $r0
	@DEBUG_VALUE: _vsnprintf:va <- $r1
	.loc	2 0 47 is_stmt 0                @ ../GUILib/src/misc/lv_printf.c:0:47
	ldr	r5, [sp, #64]                   @ 4-byte Reload
	.loc	2 756 25 is_stmt 1              @ ../GUILib/src/misc/lv_printf.c:756:25
	str	r1, [sp, #68]                   @ 4-byte Spill
.Ltmp131:
	@DEBUG_VALUE: _vsnprintf:va <- [DW_OP_plus_uconst 68] [$sp+0]
	@DEBUG_VALUE: _vsnprintf:va <- [DW_OP_plus_uconst 68] [$sp+0]
	@DEBUG_VALUE: _vsnprintf:va <- [DW_OP_plus_uconst 68] [$sp+0]
	ldr	r1, [r0, #4]
	ldr	r6, [sp, #56]                   @ 4-byte Reload
.Ltmp132:
	@DEBUG_VALUE: _vsnprintf:out <- $r6
	ldr	r7, [r1]
	.loc	2 757 69                        @ ../GUILib/src/misc/lv_printf.c:757:69
	add.w	r1, r8, r11
	.loc	2 756 25                        @ ../GUILib/src/misc/lv_printf.c:756:25
	str	r7, [sp, #72]
	.loc	2 757 81                        @ ../GUILib/src/misc/lv_printf.c:757:81
	sub.w	r2, r5, r11
	ldr	r3, [r0]
	.loc	2 757 69 is_stmt 0              @ ../GUILib/src/misc/lv_printf.c:757:69
	add	r1, r9
	.loc	2 757 81                        @ ../GUILib/src/misc/lv_printf.c:757:81
	sub.w	r2, r2, r9
	.loc	2 757 32                        @ ../GUILib/src/misc/lv_printf.c:757:32
	mov	r0, r6
.Ltmp133:
	str	r7, [sp]
	bl	_vsnprintf
.Ltmp134:
	@DEBUG_VALUE: _vsnprintf:idx <- undef
	.loc	2 758 25 is_stmt 1              @ ../GUILib/src/misc/lv_printf.c:758:25
	add	r0, r11
	add.w	r11, r0, r9
	b	.LBB1_108
.Ltmp135:
.LBB1_71:                               @   in Loop: Header=BB1_1 Depth=1
	@DEBUG_VALUE: _vsnprintf:format <- $r10
	@DEBUG_VALUE: _vsnprintf:precision <- $r8
	@DEBUG_VALUE: _vsnprintf:flags <- $r6
	@DEBUG_VALUE: _vsnprintf:width <- $r4
	@DEBUG_VALUE: _vsnprintf:va <- [DW_OP_plus_uconst 68] [$sp+0]
	.loc	2 0 25 is_stmt 0                @ ../GUILib/src/misc/lv_printf.c:0:25
	ldr	r3, [sp, #68]                   @ 4-byte Reload
.Ltmp136:
	.loc	2 762 28 is_stmt 1              @ ../GUILib/src/misc/lv_printf.c:762:28
	lsls	r0, r6, #22
	bmi	.LBB1_78
.Ltmp137:
@ %bb.72:                               @   in Loop: Header=BB1_1 Depth=1
	@DEBUG_VALUE: _vsnprintf:format <- $r10
	@DEBUG_VALUE: _vsnprintf:precision <- $r8
	@DEBUG_VALUE: _vsnprintf:flags <- $r6
	@DEBUG_VALUE: _vsnprintf:width <- $r4
	@DEBUG_VALUE: _vsnprintf:va <- [DW_OP_plus_uconst 68] [$sp+0]
	.loc	2 767 33                        @ ../GUILib/src/misc/lv_printf.c:767:33
	lsls	r0, r6, #23
	bmi.w	.LBB1_101
.Ltmp138:
@ %bb.73:                               @   in Loop: Header=BB1_1 Depth=1
	@DEBUG_VALUE: _vsnprintf:format <- $r10
	@DEBUG_VALUE: _vsnprintf:precision <- $r8
	@DEBUG_VALUE: _vsnprintf:flags <- $r6
	@DEBUG_VALUE: _vsnprintf:width <- $r4
	@DEBUG_VALUE: _vsnprintf:va <- [DW_OP_plus_uconst 68] [$sp+0]
	.loc	2 771 56                        @ ../GUILib/src/misc/lv_printf.c:771:56
	lsls	r0, r6, #25
	bmi.w	.LBB1_103
.Ltmp139:
@ %bb.74:                               @   in Loop: Header=BB1_1 Depth=1
	@DEBUG_VALUE: _vsnprintf:format <- $r10
	@DEBUG_VALUE: _vsnprintf:precision <- $r8
	@DEBUG_VALUE: _vsnprintf:flags <- $r6
	@DEBUG_VALUE: _vsnprintf:width <- $r4
	@DEBUG_VALUE: _vsnprintf:va <- [DW_OP_plus_uconst 68] [$sp+0]
	@DEBUG_VALUE: _vsnprintf:va <- [DW_OP_plus_uconst 4, DW_OP_stack_value] $r3
	.loc	2 0 0 is_stmt 0                 @ ../GUILib/src/misc/lv_printf.c:0:0
	ldr	r0, [r3]
	.loc	2 772 117 is_stmt 1             @ ../GUILib/src/misc/lv_printf.c:772:117
	lsls	r2, r6, #24
	it	mi
	uxthmi	r0, r0
	b	.LBB1_104
.Ltmp140:
.LBB1_75:                               @   in Loop: Header=BB1_1 Depth=1
	@DEBUG_VALUE: _vsnprintf:format <- $r10
	@DEBUG_VALUE: _vsnprintf:precision <- $r8
	@DEBUG_VALUE: _vsnprintf:flags <- $r6
	@DEBUG_VALUE: _vsnprintf:width <- $r4
	@DEBUG_VALUE: _vsnprintf:va <- [DW_OP_plus_uconst 68] [$sp+0]
	.loc	2 735 53                        @ ../GUILib/src/misc/lv_printf.c:735:53
	adds	r0, r3, #7
	bic	r0, r0, #7
	mov	r3, r0
	ldr	r2, [r0, #4]
.Ltmp141:
	@DEBUG_VALUE: value <- [DW_OP_LLVM_fragment 32 32] $r2
	ldr	r0, [r3], #8
.Ltmp142:
	@DEBUG_VALUE: value <- [DW_OP_LLVM_fragment 0 32] $r0
	@DEBUG_VALUE: _vsnprintf:va <- $r3
	.loc	2 736 35                        @ ../GUILib/src/misc/lv_printf.c:736:35
	str	r1, [sp, #16]
	.loc	2 736 98 is_stmt 0              @ ../GUILib/src/misc/lv_printf.c:736:98
	adds.w	r0, r0, r2, asr #31
.Ltmp143:
	.loc	2 0 98                          @ ../GUILib/src/misc/lv_printf.c:0:98
	str	r3, [sp, #68]                   @ 4-byte Spill
.Ltmp144:
	@DEBUG_VALUE: _vsnprintf:va <- [DW_OP_plus_uconst 68] [$sp+0]
	@DEBUG_VALUE: _vsnprintf:va <- [DW_OP_plus_uconst 68] [$sp+0]
	@DEBUG_VALUE: _vsnprintf:va <- [DW_OP_plus_uconst 68] [$sp+0]
	.loc	2 736 98                        @ ../GUILib/src/misc/lv_printf.c:736:98
	adc.w	r3, r2, r2, asr #31
	eor.w	r3, r3, r2, asr #31
	eor.w	r0, r0, r2, asr #31
	.loc	2 736 35                        @ ../GUILib/src/misc/lv_printf.c:736:35
	movs	r1, #0
	strd	r1, r8, [sp, #20]
	strd	r0, r3, [sp]
	ldrd	r0, r8, [sp, #56]               @ 8-byte Folded Reload
.Ltmp145:
	.loc	2 0 35                          @ ../GUILib/src/misc/lv_printf.c:0:35
	ldr	r5, [sp, #64]                   @ 4-byte Reload
	.loc	2 736 35                        @ ../GUILib/src/misc/lv_printf.c:736:35
	strd	r4, r6, [sp, #28]
	lsrs	r6, r2, #31
.Ltmp146:
	mov	r1, r8
	mov	r2, r7
.Ltmp147:
	mov	r3, r5
	str	r6, [sp, #8]
	mov	r6, r0
	b	.LBB1_79
.Ltmp148:
.LBB1_76:                               @   in Loop: Header=BB1_1 Depth=1
	@DEBUG_VALUE: _vsnprintf:format <- $r10
	@DEBUG_VALUE: _vsnprintf:precision <- $r8
	@DEBUG_VALUE: _vsnprintf:flags <- $r6
	@DEBUG_VALUE: _vsnprintf:width <- $r4
	@DEBUG_VALUE: _vsnprintf:va <- [DW_OP_plus_uconst 68] [$sp+0]
	.loc	2 741 48 is_stmt 1              @ ../GUILib/src/misc/lv_printf.c:741:48
	ldr	r0, [r3], #4
.Ltmp149:
	@DEBUG_VALUE: value <- $r0
	@DEBUG_VALUE: _vsnprintf:va <- $r3
	.loc	2 742 88                        @ ../GUILib/src/misc/lv_printf.c:742:88
	cmp	r0, #0
	mov	r2, r0
	str	r3, [sp, #68]                   @ 4-byte Spill
.Ltmp150:
	@DEBUG_VALUE: _vsnprintf:va <- [DW_OP_plus_uconst 68] [$sp+0]
	@DEBUG_VALUE: _vsnprintf:va <- [DW_OP_plus_uconst 68] [$sp+0]
	@DEBUG_VALUE: _vsnprintf:va <- [DW_OP_plus_uconst 68] [$sp+0]
	bpl.w	.LBB1_100
.Ltmp151:
@ %bb.77:                               @   in Loop: Header=BB1_1 Depth=1
	@DEBUG_VALUE: _vsnprintf:format <- $r10
	@DEBUG_VALUE: _vsnprintf:precision <- $r8
	@DEBUG_VALUE: _vsnprintf:flags <- $r6
	@DEBUG_VALUE: _vsnprintf:width <- $r4
	@DEBUG_VALUE: value <- $r0
	@DEBUG_VALUE: _vsnprintf:va <- [DW_OP_plus_uconst 68] [$sp+0]
	rsbs	r2, r0, #0
	b	.LBB1_100
.Ltmp152:
.LBB1_78:                               @   in Loop: Header=BB1_1 Depth=1
	@DEBUG_VALUE: _vsnprintf:format <- $r10
	@DEBUG_VALUE: _vsnprintf:precision <- $r8
	@DEBUG_VALUE: _vsnprintf:flags <- $r6
	@DEBUG_VALUE: _vsnprintf:width <- $r4
	@DEBUG_VALUE: _vsnprintf:va <- [DW_OP_plus_uconst 68] [$sp+0]
	.loc	2 764 77                        @ ../GUILib/src/misc/lv_printf.c:764:77
	adds	r0, r3, #7
	bic	r0, r0, #7
	mov	r3, r0
	mov.w	r12, #0
	ldr	r2, [r0, #4]
	ldr	r0, [r3], #8
.Ltmp153:
	@DEBUG_VALUE: _vsnprintf:va <- $r3
	.loc	2 764 35 is_stmt 0              @ ../GUILib/src/misc/lv_printf.c:764:35
	strd	r12, r8, [sp, #20]
	strd	r4, r6, [sp, #28]
	ldr	r6, [sp, #56]                   @ 4-byte Reload
.Ltmp154:
	@DEBUG_VALUE: _vsnprintf:out <- $r6
	.loc	2 0 35                          @ ../GUILib/src/misc/lv_printf.c:0:35
	ldr.w	r8, [sp, #60]                   @ 4-byte Reload
.Ltmp155:
	ldr	r5, [sp, #64]                   @ 4-byte Reload
	str	r3, [sp, #68]                   @ 4-byte Spill
.Ltmp156:
	@DEBUG_VALUE: _vsnprintf:va <- [DW_OP_plus_uconst 68] [$sp+0]
	@DEBUG_VALUE: _vsnprintf:va <- [DW_OP_plus_uconst 68] [$sp+0]
	@DEBUG_VALUE: _vsnprintf:va <- [DW_OP_plus_uconst 68] [$sp+0]
	.loc	2 764 35                        @ ../GUILib/src/misc/lv_printf.c:764:35
	str	r1, [sp, #16]
	strd	r0, r2, [sp]
	mov	r0, r6
	mov	r1, r8
	mov	r2, r7
	mov	r3, r5
	str.w	r12, [sp, #8]
.Ltmp157:
.LBB1_79:                               @   in Loop: Header=BB1_1 Depth=1
	@DEBUG_VALUE: _vsnprintf:format <- $r10
	@DEBUG_VALUE: _vsnprintf:width <- $r4
	@DEBUG_VALUE: _vsnprintf:va <- [DW_OP_plus_uconst 68] [$sp+0]
	.loc	2 0 0                           @ ../GUILib/src/misc/lv_printf.c:0:0
	bl	_ntoa_long_long
.Ltmp158:
	b	.LBB1_107
.Ltmp159:
.LBB1_80:                               @   in Loop: Header=BB1_1 Depth=1
	@DEBUG_VALUE: _vsnprintf:format <- $r10
	@DEBUG_VALUE: _vsnprintf:precision <- $r8
	@DEBUG_VALUE: _vsnprintf:flags <- $r6
	@DEBUG_VALUE: _vsnprintf:width <- $r4
	@DEBUG_VALUE: _vsnprintf:va <- [DW_OP_plus_uconst 68] [$sp+0]
	@DEBUG_VALUE: l <- 1
	.loc	2 801 32 is_stmt 1              @ ../GUILib/src/misc/lv_printf.c:801:32
	ands	r5, r6, #2
.Ltmp160:
	.loc	2 801 24 is_stmt 0              @ ../GUILib/src/misc/lv_printf.c:801:24
	bne	.LBB1_102
.Ltmp161:
@ %bb.81:                               @   in Loop: Header=BB1_1 Depth=1
	@DEBUG_VALUE: _vsnprintf:format <- $r10
	@DEBUG_VALUE: _vsnprintf:precision <- $r8
	@DEBUG_VALUE: _vsnprintf:flags <- $r6
	@DEBUG_VALUE: _vsnprintf:width <- $r4
	@DEBUG_VALUE: _vsnprintf:va <- [DW_OP_plus_uconst 68] [$sp+0]
	@DEBUG_VALUE: l <- 1
	@DEBUG_VALUE: _vsnprintf:idx <- undef
	@DEBUG_VALUE: l <- 2
	.loc	2 802 25 is_stmt 1              @ ../GUILib/src/misc/lv_printf.c:802:25
	cmp	r4, #2
	blo.w	.LBB1_109
.Ltmp162:
@ %bb.82:                               @   in Loop: Header=BB1_1 Depth=1
	@DEBUG_VALUE: _vsnprintf:format <- $r10
	@DEBUG_VALUE: _vsnprintf:precision <- $r8
	@DEBUG_VALUE: _vsnprintf:flags <- $r6
	@DEBUG_VALUE: _vsnprintf:width <- $r4
	@DEBUG_VALUE: _vsnprintf:va <- [DW_OP_plus_uconst 68] [$sp+0]
	@DEBUG_VALUE: l <- 2
	.loc	2 0 25 is_stmt 0                @ ../GUILib/src/misc/lv_printf.c:0:25
	ldr.w	r11, [sp, #64]                  @ 4-byte Reload
	ldrd	r8, r6, [sp, #56]               @ 8-byte Folded Reload
.Ltmp163:
	str	r5, [sp, #52]                   @ 4-byte Spill
	.loc	2 802 25                        @ ../GUILib/src/misc/lv_printf.c:802:25
	add.w	r9, r4, #1
	subs	r5, r4, #1
.Ltmp164:
	.p2align	2
.LBB1_83:                               @   Parent Loop BB1_1 Depth=1
                                        @ =>  This Inner Loop Header: Depth=2
	@DEBUG_VALUE: _vsnprintf:format <- $r10
	@DEBUG_VALUE: _vsnprintf:width <- $r4
	@DEBUG_VALUE: _vsnprintf:va <- [DW_OP_plus_uconst 68] [$sp+0]
	.loc	2 0 25                          @ ../GUILib/src/misc/lv_printf.c:0:25
	mov	r2, r7
.Ltmp165:
	@DEBUG_VALUE: _vsnprintf:idx <- $r2
	.loc	2 803 29 is_stmt 1              @ ../GUILib/src/misc/lv_printf.c:803:29
	movs	r0, #32
	mov	r1, r6
	mov	r3, r11
	.loc	2 803 49 is_stmt 0              @ ../GUILib/src/misc/lv_printf.c:803:49
	adds	r7, #1
.Ltmp166:
	@DEBUG_VALUE: _vsnprintf:idx <- $r7
	.loc	2 803 29                        @ ../GUILib/src/misc/lv_printf.c:803:29
	blx	r8
.Ltmp167:
	@DEBUG_VALUE: l <- [DW_OP_plus_uconst 1, DW_OP_stack_value] undef
	.loc	2 802 35 is_stmt 1              @ ../GUILib/src/misc/lv_printf.c:802:35
	subs	r5, #1
	.loc	2 802 25 is_stmt 0              @ ../GUILib/src/misc/lv_printf.c:802:25
	bne	.LBB1_83
.Ltmp168:
@ %bb.84:                               @   in Loop: Header=BB1_1 Depth=1
	@DEBUG_VALUE: _vsnprintf:format <- $r10
	@DEBUG_VALUE: _vsnprintf:idx <- $r7
	@DEBUG_VALUE: _vsnprintf:width <- $r4
	@DEBUG_VALUE: _vsnprintf:va <- [DW_OP_plus_uconst 68] [$sp+0]
	.loc	2 0 25                          @ ../GUILib/src/misc/lv_printf.c:0:25
	ldr	r1, [sp, #68]                   @ 4-byte Reload
	ldr	r5, [sp, #52]                   @ 4-byte Reload
	mov	r6, r8
	b	.LBB1_111
.Ltmp169:
.LBB1_85:                               @   in Loop: Header=BB1_1 Depth=1
	@DEBUG_VALUE: _vsnprintf:format <- $r10
	@DEBUG_VALUE: _vsnprintf:precision <- $r8
	@DEBUG_VALUE: _vsnprintf:flags <- $r6
	@DEBUG_VALUE: _vsnprintf:width <- $r4
	@DEBUG_VALUE: _vsnprintf:va <- [DW_OP_plus_uconst 68] [$sp+0]
	ldr.w	r12, [sp, #68]                  @ 4-byte Reload
.Ltmp170:
	.loc	2 819 38 is_stmt 1              @ ../GUILib/src/misc/lv_printf.c:819:38
	ldr	r5, [r12], #4
.Ltmp171:
	@DEBUG_VALUE: _strnlen_s:maxsize <- undef
	@DEBUG_VALUE: _strnlen_s:s <- $r5
	@DEBUG_VALUE: _strnlen_s:str <- $r5
	@DEBUG_VALUE: p <- $r5
	@DEBUG_VALUE: _vsnprintf:va <- $r12
	.loc	2 146 18                        @ ../GUILib/src/misc/lv_printf.c:146:18
	ldrb	r0, [r5]
.Ltmp172:
	@DEBUG_VALUE: _strnlen_s:maxsize <- [DW_OP_constu 1, DW_OP_minus, DW_OP_stack_value] undef
	.loc	2 0 0 is_stmt 0                 @ ../GUILib/src/misc/lv_printf.c:0:0
	mov	r1, r5
.Ltmp173:
	.loc	2 146 21                        @ ../GUILib/src/misc/lv_printf.c:146:21
	cbz	r0, .LBB1_89
.Ltmp174:
@ %bb.86:                               @   in Loop: Header=BB1_1 Depth=1
	@DEBUG_VALUE: _vsnprintf:va <- $r12
	@DEBUG_VALUE: _vsnprintf:format <- $r10
	@DEBUG_VALUE: _vsnprintf:precision <- $r8
	@DEBUG_VALUE: _vsnprintf:flags <- $r6
	@DEBUG_VALUE: p <- $r5
	@DEBUG_VALUE: _strnlen_s:str <- $r5
	@DEBUG_VALUE: _strnlen_s:s <- $r5
	@DEBUG_VALUE: _vsnprintf:width <- $r4
	.loc	2 820 52 is_stmt 1              @ ../GUILib/src/misc/lv_printf.c:820:52
	mov	r1, r8
	cmp.w	r8, #0
	it	eq
	moveq.w	r1, #-1
.Ltmp175:
	@DEBUG_VALUE: _strnlen_s:maxsize <- $r1
	.loc	2 146 5                         @ ../GUILib/src/misc/lv_printf.c:146:5
	subs	r2, r1, #1
	mov	r1, r5
.Ltmp176:
	.p2align	2
.LBB1_87:                               @   Parent Loop BB1_1 Depth=1
                                        @ =>  This Inner Loop Header: Depth=2
	@DEBUG_VALUE: _vsnprintf:va <- $r12
	@DEBUG_VALUE: _vsnprintf:format <- $r10
	@DEBUG_VALUE: _vsnprintf:precision <- $r8
	@DEBUG_VALUE: _vsnprintf:flags <- $r6
	@DEBUG_VALUE: p <- $r5
	@DEBUG_VALUE: _strnlen_s:str <- $r5
	@DEBUG_VALUE: _vsnprintf:width <- $r4
	@DEBUG_VALUE: _strnlen_s:s <- $r1
	@DEBUG_VALUE: _strnlen_s:maxsize <- $r2
	.loc	2 146 18 is_stmt 0              @ ../GUILib/src/misc/lv_printf.c:146:18
	ldrb	r3, [r1, #1]!
.Ltmp177:
	@DEBUG_VALUE: _strnlen_s:maxsize <- [DW_OP_constu 1, DW_OP_minus, DW_OP_stack_value] $r2
	@DEBUG_VALUE: _strnlen_s:s <- $r1
	.loc	2 146 21                        @ ../GUILib/src/misc/lv_printf.c:146:21
	cbz	r2, .LBB1_89
.Ltmp178:
@ %bb.88:                               @   in Loop: Header=BB1_87 Depth=2
	@DEBUG_VALUE: _vsnprintf:va <- $r12
	@DEBUG_VALUE: _vsnprintf:format <- $r10
	@DEBUG_VALUE: _vsnprintf:precision <- $r8
	@DEBUG_VALUE: _vsnprintf:flags <- $r6
	@DEBUG_VALUE: p <- $r5
	@DEBUG_VALUE: _strnlen_s:str <- $r5
	@DEBUG_VALUE: _vsnprintf:width <- $r4
	@DEBUG_VALUE: _strnlen_s:maxsize <- [DW_OP_constu 1, DW_OP_minus, DW_OP_stack_value] $r2
	@DEBUG_VALUE: _strnlen_s:s <- $r1
	cmp	r3, #0
	sub.w	r2, r2, #1
.Ltmp179:
	bne	.LBB1_87
.Ltmp180:
.LBB1_89:                               @   in Loop: Header=BB1_1 Depth=1
	@DEBUG_VALUE: _vsnprintf:va <- $r12
	@DEBUG_VALUE: _vsnprintf:format <- $r10
	@DEBUG_VALUE: _vsnprintf:precision <- $r8
	@DEBUG_VALUE: _vsnprintf:flags <- $r6
	@DEBUG_VALUE: p <- $r5
	@DEBUG_VALUE: _strnlen_s:str <- $r5
	@DEBUG_VALUE: _vsnprintf:width <- $r4
	.loc	2 147 29 is_stmt 1              @ ../GUILib/src/misc/lv_printf.c:147:29
	subs	r2, r1, r5
.Ltmp181:
	@DEBUG_VALUE: l <- $r2
	.loc	2 822 30                        @ ../GUILib/src/misc/lv_printf.c:822:30
	and	r3, r6, #1024
.Ltmp182:
	.loc	2 822 24 is_stmt 0              @ ../GUILib/src/misc/lv_printf.c:822:24
	cmp	r2, r8
	mov	r1, r8
	it	lo
	movlo	r1, r2
	cmp	r3, #0
	str	r3, [sp, #48]                   @ 4-byte Spill
	it	eq
	moveq	r1, r2
.Ltmp183:
	@DEBUG_VALUE: l <- $r1
	.loc	2 825 32 is_stmt 1              @ ../GUILib/src/misc/lv_printf.c:825:32
	ands	r9, r6, #2
.Ltmp184:
	.loc	2 825 24 is_stmt 0              @ ../GUILib/src/misc/lv_printf.c:825:24
	str.w	r12, [sp, #68]                  @ 4-byte Spill
.Ltmp185:
	@DEBUG_VALUE: _vsnprintf:va <- [DW_OP_plus_uconst 68] [$sp+0]
	@DEBUG_VALUE: _vsnprintf:va <- [DW_OP_plus_uconst 68] [$sp+0]
	bne	.LBB1_117
.Ltmp186:
@ %bb.90:                               @   in Loop: Header=BB1_1 Depth=1
	@DEBUG_VALUE: _vsnprintf:va <- [DW_OP_plus_uconst 68] [$sp+0]
	@DEBUG_VALUE: _vsnprintf:format <- $r10
	@DEBUG_VALUE: _vsnprintf:precision <- $r8
	@DEBUG_VALUE: _vsnprintf:flags <- $r6
	@DEBUG_VALUE: p <- $r5
	@DEBUG_VALUE: _vsnprintf:width <- $r4
	@DEBUG_VALUE: l <- $r1
	@DEBUG_VALUE: _vsnprintf:idx <- undef
	@DEBUG_VALUE: l <- undef
	.loc	2 826 25 is_stmt 1              @ ../GUILib/src/misc/lv_printf.c:826:25
	cmp	r1, r4
	bhs	.LBB1_116
.Ltmp187:
@ %bb.91:                               @   in Loop: Header=BB1_1 Depth=1
	@DEBUG_VALUE: _vsnprintf:va <- [DW_OP_plus_uconst 68] [$sp+0]
	@DEBUG_VALUE: _vsnprintf:format <- $r10
	@DEBUG_VALUE: _vsnprintf:precision <- $r8
	@DEBUG_VALUE: _vsnprintf:flags <- $r6
	@DEBUG_VALUE: p <- $r5
	@DEBUG_VALUE: _vsnprintf:width <- $r4
	.loc	2 0 25 is_stmt 0                @ ../GUILib/src/misc/lv_printf.c:0:25
	strd	r5, r9, [sp, #40]               @ 8-byte Folded Spill
	ldr	r5, [sp, #64]                   @ 4-byte Reload
.Ltmp188:
	ldrd	r9, r11, [sp, #56]              @ 8-byte Folded Reload
	.loc	2 826 25                        @ ../GUILib/src/misc/lv_printf.c:826:25
	adds	r0, r4, #1
	subs	r6, r4, r1
.Ltmp189:
	str	r0, [sp, #52]                   @ 4-byte Spill
.Ltmp190:
	.p2align	2
.LBB1_92:                               @   Parent Loop BB1_1 Depth=1
                                        @ =>  This Inner Loop Header: Depth=2
	@DEBUG_VALUE: _vsnprintf:va <- [DW_OP_plus_uconst 68] [$sp+0]
	@DEBUG_VALUE: _vsnprintf:format <- $r10
	@DEBUG_VALUE: _vsnprintf:precision <- $r8
	@DEBUG_VALUE: _vsnprintf:width <- $r4
	.loc	2 0 25                          @ ../GUILib/src/misc/lv_printf.c:0:25
	mov	r2, r7
.Ltmp191:
	@DEBUG_VALUE: _vsnprintf:idx <- $r2
	.loc	2 827 29 is_stmt 1              @ ../GUILib/src/misc/lv_printf.c:827:29
	movs	r0, #32
	mov	r1, r11
	mov	r3, r5
	.loc	2 827 49 is_stmt 0              @ ../GUILib/src/misc/lv_printf.c:827:49
	adds	r7, #1
.Ltmp192:
	@DEBUG_VALUE: _vsnprintf:idx <- $r7
	.loc	2 827 29                        @ ../GUILib/src/misc/lv_printf.c:827:29
	blx	r9
.Ltmp193:
	@DEBUG_VALUE: l <- [DW_OP_plus_uconst 1, DW_OP_stack_value] undef
	.loc	2 826 35 is_stmt 1              @ ../GUILib/src/misc/lv_printf.c:826:35
	subs	r6, #1
	.loc	2 826 25 is_stmt 0              @ ../GUILib/src/misc/lv_printf.c:826:25
	bne	.LBB1_92
.Ltmp194:
@ %bb.93:                               @   in Loop: Header=BB1_1 Depth=1
	@DEBUG_VALUE: _vsnprintf:va <- [DW_OP_plus_uconst 68] [$sp+0]
	@DEBUG_VALUE: _vsnprintf:format <- $r10
	@DEBUG_VALUE: _vsnprintf:precision <- $r8
	@DEBUG_VALUE: _vsnprintf:idx <- $r7
	@DEBUG_VALUE: _vsnprintf:width <- $r4
	.loc	2 0 25                          @ ../GUILib/src/misc/lv_printf.c:0:25
	ldr	r5, [sp, #40]                   @ 4-byte Reload
	ldr.w	r9, [sp, #44]                   @ 4-byte Reload
	.loc	2 831 28 is_stmt 1              @ ../GUILib/src/misc/lv_printf.c:831:28
	ldrb	r0, [r5]
	b	.LBB1_118
.Ltmp195:
.LBB1_94:                               @   in Loop: Header=BB1_1 Depth=1
	@DEBUG_VALUE: _vsnprintf:format <- $r10
	@DEBUG_VALUE: _vsnprintf:precision <- $r8
	@DEBUG_VALUE: _vsnprintf:flags <- $r6
	@DEBUG_VALUE: _vsnprintf:width <- $r4
	@DEBUG_VALUE: _vsnprintf:va <- [DW_OP_plus_uconst 68] [$sp+0]
	@DEBUG_VALUE: _vsnprintf:idx <- [DW_OP_plus_uconst 1, DW_OP_stack_value] undef
	.loc	2 845 17                        @ ../GUILib/src/misc/lv_printf.c:845:17
	add.w	r11, r7, #1
	movs	r0, #37
.Ltmp196:
.LBB1_95:                               @   in Loop: Header=BB1_1 Depth=1
	@DEBUG_VALUE: _vsnprintf:format <- $r10
	@DEBUG_VALUE: _vsnprintf:precision <- $r8
	@DEBUG_VALUE: _vsnprintf:flags <- $r6
	@DEBUG_VALUE: _vsnprintf:width <- $r4
	@DEBUG_VALUE: _vsnprintf:va <- [DW_OP_plus_uconst 68] [$sp+0]
	.loc	2 0 17 is_stmt 0                @ ../GUILib/src/misc/lv_printf.c:0:17
	ldr.w	r8, [sp, #60]                   @ 4-byte Reload
.Ltmp197:
	ldr	r5, [sp, #64]                   @ 4-byte Reload
	ldr	r6, [sp, #56]                   @ 4-byte Reload
.Ltmp198:
	@DEBUG_VALUE: _vsnprintf:out <- $r6
	mov	r1, r8
	mov	r2, r7
	mov	r3, r5
	blx	r6
.Ltmp199:
	@DEBUG_VALUE: _vsnprintf:format <- [DW_OP_plus_uconst 1, DW_OP_stack_value] $r10
	b	.LBB1_108
.Ltmp200:
.LBB1_96:                               @   in Loop: Header=BB1_1 Depth=1
	@DEBUG_VALUE: _vsnprintf:format <- $r10
	@DEBUG_VALUE: _vsnprintf:precision <- $r8
	@DEBUG_VALUE: _vsnprintf:flags <- $r6
	@DEBUG_VALUE: _vsnprintf:width <- $r4
	@DEBUG_VALUE: _vsnprintf:va <- [DW_OP_plus_uconst 68] [$sp+0]
	@DEBUG_VALUE: _vsnprintf:va <- [DW_OP_plus_uconst 4, DW_OP_stack_value] $r3
	.loc	2 746 76 is_stmt 1              @ ../GUILib/src/misc/lv_printf.c:746:76
	ldrb	r0, [r3]
.Ltmp201:
.LBB1_97:                               @   in Loop: Header=BB1_1 Depth=1
	@DEBUG_VALUE: _vsnprintf:format <- $r10
	@DEBUG_VALUE: _vsnprintf:precision <- $r8
	@DEBUG_VALUE: _vsnprintf:flags <- $r6
	@DEBUG_VALUE: _vsnprintf:width <- $r4
	@DEBUG_VALUE: _vsnprintf:va <- [DW_OP_plus_uconst 4, DW_OP_stack_value] $r3
	@DEBUG_VALUE: _vsnprintf:va <- undef
	@DEBUG_VALUE: value <- $r0
	.loc	2 748 87                        @ ../GUILib/src/misc/lv_printf.c:748:87
	cmp	r0, #0
	mov	r2, r0
	bpl	.LBB1_99
.Ltmp202:
@ %bb.98:                               @   in Loop: Header=BB1_1 Depth=1
	@DEBUG_VALUE: _vsnprintf:format <- $r10
	@DEBUG_VALUE: _vsnprintf:precision <- $r8
	@DEBUG_VALUE: _vsnprintf:flags <- $r6
	@DEBUG_VALUE: _vsnprintf:width <- $r4
	@DEBUG_VALUE: value <- $r0
	rsbs	r2, r0, #0
.Ltmp203:
.LBB1_99:                               @   in Loop: Header=BB1_1 Depth=1
	@DEBUG_VALUE: _vsnprintf:format <- $r10
	@DEBUG_VALUE: _vsnprintf:precision <- $r8
	@DEBUG_VALUE: _vsnprintf:flags <- $r6
	@DEBUG_VALUE: _vsnprintf:width <- $r4
	@DEBUG_VALUE: value <- $r0
	.loc	2 0 0 is_stmt 0                 @ ../GUILib/src/misc/lv_printf.c:0:0
	adds	r3, #4
.Ltmp204:
	@DEBUG_VALUE: _vsnprintf:va <- $r3
	str	r3, [sp, #68]                   @ 4-byte Spill
.Ltmp205:
	@DEBUG_VALUE: _vsnprintf:va <- [DW_OP_plus_uconst 68] [$sp+0]
	@DEBUG_VALUE: _vsnprintf:va <- [DW_OP_plus_uconst 68] [$sp+0]
	@DEBUG_VALUE: _vsnprintf:va <- [DW_OP_plus_uconst 68] [$sp+0]
.LBB1_100:                              @   in Loop: Header=BB1_1 Depth=1
	@DEBUG_VALUE: _vsnprintf:format <- $r10
	@DEBUG_VALUE: _vsnprintf:precision <- $r8
	@DEBUG_VALUE: _vsnprintf:flags <- $r6
	@DEBUG_VALUE: _vsnprintf:width <- $r4
	@DEBUG_VALUE: _vsnprintf:va <- [DW_OP_plus_uconst 68] [$sp+0]
	lsrs	r0, r0, #31
	str	r2, [sp]
	b	.LBB1_106
.Ltmp206:
.LBB1_101:                              @   in Loop: Header=BB1_1 Depth=1
	@DEBUG_VALUE: _vsnprintf:format <- $r10
	@DEBUG_VALUE: _vsnprintf:precision <- $r8
	@DEBUG_VALUE: _vsnprintf:flags <- $r6
	@DEBUG_VALUE: _vsnprintf:width <- $r4
	@DEBUG_VALUE: _vsnprintf:va <- [DW_OP_plus_uconst 68] [$sp+0]
	.loc	2 768 72 is_stmt 1              @ ../GUILib/src/misc/lv_printf.c:768:72
	ldr	r0, [r3], #4
.Ltmp207:
	@DEBUG_VALUE: _vsnprintf:va <- $r3
	.loc	2 0 72 is_stmt 0                @ ../GUILib/src/misc/lv_printf.c:0:72
	b	.LBB1_105
.Ltmp208:
.LBB1_102:                              @   in Loop: Header=BB1_1 Depth=1
	@DEBUG_VALUE: _vsnprintf:format <- $r10
	@DEBUG_VALUE: _vsnprintf:precision <- $r8
	@DEBUG_VALUE: _vsnprintf:flags <- $r6
	@DEBUG_VALUE: _vsnprintf:width <- $r4
	@DEBUG_VALUE: _vsnprintf:va <- [DW_OP_plus_uconst 68] [$sp+0]
	@DEBUG_VALUE: l <- 1
	mov.w	r9, #1
	b	.LBB1_110
.Ltmp209:
.LBB1_103:                              @   in Loop: Header=BB1_1 Depth=1
	@DEBUG_VALUE: _vsnprintf:format <- $r10
	@DEBUG_VALUE: _vsnprintf:precision <- $r8
	@DEBUG_VALUE: _vsnprintf:flags <- $r6
	@DEBUG_VALUE: _vsnprintf:width <- $r4
	@DEBUG_VALUE: _vsnprintf:va <- [DW_OP_plus_uconst 68] [$sp+0]
	@DEBUG_VALUE: _vsnprintf:va <- [DW_OP_plus_uconst 4, DW_OP_stack_value] $r3
	.loc	2 771 94 is_stmt 1              @ ../GUILib/src/misc/lv_printf.c:771:94
	ldrb	r0, [r3]
.Ltmp210:
.LBB1_104:                              @   in Loop: Header=BB1_1 Depth=1
	@DEBUG_VALUE: _vsnprintf:format <- $r10
	@DEBUG_VALUE: _vsnprintf:precision <- $r8
	@DEBUG_VALUE: _vsnprintf:flags <- $r6
	@DEBUG_VALUE: _vsnprintf:width <- $r4
	@DEBUG_VALUE: _vsnprintf:va <- [DW_OP_plus_uconst 4, DW_OP_stack_value] $r3
	.loc	2 0 0 is_stmt 0                 @ ../GUILib/src/misc/lv_printf.c:0:0
	adds	r3, #4
.Ltmp211:
	@DEBUG_VALUE: value <- $r0
	@DEBUG_VALUE: _vsnprintf:va <- $r3
.LBB1_105:                              @   in Loop: Header=BB1_1 Depth=1
	@DEBUG_VALUE: _vsnprintf:format <- $r10
	@DEBUG_VALUE: _vsnprintf:precision <- $r8
	@DEBUG_VALUE: _vsnprintf:flags <- $r6
	@DEBUG_VALUE: _vsnprintf:width <- $r4
	@DEBUG_VALUE: _vsnprintf:va <- $r3
	str	r3, [sp, #68]                   @ 4-byte Spill
.Ltmp212:
	@DEBUG_VALUE: _vsnprintf:va <- [DW_OP_plus_uconst 68] [$sp+0]
	@DEBUG_VALUE: _vsnprintf:va <- [DW_OP_plus_uconst 68] [$sp+0]
	@DEBUG_VALUE: _vsnprintf:va <- [DW_OP_plus_uconst 68] [$sp+0]
	str	r0, [sp]
	movs	r0, #0
.Ltmp213:
.LBB1_106:                              @   in Loop: Header=BB1_1 Depth=1
	@DEBUG_VALUE: _vsnprintf:format <- $r10
	@DEBUG_VALUE: _vsnprintf:precision <- $r8
	@DEBUG_VALUE: _vsnprintf:flags <- $r6
	@DEBUG_VALUE: _vsnprintf:width <- $r4
	@DEBUG_VALUE: _vsnprintf:va <- [DW_OP_plus_uconst 68] [$sp+0]
	add	r2, sp, #4
	stm.w	r2, {r0, r1, r8}
	ldrd	r0, r8, [sp, #56]               @ 8-byte Folded Reload
.Ltmp214:
	ldr	r5, [sp, #64]                   @ 4-byte Reload
	mov	r1, r8
	mov	r2, r7
	mov	r3, r5
	str	r4, [sp, #16]
	str	r6, [sp, #20]
	mov	r6, r0
.Ltmp215:
	bl	_ntoa_long
.Ltmp216:
.LBB1_107:                              @   in Loop: Header=BB1_1 Depth=1
	@DEBUG_VALUE: _vsnprintf:format <- $r10
	@DEBUG_VALUE: _vsnprintf:width <- $r4
	@DEBUG_VALUE: _vsnprintf:va <- [DW_OP_plus_uconst 68] [$sp+0]
	mov	r11, r0
.Ltmp217:
	@DEBUG_VALUE: _vsnprintf:idx <- $r11
.LBB1_108:                              @   in Loop: Header=BB1_1 Depth=1
	add.w	r4, r10, #1
.Ltmp218:
	@DEBUG_VALUE: _vsnprintf:idx <- $r11
	@DEBUG_VALUE: _vsnprintf:va <- [DW_OP_plus_uconst 68] [$sp+0]
	b	.LBB1_1
.Ltmp219:
.LBB1_109:                              @   in Loop: Header=BB1_1 Depth=1
	@DEBUG_VALUE: _vsnprintf:format <- $r10
	@DEBUG_VALUE: _vsnprintf:precision <- $r8
	@DEBUG_VALUE: _vsnprintf:flags <- $r6
	@DEBUG_VALUE: _vsnprintf:width <- $r4
	@DEBUG_VALUE: _vsnprintf:va <- [DW_OP_plus_uconst 68] [$sp+0]
	@DEBUG_VALUE: l <- 2
	mov.w	r9, #2
.Ltmp220:
.LBB1_110:                              @   in Loop: Header=BB1_1 Depth=1
	@DEBUG_VALUE: _vsnprintf:format <- $r10
	@DEBUG_VALUE: _vsnprintf:precision <- $r8
	@DEBUG_VALUE: _vsnprintf:flags <- $r6
	@DEBUG_VALUE: _vsnprintf:width <- $r4
	@DEBUG_VALUE: _vsnprintf:va <- [DW_OP_plus_uconst 68] [$sp+0]
	ldr	r6, [sp, #56]                   @ 4-byte Reload
.Ltmp221:
	@DEBUG_VALUE: _vsnprintf:out <- $r6
	ldr	r1, [sp, #68]                   @ 4-byte Reload
.Ltmp222:
.LBB1_111:                              @   in Loop: Header=BB1_1 Depth=1
	@DEBUG_VALUE: _vsnprintf:format <- $r10
	@DEBUG_VALUE: _vsnprintf:width <- $r4
	@DEBUG_VALUE: _vsnprintf:va <- [DW_OP_plus_uconst 68] [$sp+0]
	@DEBUG_VALUE: _vsnprintf:idx <- $r7
	@DEBUG_VALUE: l <- $r9
	.loc	2 807 31 is_stmt 1              @ ../GUILib/src/misc/lv_printf.c:807:31
	ldrb	r0, [r1], #4
.Ltmp223:
	@DEBUG_VALUE: _vsnprintf:va <- $r1
	.loc	2 807 21 is_stmt 0              @ ../GUILib/src/misc/lv_printf.c:807:21
	ldr	r3, [sp, #64]                   @ 4-byte Reload
	str	r1, [sp, #68]                   @ 4-byte Spill
.Ltmp224:
	@DEBUG_VALUE: _vsnprintf:va <- [DW_OP_plus_uconst 68] [$sp+0]
	@DEBUG_VALUE: _vsnprintf:va <- [DW_OP_plus_uconst 68] [$sp+0]
	ldr	r1, [sp, #60]                   @ 4-byte Reload
	mov	r2, r7
	.loc	2 807 59                        @ ../GUILib/src/misc/lv_printf.c:807:59
	add.w	r11, r7, #1
.Ltmp225:
	@DEBUG_VALUE: _vsnprintf:idx <- $r11
	.loc	2 807 21                        @ ../GUILib/src/misc/lv_printf.c:807:21
	blx	r6
.Ltmp226:
	@DEBUG_VALUE: l <- [DW_OP_plus_uconst 1, DW_OP_stack_value] $r9
	.loc	2 809 24 is_stmt 1              @ ../GUILib/src/misc/lv_printf.c:809:24
	cbz	r5, .LBB1_115
.Ltmp227:
@ %bb.112:                              @   in Loop: Header=BB1_1 Depth=1
	@DEBUG_VALUE: _vsnprintf:idx <- $r11
	@DEBUG_VALUE: _vsnprintf:format <- $r10
	@DEBUG_VALUE: l <- [DW_OP_plus_uconst 1, DW_OP_stack_value] $r9
	@DEBUG_VALUE: _vsnprintf:width <- $r4
	@DEBUG_VALUE: _vsnprintf:va <- [DW_OP_plus_uconst 68] [$sp+0]
	cmp	r9, r4
	bhs	.LBB1_115
.Ltmp228:
@ %bb.113:                              @   in Loop: Header=BB1_1 Depth=1
	@DEBUG_VALUE: _vsnprintf:idx <- $r11
	@DEBUG_VALUE: _vsnprintf:format <- $r10
	@DEBUG_VALUE: l <- [DW_OP_plus_uconst 1, DW_OP_stack_value] $r9
	@DEBUG_VALUE: _vsnprintf:width <- $r4
	@DEBUG_VALUE: _vsnprintf:va <- [DW_OP_plus_uconst 68] [$sp+0]
	.loc	2 0 24 is_stmt 0                @ ../GUILib/src/misc/lv_printf.c:0:24
	ldrd	r8, r5, [sp, #60]               @ 8-byte Folded Reload
.Ltmp229:
	.loc	2 810 25 is_stmt 1              @ ../GUILib/src/misc/lv_printf.c:810:25
	sub.w	r4, r4, r9
.Ltmp230:
	.p2align	2
.LBB1_114:                              @   Parent Loop BB1_1 Depth=1
                                        @ =>  This Inner Loop Header: Depth=2
	@DEBUG_VALUE: _vsnprintf:idx <- $r11
	@DEBUG_VALUE: _vsnprintf:format <- $r10
	@DEBUG_VALUE: _vsnprintf:va <- [DW_OP_plus_uconst 68] [$sp+0]
	.loc	2 0 25 is_stmt 0                @ ../GUILib/src/misc/lv_printf.c:0:25
	mov	r2, r11
.Ltmp231:
	@DEBUG_VALUE: l <- [DW_OP_plus_uconst 1, DW_OP_stack_value] undef
	@DEBUG_VALUE: _vsnprintf:idx <- $r2
	.loc	2 811 29 is_stmt 1              @ ../GUILib/src/misc/lv_printf.c:811:29
	movs	r0, #32
	mov	r1, r8
	mov	r3, r5
	.loc	2 811 49 is_stmt 0              @ ../GUILib/src/misc/lv_printf.c:811:49
	add.w	r11, r11, #1
.Ltmp232:
	@DEBUG_VALUE: _vsnprintf:idx <- $r11
	.loc	2 811 29                        @ ../GUILib/src/misc/lv_printf.c:811:29
	blx	r6
.Ltmp233:
	@DEBUG_VALUE: l <- [DW_OP_plus_uconst 1, DW_OP_plus_uconst 1, DW_OP_stack_value] undef
	.loc	2 810 35 is_stmt 1              @ ../GUILib/src/misc/lv_printf.c:810:35
	subs	r4, #1
	.loc	2 810 25 is_stmt 0              @ ../GUILib/src/misc/lv_printf.c:810:25
	bne	.LBB1_114
	b	.LBB1_108
.Ltmp234:
.LBB1_115:                              @   in Loop: Header=BB1_1 Depth=1
	@DEBUG_VALUE: _vsnprintf:idx <- $r11
	@DEBUG_VALUE: _vsnprintf:format <- $r10
	@DEBUG_VALUE: l <- [DW_OP_plus_uconst 1, DW_OP_stack_value] $r9
	@DEBUG_VALUE: _vsnprintf:width <- $r4
	@DEBUG_VALUE: _vsnprintf:va <- [DW_OP_plus_uconst 68] [$sp+0]
	.loc	2 0 25                          @ ../GUILib/src/misc/lv_printf.c:0:25
	ldrd	r8, r5, [sp, #60]               @ 8-byte Folded Reload
	b	.LBB1_108
.Ltmp235:
.LBB1_116:                              @   in Loop: Header=BB1_1 Depth=1
	@DEBUG_VALUE: _vsnprintf:va <- [DW_OP_plus_uconst 68] [$sp+0]
	@DEBUG_VALUE: _vsnprintf:format <- $r10
	@DEBUG_VALUE: _vsnprintf:precision <- $r8
	@DEBUG_VALUE: _vsnprintf:flags <- $r6
	@DEBUG_VALUE: p <- $r5
	@DEBUG_VALUE: _vsnprintf:width <- $r4
	adds	r1, #1
	@DEBUG_VALUE: l <- $r1
.Ltmp236:
.LBB1_117:                              @   in Loop: Header=BB1_1 Depth=1
	@DEBUG_VALUE: _vsnprintf:va <- [DW_OP_plus_uconst 68] [$sp+0]
	@DEBUG_VALUE: _vsnprintf:format <- $r10
	@DEBUG_VALUE: _vsnprintf:precision <- $r8
	@DEBUG_VALUE: _vsnprintf:flags <- $r6
	@DEBUG_VALUE: p <- $r5
	@DEBUG_VALUE: _vsnprintf:width <- $r4
	@DEBUG_VALUE: l <- $r1
	str	r1, [sp, #52]                   @ 4-byte Spill
	@DEBUG_VALUE: l <- [DW_OP_plus_uconst 52] [$sp+0]
	@DEBUG_VALUE: l <- [DW_OP_plus_uconst 52] [$sp+0]
.Ltmp237:
.LBB1_118:                              @   in Loop: Header=BB1_1 Depth=1
	@DEBUG_VALUE: _vsnprintf:va <- [DW_OP_plus_uconst 68] [$sp+0]
	@DEBUG_VALUE: _vsnprintf:format <- $r10
	@DEBUG_VALUE: _vsnprintf:precision <- $r8
	@DEBUG_VALUE: _vsnprintf:width <- $r4
	@DEBUG_VALUE: _vsnprintf:idx <- $r7
	@DEBUG_VALUE: _vsnprintf:precision <- $r8
	@DEBUG_VALUE: p <- $r5
	@DEBUG_VALUE: l <- [DW_OP_plus_uconst 52] [$sp+0]
	.loc	2 831 37 is_stmt 1              @ ../GUILib/src/misc/lv_printf.c:831:37
	cbz	r0, .LBB1_124
.Ltmp238:
@ %bb.119:                              @   in Loop: Header=BB1_1 Depth=1
	@DEBUG_VALUE: _vsnprintf:va <- [DW_OP_plus_uconst 68] [$sp+0]
	@DEBUG_VALUE: _vsnprintf:format <- $r10
	@DEBUG_VALUE: _vsnprintf:precision <- $r8
	@DEBUG_VALUE: _vsnprintf:idx <- $r7
	@DEBUG_VALUE: p <- $r5
	@DEBUG_VALUE: _vsnprintf:width <- $r4
	@DEBUG_VALUE: l <- [DW_OP_plus_uconst 52] [$sp+0]
	.loc	2 831 21 is_stmt 0              @ ../GUILib/src/misc/lv_printf.c:831:21
	adds	r6, r5, #1
	ldr	r5, [sp, #48]                   @ 4-byte Reload
.Ltmp239:
	.p2align	2
.LBB1_120:                              @   Parent Loop BB1_1 Depth=1
                                        @ =>  This Inner Loop Header: Depth=2
	@DEBUG_VALUE: _vsnprintf:va <- [DW_OP_plus_uconst 68] [$sp+0]
	@DEBUG_VALUE: _vsnprintf:format <- $r10
	@DEBUG_VALUE: _vsnprintf:precision <- $r8
	@DEBUG_VALUE: _vsnprintf:width <- $r4
	@DEBUG_VALUE: l <- [DW_OP_plus_uconst 52] [$sp+0]
	@DEBUG_VALUE: _vsnprintf:idx <- $r7
	@DEBUG_VALUE: _vsnprintf:precision <- $r8
	@DEBUG_VALUE: p <- [DW_OP_constu 1, DW_OP_minus, DW_OP_stack_value] $r6
	.loc	2 831 68                        @ ../GUILib/src/misc/lv_printf.c:831:68
	cbz	r5, .LBB1_123
.Ltmp240:
@ %bb.121:                              @   in Loop: Header=BB1_120 Depth=2
	@DEBUG_VALUE: _vsnprintf:va <- [DW_OP_plus_uconst 68] [$sp+0]
	@DEBUG_VALUE: _vsnprintf:format <- $r10
	@DEBUG_VALUE: _vsnprintf:precision <- $r8
	@DEBUG_VALUE: _vsnprintf:idx <- $r7
	@DEBUG_VALUE: p <- [DW_OP_constu 1, DW_OP_minus, DW_OP_stack_value] $r6
	@DEBUG_VALUE: _vsnprintf:width <- $r4
	@DEBUG_VALUE: l <- [DW_OP_plus_uconst 52] [$sp+0]
	@DEBUG_VALUE: _vsnprintf:precision <- undef
	.loc	2 831 21                        @ ../GUILib/src/misc/lv_printf.c:831:21
	cmp.w	r8, #0
	beq	.LBB1_124
.Ltmp241:
@ %bb.122:                              @   in Loop: Header=BB1_120 Depth=2
	@DEBUG_VALUE: _vsnprintf:va <- [DW_OP_plus_uconst 68] [$sp+0]
	@DEBUG_VALUE: _vsnprintf:format <- $r10
	@DEBUG_VALUE: _vsnprintf:idx <- $r7
	@DEBUG_VALUE: p <- [DW_OP_constu 1, DW_OP_minus, DW_OP_stack_value] $r6
	@DEBUG_VALUE: _vsnprintf:width <- $r4
	@DEBUG_VALUE: l <- [DW_OP_plus_uconst 52] [$sp+0]
	.loc	2 0 21                          @ ../GUILib/src/misc/lv_printf.c:0:21
	sub.w	r8, r8, #1
.Ltmp242:
	@DEBUG_VALUE: _vsnprintf:precision <- $r8
.LBB1_123:                              @   in Loop: Header=BB1_120 Depth=2
	@DEBUG_VALUE: _vsnprintf:va <- [DW_OP_plus_uconst 68] [$sp+0]
	@DEBUG_VALUE: _vsnprintf:format <- $r10
	@DEBUG_VALUE: _vsnprintf:precision <- $r8
	@DEBUG_VALUE: _vsnprintf:idx <- $r7
	@DEBUG_VALUE: p <- [DW_OP_constu 1, DW_OP_minus, DW_OP_stack_value] $r6
	@DEBUG_VALUE: _vsnprintf:width <- $r4
	@DEBUG_VALUE: l <- [DW_OP_plus_uconst 52] [$sp+0]
	@DEBUG_VALUE: _vsnprintf:precision <- $r8
	@DEBUG_VALUE: p <- $r6
	.loc	2 832 48 is_stmt 1              @ ../GUILib/src/misc/lv_printf.c:832:48
	add.w	r11, r7, #1
.Ltmp243:
	@DEBUG_VALUE: _vsnprintf:idx <- $r11
	.loc	2 832 25 is_stmt 0              @ ../GUILib/src/misc/lv_printf.c:832:25
	ldr	r1, [sp, #60]                   @ 4-byte Reload
	mov	r2, r7
	ldr	r3, [sp, #64]                   @ 4-byte Reload
	ldr	r7, [sp, #56]                   @ 4-byte Reload
.Ltmp244:
	@DEBUG_VALUE: _vsnprintf:out <- $r7
	uxtb	r0, r0
	blx	r7
.Ltmp245:
	.loc	2 831 28 is_stmt 1              @ ../GUILib/src/misc/lv_printf.c:831:28
	ldrb	r0, [r6], #1
.Ltmp246:
	.loc	2 0 28 is_stmt 0                @ ../GUILib/src/misc/lv_printf.c:0:28
	mov	r7, r11
.Ltmp247:
	@DEBUG_VALUE: _vsnprintf:out <- [DW_OP_LLVM_entry_value 1] $r0
	.loc	2 831 37                        @ ../GUILib/src/misc/lv_printf.c:831:37
	cmp	r0, #0
	bne	.LBB1_120
	b	.LBB1_125
.Ltmp248:
.LBB1_124:                              @   in Loop: Header=BB1_1 Depth=1
	@DEBUG_VALUE: _vsnprintf:va <- [DW_OP_plus_uconst 68] [$sp+0]
	@DEBUG_VALUE: _vsnprintf:format <- $r10
	@DEBUG_VALUE: _vsnprintf:idx <- $r7
	@DEBUG_VALUE: _vsnprintf:width <- $r4
	@DEBUG_VALUE: l <- [DW_OP_plus_uconst 52] [$sp+0]
	.loc	2 0 0                           @ ../GUILib/src/misc/lv_printf.c:0:0
	mov	r11, r7
.Ltmp249:
	@DEBUG_VALUE: _vsnprintf:idx <- $r11
	@DEBUG_VALUE: _vsnprintf:idx <- $r11
.LBB1_125:                              @   in Loop: Header=BB1_1 Depth=1
	@DEBUG_VALUE: _vsnprintf:va <- [DW_OP_plus_uconst 68] [$sp+0]
	@DEBUG_VALUE: _vsnprintf:idx <- $r11
	@DEBUG_VALUE: _vsnprintf:format <- $r10
	@DEBUG_VALUE: _vsnprintf:width <- $r4
	@DEBUG_VALUE: l <- [DW_OP_plus_uconst 52] [$sp+0]
	@DEBUG_VALUE: _vsnprintf:idx <- $r11
	@DEBUG_VALUE: l <- [DW_OP_plus_uconst 52, DW_OP_deref_size 4, DW_OP_plus_uconst 1, DW_OP_stack_value] $sp
	.loc	2 835 24 is_stmt 1              @ ../GUILib/src/misc/lv_printf.c:835:24
	cmp.w	r9, #0
	beq	.LBB1_129
.Ltmp250:
@ %bb.126:                              @   in Loop: Header=BB1_1 Depth=1
	@DEBUG_VALUE: _vsnprintf:va <- [DW_OP_plus_uconst 68] [$sp+0]
	@DEBUG_VALUE: _vsnprintf:idx <- $r11
	@DEBUG_VALUE: _vsnprintf:format <- $r10
	@DEBUG_VALUE: _vsnprintf:width <- $r4
	@DEBUG_VALUE: l <- [DW_OP_plus_uconst 52, DW_OP_deref_size 4, DW_OP_plus_uconst 1, DW_OP_stack_value] $sp
	.loc	2 0 24 is_stmt 0                @ ../GUILib/src/misc/lv_printf.c:0:24
	ldr	r0, [sp, #52]                   @ 4-byte Reload
	.loc	2 835 24                        @ ../GUILib/src/misc/lv_printf.c:835:24
	cmp	r0, r4
	bhs	.LBB1_129
.Ltmp251:
@ %bb.127:                              @   in Loop: Header=BB1_1 Depth=1
	@DEBUG_VALUE: _vsnprintf:va <- [DW_OP_plus_uconst 68] [$sp+0]
	@DEBUG_VALUE: _vsnprintf:idx <- $r11
	@DEBUG_VALUE: _vsnprintf:format <- $r10
	@DEBUG_VALUE: _vsnprintf:width <- $r4
	@DEBUG_VALUE: l <- [DW_OP_plus_uconst 52, DW_OP_deref_size 4, DW_OP_plus_uconst 1, DW_OP_stack_value] $sp
	.loc	2 0 24                          @ ../GUILib/src/misc/lv_printf.c:0:24
	ldr	r5, [sp, #64]                   @ 4-byte Reload
	ldrd	r6, r8, [sp, #56]               @ 8-byte Folded Reload
.Ltmp252:
	.loc	2 836 25 is_stmt 1              @ ../GUILib/src/misc/lv_printf.c:836:25
	subs	r4, r4, r0
.Ltmp253:
	.p2align	2
.LBB1_128:                              @   Parent Loop BB1_1 Depth=1
                                        @ =>  This Inner Loop Header: Depth=2
	@DEBUG_VALUE: _vsnprintf:va <- [DW_OP_plus_uconst 68] [$sp+0]
	@DEBUG_VALUE: _vsnprintf:idx <- $r11
	@DEBUG_VALUE: _vsnprintf:format <- $r10
	.loc	2 0 25 is_stmt 0                @ ../GUILib/src/misc/lv_printf.c:0:25
	mov	r2, r11
.Ltmp254:
	@DEBUG_VALUE: l <- [DW_OP_plus_uconst 1, DW_OP_stack_value] undef
	@DEBUG_VALUE: _vsnprintf:idx <- $r2
	.loc	2 837 29 is_stmt 1              @ ../GUILib/src/misc/lv_printf.c:837:29
	movs	r0, #32
	mov	r1, r8
	mov	r3, r5
	.loc	2 837 49 is_stmt 0              @ ../GUILib/src/misc/lv_printf.c:837:49
	add.w	r11, r11, #1
.Ltmp255:
	@DEBUG_VALUE: _vsnprintf:idx <- $r11
	.loc	2 837 29                        @ ../GUILib/src/misc/lv_printf.c:837:29
	blx	r6
.Ltmp256:
	@DEBUG_VALUE: l <- [DW_OP_plus_uconst 1, DW_OP_plus_uconst 1, DW_OP_stack_value] undef
	.loc	2 836 35 is_stmt 1              @ ../GUILib/src/misc/lv_printf.c:836:35
	subs	r4, #1
	.loc	2 836 25 is_stmt 0              @ ../GUILib/src/misc/lv_printf.c:836:25
	bne	.LBB1_128
	b	.LBB1_108
.Ltmp257:
.LBB1_129:                              @   in Loop: Header=BB1_1 Depth=1
	@DEBUG_VALUE: _vsnprintf:va <- [DW_OP_plus_uconst 68] [$sp+0]
	@DEBUG_VALUE: _vsnprintf:idx <- $r11
	@DEBUG_VALUE: _vsnprintf:format <- $r10
	@DEBUG_VALUE: _vsnprintf:width <- $r4
	@DEBUG_VALUE: l <- [DW_OP_plus_uconst 52, DW_OP_deref_size 4, DW_OP_plus_uconst 1, DW_OP_stack_value] $sp
	.loc	2 0 25                          @ ../GUILib/src/misc/lv_printf.c:0:25
	ldr	r5, [sp, #64]                   @ 4-byte Reload
	ldrd	r6, r8, [sp, #56]               @ 8-byte Folded Reload
	b	.LBB1_108
.Ltmp258:
.LBB1_130:
	@DEBUG_VALUE: _vsnprintf:va <- [DW_OP_plus_uconst 68] [$sp+0]
	.loc	2 857 26 is_stmt 1              @ ../GUILib/src/misc/lv_printf.c:857:26
	mov	r2, r7
	.loc	2 857 5 is_stmt 0               @ ../GUILib/src/misc/lv_printf.c:857:5
	movs	r0, #0
	mov	r1, r8
	mov	r3, r5
	.loc	2 857 26                        @ ../GUILib/src/misc/lv_printf.c:857:26
	cmp	r7, r5
	it	hs
	subhs	r2, r5, #1
	.loc	2 857 5                         @ ../GUILib/src/misc/lv_printf.c:857:5
	blx	r6
.Ltmp259:
	.loc	2 860 5 is_stmt 1               @ ../GUILib/src/misc/lv_printf.c:860:5
	mov	r0, r7
	add	sp, #76
	pop.w	{r4, r5, r6, r7, r8, r9, r10, r11, pc}
.Ltmp260:
.Lfunc_end1:
	.size	_vsnprintf, .Lfunc_end1-_vsnprintf
	.cfi_endproc
	.cantunwind
	.fnend
                                        @ -- End function
	.section	.text._out_buffer,"ax",%progbits
	.p2align	1                               @ -- Begin function _out_buffer
	.type	_out_buffer,%function
	.code	16                              @ @_out_buffer
	.thumb_func
_out_buffer:
.Lfunc_begin2:
	.loc	2 126 0                         @ ../GUILib/src/misc/lv_printf.c:126:0
	.fnstart
	.cfi_startproc
@ %bb.0:
	@DEBUG_VALUE: _out_buffer:character <- $r0
	@DEBUG_VALUE: _out_buffer:buffer <- $r1
	@DEBUG_VALUE: _out_buffer:buffer <- $r1
	@DEBUG_VALUE: _out_buffer:idx <- $r2
	@DEBUG_VALUE: _out_buffer:idx <- $r2
	@DEBUG_VALUE: _out_buffer:maxlen <- $r3
	@DEBUG_VALUE: _out_buffer:maxlen <- $r3
	.loc	2 127 8 prologue_end            @ ../GUILib/src/misc/lv_printf.c:127:8
	cmp	r2, r3
	@DEBUG_VALUE: _out_buffer:character <- $r0
	@DEBUG_VALUE: _out_buffer:character <- $r0
.Ltmp261:
	.loc	2 128 31                        @ ../GUILib/src/misc/lv_printf.c:128:31
	it	lo
	strblo	r0, [r1, r2]
.Ltmp262:
	.loc	2 130 1                         @ ../GUILib/src/misc/lv_printf.c:130:1
	bx	lr
.Ltmp263:
.Lfunc_end2:
	.size	_out_buffer, .Lfunc_end2-_out_buffer
	.cfi_endproc
	.cantunwind
	.fnend
                                        @ -- End function
	.section	.text.lv_vsnprintf,"ax",%progbits
	.hidden	lv_vsnprintf                    @ -- Begin function lv_vsnprintf
	.globl	lv_vsnprintf
	.p2align	1
	.type	lv_vsnprintf,%function
	.code	16                              @ @lv_vsnprintf
	.thumb_func
lv_vsnprintf:
.Lfunc_begin3:
	.loc	2 875 0                         @ ../GUILib/src/misc/lv_printf.c:875:0
	.fnstart
	.cfi_startproc
@ %bb.0:
	@DEBUG_VALUE: lv_vsnprintf:buffer <- $r0
	@DEBUG_VALUE: lv_vsnprintf:count <- $r1
	@DEBUG_VALUE: lv_vsnprintf:format <- $r2
	.save	{r7, lr}
	push	{r7, lr}
	.cfi_def_cfa_offset 8
	.cfi_offset lr, -4
	.cfi_offset r7, -8
	.pad	#8
	sub	sp, #8
	.cfi_def_cfa_offset 16
	mov	r12, r3
	mov	r3, r2
	mov	r2, r1
.Ltmp264:
	@DEBUG_VALUE: lv_vsnprintf:format <- [DW_OP_LLVM_entry_value 1] $r2
	mov	r1, r0
.Ltmp265:
	@DEBUG_VALUE: lv_vsnprintf:count <- [DW_OP_LLVM_entry_value 1] $r1
	@DEBUG_VALUE: lv_vsnprintf:va <- undef
	@DEBUG_VALUE: lv_vsnprintf:format <- $r3
	@DEBUG_VALUE: lv_vsnprintf:count <- $r2
	@DEBUG_VALUE: lv_vsnprintf:buffer <- $r1
	.loc	2 876 12 prologue_end           @ ../GUILib/src/misc/lv_printf.c:876:12
	movw	r0, :lower16:_out_buffer
	movt	r0, :upper16:_out_buffer
	@DEBUG_VALUE: lv_vsnprintf:format <- $r3
	@DEBUG_VALUE: lv_vsnprintf:count <- $r2
	@DEBUG_VALUE: lv_vsnprintf:buffer <- $r1
	str.w	r12, [sp]
	bl	_vsnprintf
.Ltmp266:
	.loc	2 876 5 is_stmt 0               @ ../GUILib/src/misc/lv_printf.c:876:5
	add	sp, #8
	pop	{r7, pc}
.Ltmp267:
.Lfunc_end3:
	.size	lv_vsnprintf, .Lfunc_end3-lv_vsnprintf
	.cfi_endproc
	.cantunwind
	.fnend
                                        @ -- End function
	.section	.text._out_null,"ax",%progbits
	.p2align	1                               @ -- Begin function _out_null
	.type	_out_null,%function
	.code	16                              @ @_out_null
	.thumb_func
_out_null:
.Lfunc_begin4:
	.loc	2 134 0 is_stmt 1               @ ../GUILib/src/misc/lv_printf.c:134:0
	.fnstart
	.cfi_startproc
@ %bb.0:
	@DEBUG_VALUE: _out_null:character <- $r0
	@DEBUG_VALUE: _out_null:buffer <- $r1
	@DEBUG_VALUE: _out_null:idx <- $r2
	@DEBUG_VALUE: _out_null:maxlen <- $r3
	.loc	2 139 1 prologue_end            @ ../GUILib/src/misc/lv_printf.c:139:1
	bx	lr
.Ltmp268:
.Lfunc_end4:
	.size	_out_null, .Lfunc_end4-_out_null
	.cfi_endproc
	.cantunwind
	.fnend
                                        @ -- End function
	.section	.text._ntoa_long_long,"ax",%progbits
	.p2align	1                               @ -- Begin function _ntoa_long_long
	.type	_ntoa_long_long,%function
	.code	16                              @ @_ntoa_long_long
	.thumb_func
_ntoa_long_long:
.Lfunc_begin5:
	.loc	2 278 0                         @ ../GUILib/src/misc/lv_printf.c:278:0
	.fnstart
	.cfi_startproc
@ %bb.0:
	@DEBUG_VALUE: _ntoa_long_long:out <- $r0
	@DEBUG_VALUE: _ntoa_long_long:buffer <- $r1
	@DEBUG_VALUE: _ntoa_long_long:idx <- $r2
	@DEBUG_VALUE: _ntoa_long_long:maxlen <- $r3
	.save	{r4, r5, r6, r7, r8, r9, r10, r11, lr}
	push.w	{r4, r5, r6, r7, r8, r9, r10, r11, lr}
	.cfi_def_cfa_offset 36
	.cfi_offset lr, -4
	.cfi_offset r11, -8
	.cfi_offset r10, -12
	.cfi_offset r9, -16
	.cfi_offset r8, -20
	.cfi_offset r7, -24
	.cfi_offset r6, -28
	.cfi_offset r5, -32
	.cfi_offset r4, -36
	.pad	#76
	sub	sp, #76
	.cfi_def_cfa_offset 112
	ldrd	r6, r5, [sp, #112]
	ldr.w	r8, [sp, #144]
.Ltmp269:
	@DEBUG_VALUE: _ntoa_long_long:len <- 0
	@DEBUG_VALUE: _ntoa_long_long:flags <- [DW_OP_plus_uconst 144] [$sp+0]
	@DEBUG_VALUE: _ntoa_long_long:width <- [DW_OP_plus_uconst 140] [$sp+0]
	@DEBUG_VALUE: _ntoa_long_long:prec <- [DW_OP_plus_uconst 136] [$sp+0]
	@DEBUG_VALUE: _ntoa_long_long:base <- [DW_OP_plus_uconst 128] [$sp+0]
	@DEBUG_VALUE: _ntoa_long_long:value <- [DW_OP_plus_uconst 112] [$sp+0]
	@DEBUG_VALUE: _ntoa_long_long:maxlen <- $r3
	@DEBUG_VALUE: _ntoa_long_long:idx <- $r2
	@DEBUG_VALUE: _ntoa_long_long:buffer <- $r1
	.loc	2 283 9 prologue_end            @ ../GUILib/src/misc/lv_printf.c:283:9
	orrs.w	r7, r6, r5
	ldr	r4, [sp, #128]
.Ltmp270:
	@DEBUG_VALUE: _ntoa_long_long:negative <- [DW_OP_LLVM_convert 1 7, DW_OP_LLVM_convert 8 7, DW_OP_stack_value] undef
	@DEBUG_VALUE: _ntoa_long_long:out <- $r0
	.loc	2 283 8 is_stmt 0               @ ../GUILib/src/misc/lv_printf.c:283:8
	it	eq
	biceq	r8, r8, #16
.Ltmp271:
	@DEBUG_VALUE: _ntoa_long_long:flags <- $r8
	.loc	2 288 35 is_stmt 1              @ ../GUILib/src/misc/lv_printf.c:288:35
	add.w	r12, sp, #28
	stm.w	r12, {r0, r1, r2, r3}           @ 16-byte Folded Spill
	cbnz	r7, .LBB5_3
.Ltmp272:
@ %bb.1:
	@DEBUG_VALUE: _ntoa_long_long:flags <- $r8
	@DEBUG_VALUE: _ntoa_long_long:maxlen <- $r3
	@DEBUG_VALUE: _ntoa_long_long:idx <- $r2
	@DEBUG_VALUE: _ntoa_long_long:buffer <- $r1
	@DEBUG_VALUE: _ntoa_long_long:out <- $r0
	@DEBUG_VALUE: _ntoa_long_long:value <- [DW_OP_plus_uconst 112] [$sp+0]
	@DEBUG_VALUE: _ntoa_long_long:base <- [DW_OP_plus_uconst 128] [$sp+0]
	@DEBUG_VALUE: _ntoa_long_long:prec <- [DW_OP_plus_uconst 136] [$sp+0]
	@DEBUG_VALUE: _ntoa_long_long:width <- [DW_OP_plus_uconst 140] [$sp+0]
	@DEBUG_VALUE: _ntoa_long_long:len <- 0
	.loc	2 0 35 is_stmt 0                @ ../GUILib/src/misc/lv_printf.c:0:35
	ands	r7, r8, #1024
	.loc	2 288 35                        @ ../GUILib/src/misc/lv_printf.c:288:35
	beq	.LBB5_3
.Ltmp273:
@ %bb.2:
	@DEBUG_VALUE: _ntoa_long_long:flags <- $r8
	@DEBUG_VALUE: _ntoa_long_long:maxlen <- $r3
	@DEBUG_VALUE: _ntoa_long_long:idx <- $r2
	@DEBUG_VALUE: _ntoa_long_long:buffer <- $r1
	@DEBUG_VALUE: _ntoa_long_long:out <- $r0
	@DEBUG_VALUE: _ntoa_long_long:value <- [DW_OP_plus_uconst 112] [$sp+0]
	@DEBUG_VALUE: _ntoa_long_long:base <- [DW_OP_plus_uconst 128] [$sp+0]
	@DEBUG_VALUE: _ntoa_long_long:prec <- [DW_OP_plus_uconst 136] [$sp+0]
	@DEBUG_VALUE: _ntoa_long_long:width <- [DW_OP_plus_uconst 140] [$sp+0]
	@DEBUG_VALUE: _ntoa_long_long:len <- 0
	.loc	2 0 35                          @ ../GUILib/src/misc/lv_printf.c:0:35
	movs	r2, #0
.Ltmp274:
	@DEBUG_VALUE: _ntoa_long_long:idx <- [DW_OP_LLVM_entry_value 1] $r2
	b	.LBB5_6
.Ltmp275:
.LBB5_3:
	@DEBUG_VALUE: _ntoa_long_long:flags <- $r8
	@DEBUG_VALUE: _ntoa_long_long:maxlen <- $r3
	@DEBUG_VALUE: _ntoa_long_long:idx <- $r2
	@DEBUG_VALUE: _ntoa_long_long:buffer <- $r1
	@DEBUG_VALUE: _ntoa_long_long:out <- $r0
	@DEBUG_VALUE: _ntoa_long_long:value <- [DW_OP_plus_uconst 112] [$sp+0]
	@DEBUG_VALUE: _ntoa_long_long:base <- [DW_OP_plus_uconst 128] [$sp+0]
	@DEBUG_VALUE: _ntoa_long_long:prec <- [DW_OP_plus_uconst 136] [$sp+0]
	@DEBUG_VALUE: _ntoa_long_long:width <- [DW_OP_plus_uconst 140] [$sp+0]
	@DEBUG_VALUE: _ntoa_long_long:len <- 0
	and	r0, r8, #32
.Ltmp276:
	@DEBUG_VALUE: _ntoa_long_long:out <- [DW_OP_LLVM_entry_value 1] $r0
	ldr	r7, [sp, #132]
	eor	r0, r0, #97
	add.w	r9, r0, #246
	mov.w	r10, #0
	add.w	r11, sp, #44
.Ltmp277:
	.p2align	2
.LBB5_4:                                @ =>This Inner Loop Header: Depth=1
	@DEBUG_VALUE: _ntoa_long_long:flags <- $r8
	@DEBUG_VALUE: _ntoa_long_long:base <- [DW_OP_plus_uconst 128] [$sp+0]
	@DEBUG_VALUE: _ntoa_long_long:prec <- [DW_OP_plus_uconst 136] [$sp+0]
	@DEBUG_VALUE: _ntoa_long_long:width <- [DW_OP_plus_uconst 140] [$sp+0]
	@DEBUG_VALUE: _ntoa_long_long:out <- [DW_OP_LLVM_entry_value 1] $r0
	@DEBUG_VALUE: _ntoa_long_long:len <- $r10
	@DEBUG_VALUE: _ntoa_long_long:value <- [DW_OP_LLVM_fragment 0 32] $r6
	@DEBUG_VALUE: _ntoa_long_long:value <- [DW_OP_LLVM_fragment 32 32] $r5
	.loc	2 292 19 is_stmt 1              @ ../GUILib/src/misc/lv_printf.c:292:19
	mov	r0, r6
	mov	r1, r5
.Ltmp278:
	@DEBUG_VALUE: _ntoa_long_long:buffer <- [DW_OP_LLVM_entry_value 1] $r1
	mov	r2, r4
.Ltmp279:
	@DEBUG_VALUE: _ntoa_long_long:idx <- [DW_OP_LLVM_entry_value 1] $r2
	mov	r3, r7
.Ltmp280:
	@DEBUG_VALUE: _ntoa_long_long:maxlen <- [DW_OP_LLVM_entry_value 1] $r3
	bl	__aeabi_uldivmod
.Ltmp281:
	@DEBUG_VALUE: _ntoa_long_long:value <- [DW_OP_LLVM_fragment 0 32] $r0
	.loc	2 0 19 is_stmt 0                @ ../GUILib/src/misc/lv_printf.c:0:19
	mls	r2, r0, r4, r6
.Ltmp282:
	@DEBUG_VALUE: _ntoa_long_long:value <- [DW_OP_LLVM_fragment 32 32] $r1
	.loc	2 291 26 is_stmt 1              @ ../GUILib/src/misc/lv_printf.c:291:26
	and	r3, r2, #254
.Ltmp283:
	@DEBUG_VALUE: digit <- $r2
	cmp	r3, #10
	mov	r3, r9
	it	lo
	movlo	r3, #48
.Ltmp284:
	.loc	2 293 17                        @ ../GUILib/src/misc/lv_printf.c:293:17
	subs	r6, r6, r4
.Ltmp285:
	.loc	2 291 26                        @ ../GUILib/src/misc/lv_printf.c:291:26
	add	r3, r2
	.loc	2 291 20 is_stmt 0              @ ../GUILib/src/misc/lv_printf.c:291:20
	add.w	r2, r10, #1
.Ltmp286:
	@DEBUG_VALUE: _ntoa_long_long:len <- $r2
	.loc	2 293 17 is_stmt 1              @ ../GUILib/src/misc/lv_printf.c:293:17
	sbcs.w	r6, r5, r7
.Ltmp287:
	.loc	2 291 24                        @ ../GUILib/src/misc/lv_printf.c:291:24
	strb.w	r3, [r11, r10]
	.loc	2 293 9                         @ ../GUILib/src/misc/lv_printf.c:293:9
	blo	.LBB5_6
.Ltmp288:
@ %bb.5:                                @   in Loop: Header=BB5_4 Depth=1
	@DEBUG_VALUE: _ntoa_long_long:flags <- $r8
	@DEBUG_VALUE: _ntoa_long_long:len <- $r2
	@DEBUG_VALUE: _ntoa_long_long:value <- [DW_OP_LLVM_fragment 32 32] $r1
	@DEBUG_VALUE: _ntoa_long_long:value <- [DW_OP_LLVM_fragment 0 32] $r0
	@DEBUG_VALUE: _ntoa_long_long:base <- [DW_OP_plus_uconst 128] [$sp+0]
	@DEBUG_VALUE: _ntoa_long_long:prec <- [DW_OP_plus_uconst 136] [$sp+0]
	@DEBUG_VALUE: _ntoa_long_long:width <- [DW_OP_plus_uconst 140] [$sp+0]
	@DEBUG_VALUE: _ntoa_long_long:out <- [DW_OP_LLVM_entry_value 1] $r0
	cmp.w	r10, #31
.Ltmp289:
	.loc	2 0 0 is_stmt 0                 @ ../GUILib/src/misc/lv_printf.c:0:0
	mov	r10, r2
	mov	r6, r0
.Ltmp290:
	@DEBUG_VALUE: _ntoa_long_long:value <- [DW_OP_LLVM_fragment 0 32] $r6
	@DEBUG_VALUE: _ntoa_long_long:value <- [DW_OP_LLVM_fragment 0 32] $r6
	mov	r5, r1
.Ltmp291:
	@DEBUG_VALUE: _ntoa_long_long:value <- [DW_OP_LLVM_fragment 32 32] $r5
	@DEBUG_VALUE: _ntoa_long_long:value <- [DW_OP_LLVM_fragment 32 32] $r5
	.loc	2 293 9                         @ ../GUILib/src/misc/lv_printf.c:293:9
	blo	.LBB5_4
.Ltmp292:
.LBB5_6:
	@DEBUG_VALUE: _ntoa_long_long:flags <- $r8
	@DEBUG_VALUE: _ntoa_long_long:base <- [DW_OP_plus_uconst 128] [$sp+0]
	@DEBUG_VALUE: _ntoa_long_long:prec <- [DW_OP_plus_uconst 136] [$sp+0]
	@DEBUG_VALUE: _ntoa_long_long:width <- [DW_OP_plus_uconst 140] [$sp+0]
	@DEBUG_VALUE: _ntoa_long_long:len <- $r2
	.loc	2 0 9                           @ ../GUILib/src/misc/lv_printf.c:0:9
	add	r0, sp, #44
	.loc	2 296 12 is_stmt 1              @ ../GUILib/src/misc/lv_printf.c:296:12
	strd	r0, r2, [sp]
	ldr	r0, [sp, #120]
	add	r3, sp, #28
	strd	r0, r4, [sp, #8]
	ldr	r0, [sp, #136]
	ldr	r7, [sp, #140]
	str	r0, [sp, #16]
	ldm	r3, {r0, r1, r2, r3}            @ 16-byte Folded Reload
.Ltmp293:
	str.w	r8, [sp, #24]
	str	r7, [sp, #20]
	bl	_ntoa_format
.Ltmp294:
	.loc	2 296 5 is_stmt 0               @ ../GUILib/src/misc/lv_printf.c:296:5
	add	sp, #76
	pop.w	{r4, r5, r6, r7, r8, r9, r10, r11, pc}
.Ltmp295:
.Lfunc_end5:
	.size	_ntoa_long_long, .Lfunc_end5-_ntoa_long_long
	.cfi_endproc
	.cantunwind
	.fnend
                                        @ -- End function
	.section	.text._ntoa_long,"ax",%progbits
	.p2align	1                               @ -- Begin function _ntoa_long
	.type	_ntoa_long,%function
	.code	16                              @ @_ntoa_long
	.thumb_func
_ntoa_long:
.Lfunc_begin6:
	.loc	2 253 0 is_stmt 1               @ ../GUILib/src/misc/lv_printf.c:253:0
	.fnstart
	.cfi_startproc
@ %bb.0:
	@DEBUG_VALUE: _ntoa_long:out <- $r0
	@DEBUG_VALUE: _ntoa_long:buffer <- $r1
	@DEBUG_VALUE: _ntoa_long:idx <- $r2
	@DEBUG_VALUE: _ntoa_long:maxlen <- $r3
	.save	{r4, r5, r6, r7, r8, r9, r10, r11, lr}
	push.w	{r4, r5, r6, r7, r8, r9, r10, r11, lr}
	.cfi_def_cfa_offset 36
	.cfi_offset lr, -4
	.cfi_offset r11, -8
	.cfi_offset r10, -12
	.cfi_offset r9, -16
	.cfi_offset r8, -20
	.cfi_offset r7, -24
	.cfi_offset r6, -28
	.cfi_offset r5, -32
	.cfi_offset r4, -36
	.pad	#68
	sub	sp, #68
	.cfi_def_cfa_offset 104
	mov	r6, r2
.Ltmp296:
	@DEBUG_VALUE: _ntoa_long:idx <- $r6
	ldrd	r12, r2, [sp, #104]
	mov	r7, r3
.Ltmp297:
	@DEBUG_VALUE: _ntoa_long:maxlen <- $r7
	ldrd	r11, r3, [sp, #112]
	ldr.w	r9, [sp, #124]
.Ltmp298:
	@DEBUG_VALUE: _ntoa_long:len <- 0
	@DEBUG_VALUE: _ntoa_long:negative <- [DW_OP_LLVM_convert 1 7, DW_OP_LLVM_convert 8 7, DW_OP_stack_value] $r2
	@DEBUG_VALUE: _ntoa_long:flags <- [DW_OP_plus_uconst 124] [$sp+0]
	@DEBUG_VALUE: _ntoa_long:width <- [DW_OP_plus_uconst 120] [$sp+0]
	@DEBUG_VALUE: _ntoa_long:prec <- [DW_OP_plus_uconst 116] [$sp+0]
	@DEBUG_VALUE: _ntoa_long:base <- [DW_OP_plus_uconst 112] [$sp+0]
	@DEBUG_VALUE: _ntoa_long:value <- [DW_OP_plus_uconst 104] [$sp+0]
	@DEBUG_VALUE: _ntoa_long:maxlen <- $r7
	@DEBUG_VALUE: _ntoa_long:idx <- $r6
	@DEBUG_VALUE: _ntoa_long:buffer <- $r1
	.loc	2 258 8 prologue_end            @ ../GUILib/src/misc/lv_printf.c:258:8
	cmp.w	r12, #0
	it	eq
	biceq	r9, r9, #16
.Ltmp299:
	@DEBUG_VALUE: _ntoa_long:flags <- $r9
	.loc	2 263 35                        @ ../GUILib/src/misc/lv_printf.c:263:35
	cmp.w	r12, #0
	@DEBUG_VALUE: _ntoa_long:out <- $r0
	strd	r6, r7, [sp, #28]               @ 8-byte Folded Spill
	bne	.LBB6_3
.Ltmp300:
@ %bb.1:
	@DEBUG_VALUE: _ntoa_long:flags <- $r9
	@DEBUG_VALUE: _ntoa_long:maxlen <- $r7
	@DEBUG_VALUE: _ntoa_long:idx <- $r6
	@DEBUG_VALUE: _ntoa_long:negative <- [DW_OP_LLVM_convert 1 7, DW_OP_LLVM_convert 8 7, DW_OP_stack_value] $r2
	@DEBUG_VALUE: _ntoa_long:buffer <- $r1
	@DEBUG_VALUE: _ntoa_long:out <- $r0
	@DEBUG_VALUE: _ntoa_long:value <- [DW_OP_plus_uconst 104] [$sp+0]
	@DEBUG_VALUE: _ntoa_long:base <- [DW_OP_plus_uconst 112] [$sp+0]
	@DEBUG_VALUE: _ntoa_long:prec <- [DW_OP_plus_uconst 116] [$sp+0]
	@DEBUG_VALUE: _ntoa_long:width <- [DW_OP_plus_uconst 120] [$sp+0]
	@DEBUG_VALUE: _ntoa_long:len <- 0
	.loc	2 0 35 is_stmt 0                @ ../GUILib/src/misc/lv_printf.c:0:35
	ands	r4, r9, #1024
	.loc	2 263 35                        @ ../GUILib/src/misc/lv_printf.c:263:35
	beq	.LBB6_3
.Ltmp301:
@ %bb.2:
	@DEBUG_VALUE: _ntoa_long:flags <- $r9
	@DEBUG_VALUE: _ntoa_long:maxlen <- $r7
	@DEBUG_VALUE: _ntoa_long:idx <- $r6
	@DEBUG_VALUE: _ntoa_long:negative <- [DW_OP_LLVM_convert 1 7, DW_OP_LLVM_convert 8 7, DW_OP_stack_value] $r2
	@DEBUG_VALUE: _ntoa_long:buffer <- $r1
	@DEBUG_VALUE: _ntoa_long:out <- $r0
	@DEBUG_VALUE: _ntoa_long:value <- [DW_OP_plus_uconst 104] [$sp+0]
	@DEBUG_VALUE: _ntoa_long:base <- [DW_OP_plus_uconst 112] [$sp+0]
	@DEBUG_VALUE: _ntoa_long:prec <- [DW_OP_plus_uconst 116] [$sp+0]
	@DEBUG_VALUE: _ntoa_long:width <- [DW_OP_plus_uconst 120] [$sp+0]
	@DEBUG_VALUE: _ntoa_long:len <- 0
	.loc	2 0 35                          @ ../GUILib/src/misc/lv_printf.c:0:35
	movs	r4, #0
	b	.LBB6_6
.Ltmp302:
.LBB6_3:
	@DEBUG_VALUE: _ntoa_long:flags <- $r9
	@DEBUG_VALUE: _ntoa_long:maxlen <- $r7
	@DEBUG_VALUE: _ntoa_long:idx <- $r6
	@DEBUG_VALUE: _ntoa_long:negative <- [DW_OP_LLVM_convert 1 7, DW_OP_LLVM_convert 8 7, DW_OP_stack_value] $r2
	@DEBUG_VALUE: _ntoa_long:buffer <- $r1
	@DEBUG_VALUE: _ntoa_long:out <- $r0
	@DEBUG_VALUE: _ntoa_long:value <- [DW_OP_plus_uconst 104] [$sp+0]
	@DEBUG_VALUE: _ntoa_long:base <- [DW_OP_plus_uconst 112] [$sp+0]
	@DEBUG_VALUE: _ntoa_long:prec <- [DW_OP_plus_uconst 116] [$sp+0]
	@DEBUG_VALUE: _ntoa_long:width <- [DW_OP_plus_uconst 120] [$sp+0]
	@DEBUG_VALUE: _ntoa_long:len <- 0
	and	r4, r9, #32
	eor	r4, r4, #97
	add.w	r8, r4, #246
	movs	r5, #0
	add.w	r10, sp, #36
.Ltmp303:
	.p2align	2
.LBB6_4:                                @ =>This Inner Loop Header: Depth=1
	@DEBUG_VALUE: _ntoa_long:flags <- $r9
	@DEBUG_VALUE: _ntoa_long:negative <- [DW_OP_LLVM_convert 1 7, DW_OP_LLVM_convert 8 7, DW_OP_stack_value] $r2
	@DEBUG_VALUE: _ntoa_long:buffer <- $r1
	@DEBUG_VALUE: _ntoa_long:out <- $r0
	@DEBUG_VALUE: _ntoa_long:base <- [DW_OP_plus_uconst 112] [$sp+0]
	@DEBUG_VALUE: _ntoa_long:prec <- [DW_OP_plus_uconst 116] [$sp+0]
	@DEBUG_VALUE: _ntoa_long:width <- [DW_OP_plus_uconst 120] [$sp+0]
	@DEBUG_VALUE: _ntoa_long:value <- $r12
	@DEBUG_VALUE: _ntoa_long:len <- $r5
	.loc	2 267 19 is_stmt 1              @ ../GUILib/src/misc/lv_printf.c:267:19
	udiv	r7, r12, r11
	.loc	2 266 26                        @ ../GUILib/src/misc/lv_printf.c:266:26
	mov	r6, r8
	mls	r4, r7, r11, r12
	and	lr, r4, #254
.Ltmp304:
	@DEBUG_VALUE: digit <- $r4
	cmp.w	lr, #10
	it	lo
	movlo	r6, #48
	add	r6, r4
	.loc	2 266 20 is_stmt 0              @ ../GUILib/src/misc/lv_printf.c:266:20
	adds	r4, r5, #1
.Ltmp305:
	@DEBUG_VALUE: _ntoa_long:len <- $r4
	.loc	2 268 9 is_stmt 1               @ ../GUILib/src/misc/lv_printf.c:268:9
	cmp	r12, r11
	.loc	2 266 24                        @ ../GUILib/src/misc/lv_printf.c:266:24
	strb.w	r6, [r10, r5]
.Ltmp306:
	@DEBUG_VALUE: _ntoa_long:value <- $r7
	.loc	2 268 9                         @ ../GUILib/src/misc/lv_printf.c:268:9
	blo	.LBB6_6
.Ltmp307:
@ %bb.5:                                @   in Loop: Header=BB6_4 Depth=1
	@DEBUG_VALUE: _ntoa_long:flags <- $r9
	@DEBUG_VALUE: _ntoa_long:value <- $r7
	@DEBUG_VALUE: _ntoa_long:len <- $r4
	@DEBUG_VALUE: _ntoa_long:negative <- [DW_OP_LLVM_convert 1 7, DW_OP_LLVM_convert 8 7, DW_OP_stack_value] $r2
	@DEBUG_VALUE: _ntoa_long:buffer <- $r1
	@DEBUG_VALUE: _ntoa_long:out <- $r0
	@DEBUG_VALUE: _ntoa_long:base <- [DW_OP_plus_uconst 112] [$sp+0]
	@DEBUG_VALUE: _ntoa_long:prec <- [DW_OP_plus_uconst 116] [$sp+0]
	@DEBUG_VALUE: _ntoa_long:width <- [DW_OP_plus_uconst 120] [$sp+0]
	cmp	r5, #31
.Ltmp308:
	.loc	2 0 0 is_stmt 0                 @ ../GUILib/src/misc/lv_printf.c:0:0
	mov	r5, r4
	mov	r12, r7
.Ltmp309:
	.loc	2 268 9                         @ ../GUILib/src/misc/lv_printf.c:268:9
	blo	.LBB6_4
.Ltmp310:
.LBB6_6:
	@DEBUG_VALUE: _ntoa_long:flags <- $r9
	@DEBUG_VALUE: _ntoa_long:negative <- [DW_OP_LLVM_convert 1 7, DW_OP_LLVM_convert 8 7, DW_OP_stack_value] $r2
	@DEBUG_VALUE: _ntoa_long:buffer <- $r1
	@DEBUG_VALUE: _ntoa_long:out <- $r0
	@DEBUG_VALUE: _ntoa_long:base <- [DW_OP_plus_uconst 112] [$sp+0]
	@DEBUG_VALUE: _ntoa_long:prec <- [DW_OP_plus_uconst 116] [$sp+0]
	@DEBUG_VALUE: _ntoa_long:width <- [DW_OP_plus_uconst 120] [$sp+0]
	@DEBUG_VALUE: _ntoa_long:len <- $r4
	.loc	2 0 9                           @ ../GUILib/src/misc/lv_printf.c:0:9
	add	r7, sp, #36
	.loc	2 271 12 is_stmt 1              @ ../GUILib/src/misc/lv_printf.c:271:12
	strd	r7, r4, [sp]
	strd	r2, r11, [sp, #8]
	str	r3, [sp, #16]
	ldrd	r2, r3, [sp, #28]               @ 8-byte Folded Reload
.Ltmp311:
	ldr	r7, [sp, #120]
	str.w	r9, [sp, #24]
	str	r7, [sp, #20]
	bl	_ntoa_format
.Ltmp312:
	@DEBUG_VALUE: _ntoa_long:buffer <- [DW_OP_LLVM_entry_value 1] $r1
	@DEBUG_VALUE: _ntoa_long:out <- [DW_OP_LLVM_entry_value 1] $r0
	.loc	2 271 5 is_stmt 0               @ ../GUILib/src/misc/lv_printf.c:271:5
	add	sp, #68
	pop.w	{r4, r5, r6, r7, r8, r9, r10, r11, pc}
.Ltmp313:
.Lfunc_end6:
	.size	_ntoa_long, .Lfunc_end6-_ntoa_long
	.cfi_endproc
	.cantunwind
	.fnend
                                        @ -- End function
	.section	.text._ntoa_format,"ax",%progbits
	.p2align	1                               @ -- Begin function _ntoa_format
	.type	_ntoa_format,%function
	.code	16                              @ @_ntoa_format
	.thumb_func
_ntoa_format:
.Lfunc_begin7:
	.loc	2 199 0 is_stmt 1               @ ../GUILib/src/misc/lv_printf.c:199:0
	.fnstart
	.cfi_startproc
@ %bb.0:
	@DEBUG_VALUE: _ntoa_format:out <- $r0
	@DEBUG_VALUE: _ntoa_format:buffer <- $r1
	@DEBUG_VALUE: _ntoa_format:idx <- $r2
	@DEBUG_VALUE: _ntoa_format:maxlen <- $r3
	.save	{r4, r5, r6, r7, r8, r9, r10, r11, lr}
	push.w	{r4, r5, r6, r7, r8, r9, r10, r11, lr}
	.cfi_def_cfa_offset 36
	.cfi_offset lr, -4
	.cfi_offset r11, -8
	.cfi_offset r10, -12
	.cfi_offset r9, -16
	.cfi_offset r8, -20
	.cfi_offset r7, -24
	.cfi_offset r6, -28
	.cfi_offset r5, -32
	.cfi_offset r4, -36
	.pad	#12
	sub	sp, #12
	.cfi_def_cfa_offset 48
	ldr	r7, [sp, #72]
	mov	r6, r3
.Ltmp314:
	@DEBUG_VALUE: _ntoa_format:maxlen <- $r6
	mov	r9, r0
.Ltmp315:
	@DEBUG_VALUE: _ntoa_format:out <- $r9
	ldrd	r4, r0, [sp, #64]
	ldr	r3, [sp, #56]
	ldrd	r5, r11, [sp, #48]
.Ltmp316:
	@DEBUG_VALUE: _ntoa_format:negative <- [DW_OP_LLVM_convert 1 7, DW_OP_LLVM_convert 8 7, DW_OP_stack_value] $r3
	@DEBUG_VALUE: _ntoa_format:flags <- [DW_OP_plus_uconst 72] [$sp+0]
	@DEBUG_VALUE: _ntoa_format:width <- [DW_OP_plus_uconst 68] [$sp+0]
	@DEBUG_VALUE: _ntoa_format:prec <- [DW_OP_plus_uconst 64] [$sp+0]
	@DEBUG_VALUE: _ntoa_format:base <- [DW_OP_plus_uconst 60] [$sp+0]
	@DEBUG_VALUE: _ntoa_format:len <- [DW_OP_plus_uconst 52] [$sp+0]
	@DEBUG_VALUE: _ntoa_format:buf <- [DW_OP_plus_uconst 48] [$sp+0]
	@DEBUG_VALUE: _ntoa_format:maxlen <- $r6
	@DEBUG_VALUE: _ntoa_format:buffer <- $r10
	@DEBUG_VALUE: _ntoa_format:out <- $r9
	mov	r10, r1
.Ltmp317:
	.loc	2 201 16 prologue_end           @ ../GUILib/src/misc/lv_printf.c:201:16
	ands	r1, r7, #2
	mov	r8, r2
.Ltmp318:
	@DEBUG_VALUE: _ntoa_format:idx <- $r8
	@DEBUG_VALUE: _ntoa_format:idx <- $r8
	.loc	2 0 16 is_stmt 0                @ ../GUILib/src/misc/lv_printf.c:0:16
	str	r1, [sp, #4]                    @ 4-byte Spill
.Ltmp319:
	.loc	2 201 8                         @ ../GUILib/src/misc/lv_printf.c:201:8
	str	r0, [sp, #8]                    @ 4-byte Spill
	bne	.LBB7_16
.Ltmp320:
@ %bb.1:
	@DEBUG_VALUE: _ntoa_format:out <- $r9
	@DEBUG_VALUE: _ntoa_format:idx <- $r8
	@DEBUG_VALUE: _ntoa_format:maxlen <- $r6
	@DEBUG_VALUE: _ntoa_format:negative <- [DW_OP_LLVM_convert 1 7, DW_OP_LLVM_convert 8 7, DW_OP_stack_value] $r3
	@DEBUG_VALUE: _ntoa_format:buf <- [DW_OP_plus_uconst 48] [$sp+0]
	@DEBUG_VALUE: _ntoa_format:len <- [DW_OP_plus_uconst 52] [$sp+0]
	@DEBUG_VALUE: _ntoa_format:base <- [DW_OP_plus_uconst 60] [$sp+0]
	@DEBUG_VALUE: _ntoa_format:prec <- [DW_OP_plus_uconst 64] [$sp+0]
	@DEBUG_VALUE: _ntoa_format:width <- [DW_OP_plus_uconst 68] [$sp+0]
	@DEBUG_VALUE: _ntoa_format:flags <- [DW_OP_plus_uconst 72] [$sp+0]
	.loc	2 202 18 is_stmt 1              @ ../GUILib/src/misc/lv_printf.c:202:18
	cbz	r0, .LBB7_4
.Ltmp321:
@ %bb.2:
	@DEBUG_VALUE: _ntoa_format:out <- $r9
	@DEBUG_VALUE: _ntoa_format:idx <- $r8
	@DEBUG_VALUE: _ntoa_format:maxlen <- $r6
	@DEBUG_VALUE: _ntoa_format:negative <- [DW_OP_LLVM_convert 1 7, DW_OP_LLVM_convert 8 7, DW_OP_stack_value] $r3
	@DEBUG_VALUE: _ntoa_format:buf <- [DW_OP_plus_uconst 48] [$sp+0]
	@DEBUG_VALUE: _ntoa_format:len <- [DW_OP_plus_uconst 52] [$sp+0]
	@DEBUG_VALUE: _ntoa_format:base <- [DW_OP_plus_uconst 60] [$sp+0]
	@DEBUG_VALUE: _ntoa_format:prec <- [DW_OP_plus_uconst 64] [$sp+0]
	@DEBUG_VALUE: _ntoa_format:width <- [DW_OP_plus_uconst 68] [$sp+0]
	@DEBUG_VALUE: _ntoa_format:flags <- [DW_OP_plus_uconst 72] [$sp+0]
	.loc	2 202 45 is_stmt 0              @ ../GUILib/src/misc/lv_printf.c:202:45
	lsls	r0, r7, #31
	beq	.LBB7_6
.Ltmp322:
@ %bb.3:
	@DEBUG_VALUE: _ntoa_format:out <- $r9
	@DEBUG_VALUE: _ntoa_format:idx <- $r8
	@DEBUG_VALUE: _ntoa_format:maxlen <- $r6
	@DEBUG_VALUE: _ntoa_format:negative <- [DW_OP_LLVM_convert 1 7, DW_OP_LLVM_convert 8 7, DW_OP_stack_value] $r3
	@DEBUG_VALUE: _ntoa_format:buf <- [DW_OP_plus_uconst 48] [$sp+0]
	@DEBUG_VALUE: _ntoa_format:len <- [DW_OP_plus_uconst 52] [$sp+0]
	@DEBUG_VALUE: _ntoa_format:base <- [DW_OP_plus_uconst 60] [$sp+0]
	@DEBUG_VALUE: _ntoa_format:prec <- [DW_OP_plus_uconst 64] [$sp+0]
	@DEBUG_VALUE: _ntoa_format:width <- [DW_OP_plus_uconst 68] [$sp+0]
	@DEBUG_VALUE: _ntoa_format:flags <- [DW_OP_plus_uconst 72] [$sp+0]
	.loc	2 0 45                          @ ../GUILib/src/misc/lv_printf.c:0:45
	ands	r0, r7, #12
	it	ne
	movne	r0, #1
	.loc	2 202 58                        @ ../GUILib/src/misc/lv_printf.c:202:58
	ldr	r1, [sp, #68]
	orrs	r0, r3
	subs	r0, r1, r0
	b	.LBB7_5
.Ltmp323:
.LBB7_4:
	@DEBUG_VALUE: _ntoa_format:out <- $r9
	@DEBUG_VALUE: _ntoa_format:idx <- $r8
	@DEBUG_VALUE: _ntoa_format:maxlen <- $r6
	@DEBUG_VALUE: _ntoa_format:negative <- [DW_OP_LLVM_convert 1 7, DW_OP_LLVM_convert 8 7, DW_OP_stack_value] $r3
	@DEBUG_VALUE: _ntoa_format:buf <- [DW_OP_plus_uconst 48] [$sp+0]
	@DEBUG_VALUE: _ntoa_format:len <- [DW_OP_plus_uconst 52] [$sp+0]
	@DEBUG_VALUE: _ntoa_format:base <- [DW_OP_plus_uconst 60] [$sp+0]
	@DEBUG_VALUE: _ntoa_format:prec <- [DW_OP_plus_uconst 64] [$sp+0]
	@DEBUG_VALUE: _ntoa_format:width <- [DW_OP_plus_uconst 68] [$sp+0]
	@DEBUG_VALUE: _ntoa_format:flags <- [DW_OP_plus_uconst 72] [$sp+0]
	.loc	2 0 58                          @ ../GUILib/src/misc/lv_printf.c:0:58
	movs	r0, #0
.Ltmp324:
.LBB7_5:
	@DEBUG_VALUE: _ntoa_format:out <- $r9
	@DEBUG_VALUE: _ntoa_format:idx <- $r8
	@DEBUG_VALUE: _ntoa_format:maxlen <- $r6
	@DEBUG_VALUE: _ntoa_format:negative <- [DW_OP_LLVM_convert 1 7, DW_OP_LLVM_convert 8 7, DW_OP_stack_value] $r3
	@DEBUG_VALUE: _ntoa_format:buf <- [DW_OP_plus_uconst 48] [$sp+0]
	@DEBUG_VALUE: _ntoa_format:len <- [DW_OP_plus_uconst 52] [$sp+0]
	@DEBUG_VALUE: _ntoa_format:base <- [DW_OP_plus_uconst 60] [$sp+0]
	@DEBUG_VALUE: _ntoa_format:prec <- [DW_OP_plus_uconst 64] [$sp+0]
	@DEBUG_VALUE: _ntoa_format:width <- [DW_OP_plus_uconst 68] [$sp+0]
	@DEBUG_VALUE: _ntoa_format:flags <- [DW_OP_plus_uconst 72] [$sp+0]
	str	r0, [sp, #8]                    @ 4-byte Spill
.Ltmp325:
.LBB7_6:
	@DEBUG_VALUE: _ntoa_format:out <- $r9
	@DEBUG_VALUE: _ntoa_format:idx <- $r8
	@DEBUG_VALUE: _ntoa_format:maxlen <- $r6
	@DEBUG_VALUE: _ntoa_format:negative <- [DW_OP_LLVM_convert 1 7, DW_OP_LLVM_convert 8 7, DW_OP_stack_value] $r3
	@DEBUG_VALUE: _ntoa_format:buf <- [DW_OP_plus_uconst 48] [$sp+0]
	@DEBUG_VALUE: _ntoa_format:len <- [DW_OP_plus_uconst 52] [$sp+0]
	@DEBUG_VALUE: _ntoa_format:base <- [DW_OP_plus_uconst 60] [$sp+0]
	@DEBUG_VALUE: _ntoa_format:prec <- [DW_OP_plus_uconst 64] [$sp+0]
	@DEBUG_VALUE: _ntoa_format:width <- [DW_OP_plus_uconst 68] [$sp+0]
	@DEBUG_VALUE: _ntoa_format:flags <- [DW_OP_plus_uconst 72] [$sp+0]
	@DEBUG_VALUE: _ntoa_format:len <- $r11
	@DEBUG_VALUE: _ntoa_format:width <- [DW_OP_plus_uconst 8] [$sp+0]
	.loc	2 205 9 is_stmt 1               @ ../GUILib/src/misc/lv_printf.c:205:9
	cmp	r11, r4
	bhs	.LBB7_9
.Ltmp326:
@ %bb.7:
	@DEBUG_VALUE: _ntoa_format:len <- $r11
	@DEBUG_VALUE: _ntoa_format:out <- $r9
	@DEBUG_VALUE: _ntoa_format:idx <- $r8
	@DEBUG_VALUE: _ntoa_format:maxlen <- $r6
	@DEBUG_VALUE: _ntoa_format:negative <- [DW_OP_LLVM_convert 1 7, DW_OP_LLVM_convert 8 7, DW_OP_stack_value] $r3
	@DEBUG_VALUE: _ntoa_format:width <- [DW_OP_plus_uconst 8] [$sp+0]
	@DEBUG_VALUE: _ntoa_format:buf <- [DW_OP_plus_uconst 48] [$sp+0]
	@DEBUG_VALUE: _ntoa_format:base <- [DW_OP_plus_uconst 60] [$sp+0]
	@DEBUG_VALUE: _ntoa_format:prec <- [DW_OP_plus_uconst 64] [$sp+0]
	@DEBUG_VALUE: _ntoa_format:flags <- [DW_OP_plus_uconst 72] [$sp+0]
	cmp.w	r11, #31
	bhi	.LBB7_9
.Ltmp327:
@ %bb.8:
	@DEBUG_VALUE: _ntoa_format:len <- $r11
	@DEBUG_VALUE: _ntoa_format:out <- $r9
	@DEBUG_VALUE: _ntoa_format:idx <- $r8
	@DEBUG_VALUE: _ntoa_format:maxlen <- $r6
	@DEBUG_VALUE: _ntoa_format:negative <- [DW_OP_LLVM_convert 1 7, DW_OP_LLVM_convert 8 7, DW_OP_stack_value] $r3
	@DEBUG_VALUE: _ntoa_format:width <- [DW_OP_plus_uconst 8] [$sp+0]
	@DEBUG_VALUE: _ntoa_format:buf <- [DW_OP_plus_uconst 48] [$sp+0]
	@DEBUG_VALUE: _ntoa_format:base <- [DW_OP_plus_uconst 60] [$sp+0]
	@DEBUG_VALUE: _ntoa_format:prec <- [DW_OP_plus_uconst 64] [$sp+0]
	@DEBUG_VALUE: _ntoa_format:flags <- [DW_OP_plus_uconst 72] [$sp+0]
	mvn.w	r1, r11
	add.w	r0, r5, r11
	add	r1, r4
	rsb.w	r5, r11, #31
	cmp	r1, r5
	it	lo
	movlo	r5, r1
	adds	r1, r5, #1
.Ltmp328:
	.loc	2 206 24                        @ ../GUILib/src/misc/lv_printf.c:206:24
	movs	r2, #48
	bl	__aeabi_memset
.Ltmp329:
	.loc	2 0 24 is_stmt 0                @ ../GUILib/src/misc/lv_printf.c:0:24
	ldr	r3, [sp, #56]
.Ltmp330:
	.loc	2 205 9 is_stmt 1               @ ../GUILib/src/misc/lv_printf.c:205:9
	add.w	r0, r5, r11
.Ltmp331:
	@DEBUG_VALUE: _ntoa_format:len <- [DW_OP_plus_uconst 1, DW_OP_stack_value] undef
	.loc	2 0 9 is_stmt 0                 @ ../GUILib/src/misc/lv_printf.c:0:9
	ldr	r5, [sp, #48]
	.loc	2 205 9                         @ ../GUILib/src/misc/lv_printf.c:205:9
	add.w	r11, r0, #1
.Ltmp332:
.LBB7_9:
	@DEBUG_VALUE: _ntoa_format:out <- $r9
	@DEBUG_VALUE: _ntoa_format:idx <- $r8
	@DEBUG_VALUE: _ntoa_format:maxlen <- $r6
	@DEBUG_VALUE: _ntoa_format:width <- [DW_OP_plus_uconst 8] [$sp+0]
	@DEBUG_VALUE: _ntoa_format:buf <- [DW_OP_plus_uconst 48] [$sp+0]
	@DEBUG_VALUE: _ntoa_format:base <- [DW_OP_plus_uconst 60] [$sp+0]
	@DEBUG_VALUE: _ntoa_format:prec <- [DW_OP_plus_uconst 64] [$sp+0]
	@DEBUG_VALUE: _ntoa_format:flags <- [DW_OP_plus_uconst 72] [$sp+0]
	@DEBUG_VALUE: _ntoa_format:len <- $r11
	.loc	2 208 39 is_stmt 1              @ ../GUILib/src/misc/lv_printf.c:208:39
	lsls	r0, r7, #31
	beq	.LBB7_16
.Ltmp333:
@ %bb.10:
	@DEBUG_VALUE: _ntoa_format:len <- $r11
	@DEBUG_VALUE: _ntoa_format:out <- $r9
	@DEBUG_VALUE: _ntoa_format:idx <- $r8
	@DEBUG_VALUE: _ntoa_format:maxlen <- $r6
	@DEBUG_VALUE: _ntoa_format:width <- [DW_OP_plus_uconst 8] [$sp+0]
	@DEBUG_VALUE: _ntoa_format:buf <- [DW_OP_plus_uconst 48] [$sp+0]
	@DEBUG_VALUE: _ntoa_format:base <- [DW_OP_plus_uconst 60] [$sp+0]
	@DEBUG_VALUE: _ntoa_format:prec <- [DW_OP_plus_uconst 64] [$sp+0]
	@DEBUG_VALUE: _ntoa_format:flags <- [DW_OP_plus_uconst 72] [$sp+0]
	@DEBUG_VALUE: _ntoa_format:len <- $r11
	.loc	2 208 56 is_stmt 0              @ ../GUILib/src/misc/lv_printf.c:208:56
	ldr	r0, [sp, #8]                    @ 4-byte Reload
	cmp	r11, r0
	bhs	.LBB7_16
.Ltmp334:
@ %bb.11:
	@DEBUG_VALUE: _ntoa_format:len <- $r11
	@DEBUG_VALUE: _ntoa_format:out <- $r9
	@DEBUG_VALUE: _ntoa_format:idx <- $r8
	@DEBUG_VALUE: _ntoa_format:maxlen <- $r6
	@DEBUG_VALUE: _ntoa_format:width <- [DW_OP_plus_uconst 8] [$sp+0]
	@DEBUG_VALUE: _ntoa_format:buf <- [DW_OP_plus_uconst 48] [$sp+0]
	@DEBUG_VALUE: _ntoa_format:base <- [DW_OP_plus_uconst 60] [$sp+0]
	@DEBUG_VALUE: _ntoa_format:prec <- [DW_OP_plus_uconst 64] [$sp+0]
	@DEBUG_VALUE: _ntoa_format:flags <- [DW_OP_plus_uconst 72] [$sp+0]
	cmp.w	r11, #31
	bhi	.LBB7_16
.Ltmp335:
@ %bb.12:
	@DEBUG_VALUE: _ntoa_format:len <- $r11
	@DEBUG_VALUE: _ntoa_format:out <- $r9
	@DEBUG_VALUE: _ntoa_format:idx <- $r8
	@DEBUG_VALUE: _ntoa_format:maxlen <- $r6
	@DEBUG_VALUE: _ntoa_format:width <- [DW_OP_plus_uconst 8] [$sp+0]
	@DEBUG_VALUE: _ntoa_format:buf <- [DW_OP_plus_uconst 48] [$sp+0]
	@DEBUG_VALUE: _ntoa_format:base <- [DW_OP_plus_uconst 60] [$sp+0]
	@DEBUG_VALUE: _ntoa_format:prec <- [DW_OP_plus_uconst 64] [$sp+0]
	@DEBUG_VALUE: _ntoa_format:flags <- [DW_OP_plus_uconst 72] [$sp+0]
	.loc	2 0 56                          @ ../GUILib/src/misc/lv_printf.c:0:56
	ldr	r2, [sp, #8]                    @ 4-byte Reload
	movs	r1, #48
.Ltmp336:
	.p2align	2
.LBB7_13:                               @ =>This Inner Loop Header: Depth=1
	@DEBUG_VALUE: _ntoa_format:out <- $r9
	@DEBUG_VALUE: _ntoa_format:idx <- $r8
	@DEBUG_VALUE: _ntoa_format:maxlen <- $r6
	@DEBUG_VALUE: _ntoa_format:width <- [DW_OP_plus_uconst 8] [$sp+0]
	@DEBUG_VALUE: _ntoa_format:buf <- [DW_OP_plus_uconst 48] [$sp+0]
	@DEBUG_VALUE: _ntoa_format:base <- [DW_OP_plus_uconst 60] [$sp+0]
	@DEBUG_VALUE: _ntoa_format:prec <- [DW_OP_plus_uconst 64] [$sp+0]
	@DEBUG_VALUE: _ntoa_format:flags <- [DW_OP_plus_uconst 72] [$sp+0]
	@DEBUG_VALUE: _ntoa_format:len <- $r11
	.loc	2 209 20 is_stmt 1              @ ../GUILib/src/misc/lv_printf.c:209:20
	add.w	r0, r11, #1
.Ltmp337:
	@DEBUG_VALUE: _ntoa_format:len <- $r0
	.loc	2 208 56                        @ ../GUILib/src/misc/lv_printf.c:208:56
	cmp	r0, r2
.Ltmp338:
	.loc	2 209 24                        @ ../GUILib/src/misc/lv_printf.c:209:24
	strb.w	r1, [r5, r11]
.Ltmp339:
	.loc	2 208 56                        @ ../GUILib/src/misc/lv_printf.c:208:56
	bhs	.LBB7_15
.Ltmp340:
@ %bb.14:                               @   in Loop: Header=BB7_13 Depth=1
	@DEBUG_VALUE: _ntoa_format:out <- $r9
	@DEBUG_VALUE: _ntoa_format:idx <- $r8
	@DEBUG_VALUE: _ntoa_format:maxlen <- $r6
	@DEBUG_VALUE: _ntoa_format:len <- $r0
	@DEBUG_VALUE: _ntoa_format:width <- [DW_OP_plus_uconst 8] [$sp+0]
	@DEBUG_VALUE: _ntoa_format:buf <- [DW_OP_plus_uconst 48] [$sp+0]
	@DEBUG_VALUE: _ntoa_format:base <- [DW_OP_plus_uconst 60] [$sp+0]
	@DEBUG_VALUE: _ntoa_format:prec <- [DW_OP_plus_uconst 64] [$sp+0]
	@DEBUG_VALUE: _ntoa_format:flags <- [DW_OP_plus_uconst 72] [$sp+0]
	cmp.w	r11, #31
	mov	r11, r0
	blo	.LBB7_13
.Ltmp341:
.LBB7_15:
	@DEBUG_VALUE: _ntoa_format:out <- $r9
	@DEBUG_VALUE: _ntoa_format:idx <- $r8
	@DEBUG_VALUE: _ntoa_format:maxlen <- $r6
	@DEBUG_VALUE: _ntoa_format:len <- $r0
	@DEBUG_VALUE: _ntoa_format:width <- [DW_OP_plus_uconst 8] [$sp+0]
	@DEBUG_VALUE: _ntoa_format:buf <- [DW_OP_plus_uconst 48] [$sp+0]
	@DEBUG_VALUE: _ntoa_format:base <- [DW_OP_plus_uconst 60] [$sp+0]
	@DEBUG_VALUE: _ntoa_format:prec <- [DW_OP_plus_uconst 64] [$sp+0]
	@DEBUG_VALUE: _ntoa_format:flags <- [DW_OP_plus_uconst 72] [$sp+0]
	.loc	2 0 56 is_stmt 0                @ ../GUILib/src/misc/lv_printf.c:0:56
	mov	r11, r0
.Ltmp342:
	@DEBUG_VALUE: _ntoa_format:len <- $r11
.LBB7_16:
	@DEBUG_VALUE: _ntoa_format:out <- $r9
	@DEBUG_VALUE: _ntoa_format:idx <- $r8
	@DEBUG_VALUE: _ntoa_format:maxlen <- $r6
	@DEBUG_VALUE: _ntoa_format:buf <- [DW_OP_plus_uconst 48] [$sp+0]
	@DEBUG_VALUE: _ntoa_format:base <- [DW_OP_plus_uconst 60] [$sp+0]
	@DEBUG_VALUE: _ntoa_format:prec <- [DW_OP_plus_uconst 64] [$sp+0]
	@DEBUG_VALUE: _ntoa_format:flags <- [DW_OP_plus_uconst 72] [$sp+0]
	@DEBUG_VALUE: _ntoa_format:len <- $r11
	@DEBUG_VALUE: _ntoa_format:width <- [DW_OP_plus_uconst 8] [$sp+0]
	.loc	2 214 8 is_stmt 1               @ ../GUILib/src/misc/lv_printf.c:214:8
	lsls	r0, r7, #27
	bpl	.LBB7_35
.Ltmp343:
@ %bb.17:
	@DEBUG_VALUE: _ntoa_format:len <- $r11
	@DEBUG_VALUE: _ntoa_format:out <- $r9
	@DEBUG_VALUE: _ntoa_format:idx <- $r8
	@DEBUG_VALUE: _ntoa_format:maxlen <- $r6
	@DEBUG_VALUE: _ntoa_format:width <- [DW_OP_plus_uconst 8] [$sp+0]
	@DEBUG_VALUE: _ntoa_format:buf <- [DW_OP_plus_uconst 48] [$sp+0]
	@DEBUG_VALUE: _ntoa_format:base <- [DW_OP_plus_uconst 60] [$sp+0]
	@DEBUG_VALUE: _ntoa_format:prec <- [DW_OP_plus_uconst 64] [$sp+0]
	@DEBUG_VALUE: _ntoa_format:flags <- [DW_OP_plus_uconst 72] [$sp+0]
	.loc	2 0 8 is_stmt 0                 @ ../GUILib/src/misc/lv_printf.c:0:8
	ldr	r0, [sp, #60]
.Ltmp344:
	.loc	2 215 39 is_stmt 1              @ ../GUILib/src/misc/lv_printf.c:215:39
	lsls	r1, r7, #21
	bmi	.LBB7_22
.Ltmp345:
@ %bb.18:
	@DEBUG_VALUE: _ntoa_format:len <- $r11
	@DEBUG_VALUE: _ntoa_format:out <- $r9
	@DEBUG_VALUE: _ntoa_format:idx <- $r8
	@DEBUG_VALUE: _ntoa_format:maxlen <- $r6
	@DEBUG_VALUE: _ntoa_format:width <- [DW_OP_plus_uconst 8] [$sp+0]
	@DEBUG_VALUE: _ntoa_format:buf <- [DW_OP_plus_uconst 48] [$sp+0]
	@DEBUG_VALUE: _ntoa_format:base <- [DW_OP_plus_uconst 60] [$sp+0]
	@DEBUG_VALUE: _ntoa_format:prec <- [DW_OP_plus_uconst 64] [$sp+0]
	@DEBUG_VALUE: _ntoa_format:flags <- [DW_OP_plus_uconst 72] [$sp+0]
	cmp.w	r11, #0
	beq	.LBB7_22
.Ltmp346:
@ %bb.19:
	@DEBUG_VALUE: _ntoa_format:len <- $r11
	@DEBUG_VALUE: _ntoa_format:out <- $r9
	@DEBUG_VALUE: _ntoa_format:idx <- $r8
	@DEBUG_VALUE: _ntoa_format:maxlen <- $r6
	@DEBUG_VALUE: _ntoa_format:width <- [DW_OP_plus_uconst 8] [$sp+0]
	@DEBUG_VALUE: _ntoa_format:buf <- [DW_OP_plus_uconst 48] [$sp+0]
	@DEBUG_VALUE: _ntoa_format:base <- [DW_OP_plus_uconst 60] [$sp+0]
	@DEBUG_VALUE: _ntoa_format:prec <- [DW_OP_plus_uconst 64] [$sp+0]
	@DEBUG_VALUE: _ntoa_format:flags <- [DW_OP_plus_uconst 72] [$sp+0]
	.loc	2 215 64 is_stmt 0              @ ../GUILib/src/misc/lv_printf.c:215:64
	cmp	r11, r4
	beq	.LBB7_21
.Ltmp347:
@ %bb.20:
	@DEBUG_VALUE: _ntoa_format:len <- $r11
	@DEBUG_VALUE: _ntoa_format:out <- $r9
	@DEBUG_VALUE: _ntoa_format:idx <- $r8
	@DEBUG_VALUE: _ntoa_format:maxlen <- $r6
	@DEBUG_VALUE: _ntoa_format:width <- [DW_OP_plus_uconst 8] [$sp+0]
	@DEBUG_VALUE: _ntoa_format:buf <- [DW_OP_plus_uconst 48] [$sp+0]
	@DEBUG_VALUE: _ntoa_format:base <- [DW_OP_plus_uconst 60] [$sp+0]
	@DEBUG_VALUE: _ntoa_format:prec <- [DW_OP_plus_uconst 64] [$sp+0]
	@DEBUG_VALUE: _ntoa_format:flags <- [DW_OP_plus_uconst 72] [$sp+0]
	ldr	r1, [sp, #8]                    @ 4-byte Reload
	cmp	r11, r1
	bne	.LBB7_22
.Ltmp348:
.LBB7_21:
	@DEBUG_VALUE: _ntoa_format:len <- $r11
	@DEBUG_VALUE: _ntoa_format:out <- $r9
	@DEBUG_VALUE: _ntoa_format:idx <- $r8
	@DEBUG_VALUE: _ntoa_format:maxlen <- $r6
	@DEBUG_VALUE: _ntoa_format:width <- [DW_OP_plus_uconst 8] [$sp+0]
	@DEBUG_VALUE: _ntoa_format:buf <- [DW_OP_plus_uconst 48] [$sp+0]
	@DEBUG_VALUE: _ntoa_format:base <- [DW_OP_plus_uconst 60] [$sp+0]
	@DEBUG_VALUE: _ntoa_format:prec <- [DW_OP_plus_uconst 64] [$sp+0]
	@DEBUG_VALUE: _ntoa_format:flags <- [DW_OP_plus_uconst 72] [$sp+0]
	.loc	2 216 16 is_stmt 1              @ ../GUILib/src/misc/lv_printf.c:216:16
	subs.w	r1, r11, #1
.Ltmp349:
	@DEBUG_VALUE: _ntoa_format:len <- $r1
	.loc	2 217 20                        @ ../GUILib/src/misc/lv_printf.c:217:20
	mov	r2, r1
	it	ne
	subne.w	r2, r11, #2
	cmp	r0, #16
	it	ne
	movne	r2, r1
	mov	r11, r2
.Ltmp350:
.LBB7_22:
	@DEBUG_VALUE: _ntoa_format:out <- $r9
	@DEBUG_VALUE: _ntoa_format:idx <- $r8
	@DEBUG_VALUE: _ntoa_format:maxlen <- $r6
	@DEBUG_VALUE: _ntoa_format:width <- [DW_OP_plus_uconst 8] [$sp+0]
	@DEBUG_VALUE: _ntoa_format:buf <- [DW_OP_plus_uconst 48] [$sp+0]
	@DEBUG_VALUE: _ntoa_format:base <- [DW_OP_plus_uconst 60] [$sp+0]
	@DEBUG_VALUE: _ntoa_format:prec <- [DW_OP_plus_uconst 64] [$sp+0]
	@DEBUG_VALUE: _ntoa_format:flags <- [DW_OP_plus_uconst 72] [$sp+0]
	@DEBUG_VALUE: _ntoa_format:len <- $r11
	.loc	2 221 26                        @ ../GUILib/src/misc/lv_printf.c:221:26
	cmp	r0, #16
	bne	.LBB7_26
.Ltmp351:
@ %bb.23:
	@DEBUG_VALUE: _ntoa_format:len <- $r11
	@DEBUG_VALUE: _ntoa_format:out <- $r9
	@DEBUG_VALUE: _ntoa_format:idx <- $r8
	@DEBUG_VALUE: _ntoa_format:maxlen <- $r6
	@DEBUG_VALUE: _ntoa_format:width <- [DW_OP_plus_uconst 8] [$sp+0]
	@DEBUG_VALUE: _ntoa_format:buf <- [DW_OP_plus_uconst 48] [$sp+0]
	@DEBUG_VALUE: _ntoa_format:base <- [DW_OP_plus_uconst 60] [$sp+0]
	@DEBUG_VALUE: _ntoa_format:prec <- [DW_OP_plus_uconst 64] [$sp+0]
	@DEBUG_VALUE: _ntoa_format:flags <- [DW_OP_plus_uconst 72] [$sp+0]
	.loc	2 221 37 is_stmt 0              @ ../GUILib/src/misc/lv_printf.c:221:37
	ands	r0, r7, #32
	.loc	2 221 56                        @ ../GUILib/src/misc/lv_printf.c:221:56
	bne	.LBB7_29
.Ltmp352:
@ %bb.24:
	@DEBUG_VALUE: _ntoa_format:len <- $r11
	@DEBUG_VALUE: _ntoa_format:out <- $r9
	@DEBUG_VALUE: _ntoa_format:idx <- $r8
	@DEBUG_VALUE: _ntoa_format:maxlen <- $r6
	@DEBUG_VALUE: _ntoa_format:width <- [DW_OP_plus_uconst 8] [$sp+0]
	@DEBUG_VALUE: _ntoa_format:buf <- [DW_OP_plus_uconst 48] [$sp+0]
	@DEBUG_VALUE: _ntoa_format:base <- [DW_OP_plus_uconst 60] [$sp+0]
	@DEBUG_VALUE: _ntoa_format:prec <- [DW_OP_plus_uconst 64] [$sp+0]
	@DEBUG_VALUE: _ntoa_format:flags <- [DW_OP_plus_uconst 72] [$sp+0]
	cmp.w	r11, #31
	bhi	.LBB7_29
.Ltmp353:
@ %bb.25:
	@DEBUG_VALUE: _ntoa_format:len <- $r11
	@DEBUG_VALUE: _ntoa_format:out <- $r9
	@DEBUG_VALUE: _ntoa_format:idx <- $r8
	@DEBUG_VALUE: _ntoa_format:maxlen <- $r6
	@DEBUG_VALUE: _ntoa_format:width <- [DW_OP_plus_uconst 8] [$sp+0]
	@DEBUG_VALUE: _ntoa_format:buf <- [DW_OP_plus_uconst 48] [$sp+0]
	@DEBUG_VALUE: _ntoa_format:base <- [DW_OP_plus_uconst 60] [$sp+0]
	@DEBUG_VALUE: _ntoa_format:prec <- [DW_OP_plus_uconst 64] [$sp+0]
	@DEBUG_VALUE: _ntoa_format:flags <- [DW_OP_plus_uconst 72] [$sp+0]
	.loc	2 0 56                          @ ../GUILib/src/misc/lv_printf.c:0:56
	movs	r0, #120
	b	.LBB7_32
.Ltmp354:
.LBB7_26:
	@DEBUG_VALUE: _ntoa_format:len <- $r11
	@DEBUG_VALUE: _ntoa_format:out <- $r9
	@DEBUG_VALUE: _ntoa_format:idx <- $r8
	@DEBUG_VALUE: _ntoa_format:maxlen <- $r6
	@DEBUG_VALUE: _ntoa_format:width <- [DW_OP_plus_uconst 8] [$sp+0]
	@DEBUG_VALUE: _ntoa_format:buf <- [DW_OP_plus_uconst 48] [$sp+0]
	@DEBUG_VALUE: _ntoa_format:base <- [DW_OP_plus_uconst 60] [$sp+0]
	@DEBUG_VALUE: _ntoa_format:prec <- [DW_OP_plus_uconst 64] [$sp+0]
	@DEBUG_VALUE: _ntoa_format:flags <- [DW_OP_plus_uconst 72] [$sp+0]
	.loc	2 227 30 is_stmt 1              @ ../GUILib/src/misc/lv_printf.c:227:30
	cmp	r0, #2
	bne	.LBB7_33
.Ltmp355:
@ %bb.27:
	@DEBUG_VALUE: _ntoa_format:len <- $r11
	@DEBUG_VALUE: _ntoa_format:out <- $r9
	@DEBUG_VALUE: _ntoa_format:idx <- $r8
	@DEBUG_VALUE: _ntoa_format:maxlen <- $r6
	@DEBUG_VALUE: _ntoa_format:width <- [DW_OP_plus_uconst 8] [$sp+0]
	@DEBUG_VALUE: _ntoa_format:buf <- [DW_OP_plus_uconst 48] [$sp+0]
	@DEBUG_VALUE: _ntoa_format:base <- [DW_OP_plus_uconst 60] [$sp+0]
	@DEBUG_VALUE: _ntoa_format:prec <- [DW_OP_plus_uconst 64] [$sp+0]
	@DEBUG_VALUE: _ntoa_format:flags <- [DW_OP_plus_uconst 72] [$sp+0]
	cmp.w	r11, #31
	bhi	.LBB7_33
.Ltmp356:
@ %bb.28:
	@DEBUG_VALUE: _ntoa_format:len <- $r11
	@DEBUG_VALUE: _ntoa_format:out <- $r9
	@DEBUG_VALUE: _ntoa_format:idx <- $r8
	@DEBUG_VALUE: _ntoa_format:maxlen <- $r6
	@DEBUG_VALUE: _ntoa_format:width <- [DW_OP_plus_uconst 8] [$sp+0]
	@DEBUG_VALUE: _ntoa_format:buf <- [DW_OP_plus_uconst 48] [$sp+0]
	@DEBUG_VALUE: _ntoa_format:base <- [DW_OP_plus_uconst 60] [$sp+0]
	@DEBUG_VALUE: _ntoa_format:prec <- [DW_OP_plus_uconst 64] [$sp+0]
	@DEBUG_VALUE: _ntoa_format:flags <- [DW_OP_plus_uconst 72] [$sp+0]
	.loc	2 0 30 is_stmt 0                @ ../GUILib/src/misc/lv_printf.c:0:30
	movs	r0, #98
	b	.LBB7_32
.Ltmp357:
.LBB7_29:
	@DEBUG_VALUE: _ntoa_format:len <- $r11
	@DEBUG_VALUE: _ntoa_format:out <- $r9
	@DEBUG_VALUE: _ntoa_format:idx <- $r8
	@DEBUG_VALUE: _ntoa_format:maxlen <- $r6
	@DEBUG_VALUE: _ntoa_format:width <- [DW_OP_plus_uconst 8] [$sp+0]
	@DEBUG_VALUE: _ntoa_format:buf <- [DW_OP_plus_uconst 48] [$sp+0]
	@DEBUG_VALUE: _ntoa_format:base <- [DW_OP_plus_uconst 60] [$sp+0]
	@DEBUG_VALUE: _ntoa_format:prec <- [DW_OP_plus_uconst 64] [$sp+0]
	@DEBUG_VALUE: _ntoa_format:flags <- [DW_OP_plus_uconst 72] [$sp+0]
	.loc	2 224 60 is_stmt 1              @ ../GUILib/src/misc/lv_printf.c:224:60
	cbz	r0, .LBB7_33
.Ltmp358:
@ %bb.30:
	@DEBUG_VALUE: _ntoa_format:len <- $r11
	@DEBUG_VALUE: _ntoa_format:out <- $r9
	@DEBUG_VALUE: _ntoa_format:idx <- $r8
	@DEBUG_VALUE: _ntoa_format:maxlen <- $r6
	@DEBUG_VALUE: _ntoa_format:width <- [DW_OP_plus_uconst 8] [$sp+0]
	@DEBUG_VALUE: _ntoa_format:buf <- [DW_OP_plus_uconst 48] [$sp+0]
	@DEBUG_VALUE: _ntoa_format:base <- [DW_OP_plus_uconst 60] [$sp+0]
	@DEBUG_VALUE: _ntoa_format:prec <- [DW_OP_plus_uconst 64] [$sp+0]
	@DEBUG_VALUE: _ntoa_format:flags <- [DW_OP_plus_uconst 72] [$sp+0]
	cmp.w	r11, #31
	bhi	.LBB7_33
.Ltmp359:
@ %bb.31:
	@DEBUG_VALUE: _ntoa_format:len <- $r11
	@DEBUG_VALUE: _ntoa_format:out <- $r9
	@DEBUG_VALUE: _ntoa_format:idx <- $r8
	@DEBUG_VALUE: _ntoa_format:maxlen <- $r6
	@DEBUG_VALUE: _ntoa_format:width <- [DW_OP_plus_uconst 8] [$sp+0]
	@DEBUG_VALUE: _ntoa_format:buf <- [DW_OP_plus_uconst 48] [$sp+0]
	@DEBUG_VALUE: _ntoa_format:base <- [DW_OP_plus_uconst 60] [$sp+0]
	@DEBUG_VALUE: _ntoa_format:prec <- [DW_OP_plus_uconst 64] [$sp+0]
	@DEBUG_VALUE: _ntoa_format:flags <- [DW_OP_plus_uconst 72] [$sp+0]
	.loc	2 0 60 is_stmt 0                @ ../GUILib/src/misc/lv_printf.c:0:60
	movs	r0, #88
.Ltmp360:
.LBB7_32:
	@DEBUG_VALUE: _ntoa_format:len <- $r11
	@DEBUG_VALUE: _ntoa_format:out <- $r9
	@DEBUG_VALUE: _ntoa_format:idx <- $r8
	@DEBUG_VALUE: _ntoa_format:maxlen <- $r6
	@DEBUG_VALUE: _ntoa_format:width <- [DW_OP_plus_uconst 8] [$sp+0]
	@DEBUG_VALUE: _ntoa_format:buf <- [DW_OP_plus_uconst 48] [$sp+0]
	@DEBUG_VALUE: _ntoa_format:base <- [DW_OP_plus_uconst 60] [$sp+0]
	@DEBUG_VALUE: _ntoa_format:prec <- [DW_OP_plus_uconst 64] [$sp+0]
	@DEBUG_VALUE: _ntoa_format:flags <- [DW_OP_plus_uconst 72] [$sp+0]
	strb.w	r0, [r5, r11]
	add.w	r11, r11, #1
.Ltmp361:
	@DEBUG_VALUE: _ntoa_format:len <- $r11
	@DEBUG_VALUE: _ntoa_format:len <- $r11
.LBB7_33:
	@DEBUG_VALUE: _ntoa_format:len <- $r11
	@DEBUG_VALUE: _ntoa_format:out <- $r9
	@DEBUG_VALUE: _ntoa_format:idx <- $r8
	@DEBUG_VALUE: _ntoa_format:maxlen <- $r6
	@DEBUG_VALUE: _ntoa_format:width <- [DW_OP_plus_uconst 8] [$sp+0]
	@DEBUG_VALUE: _ntoa_format:buf <- [DW_OP_plus_uconst 48] [$sp+0]
	@DEBUG_VALUE: _ntoa_format:base <- [DW_OP_plus_uconst 60] [$sp+0]
	@DEBUG_VALUE: _ntoa_format:prec <- [DW_OP_plus_uconst 64] [$sp+0]
	@DEBUG_VALUE: _ntoa_format:flags <- [DW_OP_plus_uconst 72] [$sp+0]
	@DEBUG_VALUE: _ntoa_format:len <- $r11
	.loc	2 230 12 is_stmt 1              @ ../GUILib/src/misc/lv_printf.c:230:12
	cmp.w	r11, #31
	bhi	.LBB7_43
.Ltmp362:
@ %bb.34:
	@DEBUG_VALUE: _ntoa_format:len <- $r11
	@DEBUG_VALUE: _ntoa_format:out <- $r9
	@DEBUG_VALUE: _ntoa_format:idx <- $r8
	@DEBUG_VALUE: _ntoa_format:maxlen <- $r6
	@DEBUG_VALUE: _ntoa_format:width <- [DW_OP_plus_uconst 8] [$sp+0]
	@DEBUG_VALUE: _ntoa_format:buf <- [DW_OP_plus_uconst 48] [$sp+0]
	@DEBUG_VALUE: _ntoa_format:base <- [DW_OP_plus_uconst 60] [$sp+0]
	@DEBUG_VALUE: _ntoa_format:prec <- [DW_OP_plus_uconst 64] [$sp+0]
	@DEBUG_VALUE: _ntoa_format:flags <- [DW_OP_plus_uconst 72] [$sp+0]
	.loc	2 0 12 is_stmt 0                @ ../GUILib/src/misc/lv_printf.c:0:12
	movs	r0, #48
.Ltmp363:
	.loc	2 231 24 is_stmt 1              @ ../GUILib/src/misc/lv_printf.c:231:24
	strb.w	r0, [r5, r11]
	.loc	2 231 20 is_stmt 0              @ ../GUILib/src/misc/lv_printf.c:231:20
	add.w	r11, r11, #1
.Ltmp364:
	@DEBUG_VALUE: _ntoa_format:len <- $r11
	@DEBUG_VALUE: _ntoa_format:len <- $r11
.LBB7_35:
	@DEBUG_VALUE: _ntoa_format:len <- $r11
	@DEBUG_VALUE: _ntoa_format:out <- $r9
	@DEBUG_VALUE: _ntoa_format:idx <- $r8
	@DEBUG_VALUE: _ntoa_format:maxlen <- $r6
	@DEBUG_VALUE: _ntoa_format:width <- [DW_OP_plus_uconst 8] [$sp+0]
	@DEBUG_VALUE: _ntoa_format:buf <- [DW_OP_plus_uconst 48] [$sp+0]
	@DEBUG_VALUE: _ntoa_format:base <- [DW_OP_plus_uconst 60] [$sp+0]
	@DEBUG_VALUE: _ntoa_format:prec <- [DW_OP_plus_uconst 64] [$sp+0]
	@DEBUG_VALUE: _ntoa_format:flags <- [DW_OP_plus_uconst 72] [$sp+0]
	@DEBUG_VALUE: _ntoa_format:len <- $r11
	.loc	2 235 8 is_stmt 1               @ ../GUILib/src/misc/lv_printf.c:235:8
	cmp.w	r11, #31
	bhi	.LBB7_43
.Ltmp365:
@ %bb.36:
	@DEBUG_VALUE: _ntoa_format:len <- $r11
	@DEBUG_VALUE: _ntoa_format:out <- $r9
	@DEBUG_VALUE: _ntoa_format:idx <- $r8
	@DEBUG_VALUE: _ntoa_format:maxlen <- $r6
	@DEBUG_VALUE: _ntoa_format:width <- [DW_OP_plus_uconst 8] [$sp+0]
	@DEBUG_VALUE: _ntoa_format:buf <- [DW_OP_plus_uconst 48] [$sp+0]
	@DEBUG_VALUE: _ntoa_format:base <- [DW_OP_plus_uconst 60] [$sp+0]
	@DEBUG_VALUE: _ntoa_format:prec <- [DW_OP_plus_uconst 64] [$sp+0]
	@DEBUG_VALUE: _ntoa_format:flags <- [DW_OP_plus_uconst 72] [$sp+0]
	.loc	2 236 12                        @ ../GUILib/src/misc/lv_printf.c:236:12
	cbz	r3, .LBB7_38
.Ltmp366:
@ %bb.37:
	@DEBUG_VALUE: _ntoa_format:len <- $r11
	@DEBUG_VALUE: _ntoa_format:out <- $r9
	@DEBUG_VALUE: _ntoa_format:idx <- $r8
	@DEBUG_VALUE: _ntoa_format:maxlen <- $r6
	@DEBUG_VALUE: _ntoa_format:width <- [DW_OP_plus_uconst 8] [$sp+0]
	@DEBUG_VALUE: _ntoa_format:buf <- [DW_OP_plus_uconst 48] [$sp+0]
	@DEBUG_VALUE: _ntoa_format:base <- [DW_OP_plus_uconst 60] [$sp+0]
	@DEBUG_VALUE: _ntoa_format:prec <- [DW_OP_plus_uconst 64] [$sp+0]
	@DEBUG_VALUE: _ntoa_format:flags <- [DW_OP_plus_uconst 72] [$sp+0]
	.loc	2 0 12 is_stmt 0                @ ../GUILib/src/misc/lv_printf.c:0:12
	movs	r0, #45
	b	.LBB7_42
.Ltmp367:
.LBB7_38:
	@DEBUG_VALUE: _ntoa_format:len <- $r11
	@DEBUG_VALUE: _ntoa_format:out <- $r9
	@DEBUG_VALUE: _ntoa_format:idx <- $r8
	@DEBUG_VALUE: _ntoa_format:maxlen <- $r6
	@DEBUG_VALUE: _ntoa_format:width <- [DW_OP_plus_uconst 8] [$sp+0]
	@DEBUG_VALUE: _ntoa_format:buf <- [DW_OP_plus_uconst 48] [$sp+0]
	@DEBUG_VALUE: _ntoa_format:base <- [DW_OP_plus_uconst 60] [$sp+0]
	@DEBUG_VALUE: _ntoa_format:prec <- [DW_OP_plus_uconst 64] [$sp+0]
	@DEBUG_VALUE: _ntoa_format:flags <- [DW_OP_plus_uconst 72] [$sp+0]
	.loc	2 239 17 is_stmt 1              @ ../GUILib/src/misc/lv_printf.c:239:17
	lsls	r0, r7, #29
	bmi	.LBB7_41
.Ltmp368:
@ %bb.39:
	@DEBUG_VALUE: _ntoa_format:len <- $r11
	@DEBUG_VALUE: _ntoa_format:out <- $r9
	@DEBUG_VALUE: _ntoa_format:idx <- $r8
	@DEBUG_VALUE: _ntoa_format:maxlen <- $r6
	@DEBUG_VALUE: _ntoa_format:width <- [DW_OP_plus_uconst 8] [$sp+0]
	@DEBUG_VALUE: _ntoa_format:buf <- [DW_OP_plus_uconst 48] [$sp+0]
	@DEBUG_VALUE: _ntoa_format:base <- [DW_OP_plus_uconst 60] [$sp+0]
	@DEBUG_VALUE: _ntoa_format:prec <- [DW_OP_plus_uconst 64] [$sp+0]
	@DEBUG_VALUE: _ntoa_format:flags <- [DW_OP_plus_uconst 72] [$sp+0]
	.loc	2 242 17                        @ ../GUILib/src/misc/lv_printf.c:242:17
	lsls	r0, r7, #28
	bpl	.LBB7_43
.Ltmp369:
@ %bb.40:
	@DEBUG_VALUE: _ntoa_format:len <- $r11
	@DEBUG_VALUE: _ntoa_format:out <- $r9
	@DEBUG_VALUE: _ntoa_format:idx <- $r8
	@DEBUG_VALUE: _ntoa_format:maxlen <- $r6
	@DEBUG_VALUE: _ntoa_format:width <- [DW_OP_plus_uconst 8] [$sp+0]
	@DEBUG_VALUE: _ntoa_format:buf <- [DW_OP_plus_uconst 48] [$sp+0]
	@DEBUG_VALUE: _ntoa_format:base <- [DW_OP_plus_uconst 60] [$sp+0]
	@DEBUG_VALUE: _ntoa_format:prec <- [DW_OP_plus_uconst 64] [$sp+0]
	@DEBUG_VALUE: _ntoa_format:flags <- [DW_OP_plus_uconst 72] [$sp+0]
	.loc	2 0 17 is_stmt 0                @ ../GUILib/src/misc/lv_printf.c:0:17
	movs	r0, #32
	b	.LBB7_42
.Ltmp370:
.LBB7_41:
	@DEBUG_VALUE: _ntoa_format:len <- $r11
	@DEBUG_VALUE: _ntoa_format:out <- $r9
	@DEBUG_VALUE: _ntoa_format:idx <- $r8
	@DEBUG_VALUE: _ntoa_format:maxlen <- $r6
	@DEBUG_VALUE: _ntoa_format:width <- [DW_OP_plus_uconst 8] [$sp+0]
	@DEBUG_VALUE: _ntoa_format:buf <- [DW_OP_plus_uconst 48] [$sp+0]
	@DEBUG_VALUE: _ntoa_format:base <- [DW_OP_plus_uconst 60] [$sp+0]
	@DEBUG_VALUE: _ntoa_format:prec <- [DW_OP_plus_uconst 64] [$sp+0]
	@DEBUG_VALUE: _ntoa_format:flags <- [DW_OP_plus_uconst 72] [$sp+0]
	movs	r0, #43
.Ltmp371:
.LBB7_42:
	@DEBUG_VALUE: _ntoa_format:len <- $r11
	@DEBUG_VALUE: _ntoa_format:out <- $r9
	@DEBUG_VALUE: _ntoa_format:idx <- $r8
	@DEBUG_VALUE: _ntoa_format:maxlen <- $r6
	@DEBUG_VALUE: _ntoa_format:width <- [DW_OP_plus_uconst 8] [$sp+0]
	@DEBUG_VALUE: _ntoa_format:buf <- [DW_OP_plus_uconst 48] [$sp+0]
	@DEBUG_VALUE: _ntoa_format:base <- [DW_OP_plus_uconst 60] [$sp+0]
	@DEBUG_VALUE: _ntoa_format:prec <- [DW_OP_plus_uconst 64] [$sp+0]
	@DEBUG_VALUE: _ntoa_format:flags <- [DW_OP_plus_uconst 72] [$sp+0]
	strb.w	r0, [r5, r11]
	add.w	r11, r11, #1
.Ltmp372:
	@DEBUG_VALUE: _ntoa_format:len <- $r11
	@DEBUG_VALUE: _ntoa_format:len <- $r11
.LBB7_43:
	@DEBUG_VALUE: _ntoa_format:len <- $r11
	@DEBUG_VALUE: _ntoa_format:out <- $r9
	@DEBUG_VALUE: _ntoa_format:idx <- $r8
	@DEBUG_VALUE: _ntoa_format:maxlen <- $r6
	@DEBUG_VALUE: _ntoa_format:width <- [DW_OP_plus_uconst 8] [$sp+0]
	@DEBUG_VALUE: _ntoa_format:buf <- [DW_OP_plus_uconst 48] [$sp+0]
	@DEBUG_VALUE: _ntoa_format:base <- [DW_OP_plus_uconst 60] [$sp+0]
	@DEBUG_VALUE: _ntoa_format:prec <- [DW_OP_plus_uconst 64] [$sp+0]
	@DEBUG_VALUE: _ntoa_format:flags <- [DW_OP_plus_uconst 72] [$sp+0]
	@DEBUG_VALUE: _ntoa_format:len <- $r11
	@DEBUG_VALUE: _out_rev:out <- $r9
	@DEBUG_VALUE: _out_rev:buffer <- $r10
	@DEBUG_VALUE: _out_rev:idx <- $r8
	@DEBUG_VALUE: _out_rev:maxlen <- $r6
	@DEBUG_VALUE: _out_rev:buf <- $r5
	@DEBUG_VALUE: _out_rev:len <- $r11
	@DEBUG_VALUE: _out_rev:width <- [DW_OP_plus_uconst 8] [$sp+0]
	@DEBUG_VALUE: _out_rev:flags <- $r7
	@DEBUG_VALUE: _out_rev:start_idx <- $r8
	@DEBUG_VALUE: i <- $r11
	.loc	2 174 30 is_stmt 1              @ ../GUILib/src/misc/lv_printf.c:174:30
	lsls	r0, r7, #30
	mov	r4, r8
	bne	.LBB7_47
.Ltmp373:
@ %bb.44:
	@DEBUG_VALUE: _out_rev:len <- $r11
	@DEBUG_VALUE: _ntoa_format:len <- $r11
	@DEBUG_VALUE: _out_rev:buffer <- $r10
	@DEBUG_VALUE: _out_rev:out <- $r9
	@DEBUG_VALUE: _ntoa_format:out <- $r9
	@DEBUG_VALUE: _out_rev:start_idx <- $r8
	@DEBUG_VALUE: _out_rev:idx <- $r8
	@DEBUG_VALUE: _ntoa_format:idx <- $r8
	@DEBUG_VALUE: _out_rev:flags <- $r7
	@DEBUG_VALUE: _out_rev:maxlen <- $r6
	@DEBUG_VALUE: _ntoa_format:maxlen <- $r6
	@DEBUG_VALUE: _out_rev:buf <- $r5
	@DEBUG_VALUE: _out_rev:width <- [DW_OP_plus_uconst 8] [$sp+0]
	@DEBUG_VALUE: _ntoa_format:width <- [DW_OP_plus_uconst 8] [$sp+0]
	@DEBUG_VALUE: _ntoa_format:buf <- [DW_OP_plus_uconst 48] [$sp+0]
	@DEBUG_VALUE: _ntoa_format:base <- [DW_OP_plus_uconst 60] [$sp+0]
	@DEBUG_VALUE: _ntoa_format:prec <- [DW_OP_plus_uconst 64] [$sp+0]
	@DEBUG_VALUE: _ntoa_format:flags <- [DW_OP_plus_uconst 72] [$sp+0]
	ldr	r0, [sp, #8]                    @ 4-byte Reload
	mov	r4, r8
	cmp	r11, r0
	bhs	.LBB7_47
.Ltmp374:
@ %bb.45:
	@DEBUG_VALUE: _out_rev:len <- $r11
	@DEBUG_VALUE: _ntoa_format:len <- $r11
	@DEBUG_VALUE: _out_rev:buffer <- $r10
	@DEBUG_VALUE: _out_rev:out <- $r9
	@DEBUG_VALUE: _ntoa_format:out <- $r9
	@DEBUG_VALUE: _out_rev:start_idx <- $r8
	@DEBUG_VALUE: _out_rev:idx <- $r8
	@DEBUG_VALUE: _ntoa_format:idx <- $r8
	@DEBUG_VALUE: _out_rev:flags <- $r7
	@DEBUG_VALUE: _out_rev:maxlen <- $r6
	@DEBUG_VALUE: _ntoa_format:maxlen <- $r6
	@DEBUG_VALUE: _out_rev:buf <- $r5
	@DEBUG_VALUE: _out_rev:width <- [DW_OP_plus_uconst 8] [$sp+0]
	@DEBUG_VALUE: _ntoa_format:width <- [DW_OP_plus_uconst 8] [$sp+0]
	@DEBUG_VALUE: _ntoa_format:buf <- [DW_OP_plus_uconst 48] [$sp+0]
	@DEBUG_VALUE: _ntoa_format:base <- [DW_OP_plus_uconst 60] [$sp+0]
	@DEBUG_VALUE: _ntoa_format:prec <- [DW_OP_plus_uconst 64] [$sp+0]
	@DEBUG_VALUE: _ntoa_format:flags <- [DW_OP_plus_uconst 72] [$sp+0]
	.loc	2 176 9                         @ ../GUILib/src/misc/lv_printf.c:176:9
	ldr	r0, [sp, #8]                    @ 4-byte Reload
	mov	r2, r8
	sub.w	r7, r0, r11
.Ltmp375:
	.p2align	2
.LBB7_46:                               @ =>This Inner Loop Header: Depth=1
	@DEBUG_VALUE: _out_rev:len <- $r11
	@DEBUG_VALUE: _ntoa_format:len <- $r11
	@DEBUG_VALUE: _out_rev:buffer <- $r10
	@DEBUG_VALUE: _out_rev:out <- $r9
	@DEBUG_VALUE: _ntoa_format:out <- $r9
	@DEBUG_VALUE: _out_rev:start_idx <- $r8
	@DEBUG_VALUE: _ntoa_format:idx <- $r8
	@DEBUG_VALUE: _out_rev:maxlen <- $r6
	@DEBUG_VALUE: _ntoa_format:maxlen <- $r6
	@DEBUG_VALUE: _out_rev:buf <- $r5
	@DEBUG_VALUE: _out_rev:width <- [DW_OP_plus_uconst 8] [$sp+0]
	@DEBUG_VALUE: _ntoa_format:width <- [DW_OP_plus_uconst 8] [$sp+0]
	@DEBUG_VALUE: _ntoa_format:buf <- [DW_OP_plus_uconst 48] [$sp+0]
	@DEBUG_VALUE: _ntoa_format:base <- [DW_OP_plus_uconst 60] [$sp+0]
	@DEBUG_VALUE: _ntoa_format:prec <- [DW_OP_plus_uconst 64] [$sp+0]
	@DEBUG_VALUE: _ntoa_format:flags <- [DW_OP_plus_uconst 72] [$sp+0]
	@DEBUG_VALUE: _out_rev:idx <- $r2
	@DEBUG_VALUE: i <- undef
	.loc	2 177 13                        @ ../GUILib/src/misc/lv_printf.c:177:13
	movs	r0, #32
	mov	r1, r10
	mov	r3, r6
	.loc	2 177 33 is_stmt 0              @ ../GUILib/src/misc/lv_printf.c:177:33
	adds	r4, r2, #1
.Ltmp376:
	@DEBUG_VALUE: _out_rev:idx <- $r4
	.loc	2 177 13                        @ ../GUILib/src/misc/lv_printf.c:177:13
	blx	r9
.Ltmp377:
	@DEBUG_VALUE: i <- [DW_OP_plus_uconst 1, DW_OP_stack_value] undef
	.loc	2 176 24 is_stmt 1              @ ../GUILib/src/misc/lv_printf.c:176:24
	subs	r7, #1
	mov	r2, r4
.Ltmp378:
	.loc	2 176 9 is_stmt 0               @ ../GUILib/src/misc/lv_printf.c:176:9
	bne	.LBB7_46
.Ltmp379:
.LBB7_47:
	@DEBUG_VALUE: _out_rev:len <- $r11
	@DEBUG_VALUE: _ntoa_format:len <- $r11
	@DEBUG_VALUE: _out_rev:buffer <- $r10
	@DEBUG_VALUE: _out_rev:out <- $r9
	@DEBUG_VALUE: _ntoa_format:out <- $r9
	@DEBUG_VALUE: _out_rev:start_idx <- $r8
	@DEBUG_VALUE: _ntoa_format:idx <- $r8
	@DEBUG_VALUE: _out_rev:maxlen <- $r6
	@DEBUG_VALUE: _ntoa_format:maxlen <- $r6
	@DEBUG_VALUE: _out_rev:buf <- $r5
	@DEBUG_VALUE: _out_rev:width <- [DW_OP_plus_uconst 8] [$sp+0]
	@DEBUG_VALUE: _ntoa_format:width <- [DW_OP_plus_uconst 8] [$sp+0]
	@DEBUG_VALUE: _ntoa_format:buf <- [DW_OP_plus_uconst 48] [$sp+0]
	@DEBUG_VALUE: _ntoa_format:base <- [DW_OP_plus_uconst 60] [$sp+0]
	@DEBUG_VALUE: _ntoa_format:prec <- [DW_OP_plus_uconst 64] [$sp+0]
	@DEBUG_VALUE: _ntoa_format:flags <- [DW_OP_plus_uconst 72] [$sp+0]
	@DEBUG_VALUE: _out_rev:idx <- $r4
	@DEBUG_VALUE: _out_rev:len <- $r11
	.loc	2 182 5 is_stmt 1               @ ../GUILib/src/misc/lv_printf.c:182:5
	cmp.w	r11, #0
	str.w	r8, [sp]                        @ 4-byte Spill
.Ltmp380:
	@DEBUG_VALUE: _ntoa_format:idx <- [$sp+0]
	beq	.LBB7_50
.Ltmp381:
@ %bb.48:
	@DEBUG_VALUE: _ntoa_format:idx <- [$sp+0]
	@DEBUG_VALUE: _out_rev:len <- $r11
	@DEBUG_VALUE: _ntoa_format:len <- $r11
	@DEBUG_VALUE: _out_rev:buffer <- $r10
	@DEBUG_VALUE: _out_rev:out <- $r9
	@DEBUG_VALUE: _ntoa_format:out <- $r9
	@DEBUG_VALUE: _out_rev:start_idx <- $r8
	@DEBUG_VALUE: _out_rev:maxlen <- $r6
	@DEBUG_VALUE: _ntoa_format:maxlen <- $r6
	@DEBUG_VALUE: _out_rev:buf <- $r5
	@DEBUG_VALUE: _out_rev:idx <- $r4
	@DEBUG_VALUE: _out_rev:width <- [DW_OP_plus_uconst 8] [$sp+0]
	@DEBUG_VALUE: _ntoa_format:width <- [DW_OP_plus_uconst 8] [$sp+0]
	@DEBUG_VALUE: _ntoa_format:buf <- [DW_OP_plus_uconst 48] [$sp+0]
	@DEBUG_VALUE: _ntoa_format:base <- [DW_OP_plus_uconst 60] [$sp+0]
	@DEBUG_VALUE: _ntoa_format:prec <- [DW_OP_plus_uconst 64] [$sp+0]
	@DEBUG_VALUE: _ntoa_format:flags <- [DW_OP_plus_uconst 72] [$sp+0]
	sub.w	r8, r5, #1
.Ltmp382:
	.p2align	2
.LBB7_49:                               @ =>This Inner Loop Header: Depth=1
	@DEBUG_VALUE: _ntoa_format:idx <- [$sp+0]
	@DEBUG_VALUE: _out_rev:len <- $r11
	@DEBUG_VALUE: _out_rev:buffer <- $r10
	@DEBUG_VALUE: _out_rev:out <- $r9
	@DEBUG_VALUE: _ntoa_format:out <- $r9
	@DEBUG_VALUE: _out_rev:maxlen <- $r6
	@DEBUG_VALUE: _ntoa_format:maxlen <- $r6
	@DEBUG_VALUE: _out_rev:width <- [DW_OP_plus_uconst 8] [$sp+0]
	@DEBUG_VALUE: _ntoa_format:width <- [DW_OP_plus_uconst 8] [$sp+0]
	@DEBUG_VALUE: _ntoa_format:buf <- [DW_OP_plus_uconst 48] [$sp+0]
	@DEBUG_VALUE: _ntoa_format:base <- [DW_OP_plus_uconst 60] [$sp+0]
	@DEBUG_VALUE: _ntoa_format:prec <- [DW_OP_plus_uconst 64] [$sp+0]
	@DEBUG_VALUE: _ntoa_format:flags <- [DW_OP_plus_uconst 72] [$sp+0]
	@DEBUG_VALUE: _out_rev:idx <- $r4
	@DEBUG_VALUE: _out_rev:len <- $r11
	.loc	2 183 13                        @ ../GUILib/src/misc/lv_printf.c:183:13
	ldrb.w	r0, [r8, r11]
	.loc	2 183 9 is_stmt 0               @ ../GUILib/src/misc/lv_printf.c:183:9
	mov	r1, r10
	mov	r2, r4
	mov	r3, r6
	.loc	2 183 17                        @ ../GUILib/src/misc/lv_printf.c:183:17
	sub.w	r5, r11, #1
.Ltmp383:
	@DEBUG_VALUE: _out_rev:len <- $r5
	.loc	2 183 36                        @ ../GUILib/src/misc/lv_printf.c:183:36
	adds	r7, r4, #1
.Ltmp384:
	@DEBUG_VALUE: _out_rev:idx <- $r7
	.loc	2 183 9                         @ ../GUILib/src/misc/lv_printf.c:183:9
	blx	r9
.Ltmp385:
	.loc	2 182 5 is_stmt 1               @ ../GUILib/src/misc/lv_printf.c:182:5
	cmp	r5, #0
	mov	r4, r7
	mov	r11, r5
.Ltmp386:
	@DEBUG_VALUE: _out_rev:len <- $r11
	@DEBUG_VALUE: _out_rev:len <- $r11
	@DEBUG_VALUE: _out_rev:len <- $r11
	bne	.LBB7_49
	b	.LBB7_51
.Ltmp387:
.LBB7_50:
	@DEBUG_VALUE: _ntoa_format:idx <- [$sp+0]
	@DEBUG_VALUE: _out_rev:len <- $r11
	@DEBUG_VALUE: _ntoa_format:len <- $r11
	@DEBUG_VALUE: _out_rev:buffer <- $r10
	@DEBUG_VALUE: _out_rev:out <- $r9
	@DEBUG_VALUE: _ntoa_format:out <- $r9
	@DEBUG_VALUE: _out_rev:start_idx <- $r8
	@DEBUG_VALUE: _out_rev:maxlen <- $r6
	@DEBUG_VALUE: _ntoa_format:maxlen <- $r6
	@DEBUG_VALUE: _out_rev:buf <- $r5
	@DEBUG_VALUE: _out_rev:idx <- $r4
	@DEBUG_VALUE: _out_rev:width <- [DW_OP_plus_uconst 8] [$sp+0]
	@DEBUG_VALUE: _ntoa_format:width <- [DW_OP_plus_uconst 8] [$sp+0]
	@DEBUG_VALUE: _ntoa_format:buf <- [DW_OP_plus_uconst 48] [$sp+0]
	@DEBUG_VALUE: _ntoa_format:base <- [DW_OP_plus_uconst 60] [$sp+0]
	@DEBUG_VALUE: _ntoa_format:prec <- [DW_OP_plus_uconst 64] [$sp+0]
	@DEBUG_VALUE: _ntoa_format:flags <- [DW_OP_plus_uconst 72] [$sp+0]
	.loc	2 0 5 is_stmt 0                 @ ../GUILib/src/misc/lv_printf.c:0:5
	mov	r7, r4
.Ltmp388:
	@DEBUG_VALUE: _out_rev:idx <- $r7
.LBB7_51:
	@DEBUG_VALUE: _ntoa_format:idx <- [$sp+0]
	@DEBUG_VALUE: _out_rev:len <- $r11
	@DEBUG_VALUE: _out_rev:buffer <- $r10
	@DEBUG_VALUE: _out_rev:out <- $r9
	@DEBUG_VALUE: _ntoa_format:out <- $r9
	@DEBUG_VALUE: _out_rev:idx <- $r7
	@DEBUG_VALUE: _out_rev:maxlen <- $r6
	@DEBUG_VALUE: _ntoa_format:maxlen <- $r6
	@DEBUG_VALUE: _out_rev:width <- [DW_OP_plus_uconst 8] [$sp+0]
	@DEBUG_VALUE: _ntoa_format:width <- [DW_OP_plus_uconst 8] [$sp+0]
	@DEBUG_VALUE: _ntoa_format:buf <- [DW_OP_plus_uconst 48] [$sp+0]
	@DEBUG_VALUE: _ntoa_format:base <- [DW_OP_plus_uconst 60] [$sp+0]
	@DEBUG_VALUE: _ntoa_format:prec <- [DW_OP_plus_uconst 64] [$sp+0]
	@DEBUG_VALUE: _ntoa_format:flags <- [DW_OP_plus_uconst 72] [$sp+0]
	@DEBUG_VALUE: _out_rev:idx <- $r7
	.loc	2 187 8 is_stmt 1               @ ../GUILib/src/misc/lv_printf.c:187:8
	ldr	r0, [sp, #4]                    @ 4-byte Reload
	cbz	r0, .LBB7_55
.Ltmp389:
@ %bb.52:
	@DEBUG_VALUE: _ntoa_format:idx <- [$sp+0]
	@DEBUG_VALUE: _out_rev:len <- $r11
	@DEBUG_VALUE: _out_rev:buffer <- $r10
	@DEBUG_VALUE: _out_rev:out <- $r9
	@DEBUG_VALUE: _ntoa_format:out <- $r9
	@DEBUG_VALUE: _out_rev:idx <- $r7
	@DEBUG_VALUE: _out_rev:maxlen <- $r6
	@DEBUG_VALUE: _ntoa_format:maxlen <- $r6
	@DEBUG_VALUE: _out_rev:width <- [DW_OP_plus_uconst 8] [$sp+0]
	@DEBUG_VALUE: _ntoa_format:width <- [DW_OP_plus_uconst 8] [$sp+0]
	@DEBUG_VALUE: _ntoa_format:buf <- [DW_OP_plus_uconst 48] [$sp+0]
	@DEBUG_VALUE: _ntoa_format:base <- [DW_OP_plus_uconst 60] [$sp+0]
	@DEBUG_VALUE: _ntoa_format:prec <- [DW_OP_plus_uconst 64] [$sp+0]
	@DEBUG_VALUE: _ntoa_format:flags <- [DW_OP_plus_uconst 72] [$sp+0]
	.loc	2 0 8 is_stmt 0                 @ ../GUILib/src/misc/lv_printf.c:0:8
	ldr	r1, [sp]                        @ 4-byte Reload
.Ltmp390:
	@DEBUG_VALUE: _ntoa_format:idx <- $r1
	ldr.w	r8, [sp, #8]                    @ 4-byte Reload
	subs	r0, r7, r1
	.loc	2 187 8                         @ ../GUILib/src/misc/lv_printf.c:187:8
	cmp	r0, r8
	bhs	.LBB7_55
.Ltmp391:
@ %bb.53:
	@DEBUG_VALUE: _out_rev:len <- $r11
	@DEBUG_VALUE: _out_rev:buffer <- $r10
	@DEBUG_VALUE: _out_rev:out <- $r9
	@DEBUG_VALUE: _ntoa_format:out <- $r9
	@DEBUG_VALUE: _out_rev:idx <- $r7
	@DEBUG_VALUE: _out_rev:maxlen <- $r6
	@DEBUG_VALUE: _ntoa_format:maxlen <- $r6
	@DEBUG_VALUE: _ntoa_format:idx <- $r1
	@DEBUG_VALUE: _out_rev:width <- [DW_OP_plus_uconst 8] [$sp+0]
	@DEBUG_VALUE: _ntoa_format:width <- [DW_OP_plus_uconst 8] [$sp+0]
	@DEBUG_VALUE: _ntoa_format:buf <- [DW_OP_plus_uconst 48] [$sp+0]
	@DEBUG_VALUE: _ntoa_format:base <- [DW_OP_plus_uconst 60] [$sp+0]
	@DEBUG_VALUE: _ntoa_format:prec <- [DW_OP_plus_uconst 64] [$sp+0]
	@DEBUG_VALUE: _ntoa_format:flags <- [DW_OP_plus_uconst 72] [$sp+0]
	.loc	2 188 9 is_stmt 1               @ ../GUILib/src/misc/lv_printf.c:188:9
	rsbs	r5, r1, #0
.Ltmp392:
	.p2align	2
.LBB7_54:                               @ =>This Inner Loop Header: Depth=1
	@DEBUG_VALUE: _out_rev:len <- $r11
	@DEBUG_VALUE: _out_rev:buffer <- $r10
	@DEBUG_VALUE: _out_rev:out <- $r9
	@DEBUG_VALUE: _ntoa_format:out <- $r9
	@DEBUG_VALUE: _out_rev:maxlen <- $r6
	@DEBUG_VALUE: _ntoa_format:maxlen <- $r6
	@DEBUG_VALUE: _out_rev:width <- [DW_OP_plus_uconst 8] [$sp+0]
	@DEBUG_VALUE: _ntoa_format:width <- [DW_OP_plus_uconst 8] [$sp+0]
	@DEBUG_VALUE: _ntoa_format:buf <- [DW_OP_plus_uconst 48] [$sp+0]
	@DEBUG_VALUE: _ntoa_format:base <- [DW_OP_plus_uconst 60] [$sp+0]
	@DEBUG_VALUE: _ntoa_format:prec <- [DW_OP_plus_uconst 64] [$sp+0]
	@DEBUG_VALUE: _ntoa_format:flags <- [DW_OP_plus_uconst 72] [$sp+0]
	@DEBUG_VALUE: _out_rev:idx <- $r7
	.loc	2 189 13                        @ ../GUILib/src/misc/lv_printf.c:189:13
	movs	r0, #32
	mov	r1, r10
.Ltmp393:
	@DEBUG_VALUE: _ntoa_format:idx <- [DW_OP_LLVM_entry_value 1] $r2
	mov	r2, r7
	mov	r3, r6
	.loc	2 189 33 is_stmt 0              @ ../GUILib/src/misc/lv_printf.c:189:33
	adds	r4, r7, #1
.Ltmp394:
	@DEBUG_VALUE: _out_rev:idx <- $r4
	.loc	2 189 13                        @ ../GUILib/src/misc/lv_printf.c:189:13
	blx	r9
.Ltmp395:
	.loc	2 188 31 is_stmt 1              @ ../GUILib/src/misc/lv_printf.c:188:31
	adds	r0, r5, r4
	.loc	2 188 9 is_stmt 0               @ ../GUILib/src/misc/lv_printf.c:188:9
	cmp	r0, r8
	mov	r7, r4
	blo	.LBB7_54
	b	.LBB7_56
.Ltmp396:
.LBB7_55:
	@DEBUG_VALUE: _out_rev:len <- $r11
	@DEBUG_VALUE: _out_rev:buffer <- $r10
	@DEBUG_VALUE: _out_rev:out <- $r9
	@DEBUG_VALUE: _ntoa_format:out <- $r9
	@DEBUG_VALUE: _out_rev:idx <- $r7
	@DEBUG_VALUE: _out_rev:maxlen <- $r6
	@DEBUG_VALUE: _ntoa_format:maxlen <- $r6
	@DEBUG_VALUE: _out_rev:width <- [DW_OP_plus_uconst 8] [$sp+0]
	@DEBUG_VALUE: _ntoa_format:width <- [DW_OP_plus_uconst 8] [$sp+0]
	@DEBUG_VALUE: _ntoa_format:buf <- [DW_OP_plus_uconst 48] [$sp+0]
	@DEBUG_VALUE: _ntoa_format:base <- [DW_OP_plus_uconst 60] [$sp+0]
	@DEBUG_VALUE: _ntoa_format:prec <- [DW_OP_plus_uconst 64] [$sp+0]
	@DEBUG_VALUE: _ntoa_format:flags <- [DW_OP_plus_uconst 72] [$sp+0]
	.loc	2 0 9                           @ ../GUILib/src/misc/lv_printf.c:0:9
	mov	r4, r7
	@DEBUG_VALUE: _out_rev:idx <- $r4
.Ltmp397:
.LBB7_56:
	@DEBUG_VALUE: _ntoa_format:out <- $r9
	@DEBUG_VALUE: _ntoa_format:maxlen <- $r6
	@DEBUG_VALUE: _ntoa_format:width <- [DW_OP_plus_uconst 8] [$sp+0]
	@DEBUG_VALUE: _ntoa_format:buf <- [DW_OP_plus_uconst 48] [$sp+0]
	@DEBUG_VALUE: _ntoa_format:base <- [DW_OP_plus_uconst 60] [$sp+0]
	@DEBUG_VALUE: _ntoa_format:prec <- [DW_OP_plus_uconst 64] [$sp+0]
	@DEBUG_VALUE: _ntoa_format:flags <- [DW_OP_plus_uconst 72] [$sp+0]
	.loc	2 247 5 is_stmt 1               @ ../GUILib/src/misc/lv_printf.c:247:5
	mov	r0, r4
	add	sp, #12
	pop.w	{r4, r5, r6, r7, r8, r9, r10, r11, pc}
.Ltmp398:
.Lfunc_end7:
	.size	_ntoa_format, .Lfunc_end7-_ntoa_format
	.cfi_endproc
	.cantunwind
	.fnend
                                        @ -- End function
	.file	3 "C:\\Users\\Hyacincher\\Desktop\\HyTelectrl\\Code\\Project" "../GUILib/src/misc\\lv_printf.c"
	.file	4 "D:\\Keil MDK\\ARM\\ARMCLANG\\Bin\\..\\include" "stdarg.h"
	.file	5 "C:\\Users\\Hyacincher\\Desktop\\HyTelectrl\\Code\\Project" "../GUILib/src/misc/lv_printf.h"
	.section	".note.GNU-stack","",%progbits
	.eabi_attribute	30, 3	@ Tag_ABI_optimization_goals
	.ARM_attribute	16, 1	@ Tag_AV_eba