	.text
	.syntax unified
	.eabi_attribute	67, "2.09"	@ Tag_conformance
	.cpu	cortex-m4
	.eabi_attribute	6, 13	@ Tag_CPU_arch
	.eabi_attribute	7, 77	@ Tag_CPU_arch_profile
	.eabi_attribute	8, 0	@ Tag_ARM_ISA_use
	.eabi_attribute	9, 2	@ Tag_THUMB_ISA_use
	.fpu	fpv4-sp-d16
	.eabi_attribute	27, 1	@ Tag_ABI_HardFP_use
	.eabi_attribute	36, 1	@ Tag_FP_HP_extension
	.eabi_attribute	34, 1	@ Tag_CPU_unaligned_access
	.eabi_attribute	17, 1	@ Tag_ABI_PCS_GOT_use
	.eabi_attribute	20, 2	@ Tag_ABI_FP_denormal
	.eabi_attribute	21, 0	@ Tag_ABI_FP_exceptions
	.eabi_attribute	23, 1	@ Tag_ABI_FP_number_model
	.eabi_attribute	24, 1	@ Tag_ABI_align_needed
	.eabi_attribute	25, 1	@ Tag_ABI_align_preserved
	.eabi_attribute	28, 1	@ Tag_ABI_VFP_args
	.eabi_attribute	38, 1	@ Tag_ABI_FP_16bit_format
	.eabi_attribute	18, 2	@ Tag_ABI_PCS_wchar_t
	.eabi_attribute	26, 1	@ Tag_ABI_enum_size
	.eabi_attribute	14, 0	@ Tag_ABI_PCS_R9_use
	.file	"lv_refr.c"
	.file	1 "C:\\Users\\Hyacincher\\Desktop\\HyTelectrl\\Code\\Project" "../GUILib/src/core/lv_obj_class.h"
	.file	2 "C:\\Users\\Hyacincher\\Desktop\\HyTelectrl\\Code\\Project" "../GUILib/src/core/lv_event.h"
	.file	3 "D:\\Keil MDK\\ARM\\ARMCLANG\\Bin\\..\\include" "stdint.h"
	.file	4 "C:\\Users\\Hyacincher\\Desktop\\HyTelectrl\\Code\\Project" "../GUILib/src/hal/../misc/lv_area.h"
	.file	5 "C:\\Users\\Hyacincher\\Desktop\\HyTelectrl\\Code\\Project" "../GUILib/src/core/../widgets/../core/lv_obj.h"
	.file	6 "C:\\Users\\Hyacincher\\Desktop\\HyTelectrl\\Code\\Project" "../GUILib/src/core/../misc/lv_ll.h"
	.file	7 "C:\\Users\\Hyacincher\\Desktop\\HyTelectrl\\Code\\Project" "../GUILib/src/core/lv_group.h"
	.file	8 "C:\\Users\\Hyacincher\\Desktop\\HyTelectrl\\Code\\Project" "../GUILib/src/core/lv_obj_scroll.h"
	.file	9 "C:\\Users\\Hyacincher\\Desktop\\HyTelectrl\\Code\\Project" "../GUILib/src/hal/../draw/../misc/lv_style.h"
	.file	10 "C:\\Users\\Hyacincher\\Desktop\\HyTelectrl\\Code\\Project" "../GUILib/src/hal/../misc/lv_color.h"
	.file	11 "C:\\Users\\Hyacincher\\Desktop\\HyTelectrl\\Code\\Project" "../GUILib/src/core/lv_obj_style.h"
	.file	12 "C:\\Users\\Hyacincher\\Desktop\\HyTelectrl\\Code\\Project" "../GUILib/src/core/lv_refr.c"
	.file	13 "C:\\Users\\Hyacincher\\Desktop\\HyTelectrl\\Code\\Project" "../GUILib/src/core/../hal/lv_hal_disp.h"
	.file	14 "C:\\Users\\Hyacincher\\Desktop\\HyTelectrl\\Code\\Project" "../GUILib/src/core/../misc/lv_timer.h"
	.file	15 "C:\\Users\\Hyacincher\\Desktop\\HyTelectrl\\Code\\Project" "../GUILib/src/core/lv_theme.h"
	.file	16 "C:\\Users\\Hyacincher\\Desktop\\HyTelectrl\\Code\\Project" "../GUILib/src/core/../widgets/../font/lv_font.h"
	.file	17 "C:\\Users\\Hyacincher\\Desktop\\HyTelectrl\\Code\\Project" "../GUILib/src/core/../widgets/../misc/lv_txt.h"
	.file	18 "C:\\Users\\Hyacincher\\Desktop\\HyTelectrl\\Code\\Project" "../GUILib/src/hal/../draw/../misc/lv_types.h"
	.file	19 "C:\\Users\\Hyacincher\\Desktop\\HyTelectrl\\Code\\Project" "../GUILib/src/core/lv_obj_draw.h"
	.section	.text._lv_refr_init,"ax",%progbits
	.hidden	_lv_refr_init                   @ -- Begin function _lv_refr_init
	.globl	_lv_refr_init
	.p2align	1
	.type	_lv_refr_init,%function
	.code	16                              @ @_lv_refr_init
	.thumb_func
_lv_refr_init:
.Lfunc_begin0:
	.loc	12 73 0                         @ ../GUILib/src/core/lv_refr.c:73:0
	.fnstart
	.cfi_sections .debug_frame
	.cfi_startproc
@ %bb.0:
	.loc	12 75 1 prologue_end            @ ../GUILib/src/core/lv_refr.c:75:1
	bx	lr
.Ltmp0:
.Lfunc_end0:
	.size	_lv_refr_init, .Lfunc_end0-_lv_refr_init
	.cfi_endproc
	.cantunwind
	.fnend
                                        @ -- End function
	.section	.text.lv_refr_now,"ax",%progbits
	.hidden	lv_refr_now                     @ -- Begin function lv_refr_now
	.globl	lv_refr_now
	.p2align	1
	.type	lv_refr_now,%function
	.code	16                              @ @lv_refr_now
	.thumb_func
lv_refr_now:
.Lfunc_begin1:
	.loc	12 85 0                         @ ../GUILib/src/core/lv_refr.c:85:0
	.fnstart
	.cfi_startproc
@ %bb.0:
	@DEBUG_VALUE: lv_refr_now:disp <- $r0
	.save	{r4, lr}
	push	{r4, lr}
	.cfi_def_cfa_offset 8
	.cfi_offset lr, -4
	.cfi_offset r4, -8
	mov	r4, r0
.Ltmp1:
	@DEBUG_VALUE: lv_refr_now:disp <- $r4
	@DEBUG_VALUE: lv_refr_now:disp <- $r4
	.loc	12 86 5 prologue_end            @ ../GUILib/src/core/lv_refr.c:86:5
	bl	lv_anim_refr_now
.Ltmp2:
	.loc	12 88 8                         @ ../GUILib/src/core/lv_refr.c:88:8
	cbz	r4, .LBB1_2
.Ltmp3:
@ %bb.1:
	@DEBUG_VALUE: lv_refr_now:disp <- $r4
	.loc	12 89 35                        @ ../GUILib/src/core/lv_refr.c:89:35
	ldr	r0, [r4, #4]
	.loc	12 89 9 is_stmt 0               @ ../GUILib/src/core/lv_refr.c:89:9
	pop.w	{r4, lr}
.Ltmp4:
	@DEBUG_VALUE: lv_refr_now:disp <- [DW_OP_LLVM_entry_value 1] $r0
	b	_lv_disp_refr_timer
.Ltmp5:
.LBB1_2:
	@DEBUG_VALUE: lv_refr_now:disp <- $r4
	.loc	12 93 13 is_stmt 1              @ ../GUILib/src/core/lv_refr.c:93:13
	movs	r0, #0
	bl	lv_disp_get_next
.Ltmp6:
	@DEBUG_VALUE: d <- $r0
	.loc	12 94 9                         @ ../GUILib/src/core/lv_refr.c:94:9
	cbz	r0, .LBB1_5
.Ltmp7:
@ %bb.3:
	@DEBUG_VALUE: lv_refr_now:disp <- $r4
	@DEBUG_VALUE: d <- $r0
	.loc	12 0 9 is_stmt 0                @ ../GUILib/src/core/lv_refr.c:0:9
	mov	r4, r0
.Ltmp8:
	@DEBUG_VALUE: d <- $r4
	@DEBUG_VALUE: lv_refr_now:disp <- [DW_OP_LLVM_entry_value 1] $r0
	@DEBUG_VALUE: d <- $r4
	.p2align	2
.LBB1_4:                                @ =>This Inner Loop Header: Depth=1
	@DEBUG_VALUE: d <- $r4
	@DEBUG_VALUE: lv_refr_now:disp <- [DW_OP_LLVM_entry_value 1] $r0
	@DEBUG_VALUE: d <- $r4
	.loc	12 95 36 is_stmt 1              @ ../GUILib/src/core/lv_refr.c:95:36
	ldr	r0, [r4, #4]
	.loc	12 95 13 is_stmt 0              @ ../GUILib/src/core/lv_refr.c:95:13
	bl	_lv_disp_refr_timer
.Ltmp9:
	.loc	12 96 17 is_stmt 1              @ ../GUILib/src/core/lv_refr.c:96:17
	mov	r0, r4
	bl	lv_disp_get_next
.Ltmp10:
	mov	r4, r0
.Ltmp11:
	@DEBUG_VALUE: d <- $r4
	.loc	12 94 9                         @ ../GUILib/src/core/lv_refr.c:94:9
	cmp	r0, #0
	bne	.LBB1_4
.Ltmp12:
.LBB1_5:
	.loc	12 99 1                         @ ../GUILib/src/core/lv_refr.c:99:1
	pop	{r4, pc}
.Ltmp13:
.Lfunc_end1:
	.size	lv_refr_now, .Lfunc_end1-lv_refr_now
	.cfi_endproc
	.cantunwind
	.fnend
                                        @ -- End function
	.section	.text._lv_disp_refr_timer,"ax",%progbits
	.hidden	_lv_disp_refr_timer             @ -- Begin function _lv_disp_refr_timer
	.globl	_lv_disp_refr_timer
	.p2align	2
	.type	_lv_disp_refr_timer,%function
	.code	16                              @ @_lv_disp_refr_timer
	.thumb_func
_lv_disp_refr_timer:
.Lfunc_begin2:
	.loc	12 183 0                        @ ../GUILib/src/core/lv_refr.c:183:0
	.fnstart
	.cfi_startproc
@ %bb.0:
	@DEBUG_VALUE: _lv_disp_refr_timer:tmr <- $r0
	.save	{r4, r5, r6, r7, r8, r9, r10, r11, lr}
	push.w	{r4, r5, r6, r7, r8, r9, r10, r11, lr}
	.cfi_def_cfa_offset 36
	.cfi_offset lr, -4
	.cfi_offset r11, -8
	.cfi_offset r10, -12
	.cfi_offset r9, -16
	.cfi_offset r8, -20
	.cfi_offset r7, -24
	.cfi_offset r6, -28
	.cfi_offset r5, -32
	.cfi_offset r4, -36
	.pad	#68
	sub	sp, #68
	.cfi_def_cfa_offset 104
	mov	r5, r0
.Ltmp14:
	@DEBUG_VALUE: _lv_disp_refr_timer:tmr <- $r5
	@DEBUG_VALUE: _lv_disp_refr_timer:tmr <- $r5
	.loc	12 186 22 prologue_end          @ ../GUILib/src/core/lv_refr.c:186:22
	bl	lv_tick_get
.Ltmp15:
	mov	r4, r0
.Ltmp16:
	@DEBUG_VALUE: _lv_disp_refr_timer:start <- $r4
	.loc	12 0 22 is_stmt 0               @ ../GUILib/src/core/lv_refr.c:0:22
	movs	r0, #0
	.loc	12 187 23 is_stmt 1             @ ../GUILib/src/core/lv_refr.c:187:23
	str	r0, [sp, #64]
	.loc	12 189 22                       @ ../GUILib/src/core/lv_refr.c:189:22
	ldr	r1, [r5, #12]
	.loc	12 189 15 is_stmt 0             @ ../GUILib/src/core/lv_refr.c:189:15
	movw	r9, :lower16:disp_refr
	.loc	12 200 37 is_stmt 1             @ ../GUILib/src/core/lv_refr.c:200:37
	ldr	r0, [r1, #16]
	.loc	12 189 15                       @ ../GUILib/src/core/lv_refr.c:189:15
	movt	r9, :upper16:disp_refr
	str.w	r1, [r9]
	.loc	12 200 5                        @ ../GUILib/src/core/lv_refr.c:200:5
	bl	lv_obj_update_layout
.Ltmp17:
	.loc	12 201 8                        @ ../GUILib/src/core/lv_refr.c:201:8
	ldr.w	r1, [r9]
	.loc	12 201 19 is_stmt 0             @ ../GUILib/src/core/lv_refr.c:201:19
	ldr	r0, [r1, #20]
.Ltmp18:
	.loc	12 201 8                        @ ../GUILib/src/core/lv_refr.c:201:8
	cbz	r0, .LBB2_2
.Ltmp19:
@ %bb.1:
	@DEBUG_VALUE: _lv_disp_refr_timer:tmr <- $r5
	@DEBUG_VALUE: _lv_disp_refr_timer:start <- $r4
	.loc	12 201 29                       @ ../GUILib/src/core/lv_refr.c:201:29
	bl	lv_obj_update_layout
.Ltmp20:
	.loc	12 203 26 is_stmt 1             @ ../GUILib/src/core/lv_refr.c:203:26
	ldr.w	r1, [r9]
.Ltmp21:
.LBB2_2:
	@DEBUG_VALUE: _lv_disp_refr_timer:tmr <- $r5
	@DEBUG_VALUE: _lv_disp_refr_timer:start <- $r4
	.loc	12 203 37 is_stmt 0             @ ../GUILib/src/core/lv_refr.c:203:37
	ldr	r0, [r1, #28]
	.loc	12 203 5                        @ ../GUILib/src/core/lv_refr.c:203:5
	bl	lv_obj_update_layout
.Ltmp22:
	.loc	12 204 26 is_stmt 1             @ ../GUILib/src/core/lv_refr.c:204:26
	ldr.w	r0, [r9]
	.loc	12 204 37 is_stmt 0             @ ../GUILib/src/core/lv_refr.c:204:37
	ldr	r0, [r0, #32]
	.loc	12 204 5                        @ ../GUILib/src/core/lv_refr.c:204:5
	bl	lv_obj_update_layout
.Ltmp23:
	.loc	12 207 8 is_stmt 1              @ ../GUILib/src/core/lv_refr.c:207:8
	ldr.w	r0, [r9]
	.loc	12 207 19 is_stmt 0             @ ../GUILib/src/core/lv_refr.c:207:19
	ldr	r1, [r0, #16]
.Ltmp24:
	.loc	12 207 8                        @ ../GUILib/src/core/lv_refr.c:207:8
	cmp	r1, #0
	beq	.LBB2_18
.Ltmp25:
@ %bb.3:
	@DEBUG_VALUE: _lv_disp_refr_timer:tmr <- $r5
	@DEBUG_VALUE: _lv_disp_refr_timer:start <- $r4
	@DEBUG_VALUE: lv_refr_join_area:join_in <- 0
	.loc	12 338 43 is_stmt 1             @ ../GUILib/src/core/lv_refr.c:338:43
	ldrh.w	r1, [r0, #340]
	movw	r10, :lower16:px_num
.Ltmp26:
	.loc	12 338 5 is_stmt 0              @ ../GUILib/src/core/lv_refr.c:338:5
	cmp	r1, #0
	movt	r10, :upper16:px_num
	beq	.LBB2_19
.Ltmp27:
@ %bb.4:
	@DEBUG_VALUE: _lv_disp_refr_timer:tmr <- $r5
	@DEBUG_VALUE: _lv_disp_refr_timer:start <- $r4
	@DEBUG_VALUE: lv_refr_join_area:join_in <- 0
	.loc	12 0 5                          @ ../GUILib/src/core/lv_refr.c:0:5
	str	r4, [sp, #12]                   @ 4-byte Spill
.Ltmp28:
	@DEBUG_VALUE: _lv_disp_refr_timer:start <- [DW_OP_plus_uconst 12] [$sp+0]
	movs	r4, #0
	mov.w	r8, #1
	add.w	r10, sp, #36
	movs	r2, #1
.Ltmp29:
	.p2align	2
.LBB2_5:                                @ =>This Loop Header: Depth=1
                                        @     Child Loop BB2_8 Depth 2
	@DEBUG_VALUE: _lv_disp_refr_timer:start <- [DW_OP_plus_uconst 12] [$sp+0]
	@DEBUG_VALUE: lv_refr_join_area:join_in <- $r4
	@DEBUG_VALUE: lv_refr_join_area:join_from <- 0
	.loc	12 339 12 is_stmt 1             @ ../GUILib/src/core/lv_refr.c:339:12
	cmp	r2, #0
	beq	.LBB2_14
.Ltmp30:
@ %bb.6:                                @   in Loop: Header=BB2_5 Depth=1
	@DEBUG_VALUE: _lv_disp_refr_timer:start <- [DW_OP_plus_uconst 12] [$sp+0]
	@DEBUG_VALUE: lv_refr_join_area:join_in <- $r4
	@DEBUG_VALUE: lv_refr_join_area:join_from <- 0
	.loc	12 0 0 is_stmt 0                @ ../GUILib/src/core/lv_refr.c:0:0
	adds	r2, r0, r4
	ldrb.w	r2, [r2, #308]
	.loc	12 339 12                       @ ../GUILib/src/core/lv_refr.c:339:12
	cmp	r2, #0
	bne	.LBB2_14
.Ltmp31:
@ %bb.7:                                @   in Loop: Header=BB2_5 Depth=1
	@DEBUG_VALUE: _lv_disp_refr_timer:start <- [DW_OP_plus_uconst 12] [$sp+0]
	@DEBUG_VALUE: lv_refr_join_area:join_in <- $r4
	@DEBUG_VALUE: lv_refr_join_area:join_from <- 0
	.loc	12 0 12                         @ ../GUILib/src/core/lv_refr.c:0:12
	movs	r5, #0
.Ltmp32:
	@DEBUG_VALUE: _lv_disp_refr_timer:tmr <- [DW_OP_LLVM_entry_value 1] $r0
	.p2align	2
.LBB2_8:                                @   Parent Loop BB2_5 Depth=1
                                        @ =>  This Inner Loop Header: Depth=2
	@DEBUG_VALUE: _lv_disp_refr_timer:start <- [DW_OP_plus_uconst 12] [$sp+0]
	@DEBUG_VALUE: lv_refr_join_area:join_in <- $r4
	@DEBUG_VALUE: lv_refr_join_area:join_from <- $r5
	.loc	12 344 59 is_stmt 1             @ ../GUILib/src/core/lv_refr.c:344:59
	cmp	r5, r4
	beq	.LBB2_13
.Ltmp33:
@ %bb.9:                                @   in Loop: Header=BB2_8 Depth=2
	@DEBUG_VALUE: _lv_disp_refr_timer:start <- [DW_OP_plus_uconst 12] [$sp+0]
	@DEBUG_VALUE: lv_refr_join_area:join_from <- $r5
	@DEBUG_VALUE: lv_refr_join_area:join_in <- $r4
	.loc	12 0 0 is_stmt 0                @ ../GUILib/src/core/lv_refr.c:0:0
	adds	r1, r0, r5
	ldrb.w	r1, [r1, #308]
	.loc	12 344 59                       @ ../GUILib/src/core/lv_refr.c:344:59
	cbnz	r1, .LBB2_13
.Ltmp34:
@ %bb.10:                               @   in Loop: Header=BB2_8 Depth=2
	@DEBUG_VALUE: _lv_disp_refr_timer:start <- [DW_OP_plus_uconst 12] [$sp+0]
	@DEBUG_VALUE: lv_refr_join_area:join_from <- $r5
	@DEBUG_VALUE: lv_refr_join_area:join_in <- $r4
	.loc	12 349 32 is_stmt 1             @ ../GUILib/src/core/lv_refr.c:349:32
	add.w	r1, r0, #52
	add.w	r0, r1, r4, lsl #3
	.loc	12 349 64 is_stmt 0             @ ../GUILib/src/core/lv_refr.c:349:64
	add.w	r1, r1, r5, lsl #3
	.loc	12 349 16                       @ ../GUILib/src/core/lv_refr.c:349:16
	bl	_lv_area_is_on
.Ltmp35:
	.loc	12 349 16                       @ ../GUILib/src/core/lv_refr.c:349:16
	cbz	r0, .LBB2_13
.Ltmp36:
@ %bb.11:                               @   in Loop: Header=BB2_8 Depth=2
	@DEBUG_VALUE: _lv_disp_refr_timer:start <- [DW_OP_plus_uconst 12] [$sp+0]
	@DEBUG_VALUE: lv_refr_join_area:join_from <- $r5
	@DEBUG_VALUE: lv_refr_join_area:join_in <- $r4
	.loc	12 353 42 is_stmt 1             @ ../GUILib/src/core/lv_refr.c:353:42
	ldr.w	r0, [r9]
	adds	r0, #52
	add.w	r1, r0, r4, lsl #3
	.loc	12 353 74 is_stmt 0             @ ../GUILib/src/core/lv_refr.c:353:74
	add.w	r2, r0, r5, lsl #3
	.loc	12 353 13                       @ ../GUILib/src/core/lv_refr.c:353:13
	mov	r0, r10
	bl	_lv_area_join
.Ltmp37:
	.loc	12 356 16 is_stmt 1             @ ../GUILib/src/core/lv_refr.c:356:16
	mov	r0, r10
	bl	lv_area_get_size
.Ltmp38:
	.loc	12 356 68 is_stmt 0             @ ../GUILib/src/core/lv_refr.c:356:68
	ldr.w	r1, [r9]
	.loc	12 356 16                       @ ../GUILib/src/core/lv_refr.c:356:16
	mov	r6, r0
	.loc	12 356 68                       @ ../GUILib/src/core/lv_refr.c:356:68
	add.w	r0, r1, r4, lsl #3
	adds	r0, #52
	.loc	12 356 50                       @ ../GUILib/src/core/lv_refr.c:356:50
	bl	lv_area_get_size
.Ltmp39:
	.loc	12 357 68 is_stmt 1             @ ../GUILib/src/core/lv_refr.c:357:68
	ldr.w	r1, [r9]
	.loc	12 356 50                       @ ../GUILib/src/core/lv_refr.c:356:50
	mov	r7, r0
	.loc	12 357 68                       @ ../GUILib/src/core/lv_refr.c:357:68
	add.w	r0, r1, r5, lsl #3
	adds	r0, #52
	.loc	12 357 50 is_stmt 0             @ ../GUILib/src/core/lv_refr.c:357:50
	bl	lv_area_get_size
.Ltmp40:
	.loc	12 356 99 is_stmt 1             @ ../GUILib/src/core/lv_refr.c:356:99
	add	r0, r7
.Ltmp41:
	.loc	12 356 16 is_stmt 0             @ ../GUILib/src/core/lv_refr.c:356:16
	cmp	r6, r0
	bhs	.LBB2_13
.Ltmp42:
@ %bb.12:                               @   in Loop: Header=BB2_8 Depth=2
	@DEBUG_VALUE: _lv_disp_refr_timer:start <- [DW_OP_plus_uconst 12] [$sp+0]
	@DEBUG_VALUE: lv_refr_join_area:join_from <- $r5
	@DEBUG_VALUE: lv_refr_join_area:join_in <- $r4
	.loc	12 358 31 is_stmt 1             @ ../GUILib/src/core/lv_refr.c:358:31
	ldr.w	r0, [r9]
.Ltmp43:
	.loc	4 112 21                        @ ../GUILib/src/hal/../misc/lv_area.h:112:21
	ldrd	r2, r3, [sp, #36]
	.loc	4 112 11 is_stmt 0              @ ../GUILib/src/hal/../misc/lv_area.h:112:11
	add.w	r1, r0, r4, lsl #3
.Ltmp44:
	@DEBUG_VALUE: lv_area_copy:src <- [DW_OP_plus_uconst 36, DW_OP_stack_value] $sp
	@DEBUG_VALUE: lv_area_copy:dest <- undef
	.loc	12 361 17 is_stmt 1             @ ../GUILib/src/core/lv_refr.c:361:17
	add	r0, r5
.Ltmp45:
	.loc	4 112 14                        @ ../GUILib/src/hal/../misc/lv_area.h:112:14
	str	r2, [r1, #52]
	.loc	4 114 14                        @ ../GUILib/src/hal/../misc/lv_area.h:114:14
	str	r3, [r1, #56]
.Ltmp46:
	.loc	12 361 55                       @ ../GUILib/src/core/lv_refr.c:361:55
	strb.w	r8, [r0, #308]
.Ltmp47:
	.p2align	2
.LBB2_13:                               @   in Loop: Header=BB2_8 Depth=2
	@DEBUG_VALUE: _lv_disp_refr_timer:start <- [DW_OP_plus_uconst 12] [$sp+0]
	@DEBUG_VALUE: lv_refr_join_area:join_from <- $r5
	@DEBUG_VALUE: lv_refr_join_area:join_in <- $r4
	.loc	12 342 40                       @ ../GUILib/src/core/lv_refr.c:342:40
	ldr.w	r0, [r9]
	.loc	12 342 67 is_stmt 0             @ ../GUILib/src/core/lv_refr.c:342:67
	adds	r5, #1
.Ltmp48:
	@DEBUG_VALUE: lv_refr_join_area:join_from <- $r5
	.loc	12 342 51                       @ ../GUILib/src/core/lv_refr.c:342:51
	ldrh.w	r1, [r0, #340]
.Ltmp49:
	.loc	12 342 9                        @ ../GUILib/src/core/lv_refr.c:342:9
	cmp	r5, r1
	blo	.LBB2_8
.Ltmp50:
.LBB2_14:                               @   in Loop: Header=BB2_5 Depth=1
	@DEBUG_VALUE: _lv_disp_refr_timer:start <- [DW_OP_plus_uconst 12] [$sp+0]
	@DEBUG_VALUE: lv_refr_join_area:join_in <- $r4
	.loc	12 338 57 is_stmt 1             @ ../GUILib/src/core/lv_refr.c:338:57
	adds	r4, #1
.Ltmp51:
	@DEBUG_VALUE: lv_refr_join_area:join_in <- $r4
	.loc	12 338 5 is_stmt 0              @ ../GUILib/src/core/lv_refr.c:338:5
	cmp	r4, r1
	mov	r2, r1
	blo	.LBB2_5
.Ltmp52:
@ %bb.15:
	@DEBUG_VALUE: _lv_disp_refr_timer:start <- [DW_OP_plus_uconst 12] [$sp+0]
	.loc	12 0 5                          @ ../GUILib/src/core/lv_refr.c:0:5
	movw	r10, :lower16:px_num
	movs	r2, #0
.Ltmp53:
	.loc	12 374 8 is_stmt 1              @ ../GUILib/src/core/lv_refr.c:374:8
	cmp	r1, #0
	movt	r10, :upper16:px_num
	.loc	12 372 12                       @ ../GUILib/src/core/lv_refr.c:372:12
	str.w	r2, [r10]
	.loc	12 374 8                        @ ../GUILib/src/core/lv_refr.c:374:8
	beq.w	.LBB2_58
.Ltmp54:
	.p2align	2
.LBB2_16:                               @ =>This Inner Loop Header: Depth=1
	@DEBUG_VALUE: _lv_disp_refr_timer:start <- [DW_OP_plus_uconst 12] [$sp+0]
	@DEBUG_VALUE: lv_refr_areas:i <- undef
	.loc	12 379 5                        @ ../GUILib/src/core/lv_refr.c:379:5
	cmp	r1, #1
	blt	.LBB2_20
.Ltmp55:
@ %bb.17:                               @   in Loop: Header=BB2_16 Depth=1
	@DEBUG_VALUE: _lv_disp_refr_timer:start <- [DW_OP_plus_uconst 12] [$sp+0]
	.loc	12 380 12                       @ ../GUILib/src/core/lv_refr.c:380:12
	adds	r2, r0, r1
	ldrb.w	r2, [r2, #307]
.Ltmp56:
	.loc	12 0 0 is_stmt 0                @ ../GUILib/src/core/lv_refr.c:0:0
	subs	r5, r1, #1
.Ltmp57:
	@DEBUG_VALUE: lv_refr_areas:i <- $r5
	.loc	12 380 12                       @ ../GUILib/src/core/lv_refr.c:380:12
	cmp	r2, #0
	mov	r1, r5
	bne	.LBB2_16
	b	.LBB2_21
.Ltmp58:
.LBB2_18:
	@DEBUG_VALUE: _lv_disp_refr_timer:tmr <- $r5
	@DEBUG_VALUE: _lv_disp_refr_timer:start <- $r4
	.loc	12 0 12                         @ ../GUILib/src/core/lv_refr.c:0:12
	movs	r1, #0
.Ltmp59:
	.loc	12 208 26 is_stmt 1             @ ../GUILib/src/core/lv_refr.c:208:26
	strh.w	r1, [r0, #340]
	b	.LBB2_71
.Ltmp60:
.LBB2_19:
	@DEBUG_VALUE: _lv_disp_refr_timer:tmr <- $r5
	@DEBUG_VALUE: _lv_disp_refr_timer:start <- $r4
	.loc	12 0 26 is_stmt 0               @ ../GUILib/src/core/lv_refr.c:0:26
	movs	r0, #0
.Ltmp61:
	.loc	12 372 12 is_stmt 1             @ ../GUILib/src/core/lv_refr.c:372:12
	str.w	r0, [r10]
	b	.LBB2_58
.Ltmp62:
.LBB2_20:
	@DEBUG_VALUE: _lv_disp_refr_timer:start <- [DW_OP_plus_uconst 12] [$sp+0]
	.loc	12 0 12 is_stmt 0               @ ../GUILib/src/core/lv_refr.c:0:12
	movs	r5, #0
.Ltmp63:
.LBB2_21:
	@DEBUG_VALUE: _lv_disp_refr_timer:start <- [DW_OP_plus_uconst 12] [$sp+0]
	@DEBUG_VALUE: lv_refr_areas:last_i <- $r5
	.loc	12 386 16 is_stmt 1             @ ../GUILib/src/core/lv_refr.c:386:16
	ldr	r1, [r0]
	.loc	12 386 24 is_stmt 0             @ ../GUILib/src/core/lv_refr.c:386:24
	ldr	r1, [r1, #12]
	.loc	12 386 44                       @ ../GUILib/src/core/lv_refr.c:386:44
	ldr	r2, [r1, #32]
	bic	r2, r2, #1
	str	r2, [r1, #32]
	.loc	12 387 16 is_stmt 1             @ ../GUILib/src/core/lv_refr.c:387:16
	ldr	r1, [r0]
	.loc	12 387 24 is_stmt 0             @ ../GUILib/src/core/lv_refr.c:387:24
	ldr	r1, [r1, #12]
	.loc	12 387 44                       @ ../GUILib/src/core/lv_refr.c:387:44
	ldr	r2, [r1, #32]
	bic	r2, r2, #2
	str	r2, [r1, #32]
.Ltmp64:
	@DEBUG_VALUE: lv_refr_areas:i <- 0
	.loc	12 389 31 is_stmt 1             @ ../GUILib/src/core/lv_refr.c:389:31
	ldrh.w	r1, [r0, #340]
.Ltmp65:
	.loc	12 389 5 is_stmt 0              @ ../GUILib/src/core/lv_refr.c:389:5
	cmp	r1, #0
	beq.w	.LBB2_58
.Ltmp66:
@ %bb.22:
	@DEBUG_VALUE: _lv_disp_refr_timer:start <- [DW_OP_plus_uconst 12] [$sp+0]
	@DEBUG_VALUE: lv_refr_areas:last_i <- $r5
	@DEBUG_VALUE: lv_refr_areas:i <- 0
	.loc	12 0 5                          @ ../GUILib/src/core/lv_refr.c:0:5
	mov.w	r8, #0
	str	r5, [sp, #16]                   @ 4-byte Spill
.Ltmp67:
	.p2align	2
.LBB2_23:                               @ =>This Loop Header: Depth=1
                                        @     Child Loop BB2_34 Depth 2
                                        @     Child Loop BB2_43 Depth 2
	@DEBUG_VALUE: _lv_disp_refr_timer:start <- [DW_OP_plus_uconst 12] [$sp+0]
	@DEBUG_VALUE: lv_refr_areas:i <- $r8
	.loc	12 391 12 is_stmt 1             @ ../GUILib/src/core/lv_refr.c:391:12
	add.w	r1, r0, r8
	ldrb.w	r1, [r1, #308]
.Ltmp68:
	.loc	12 391 12 is_stmt 0             @ ../GUILib/src/core/lv_refr.c:391:12
	cmp	r1, #0
	bne.w	.LBB2_52
.Ltmp69:
@ %bb.24:                               @   in Loop: Header=BB2_23 Depth=1
	@DEBUG_VALUE: _lv_disp_refr_timer:start <- [DW_OP_plus_uconst 12] [$sp+0]
	@DEBUG_VALUE: lv_refr_areas:i <- $r8
	.loc	12 393 16 is_stmt 1             @ ../GUILib/src/core/lv_refr.c:393:16
	cmp	r8, r5
	bne	.LBB2_26
.Ltmp70:
@ %bb.25:                               @   in Loop: Header=BB2_23 Depth=1
	@DEBUG_VALUE: _lv_disp_refr_timer:start <- [DW_OP_plus_uconst 12] [$sp+0]
	@DEBUG_VALUE: lv_refr_areas:i <- $r8
	.loc	12 393 40 is_stmt 0             @ ../GUILib/src/core/lv_refr.c:393:40
	ldr	r1, [r0]
	.loc	12 393 48                       @ ../GUILib/src/core/lv_refr.c:393:48
	ldr	r1, [r1, #12]
	.loc	12 393 68                       @ ../GUILib/src/core/lv_refr.c:393:68
	ldr	r2, [r1, #32]
	orr	r2, r2, #1
	str	r2, [r1, #32]
.Ltmp71:
.LBB2_26:                               @   in Loop: Header=BB2_23 Depth=1
	@DEBUG_VALUE: _lv_disp_refr_timer:start <- [DW_OP_plus_uconst 12] [$sp+0]
	@DEBUG_VALUE: lv_refr_areas:i <- $r8
	.loc	12 394 24 is_stmt 1             @ ../GUILib/src/core/lv_refr.c:394:24
	ldr	r1, [r0]
	.loc	12 395 27                       @ ../GUILib/src/core/lv_refr.c:395:27
	add.w	r6, r0, r8, lsl #3
	.loc	12 394 32                       @ ../GUILib/src/core/lv_refr.c:394:32
	ldr	r1, [r1, #12]
	.loc	12 395 27                       @ ../GUILib/src/core/lv_refr.c:395:27
	add.w	r7, r6, #52
.Ltmp72:
	@DEBUG_VALUE: lv_refr_area:area_p <- $r7
	.loc	12 394 52                       @ ../GUILib/src/core/lv_refr.c:394:52
	ldr	r2, [r1, #32]
	bic	r2, r2, #2
	str	r2, [r1, #32]
.Ltmp73:
	.loc	12 409 19                       @ ../GUILib/src/core/lv_refr.c:409:19
	ldr	r1, [r0]
	.loc	12 409 27 is_stmt 0             @ ../GUILib/src/core/lv_refr.c:409:27
	ldr	r4, [r1, #16]
.Ltmp74:
	.loc	12 0 0                          @ ../GUILib/src/core/lv_refr.c:0:0
	bl	lv_disp_get_draw_buf
.Ltmp75:
	.loc	12 409 8                        @ ../GUILib/src/core/lv_refr.c:409:8
	lsls	r1, r4, #30
	.loc	12 0 0                          @ ../GUILib/src/core/lv_refr.c:0:0
	mov	r11, r0
	.loc	12 409 8                        @ ../GUILib/src/core/lv_refr.c:409:8
	bmi	.LBB2_29
.Ltmp76:
@ %bb.27:                               @   in Loop: Header=BB2_23 Depth=1
	@DEBUG_VALUE: _lv_disp_refr_timer:start <- [DW_OP_plus_uconst 12] [$sp+0]
	@DEBUG_VALUE: lv_refr_areas:i <- $r8
	@DEBUG_VALUE: lv_refr_area:area_p <- $r7
	@DEBUG_VALUE: lv_refr_area:draw_buf <- $r11
	.loc	4 135 46 is_stmt 1              @ ../GUILib/src/hal/../misc/lv_area.h:135:46
	ldrh	r5, [r6, #54]!
	@DEBUG_VALUE: lv_area_get_width:area_p <- $r7
	str	r7, [sp, #32]                   @ 4-byte Spill
.Ltmp77:
	@DEBUG_VALUE: lv_area_get_width:area_p <- [DW_OP_plus_uconst 32] [$sp+0]
	.loc	4 125 33                        @ ../GUILib/src/hal/../misc/lv_area.h:125:33
	mov	r0, r6
	ldrh	r1, [r0, #2]!
.Ltmp78:
	.loc	4 135 33                        @ ../GUILib/src/hal/../misc/lv_area.h:135:33
	mov	r4, r6
	strd	r1, r0, [sp, #20]               @ 8-byte Folded Spill
.Ltmp79:
	.loc	12 425 55                       @ ../GUILib/src/core/lv_refr.c:425:55
	ldr.w	r0, [r9]
.Ltmp80:
	.loc	4 125 46                        @ ../GUILib/src/hal/../misc/lv_area.h:125:46
	ldrh	r7, [r7]
.Ltmp81:
	@DEBUG_VALUE: lv_area_get_height:area_p <- [DW_OP_plus_uconst 32] [$sp+0]
	@DEBUG_VALUE: lv_refr_area:w <- undef
	.loc	4 135 33                        @ ../GUILib/src/hal/../misc/lv_area.h:135:33
	ldrsh	r10, [r4, #4]!
.Ltmp82:
	@DEBUG_VALUE: lv_refr_area:h <- undef
	.loc	12 425 35                       @ ../GUILib/src/core/lv_refr.c:425:35
	bl	lv_disp_get_ver_res
.Ltmp83:
	.loc	12 425 21 is_stmt 0             @ ../GUILib/src/core/lv_refr.c:425:21
	cmp	r10, r0
	bge	.LBB2_31
.Ltmp84:
@ %bb.28:                               @   in Loop: Header=BB2_23 Depth=1
	@DEBUG_VALUE: _lv_disp_refr_timer:start <- [DW_OP_plus_uconst 12] [$sp+0]
	@DEBUG_VALUE: lv_refr_area:draw_buf <- $r11
	@DEBUG_VALUE: lv_refr_areas:i <- $r8
	.loc	12 426 66 is_stmt 1             @ ../GUILib/src/core/lv_refr.c:426:66
	ldrh	r0, [r4]
	b	.LBB2_32
.Ltmp85:
.LBB2_29:                               @   in Loop: Header=BB2_23 Depth=1
	@DEBUG_VALUE: _lv_disp_refr_timer:start <- [DW_OP_plus_uconst 12] [$sp+0]
	@DEBUG_VALUE: lv_refr_areas:i <- $r8
	@DEBUG_VALUE: lv_refr_area:area_p <- $r7
	@DEBUG_VALUE: draw_buf <- $r11
	.loc	12 412 56                       @ ../GUILib/src/core/lv_refr.c:412:56
	ldr.w	r0, [r9]
	movs	r4, #0
	.loc	12 411 34                       @ ../GUILib/src/core/lv_refr.c:411:34
	strh.w	r4, [r11, #16]
	.loc	12 412 36                       @ ../GUILib/src/core/lv_refr.c:412:36
	bl	lv_disp_get_hor_res
.Ltmp86:
	.loc	12 412 67 is_stmt 0             @ ../GUILib/src/core/lv_refr.c:412:67
	subs	r0, #1
	.loc	12 412 34                       @ ../GUILib/src/core/lv_refr.c:412:34
	strh.w	r0, [r11, #20]
	.loc	12 414 56 is_stmt 1             @ ../GUILib/src/core/lv_refr.c:414:56
	ldr.w	r0, [r9]
	.loc	12 413 34                       @ ../GUILib/src/core/lv_refr.c:413:34
	strh.w	r4, [r11, #18]
	.loc	12 414 36                       @ ../GUILib/src/core/lv_refr.c:414:36
	bl	lv_disp_get_ver_res
.Ltmp87:
	.loc	12 414 67 is_stmt 0             @ ../GUILib/src/core/lv_refr.c:414:67
	subs	r0, #1
	.loc	12 415 9 is_stmt 1              @ ../GUILib/src/core/lv_refr.c:415:9
	ldr.w	r1, [r9]
	.loc	12 414 34                       @ ../GUILib/src/core/lv_refr.c:414:34
	strh.w	r0, [r11, #22]
	.loc	12 415 20                       @ ../GUILib/src/core/lv_refr.c:415:20
	ldr	r0, [r1]
.Ltmp88:
.LBB2_30:                               @   in Loop: Header=BB2_23 Depth=1
	@DEBUG_VALUE: _lv_disp_refr_timer:start <- [DW_OP_plus_uconst 12] [$sp+0]
	@DEBUG_VALUE: lv_refr_areas:i <- $r8
	.loc	12 0 0 is_stmt 0                @ ../GUILib/src/core/lv_refr.c:0:0
	ldr	r0, [r0, #12]
	ldr	r1, [r0, #32]
	orr	r1, r1, #2
	str	r1, [r0, #32]
	mov	r0, r7
	bl	lv_refr_area_part
.Ltmp89:
	b	.LBB2_51
.Ltmp90:
.LBB2_31:                               @   in Loop: Header=BB2_23 Depth=1
	@DEBUG_VALUE: _lv_disp_refr_timer:start <- [DW_OP_plus_uconst 12] [$sp+0]
	@DEBUG_VALUE: lv_refr_area:draw_buf <- $r11
	@DEBUG_VALUE: lv_refr_areas:i <- $r8
	.loc	12 426 41 is_stmt 1             @ ../GUILib/src/core/lv_refr.c:426:41
	ldr.w	r0, [r9]
	.loc	12 426 21 is_stmt 0             @ ../GUILib/src/core/lv_refr.c:426:21
	bl	lv_disp_get_ver_res
.Ltmp91:
	.loc	12 426 52                       @ ../GUILib/src/core/lv_refr.c:426:52
	subs	r0, #1
.Ltmp92:
.LBB2_32:                               @   in Loop: Header=BB2_23 Depth=1
	@DEBUG_VALUE: _lv_disp_refr_timer:start <- [DW_OP_plus_uconst 12] [$sp+0]
	@DEBUG_VALUE: lv_refr_area:draw_buf <- $r11
	@DEBUG_VALUE: lv_refr_areas:i <- $r8
	.loc	12 0 52                         @ ../GUILib/src/core/lv_refr.c:0:52
	str	r0, [sp, #28]                   @ 4-byte Spill
	ldr	r0, [sp, #20]                   @ 4-byte Reload
	.loc	12 428 43 is_stmt 1             @ ../GUILib/src/core/lv_refr.c:428:43
	ldr.w	r2, [r11, #12]
	.loc	12 0 0 is_stmt 0                @ ../GUILib/src/core/lv_refr.c:0:0
	subs	r0, r0, r7
	adds	r0, #1
.Ltmp93:
	@DEBUG_VALUE: lv_refr_area:w <- $r0
	.loc	12 428 50                       @ ../GUILib/src/core/lv_refr.c:428:50
	sxth	r0, r0
.Ltmp94:
	.loc	12 0 0                          @ ../GUILib/src/core/lv_refr.c:0:0
	sub.w	r1, r10, r5
	.loc	12 428 48                       @ ../GUILib/src/core/lv_refr.c:428:48
	udiv	r10, r2, r0
.Ltmp95:
	@DEBUG_VALUE: lv_refr_area:max_row <- $r10
	.loc	12 433 8 is_stmt 1              @ ../GUILib/src/core/lv_refr.c:433:8
	ldr.w	r0, [r9]
.Ltmp96:
	.loc	12 0 0 is_stmt 0                @ ../GUILib/src/core/lv_refr.c:0:0
	adds	r1, #1
.Ltmp97:
	@DEBUG_VALUE: lv_refr_area:y2 <- [DW_OP_plus_uconst 28] [$sp+0]
	@DEBUG_VALUE: lv_refr_area:h <- $r1
	.loc	12 430 18 is_stmt 1             @ ../GUILib/src/core/lv_refr.c:430:18
	sxth	r3, r1
.Ltmp98:
	.loc	12 433 19                       @ ../GUILib/src/core/lv_refr.c:433:19
	ldr	r1, [r0]
.Ltmp99:
	.loc	12 430 8                        @ ../GUILib/src/core/lv_refr.c:430:8
	cmp	r10, r3
.Ltmp100:
	.loc	12 433 27                       @ ../GUILib/src/core/lv_refr.c:433:27
	ldr	r2, [r1, #24]
	add	r4, sp, #36
.Ltmp101:
	.loc	12 430 8                        @ ../GUILib/src/core/lv_refr.c:430:8
	it	gt
	movgt	r10, r3
.Ltmp102:
	@DEBUG_VALUE: lv_refr_area:max_row <- $r10
	.loc	12 433 8                        @ ../GUILib/src/core/lv_refr.c:433:8
	cbz	r2, .LBB2_37
.Ltmp103:
@ %bb.33:                               @   in Loop: Header=BB2_23 Depth=1
	@DEBUG_VALUE: _lv_disp_refr_timer:start <- [DW_OP_plus_uconst 12] [$sp+0]
	@DEBUG_VALUE: lv_refr_area:draw_buf <- $r11
	@DEBUG_VALUE: lv_refr_area:max_row <- $r10
	@DEBUG_VALUE: lv_refr_areas:i <- $r8
	@DEBUG_VALUE: lv_refr_area:y2 <- [DW_OP_plus_uconst 28] [$sp+0]
	.loc	12 0 8 is_stmt 0                @ ../GUILib/src/core/lv_refr.c:0:8
	movs	r0, #0
.Ltmp104:
	.loc	12 435 16 is_stmt 1             @ ../GUILib/src/core/lv_refr.c:435:16
	str	r0, [sp, #36]
	.loc	12 436 16                       @ ../GUILib/src/core/lv_refr.c:436:16
	strh.w	r0, [sp, #40]
.Ltmp105:
	@DEBUG_VALUE: h_tmp <- $r10
	.loc	12 441 28                       @ ../GUILib/src/core/lv_refr.c:441:28
	sub.w	r5, r10, #1
	.loc	12 442 13                       @ ../GUILib/src/core/lv_refr.c:442:13
	mov	r0, r1
	mov	r1, r4
	.loc	12 441 20                       @ ../GUILib/src/core/lv_refr.c:441:20
	strh.w	r5, [sp, #42]
	.loc	12 442 13                       @ ../GUILib/src/core/lv_refr.c:442:13
	blx	r2
.Ltmp106:
	@DEBUG_VALUE: lv_area_get_height:area_p <- [DW_OP_plus_uconst 36, DW_OP_stack_value] $sp
	.loc	4 135 33                        @ ../GUILib/src/hal/../misc/lv_area.h:135:33
	ldrh.w	r1, [sp, #42]
	.loc	4 135 46 is_stmt 0              @ ../GUILib/src/hal/../misc/lv_area.h:135:46
	ldrh.w	r0, [sp, #38]
	.loc	4 135 49                        @ ../GUILib/src/hal/../misc/lv_area.h:135:49
	subs	r0, r1, r0
	adds	r0, #1
.Ltmp107:
	.loc	12 445 16 is_stmt 1             @ ../GUILib/src/core/lv_refr.c:445:16
	sxth	r0, r0
.Ltmp108:
	.loc	12 445 16 is_stmt 0             @ ../GUILib/src/core/lv_refr.c:445:16
	cmp	r10, r0
	bge	.LBB2_38
.Ltmp109:
	.p2align	2
.LBB2_34:                               @   Parent Loop BB2_23 Depth=1
                                        @ =>  This Inner Loop Header: Depth=2
	@DEBUG_VALUE: _lv_disp_refr_timer:start <- [DW_OP_plus_uconst 12] [$sp+0]
	@DEBUG_VALUE: lv_refr_area:draw_buf <- $r11
	@DEBUG_VALUE: lv_refr_area:max_row <- $r10
	@DEBUG_VALUE: lv_refr_areas:i <- $r8
	@DEBUG_VALUE: lv_refr_area:y2 <- [DW_OP_plus_uconst 28] [$sp+0]
	@DEBUG_VALUE: h_tmp <- $r5
	.loc	12 449 23 is_stmt 1             @ ../GUILib/src/core/lv_refr.c:449:23
	sxth	r0, r5
.Ltmp110:
	.loc	12 449 9 is_stmt 0              @ ../GUILib/src/core/lv_refr.c:449:9
	cmp	r0, #1
	blt.w	.LBB2_50
.Ltmp111:
@ %bb.35:                               @   in Loop: Header=BB2_34 Depth=2
	@DEBUG_VALUE: _lv_disp_refr_timer:start <- [DW_OP_plus_uconst 12] [$sp+0]
	@DEBUG_VALUE: lv_refr_area:draw_buf <- $r11
	@DEBUG_VALUE: lv_refr_area:max_row <- $r10
	@DEBUG_VALUE: lv_refr_areas:i <- $r8
	@DEBUG_VALUE: h_tmp <- $r5
	@DEBUG_VALUE: lv_refr_area:y2 <- [DW_OP_plus_uconst 28] [$sp+0]
	.loc	12 442 13 is_stmt 1             @ ../GUILib/src/core/lv_refr.c:442:13
	ldr.w	r0, [r9]
	.loc	12 441 28                       @ ../GUILib/src/core/lv_refr.c:441:28
	subs	r5, #1
.Ltmp112:
	.loc	12 442 24                       @ ../GUILib/src/core/lv_refr.c:442:24
	ldr	r0, [r0]
	.loc	12 442 13 is_stmt 0             @ ../GUILib/src/core/lv_refr.c:442:13
	mov	r1, r4
	.loc	12 442 32                       @ ../GUILib/src/core/lv_refr.c:442:32
	ldr	r2, [r0, #24]
.Ltmp113:
	@DEBUG_VALUE: h_tmp <- $r5
	.loc	12 441 20 is_stmt 1             @ ../GUILib/src/core/lv_refr.c:441:20
	strh.w	r5, [sp, #42]
	.loc	12 442 13                       @ ../GUILib/src/core/lv_refr.c:442:13
	blx	r2
.Ltmp114:
	@DEBUG_VALUE: lv_area_get_height:area_p <- [DW_OP_plus_uconst 36, DW_OP_stack_value] $sp
	.loc	4 135 33                        @ ../GUILib/src/hal/../misc/lv_area.h:135:33
	ldrh.w	r1, [sp, #42]
	.loc	4 135 46 is_stmt 0              @ ../GUILib/src/hal/../misc/lv_area.h:135:46
	ldrh.w	r0, [sp, #38]
	.loc	4 135 49                        @ ../GUILib/src/hal/../misc/lv_area.h:135:49
	subs	r0, r1, r0
	adds	r0, #1
.Ltmp115:
	.loc	12 445 16 is_stmt 1             @ ../GUILib/src/core/lv_refr.c:445:16
	sxth	r0, r0
.Ltmp116:
	.loc	12 445 16 is_stmt 0             @ ../GUILib/src/core/lv_refr.c:445:16
	cmp	r10, r0
	blt	.LBB2_34
.Ltmp117:
@ %bb.36:                               @   in Loop: Header=BB2_23 Depth=1
	@DEBUG_VALUE: _lv_disp_refr_timer:start <- [DW_OP_plus_uconst 12] [$sp+0]
	@DEBUG_VALUE: lv_refr_area:draw_buf <- $r11
	@DEBUG_VALUE: lv_refr_area:max_row <- $r10
	@DEBUG_VALUE: lv_refr_areas:i <- $r8
	@DEBUG_VALUE: h_tmp <- $r5
	@DEBUG_VALUE: lv_area_get_height:area_p <- [DW_OP_plus_uconst 36, DW_OP_stack_value] $sp
	@DEBUG_VALUE: lv_refr_area:y2 <- [DW_OP_plus_uconst 28] [$sp+0]
	@DEBUG_VALUE: lv_refr_area:max_row <- undef
	@DEBUG_VALUE: h_tmp <- [DW_OP_LLVM_convert 32 7, DW_OP_LLVM_convert 16 7, DW_OP_stack_value] undef
	.loc	12 0 16                         @ ../GUILib/src/core/lv_refr.c:0:16
	ldr	r7, [sp, #32]                   @ 4-byte Reload
	b	.LBB2_39
.Ltmp118:
.LBB2_37:                               @   in Loop: Header=BB2_23 Depth=1
	@DEBUG_VALUE: _lv_disp_refr_timer:start <- [DW_OP_plus_uconst 12] [$sp+0]
	@DEBUG_VALUE: lv_refr_area:draw_buf <- $r11
	@DEBUG_VALUE: lv_refr_area:max_row <- $r10
	@DEBUG_VALUE: lv_refr_areas:i <- $r8
	@DEBUG_VALUE: lv_refr_area:y2 <- [DW_OP_plus_uconst 28] [$sp+0]
	ldr	r7, [sp, #32]                   @ 4-byte Reload
	b	.LBB2_40
.Ltmp119:
.LBB2_38:                               @   in Loop: Header=BB2_23 Depth=1
	@DEBUG_VALUE: _lv_disp_refr_timer:start <- [DW_OP_plus_uconst 12] [$sp+0]
	@DEBUG_VALUE: lv_refr_area:draw_buf <- $r11
	@DEBUG_VALUE: h_tmp <- $r10
	@DEBUG_VALUE: lv_refr_area:max_row <- $r10
	@DEBUG_VALUE: lv_refr_areas:i <- $r8
	@DEBUG_VALUE: lv_refr_area:y2 <- [DW_OP_plus_uconst 28] [$sp+0]
	.loc	12 439 28 is_stmt 1             @ ../GUILib/src/core/lv_refr.c:439:28
	sxth.w	r0, r10
.Ltmp120:
	@DEBUG_VALUE: lv_refr_area:max_row <- undef
	.loc	12 0 28 is_stmt 0               @ ../GUILib/src/core/lv_refr.c:0:28
	movw	r10, :lower16:px_num
.Ltmp121:
	ldr	r5, [sp, #16]                   @ 4-byte Reload
	ldr	r7, [sp, #32]                   @ 4-byte Reload
	cmp	r0, #1
.Ltmp122:
	@DEBUG_VALUE: h_tmp <- [DW_OP_LLVM_convert 32 7, DW_OP_LLVM_convert 16 7, DW_OP_stack_value] undef
	movt	r10, :upper16:px_num
	blt	.LBB2_51
.Ltmp123:
.LBB2_39:                               @   in Loop: Header=BB2_23 Depth=1
	@DEBUG_VALUE: _lv_disp_refr_timer:start <- [DW_OP_plus_uconst 12] [$sp+0]
	@DEBUG_VALUE: lv_refr_area:draw_buf <- $r11
	@DEBUG_VALUE: lv_refr_areas:i <- $r8
	@DEBUG_VALUE: lv_refr_area:y2 <- [DW_OP_plus_uconst 28] [$sp+0]
	.loc	12 462 8 is_stmt 1              @ ../GUILib/src/core/lv_refr.c:462:8
	ldr.w	r0, [r9]
.Ltmp124:
	.loc	12 451 12                       @ ../GUILib/src/core/lv_refr.c:451:12
	sxth	r2, r1
.Ltmp125:
	.loc	12 462 19                       @ ../GUILib/src/core/lv_refr.c:462:19
	ldr	r1, [r0]
.Ltmp126:
	.loc	12 451 12                       @ ../GUILib/src/core/lv_refr.c:451:12
	add.w	r10, r2, #1
.Ltmp127:
.LBB2_40:                               @   in Loop: Header=BB2_23 Depth=1
	@DEBUG_VALUE: _lv_disp_refr_timer:start <- [DW_OP_plus_uconst 12] [$sp+0]
	@DEBUG_VALUE: lv_refr_area:draw_buf <- $r11
	@DEBUG_VALUE: lv_refr_areas:i <- $r8
	@DEBUG_VALUE: lv_refr_area:y2 <- [DW_OP_plus_uconst 28] [$sp+0]
	@DEBUG_VALUE: lv_refr_area:max_row <- $r10
	.loc	12 462 8                        @ ../GUILib/src/core/lv_refr.c:462:8
	ldrb	r1, [r1, #16]
	lsls	r1, r1, #31
	bne	.LBB2_49
.Ltmp128:
@ %bb.41:                               @   in Loop: Header=BB2_23 Depth=1
	@DEBUG_VALUE: _lv_disp_refr_timer:start <- [DW_OP_plus_uconst 12] [$sp+0]
	@DEBUG_VALUE: lv_refr_area:draw_buf <- $r11
	@DEBUG_VALUE: lv_refr_area:max_row <- $r10
	@DEBUG_VALUE: lv_refr_areas:i <- $r8
	@DEBUG_VALUE: lv_refr_area:y2 <- [DW_OP_plus_uconst 28] [$sp+0]
	@DEBUG_VALUE: row_last <- undef
	.loc	12 475 31                       @ ../GUILib/src/core/lv_refr.c:475:31
	ldrsh.w	r0, [r6]
.Ltmp129:
	@DEBUG_VALUE: row <- $r0
	.loc	12 475 52 is_stmt 0             @ ../GUILib/src/core/lv_refr.c:475:52
	ldr	r3, [sp, #28]                   @ 4-byte Reload
	.loc	12 475 35                       @ ../GUILib/src/core/lv_refr.c:475:35
	add.w	r2, r10, r0
	.loc	12 475 45                       @ ../GUILib/src/core/lv_refr.c:475:45
	subs	r1, r2, #1
	.loc	12 475 52                       @ ../GUILib/src/core/lv_refr.c:475:52
	sxth	r4, r3
.Ltmp130:
	.loc	12 475 9                        @ ../GUILib/src/core/lv_refr.c:475:9
	cmp	r1, r4
	.loc	12 475 27                       @ ../GUILib/src/core/lv_refr.c:475:27
	uxth	r0, r0
.Ltmp131:
	.loc	12 475 9                        @ ../GUILib/src/core/lv_refr.c:475:9
	ble	.LBB2_43
.Ltmp132:
@ %bb.42:                               @   in Loop: Header=BB2_23 Depth=1
	@DEBUG_VALUE: _lv_disp_refr_timer:start <- [DW_OP_plus_uconst 12] [$sp+0]
	@DEBUG_VALUE: lv_refr_area:draw_buf <- $r11
	@DEBUG_VALUE: lv_refr_area:max_row <- $r10
	@DEBUG_VALUE: lv_refr_areas:i <- $r8
	@DEBUG_VALUE: lv_refr_area:y2 <- [DW_OP_plus_uconst 28] [$sp+0]
	.loc	12 0 9                          @ ../GUILib/src/core/lv_refr.c:0:9
	movs	r1, #0
	b	.LBB2_47
.Ltmp133:
	.p2align	2
.LBB2_43:                               @   Parent Loop BB2_23 Depth=1
                                        @ =>  This Inner Loop Header: Depth=2
	@DEBUG_VALUE: _lv_disp_refr_timer:start <- [DW_OP_plus_uconst 12] [$sp+0]
	@DEBUG_VALUE: lv_refr_area:draw_buf <- $r11
	@DEBUG_VALUE: lv_refr_area:max_row <- $r10
	@DEBUG_VALUE: lv_refr_areas:i <- $r8
	@DEBUG_VALUE: lv_refr_area:y2 <- [DW_OP_plus_uconst 28] [$sp+0]
	.loc	12 477 41 is_stmt 1             @ ../GUILib/src/core/lv_refr.c:477:41
	ldrh	r3, [r7]
	.loc	12 481 16                       @ ../GUILib/src/core/lv_refr.c:481:16
	mov	r6, r1
	.loc	12 477 31                       @ ../GUILib/src/core/lv_refr.c:477:31
	strh.w	r3, [r11, #16]
	.loc	12 478 41                       @ ../GUILib/src/core/lv_refr.c:478:41
	ldr	r3, [sp, #24]                   @ 4-byte Reload
	mov	r5, r2
.Ltmp134:
	@DEBUG_VALUE: row <- $r0
	ldrh	r3, [r3]
	.loc	12 479 31                       @ ../GUILib/src/core/lv_refr.c:479:31
	strh.w	r0, [r11, #18]
.Ltmp135:
	.loc	12 481 16                       @ ../GUILib/src/core/lv_refr.c:481:16
	sxth	r0, r1
.Ltmp136:
	.loc	12 0 16 is_stmt 0               @ ../GUILib/src/core/lv_refr.c:0:16
	ldr	r1, [sp, #28]                   @ 4-byte Reload
.Ltmp137:
	.loc	12 478 31 is_stmt 1             @ ../GUILib/src/core/lv_refr.c:478:31
	strh.w	r3, [r11, #20]
	.loc	12 481 16                       @ ../GUILib/src/core/lv_refr.c:481:16
	cmp	r0, r4
	it	gt
	movgt	r6, r1
.Ltmp138:
	@DEBUG_VALUE: row_last <- $r6
	uxth	r0, r6
	uxth	r1, r1
	.loc	12 483 16                       @ ../GUILib/src/core/lv_refr.c:483:16
	cmp	r1, r0
	.loc	12 0 0 is_stmt 0                @ ../GUILib/src/core/lv_refr.c:0:0
	strh.w	r6, [r11, #22]
	.loc	12 483 16                       @ ../GUILib/src/core/lv_refr.c:483:16
	bne	.LBB2_45
.Ltmp139:
@ %bb.44:                               @   in Loop: Header=BB2_43 Depth=2
	@DEBUG_VALUE: _lv_disp_refr_timer:start <- [DW_OP_plus_uconst 12] [$sp+0]
	@DEBUG_VALUE: lv_refr_area:draw_buf <- $r11
	@DEBUG_VALUE: lv_refr_area:max_row <- $r10
	@DEBUG_VALUE: lv_refr_areas:i <- $r8
	@DEBUG_VALUE: row_last <- $r6
	@DEBUG_VALUE: lv_refr_area:y2 <- [DW_OP_plus_uconst 28] [$sp+0]
	.loc	12 483 32                       @ ../GUILib/src/core/lv_refr.c:483:32
	ldr.w	r0, [r9]
	.loc	12 483 43                       @ ../GUILib/src/core/lv_refr.c:483:43
	ldr	r0, [r0]
	.loc	12 483 51                       @ ../GUILib/src/core/lv_refr.c:483:51
	ldr	r0, [r0, #12]
	.loc	12 483 71                       @ ../GUILib/src/core/lv_refr.c:483:71
	ldr	r1, [r0, #32]
	orr	r1, r1, #2
	str	r1, [r0, #32]
.Ltmp140:
.LBB2_45:                               @   in Loop: Header=BB2_43 Depth=2
	@DEBUG_VALUE: _lv_disp_refr_timer:start <- [DW_OP_plus_uconst 12] [$sp+0]
	@DEBUG_VALUE: lv_refr_area:draw_buf <- $r11
	@DEBUG_VALUE: lv_refr_area:max_row <- $r10
	@DEBUG_VALUE: lv_refr_areas:i <- $r8
	@DEBUG_VALUE: row_last <- $r6
	@DEBUG_VALUE: lv_refr_area:y2 <- [DW_OP_plus_uconst 28] [$sp+0]
	.loc	12 484 13 is_stmt 1             @ ../GUILib/src/core/lv_refr.c:484:13
	mov	r0, r7
	bl	lv_refr_area_part
.Ltmp141:
	.loc	12 475 35                       @ ../GUILib/src/core/lv_refr.c:475:35
	sxtah	r2, r10, r5
	ldr	r7, [sp, #32]                   @ 4-byte Reload
.Ltmp142:
	@DEBUG_VALUE: row <- undef
	@DEBUG_VALUE: row_last <- undef
	.loc	12 475 45 is_stmt 0             @ ../GUILib/src/core/lv_refr.c:475:45
	subs	r1, r2, #1
.Ltmp143:
	.loc	12 475 9                        @ ../GUILib/src/core/lv_refr.c:475:9
	cmp	r1, r4
	mov	r0, r5
	ble	.LBB2_43
.Ltmp144:
@ %bb.46:                               @   in Loop: Header=BB2_23 Depth=1
	@DEBUG_VALUE: _lv_disp_refr_timer:start <- [DW_OP_plus_uconst 12] [$sp+0]
	@DEBUG_VALUE: lv_refr_area:draw_buf <- $r11
	@DEBUG_VALUE: lv_refr_area:max_row <- $r10
	@DEBUG_VALUE: lv_refr_areas:i <- $r8
	@DEBUG_VALUE: lv_refr_area:y2 <- [DW_OP_plus_uconst 28] [$sp+0]
	.loc	12 475 9                        @ ../GUILib/src/core/lv_refr.c:475:9
	sxth	r1, r6
.Ltmp145:
	.loc	12 0 0                          @ ../GUILib/src/core/lv_refr.c:0:0
	mov	r0, r5
.Ltmp146:
.LBB2_47:                               @   in Loop: Header=BB2_23 Depth=1
	@DEBUG_VALUE: _lv_disp_refr_timer:start <- [DW_OP_plus_uconst 12] [$sp+0]
	@DEBUG_VALUE: lv_refr_area:draw_buf <- $r11
	@DEBUG_VALUE: lv_refr_area:max_row <- $r10
	@DEBUG_VALUE: lv_refr_areas:i <- $r8
	@DEBUG_VALUE: lv_refr_area:y2 <- [DW_OP_plus_uconst 28] [$sp+0]
	movw	r10, :lower16:px_num
.Ltmp147:
	ldr	r5, [sp, #16]                   @ 4-byte Reload
	movt	r10, :upper16:px_num
	.loc	12 488 12 is_stmt 1             @ ../GUILib/src/core/lv_refr.c:488:12
	cmp	r1, r4
	beq	.LBB2_51
.Ltmp148:
@ %bb.48:                               @   in Loop: Header=BB2_23 Depth=1
	@DEBUG_VALUE: _lv_disp_refr_timer:start <- [DW_OP_plus_uconst 12] [$sp+0]
	@DEBUG_VALUE: lv_refr_area:draw_buf <- $r11
	@DEBUG_VALUE: lv_refr_areas:i <- $r8
	@DEBUG_VALUE: lv_refr_area:y2 <- [DW_OP_plus_uconst 28] [$sp+0]
	.loc	12 490 41                       @ ../GUILib/src/core/lv_refr.c:490:41
	ldrh	r1, [r7]
	.loc	12 490 31 is_stmt 0             @ ../GUILib/src/core/lv_refr.c:490:31
	strh.w	r1, [r11, #16]
	.loc	12 491 41 is_stmt 1             @ ../GUILib/src/core/lv_refr.c:491:41
	ldr	r1, [sp, #24]                   @ 4-byte Reload
	ldrh	r1, [r1]
	.loc	12 492 31                       @ ../GUILib/src/core/lv_refr.c:492:31
	strh.w	r0, [r11, #18]
	.loc	12 491 31                       @ ../GUILib/src/core/lv_refr.c:491:31
	strh.w	r1, [r11, #20]
	.loc	12 493 31                       @ ../GUILib/src/core/lv_refr.c:493:31
	ldr	r1, [sp, #28]                   @ 4-byte Reload
	.loc	12 495 13                       @ ../GUILib/src/core/lv_refr.c:495:13
	ldr.w	r0, [r9]
	.loc	12 493 31                       @ ../GUILib/src/core/lv_refr.c:493:31
	strh.w	r1, [r11, #22]
	.loc	12 495 24                       @ ../GUILib/src/core/lv_refr.c:495:24
	ldr	r0, [r0]
	b	.LBB2_30
.Ltmp149:
.LBB2_49:                               @   in Loop: Header=BB2_23 Depth=1
	@DEBUG_VALUE: _lv_disp_refr_timer:start <- [DW_OP_plus_uconst 12] [$sp+0]
	@DEBUG_VALUE: lv_refr_area:draw_buf <- $r11
	@DEBUG_VALUE: lv_refr_area:max_row <- $r10
	@DEBUG_VALUE: lv_refr_areas:i <- $r8
	@DEBUG_VALUE: lv_refr_area:y2 <- [DW_OP_plus_uconst 28] [$sp+0]
	.loc	12 0 24 is_stmt 0               @ ../GUILib/src/core/lv_refr.c:0:24
	movs	r4, #0
.Ltmp150:
	.loc	12 463 27 is_stmt 1             @ ../GUILib/src/core/lv_refr.c:463:27
	strh.w	r4, [r11, #16]
	.loc	12 464 29                       @ ../GUILib/src/core/lv_refr.c:464:29
	bl	lv_disp_get_hor_res
.Ltmp151:
	.loc	12 464 60 is_stmt 0             @ ../GUILib/src/core/lv_refr.c:464:60
	subs	r0, #1
	.loc	12 464 27                       @ ../GUILib/src/core/lv_refr.c:464:27
	strh.w	r0, [r11, #20]
	.loc	12 466 49 is_stmt 1             @ ../GUILib/src/core/lv_refr.c:466:49
	ldr.w	r0, [r9]
	.loc	12 465 27                       @ ../GUILib/src/core/lv_refr.c:465:27
	strh.w	r4, [r11, #18]
	.loc	12 466 29                       @ ../GUILib/src/core/lv_refr.c:466:29
	bl	lv_disp_get_ver_res
.Ltmp152:
	.loc	12 466 60 is_stmt 0             @ ../GUILib/src/core/lv_refr.c:466:60
	subs	r0, #1
	.loc	12 467 50 is_stmt 1             @ ../GUILib/src/core/lv_refr.c:467:50
	ldr.w	r1, [r9]
	.loc	12 466 27                       @ ../GUILib/src/core/lv_refr.c:466:27
	strh.w	r0, [r11, #22]
	.loc	12 467 61                       @ ../GUILib/src/core/lv_refr.c:467:61
	ldr	r0, [r1]
	.loc	12 467 69 is_stmt 0             @ ../GUILib/src/core/lv_refr.c:467:69
	ldr	r0, [r0, #12]
	.loc	12 467 79                       @ ../GUILib/src/core/lv_refr.c:467:79
	ldr	r1, [r0, #32]
	.loc	12 467 48                       @ ../GUILib/src/core/lv_refr.c:467:48
	ldr	r2, [r0, #32]
	bfi	r2, r1, #1, #1
	str	r2, [r0, #32]
	.loc	12 468 9 is_stmt 1              @ ../GUILib/src/core/lv_refr.c:468:9
	mov	r0, r7
	bl	lv_refr_area_part
.Ltmp153:
.LBB2_50:                               @   in Loop: Header=BB2_23 Depth=1
	@DEBUG_VALUE: _lv_disp_refr_timer:start <- [DW_OP_plus_uconst 12] [$sp+0]
	@DEBUG_VALUE: lv_refr_area:draw_buf <- $r11
	@DEBUG_VALUE: lv_refr_area:max_row <- $r10
	@DEBUG_VALUE: lv_refr_areas:i <- $r8
	@DEBUG_VALUE: lv_refr_area:y2 <- [DW_OP_plus_uconst 28] [$sp+0]
	@DEBUG_VALUE: lv_refr_area:max_row <- undef
	@DEBUG_VALUE: h_tmp <- undef
	.loc	12 0 9 is_stmt 0                @ ../GUILib/src/core/lv_refr.c:0:9
	movw	r10, :lower16:px_num
	ldr	r5, [sp, #16]                   @ 4-byte Reload
	movt	r10, :upper16:px_num
.Ltmp154:
.LBB2_51:                               @   in Loop: Header=BB2_23 Depth=1
	@DEBUG_VALUE: _lv_disp_refr_timer:start <- [DW_OP_plus_uconst 12] [$sp+0]
	@DEBUG_VALUE: lv_refr_areas:i <- $r8
	.loc	12 397 41 is_stmt 1             @ ../GUILib/src/core/lv_refr.c:397:41
	ldr.w	r0, [r9]
	add.w	r0, r0, r8, lsl #3
	adds	r0, #52
	.loc	12 397 23 is_stmt 0             @ ../GUILib/src/core/lv_refr.c:397:23
	bl	lv_area_get_size
.Ltmp155:
	.loc	12 397 20                       @ ../GUILib/src/core/lv_refr.c:397:20
	ldr.w	r1, [r10]
	add	r1, r0
.Ltmp156:
	.loc	12 389 20 is_stmt 1             @ ../GUILib/src/core/lv_refr.c:389:20
	ldr.w	r0, [r9]
.Ltmp157:
	.loc	12 397 20                       @ ../GUILib/src/core/lv_refr.c:397:20
	str.w	r1, [r10]
.Ltmp158:
.LBB2_52:                               @   in Loop: Header=BB2_23 Depth=1
	@DEBUG_VALUE: _lv_disp_refr_timer:start <- [DW_OP_plus_uconst 12] [$sp+0]
	@DEBUG_VALUE: lv_refr_areas:i <- $r8
	.loc	12 389 31                       @ ../GUILib/src/core/lv_refr.c:389:31
	ldrh.w	r1, [r0, #340]
	.loc	12 389 39 is_stmt 0             @ ../GUILib/src/core/lv_refr.c:389:39
	add.w	r8, r8, #1
.Ltmp159:
	@DEBUG_VALUE: lv_refr_areas:i <- $r8
	.loc	12 389 5                        @ ../GUILib/src/core/lv_refr.c:389:5
	cmp	r8, r1
	blo.w	.LBB2_23
.Ltmp160:
@ %bb.53:
	@DEBUG_VALUE: _lv_disp_refr_timer:start <- [DW_OP_plus_uconst 12] [$sp+0]
	.loc	12 219 8 is_stmt 1              @ ../GUILib/src/core/lv_refr.c:219:8
	cbz	r1, .LBB2_58
.Ltmp161:
@ %bb.54:
	@DEBUG_VALUE: _lv_disp_refr_timer:start <- [DW_OP_plus_uconst 12] [$sp+0]
	.loc	12 220 23                       @ ../GUILib/src/core/lv_refr.c:220:23
	ldr	r1, [r0]
.Ltmp162:
	.loc	12 220 12 is_stmt 0             @ ../GUILib/src/core/lv_refr.c:220:12
	ldrb	r1, [r1, #16]
	lsls	r1, r1, #30
	bpl	.LBB2_56
.Ltmp163:
@ %bb.55:
	@DEBUG_VALUE: _lv_disp_refr_timer:start <- [DW_OP_plus_uconst 12] [$sp+0]
	.loc	12 221 13 is_stmt 1             @ ../GUILib/src/core/lv_refr.c:221:13
	bl	draw_buf_flush
.Ltmp164:
	.loc	12 225 22                       @ ../GUILib/src/core/lv_refr.c:225:22
	ldr.w	r0, [r9]
.Ltmp165:
.LBB2_56:
	@DEBUG_VALUE: _lv_disp_refr_timer:start <- [DW_OP_plus_uconst 12] [$sp+0]
	adds	r0, #52
	.loc	12 225 9 is_stmt 0              @ ../GUILib/src/core/lv_refr.c:225:9
	mov.w	r1, #256
	bl	lv_memset_00
.Ltmp166:
	.loc	12 226 22 is_stmt 1             @ ../GUILib/src/core/lv_refr.c:226:22
	ldr.w	r0, [r9]
	.loc	12 226 9 is_stmt 0              @ ../GUILib/src/core/lv_refr.c:226:9
	movs	r1, #32
	.loc	12 226 22                       @ ../GUILib/src/core/lv_refr.c:226:22
	add.w	r0, r0, #308
	.loc	12 226 9                        @ ../GUILib/src/core/lv_refr.c:226:9
	bl	lv_memset_00
.Ltmp167:
	.loc	12 227 9 is_stmt 1              @ ../GUILib/src/core/lv_refr.c:227:9
	ldr.w	r0, [r9]
	movs	r1, #0
	.loc	12 227 26 is_stmt 0             @ ../GUILib/src/core/lv_refr.c:227:26
	strh.w	r1, [r0, #340]
	.loc	12 229 17 is_stmt 1             @ ../GUILib/src/core/lv_refr.c:229:17
	ldr	r0, [sp, #12]                   @ 4-byte Reload
.Ltmp168:
	@DEBUG_VALUE: _lv_disp_refr_timer:start <- $r0
	bl	lv_tick_elaps
.Ltmp169:
	.loc	12 229 15 is_stmt 0             @ ../GUILib/src/core/lv_refr.c:229:15
	str	r0, [sp, #64]
.Ltmp170:
	.loc	12 231 12 is_stmt 1             @ ../GUILib/src/core/lv_refr.c:231:12
	ldr.w	r0, [r9]
	.loc	12 231 23 is_stmt 0             @ ../GUILib/src/core/lv_refr.c:231:23
	ldr	r0, [r0]
	.loc	12 231 31                       @ ../GUILib/src/core/lv_refr.c:231:31
	ldr	r3, [r0, #32]
.Ltmp171:
	.loc	12 231 12                       @ ../GUILib/src/core/lv_refr.c:231:12
	cbz	r3, .LBB2_58
@ %bb.57:
.Ltmp172:
	.loc	12 232 62 is_stmt 1             @ ../GUILib/src/core/lv_refr.c:232:62
	ldr	r1, [sp, #64]
	.loc	12 232 69 is_stmt 0             @ ../GUILib/src/core/lv_refr.c:232:69
	ldr.w	r2, [r10]
	.loc	12 232 13                       @ ../GUILib/src/core/lv_refr.c:232:13
	blx	r3
.Ltmp173:
.LBB2_58:
	.loc	12 236 5 is_stmt 1              @ ../GUILib/src/core/lv_refr.c:236:5
	bl	lv_mem_buf_free_all
.Ltmp174:
	.loc	12 237 5                        @ ../GUILib/src/core/lv_refr.c:237:5
	bl	_lv_font_clean_up_fmt_txt
.Ltmp175:
	.loc	12 240 5                        @ ../GUILib/src/core/lv_refr.c:240:5
	bl	_lv_draw_mask_cleanup
.Ltmp176:
	.loc	12 245 8                        @ ../GUILib/src/core/lv_refr.c:245:8
	movw	r8, :lower16:_lv_disp_refr_timer.perf_label
	movt	r8, :upper16:_lv_disp_refr_timer.perf_label
	ldr.w	r0, [r8]
.Ltmp177:
	.loc	12 245 8 is_stmt 0              @ ../GUILib/src/core/lv_refr.c:245:8
	cmp	r0, #0
	bne	.LBB2_60
@ %bb.59:
.Ltmp178:
	.file	20 "C:\\Users\\Hyacincher\\Desktop\\HyTelectrl\\Code\\Project" "../GUILib/src/core/lv_disp.h"
	.loc	20 182 34 is_stmt 1             @ ../GUILib/src/core/lv_disp.h:182:34
	bl	lv_disp_get_default
.Ltmp179:
	.loc	20 182 12 is_stmt 0             @ ../GUILib/src/core/lv_disp.h:182:12
	bl	lv_disp_get_layer_sys
.Ltmp180:
	.loc	12 246 22 is_stmt 1             @ ../GUILib/src/core/lv_refr.c:246:22
	bl	lv_label_create
.Ltmp181:
	.loc	12 247 9                        @ ../GUILib/src/core/lv_refr.c:247:9
	movs	r1, #127
	movs	r2, #0
	.loc	12 246 20                       @ ../GUILib/src/core/lv_refr.c:246:20
	str.w	r0, [r8]
	.loc	12 247 9                        @ ../GUILib/src/core/lv_refr.c:247:9
	bl	lv_obj_set_style_bg_opa
.Ltmp182:
	.loc	12 248 35                       @ ../GUILib/src/core/lv_refr.c:248:35
	ldr.w	r0, [r8]
	.loc	12 248 9 is_stmt 0              @ ../GUILib/src/core/lv_refr.c:248:9
	movs	r1, #0
	movs	r2, #0
	bl	lv_obj_set_style_bg_color
.Ltmp183:
	.loc	12 249 37 is_stmt 1             @ ../GUILib/src/core/lv_refr.c:249:37
	ldr.w	r0, [r8]
	.loc	12 249 9 is_stmt 0              @ ../GUILib/src/core/lv_refr.c:249:9
	movw	r1, #65535
	movs	r2, #0
	bl	lv_obj_set_style_text_color
.Ltmp184:
	.loc	12 250 34 is_stmt 1             @ ../GUILib/src/core/lv_refr.c:250:34
	ldr.w	r0, [r8]
	.loc	12 250 9 is_stmt 0              @ ../GUILib/src/core/lv_refr.c:250:9
	movs	r1, #3
	movs	r2, #0
	bl	lv_obj_set_style_pad_top
.Ltmp185:
	.loc	12 251 37 is_stmt 1             @ ../GUILib/src/core/lv_refr.c:251:37
	ldr.w	r0, [r8]
	.loc	12 251 9 is_stmt 0              @ ../GUILib/src/core/lv_refr.c:251:9
	movs	r1, #3
	movs	r2, #0
	bl	lv_obj_set_style_pad_bottom
.Ltmp186:
	.loc	12 252 35 is_stmt 1             @ ../GUILib/src/core/lv_refr.c:252:35
	ldr.w	r0, [r8]
	.loc	12 252 9 is_stmt 0              @ ../GUILib/src/core/lv_refr.c:252:9
	movs	r1, #3
	movs	r2, #0
	bl	lv_obj_set_style_pad_left
.Ltmp187:
	.loc	12 253 36 is_stmt 1             @ ../GUILib/src/core/lv_refr.c:253:36
	ldr.w	r0, [r8]
	.loc	12 253 9 is_stmt 0              @ ../GUILib/src/core/lv_refr.c:253:9
	movs	r1, #3
	movs	r2, #0
	bl	lv_obj_set_style_pad_right
.Ltmp188:
	.loc	12 254 37 is_stmt 1             @ ../GUILib/src/core/lv_refr.c:254:37
	ldr.w	r0, [r8]
	.loc	12 254 9 is_stmt 0              @ ../GUILib/src/core/lv_refr.c:254:9
	movs	r1, #3
	movs	r2, #0
	bl	lv_obj_set_style_text_align
.Ltmp189:
	.loc	12 255 27 is_stmt 1             @ ../GUILib/src/core/lv_refr.c:255:27
	ldr.w	r0, [r8]
	.loc	12 255 9 is_stmt 0              @ ../GUILib/src/core/lv_refr.c:255:9
	movw	r1, :lower16:.L.str
	movt	r1, :upper16:.L.str
	bl	lv_label_set_text
.Ltmp190:
	.loc	12 256 22 is_stmt 1             @ ../GUILib/src/core/lv_refr.c:256:22
	ldr.w	r0, [r8]
	.loc	12 256 9 is_stmt 0              @ ../GUILib/src/core/lv_refr.c:256:9
	movs	r1, #6
	movs	r2, #0
	movs	r3, #0
	bl	lv_obj_align
.Ltmp191:
.LBB2_60:
	.loc	12 262 22 is_stmt 1             @ ../GUILib/src/core/lv_refr.c:262:22
	movw	r4, :lower16:_lv_disp_refr_timer.perf_last_time
	movt	r4, :upper16:_lv_disp_refr_timer.perf_last_time
	ldr	r0, [r4]
	.loc	12 262 8 is_stmt 0              @ ../GUILib/src/core/lv_refr.c:262:8
	bl	lv_tick_elaps
.Ltmp192:
	.loc	12 262 8                        @ ../GUILib/src/core/lv_refr.c:262:8
	lsrs	r0, r0, #2
	cmp	r0, #74
	bhi	.LBB2_63
@ %bb.61:
.Ltmp193:
	.loc	12 263 12 is_stmt 1             @ ../GUILib/src/core/lv_refr.c:263:12
	ldr.w	r0, [r10]
	movw	r1, #5001
.Ltmp194:
	.loc	12 263 12 is_stmt 0             @ ../GUILib/src/core/lv_refr.c:263:12
	cmp	r0, r1
	blo	.LBB2_67
@ %bb.62:
.Ltmp195:
	.loc	12 264 23 is_stmt 1             @ ../GUILib/src/core/lv_refr.c:264:23
	movw	r1, :lower16:_lv_disp_refr_timer.elaps_sum
	movt	r1, :upper16:_lv_disp_refr_timer.elaps_sum
	.loc	12 264 26 is_stmt 0             @ ../GUILib/src/core/lv_refr.c:264:26
	ldr	r0, [sp, #64]
	.loc	12 264 23                       @ ../GUILib/src/core/lv_refr.c:264:23
	ldr	r2, [r1]
	add	r0, r2
	.loc	12 265 23 is_stmt 1             @ ../GUILib/src/core/lv_refr.c:265:23
	movw	r2, :lower16:_lv_disp_refr_timer.frame_cnt
	movt	r2, :upper16:_lv_disp_refr_timer.frame_cnt
	ldr	r3, [r2]
	.loc	12 264 23                       @ ../GUILib/src/core/lv_refr.c:264:23
	str	r0, [r1]
	.loc	12 265 23                       @ ../GUILib/src/core/lv_refr.c:265:23
	adds	r0, r3, #1
	str	r0, [r2]
	b	.LBB2_67
.Ltmp196:
.LBB2_63:
	.loc	12 269 26                       @ ../GUILib/src/core/lv_refr.c:269:26
	bl	lv_tick_get
.Ltmp197:
	.loc	12 270 37                       @ ../GUILib/src/core/lv_refr.c:270:37
	ldr.w	r1, [r9]
	.loc	12 269 24                       @ ../GUILib/src/core/lv_refr.c:269:24
	str	r0, [r4]
	.loc	12 270 48                       @ ../GUILib/src/core/lv_refr.c:270:48
	ldr	r1, [r1, #4]
	mov.w	r3, #1000
	.loc	12 270 60 is_stmt 0             @ ../GUILib/src/core/lv_refr.c:270:60
	ldr	r0, [r1]
.Ltmp198:
	.loc	12 274 12 is_stmt 1             @ ../GUILib/src/core/lv_refr.c:274:12
	movw	r1, :lower16:_lv_disp_refr_timer.frame_cnt
	movt	r1, :upper16:_lv_disp_refr_timer.frame_cnt
	ldr	r7, [r1]
.Ltmp199:
	.loc	12 270 35                       @ ../GUILib/src/core/lv_refr.c:270:35
	udiv	r0, r3, r0
.Ltmp200:
	@DEBUG_VALUE: fps_limit <- $r0
	.loc	12 273 12                       @ ../GUILib/src/core/lv_refr.c:273:12
	movw	r2, :lower16:_lv_disp_refr_timer.elaps_sum
	movt	r2, :upper16:_lv_disp_refr_timer.elaps_sum
.Ltmp201:
	.loc	12 274 12                       @ ../GUILib/src/core/lv_refr.c:274:12
	cbz	r7, .LBB2_65
.Ltmp202:
@ %bb.64:
	@DEBUG_VALUE: fps_limit <- $r0
	.loc	12 0 0 is_stmt 0                @ ../GUILib/src/core/lv_refr.c:0:0
	ldr	r6, [r2]
.Ltmp203:
	.loc	12 275 26 is_stmt 1             @ ../GUILib/src/core/lv_refr.c:275:26
	muls	r3, r7, r3
.Ltmp204:
	.loc	12 273 12                       @ ../GUILib/src/core/lv_refr.c:273:12
	cmp	r6, #0
	it	eq
	moveq	r6, #1
.Ltmp205:
	.loc	12 275 39                       @ ../GUILib/src/core/lv_refr.c:275:39
	udiv	r4, r3, r6
.Ltmp206:
	@DEBUG_VALUE: fps <- $r4
	.loc	12 0 39 is_stmt 0               @ ../GUILib/src/core/lv_refr.c:0:39
	b	.LBB2_66
.Ltmp207:
.LBB2_65:
	@DEBUG_VALUE: fps_limit <- $r0
	mov	r4, r0
.Ltmp208:
.LBB2_66:
	@DEBUG_VALUE: fps_limit <- $r0
	@DEBUG_VALUE: fps <- $r4
	movs	r3, #0
	.loc	12 277 19 is_stmt 1             @ ../GUILib/src/core/lv_refr.c:277:19
	str	r3, [r1]
	.loc	12 280 21                       @ ../GUILib/src/core/lv_refr.c:280:21
	movw	r1, :lower16:fps_sum_all
	movt	r1, :upper16:fps_sum_all
	.loc	12 276 19                       @ ../GUILib/src/core/lv_refr.c:276:19
	str	r3, [r2]
	.loc	12 280 21                       @ ../GUILib/src/core/lv_refr.c:280:21
	ldr	r2, [r1]
	.loc	12 278 12                       @ ../GUILib/src/core/lv_refr.c:278:12
	cmp	r4, r0
	it	hi
	movhi	r4, r0
.Ltmp209:
	@DEBUG_VALUE: fps_limit <- $r4
	@DEBUG_VALUE: fps <- $r4
	.loc	12 280 21                       @ ../GUILib/src/core/lv_refr.c:280:21
	adds	r0, r2, r4
	.loc	12 281 21                       @ ../GUILib/src/core/lv_refr.c:281:21
	movw	r2, :lower16:fps_sum_cnt
	movt	r2, :upper16:fps_sum_cnt
	ldr	r3, [r2]
	.loc	12 280 21                       @ ../GUILib/src/core/lv_refr.c:280:21
	str	r0, [r1]
	.loc	12 281 21                       @ ../GUILib/src/core/lv_refr.c:281:21
	adds	r0, r3, #1
	str	r0, [r2]
	.loc	12 282 34                       @ ../GUILib/src/core/lv_refr.c:282:34
	bl	lv_timer_get_idle
.Ltmp210:
	.loc	12 283 31                       @ ../GUILib/src/core/lv_refr.c:283:31
	ldr.w	r2, [r8]
	.loc	12 282 32                       @ ../GUILib/src/core/lv_refr.c:282:32
	rsb.w	r3, r0, #100
.Ltmp211:
	@DEBUG_VALUE: cpu <- $r3
	.loc	12 283 9                        @ ../GUILib/src/core/lv_refr.c:283:9
	adr	r1, .LCPI2_0
	mov	r0, r2
	mov	r2, r4
	bl	lv_label_set_text_fmt
.Ltmp212:
.LBB2_67:
	.loc	12 289 8                        @ ../GUILib/src/core/lv_refr.c:289:8
	movw	r4, :lower16:_lv_disp_refr_timer.mem_label
	movt	r4, :upper16:_lv_disp_refr_timer.mem_label
	ldr	r0, [r4]
.Ltmp213:
	.loc	12 289 8 is_stmt 0              @ ../GUILib/src/core/lv_refr.c:289:8
	cbnz	r0, .LBB2_69
@ %bb.68:
.Ltmp214:
	.loc	20 182 34 is_stmt 1             @ ../GUILib/src/core/lv_disp.h:182:34
	bl	lv_disp_get_default
.Ltmp215:
	.loc	20 182 12 is_stmt 0             @ ../GUILib/src/core/lv_disp.h:182:12
	bl	lv_disp_get_layer_sys
.Ltmp216:
	.loc	12 290 21 is_stmt 1             @ ../GUILib/src/core/lv_refr.c:290:21
	bl	lv_label_create
.Ltmp217:
	.loc	12 291 9                        @ ../GUILib/src/core/lv_refr.c:291:9
	movs	r1, #127
	movs	r2, #0
	.loc	12 290 19                       @ ../GUILib/src/core/lv_refr.c:290:19
	str	r0, [r4]
	.loc	12 291 9                        @ ../GUILib/src/core/lv_refr.c:291:9
	bl	lv_obj_set_style_bg_opa
.Ltmp218:
	.loc	12 292 35                       @ ../GUILib/src/core/lv_refr.c:292:35
	ldr	r0, [r4]
	.loc	12 292 9 is_stmt 0              @ ../GUILib/src/core/lv_refr.c:292:9
	movs	r1, #0
	movs	r2, #0
	bl	lv_obj_set_style_bg_color
.Ltmp219:
	.loc	12 293 37 is_stmt 1             @ ../GUILib/src/core/lv_refr.c:293:37
	ldr	r0, [r4]
	.loc	12 293 9 is_stmt 0              @ ../GUILib/src/core/lv_refr.c:293:9
	movw	r1, #65535
	movs	r2, #0
	bl	lv_obj_set_style_text_color
.Ltmp220:
	.loc	12 294 34 is_stmt 1             @ ../GUILib/src/core/lv_refr.c:294:34
	ldr	r0, [r4]
	.loc	12 294 9 is_stmt 0              @ ../GUILib/src/core/lv_refr.c:294:9
	movs	r1, #3
	movs	r2, #0
	bl	lv_obj_set_style_pad_top
.Ltmp221:
	.loc	12 295 37 is_stmt 1             @ ../GUILib/src/core/lv_refr.c:295:37
	ldr	r0, [r4]
	.loc	12 295 9 is_stmt 0              @ ../GUILib/src/core/lv_refr.c:295:9
	movs	r1, #3
	movs	r2, #0
	bl	lv_obj_set_style_pad_bottom
.Ltmp222:
	.loc	12 296 35 is_stmt 1             @ ../GUILib/src/core/lv_refr.c:296:35
	ldr	r0, [r4]
	.loc	12 296 9 is_stmt 0              @ ../GUILib/src/core/lv_refr.c:296:9
	movs	r1, #3
	movs	r2, #0
	bl	lv_obj_set_style_pad_left
.Ltmp223:
	.loc	12 297 36 is_stmt 1             @ ../GUILib/src/core/lv_refr.c:297:36
	ldr	r0, [r4]
	.loc	12 297 9 is_stmt 0              @ ../GUILib/src/core/lv_refr.c:297:9
	movs	r1, #3
	movs	r2, #0
	bl	lv_obj_set_style_pad_right
.Ltmp224:
	.loc	12 298 27 is_stmt 1             @ ../GUILib/src/core/lv_refr.c:298:27
	ldr	r0, [r4]
	.loc	12 298 9 is_stmt 0              @ ../GUILib/src/core/lv_refr.c:298:9
	movw	r1, :lower16:.L.str
	movt	r1, :upper16:.L.str
	bl	lv_label_set_text
.Ltmp225:
	.loc	12 299 22 is_stmt 1             @ ../GUILib/src/core/lv_refr.c:299:22
	ldr	r0, [r4]
	.loc	12 299 9 is_stmt 0              @ ../GUILib/src/core/lv_refr.c:299:9
	movs	r1, #4
	movs	r2, #0
	movs	r3, #0
	bl	lv_obj_align
.Ltmp226:
.LBB2_69:
	.loc	12 303 22 is_stmt 1             @ ../GUILib/src/core/lv_refr.c:303:22
	movw	r5, :lower16:_lv_disp_refr_timer.mem_last_time
	movt	r5, :upper16:_lv_disp_refr_timer.mem_last_time
	ldr	r0, [r5]
	.loc	12 303 8 is_stmt 0              @ ../GUILib/src/core/lv_refr.c:303:8
	bl	lv_tick_elaps
.Ltmp227:
	.loc	12 303 8                        @ ../GUILib/src/core/lv_refr.c:303:8
	cmp.w	r0, #300
	bls	.LBB2_71
@ %bb.70:
.Ltmp228:
	.loc	12 304 25 is_stmt 1             @ ../GUILib/src/core/lv_refr.c:304:25
	bl	lv_tick_get
.Ltmp229:
	.loc	12 304 23 is_stmt 0             @ ../GUILib/src/core/lv_refr.c:304:23
	str	r0, [r5]
	add	r0, sp, #36
	.loc	12 306 9 is_stmt 1              @ ../GUILib/src/core/lv_refr.c:306:9
	bl	lv_mem_monitor
.Ltmp230:
	.loc	12 307 34                       @ ../GUILib/src/core/lv_refr.c:307:34
	ldr	r0, [sp, #36]
	.loc	12 307 51 is_stmt 0             @ ../GUILib/src/core/lv_refr.c:307:51
	ldr	r1, [sp, #44]
	movw	r2, #41121
	.loc	12 307 45                       @ ../GUILib/src/core/lv_refr.c:307:45
	subs	r0, r0, r1
.Ltmp231:
	@DEBUG_VALUE: used_size <- $r0
	.loc	12 0 45                         @ ../GUILib/src/core/lv_refr.c:0:45
	movw	r1, #1022
	.loc	12 309 65 is_stmt 1             @ ../GUILib/src/core/lv_refr.c:309:65
	ands	r1, r0
	movt	r2, #41120
	umull	r1, r3, r1, r2
	.loc	12 311 73                       @ ../GUILib/src/core/lv_refr.c:311:73
	ldrb.w	r1, [sp, #60]
	.loc	12 308 38                       @ ../GUILib/src/core/lv_refr.c:308:38
	lsrs	r2, r0, #10
.Ltmp232:
	@DEBUG_VALUE: used_kb <- $r2
	.loc	12 310 31                       @ ../GUILib/src/core/lv_refr.c:310:31
	ldr	r0, [r4]
.Ltmp233:
	.loc	12 312 35                       @ ../GUILib/src/core/lv_refr.c:312:35
	ldrb.w	r7, [sp, #61]
	.loc	12 309 65                       @ ../GUILib/src/core/lv_refr.c:309:65
	lsrs	r3, r3, #6
.Ltmp234:
	@DEBUG_VALUE: used_kb_tenth <- $r3
	.loc	12 310 9                        @ ../GUILib/src/core/lv_refr.c:310:9
	str	r1, [sp]
	adr	r1, .LCPI2_1
	str	r7, [sp, #4]
	bl	lv_label_set_text_fmt
.Ltmp235:
.LBB2_71:
	.loc	12 317 1                        @ ../GUILib/src/core/lv_refr.c:317:1
	add	sp, #68
	pop.w	{r4, r5, r6, r7, r8, r9, r10, r11, pc}
.Ltmp236:
	.p2align	2
@ %bb.72:
	.loc	12 0 1 is_stmt 0                @ ../GUILib/src/core/lv_refr.c:0:1
.LCPI2_0:
.L.str.1:
	.asciz	"%u FPS\n%u%% CPU"
.LCPI2_1:
.L.str.2:
	.asciz	"%u.%u kB used (%d %%)\n%d%% frag.\000\000\000"
.Lfunc_end2:
	.size	_lv_disp_refr_timer, .Lfunc_end2-_lv_disp_refr_timer
	.cfi_endproc
	.cantunwind
	.fnend
                                        @ -- End function
	.section	.text._lv_inv_area,"ax",%progbits
	.hidden	_lv_inv_area                    @ -- Begin function _lv_inv_area
	.globl	_lv_inv_area
	.p2align	1
	.type	_lv_inv_area,%function
	.code	16                              @ @_lv_inv_area
	.thumb_func
_lv_inv_area:
.Lfunc_begin3:
	.loc	12 108 0 is_stmt 1              @ ../GUILib/src/core/lv_refr.c:108:0
	.fnstart
	.cfi_startproc
@ %bb.0:
	@DEBUG_VALUE: _lv_inv_area:disp <- $r0
	@DEBUG_VALUE: _lv_inv_area:area_p <- $r1
	.save	{r4, r5, r6, r7, lr}
	push	{r4, r5, r6, r7, lr}
	.cfi_def_cfa_offset 20
	.cfi_offset lr, -4
	.cfi_offset r7, -8
	.cfi_offset r6, -12
	.cfi_offset r5, -16
	.cfi_offset r4, -20
	.pad	#20
	sub	sp, #20
	.cfi_def_cfa_offset 40
	mov	r4, r0
.Ltmp237:
	@DEBUG_VALUE: _lv_inv_area:disp <- $r4
	mov	r5, r1
.Ltmp238:
	@DEBUG_VALUE: _lv_inv_area:area_p <- $r5
	@DEBUG_VALUE: _lv_inv_area:area_p <- $r5
	.loc	12 109 8 prologue_end           @ ../GUILib/src/core/lv_refr.c:109:8
	cbnz	r0, .LBB3_2
.Ltmp239:
@ %bb.1:
	@DEBUG_VALUE: _lv_inv_area:area_p <- $r5
	@DEBUG_VALUE: _lv_inv_area:disp <- $r4
	.loc	12 109 22 is_stmt 0             @ ../GUILib/src/core/lv_refr.c:109:22
	bl	lv_disp_get_default
.Ltmp240:
	mov	r4, r0
.Ltmp241:
	@DEBUG_VALUE: _lv_inv_area:disp <- [DW_OP_LLVM_entry_value 1] $r0
	@DEBUG_VALUE: _lv_inv_area:disp <- $r4
	.loc	12 110 8 is_stmt 1              @ ../GUILib/src/core/lv_refr.c:110:8
	cmp	r0, #0
	beq	.LBB3_19
.Ltmp242:
.LBB3_2:
	@DEBUG_VALUE: _lv_inv_area:area_p <- $r5
	@DEBUG_VALUE: _lv_inv_area:disp <- $r4
	.loc	12 0 8 is_stmt 0                @ ../GUILib/src/core/lv_refr.c:0:8
	movs	r0, #0
	.loc	12 113 8 is_stmt 1              @ ../GUILib/src/core/lv_refr.c:113:8
	cbz	r5, .LBB3_13
.Ltmp243:
@ %bb.3:
	@DEBUG_VALUE: _lv_inv_area:area_p <- $r5
	@DEBUG_VALUE: _lv_inv_area:disp <- $r4
	.loc	12 119 17                       @ ../GUILib/src/core/lv_refr.c:119:17
	str	r0, [sp, #8]
	.loc	12 121 19                       @ ../GUILib/src/core/lv_refr.c:121:19
	mov	r0, r4
	bl	lv_disp_get_hor_res
.Ltmp244:
	.loc	12 121 45 is_stmt 0             @ ../GUILib/src/core/lv_refr.c:121:45
	subs	r0, #1
	.loc	12 121 17                       @ ../GUILib/src/core/lv_refr.c:121:17
	strh.w	r0, [sp, #12]
	.loc	12 122 19 is_stmt 1             @ ../GUILib/src/core/lv_refr.c:122:19
	mov	r0, r4
	bl	lv_disp_get_ver_res
.Ltmp245:
	.loc	12 122 45 is_stmt 0             @ ../GUILib/src/core/lv_refr.c:122:45
	subs	r0, #1
	.loc	12 122 17                       @ ../GUILib/src/core/lv_refr.c:122:17
	strh.w	r0, [sp, #14]
	mov	r0, sp
	add	r2, sp, #8
	.loc	12 127 11 is_stmt 1             @ ../GUILib/src/core/lv_refr.c:127:11
	mov	r1, r5
	bl	_lv_area_intersect
.Ltmp246:
	@DEBUG_VALUE: _lv_inv_area:suc <- [DW_OP_LLVM_convert 1 7, DW_OP_LLVM_convert 8 7, DW_OP_stack_value] undef
	.loc	12 128 8                        @ ../GUILib/src/core/lv_refr.c:128:8
	cbz	r0, .LBB3_19
.Ltmp247:
@ %bb.4:
	@DEBUG_VALUE: _lv_inv_area:area_p <- $r5
	@DEBUG_VALUE: _lv_inv_area:disp <- $r4
	.loc	12 131 14                       @ ../GUILib/src/core/lv_refr.c:131:14
	ldr	r0, [r4]
.Ltmp248:
	.loc	12 131 8 is_stmt 0              @ ../GUILib/src/core/lv_refr.c:131:8
	ldrb	r1, [r0, #16]
	lsls	r1, r1, #30
	bmi	.LBB3_14
.Ltmp249:
@ %bb.5:
	@DEBUG_VALUE: _lv_inv_area:area_p <- $r5
	@DEBUG_VALUE: _lv_inv_area:disp <- $r4
	.loc	12 138 22 is_stmt 1             @ ../GUILib/src/core/lv_refr.c:138:22
	ldr	r2, [r0, #24]
.Ltmp250:
	.loc	12 138 8 is_stmt 0              @ ../GUILib/src/core/lv_refr.c:138:8
	cbz	r2, .LBB3_7
.Ltmp251:
@ %bb.6:
	@DEBUG_VALUE: _lv_inv_area:area_p <- $r5
	@DEBUG_VALUE: _lv_inv_area:disp <- $r4
	.loc	12 0 8                          @ ../GUILib/src/core/lv_refr.c:0:8
	mov	r1, sp
.Ltmp252:
	.loc	12 138 34                       @ ../GUILib/src/core/lv_refr.c:138:34
	blx	r2
.Ltmp253:
.LBB3_7:
	@DEBUG_VALUE: _lv_inv_area:area_p <- $r5
	@DEBUG_VALUE: _lv_inv_area:disp <- $r4
	@DEBUG_VALUE: _lv_inv_area:i <- 0
	.loc	12 142 26 is_stmt 1             @ ../GUILib/src/core/lv_refr.c:142:26
	ldrh.w	r0, [r4, #340]
.Ltmp254:
	.loc	12 142 5 is_stmt 0              @ ../GUILib/src/core/lv_refr.c:142:5
	cbz	r0, .LBB3_15
.Ltmp255:
@ %bb.8:
	@DEBUG_VALUE: _lv_inv_area:area_p <- $r5
	@DEBUG_VALUE: _lv_inv_area:disp <- $r4
	@DEBUG_VALUE: _lv_inv_area:i <- 0
	add.w	r5, r4, #52
.Ltmp256:
	@DEBUG_VALUE: _lv_inv_area:area_p <- [DW_OP_LLVM_entry_value 1] $r1
	.loc	12 0 5                          @ ../GUILib/src/core/lv_refr.c:0:5
	movs	r7, #0
	mov	r6, sp
.Ltmp257:
	.p2align	2
.LBB3_9:                                @ =>This Inner Loop Header: Depth=1
	@DEBUG_VALUE: _lv_inv_area:disp <- $r4
	@DEBUG_VALUE: _lv_inv_area:area_p <- [DW_OP_LLVM_entry_value 1] $r1
	@DEBUG_VALUE: _lv_inv_area:i <- $r7
	.loc	12 143 12 is_stmt 1             @ ../GUILib/src/core/lv_refr.c:143:12
	mov	r0, r6
	mov	r1, r5
	movs	r2, #0
	bl	_lv_area_is_in
.Ltmp258:
	@DEBUG_VALUE: _lv_inv_area:i <- undef
	.loc	12 143 12 is_stmt 0             @ ../GUILib/src/core/lv_refr.c:143:12
	cbnz	r0, .LBB3_19
.Ltmp259:
@ %bb.10:                               @   in Loop: Header=BB3_9 Depth=1
	@DEBUG_VALUE: _lv_inv_area:disp <- $r4
	@DEBUG_VALUE: _lv_inv_area:area_p <- [DW_OP_LLVM_entry_value 1] $r1
	.loc	12 142 26 is_stmt 1             @ ../GUILib/src/core/lv_refr.c:142:26
	ldrh.w	r0, [r4, #340]
.Ltmp260:
	.loc	12 0 0 is_stmt 0                @ ../GUILib/src/core/lv_refr.c:0:0
	adds	r7, #1
.Ltmp261:
	@DEBUG_VALUE: _lv_inv_area:i <- $r7
	.loc	12 142 5                        @ ../GUILib/src/core/lv_refr.c:142:5
	cmp	r7, r0
.Ltmp262:
	.loc	12 142 18                       @ ../GUILib/src/core/lv_refr.c:142:18
	add.w	r5, r5, #8
.Ltmp263:
	.loc	12 142 5                        @ ../GUILib/src/core/lv_refr.c:142:5
	blo	.LBB3_9
.Ltmp264:
@ %bb.11:
	@DEBUG_VALUE: _lv_inv_area:i <- $r7
	@DEBUG_VALUE: _lv_inv_area:disp <- $r4
	@DEBUG_VALUE: _lv_inv_area:area_p <- [DW_OP_LLVM_entry_value 1] $r1
	.loc	12 147 8 is_stmt 1              @ ../GUILib/src/core/lv_refr.c:147:8
	cmp	r0, #31
	bls	.LBB3_16
.Ltmp265:
@ %bb.12:
	@DEBUG_VALUE: _lv_inv_area:i <- $r7
	@DEBUG_VALUE: _lv_inv_area:disp <- $r4
	@DEBUG_VALUE: _lv_inv_area:area_p <- [DW_OP_LLVM_entry_value 1] $r1
	.loc	4 112 21                        @ ../GUILib/src/hal/../misc/lv_area.h:112:21
	ldrd	r1, r2, [sp, #8]
	movs	r0, #0
.Ltmp266:
	.loc	12 151 21                       @ ../GUILib/src/core/lv_refr.c:151:21
	strh.w	r0, [r4, #340]
.Ltmp267:
	@DEBUG_VALUE: lv_area_copy:src <- [DW_OP_plus_uconst 8, DW_OP_stack_value] $sp
	@DEBUG_VALUE: lv_area_copy:dest <- [DW_OP_plus_uconst 52, DW_OP_stack_value] $r4
	.loc	4 112 14                        @ ../GUILib/src/hal/../misc/lv_area.h:112:14
	str	r1, [r4, #52]
	.loc	4 114 14                        @ ../GUILib/src/hal/../misc/lv_area.h:114:14
	str	r2, [r4, #56]
	b	.LBB3_17
.Ltmp268:
.LBB3_13:
	@DEBUG_VALUE: _lv_inv_area:area_p <- $r5
	@DEBUG_VALUE: _lv_inv_area:disp <- $r4
	.loc	12 114 21 is_stmt 0             @ ../GUILib/src/core/lv_refr.c:114:21
	strh.w	r0, [r4, #340]
	b	.LBB3_19
.Ltmp269:
.LBB3_14:
	@DEBUG_VALUE: _lv_inv_area:area_p <- $r5
	@DEBUG_VALUE: _lv_inv_area:disp <- $r4
	.loc	12 132 30 is_stmt 1             @ ../GUILib/src/core/lv_refr.c:132:30
	ldrd	r0, r1, [sp, #8]
	strd	r0, r1, [r4, #52]
	movs	r1, #1
	b	.LBB3_18
.Ltmp270:
.LBB3_15:
	@DEBUG_VALUE: _lv_inv_area:area_p <- $r5
	@DEBUG_VALUE: _lv_inv_area:disp <- $r4
	@DEBUG_VALUE: _lv_inv_area:i <- 0
	.loc	12 0 30 is_stmt 0               @ ../GUILib/src/core/lv_refr.c:0:30
	movs	r0, #0
.Ltmp271:
.LBB3_16:
	@DEBUG_VALUE: _lv_inv_area:disp <- $r4
	@DEBUG_VALUE: lv_area_copy:dest <- undef
	@DEBUG_VALUE: lv_area_copy:src <- $sp
	.loc	4 112 21 is_stmt 1              @ ../GUILib/src/hal/../misc/lv_area.h:112:21
	ldrd	r2, r3, [sp]
	.loc	4 112 11 is_stmt 0              @ ../GUILib/src/hal/../misc/lv_area.h:112:11
	add.w	r1, r4, r0, lsl #3
	.loc	4 112 14                        @ ../GUILib/src/hal/../misc/lv_area.h:112:14
	str	r2, [r1, #52]
	.loc	4 114 14 is_stmt 1              @ ../GUILib/src/hal/../misc/lv_area.h:114:14
	str	r3, [r1, #56]
.Ltmp272:
.LBB3_17:
	@DEBUG_VALUE: _lv_inv_area:disp <- $r4
	.loc	12 154 16                       @ ../GUILib/src/core/lv_refr.c:154:16
	adds	r1, r0, #1
.Ltmp273:
.LBB3_18:
	@DEBUG_VALUE: _lv_inv_area:disp <- $r4
	.loc	12 0 0 is_stmt 0                @ ../GUILib/src/core/lv_refr.c:0:0
	ldr	r0, [r4, #4]
	strh.w	r1, [r4, #340]
	bl	lv_timer_resume
.Ltmp274:
.LBB3_19:
	@DEBUG_VALUE: _lv_inv_area:disp <- $r4
	.loc	12 156 1 is_stmt 1              @ ../GUILib/src/core/lv_refr.c:156:1
	add	sp, #20
	pop	{r4, r5, r6, r7, pc}
.Ltmp275:
.Lfunc_end3:
	.size	_lv_inv_area, .Lfunc_end3-_lv_inv_area
	.cfi_endproc
	.cantunwind
	.fnend
                                        @ -- End function
	.section	.text._lv_refr_get_disp_refreshing,"ax",%progbits
	.hidden	_lv_refr_get_disp_refreshing    @ -- Begin function _lv_refr_get_disp_refreshing
	.globl	_lv_refr_get_disp_refreshing
	.p2align	1
	.type	_lv_refr_get_disp_refreshing,%function
	.code	16                              @ @_lv_refr_get_disp_refreshing
	.thumb_func
_lv_refr_get_disp_refreshing:
.Lfunc_begin4:
	.loc	12 163 0                        @ ../GUILib/src/core/lv_refr.c:163:0
	.fnstart
	.cfi_startproc
@ %bb.0:
	.loc	12 164 12 prologue_end          @ ../GUILib/src/core/lv_refr.c:164:12
	movw	r0, :lower16:disp_refr
	movt	r0, :upper16:disp_refr
	ldr	r0, [r0]
	.loc	12 164 5 is_stmt 0              @ ../GUILib/src/core/lv_refr.c:164:5
	bx	lr
.Ltmp276:
.Lfunc_end4:
	.size	_lv_refr_get_disp_refreshing, .Lfunc_end4-_lv_refr_get_disp_refreshing
	.cfi_endproc
	.cantunwind
	.fnend
                                        @ -- End function
	.section	.text._lv_refr_set_disp_refreshing,"ax",%progbits
	.hidden	_lv_refr_set_disp_refreshing    @ -- Begin function _lv_refr_set_disp_refreshing
	.globl	_lv_refr_set_disp_refreshing
	.p2align	1
	.type	_lv_refr_set_disp_refreshing,%function
	.code	16                              @ @_lv_refr_set_disp_refreshing
	.thumb_func
_lv_refr_set_disp_refreshing:
.Lfunc_begin5:
	.loc	12 174 0 is_stmt 1              @ ../GUILib/src/core/lv_refr.c:174:0
	.fnstart
	.cfi_startproc
@ %bb.0:
	@DEBUG_VALUE: _lv_refr_set_disp_refreshing:disp <- $r0
	@DEBUG_VALUE: _lv_refr_set_disp_refreshing:disp <- $r0
	.loc	12 175 15 prologue_end          @ ../GUILib/src/core/lv_refr.c:175:15
	movw	r1, :lower16:disp_refr
	movt	r1, :upper16:disp_refr
	str	r0, [r1]
	.loc	12 176 1                        @ ../GUILib/src/core/lv_refr.c:176:1
	bx	lr
.Ltmp277:
.Lfunc_end5:
	.size	_lv_refr_set_disp_refreshing, .Lfunc_end5-_lv_refr_set_disp_refreshing
	.cfi_endproc
	.cantunwind
	.fnend
                                        @ -- End function
	.section	.text.draw_buf_flush,"ax",%progbits
	.p2align	1                               @ -- Begin function draw_buf_flush
	.type	draw_buf_flush,%function
	.code	16                              @ @draw_buf_flush
	.thumb_func
draw_buf_flush:
.Lfunc_begin6:
	.loc	12 938 0                        @ ../GUILib/src/core/lv_refr.c:938:0
	.fnstart
	.cfi_startproc
@ %bb.0:
	.save	{r4, r5, r6, r7, r8, r9, r10, r11, lr}
	push.w	{r4, r5, r6, r7, r8, r9, r10, r11, lr}
	.cfi_def_cfa_offset 36
	.cfi_offset lr, -4
	.cfi_offset r11, -8
	.cfi_offset r10, -12
	.cfi_offset r9, -16
	.cfi_offset r8, -20
	.cfi_offset r7, -24
	.cfi_offset r6, -28
	.cfi_offset r5, -32
	.cfi_offset r4, -36
	.pad	#76
	sub	sp, #76
	.cfi_def_cfa_offset 112
.Ltmp278:
	.loc	12 939 58 prologue_end          @ ../GUILib/src/core/lv_refr.c:939:58
	movw	r5, :lower16:disp_refr
	movt	r5, :upper16:disp_refr
	ldr	r0, [r5]
	.loc	12 939 37 is_stmt 0             @ ../GUILib/src/core/lv_refr.c:939:37
	bl	lv_disp_get_draw_buf
.Ltmp279:
	.loc	12 164 12 is_stmt 1             @ ../GUILib/src/core/lv_refr.c:164:12
	ldr	r6, [r5]
.Ltmp280:
	@DEBUG_VALUE: draw_buf_flush:disp <- $r6
	.loc	12 940 38                       @ ../GUILib/src/core/lv_refr.c:940:38
	ldr.w	r8, [r0, #8]
.Ltmp281:
	@DEBUG_VALUE: draw_buf_flush:color_p <- $r8
	.loc	12 944 14                       @ ../GUILib/src/core/lv_refr.c:944:14
	ldr	r1, [r6]
.Ltmp282:
	.loc	12 939 37                       @ ../GUILib/src/core/lv_refr.c:939:37
	mov	r4, r0
.Ltmp283:
	@DEBUG_VALUE: draw_buf_flush:draw_buf <- $r4
	.loc	12 944 22                       @ ../GUILib/src/core/lv_refr.c:944:22
	ldr	r2, [r1, #44]
.Ltmp284:
	.loc	12 944 8 is_stmt 0              @ ../GUILib/src/core/lv_refr.c:944:8
	cbz	r2, .LBB6_2
.Ltmp285:
@ %bb.1:
	@DEBUG_VALUE: draw_buf_flush:color_p <- $r8
	@DEBUG_VALUE: draw_buf_flush:disp <- $r6
	@DEBUG_VALUE: draw_buf_flush:draw_buf <- $r4
	.loc	12 944 35                       @ ../GUILib/src/core/lv_refr.c:944:35
	mov	r0, r1
	blx	r2
.Ltmp286:
.LBB6_2:
	@DEBUG_VALUE: draw_buf_flush:color_p <- $r8
	@DEBUG_VALUE: draw_buf_flush:disp <- $r6
	@DEBUG_VALUE: draw_buf_flush:draw_buf <- $r4
	.loc	12 948 18 is_stmt 1             @ ../GUILib/src/core/lv_refr.c:948:18
	ldr	r0, [r4]
	.loc	12 948 23 is_stmt 0             @ ../GUILib/src/core/lv_refr.c:948:23
	cbz	r0, .LBB6_7
.Ltmp287:
@ %bb.3:
	@DEBUG_VALUE: draw_buf_flush:color_p <- $r8
	@DEBUG_VALUE: draw_buf_flush:disp <- $r6
	@DEBUG_VALUE: draw_buf_flush:draw_buf <- $r4
	.loc	12 948 36                       @ ../GUILib/src/core/lv_refr.c:948:36
	ldr	r0, [r4, #4]
.Ltmp288:
	.loc	12 948 8                        @ ../GUILib/src/core/lv_refr.c:948:8
	cbz	r0, .LBB6_7
.Ltmp289:
	.p2align	2
.LBB6_4:                                @ =>This Inner Loop Header: Depth=1
	@DEBUG_VALUE: draw_buf_flush:color_p <- $r8
	@DEBUG_VALUE: draw_buf_flush:disp <- $r6
	@DEBUG_VALUE: draw_buf_flush:draw_buf <- $r4
	.loc	12 949 25 is_stmt 1             @ ../GUILib/src/core/lv_refr.c:949:25
	ldr	r0, [r4, #24]
	.loc	12 949 9 is_stmt 0              @ ../GUILib/src/core/lv_refr.c:949:9
	cbz	r0, .LBB6_7
.Ltmp290:
@ %bb.5:                                @   in Loop: Header=BB6_4 Depth=1
	@DEBUG_VALUE: draw_buf_flush:color_p <- $r8
	@DEBUG_VALUE: draw_buf_flush:disp <- $r6
	@DEBUG_VALUE: draw_buf_flush:draw_buf <- $r4
	.loc	12 950 16 is_stmt 1             @ ../GUILib/src/core/lv_refr.c:950:16
	ldr	r0, [r5]
	.loc	12 950 27 is_stmt 0             @ ../GUILib/src/core/lv_refr.c:950:27
	ldr	r0, [r0]
	.loc	12 950 35                       @ ../GUILib/src/core/lv_refr.c:950:35
	ldr	r1, [r0, #36]
.Ltmp291:
	.loc	12 950 16                       @ ../GUILib/src/core/lv_refr.c:950:16
	cmp	r1, #0
	beq	.LBB6_4
.Ltmp292:
@ %bb.6:                                @   in Loop: Header=BB6_4 Depth=1
	@DEBUG_VALUE: draw_buf_flush:color_p <- $r8
	@DEBUG_VALUE: draw_buf_flush:disp <- $r6
	@DEBUG_VALUE: draw_buf_flush:draw_buf <- $r4
	.loc	12 950 44                       @ ../GUILib/src/core/lv_refr.c:950:44
	blx	r1
.Ltmp293:
	.loc	12 0 44                         @ ../GUILib/src/core/lv_refr.c:0:44
	b	.LBB6_4
.Ltmp294:
.LBB6_7:
	@DEBUG_VALUE: draw_buf_flush:color_p <- $r8
	@DEBUG_VALUE: draw_buf_flush:disp <- $r6
	@DEBUG_VALUE: draw_buf_flush:draw_buf <- $r4
	movs	r0, #1
	.loc	12 954 24 is_stmt 1             @ ../GUILib/src/core/lv_refr.c:954:24
	str	r0, [r4, #24]
.Ltmp295:
	.loc	12 956 8                        @ ../GUILib/src/core/lv_refr.c:956:8
	ldr	r0, [r5]
	.loc	12 956 19 is_stmt 0             @ ../GUILib/src/core/lv_refr.c:956:19
	ldr.w	r9, [r0]
	.loc	12 956 27                       @ ../GUILib/src/core/lv_refr.c:956:27
	ldr.w	r1, [r9, #12]
	.loc	12 956 37                       @ ../GUILib/src/core/lv_refr.c:956:37
	ldr	r2, [r1, #32]
	.loc	12 956 47                       @ ../GUILib/src/core/lv_refr.c:956:47
	lsls	r2, r2, #31
	beq	.LBB6_9
.Ltmp296:
@ %bb.8:
	@DEBUG_VALUE: draw_buf_flush:color_p <- $r8
	@DEBUG_VALUE: draw_buf_flush:disp <- $r6
	@DEBUG_VALUE: draw_buf_flush:draw_buf <- $r4
	.loc	12 956 79                       @ ../GUILib/src/core/lv_refr.c:956:79
	ldr	r1, [r1, #32]
.Ltmp297:
	.loc	12 956 8                        @ ../GUILib/src/core/lv_refr.c:956:8
	lsls	r1, r1, #30
	bmi	.LBB6_10
.Ltmp298:
.LBB6_9:
	@DEBUG_VALUE: draw_buf_flush:color_p <- $r8
	@DEBUG_VALUE: draw_buf_flush:disp <- $r6
	@DEBUG_VALUE: draw_buf_flush:draw_buf <- $r4
	.loc	12 0 8                          @ ../GUILib/src/core/lv_refr.c:0:8
	movs	r1, #0
	b	.LBB6_11
.Ltmp299:
.LBB6_10:
	@DEBUG_VALUE: draw_buf_flush:color_p <- $r8
	@DEBUG_VALUE: draw_buf_flush:disp <- $r6
	@DEBUG_VALUE: draw_buf_flush:draw_buf <- $r4
	movs	r1, #1
.Ltmp300:
.LBB6_11:
	@DEBUG_VALUE: draw_buf_flush:color_p <- $r8
	@DEBUG_VALUE: draw_buf_flush:disp <- $r6
	@DEBUG_VALUE: draw_buf_flush:draw_buf <- $r4
	str	r1, [r4, #28]
.Ltmp301:
	.loc	12 959 14 is_stmt 1             @ ../GUILib/src/core/lv_refr.c:959:14
	ldr	r2, [r6]
	.loc	12 959 22 is_stmt 0             @ ../GUILib/src/core/lv_refr.c:959:22
	ldr	r3, [r2, #20]
.Ltmp302:
	.loc	12 959 8                        @ ../GUILib/src/core/lv_refr.c:959:8
	cbz	r3, .LBB6_15
.Ltmp303:
@ %bb.12:
	@DEBUG_VALUE: draw_buf_flush:color_p <- $r8
	@DEBUG_VALUE: draw_buf_flush:disp <- $r6
	@DEBUG_VALUE: draw_buf_flush:draw_buf <- $r4
	.loc	12 961 26 is_stmt 1             @ ../GUILib/src/core/lv_refr.c:961:26
	ldr	r1, [r2, #16]
	.loc	12 961 54 is_stmt 0             @ ../GUILib/src/core/lv_refr.c:961:54
	tst.w	r1, #48
	it	ne
	andsne	r1, r1, #4
	bne	.LBB6_19
.Ltmp304:
@ %bb.13:
	@DEBUG_VALUE: draw_buf_flush:color_p <- $r8
	@DEBUG_VALUE: draw_buf_flush:disp <- $r6
	@DEBUG_VALUE: draw_buf_flush:draw_buf <- $r4
	@DEBUG_VALUE: call_flush_cb:drv <- $r2
	@DEBUG_VALUE: call_flush_cb:area <- [DW_OP_plus_uconst 16, DW_OP_stack_value] $r4
	@DEBUG_VALUE: call_flush_cb:color_p <- $r8
	.loc	12 982 21 is_stmt 1             @ ../GUILib/src/core/lv_refr.c:982:21
	ldrh	r0, [r4, #16]
	.loc	12 982 31 is_stmt 0             @ ../GUILib/src/core/lv_refr.c:982:31
	ldrh	r1, [r2, #8]
	.loc	12 983 21 is_stmt 1             @ ../GUILib/src/core/lv_refr.c:983:21
	ldrh	r7, [r4, #18]
	.loc	12 983 31 is_stmt 0             @ ../GUILib/src/core/lv_refr.c:983:31
	ldrh	r6, [r2, #10]
.Ltmp305:
	.loc	12 982 24 is_stmt 1             @ ../GUILib/src/core/lv_refr.c:982:24
	add	r0, r1
	.loc	12 981 29                       @ ../GUILib/src/core/lv_refr.c:981:29
	strh.w	r0, [sp, #68]
	.loc	12 983 24                       @ ../GUILib/src/core/lv_refr.c:983:24
	adds	r0, r6, r7
	.loc	12 984 21                       @ ../GUILib/src/core/lv_refr.c:984:21
	ldrh	r7, [r4, #20]
	.loc	12 981 29                       @ ../GUILib/src/core/lv_refr.c:981:29
	strh.w	r0, [sp, #70]
	.loc	12 984 24                       @ ../GUILib/src/core/lv_refr.c:984:24
	adds	r0, r7, r1
	.loc	12 985 21                       @ ../GUILib/src/core/lv_refr.c:985:21
	ldrh	r1, [r4, #22]
	.loc	12 981 29                       @ ../GUILib/src/core/lv_refr.c:981:29
	strh.w	r0, [sp, #72]
	.loc	12 985 24                       @ ../GUILib/src/core/lv_refr.c:985:24
	adds	r0, r1, r6
	.loc	12 981 29                       @ ../GUILib/src/core/lv_refr.c:981:29
	strh.w	r0, [sp, #74]
	add	r1, sp, #68
	.loc	12 988 5                        @ ../GUILib/src/core/lv_refr.c:988:5
	mov	r0, r2
	mov	r2, r8
.Ltmp306:
.LBB6_14:
	@DEBUG_VALUE: draw_buf_flush:color_p <- $r8
	@DEBUG_VALUE: draw_buf_flush:draw_buf <- $r4
	.loc	12 0 0 is_stmt 0                @ ../GUILib/src/core/lv_refr.c:0:0
	blx	r3
.Ltmp307:
.LBB6_15:
	.loc	12 968 18 is_stmt 1             @ ../GUILib/src/core/lv_refr.c:968:18
	ldr	r0, [r4]
	.loc	12 968 23 is_stmt 0             @ ../GUILib/src/core/lv_refr.c:968:23
	cbz	r0, .LBB6_18
@ %bb.16:
	.loc	12 968 36                       @ ../GUILib/src/core/lv_refr.c:968:36
	ldr	r1, [r4, #4]
.Ltmp308:
	.loc	12 968 8                        @ ../GUILib/src/core/lv_refr.c:968:8
	cbz	r1, .LBB6_18
@ %bb.17:
.Ltmp309:
	.loc	12 969 22 is_stmt 1             @ ../GUILib/src/core/lv_refr.c:969:22
	ldr	r2, [r4, #8]
.Ltmp310:
	.loc	12 969 12 is_stmt 0             @ ../GUILib/src/core/lv_refr.c:969:12
	cmp	r2, r0
.Ltmp311:
	.loc	12 972 31 is_stmt 1             @ ../GUILib/src/core/lv_refr.c:972:31
	ite	ne
	strne	r0, [r4, #8]
	.loc	12 970 31                       @ ../GUILib/src/core/lv_refr.c:970:31
	streq	r1, [r4, #8]
.Ltmp312:
.LBB6_18:
	.loc	12 974 1                        @ ../GUILib/src/core/lv_refr.c:974:1
	add	sp, #76
	pop.w	{r4, r5, r6, r7, r8, r9, r10, r11, pc}
.LBB6_19:
.Ltmp313:
	@DEBUG_VALUE: draw_buf_flush:color_p <- $r8
	@DEBUG_VALUE: draw_buf_flush:disp <- $r6
	@DEBUG_VALUE: draw_buf_flush:draw_buf <- $r4
	@DEBUG_VALUE: draw_buf_rotate:color_p <- undef
	@DEBUG_VALUE: draw_buf_rotate:area <- [DW_OP_plus_uconst 16, DW_OP_stack_value] $r4
	@DEBUG_VALUE: draw_buf_rotate:drv <- $r9
	.loc	12 851 27                       @ ../GUILib/src/core/lv_refr.c:851:27
	ldr.w	r1, [r9, #16]
	.loc	12 851 40 is_stmt 0             @ ../GUILib/src/core/lv_refr.c:851:40
	and	r2, r1, #6
	cmp	r2, #6
	beq	.LBB6_15
.Ltmp314:
@ %bb.20:
	@DEBUG_VALUE: draw_buf_rotate:drv <- $r9
	@DEBUG_VALUE: draw_buf_flush:color_p <- $r8
	@DEBUG_VALUE: draw_buf_flush:disp <- $r6
	@DEBUG_VALUE: draw_buf_rotate:area <- [DW_OP_plus_uconst 16, DW_OP_stack_value] $r4
	@DEBUG_VALUE: draw_buf_flush:draw_buf <- $r4
	.loc	12 0 0                          @ ../GUILib/src/core/lv_refr.c:0:0
	ldr.w	r11, [r4, #8]
.Ltmp315:
	@DEBUG_VALUE: draw_buf_rotate:color_p <- $r11
	.loc	12 855 13 is_stmt 1             @ ../GUILib/src/core/lv_refr.c:855:13
	ubfx	r1, r1, #4, #2
.Ltmp316:
	.loc	12 855 8 is_stmt 0              @ ../GUILib/src/core/lv_refr.c:855:8
	cmp	r1, #1
	it	ne
	cmpne	r1, #3
	bne	.LBB6_23
.Ltmp317:
@ %bb.21:
	@DEBUG_VALUE: draw_buf_rotate:color_p <- $r11
	@DEBUG_VALUE: draw_buf_rotate:drv <- $r9
	@DEBUG_VALUE: draw_buf_flush:color_p <- $r8
	@DEBUG_VALUE: draw_buf_flush:disp <- $r6
	@DEBUG_VALUE: draw_buf_rotate:area <- [DW_OP_plus_uconst 16, DW_OP_stack_value] $r4
	@DEBUG_VALUE: draw_buf_flush:draw_buf <- $r4
	@DEBUG_VALUE: rot_buf <- 0
	.loc	12 862 41 is_stmt 1             @ ../GUILib/src/core/lv_refr.c:862:41
	bl	lv_disp_get_draw_buf
.Ltmp318:
	.loc	4 125 33                        @ ../GUILib/src/hal/../misc/lv_area.h:125:33
	ldrh	r2, [r4, #20]
	.loc	4 125 46 is_stmt 0              @ ../GUILib/src/hal/../misc/lv_area.h:125:46
	ldrh	r1, [r4, #16]
.Ltmp319:
	.loc	4 135 33 is_stmt 1              @ ../GUILib/src/hal/../misc/lv_area.h:135:33
	ldrh	r7, [r4, #22]
.Ltmp320:
	.loc	4 125 49                        @ ../GUILib/src/hal/../misc/lv_area.h:125:49
	subs	r3, r2, r1
.Ltmp321:
	.loc	4 135 46                        @ ../GUILib/src/hal/../misc/lv_area.h:135:46
	ldrh	r6, [r4, #18]
.Ltmp322:
	.loc	4 125 49                        @ ../GUILib/src/hal/../misc/lv_area.h:125:49
	adds	r3, #1
.Ltmp323:
	@DEBUG_VALUE: area_w <- $r3
	sxth.w	r10, r3
.Ltmp324:
	.loc	4 135 49                        @ ../GUILib/src/hal/../misc/lv_area.h:135:49
	subs	r3, r7, r6
.Ltmp325:
	adds	r3, #1
.Ltmp326:
	@DEBUG_VALUE: area_h <- $r3
	.loc	4 0 49 is_stmt 0                @ ../GUILib/src/hal/../misc/lv_area.h:0:49
	mov.w	r7, #5120
	str	r6, [sp, #24]                   @ 4-byte Spill
.Ltmp327:
	@DEBUG_VALUE: lv_area_get_height:area_p <- [DW_OP_plus_uconst 16, DW_OP_stack_value] $r4
	.loc	12 866 30 is_stmt 1             @ ../GUILib/src/core/lv_refr.c:866:30
	udiv	r7, r7, r10
.Ltmp328:
	.loc	4 135 49                        @ ../GUILib/src/hal/../misc/lv_area.h:135:49
	sxth	r6, r3
.Ltmp329:
	@DEBUG_VALUE: lv_area_get_height:area_p <- [DW_OP_plus_uconst 16, DW_OP_stack_value] $r4
	.loc	12 869 17                       @ ../GUILib/src/core/lv_refr.c:869:17
	ldr.w	r3, [r9, #16]
.Ltmp330:
	.loc	12 866 30                       @ ../GUILib/src/core/lv_refr.c:866:30
	cmp	r7, r6
.Ltmp331:
	.loc	12 869 25                       @ ../GUILib/src/core/lv_refr.c:869:25
	and	r3, r3, #48
	mov	r12, r6
.Ltmp332:
	.loc	12 866 30                       @ ../GUILib/src/core/lv_refr.c:866:30
	it	ge
	movge	r7, r6
.Ltmp333:
	@DEBUG_VALUE: init_y_off <- [DW_OP_plus_uconst 24] [$sp+0]
	@DEBUG_VALUE: max_row <- [DW_OP_LLVM_convert 32 7, DW_OP_LLVM_convert 16 7, DW_OP_stack_value] $r7
	.loc	12 869 12                       @ ../GUILib/src/core/lv_refr.c:869:12
	cmp	r3, #16
	.loc	12 862 41                       @ ../GUILib/src/core/lv_refr.c:862:41
	mov	r5, r0
	@DEBUG_VALUE: lv_area_get_width:area_p <- [DW_OP_plus_uconst 16, DW_OP_stack_value] $r4
.Ltmp334:
	@DEBUG_VALUE: draw_buf <- $r5
	.loc	12 0 41 is_stmt 0               @ ../GUILib/src/core/lv_refr.c:0:41
	str	r7, [sp, #32]                   @ 4-byte Spill
.Ltmp335:
	@DEBUG_VALUE: max_row <- [DW_OP_plus_uconst 32, DW_OP_LLVM_convert 32 7, DW_OP_LLVM_convert 16 7, DW_OP_stack_value] [$sp+0]
	@DEBUG_VALUE: max_row <- [DW_OP_plus_uconst 32, DW_OP_deref_size 4, DW_OP_LLVM_convert 32 7, DW_OP_LLVM_convert 16 7, DW_OP_stack_value] $sp
	.loc	12 869 12 is_stmt 1             @ ../GUILib/src/core/lv_refr.c:869:12
	bne	.LBB6_29
.Ltmp336:
@ %bb.22:
	@DEBUG_VALUE: draw_buf_rotate:color_p <- $r11
	@DEBUG_VALUE: draw_buf_rotate:drv <- $r9
	@DEBUG_VALUE: draw_buf_flush:color_p <- $r8
	@DEBUG_VALUE: draw_buf <- $r5
	@DEBUG_VALUE: draw_buf_rotate:area <- [DW_OP_plus_uconst 16, DW_OP_stack_value] $r4
	@DEBUG_VALUE: draw_buf_flush:draw_buf <- $r4
	@DEBUG_VALUE: max_row <- [DW_OP_plus_uconst 32, DW_OP_deref_size 4, DW_OP_LLVM_convert 32 7, DW_OP_LLVM_convert 16 7, DW_OP_stack_value] $sp
	@DEBUG_VALUE: init_y_off <- [DW_OP_plus_uconst 24] [$sp+0]
	@DEBUG_VALUE: rot_buf <- 0
	.loc	12 870 29                       @ ../GUILib/src/core/lv_refr.c:870:29
	ldrh.w	r0, [r9, #2]
	.loc	12 870 48 is_stmt 0             @ ../GUILib/src/core/lv_refr.c:870:48
	mvns	r1, r1
	add	r0, r1
	.loc	12 870 22                       @ ../GUILib/src/core/lv_refr.c:870:22
	strh	r0, [r4, #22]
	.loc	12 871 42 is_stmt 1             @ ../GUILib/src/core/lv_refr.c:871:42
	sub.w	r0, r0, r10
	adds	r0, #1
	mov	r1, r4
	.loc	12 871 22 is_stmt 0             @ ../GUILib/src/core/lv_refr.c:871:22
	strh	r0, [r4, #18]
	b	.LBB6_30
.Ltmp337:
.LBB6_23:
	@DEBUG_VALUE: draw_buf_rotate:color_p <- $r11
	@DEBUG_VALUE: draw_buf_rotate:drv <- $r9
	@DEBUG_VALUE: draw_buf_flush:color_p <- $r8
	@DEBUG_VALUE: draw_buf_flush:disp <- $r6
	@DEBUG_VALUE: draw_buf_rotate:area <- [DW_OP_plus_uconst 16, DW_OP_stack_value] $r4
	@DEBUG_VALUE: draw_buf_flush:draw_buf <- $r4
	.loc	12 855 8 is_stmt 1              @ ../GUILib/src/core/lv_refr.c:855:8
	cmp	r1, #2
	bne	.LBB6_15
.Ltmp338:
@ %bb.24:
	@DEBUG_VALUE: draw_buf_rotate:color_p <- $r11
	@DEBUG_VALUE: draw_buf_rotate:drv <- $r9
	@DEBUG_VALUE: draw_buf_flush:color_p <- $r8
	@DEBUG_VALUE: draw_buf_flush:disp <- $r6
	@DEBUG_VALUE: draw_buf_rotate:area <- [DW_OP_plus_uconst 16, DW_OP_stack_value] $r4
	@DEBUG_VALUE: draw_buf_flush:draw_buf <- $r4
	@DEBUG_VALUE: draw_buf_rotate_180:drv <- $r9
	@DEBUG_VALUE: draw_buf_rotate_180:area <- [DW_OP_plus_uconst 16, DW_OP_stack_value] $r4
	@DEBUG_VALUE: draw_buf_rotate_180:color_p <- $r11
	@DEBUG_VALUE: lv_area_get_width:area_p <- [DW_OP_plus_uconst 16, DW_OP_stack_value] $r4
	.loc	4 125 33                        @ ../GUILib/src/hal/../misc/lv_area.h:125:33
	ldrh	r0, [r4, #20]
	.loc	4 125 46 is_stmt 0              @ ../GUILib/src/hal/../misc/lv_area.h:125:46
	ldrh	r1, [r4, #16]
.Ltmp339:
	.loc	4 135 33 is_stmt 1              @ ../GUILib/src/hal/../misc/lv_area.h:135:33
	ldrh	r2, [r4, #22]
	.loc	4 135 46 is_stmt 0              @ ../GUILib/src/hal/../misc/lv_area.h:135:46
	ldrh	r3, [r4, #18]
.Ltmp340:
	.loc	4 125 49 is_stmt 1              @ ../GUILib/src/hal/../misc/lv_area.h:125:49
	subs	r7, r0, r1
.Ltmp341:
	.loc	4 135 49                        @ ../GUILib/src/hal/../misc/lv_area.h:135:49
	subs	r6, r2, r3
.Ltmp342:
	.loc	4 125 49                        @ ../GUILib/src/hal/../misc/lv_area.h:125:49
	adds	r7, #1
.Ltmp343:
	@DEBUG_VALUE: lv_area_get_height:area_p <- [DW_OP_plus_uconst 16, DW_OP_stack_value] $r4
	@DEBUG_VALUE: draw_buf_rotate_180:area_w <- $r7
	@DEBUG_VALUE: lv_area_get_width:area_p <- [DW_OP_plus_uconst 16, DW_OP_stack_value] $r4
	.loc	4 135 49                        @ ../GUILib/src/hal/../misc/lv_area.h:135:49
	adds	r6, #1
.Ltmp344:
	@DEBUG_VALUE: draw_buf_rotate_180:area_h <- $r6
	.loc	4 0 49 is_stmt 0                @ ../GUILib/src/hal/../misc/lv_area.h:0:49
	mov.w	r5, #-1
.Ltmp345:
	@DEBUG_VALUE: draw_buf_rotate_180:j <- 0
	@DEBUG_VALUE: draw_buf_rotate_180:i <- [DW_OP_constu 1, DW_OP_minus, DW_OP_stack_value] undef
	@DEBUG_VALUE: draw_buf_rotate_180:total <- undef
	smlabb	r7, r6, r7, r5
.Ltmp346:
	@DEBUG_VALUE: draw_buf_rotate_180:i <- $r7
	.loc	12 765 5 is_stmt 1              @ ../GUILib/src/core/lv_refr.c:765:5
	cbz	r7, .LBB6_28
.Ltmp347:
@ %bb.25:
	@DEBUG_VALUE: draw_buf_rotate_180:color_p <- $r11
	@DEBUG_VALUE: draw_buf_rotate:color_p <- $r11
	@DEBUG_VALUE: draw_buf_rotate_180:drv <- $r9
	@DEBUG_VALUE: draw_buf_rotate:drv <- $r9
	@DEBUG_VALUE: draw_buf_flush:color_p <- $r8
	@DEBUG_VALUE: draw_buf_rotate_180:i <- $r7
	@DEBUG_VALUE: draw_buf_rotate_180:area_h <- $r6
	@DEBUG_VALUE: lv_area_get_height:area_p <- [DW_OP_plus_uconst 16, DW_OP_stack_value] $r4
	@DEBUG_VALUE: lv_area_get_width:area_p <- [DW_OP_plus_uconst 16, DW_OP_stack_value] $r4
	@DEBUG_VALUE: draw_buf_rotate_180:area <- [DW_OP_plus_uconst 16, DW_OP_stack_value] $r4
	@DEBUG_VALUE: draw_buf_rotate:area <- [DW_OP_plus_uconst 16, DW_OP_stack_value] $r4
	@DEBUG_VALUE: draw_buf_flush:draw_buf <- $r4
	@DEBUG_VALUE: draw_buf_rotate_180:j <- 0
	.loc	12 0 5 is_stmt 0                @ ../GUILib/src/core/lv_refr.c:0:5
	movs	r0, #0
.Ltmp348:
	.p2align	2
.LBB6_26:                               @ =>This Inner Loop Header: Depth=1
	@DEBUG_VALUE: draw_buf_rotate_180:color_p <- $r11
	@DEBUG_VALUE: draw_buf_rotate:color_p <- $r11
	@DEBUG_VALUE: draw_buf_rotate_180:drv <- $r9
	@DEBUG_VALUE: draw_buf_rotate:drv <- $r9
	@DEBUG_VALUE: draw_buf_flush:color_p <- $r8
	@DEBUG_VALUE: draw_buf_rotate_180:i <- $r7
	@DEBUG_VALUE: draw_buf_rotate_180:area_h <- $r6
	@DEBUG_VALUE: draw_buf_rotate_180:area <- [DW_OP_plus_uconst 16, DW_OP_stack_value] $r4
	@DEBUG_VALUE: draw_buf_rotate:area <- [DW_OP_plus_uconst 16, DW_OP_stack_value] $r4
	@DEBUG_VALUE: draw_buf_flush:draw_buf <- $r4
	@DEBUG_VALUE: draw_buf_rotate_180:j <- $r0
	.loc	12 767 22 is_stmt 1             @ ../GUILib/src/core/lv_refr.c:767:22
	ldrh.w	r1, [r11, r0, lsl #1]
	.loc	12 766 15                       @ ../GUILib/src/core/lv_refr.c:766:15
	ldrh.w	r2, [r11, r7, lsl #1]
.Ltmp349:
	@DEBUG_VALUE: draw_buf_rotate_180:tmp <- $r2
	.loc	12 767 22                       @ ../GUILib/src/core/lv_refr.c:767:22
	strh.w	r1, [r11, r7, lsl #1]
	.loc	12 768 22                       @ ../GUILib/src/core/lv_refr.c:768:22
	strh.w	r2, [r11, r0, lsl #1]
.Ltmp350:
	@DEBUG_VALUE: draw_buf_rotate_180:i <- [DW_OP_constu 1, DW_OP_minus, DW_OP_stack_value] $r7
	.loc	12 770 10                       @ ../GUILib/src/core/lv_refr.c:770:10
	adds	r0, #1
.Ltmp351:
	@DEBUG_VALUE: draw_buf_rotate_180:j <- $r0
	.loc	12 0 0 is_stmt 0                @ ../GUILib/src/core/lv_refr.c:0:0
	subs	r7, #1
.Ltmp352:
	@DEBUG_VALUE: draw_buf_rotate_180:i <- $r7
	.loc	12 765 5 is_stmt 1              @ ../GUILib/src/core/lv_refr.c:765:5
	cmp	r7, r0
	bhi	.LBB6_26
.Ltmp353:
@ %bb.27:
	@DEBUG_VALUE: draw_buf_rotate_180:color_p <- $r11
	@DEBUG_VALUE: draw_buf_rotate:color_p <- $r11
	@DEBUG_VALUE: draw_buf_rotate_180:drv <- $r9
	@DEBUG_VALUE: draw_buf_rotate:drv <- $r9
	@DEBUG_VALUE: draw_buf_flush:color_p <- $r8
	@DEBUG_VALUE: draw_buf_rotate_180:i <- $r7
	@DEBUG_VALUE: draw_buf_rotate_180:area_h <- $r6
	@DEBUG_VALUE: draw_buf_rotate_180:area <- [DW_OP_plus_uconst 16, DW_OP_stack_value] $r4
	@DEBUG_VALUE: draw_buf_rotate:area <- [DW_OP_plus_uconst 16, DW_OP_stack_value] $r4
	@DEBUG_VALUE: draw_buf_flush:draw_buf <- $r4
	@DEBUG_VALUE: draw_buf_rotate_180:tmp <- $r2
	@DEBUG_VALUE: draw_buf_rotate_180:j <- $r0
	.loc	12 773 23                       @ ../GUILib/src/core/lv_refr.c:773:23
	ldrh	r2, [r4, #22]
.Ltmp354:
	.loc	12 774 37                       @ ../GUILib/src/core/lv_refr.c:774:37
	ldrh	r3, [r4, #18]
	.loc	12 776 23                       @ ../GUILib/src/core/lv_refr.c:776:23
	ldrh	r0, [r4, #20]
.Ltmp355:
	.loc	12 777 37                       @ ../GUILib/src/core/lv_refr.c:777:37
	ldrh	r1, [r4, #16]
.Ltmp356:
.LBB6_28:
	@DEBUG_VALUE: draw_buf_rotate_180:color_p <- $r11
	@DEBUG_VALUE: draw_buf_rotate:color_p <- $r11
	@DEBUG_VALUE: draw_buf_rotate_180:drv <- $r9
	@DEBUG_VALUE: draw_buf_rotate:drv <- $r9
	@DEBUG_VALUE: draw_buf_flush:color_p <- $r8
	@DEBUG_VALUE: draw_buf_rotate_180:i <- $r7
	@DEBUG_VALUE: draw_buf_rotate_180:area_h <- $r6
	@DEBUG_VALUE: draw_buf_rotate_180:area <- [DW_OP_plus_uconst 16, DW_OP_stack_value] $r4
	@DEBUG_VALUE: draw_buf_rotate:area <- [DW_OP_plus_uconst 16, DW_OP_stack_value] $r4
	@DEBUG_VALUE: draw_buf_flush:draw_buf <- $r4
	@DEBUG_VALUE: draw_buf_rotate_180:tmp_coord <- $r2
	.loc	12 774 21                       @ ../GUILib/src/core/lv_refr.c:774:21
	ldrh.w	r7, [r9, #2]
.Ltmp357:
	.loc	12 774 40 is_stmt 0             @ ../GUILib/src/core/lv_refr.c:774:40
	mvns	r3, r3
	.loc	12 775 41 is_stmt 1             @ ../GUILib/src/core/lv_refr.c:775:41
	mvns	r2, r2
.Ltmp358:
	.loc	12 774 40                       @ ../GUILib/src/core/lv_refr.c:774:40
	add	r3, r7
	.loc	12 775 41                       @ ../GUILib/src/core/lv_refr.c:775:41
	add	r2, r7
	.loc	12 774 14                       @ ../GUILib/src/core/lv_refr.c:774:14
	strh	r3, [r4, #22]
	.loc	12 775 14                       @ ../GUILib/src/core/lv_refr.c:775:14
	strh	r2, [r4, #18]
.Ltmp359:
	@DEBUG_VALUE: draw_buf_rotate_180:tmp_coord <- $r0
	.loc	12 777 21                       @ ../GUILib/src/core/lv_refr.c:777:21
	ldrh.w	r7, [r9]
	.loc	12 777 40 is_stmt 0             @ ../GUILib/src/core/lv_refr.c:777:40
	mvns	r1, r1
	.loc	12 778 41 is_stmt 1             @ ../GUILib/src/core/lv_refr.c:778:41
	mvns	r0, r0
.Ltmp360:
	.loc	12 777 40                       @ ../GUILib/src/core/lv_refr.c:777:40
	add	r1, r7
	.loc	12 778 41                       @ ../GUILib/src/core/lv_refr.c:778:41
	add	r0, r7
	.loc	12 777 14                       @ ../GUILib/src/core/lv_refr.c:777:14
	strh	r1, [r4, #20]
	.loc	12 778 14                       @ ../GUILib/src/core/lv_refr.c:778:14
	strh	r0, [r4, #16]
.Ltmp361:
	@DEBUG_VALUE: call_flush_cb:color_p <- $r11
	@DEBUG_VALUE: call_flush_cb:area <- [DW_OP_plus_uconst 16, DW_OP_stack_value] $r4
	@DEBUG_VALUE: call_flush_cb:drv <- $r9
	.loc	12 982 31                       @ ../GUILib/src/core/lv_refr.c:982:31
	ldrh.w	r7, [r9, #8]
	.loc	12 983 31                       @ ../GUILib/src/core/lv_refr.c:983:31
	ldrh.w	r6, [r9, #10]
.Ltmp362:
	.loc	12 982 24                       @ ../GUILib/src/core/lv_refr.c:982:24
	add	r0, r7
	.loc	12 981 29                       @ ../GUILib/src/core/lv_refr.c:981:29
	strh.w	r0, [sp, #68]
	.loc	12 983 24                       @ ../GUILib/src/core/lv_refr.c:983:24
	adds	r0, r6, r2
	.loc	12 981 29                       @ ../GUILib/src/core/lv_refr.c:981:29
	strh.w	r0, [sp, #70]
	.loc	12 984 24                       @ ../GUILib/src/core/lv_refr.c:984:24
	adds	r0, r7, r1
	.loc	12 981 29                       @ ../GUILib/src/core/lv_refr.c:981:29
	strh.w	r0, [sp, #72]
	.loc	12 985 24                       @ ../GUILib/src/core/lv_refr.c:985:24
	adds	r0, r6, r3
	.loc	12 988 10                       @ ../GUILib/src/core/lv_refr.c:988:10
	ldr.w	r3, [r9, #20]
	.loc	12 981 29                       @ ../GUILib/src/core/lv_refr.c:981:29
	strh.w	r0, [sp, #74]
	add	r1, sp, #68
	.loc	12 988 5                        @ ../GUILib/src/core/lv_refr.c:988:5
	mov	r0, r9
	mov	r2, r11
	b	.LBB6_14
.Ltmp363:
.LBB6_29:
	@DEBUG_VALUE: draw_buf_rotate:color_p <- $r11
	@DEBUG_VALUE: draw_buf_rotate:drv <- $r9
	@DEBUG_VALUE: draw_buf_flush:color_p <- $r8
	@DEBUG_VALUE: draw_buf <- $r5
	@DEBUG_VALUE: draw_buf_rotate:area <- [DW_OP_plus_uconst 16, DW_OP_stack_value] $r4
	@DEBUG_VALUE: draw_buf_flush:draw_buf <- $r4
	@DEBUG_VALUE: max_row <- [DW_OP_plus_uconst 32, DW_OP_deref_size 4, DW_OP_LLVM_convert 32 7, DW_OP_LLVM_convert 16 7, DW_OP_stack_value] $sp
	@DEBUG_VALUE: init_y_off <- [DW_OP_plus_uconst 24] [$sp+0]
	@DEBUG_VALUE: rot_buf <- 0
	.loc	12 874 22                       @ ../GUILib/src/core/lv_refr.c:874:22
	strh	r1, [r4, #18]
	mov	r1, r4
	.loc	12 875 22                       @ ../GUILib/src/core/lv_refr.c:875:22
	strh	r2, [r4, #22]
.Ltmp364:
.LBB6_30:
	@DEBUG_VALUE: draw_buf_rotate:color_p <- $r11
	@DEBUG_VALUE: draw_buf_rotate:drv <- $r9
	@DEBUG_VALUE: draw_buf_flush:color_p <- $r8
	@DEBUG_VALUE: draw_buf <- $r5
	@DEBUG_VALUE: draw_buf_rotate:area <- [DW_OP_plus_uconst 16, DW_OP_stack_value] $r4
	@DEBUG_VALUE: draw_buf_flush:draw_buf <- $r4
	@DEBUG_VALUE: max_row <- [DW_OP_plus_uconst 32, DW_OP_deref_size 4, DW_OP_LLVM_convert 32 7, DW_OP_LLVM_convert 16 7, DW_OP_stack_value] $sp
	@DEBUG_VALUE: init_y_off <- [DW_OP_plus_uconst 24] [$sp+0]
	@DEBUG_VALUE: rot_buf <- 0
	@DEBUG_VALUE: draw_buf_rotate:color_p <- $r11
	@DEBUG_VALUE: rot_buf <- 0
	@DEBUG_VALUE: row <- undef
	.loc	12 880 9                        @ ../GUILib/src/core/lv_refr.c:880:9
	cmp.w	r12, #1
	mov	r4, r1
.Ltmp365:
	blt.w	.LBB6_15
.Ltmp366:
@ %bb.31:
	@DEBUG_VALUE: draw_buf_rotate:color_p <- $r11
	@DEBUG_VALUE: draw_buf_rotate:drv <- $r9
	@DEBUG_VALUE: draw_buf_flush:color_p <- $r8
	@DEBUG_VALUE: draw_buf <- $r5
	@DEBUG_VALUE: max_row <- [DW_OP_plus_uconst 32, DW_OP_deref_size 4, DW_OP_LLVM_convert 32 7, DW_OP_LLVM_convert 16 7, DW_OP_stack_value] $sp
	@DEBUG_VALUE: init_y_off <- [DW_OP_plus_uconst 24] [$sp+0]
	@DEBUG_VALUE: rot_buf <- 0
	.loc	12 0 9 is_stmt 0                @ ../GUILib/src/core/lv_refr.c:0:9
	uxth.w	r0, r10
	lsrs	r0, r0, #1
	str	r0, [sp, #52]                   @ 4-byte Spill
	add.w	r0, r10, #1
	add.w	r0, r0, r0, lsr #31
	asrs	r0, r0, #1
	str	r0, [sp, #60]                   @ 4-byte Spill
	ldr	r0, [sp, #24]                   @ 4-byte Reload
	sub.w	r1, r10, #1
	mvns	r2, r0
	add	r0, r1
	str	r0, [sp, #8]                    @ 4-byte Spill
	uxth	r0, r2
	mov	r7, r12
	rsb.w	r3, r10, #1
	str	r1, [sp, #56]                   @ 4-byte Spill
	str	r2, [sp, #16]                   @ 4-byte Spill
	str	r0, [sp, #4]                    @ 4-byte Spill
	movs	r2, #0
	movs	r0, #0
	movs	r1, #0
	movs	r6, #0
	str	r3, [sp, #12]                   @ 4-byte Spill
	str	r1, [sp, #64]                   @ 4-byte Spill
	str	r5, [sp, #28]                   @ 4-byte Spill
	strd	r12, r4, [sp, #40]              @ 8-byte Folded Spill
	str.w	r9, [sp, #20]                   @ 4-byte Spill
.Ltmp367:
	.p2align	2
.LBB6_32:                               @ =>This Loop Header: Depth=1
                                        @     Child Loop BB6_36 Depth 2
                                        @       Child Loop BB6_37 Depth 3
                                        @     Child Loop BB6_49 Depth 2
                                        @       Child Loop BB6_51 Depth 3
                                        @     Child Loop BB6_64 Depth 2
	@DEBUG_VALUE: draw_buf_rotate:color_p <- $r11
	@DEBUG_VALUE: max_row <- [DW_OP_plus_uconst 32, DW_OP_deref_size 4, DW_OP_LLVM_convert 32 7, DW_OP_LLVM_convert 16 7, DW_OP_stack_value] $sp
	@DEBUG_VALUE: init_y_off <- [DW_OP_plus_uconst 24] [$sp+0]
	@DEBUG_VALUE: draw_buf_rotate:color_p <- $r11
	@DEBUG_VALUE: rot_buf <- $r6
	ldr	r1, [sp, #32]                   @ 4-byte Reload
.Ltmp368:
	.loc	12 881 33 is_stmt 1             @ ../GUILib/src/core/lv_refr.c:881:33
	subs	r3, r7, r2
	cmp	r1, r3
	it	lt
	movlt	r3, r1
.Ltmp369:
	@DEBUG_VALUE: height <- [DW_OP_LLVM_convert 32 7, DW_OP_LLVM_convert 16 7, DW_OP_stack_value] $r3
	.loc	12 883 27                       @ ../GUILib/src/core/lv_refr.c:883:27
	cmp	r7, r10
.Ltmp370:
	.loc	12 882 32                       @ ../GUILib/src/core/lv_refr.c:882:32
	mov.w	r1, #1
	str	r1, [r5, #24]
.Ltmp371:
	.loc	12 883 27                       @ ../GUILib/src/core/lv_refr.c:883:27
	blt	.LBB6_45
.Ltmp372:
@ %bb.33:                               @   in Loop: Header=BB6_32 Depth=1
	@DEBUG_VALUE: draw_buf_rotate:color_p <- $r11
	@DEBUG_VALUE: rot_buf <- $r6
	@DEBUG_VALUE: height <- [DW_OP_LLVM_convert 32 7, DW_OP_LLVM_convert 16 7, DW_OP_stack_value] $r3
	@DEBUG_VALUE: max_row <- [DW_OP_plus_uconst 32, DW_OP_deref_size 4, DW_OP_LLVM_convert 32 7, DW_OP_LLVM_convert 16 7, DW_OP_stack_value] $sp
	@DEBUG_VALUE: init_y_off <- [DW_OP_plus_uconst 24] [$sp+0]
	cmp	r0, #0
	bne	.LBB6_45
.Ltmp373:
@ %bb.34:                               @   in Loop: Header=BB6_32 Depth=1
	@DEBUG_VALUE: draw_buf_rotate:color_p <- $r11
	@DEBUG_VALUE: rot_buf <- $r6
	@DEBUG_VALUE: height <- [DW_OP_LLVM_convert 32 7, DW_OP_LLVM_convert 16 7, DW_OP_stack_value] $r3
	@DEBUG_VALUE: max_row <- [DW_OP_plus_uconst 32, DW_OP_deref_size 4, DW_OP_LLVM_convert 32 7, DW_OP_LLVM_convert 16 7, DW_OP_stack_value] $sp
	@DEBUG_VALUE: init_y_off <- [DW_OP_plus_uconst 24] [$sp+0]
	@DEBUG_VALUE: height <- $r10
	.loc	12 886 45                       @ ../GUILib/src/core/lv_refr.c:886:45
	ldr.w	r0, [r9, #16]
.Ltmp374:
	@DEBUG_VALUE: i <- 0
	@DEBUG_VALUE: draw_buf_rotate_90_sqr:color_p <- $r11
	@DEBUG_VALUE: draw_buf_rotate_90_sqr:w <- $r10
	@DEBUG_VALUE: draw_buf_rotate_90_sqr:is_270 <- [DW_OP_LLVM_convert 1 7, DW_OP_LLVM_convert 8 7, DW_OP_stack_value] undef
	.loc	12 820 5                        @ ../GUILib/src/core/lv_refr.c:820:5
	cmp.w	r10, #2
	blt	.LBB6_43
.Ltmp375:
@ %bb.35:                               @   in Loop: Header=BB6_32 Depth=1
	@DEBUG_VALUE: draw_buf_rotate_90_sqr:color_p <- $r11
	@DEBUG_VALUE: draw_buf_rotate:color_p <- $r11
	@DEBUG_VALUE: draw_buf_rotate_90_sqr:w <- $r10
	@DEBUG_VALUE: height <- $r10
	@DEBUG_VALUE: rot_buf <- $r6
	@DEBUG_VALUE: max_row <- [DW_OP_plus_uconst 32, DW_OP_deref_size 4, DW_OP_LLVM_convert 32 7, DW_OP_LLVM_convert 16 7, DW_OP_stack_value] $sp
	@DEBUG_VALUE: init_y_off <- [DW_OP_plus_uconst 24] [$sp+0]
	@DEBUG_VALUE: i <- 0
	.loc	12 0 5 is_stmt 0                @ ../GUILib/src/core/lv_refr.c:0:5
	ldr.w	r8, [sp, #56]                   @ 4-byte Reload
	and	r7, r0, #48
	mov.w	lr, #0
	str	r2, [sp, #36]                   @ 4-byte Spill
	str	r6, [sp, #48]                   @ 4-byte Spill
.Ltmp376:
	@DEBUG_VALUE: rot_buf <- [DW_OP_plus_uconst 48] [$sp+0]
	@DEBUG_VALUE: rot_buf <- [DW_OP_plus_uconst 48] [$sp+0]
	.p2align	2
.LBB6_36:                               @   Parent Loop BB6_32 Depth=1
                                        @ =>  This Loop Header: Depth=2
                                        @       Child Loop BB6_37 Depth 3
	@DEBUG_VALUE: rot_buf <- [DW_OP_plus_uconst 48] [$sp+0]
	@DEBUG_VALUE: draw_buf_rotate_90_sqr:color_p <- $r11
	@DEBUG_VALUE: draw_buf_rotate:color_p <- $r11
	@DEBUG_VALUE: max_row <- [DW_OP_plus_uconst 32, DW_OP_deref_size 4, DW_OP_LLVM_convert 32 7, DW_OP_LLVM_convert 16 7, DW_OP_stack_value] $sp
	@DEBUG_VALUE: init_y_off <- [DW_OP_plus_uconst 24] [$sp+0]
	@DEBUG_VALUE: i <- $lr
	sub.w	r0, r8, lr
	mul	r1, lr, r10
	sxth.w	r9, r0
	smulbb	r12, r10, r0
	movs	r5, #0
	movs	r6, #0
	@DEBUG_VALUE: j <- 0
	str	r1, [sp, #64]                   @ 4-byte Spill
.Ltmp377:
	.p2align	2
.LBB6_37:                               @   Parent Loop BB6_32 Depth=1
                                        @     Parent Loop BB6_36 Depth=2
                                        @ =>    This Inner Loop Header: Depth=3
	@DEBUG_VALUE: rot_buf <- [DW_OP_plus_uconst 48] [$sp+0]
	@DEBUG_VALUE: draw_buf_rotate_90_sqr:color_p <- $r11
	@DEBUG_VALUE: draw_buf_rotate:color_p <- $r11
	@DEBUG_VALUE: max_row <- [DW_OP_plus_uconst 32, DW_OP_deref_size 4, DW_OP_LLVM_convert 32 7, DW_OP_LLVM_convert 16 7, DW_OP_stack_value] $sp
	@DEBUG_VALUE: init_y_off <- [DW_OP_plus_uconst 24] [$sp+0]
	@DEBUG_VALUE: i <- $lr
	@DEBUG_VALUE: j <- $r6
	ldr	r0, [sp, #64]                   @ 4-byte Reload
.Ltmp378:
	.loc	12 823 32 is_stmt 1             @ ../GUILib/src/core/lv_refr.c:823:32
	sub.w	r4, r8, r6
.Ltmp379:
	@DEBUG_VALUE: inv_j <- $r4
	.loc	12 824 16                       @ ../GUILib/src/core/lv_refr.c:824:16
	cmp	r7, #48
.Ltmp380:
	@DEBUG_VALUE: inv_i <- undef
	.loc	12 0 0 is_stmt 0                @ ../GUILib/src/core/lv_refr.c:0:0
	add	r0, r5
.Ltmp381:
	.loc	12 824 16                       @ ../GUILib/src/core/lv_refr.c:824:16
	bne	.LBB6_39
.Ltmp382:
@ %bb.38:                               @   in Loop: Header=BB6_37 Depth=3
	@DEBUG_VALUE: rot_buf <- [DW_OP_plus_uconst 48] [$sp+0]
	@DEBUG_VALUE: draw_buf_rotate_90_sqr:color_p <- $r11
	@DEBUG_VALUE: draw_buf_rotate:color_p <- $r11
	@DEBUG_VALUE: j <- $r6
	@DEBUG_VALUE: inv_j <- $r4
	@DEBUG_VALUE: max_row <- [DW_OP_plus_uconst 32, DW_OP_deref_size 4, DW_OP_LLVM_convert 32 7, DW_OP_LLVM_convert 16 7, DW_OP_stack_value] $sp
	@DEBUG_VALUE: init_y_off <- [DW_OP_plus_uconst 24] [$sp+0]
	@DEBUG_VALUE: i <- $lr
	.loc	12 827 40 is_stmt 1             @ ../GUILib/src/core/lv_refr.c:827:40
	smlabb	r2, r10, r4, lr
	mov	r3, r10
.Ltmp383:
	.loc	12 808 10                       @ ../GUILib/src/core/lv_refr.c:808:10
	ldrh.w	r10, [r11, r2, lsl #1]
.Ltmp384:
	.loc	12 828 40                       @ ../GUILib/src/core/lv_refr.c:828:40
	sxtah	r4, r12, r4
.Ltmp385:
	.loc	12 807 11                       @ ../GUILib/src/core/lv_refr.c:807:11
	ldrh.w	r8, [r11, r0, lsl #1]
.Ltmp386:
	@DEBUG_VALUE: draw_buf_rotate4:tmp <- $r8
	.loc	12 808 10                       @ ../GUILib/src/core/lv_refr.c:808:10
	strh.w	r10, [r11, r0, lsl #1]
	.loc	12 809 10                       @ ../GUILib/src/core/lv_refr.c:809:10
	ldrh.w	r0, [r11, r4, lsl #1]
.Ltmp387:
	.loc	12 829 36                       @ ../GUILib/src/core/lv_refr.c:829:36
	mla	r5, r5, r3, r9
.Ltmp388:
	@DEBUG_VALUE: draw_buf_rotate4:d <- undef
	@DEBUG_VALUE: draw_buf_rotate4:c <- undef
	@DEBUG_VALUE: draw_buf_rotate4:b <- undef
	@DEBUG_VALUE: draw_buf_rotate4:a <- undef
	.loc	12 809 10                       @ ../GUILib/src/core/lv_refr.c:809:10
	strh.w	r0, [r11, r2, lsl #1]
	@DEBUG_VALUE: draw_buf_rotate4:tmp <- $r8
	.loc	12 810 10                       @ ../GUILib/src/core/lv_refr.c:810:10
	ldrh.w	r0, [r11, r5, lsl #1]
	mov	r10, r3
	strh.w	r0, [r11, r4, lsl #1]
	.loc	12 811 10                       @ ../GUILib/src/core/lv_refr.c:811:10
	strh.w	r8, [r11, r5, lsl #1]
	ldr.w	r8, [sp, #56]                   @ 4-byte Reload
.Ltmp389:
	.loc	12 0 10 is_stmt 0               @ ../GUILib/src/core/lv_refr.c:0:10
	b	.LBB6_40
.Ltmp390:
	.p2align	2
.LBB6_39:                               @   in Loop: Header=BB6_37 Depth=3
	@DEBUG_VALUE: rot_buf <- [DW_OP_plus_uconst 48] [$sp+0]
	@DEBUG_VALUE: draw_buf_rotate_90_sqr:color_p <- $r11
	@DEBUG_VALUE: draw_buf_rotate:color_p <- $r11
	@DEBUG_VALUE: j <- $r6
	@DEBUG_VALUE: inv_j <- $r4
	@DEBUG_VALUE: max_row <- [DW_OP_plus_uconst 32, DW_OP_deref_size 4, DW_OP_LLVM_convert 32 7, DW_OP_LLVM_convert 16 7, DW_OP_stack_value] $sp
	@DEBUG_VALUE: init_y_off <- [DW_OP_plus_uconst 24] [$sp+0]
	@DEBUG_VALUE: i <- $lr
	.loc	12 835 36 is_stmt 1             @ ../GUILib/src/core/lv_refr.c:835:36
	mla	r2, r5, r10, r9
	.loc	12 836 40                       @ ../GUILib/src/core/lv_refr.c:836:40
	sxtah	r5, r12, r4
.Ltmp391:
	.loc	12 808 10                       @ ../GUILib/src/core/lv_refr.c:808:10
	ldrh.w	r3, [r11, r2, lsl #1]
	mov	r1, r7
	.loc	12 807 11                       @ ../GUILib/src/core/lv_refr.c:807:11
	ldrh.w	r7, [r11, r0, lsl #1]
.Ltmp392:
	@DEBUG_VALUE: draw_buf_rotate4:tmp <- $r7
	.loc	12 808 10                       @ ../GUILib/src/core/lv_refr.c:808:10
	strh.w	r3, [r11, r0, lsl #1]
	.loc	12 809 10                       @ ../GUILib/src/core/lv_refr.c:809:10
	ldrh.w	r0, [r11, r5, lsl #1]
.Ltmp393:
	.loc	12 837 40                       @ ../GUILib/src/core/lv_refr.c:837:40
	smlabb	r3, r10, r4, lr
.Ltmp394:
	@DEBUG_VALUE: draw_buf_rotate4:d <- undef
	@DEBUG_VALUE: draw_buf_rotate4:c <- undef
	@DEBUG_VALUE: draw_buf_rotate4:b <- undef
	@DEBUG_VALUE: draw_buf_rotate4:a <- undef
	.loc	12 809 10                       @ ../GUILib/src/core/lv_refr.c:809:10
	strh.w	r0, [r11, r2, lsl #1]
	@DEBUG_VALUE: draw_buf_rotate4:tmp <- $r7
	.loc	12 810 10                       @ ../GUILib/src/core/lv_refr.c:810:10
	ldrh.w	r0, [r11, r3, lsl #1]
	strh.w	r0, [r11, r5, lsl #1]
	.loc	12 811 10                       @ ../GUILib/src/core/lv_refr.c:811:10
	strh.w	r7, [r11, r3, lsl #1]
	mov	r7, r1
.Ltmp395:
.LBB6_40:                               @   in Loop: Header=BB6_37 Depth=3
	@DEBUG_VALUE: rot_buf <- [DW_OP_plus_uconst 48] [$sp+0]
	@DEBUG_VALUE: draw_buf_rotate_90_sqr:color_p <- $r11
	@DEBUG_VALUE: draw_buf_rotate:color_p <- $r11
	@DEBUG_VALUE: j <- $r6
	@DEBUG_VALUE: max_row <- [DW_OP_plus_uconst 32, DW_OP_deref_size 4, DW_OP_LLVM_convert 32 7, DW_OP_LLVM_convert 16 7, DW_OP_stack_value] $sp
	@DEBUG_VALUE: init_y_off <- [DW_OP_plus_uconst 24] [$sp+0]
	@DEBUG_VALUE: i <- $lr
	.loc	12 821 49                       @ ../GUILib/src/core/lv_refr.c:821:49
	adds	r6, #1
.Ltmp396:
	@DEBUG_VALUE: j <- $r6
	.loc	12 821 9 is_stmt 0              @ ../GUILib/src/core/lv_refr.c:821:9
	ldr	r0, [sp, #60]                   @ 4-byte Reload
.Ltmp397:
	.loc	12 821 31                       @ ../GUILib/src/core/lv_refr.c:821:31
	sxth	r5, r6
.Ltmp398:
	.loc	12 821 9                        @ ../GUILib/src/core/lv_refr.c:821:9
	cmp	r0, r5
	bgt	.LBB6_37
.Ltmp399:
@ %bb.41:                               @   in Loop: Header=BB6_36 Depth=2
	@DEBUG_VALUE: rot_buf <- [DW_OP_plus_uconst 48] [$sp+0]
	@DEBUG_VALUE: draw_buf_rotate_90_sqr:color_p <- $r11
	@DEBUG_VALUE: draw_buf_rotate:color_p <- $r11
	@DEBUG_VALUE: max_row <- [DW_OP_plus_uconst 32, DW_OP_deref_size 4, DW_OP_LLVM_convert 32 7, DW_OP_LLVM_convert 16 7, DW_OP_stack_value] $sp
	@DEBUG_VALUE: init_y_off <- [DW_OP_plus_uconst 24] [$sp+0]
	@DEBUG_VALUE: i <- $lr
	.loc	12 820 5 is_stmt 1              @ ../GUILib/src/core/lv_refr.c:820:5
	ldr	r0, [sp, #52]                   @ 4-byte Reload
.Ltmp400:
	.loc	12 820 39 is_stmt 0             @ ../GUILib/src/core/lv_refr.c:820:39
	add.w	lr, lr, #1
.Ltmp401:
	@DEBUG_VALUE: i <- $lr
	.loc	12 820 5                        @ ../GUILib/src/core/lv_refr.c:820:5
	cmp	lr, r0
	bne	.LBB6_36
.Ltmp402:
@ %bb.42:                               @   in Loop: Header=BB6_32 Depth=1
	@DEBUG_VALUE: rot_buf <- [DW_OP_plus_uconst 48] [$sp+0]
	@DEBUG_VALUE: draw_buf_rotate:color_p <- $r11
	@DEBUG_VALUE: max_row <- [DW_OP_plus_uconst 32, DW_OP_deref_size 4, DW_OP_LLVM_convert 32 7, DW_OP_LLVM_convert 16 7, DW_OP_stack_value] $sp
	@DEBUG_VALUE: init_y_off <- [DW_OP_plus_uconst 24] [$sp+0]
	.loc	12 0 5                          @ ../GUILib/src/core/lv_refr.c:0:5
	ldr.w	r9, [sp, #20]                   @ 4-byte Reload
	ldr	r5, [sp, #28]                   @ 4-byte Reload
.Ltmp403:
	.loc	12 887 25 is_stmt 1             @ ../GUILib/src/core/lv_refr.c:887:25
	ldr.w	r0, [r9, #16]
	ldrd	r4, r6, [sp, #44]               @ 8-byte Folded Reload
	ldrd	r2, r7, [sp, #36]               @ 8-byte Folded Reload
.Ltmp404:
.LBB6_43:                               @   in Loop: Header=BB6_32 Depth=1
	@DEBUG_VALUE: draw_buf_rotate:color_p <- $r11
	@DEBUG_VALUE: max_row <- [DW_OP_plus_uconst 32, DW_OP_deref_size 4, DW_OP_LLVM_convert 32 7, DW_OP_LLVM_convert 16 7, DW_OP_stack_value] $sp
	@DEBUG_VALUE: init_y_off <- [DW_OP_plus_uconst 24] [$sp+0]
	.loc	12 887 33 is_stmt 0             @ ../GUILib/src/core/lv_refr.c:887:33
	and	r0, r0, #48
.Ltmp405:
	.loc	12 887 20                       @ ../GUILib/src/core/lv_refr.c:887:20
	cmp	r0, #16
	bne	.LBB6_56
.Ltmp406:
@ %bb.44:                               @   in Loop: Header=BB6_32 Depth=1
	@DEBUG_VALUE: draw_buf_rotate:color_p <- $r11
	@DEBUG_VALUE: max_row <- [DW_OP_plus_uconst 32, DW_OP_deref_size 4, DW_OP_LLVM_convert 32 7, DW_OP_LLVM_convert 16 7, DW_OP_stack_value] $sp
	@DEBUG_VALUE: init_y_off <- [DW_OP_plus_uconst 24] [$sp+0]
	.loc	12 0 20                         @ ../GUILib/src/core/lv_refr.c:0:20
	ldr	r1, [sp, #24]                   @ 4-byte Reload
	ldr	r0, [sp, #8]                    @ 4-byte Reload
.Ltmp407:
	.loc	12 888 30 is_stmt 1             @ ../GUILib/src/core/lv_refr.c:888:30
	strh	r1, [r4, #16]
	.loc	12 889 30                       @ ../GUILib/src/core/lv_refr.c:889:30
	strh	r0, [r4, #20]
.Ltmp408:
	.loc	12 0 0 is_stmt 0                @ ../GUILib/src/core/lv_refr.c:0:0
	mov	r3, r10
	b	.LBB6_59
.Ltmp409:
	.p2align	2
.LBB6_45:                               @   in Loop: Header=BB6_32 Depth=1
	@DEBUG_VALUE: draw_buf_rotate:color_p <- $r11
	@DEBUG_VALUE: rot_buf <- $r6
	@DEBUG_VALUE: height <- [DW_OP_LLVM_convert 32 7, DW_OP_LLVM_convert 16 7, DW_OP_stack_value] $r3
	@DEBUG_VALUE: max_row <- [DW_OP_plus_uconst 32, DW_OP_deref_size 4, DW_OP_LLVM_convert 32 7, DW_OP_LLVM_convert 16 7, DW_OP_stack_value] $sp
	@DEBUG_VALUE: init_y_off <- [DW_OP_plus_uconst 24] [$sp+0]
	.loc	12 898 20 is_stmt 1             @ ../GUILib/src/core/lv_refr.c:898:20
	cbnz	r6, .LBB6_47
.Ltmp410:
@ %bb.46:                               @   in Loop: Header=BB6_32 Depth=1
	@DEBUG_VALUE: draw_buf_rotate:color_p <- $r11
	@DEBUG_VALUE: rot_buf <- $r6
	@DEBUG_VALUE: height <- [DW_OP_LLVM_convert 32 7, DW_OP_LLVM_convert 16 7, DW_OP_stack_value] $r3
	@DEBUG_VALUE: max_row <- [DW_OP_plus_uconst 32, DW_OP_deref_size 4, DW_OP_LLVM_convert 32 7, DW_OP_LLVM_convert 16 7, DW_OP_stack_value] $sp
	@DEBUG_VALUE: init_y_off <- [DW_OP_plus_uconst 24] [$sp+0]
	.loc	12 898 47 is_stmt 0             @ ../GUILib/src/core/lv_refr.c:898:47
	mov.w	r0, #10240
	mov	r8, r3
.Ltmp411:
	@DEBUG_VALUE: height <- [DW_OP_LLVM_convert 32 7, DW_OP_LLVM_convert 16 7, DW_OP_stack_value] $r8
	@DEBUG_VALUE: height <- [DW_OP_LLVM_convert 32 7, DW_OP_LLVM_convert 16 7, DW_OP_stack_value] $r8
	.loc	12 0 47                         @ ../GUILib/src/core/lv_refr.c:0:47
	mov	r6, r4
.Ltmp412:
	mov	r4, r7
	mov	r7, r2
	.loc	12 898 47                       @ ../GUILib/src/core/lv_refr.c:898:47
	bl	lv_mem_buf_get
.Ltmp413:
	.loc	12 0 47                         @ ../GUILib/src/core/lv_refr.c:0:47
	mov	r2, r7
	mov	r7, r4
	mov	r4, r6
	mov	r3, r8
	.loc	12 898 47                       @ ../GUILib/src/core/lv_refr.c:898:47
	mov	r6, r0
.Ltmp414:
	@DEBUG_VALUE: rot_buf <- $r6
.LBB6_47:                               @   in Loop: Header=BB6_32 Depth=1
	@DEBUG_VALUE: draw_buf_rotate:color_p <- $r11
	@DEBUG_VALUE: rot_buf <- $r6
	@DEBUG_VALUE: max_row <- [DW_OP_plus_uconst 32, DW_OP_deref_size 4, DW_OP_LLVM_convert 32 7, DW_OP_LLVM_convert 16 7, DW_OP_stack_value] $sp
	@DEBUG_VALUE: init_y_off <- [DW_OP_plus_uconst 24] [$sp+0]
	@DEBUG_VALUE: rot_buf <- $r6
	.loc	12 899 41 is_stmt 1             @ ../GUILib/src/core/lv_refr.c:899:41
	ldr.w	r0, [r9, #16]
.Ltmp415:
	@DEBUG_VALUE: draw_buf_rotate_90:invert_i <- [DW_OP_LLVM_convert 1 7, DW_OP_LLVM_convert 8 7, DW_OP_stack_value] undef
	.loc	12 881 33                       @ ../GUILib/src/core/lv_refr.c:881:33
	sxth	r1, r3
.Ltmp416:
	@DEBUG_VALUE: y <- 0
	@DEBUG_VALUE: draw_buf_rotate_90:initial_i <- undef
	@DEBUG_VALUE: draw_buf_rotate_90:invert <- [DW_OP_constu 1, DW_OP_minus, DW_OP_stack_value] undef
	@DEBUG_VALUE: draw_buf_rotate_90:rot_buf <- $r6
	@DEBUG_VALUE: draw_buf_rotate_90:orig_color_p <- $r11
	@DEBUG_VALUE: draw_buf_rotate_90:area_h <- [DW_OP_LLVM_convert 32 7, DW_OP_LLVM_convert 16 7, DW_OP_stack_value] $r3
	@DEBUG_VALUE: draw_buf_rotate_90:area_w <- $r10
	.loc	12 787 5                        @ ../GUILib/src/core/lv_refr.c:787:5
	cmp	r1, #1
	blt	.LBB6_54
.Ltmp417:
@ %bb.48:                               @   in Loop: Header=BB6_32 Depth=1
	@DEBUG_VALUE: draw_buf_rotate_90:orig_color_p <- $r11
	@DEBUG_VALUE: draw_buf_rotate:color_p <- $r11
	@DEBUG_VALUE: draw_buf_rotate_90:area_w <- $r10
	@DEBUG_VALUE: draw_buf_rotate_90:rot_buf <- $r6
	@DEBUG_VALUE: rot_buf <- $r6
	@DEBUG_VALUE: draw_buf_rotate_90:area_h <- [DW_OP_LLVM_convert 32 7, DW_OP_LLVM_convert 16 7, DW_OP_stack_value] $r3
	@DEBUG_VALUE: max_row <- [DW_OP_plus_uconst 32, DW_OP_deref_size 4, DW_OP_LLVM_convert 32 7, DW_OP_LLVM_convert 16 7, DW_OP_stack_value] $sp
	@DEBUG_VALUE: init_y_off <- [DW_OP_plus_uconst 24] [$sp+0]
	@DEBUG_VALUE: y <- 0
	.loc	12 0 5 is_stmt 0                @ ../GUILib/src/core/lv_refr.c:0:5
	str	r2, [sp, #36]                   @ 4-byte Spill
	ldr	r2, [sp, #56]                   @ 4-byte Reload
	and	r0, r0, #48
	mov	r8, r6
.Ltmp418:
	@DEBUG_VALUE: rot_buf <- $r8
	@DEBUG_VALUE: rot_buf <- $r8
	smulbb	r12, r10, r3
.Ltmp419:
	@DEBUG_VALUE: draw_buf_rotate_90:invert <- [DW_OP_constu 1, DW_OP_minus, DW_OP_stack_value] $r12
	mul	lr, r1, r2
.Ltmp420:
	@DEBUG_VALUE: draw_buf_rotate_90:initial_i <- $lr
	cmp	r0, #48
	it	ne
	rsbne	r1, r1, #0
	str	r3, [sp, #48]                   @ 4-byte Spill
.Ltmp421:
	@DEBUG_VALUE: draw_buf_rotate_90:area_h <- [DW_OP_plus_uconst 48, DW_OP_LLVM_convert 32 7, DW_OP_LLVM_convert 16 7, DW_OP_stack_value] [$sp+0]
	@DEBUG_VALUE: draw_buf_rotate_90:area_h <- [DW_OP_plus_uconst 48, DW_OP_LLVM_convert 32 7, DW_OP_LLVM_convert 16 7, DW_OP_stack_value] [$sp+0]
	.loc	12 787 29                       @ ../GUILib/src/core/lv_refr.c:787:29
	uxth	r3, r3
.Ltmp422:
	.loc	12 787 5                        @ ../GUILib/src/core/lv_refr.c:787:5
	lsls	r7, r1, #1
	movs	r5, #0
	mov	r6, r11
.Ltmp423:
	.p2align	2
.LBB6_49:                               @   Parent Loop BB6_32 Depth=1
                                        @ =>  This Loop Header: Depth=2
                                        @       Child Loop BB6_51 Depth 3
	@DEBUG_VALUE: draw_buf_rotate_90:area_h <- [DW_OP_plus_uconst 48, DW_OP_LLVM_convert 32 7, DW_OP_LLVM_convert 16 7, DW_OP_stack_value] [$sp+0]
	@DEBUG_VALUE: draw_buf_rotate_90:invert <- [DW_OP_constu 1, DW_OP_minus, DW_OP_stack_value] $r12
	@DEBUG_VALUE: draw_buf_rotate:color_p <- $r11
	@DEBUG_VALUE: draw_buf_rotate_90:area_w <- $r10
	@DEBUG_VALUE: rot_buf <- $r8
	@DEBUG_VALUE: max_row <- [DW_OP_plus_uconst 32, DW_OP_deref_size 4, DW_OP_LLVM_convert 32 7, DW_OP_LLVM_convert 16 7, DW_OP_stack_value] $sp
	@DEBUG_VALUE: init_y_off <- [DW_OP_plus_uconst 24] [$sp+0]
	@DEBUG_VALUE: draw_buf_rotate_90:initial_i <- $lr
	@DEBUG_VALUE: draw_buf_rotate_90:orig_color_p <- $r6
	@DEBUG_VALUE: y <- $r5
	@DEBUG_VALUE: i <- undef
	@DEBUG_VALUE: x <- 0
	.loc	12 791 9 is_stmt 1              @ ../GUILib/src/core/lv_refr.c:791:9
	cmp.w	r10, #1
	blt	.LBB6_52
.Ltmp424:
@ %bb.50:                               @   in Loop: Header=BB6_49 Depth=2
	@DEBUG_VALUE: draw_buf_rotate_90:area_h <- [DW_OP_plus_uconst 48, DW_OP_LLVM_convert 32 7, DW_OP_LLVM_convert 16 7, DW_OP_stack_value] [$sp+0]
	@DEBUG_VALUE: draw_buf_rotate_90:invert <- [DW_OP_constu 1, DW_OP_minus, DW_OP_stack_value] $r12
	@DEBUG_VALUE: draw_buf_rotate:color_p <- $r11
	@DEBUG_VALUE: draw_buf_rotate_90:area_w <- $r10
	@DEBUG_VALUE: rot_buf <- $r8
	@DEBUG_VALUE: draw_buf_rotate_90:orig_color_p <- $r6
	@DEBUG_VALUE: y <- $r5
	@DEBUG_VALUE: max_row <- [DW_OP_plus_uconst 32, DW_OP_deref_size 4, DW_OP_LLVM_convert 32 7, DW_OP_LLVM_convert 16 7, DW_OP_stack_value] $sp
	@DEBUG_VALUE: init_y_off <- [DW_OP_plus_uconst 24] [$sp+0]
	@DEBUG_VALUE: draw_buf_rotate_90:initial_i <- $lr
	@DEBUG_VALUE: x <- 0
	.loc	12 0 0 is_stmt 0                @ ../GUILib/src/core/lv_refr.c:0:0
	add.w	r1, r5, lr
	.loc	12 789 12 is_stmt 1             @ ../GUILib/src/core/lv_refr.c:789:12
	mvns	r2, r1
	cmp	r0, #48
	it	eq
	addeq.w	r1, r12, r2
.Ltmp425:
	@DEBUG_VALUE: i <- $r1
	.loc	12 791 9                        @ ../GUILib/src/core/lv_refr.c:791:9
	add.w	r1, r8, r1, lsl #1
.Ltmp426:
	.loc	12 0 9 is_stmt 0                @ ../GUILib/src/core/lv_refr.c:0:9
	movs	r2, #0
.Ltmp427:
	.p2align	2
.LBB6_51:                               @   Parent Loop BB6_32 Depth=1
                                        @     Parent Loop BB6_49 Depth=2
                                        @ =>    This Inner Loop Header: Depth=3
	@DEBUG_VALUE: draw_buf_rotate_90:area_h <- [DW_OP_plus_uconst 48, DW_OP_LLVM_convert 32 7, DW_OP_LLVM_convert 16 7, DW_OP_stack_value] [$sp+0]
	@DEBUG_VALUE: draw_buf_rotate_90:invert <- [DW_OP_constu 1, DW_OP_minus, DW_OP_stack_value] $r12
	@DEBUG_VALUE: draw_buf_rotate:color_p <- $r11
	@DEBUG_VALUE: draw_buf_rotate_90:area_w <- $r10
	@DEBUG_VALUE: rot_buf <- $r8
	@DEBUG_VALUE: draw_buf_rotate_90:orig_color_p <- $r6
	@DEBUG_VALUE: y <- $r5
	@DEBUG_VALUE: max_row <- [DW_OP_plus_uconst 32, DW_OP_deref_size 4, DW_OP_LLVM_convert 32 7, DW_OP_LLVM_convert 16 7, DW_OP_stack_value] $sp
	@DEBUG_VALUE: init_y_off <- [DW_OP_plus_uconst 24] [$sp+0]
	@DEBUG_VALUE: draw_buf_rotate_90:initial_i <- $lr
	@DEBUG_VALUE: draw_buf_rotate_90:orig_color_p <- $r6
	@DEBUG_VALUE: i <- undef
	@DEBUG_VALUE: x <- $r2
	.loc	12 792 26 is_stmt 1             @ ../GUILib/src/core/lv_refr.c:792:26
	ldrh	r4, [r6], #2
.Ltmp428:
	@DEBUG_VALUE: draw_buf_rotate_90:orig_color_p <- $r6
	.loc	12 791 44                       @ ../GUILib/src/core/lv_refr.c:791:44
	adds	r2, #1
.Ltmp429:
	@DEBUG_VALUE: x <- $r2
	sxth	r2, r2
.Ltmp430:
	.loc	12 792 26                       @ ../GUILib/src/core/lv_refr.c:792:26
	strh	r4, [r1]
.Ltmp431:
	@DEBUG_VALUE: i <- undef
	.loc	12 791 9                        @ ../GUILib/src/core/lv_refr.c:791:9
	cmp	r2, r10
	add	r1, r7
	blt	.LBB6_51
.Ltmp432:
.LBB6_52:                               @   in Loop: Header=BB6_49 Depth=2
	@DEBUG_VALUE: draw_buf_rotate_90:area_h <- [DW_OP_plus_uconst 48, DW_OP_LLVM_convert 32 7, DW_OP_LLVM_convert 16 7, DW_OP_stack_value] [$sp+0]
	@DEBUG_VALUE: draw_buf_rotate_90:invert <- [DW_OP_constu 1, DW_OP_minus, DW_OP_stack_value] $r12
	@DEBUG_VALUE: draw_buf_rotate:color_p <- $r11
	@DEBUG_VALUE: draw_buf_rotate_90:area_w <- $r10
	@DEBUG_VALUE: rot_buf <- $r8
	@DEBUG_VALUE: draw_buf_rotate_90:orig_color_p <- $r6
	@DEBUG_VALUE: y <- $r5
	@DEBUG_VALUE: max_row <- [DW_OP_plus_uconst 32, DW_OP_deref_size 4, DW_OP_LLVM_convert 32 7, DW_OP_LLVM_convert 16 7, DW_OP_stack_value] $sp
	@DEBUG_VALUE: init_y_off <- [DW_OP_plus_uconst 24] [$sp+0]
	@DEBUG_VALUE: draw_buf_rotate_90:initial_i <- $lr
	.loc	12 787 40                       @ ../GUILib/src/core/lv_refr.c:787:40
	adds	r5, #1
.Ltmp433:
	@DEBUG_VALUE: y <- $r5
	@DEBUG_VALUE: draw_buf_rotate_90:orig_color_p <- $r6
	.loc	12 787 5 is_stmt 0              @ ../GUILib/src/core/lv_refr.c:787:5
	cmp	r5, r3
	bne	.LBB6_49
.Ltmp434:
@ %bb.53:                               @   in Loop: Header=BB6_32 Depth=1
	@DEBUG_VALUE: draw_buf_rotate:color_p <- $r11
	@DEBUG_VALUE: rot_buf <- $r8
	@DEBUG_VALUE: max_row <- [DW_OP_plus_uconst 32, DW_OP_deref_size 4, DW_OP_LLVM_convert 32 7, DW_OP_LLVM_convert 16 7, DW_OP_stack_value] $sp
	@DEBUG_VALUE: init_y_off <- [DW_OP_plus_uconst 24] [$sp+0]
	.loc	12 901 25 is_stmt 1             @ ../GUILib/src/core/lv_refr.c:901:25
	ldr.w	r0, [r9, #16]
	ldr	r7, [sp, #40]                   @ 4-byte Reload
	ldr	r5, [sp, #28]                   @ 4-byte Reload
	ldr	r2, [sp, #36]                   @ 4-byte Reload
	ldrd	r4, r3, [sp, #44]               @ 8-byte Folded Reload
	mov	r6, r8
.Ltmp435:
	@DEBUG_VALUE: rot_buf <- $r6
	@DEBUG_VALUE: rot_buf <- $r6
.LBB6_54:                               @   in Loop: Header=BB6_32 Depth=1
	@DEBUG_VALUE: draw_buf_rotate:color_p <- $r11
	@DEBUG_VALUE: rot_buf <- $r6
	@DEBUG_VALUE: max_row <- [DW_OP_plus_uconst 32, DW_OP_deref_size 4, DW_OP_LLVM_convert 32 7, DW_OP_LLVM_convert 16 7, DW_OP_stack_value] $sp
	@DEBUG_VALUE: init_y_off <- [DW_OP_plus_uconst 24] [$sp+0]
	@DEBUG_VALUE: draw_buf_rotate_90:area_h <- [DW_OP_LLVM_convert 32 7, DW_OP_LLVM_convert 16 7, DW_OP_stack_value] $r3
	.loc	12 901 33 is_stmt 0             @ ../GUILib/src/core/lv_refr.c:901:33
	and	r0, r0, #48
.Ltmp436:
	.loc	12 901 20                       @ ../GUILib/src/core/lv_refr.c:901:20
	cmp	r0, #16
	bne	.LBB6_57
.Ltmp437:
@ %bb.55:                               @   in Loop: Header=BB6_32 Depth=1
	@DEBUG_VALUE: draw_buf_rotate:color_p <- $r11
	@DEBUG_VALUE: rot_buf <- $r6
	@DEBUG_VALUE: max_row <- [DW_OP_plus_uconst 32, DW_OP_deref_size 4, DW_OP_LLVM_convert 32 7, DW_OP_LLVM_convert 16 7, DW_OP_stack_value] $sp
	@DEBUG_VALUE: init_y_off <- [DW_OP_plus_uconst 24] [$sp+0]
	.loc	12 902 43 is_stmt 1             @ ../GUILib/src/core/lv_refr.c:902:43
	ldr	r0, [sp, #24]                   @ 4-byte Reload
	adds	r1, r2, r0
	.loc	12 903 49                       @ ../GUILib/src/core/lv_refr.c:903:49
	adds	r0, r3, r1
	.loc	12 903 32 is_stmt 0             @ ../GUILib/src/core/lv_refr.c:903:32
	subs	r0, #1
	.loc	12 902 30 is_stmt 1             @ ../GUILib/src/core/lv_refr.c:902:30
	strh	r1, [r4, #16]
	.loc	12 903 30                       @ ../GUILib/src/core/lv_refr.c:903:30
	strh	r0, [r4, #20]
	b	.LBB6_59
.Ltmp438:
	.p2align	2
.LBB6_56:                               @   in Loop: Header=BB6_32 Depth=1
	@DEBUG_VALUE: draw_buf_rotate:color_p <- $r11
	@DEBUG_VALUE: max_row <- [DW_OP_plus_uconst 32, DW_OP_deref_size 4, DW_OP_LLVM_convert 32 7, DW_OP_LLVM_convert 16 7, DW_OP_stack_value] $sp
	@DEBUG_VALUE: init_y_off <- [DW_OP_plus_uconst 24] [$sp+0]
	.loc	12 892 37                       @ ../GUILib/src/core/lv_refr.c:892:37
	ldrh.w	r0, [r9]
	.loc	12 892 49 is_stmt 0             @ ../GUILib/src/core/lv_refr.c:892:49
	ldr	r1, [sp, #16]                   @ 4-byte Reload
.Ltmp439:
	.loc	12 0 0                          @ ../GUILib/src/core/lv_refr.c:0:0
	mov	r3, r10
.Ltmp440:
	.loc	12 892 49                       @ ../GUILib/src/core/lv_refr.c:892:49
	add	r0, r1
	.loc	12 893 50 is_stmt 1             @ ../GUILib/src/core/lv_refr.c:893:50
	ldr	r1, [sp, #12]                   @ 4-byte Reload
	.loc	12 892 30                       @ ../GUILib/src/core/lv_refr.c:892:30
	strh	r0, [r4, #20]
	.loc	12 893 50                       @ ../GUILib/src/core/lv_refr.c:893:50
	add	r1, r0
	b	.LBB6_58
.Ltmp441:
	.p2align	2
.LBB6_57:                               @   in Loop: Header=BB6_32 Depth=1
	@DEBUG_VALUE: draw_buf_rotate:color_p <- $r11
	@DEBUG_VALUE: rot_buf <- $r6
	@DEBUG_VALUE: max_row <- [DW_OP_plus_uconst 32, DW_OP_deref_size 4, DW_OP_LLVM_convert 32 7, DW_OP_LLVM_convert 16 7, DW_OP_stack_value] $sp
	@DEBUG_VALUE: init_y_off <- [DW_OP_plus_uconst 24] [$sp+0]
	.loc	12 906 49                       @ ../GUILib/src/core/lv_refr.c:906:49
	ldr	r1, [sp, #4]                    @ 4-byte Reload
	mov	r0, r4
	mov	r4, r7
	ldr	r7, [sp, #64]                   @ 4-byte Reload
	.loc	12 906 37 is_stmt 0             @ ../GUILib/src/core/lv_refr.c:906:37
	ldrh.w	r12, [r9]
	.loc	12 906 49                       @ ../GUILib/src/core/lv_refr.c:906:49
	subs	r1, r1, r7
	mov	r7, r4
	mov	r4, r0
	.loc	12 906 62                       @ ../GUILib/src/core/lv_refr.c:906:62
	add.w	r0, r1, r12
	.loc	12 907 41 is_stmt 1             @ ../GUILib/src/core/lv_refr.c:907:41
	subs	r1, r0, r3
	.loc	12 907 32 is_stmt 0             @ ../GUILib/src/core/lv_refr.c:907:32
	adds	r1, #1
	.loc	12 906 30 is_stmt 1             @ ../GUILib/src/core/lv_refr.c:906:30
	strh	r0, [r4, #20]
.Ltmp442:
.LBB6_58:                               @   in Loop: Header=BB6_32 Depth=1
	@DEBUG_VALUE: draw_buf_rotate:color_p <- $r11
	@DEBUG_VALUE: max_row <- [DW_OP_plus_uconst 32, DW_OP_deref_size 4, DW_OP_LLVM_convert 32 7, DW_OP_LLVM_convert 16 7, DW_OP_stack_value] $sp
	@DEBUG_VALUE: init_y_off <- [DW_OP_plus_uconst 24] [$sp+0]
	.loc	12 0 0 is_stmt 0                @ ../GUILib/src/core/lv_refr.c:0:0
	strh	r1, [r4, #16]
.Ltmp443:
.LBB6_59:                               @   in Loop: Header=BB6_32 Depth=1
	@DEBUG_VALUE: draw_buf_rotate:color_p <- $r11
	@DEBUG_VALUE: max_row <- [DW_OP_plus_uconst 32, DW_OP_deref_size 4, DW_OP_LLVM_convert 32 7, DW_OP_LLVM_convert 16 7, DW_OP_stack_value] $sp
	@DEBUG_VALUE: init_y_off <- [DW_OP_plus_uconst 24] [$sp+0]
	@DEBUG_VALUE: rot_buf <- $r6
	@DEBUG_VALUE: height <- $r3
	.loc	12 913 20 is_stmt 1             @ ../GUILib/src/core/lv_refr.c:913:20
	sxtah	r2, r2, r3
	.loc	12 913 39 is_stmt 0             @ ../GUILib/src/core/lv_refr.c:913:39
	cmp	r2, r7
	str	r2, [sp, #64]                   @ 4-byte Spill
	blt	.LBB6_62
.Ltmp444:
@ %bb.60:                               @   in Loop: Header=BB6_32 Depth=1
	@DEBUG_VALUE: draw_buf_rotate:color_p <- $r11
	@DEBUG_VALUE: rot_buf <- $r6
	@DEBUG_VALUE: height <- $r3
	@DEBUG_VALUE: max_row <- [DW_OP_plus_uconst 32, DW_OP_deref_size 4, DW_OP_LLVM_convert 32 7, DW_OP_LLVM_convert 16 7, DW_OP_stack_value] $sp
	@DEBUG_VALUE: init_y_off <- [DW_OP_plus_uconst 24] [$sp+0]
	.loc	12 913 52                       @ ../GUILib/src/core/lv_refr.c:913:52
	ldr	r2, [r5, #32]
	.loc	12 913 62                       @ ../GUILib/src/core/lv_refr.c:913:62
	lsls	r2, r2, #31
	beq	.LBB6_62
.Ltmp445:
@ %bb.61:                               @   in Loop: Header=BB6_32 Depth=1
	@DEBUG_VALUE: draw_buf_rotate:color_p <- $r11
	@DEBUG_VALUE: rot_buf <- $r6
	@DEBUG_VALUE: height <- $r3
	@DEBUG_VALUE: max_row <- [DW_OP_plus_uconst 32, DW_OP_deref_size 4, DW_OP_LLVM_convert 32 7, DW_OP_LLVM_convert 16 7, DW_OP_stack_value] $sp
	@DEBUG_VALUE: init_y_off <- [DW_OP_plus_uconst 24] [$sp+0]
	.loc	12 913 75                       @ ../GUILib/src/core/lv_refr.c:913:75
	ldr	r2, [r5, #32]
.Ltmp446:
	.loc	12 913 16                       @ ../GUILib/src/core/lv_refr.c:913:16
	lsls	r2, r2, #30
	bmi	.LBB6_68
.Ltmp447:
	.p2align	2
.LBB6_62:                               @   in Loop: Header=BB6_32 Depth=1
	@DEBUG_VALUE: draw_buf_rotate:color_p <- $r11
	@DEBUG_VALUE: rot_buf <- $r6
	@DEBUG_VALUE: height <- $r3
	@DEBUG_VALUE: max_row <- [DW_OP_plus_uconst 32, DW_OP_deref_size 4, DW_OP_LLVM_convert 32 7, DW_OP_LLVM_convert 16 7, DW_OP_stack_value] $sp
	@DEBUG_VALUE: init_y_off <- [DW_OP_plus_uconst 24] [$sp+0]
	.loc	12 0 16                         @ ../GUILib/src/core/lv_refr.c:0:16
	mov	r8, r3
.Ltmp448:
	@DEBUG_VALUE: height <- $r8
	movs	r2, #0
.Ltmp449:
.LBB6_63:                               @   in Loop: Header=BB6_32 Depth=1
	@DEBUG_VALUE: draw_buf_rotate:color_p <- $r11
	@DEBUG_VALUE: height <- $r8
	@DEBUG_VALUE: rot_buf <- $r6
	@DEBUG_VALUE: max_row <- [DW_OP_plus_uconst 32, DW_OP_deref_size 4, DW_OP_LLVM_convert 32 7, DW_OP_LLVM_convert 16 7, DW_OP_stack_value] $sp
	@DEBUG_VALUE: init_y_off <- [DW_OP_plus_uconst 24] [$sp+0]
	str	r2, [r5, #28]
.Ltmp450:
	.loc	12 982 31 is_stmt 1             @ ../GUILib/src/core/lv_refr.c:982:31
	ldrh.w	r3, [r9, #8]
	.loc	12 983 31                       @ ../GUILib/src/core/lv_refr.c:983:31
	ldrh.w	r7, [r9, #10]
	.loc	12 982 24                       @ ../GUILib/src/core/lv_refr.c:982:24
	add	r1, r3
	.loc	12 981 29                       @ ../GUILib/src/core/lv_refr.c:981:29
	strh.w	r1, [sp, #68]
	.loc	12 983 21                       @ ../GUILib/src/core/lv_refr.c:983:21
	ldrh	r1, [r4, #18]
.Ltmp451:
	.loc	12 921 38                       @ ../GUILib/src/core/lv_refr.c:921:38
	cmp	r6, #0
.Ltmp452:
	.loc	12 983 24                       @ ../GUILib/src/core/lv_refr.c:983:24
	add	r1, r7
	str	r6, [sp, #48]                   @ 4-byte Spill
.Ltmp453:
	.loc	12 921 38                       @ ../GUILib/src/core/lv_refr.c:921:38
	it	eq
	moveq	r6, r11
.Ltmp454:
	@DEBUG_VALUE: call_flush_cb:area <- [DW_OP_plus_uconst 16, DW_OP_stack_value] $r4
	@DEBUG_VALUE: call_flush_cb:drv <- $r9
	@DEBUG_VALUE: call_flush_cb:color_p <- $r6
	.loc	12 981 29                       @ ../GUILib/src/core/lv_refr.c:981:29
	strh.w	r1, [sp, #70]
	.loc	12 985 21                       @ ../GUILib/src/core/lv_refr.c:985:21
	ldrh	r1, [r4, #22]
.Ltmp455:
	@DEBUG_VALUE: call_flush_cb:area <- [DW_OP_plus_uconst 44, DW_OP_deref_size 4, DW_OP_plus_uconst 16, DW_OP_stack_value] $sp
	.loc	12 984 24                       @ ../GUILib/src/core/lv_refr.c:984:24
	add	r0, r3
	.loc	12 981 29                       @ ../GUILib/src/core/lv_refr.c:981:29
	strh.w	r0, [sp, #72]
	.loc	12 985 24                       @ ../GUILib/src/core/lv_refr.c:985:24
	adds	r0, r1, r7
	.loc	12 988 10                       @ ../GUILib/src/core/lv_refr.c:988:10
	ldr.w	r3, [r9, #20]
	.loc	12 981 29                       @ ../GUILib/src/core/lv_refr.c:981:29
	strh.w	r0, [sp, #74]
	.loc	12 988 5                        @ ../GUILib/src/core/lv_refr.c:988:5
	mov	r0, r9
	add	r1, sp, #68
	mov	r2, r6
	blx	r3
.Ltmp456:
	.loc	12 923 29                       @ ../GUILib/src/core/lv_refr.c:923:29
	ldr	r0, [r5, #24]
	ldr	r7, [sp, #40]                   @ 4-byte Reload
	.loc	12 923 13 is_stmt 0             @ ../GUILib/src/core/lv_refr.c:923:13
	cbz	r0, .LBB6_67
.Ltmp457:
	.p2align	2
.LBB6_64:                               @   Parent Loop BB6_32 Depth=1
                                        @ =>  This Inner Loop Header: Depth=2
	@DEBUG_VALUE: draw_buf_rotate:color_p <- $r11
	@DEBUG_VALUE: height <- $r8
	@DEBUG_VALUE: max_row <- [DW_OP_plus_uconst 32, DW_OP_deref_size 4, DW_OP_LLVM_convert 32 7, DW_OP_LLVM_convert 16 7, DW_OP_stack_value] $sp
	@DEBUG_VALUE: init_y_off <- [DW_OP_plus_uconst 24] [$sp+0]
	.loc	12 924 25 is_stmt 1             @ ../GUILib/src/core/lv_refr.c:924:25
	ldr.w	r1, [r9, #36]
.Ltmp458:
	.loc	12 924 20 is_stmt 0             @ ../GUILib/src/core/lv_refr.c:924:20
	cbz	r1, .LBB6_66
.Ltmp459:
@ %bb.65:                               @   in Loop: Header=BB6_64 Depth=2
	@DEBUG_VALUE: draw_buf_rotate:color_p <- $r11
	@DEBUG_VALUE: height <- $r8
	@DEBUG_VALUE: max_row <- [DW_OP_plus_uconst 32, DW_OP_deref_size 4, DW_OP_LLVM_convert 32 7, DW_OP_LLVM_convert 16 7, DW_OP_stack_value] $sp
	@DEBUG_VALUE: init_y_off <- [DW_OP_plus_uconst 24] [$sp+0]
	.loc	12 924 34                       @ ../GUILib/src/core/lv_refr.c:924:34
	mov	r0, r9
	blx	r1
.Ltmp460:
.LBB6_66:                               @   in Loop: Header=BB6_64 Depth=2
	@DEBUG_VALUE: draw_buf_rotate:color_p <- $r11
	@DEBUG_VALUE: height <- $r8
	@DEBUG_VALUE: max_row <- [DW_OP_plus_uconst 32, DW_OP_deref_size 4, DW_OP_LLVM_convert 32 7, DW_OP_LLVM_convert 16 7, DW_OP_stack_value] $sp
	@DEBUG_VALUE: init_y_off <- [DW_OP_plus_uconst 24] [$sp+0]
	.loc	12 923 29 is_stmt 1             @ ../GUILib/src/core/lv_refr.c:923:29
	ldr	r0, [r5, #24]
	.loc	12 923 13 is_stmt 0             @ ../GUILib/src/core/lv_refr.c:923:13
	cmp	r0, #0
	bne	.LBB6_64
.Ltmp461:
.LBB6_67:                               @   in Loop: Header=BB6_32 Depth=1
	@DEBUG_VALUE: draw_buf_rotate:color_p <- $r11
	@DEBUG_VALUE: height <- $r8
	@DEBUG_VALUE: max_row <- [DW_OP_plus_uconst 32, DW_OP_deref_size 4, DW_OP_LLVM_convert 32 7, DW_OP_LLVM_convert 16 7, DW_OP_stack_value] $sp
	@DEBUG_VALUE: init_y_off <- [DW_OP_plus_uconst 24] [$sp+0]
	.loc	12 0 0                          @ ../GUILib/src/core/lv_refr.c:0:0
	sxth.w	r0, r8
	.loc	12 926 31 is_stmt 1             @ ../GUILib/src/core/lv_refr.c:926:31
	mul	r0, r0, r10
	.loc	12 926 21 is_stmt 0             @ ../GUILib/src/core/lv_refr.c:926:21
	add.w	r11, r11, r0, lsl #1
.Ltmp462:
	@DEBUG_VALUE: row <- undef
	@DEBUG_VALUE: rot_buf <- [DW_OP_plus_uconst 48] [$sp+0]
	@DEBUG_VALUE: draw_buf_rotate:color_p <- $r11
	.loc	12 0 21                         @ ../GUILib/src/core/lv_refr.c:0:21
	ldr	r0, [sp, #64]                   @ 4-byte Reload
	ldrd	r4, r6, [sp, #44]               @ 8-byte Folded Reload
.Ltmp463:
	.loc	12 880 15 is_stmt 1             @ ../GUILib/src/core/lv_refr.c:880:15
	sxth	r2, r0
	.loc	12 880 9 is_stmt 0              @ ../GUILib/src/core/lv_refr.c:880:9
	cmp	r2, r7
	.loc	12 880 15                       @ ../GUILib/src/core/lv_refr.c:880:15
	lsl.w	r0, r0, #16
.Ltmp464:
	@DEBUG_VALUE: rot_buf <- $r6
	.loc	12 880 9                        @ ../GUILib/src/core/lv_refr.c:880:9
	blt.w	.LBB6_32
	b	.LBB6_69
.Ltmp465:
.LBB6_68:                               @   in Loop: Header=BB6_32 Depth=1
	@DEBUG_VALUE: draw_buf_rotate:color_p <- $r11
	@DEBUG_VALUE: rot_buf <- $r6
	@DEBUG_VALUE: height <- $r3
	@DEBUG_VALUE: max_row <- [DW_OP_plus_uconst 32, DW_OP_deref_size 4, DW_OP_LLVM_convert 32 7, DW_OP_LLVM_convert 16 7, DW_OP_stack_value] $sp
	@DEBUG_VALUE: init_y_off <- [DW_OP_plus_uconst 24] [$sp+0]
	.loc	12 0 9                          @ ../GUILib/src/core/lv_refr.c:0:9
	mov	r8, r3
	@DEBUG_VALUE: height <- $r8
	movs	r2, #1
	b	.LBB6_63
.Ltmp466:
.LBB6_69:
	@DEBUG_VALUE: draw_buf_rotate:color_p <- $r11
	@DEBUG_VALUE: rot_buf <- $r6
	@DEBUG_VALUE: max_row <- [DW_OP_plus_uconst 32, DW_OP_deref_size 4, DW_OP_LLVM_convert 32 7, DW_OP_LLVM_convert 16 7, DW_OP_stack_value] $sp
	@DEBUG_VALUE: init_y_off <- [DW_OP_plus_uconst 24] [$sp+0]
	.loc	12 930 12 is_stmt 1             @ ../GUILib/src/core/lv_refr.c:930:12
	cmp	r6, #0
	beq.w	.LBB6_15
.Ltmp467:
@ %bb.70:
	@DEBUG_VALUE: draw_buf_rotate:color_p <- $r11
	@DEBUG_VALUE: rot_buf <- $r6
	@DEBUG_VALUE: max_row <- [DW_OP_plus_uconst 32, DW_OP_deref_size 4, DW_OP_LLVM_convert 32 7, DW_OP_LLVM_convert 16 7, DW_OP_stack_value] $sp
	@DEBUG_VALUE: init_y_off <- [DW_OP_plus_uconst 24] [$sp+0]
	.loc	12 930 29 is_stmt 0             @ ../GUILib/src/core/lv_refr.c:930:29
	mov	r0, r6
	bl	lv_mem_buf_release
.Ltmp468:
	.loc	12 0 29                         @ ../GUILib/src/core/lv_refr.c:0:29
	b	.LBB6_15
.Ltmp469:
.Lfunc_end6:
	.size	draw_buf_flush, .Lfunc_end6-draw_buf_flush
	.cfi_endproc
	.cantunwind
	.fnend
                                        @ -- End function
	.section	.text.lv_refr_get_fps_avg,"ax",%progbits
	.hidden	lv_refr_get_fps_avg             @ -- Begin function lv_refr_get_fps_avg
	.globl	lv_refr_get_fps_avg
	.p2align	1
	.type	lv_refr_get_fps_avg,%function
	.code	16                              @ @lv_refr_get_fps_avg
	.thumb_func
lv_refr_get_fps_avg:
.Lfunc_begin7:
	.loc	12 321 0 is_stmt 1              @ ../GUILib/src/core/lv_refr.c:321:0
	.fnstart
	.cfi_startproc
@ %bb.0:
	.loc	12 322 12 prologue_end          @ ../GUILib/src/core/lv_refr.c:322:12
	movw	r0, :lower16:fps_sum_all
	.loc	12 322 26 is_stmt 0             @ ../GUILib/src/core/lv_refr.c:322:26
	movw	r1, :lower16:fps_sum_cnt
	.loc	12 322 12                       @ ../GUILib/src/core/lv_refr.c:322:12
	movt	r0, :upper16:fps_sum_all
	.loc	12 322 26                       @ ../GUILib/src/core/lv_refr.c:322:26
	movt	r1, :upper16:fps_sum_cnt
	.loc	12 322 12                       @ ../GUILib/src/core/lv_refr.c:322:12
	ldr	r0, [r0]
	.loc	12 322 26                       @ ../GUILib/src/core/lv_refr.c:322:26
	ldr	r1, [r1]
	.loc	12 322 24                       @ ../GUILib/src/core/lv_refr.c:322:24
	udiv	r0, r0, r1
	.loc	12 322 5                        @ ../GUILib/src/core/lv_refr.c:322:5
	bx	lr
.Ltmp470:
.Lfunc_end7:
	.size	lv_refr_get_fps_avg, .Lfunc_end7-lv_refr_get_fps_avg
	.cfi_endproc
	.cantunwind
	.fnend
                                        @ -- End function
	.section	.text.lv_refr_area_part,"ax",%progbits
	.p2align	1                               @ -- Begin function lv_refr_area_part
	.type	lv_refr_area_part,%function
	.code	16                              @ @lv_refr_area_part
	.thumb_func
lv_refr_area_part:
.Lfunc_begin8:
	.loc	12 506 0 is_stmt 1              @ ../GUILib/src/core/lv_refr.c:506:0
	.fnstart
	.cfi_startproc
@ %bb.0:
	@DEBUG_VALUE: lv_refr_area_part:area_p <- $r0
	.save	{r4, r5, r6, r7, r8, lr}
	push.w	{r4, r5, r6, r7, r8, lr}
	.cfi_def_cfa_offset 24
	.cfi_offset lr, -4
	.cfi_offset r8, -8
	.cfi_offset r7, -12
	.cfi_offset r6, -16
	.cfi_offset r5, -20
	.cfi_offset r4, -24
	.pad	#80
	sub	sp, #80
	.cfi_def_cfa_offset 104
.Ltmp471:
	.loc	12 507 58 prologue_end          @ ../GUILib/src/core/lv_refr.c:507:58
	movw	r7, :lower16:disp_refr
	movt	r7, :upper16:disp_refr
	ldr	r1, [r7]
	mov	r4, r0
.Ltmp472:
	@DEBUG_VALUE: lv_refr_area_part:area_p <- $r4
	@DEBUG_VALUE: lv_refr_area_part:area_p <- $r4
	.loc	12 507 37 is_stmt 0             @ ../GUILib/src/core/lv_refr.c:507:37
	mov	r0, r1
	bl	lv_disp_get_draw_buf
.Ltmp473:
	mov	r5, r0
.Ltmp474:
	@DEBUG_VALUE: lv_refr_area_part:draw_buf <- $r5
	.loc	12 511 18 is_stmt 1             @ ../GUILib/src/core/lv_refr.c:511:18
	ldr	r0, [r0]
	.loc	12 511 23 is_stmt 0             @ ../GUILib/src/core/lv_refr.c:511:23
	cbz	r0, .LBB8_5
.Ltmp475:
@ %bb.1:
	@DEBUG_VALUE: lv_refr_area_part:draw_buf <- $r5
	@DEBUG_VALUE: lv_refr_area_part:area_p <- $r4
	.loc	12 511 37                       @ ../GUILib/src/core/lv_refr.c:511:37
	ldr	r0, [r5, #4]
	cbnz	r0, .LBB8_5
	b	.LBB8_4
.Ltmp476:
	.p2align	2
.LBB8_2:                                @   in Loop: Header=BB8_4 Depth=1
	@DEBUG_VALUE: lv_refr_area_part:draw_buf <- $r5
	@DEBUG_VALUE: lv_refr_area_part:area_p <- $r4
	.loc	12 513 16 is_stmt 1             @ ../GUILib/src/core/lv_refr.c:513:16
	ldr	r0, [r7]
	.loc	12 513 27 is_stmt 0             @ ../GUILib/src/core/lv_refr.c:513:27
	ldr	r0, [r0]
	.loc	12 513 35                       @ ../GUILib/src/core/lv_refr.c:513:35
	ldr	r1, [r0, #36]
.Ltmp477:
	.loc	12 513 16                       @ ../GUILib/src/core/lv_refr.c:513:16
	cbz	r1, .LBB8_4
.Ltmp478:
@ %bb.3:                                @   in Loop: Header=BB8_4 Depth=1
	@DEBUG_VALUE: lv_refr_area_part:draw_buf <- $r5
	@DEBUG_VALUE: lv_refr_area_part:area_p <- $r4
	.loc	12 513 44                       @ ../GUILib/src/core/lv_refr.c:513:44
	blx	r1
.Ltmp479:
.LBB8_4:                                @ =>This Inner Loop Header: Depth=1
	@DEBUG_VALUE: lv_refr_area_part:draw_buf <- $r5
	@DEBUG_VALUE: lv_refr_area_part:area_p <- $r4
	.loc	12 512 25 is_stmt 1             @ ../GUILib/src/core/lv_refr.c:512:25
	ldr	r0, [r5, #24]
	.loc	12 512 9 is_stmt 0              @ ../GUILib/src/core/lv_refr.c:512:9
	cmp	r0, #0
	bne	.LBB8_2
.Ltmp480:
.LBB8_5:
	@DEBUG_VALUE: lv_refr_area_part:draw_buf <- $r5
	@DEBUG_VALUE: lv_refr_area_part:area_p <- $r4
	@DEBUG_VALUE: lv_refr_area_part:top_act_scr <- 0
	@DEBUG_VALUE: lv_refr_area_part:top_prev_scr <- 0
	.loc	12 523 56 is_stmt 1             @ ../GUILib/src/core/lv_refr.c:523:56
	add.w	r2, r5, #16
	add	r5, sp, #72
.Ltmp481:
	.loc	12 523 5 is_stmt 0              @ ../GUILib/src/core/lv_refr.c:523:5
	mov	r0, r5
	mov	r1, r4
	bl	_lv_area_intersect
.Ltmp482:
	.loc	12 526 72 is_stmt 1             @ ../GUILib/src/core/lv_refr.c:526:72
	ldr	r0, [r7]
	.loc	12 526 52 is_stmt 0             @ ../GUILib/src/core/lv_refr.c:526:52
	bl	lv_disp_get_scr_act
.Ltmp483:
	mov	r1, r0
	.loc	12 526 19                       @ ../GUILib/src/core/lv_refr.c:526:19
	mov	r0, r5
	bl	lv_refr_get_top_obj
.Ltmp484:
	.loc	12 527 8 is_stmt 1              @ ../GUILib/src/core/lv_refr.c:527:8
	ldr	r1, [r7]
.Ltmp485:
	.loc	12 526 19                       @ ../GUILib/src/core/lv_refr.c:526:19
	mov	r4, r0
.Ltmp486:
	@DEBUG_VALUE: lv_refr_area_part:area_p <- [DW_OP_LLVM_entry_value 1] $r0
	@DEBUG_VALUE: lv_refr_area_part:top_act_scr <- $r4
	.loc	12 527 19                       @ ../GUILib/src/core/lv_refr.c:527:19
	ldr	r1, [r1, #20]
.Ltmp487:
	.loc	12 527 8 is_stmt 0              @ ../GUILib/src/core/lv_refr.c:527:8
	cbz	r1, .LBB8_7
.Ltmp488:
@ %bb.6:
	@DEBUG_VALUE: lv_refr_area_part:top_act_scr <- $r4
	@DEBUG_VALUE: lv_refr_area_part:area_p <- [DW_OP_LLVM_entry_value 1] $r0
	@DEBUG_VALUE: lv_refr_area_part:top_prev_scr <- 0
	.loc	12 0 8                          @ ../GUILib/src/core/lv_refr.c:0:8
	add	r0, sp, #72
.Ltmp489:
	.loc	12 528 24 is_stmt 1             @ ../GUILib/src/core/lv_refr.c:528:24
	bl	lv_refr_get_top_obj
.Ltmp490:
	mov	r5, r0
.Ltmp491:
	@DEBUG_VALUE: lv_refr_area_part:top_prev_scr <- $r5
	.loc	12 0 24 is_stmt 0               @ ../GUILib/src/core/lv_refr.c:0:24
	b	.LBB8_8
.Ltmp492:
.LBB8_7:
	@DEBUG_VALUE: lv_refr_area_part:top_act_scr <- $r4
	@DEBUG_VALUE: lv_refr_area_part:area_p <- [DW_OP_LLVM_entry_value 1] $r0
	@DEBUG_VALUE: lv_refr_area_part:top_prev_scr <- 0
	movs	r5, #0
.Ltmp493:
.LBB8_8:
	@DEBUG_VALUE: lv_refr_area_part:top_act_scr <- $r4
	@DEBUG_VALUE: lv_refr_area_part:area_p <- [DW_OP_LLVM_entry_value 1] $r0
	@DEBUG_VALUE: lv_refr_area_part:top_prev_scr <- $r5
	.loc	12 532 20 is_stmt 1             @ ../GUILib/src/core/lv_refr.c:532:20
	orrs.w	r0, r4, r5
	.loc	12 532 28 is_stmt 0             @ ../GUILib/src/core/lv_refr.c:532:28
	bne	.LBB8_11
.Ltmp494:
@ %bb.9:
	@DEBUG_VALUE: lv_refr_area_part:top_prev_scr <- $r5
	@DEBUG_VALUE: lv_refr_area_part:top_act_scr <- $r4
	@DEBUG_VALUE: lv_refr_area_part:area_p <- [DW_OP_LLVM_entry_value 1] $r0
	.loc	12 533 12 is_stmt 1             @ ../GUILib/src/core/lv_refr.c:533:12
	ldr	r0, [r7]
	.loc	12 533 23 is_stmt 0             @ ../GUILib/src/core/lv_refr.c:533:23
	ldr	r1, [r0, #48]
.Ltmp495:
	.loc	12 533 12                       @ ../GUILib/src/core/lv_refr.c:533:12
	cbz	r1, .LBB8_16
.Ltmp496:
@ %bb.10:
	@DEBUG_VALUE: lv_refr_area_part:top_prev_scr <- $r5
	@DEBUG_VALUE: lv_refr_area_part:top_act_scr <- $r4
	@DEBUG_VALUE: lv_refr_area_part:area_p <- [DW_OP_LLVM_entry_value 1] $r0
	.loc	12 0 12                         @ ../GUILib/src/core/lv_refr.c:0:12
	add	r0, sp, #72
.Ltmp497:
	.loc	12 534 13 is_stmt 1             @ ../GUILib/src/core/lv_refr.c:534:13
	blx	r1
.Ltmp498:
.LBB8_11:
	@DEBUG_VALUE: lv_refr_area_part:top_prev_scr <- $r5
	@DEBUG_VALUE: lv_refr_area_part:top_act_scr <- $r4
	@DEBUG_VALUE: lv_refr_area_part:area_p <- [DW_OP_LLVM_entry_value 1] $r0
	.loc	12 561 8                        @ ../GUILib/src/core/lv_refr.c:561:8
	ldr	r0, [r7]
	.loc	12 561 19 is_stmt 0             @ ../GUILib/src/core/lv_refr.c:561:19
	ldr	r0, [r0, #20]
.Ltmp499:
	.loc	12 561 8                        @ ../GUILib/src/core/lv_refr.c:561:8
	cbz	r0, .LBB8_13
.Ltmp500:
@ %bb.12:
	@DEBUG_VALUE: lv_refr_area_part:top_prev_scr <- $r5
	@DEBUG_VALUE: lv_refr_area_part:top_act_scr <- $r4
	@DEBUG_VALUE: lv_refr_area_part:area_p <- [DW_OP_LLVM_entry_value 1] $r0
	.loc	12 0 8                          @ ../GUILib/src/core/lv_refr.c:0:8
	add	r1, sp, #72
.Ltmp501:
	.loc	12 563 12 is_stmt 1             @ ../GUILib/src/core/lv_refr.c:563:12
	cmp	r5, #0
	it	ne
	movne	r0, r5
.Ltmp502:
	@DEBUG_VALUE: lv_refr_area_part:top_prev_scr <- $r0
	.loc	12 567 9                        @ ../GUILib/src/core/lv_refr.c:567:9
	bl	lv_refr_obj_and_children
.Ltmp503:
.LBB8_13:
	@DEBUG_VALUE: lv_refr_area_part:top_act_scr <- $r4
	@DEBUG_VALUE: lv_refr_area_part:area_p <- [DW_OP_LLVM_entry_value 1] $r0
	.loc	12 571 8                        @ ../GUILib/src/core/lv_refr.c:571:8
	cbnz	r4, .LBB8_15
.Ltmp504:
@ %bb.14:
	@DEBUG_VALUE: lv_refr_area_part:top_act_scr <- $r4
	@DEBUG_VALUE: lv_refr_area_part:area_p <- [DW_OP_LLVM_entry_value 1] $r0
	.loc	12 572 23                       @ ../GUILib/src/core/lv_refr.c:572:23
	ldr	r0, [r7]
	.loc	12 572 34 is_stmt 0             @ ../GUILib/src/core/lv_refr.c:572:34
	ldr	r4, [r0, #16]
.Ltmp505:
	@DEBUG_VALUE: lv_refr_area_part:top_act_scr <- $r4
.LBB8_15:
	@DEBUG_VALUE: lv_refr_area_part:top_act_scr <- $r4
	@DEBUG_VALUE: lv_refr_area_part:area_p <- [DW_OP_LLVM_entry_value 1] $r0
	@DEBUG_VALUE: lv_refr_area_part:top_act_scr <- $r4
	.loc	12 0 34                         @ ../GUILib/src/core/lv_refr.c:0:34
	add	r5, sp, #72
	.loc	12 575 5 is_stmt 1              @ ../GUILib/src/core/lv_refr.c:575:5
	mov	r0, r4
	mov	r1, r5
	bl	lv_refr_obj_and_children
.Ltmp506:
	.loc	12 578 52                       @ ../GUILib/src/core/lv_refr.c:578:52
	ldr	r0, [r7]
	.loc	12 578 30 is_stmt 0             @ ../GUILib/src/core/lv_refr.c:578:30
	bl	lv_disp_get_layer_top
.Ltmp507:
	.loc	12 578 5                        @ ../GUILib/src/core/lv_refr.c:578:5
	mov	r1, r5
	bl	lv_refr_obj_and_children
.Ltmp508:
	.loc	12 579 52 is_stmt 1             @ ../GUILib/src/core/lv_refr.c:579:52
	ldr	r0, [r7]
	.loc	12 579 30 is_stmt 0             @ ../GUILib/src/core/lv_refr.c:579:30
	bl	lv_disp_get_layer_sys
.Ltmp509:
	.loc	12 579 5                        @ ../GUILib/src/core/lv_refr.c:579:5
	mov	r1, r5
	bl	lv_refr_obj_and_children
.Ltmp510:
	.loc	12 583 8 is_stmt 1              @ ../GUILib/src/core/lv_refr.c:583:8
	ldr	r0, [r7]
	.loc	12 583 19 is_stmt 0             @ ../GUILib/src/core/lv_refr.c:583:19
	ldr	r0, [r0]
.Ltmp511:
	.loc	12 583 8                        @ ../GUILib/src/core/lv_refr.c:583:8
	ldrb	r0, [r0, #16]
	lsls	r0, r0, #30
.Ltmp512:
	.loc	12 584 9 is_stmt 1              @ ../GUILib/src/core/lv_refr.c:584:9
	it	pl
	blpl	draw_buf_flush
.Ltmp513:
	.loc	12 586 1                        @ ../GUILib/src/core/lv_refr.c:586:1
	add	sp, #80
	pop.w	{r4, r5, r6, r7, r8, pc}
.Ltmp514:
.LBB8_16:
	@DEBUG_VALUE: lv_refr_area_part:top_prev_scr <- $r5
	@DEBUG_VALUE: lv_refr_area_part:top_act_scr <- $r4
	@DEBUG_VALUE: lv_refr_area_part:area_p <- [DW_OP_LLVM_entry_value 1] $r0
	.loc	12 535 30                       @ ../GUILib/src/core/lv_refr.c:535:30
	ldr	r0, [r0, #44]
.Ltmp515:
	.loc	12 535 19 is_stmt 0             @ ../GUILib/src/core/lv_refr.c:535:19
	cbz	r0, .LBB8_19
.Ltmp516:
@ %bb.17:
	@DEBUG_VALUE: lv_refr_area_part:top_prev_scr <- $r5
	@DEBUG_VALUE: lv_refr_area_part:top_act_scr <- $r4
	@DEBUG_VALUE: lv_refr_area_part:area_p <- [DW_OP_LLVM_entry_value 1] $r0
	.loc	12 0 19                         @ ../GUILib/src/core/lv_refr.c:0:19
	add	r0, sp, #8
.Ltmp517:
	.loc	12 537 13 is_stmt 1             @ ../GUILib/src/core/lv_refr.c:537:13
	bl	lv_draw_img_dsc_init
.Ltmp518:
	.loc	12 538 23                       @ ../GUILib/src/core/lv_refr.c:538:23
	ldr	r0, [r7]
	.loc	12 538 34 is_stmt 0             @ ../GUILib/src/core/lv_refr.c:538:34
	ldrb.w	r1, [r0, #41]
	.loc	12 541 54 is_stmt 1             @ ../GUILib/src/core/lv_refr.c:541:54
	ldr	r0, [r0, #44]
	.loc	12 538 21                       @ ../GUILib/src/core/lv_refr.c:538:21
	strb.w	r1, [sp, #19]
	add	r1, sp, #68
	.loc	12 541 19                       @ ../GUILib/src/core/lv_refr.c:541:19
	bl	lv_img_decoder_get_info
.Ltmp519:
	@DEBUG_VALUE: res <- $r0
	.loc	12 542 16                       @ ../GUILib/src/core/lv_refr.c:542:16
	cmp	r0, #1
	bne	.LBB8_11
.Ltmp520:
@ %bb.18:
	@DEBUG_VALUE: lv_refr_area_part:top_prev_scr <- $r5
	@DEBUG_VALUE: lv_refr_area_part:top_act_scr <- $r4
	@DEBUG_VALUE: res <- $r0
	@DEBUG_VALUE: lv_refr_area_part:area_p <- [DW_OP_LLVM_entry_value 1] $r0
	.loc	12 544 46                       @ ../GUILib/src/core/lv_refr.c:544:46
	ldrb.w	r0, [sp, #71]
.Ltmp521:
	ldrh.w	r1, [sp, #69]
	add.w	r8, sp, #60
	orr.w	r0, r1, r0, lsl #16
	ubfx	r1, r0, #2, #11
	.loc	12 544 48 is_stmt 0             @ ../GUILib/src/core/lv_refr.c:544:48
	subs	r3, r1, #1
	mov.w	r1, #-1
	.loc	12 544 62                       @ ../GUILib/src/core/lv_refr.c:544:62
	add.w	r6, r1, r0, lsr #13
	.loc	12 544 17                       @ ../GUILib/src/core/lv_refr.c:544:17
	mov	r0, r8
	movs	r1, #0
	movs	r2, #0
	str	r6, [sp]
	bl	lv_area_set
.Ltmp522:
	.loc	12 545 46 is_stmt 1             @ ../GUILib/src/core/lv_refr.c:545:46
	ldr	r0, [r7]
	add	r1, sp, #72
	.loc	12 545 57 is_stmt 0             @ ../GUILib/src/core/lv_refr.c:545:57
	ldr	r2, [r0, #44]
	add	r3, sp, #8
	.loc	12 545 17                       @ ../GUILib/src/core/lv_refr.c:545:17
	mov	r0, r8
	bl	lv_draw_img
.Ltmp523:
	.loc	12 0 17                         @ ../GUILib/src/core/lv_refr.c:0:17
	b	.LBB8_11
.Ltmp524:
.LBB8_19:
	@DEBUG_VALUE: lv_refr_area_part:top_prev_scr <- $r5
	@DEBUG_VALUE: lv_refr_area_part:top_act_scr <- $r4
	@DEBUG_VALUE: lv_refr_area_part:area_p <- [DW_OP_LLVM_entry_value 1] $r0
	add	r6, sp, #8
.Ltmp525:
	.loc	12 553 13 is_stmt 1             @ ../GUILib/src/core/lv_refr.c:553:13
	mov	r0, r6
	bl	lv_draw_rect_dsc_init
.Ltmp526:
	.loc	12 554 28                       @ ../GUILib/src/core/lv_refr.c:554:28
	ldr	r0, [r7]
	.loc	12 556 13                       @ ../GUILib/src/core/lv_refr.c:556:13
	mov	r2, r6
	.loc	12 554 39                       @ ../GUILib/src/core/lv_refr.c:554:39
	ldrh	r1, [r0, #42]
	.loc	12 555 37                       @ ../GUILib/src/core/lv_refr.c:555:37
	ldrb.w	r0, [r0, #41]
	.loc	12 554 39                       @ ../GUILib/src/core/lv_refr.c:554:39
	strh.w	r1, [sp, #12]
	.loc	12 555 24                       @ ../GUILib/src/core/lv_refr.c:555:24
	strb.w	r0, [sp, #18]
	add	r0, sp, #72
	.loc	12 556 13                       @ ../GUILib/src/core/lv_refr.c:556:13
	mov	r1, r0
	bl	lv_draw_rect
.Ltmp527:
	.loc	12 0 13 is_stmt 0               @ ../GUILib/src/core/lv_refr.c:0:13
	b	.LBB8_11
.Ltmp528:
.Lfunc_end8:
	.size	lv_refr_area_part, .Lfunc_end8-lv_refr_area_part
	.cfi_endproc
	.cantunwind
	.fnend
                                        @ -- End function
	.section	.text.lv_refr_get_top_obj,"ax",%progbits
	.p2align	1                               @ -- Begin function lv_refr_get_top_obj
	.type	lv_refr_get_top_obj,%function
	.code	16                              @ @lv_refr_get_top_obj
	.thumb_func
lv_refr_get_top_obj:
.Lfunc_begin9:
	.loc	12 595 0 is_stmt 1              @ ../GUILib/src/core/lv_refr.c:595:0
	.fnstart
	.cfi_startproc
@ %bb.0:
	@DEBUG_VALUE: lv_refr_get_top_obj:area_p <- $r0
	@DEBUG_VALUE: lv_refr_get_top_obj:obj <- $r1
	.save	{r4, r5, r6, r7, lr}
	push	{r4, r5, r6, r7, lr}
	.cfi_def_cfa_offset 20
	.cfi_offset lr, -4
	.cfi_offset r7, -8
	.cfi_offset r6, -12
	.cfi_offset r5, -16
	.cfi_offset r4, -20
	.pad	#12
	sub	sp, #12
	.cfi_def_cfa_offset 32
	mov	r4, r1
.Ltmp529:
	.loc	12 599 37 prologue_end          @ ../GUILib/src/core/lv_refr.c:599:37
	adds	r1, #20
.Ltmp530:
	@DEBUG_VALUE: lv_refr_get_top_obj:obj <- [DW_OP_LLVM_entry_value 1] $r1
	.loc	12 599 8 is_stmt 0              @ ../GUILib/src/core/lv_refr.c:599:8
	movs	r2, #0
	mov	r5, r0
.Ltmp531:
	@DEBUG_VALUE: lv_refr_get_top_obj:found_p <- 0
	@DEBUG_VALUE: lv_refr_get_top_obj:obj <- $r4
	@DEBUG_VALUE: lv_refr_get_top_obj:area_p <- $r5
	.loc	12 0 8                          @ ../GUILib/src/core/lv_refr.c:0:8
	movs	r6, #0
	.loc	12 599 8                        @ ../GUILib/src/core/lv_refr.c:599:8
	bl	_lv_area_is_in
.Ltmp532:
	.loc	12 599 48                       @ ../GUILib/src/core/lv_refr.c:599:48
	cbz	r0, .LBB9_11
.Ltmp533:
@ %bb.1:
	@DEBUG_VALUE: lv_refr_get_top_obj:area_p <- $r5
	@DEBUG_VALUE: lv_refr_get_top_obj:obj <- $r4
	@DEBUG_VALUE: lv_refr_get_top_obj:found_p <- 0
	.loc	12 599 51                       @ ../GUILib/src/core/lv_refr.c:599:51
	mov	r0, r4
	movs	r1, #1
	bl	lv_obj_has_flag
.Ltmp534:
	.loc	12 0 51                         @ ../GUILib/src/core/lv_refr.c:0:51
	mov.w	r6, #0
.Ltmp535:
	.loc	12 599 8                        @ ../GUILib/src/core/lv_refr.c:599:8
	cbnz	r0, .LBB9_11
.Ltmp536:
@ %bb.2:
	@DEBUG_VALUE: lv_refr_get_top_obj:area_p <- $r5
	@DEBUG_VALUE: lv_refr_get_top_obj:obj <- $r4
	@DEBUG_VALUE: lv_refr_get_top_obj:found_p <- 0
	.loc	12 0 8                          @ ../GUILib/src/core/lv_refr.c:0:8
	add	r2, sp, #4
.Ltmp537:
	.loc	12 603 9 is_stmt 1              @ ../GUILib/src/core/lv_refr.c:603:9
	mov	r0, r4
	movs	r1, #18
	.loc	12 601 18                       @ ../GUILib/src/core/lv_refr.c:601:18
	strb.w	r6, [sp, #4]
	.loc	12 602 19                       @ ../GUILib/src/core/lv_refr.c:602:19
	str	r5, [sp, #8]
	.loc	12 603 9                        @ ../GUILib/src/core/lv_refr.c:603:9
	bl	lv_event_send
.Ltmp538:
	.loc	12 604 17                       @ ../GUILib/src/core/lv_refr.c:604:17
	ldrb.w	r0, [sp, #4]
.Ltmp539:
	.loc	12 604 12 is_stmt 0             @ ../GUILib/src/core/lv_refr.c:604:12
	cmp	r0, #2
	bne	.LBB9_4
.Ltmp540:
@ %bb.3:
	@DEBUG_VALUE: lv_refr_get_top_obj:area_p <- $r5
	@DEBUG_VALUE: lv_refr_get_top_obj:obj <- $r4
	@DEBUG_VALUE: lv_refr_get_top_obj:found_p <- 0
	.loc	12 0 12                         @ ../GUILib/src/core/lv_refr.c:0:12
	movs	r6, #0
	b	.LBB9_11
.Ltmp541:
.LBB9_4:
	@DEBUG_VALUE: lv_refr_get_top_obj:area_p <- $r5
	@DEBUG_VALUE: lv_refr_get_top_obj:obj <- $r4
	@DEBUG_VALUE: lv_refr_get_top_obj:found_p <- 0
	.loc	12 607 30 is_stmt 1             @ ../GUILib/src/core/lv_refr.c:607:30
	mov	r0, r4
	bl	lv_obj_get_child_cnt
.Ltmp542:
	@DEBUG_VALUE: i <- 0
	@DEBUG_VALUE: child_cnt <- $r0
	@DEBUG_VALUE: lv_refr_get_top_obj:found_p <- undef
	.loc	12 608 9                        @ ../GUILib/src/core/lv_refr.c:608:9
	cbz	r0, .LBB9_8
.Ltmp543:
@ %bb.5:
	@DEBUG_VALUE: lv_refr_get_top_obj:area_p <- $r5
	@DEBUG_VALUE: lv_refr_get_top_obj:obj <- $r4
	@DEBUG_VALUE: child_cnt <- $r0
	@DEBUG_VALUE: i <- 0
	.loc	12 0 9 is_stmt 0                @ ../GUILib/src/core/lv_refr.c:0:9
	mov	r6, r0
.Ltmp544:
	@DEBUG_VALUE: child_cnt <- $r6
	@DEBUG_VALUE: child_cnt <- $r6
	movs	r7, #0
.Ltmp545:
	.p2align	2
.LBB9_6:                                @ =>This Inner Loop Header: Depth=1
	@DEBUG_VALUE: child_cnt <- $r6
	@DEBUG_VALUE: lv_refr_get_top_obj:area_p <- $r5
	@DEBUG_VALUE: lv_refr_get_top_obj:obj <- $r4
	@DEBUG_VALUE: i <- $r7
	.loc	12 609 37 is_stmt 1             @ ../GUILib/src/core/lv_refr.c:609:37
	ldr	r0, [r4, #8]
	.loc	12 609 48 is_stmt 0             @ ../GUILib/src/core/lv_refr.c:609:48
	ldr	r0, [r0]
	.loc	12 609 32                       @ ../GUILib/src/core/lv_refr.c:609:32
	ldr.w	r1, [r0, r7, lsl #2]
.Ltmp546:
	@DEBUG_VALUE: child <- $r1
	.loc	12 610 23 is_stmt 1             @ ../GUILib/src/core/lv_refr.c:610:23
	mov	r0, r5
	bl	lv_refr_get_top_obj
.Ltmp547:
	@DEBUG_VALUE: i <- undef
	@DEBUG_VALUE: lv_refr_get_top_obj:found_p <- $r0
	.loc	12 0 23 is_stmt 0               @ ../GUILib/src/core/lv_refr.c:0:23
	cbnz	r0, .LBB9_9
.Ltmp548:
@ %bb.7:                                @   in Loop: Header=BB9_6 Depth=1
	@DEBUG_VALUE: child_cnt <- $r6
	@DEBUG_VALUE: lv_refr_get_top_obj:area_p <- $r5
	@DEBUG_VALUE: lv_refr_get_top_obj:obj <- $r4
	@DEBUG_VALUE: lv_refr_get_top_obj:found_p <- $r0
	adds	r7, #1
.Ltmp549:
	@DEBUG_VALUE: i <- $r7
	@DEBUG_VALUE: lv_refr_get_top_obj:found_p <- undef
	.loc	12 608 9 is_stmt 1              @ ../GUILib/src/core/lv_refr.c:608:9
	cmp	r6, r7
	bne	.LBB9_6
.Ltmp550:
.LBB9_8:
	@DEBUG_VALUE: lv_refr_get_top_obj:area_p <- $r5
	@DEBUG_VALUE: lv_refr_get_top_obj:obj <- $r4
	@DEBUG_VALUE: lv_refr_get_top_obj:found_p <- undef
	.loc	12 620 21                       @ ../GUILib/src/core/lv_refr.c:620:21
	ldrb.w	r0, [sp, #4]
.Ltmp551:
	.loc	12 620 16 is_stmt 0             @ ../GUILib/src/core/lv_refr.c:620:16
	cmp	r0, #0
	it	ne
	movne	r4, #0
.Ltmp552:
	.loc	12 0 16                         @ ../GUILib/src/core/lv_refr.c:0:16
	b	.LBB9_10
.Ltmp553:
.LBB9_9:
	@DEBUG_VALUE: child_cnt <- $r6
	@DEBUG_VALUE: lv_refr_get_top_obj:area_p <- $r5
	@DEBUG_VALUE: lv_refr_get_top_obj:obj <- $r4
	@DEBUG_VALUE: lv_refr_get_top_obj:found_p <- $r0
	mov	r4, r0
.Ltmp554:
	@DEBUG_VALUE: lv_refr_get_top_obj:found_p <- $r4
.LBB9_10:
	@DEBUG_VALUE: lv_refr_get_top_obj:area_p <- $r5
	@DEBUG_VALUE: lv_refr_get_top_obj:found_p <- $r4
	mov	r6, r4
.Ltmp555:
	@DEBUG_VALUE: lv_refr_get_top_obj:found_p <- $r6
	@DEBUG_VALUE: lv_refr_get_top_obj:found_p <- $r6
.LBB9_11:
	@DEBUG_VALUE: lv_refr_get_top_obj:area_p <- $r5
	.loc	12 627 1 is_stmt 1              @ ../GUILib/src/core/lv_refr.c:627:1
	mov	r0, r6
	add	sp, #12
	pop	{r4, r5, r6, r7, pc}
.Ltmp556:
.Lfunc_end9:
	.size	lv_refr_get_top_obj, .Lfunc_end9-lv_refr_get_top_obj
	.cfi_endproc
	.cantunwind
	.fnend
                                        @ -- End function
	.section	.text.lv_refr_obj_and_children,"ax",%progbits
	.p2align	1                               @ -- Begin function lv_refr_obj_and_children
	.type	lv_refr_obj_and_children,%function
	.code	16                              @ @lv_refr_obj_and_children
	.thumb_func
lv_refr_obj_and_children:
.Lfunc_begin10:
	.loc	12 635 0                        @ ../GUILib/src/core/lv_refr.c:635:0
	.fnstart
	.cfi_startproc
@ %bb.0:
	@DEBUG_VALUE: lv_refr_obj_and_children:top_p <- $r0
	@DEBUG_VALUE: lv_refr_obj_and_children:mask_p <- $r1
	.save	{r4, r5, r6, r7, r8, lr}
	push.w	{r4, r5, r6, r7, r8, lr}
	.cfi_def_cfa_offset 24
	.cfi_offset lr, -4
	.cfi_offset r8, -8
	.cfi_offset r7, -12
	.cfi_offset r6, -16
	.cfi_offset r5, -20
	.cfi_offset r4, -24
	mov	r5, r0
.Ltmp557:
	@DEBUG_VALUE: lv_refr_obj_and_children:top_p <- $r5
	mov	r8, r1
.Ltmp558:
	@DEBUG_VALUE: lv_refr_obj_and_children:mask_p <- $r8
	@DEBUG_VALUE: lv_refr_obj_and_children:mask_p <- $r8
	.loc	12 639 8 prologue_end           @ ../GUILib/src/core/lv_refr.c:639:8
	cbnz	r0, .LBB10_2
.Ltmp559:
@ %bb.1:
	@DEBUG_VALUE: lv_refr_obj_and_children:mask_p <- $r8
	@DEBUG_VALUE: lv_refr_obj_and_children:top_p <- $r5
	.loc	12 639 51 is_stmt 0             @ ../GUILib/src/core/lv_refr.c:639:51
	movw	r0, :lower16:disp_refr
	movt	r0, :upper16:disp_refr
	ldr	r0, [r0]
	.loc	12 639 31                       @ ../GUILib/src/core/lv_refr.c:639:31
	bl	lv_disp_get_scr_act
.Ltmp560:
	mov	r5, r0
.Ltmp561:
	@DEBUG_VALUE: lv_refr_obj_and_children:top_p <- [DW_OP_LLVM_entry_value 1] $r0
	@DEBUG_VALUE: lv_refr_obj_and_children:border_p <- $r5
	@DEBUG_VALUE: lv_refr_obj_and_children:top_p <- $r5
	.loc	12 640 8 is_stmt 1              @ ../GUILib/src/core/lv_refr.c:640:8
	cbz	r0, .LBB10_10
.Ltmp562:
.LBB10_2:
	@DEBUG_VALUE: lv_refr_obj_and_children:mask_p <- $r8
	@DEBUG_VALUE: lv_refr_obj_and_children:top_p <- $r5
	.loc	12 643 5                        @ ../GUILib/src/core/lv_refr.c:643:5
	mov	r0, r5
	mov	r1, r8
	bl	lv_refr_obj
.Ltmp563:
	.loc	12 649 11                       @ ../GUILib/src/core/lv_refr.c:649:11
	mov	r0, r5
	bl	lv_obj_get_parent
.Ltmp564:
	@DEBUG_VALUE: lv_refr_obj_and_children:par <- $r0
	@DEBUG_VALUE: lv_refr_obj_and_children:border_p <- $r5
	.loc	12 652 5                        @ ../GUILib/src/core/lv_refr.c:652:5
	cbz	r0, .LBB10_10
.Ltmp565:
	.p2align	2
.LBB10_3:                               @ =>This Loop Header: Depth=1
                                        @     Child Loop BB10_5 Depth 2
	@DEBUG_VALUE: lv_refr_obj_and_children:mask_p <- $r8
	@DEBUG_VALUE: lv_refr_obj_and_children:border_p <- $r5
	@DEBUG_VALUE: lv_refr_obj_and_children:par <- $r0
	.loc	12 0 5 is_stmt 0                @ ../GUILib/src/core/lv_refr.c:0:5
	mov	r6, r0
.Ltmp566:
	@DEBUG_VALUE: go <- 0
	@DEBUG_VALUE: lv_refr_obj_and_children:par <- $r6
	@DEBUG_VALUE: lv_refr_obj_and_children:border_p <- $r5
	.loc	12 655 30 is_stmt 1             @ ../GUILib/src/core/lv_refr.c:655:30
	bl	lv_obj_get_child_cnt
.Ltmp567:
	@DEBUG_VALUE: i <- 0
	@DEBUG_VALUE: child_cnt <- $r0
	@DEBUG_VALUE: go <- undef
	.loc	12 656 9                        @ ../GUILib/src/core/lv_refr.c:656:9
	cbz	r0, .LBB10_9
.Ltmp568:
@ %bb.4:                                @   in Loop: Header=BB10_3 Depth=1
	@DEBUG_VALUE: lv_refr_obj_and_children:mask_p <- $r8
	@DEBUG_VALUE: lv_refr_obj_and_children:par <- $r6
	@DEBUG_VALUE: lv_refr_obj_and_children:border_p <- $r5
	@DEBUG_VALUE: child_cnt <- $r0
	@DEBUG_VALUE: i <- 0
	.loc	12 0 9 is_stmt 0                @ ../GUILib/src/core/lv_refr.c:0:9
	mov	r7, r0
.Ltmp569:
	@DEBUG_VALUE: child_cnt <- $r7
	@DEBUG_VALUE: child_cnt <- $r7
	@DEBUG_VALUE: child_cnt <- $r7
	movs	r4, #0
	movs	r1, #0
.Ltmp570:
	.p2align	2
.LBB10_5:                               @   Parent Loop BB10_3 Depth=1
                                        @ =>  This Inner Loop Header: Depth=2
	@DEBUG_VALUE: lv_refr_obj_and_children:mask_p <- $r8
	@DEBUG_VALUE: child_cnt <- $r7
	@DEBUG_VALUE: lv_refr_obj_and_children:par <- $r6
	@DEBUG_VALUE: lv_refr_obj_and_children:border_p <- $r5
	@DEBUG_VALUE: i <- $r4
	.loc	12 657 37 is_stmt 1             @ ../GUILib/src/core/lv_refr.c:657:37
	ldr	r0, [r6, #8]
	.loc	12 658 16                       @ ../GUILib/src/core/lv_refr.c:658:16
	lsls	r1, r1, #31
	.loc	12 657 48                       @ ../GUILib/src/core/lv_refr.c:657:48
	ldr	r0, [r0]
	.loc	12 657 32 is_stmt 0             @ ../GUILib/src/core/lv_refr.c:657:32
	ldr.w	r0, [r0, r4, lsl #2]
.Ltmp571:
	@DEBUG_VALUE: child <- $r0
	.loc	12 658 16 is_stmt 1             @ ../GUILib/src/core/lv_refr.c:658:16
	beq	.LBB10_7
.Ltmp572:
@ %bb.6:                                @   in Loop: Header=BB10_5 Depth=2
	@DEBUG_VALUE: lv_refr_obj_and_children:mask_p <- $r8
	@DEBUG_VALUE: child_cnt <- $r7
	@DEBUG_VALUE: lv_refr_obj_and_children:par <- $r6
	@DEBUG_VALUE: lv_refr_obj_and_children:border_p <- $r5
	@DEBUG_VALUE: i <- $r4
	@DEBUG_VALUE: child <- $r0
	.loc	12 663 17                       @ ../GUILib/src/core/lv_refr.c:663:17
	mov	r1, r8
	bl	lv_refr_obj
.Ltmp573:
	.loc	12 0 17 is_stmt 0               @ ../GUILib/src/core/lv_refr.c:0:17
	movs	r1, #1
	b	.LBB10_8
.Ltmp574:
	.p2align	2
.LBB10_7:                               @   in Loop: Header=BB10_5 Depth=2
	@DEBUG_VALUE: lv_refr_obj_and_children:mask_p <- $r8
	@DEBUG_VALUE: child_cnt <- $r7
	@DEBUG_VALUE: lv_refr_obj_and_children:par <- $r6
	@DEBUG_VALUE: lv_refr_obj_and_children:border_p <- $r5
	@DEBUG_VALUE: i <- $r4
	@DEBUG_VALUE: child <- $r0
	.loc	12 659 26 is_stmt 1             @ ../GUILib/src/core/lv_refr.c:659:26
	subs	r0, r0, r5
.Ltmp575:
	clz	r0, r0
	lsrs	r1, r0, #5
.Ltmp576:
.LBB10_8:                               @   in Loop: Header=BB10_5 Depth=2
	@DEBUG_VALUE: lv_refr_obj_and_children:mask_p <- $r8
	@DEBUG_VALUE: child_cnt <- $r7
	@DEBUG_VALUE: lv_refr_obj_and_children:par <- $r6
	@DEBUG_VALUE: lv_refr_obj_and_children:border_p <- $r5
	@DEBUG_VALUE: i <- $r4
	@DEBUG_VALUE: go <- undef
	.loc	12 656 36                       @ ../GUILib/src/core/lv_refr.c:656:36
	adds	r4, #1
.Ltmp577:
	@DEBUG_VALUE: i <- $r4
	.loc	12 656 9 is_stmt 0              @ ../GUILib/src/core/lv_refr.c:656:9
	cmp	r7, r4
	bne	.LBB10_5
.Ltmp578:
.LBB10_9:                               @   in Loop: Header=BB10_3 Depth=1
	@DEBUG_VALUE: lv_refr_obj_and_children:mask_p <- $r8
	@DEBUG_VALUE: lv_refr_obj_and_children:par <- $r6
	@DEBUG_VALUE: lv_refr_obj_and_children:border_p <- $r5
	.loc	12 668 9 is_stmt 1              @ ../GUILib/src/core/lv_refr.c:668:9
	mov	r0, r6
	movs	r1, #23
	mov	r2, r8
	bl	lv_event_send
.Ltmp579:
	.loc	12 669 9                        @ ../GUILib/src/core/lv_refr.c:669:9
	mov	r0, r6
	movs	r1, #24
	mov	r2, r8
	bl	lv_event_send
.Ltmp580:
	.loc	12 670 9                        @ ../GUILib/src/core/lv_refr.c:670:9
	mov	r0, r6
	movs	r1, #25
	mov	r2, r8
	bl	lv_event_send
.Ltmp581:
	@DEBUG_VALUE: lv_refr_obj_and_children:border_p <- $r6
	.loc	12 676 15                       @ ../GUILib/src/core/lv_refr.c:676:15
	mov	r0, r6
	bl	lv_obj_get_parent
.Ltmp582:
	@DEBUG_VALUE: lv_refr_obj_and_children:par <- $r0
	.loc	12 652 5                        @ ../GUILib/src/core/lv_refr.c:652:5
	cmp	r0, #0
	mov	r5, r6
.Ltmp583:
	@DEBUG_VALUE: lv_refr_obj_and_children:border_p <- $r5
	@DEBUG_VALUE: lv_refr_obj_and_children:border_p <- $r5
	@DEBUG_VALUE: lv_refr_obj_and_children:border_p <- $r5
	bne	.LBB10_3
.Ltmp584:
.LBB10_10:
	@DEBUG_VALUE: lv_refr_obj_and_children:mask_p <- $r8
	@DEBUG_VALUE: lv_refr_obj_and_children:border_p <- $r5
	.loc	12 678 1                        @ ../GUILib/src/core/lv_refr.c:678:1
	pop.w	{r4, r5, r6, r7, r8, pc}
.Ltmp585:
.Lfunc_end10:
	.size	lv_refr_obj_and_children, .Lfunc_end10-lv_refr_obj_and_children
	.cfi_endproc
	.cantunwind
	.fnend
                                        @ -- End function
	.section	.text.lv_refr_obj,"ax",%progbits
	.p2align	1                               @ -- Begin function lv_refr_obj
	.type	lv_refr_obj,%function
	.code	16                              @ @lv_refr_obj
	.thumb_func
lv_refr_obj:
.Lfunc_begin11:
	.loc	12 686 0                        @ ../GUILib/src/core/lv_refr.c:686:0
	.fnstart
	.cfi_startproc
@ %bb.0:
	@DEBUG_VALUE: lv_refr_obj:obj <- $r0
	@DEBUG_VALUE: lv_refr_obj:mask_ori_p <- $r1
	.save	{r4, r5, r6, r7, r8, r9, r10, lr}
	push.w	{r4, r5, r6, r7, r8, r9, r10, lr}
	.cfi_def_cfa_offset 32
	.cfi_offset lr, -4
	.cfi_offset r10, -8
	.cfi_offset r9, -12
	.cfi_offset r8, -16
	.cfi_offset r7, -20
	.cfi_offset r6, -24
	.cfi_offset r5, -28
	.cfi_offset r4, -32
	.pad	#40
	sub	sp, #40
	.cfi_def_cfa_offset 72
	mov	r5, r1
.Ltmp586:
	@DEBUG_VALUE: lv_refr_obj:mask_ori_p <- $r5
	.loc	12 688 8 prologue_end           @ ../GUILib/src/core/lv_refr.c:688:8
	movs	r1, #1
	mov	r4, r0
	@DEBUG_VALUE: lv_refr_obj:mask_ori_p <- $r5
.Ltmp587:
	@DEBUG_VALUE: lv_refr_obj:obj <- $r4
	bl	lv_obj_has_flag
.Ltmp588:
	.loc	12 688 8 is_stmt 0              @ ../GUILib/src/core/lv_refr.c:688:8
	cmp	r0, #0
	bne.w	.LBB11_9
.Ltmp589:
@ %bb.1:
	@DEBUG_VALUE: lv_refr_obj:mask_ori_p <- $r5
	@DEBUG_VALUE: lv_refr_obj:obj <- $r4
	.loc	12 696 27 is_stmt 1             @ ../GUILib/src/core/lv_refr.c:696:27
	mov	r0, r4
	bl	_lv_obj_get_ext_draw_size
.Ltmp590:
	.loc	12 0 27 is_stmt 0               @ ../GUILib/src/core/lv_refr.c:0:27
	add	r7, sp, #16
	.loc	12 696 27                       @ ../GUILib/src/core/lv_refr.c:696:27
	mov	r6, r0
.Ltmp591:
	@DEBUG_VALUE: lv_refr_obj:ext_size <- $r6
	.loc	12 697 5 is_stmt 1              @ ../GUILib/src/core/lv_refr.c:697:5
	mov	r0, r4
	mov	r1, r7
	bl	lv_obj_get_coords
.Ltmp592:
	.loc	12 698 17                       @ ../GUILib/src/core/lv_refr.c:698:17
	ldrh.w	r0, [sp, #16]
	.loc	12 699 17                       @ ../GUILib/src/core/lv_refr.c:699:17
	ldrh.w	r1, [sp, #18]
	.loc	12 698 17                       @ ../GUILib/src/core/lv_refr.c:698:17
	subs	r0, r0, r6
	strh.w	r0, [sp, #16]
	.loc	12 699 17                       @ ../GUILib/src/core/lv_refr.c:699:17
	subs	r0, r1, r6
	.loc	12 700 17                       @ ../GUILib/src/core/lv_refr.c:700:17
	ldrh.w	r1, [sp, #20]
	.loc	12 699 17                       @ ../GUILib/src/core/lv_refr.c:699:17
	strh.w	r0, [sp, #18]
	.loc	12 700 17                       @ ../GUILib/src/core/lv_refr.c:700:17
	adds	r0, r1, r6
	.loc	12 701 17                       @ ../GUILib/src/core/lv_refr.c:701:17
	ldrh.w	r1, [sp, #22]
	.loc	12 700 17                       @ ../GUILib/src/core/lv_refr.c:700:17
	strh.w	r0, [sp, #20]
	.loc	12 701 17                       @ ../GUILib/src/core/lv_refr.c:701:17
	adds	r0, r1, r6
	strh.w	r0, [sp, #22]
	add	r0, sp, #24
	.loc	12 702 16                       @ ../GUILib/src/core/lv_refr.c:702:16
	mov	r1, r5
	mov	r2, r7
	bl	_lv_area_intersect
.Ltmp593:
	@DEBUG_VALUE: lv_refr_obj:union_ok <- [DW_OP_LLVM_convert 1 7, DW_OP_LLVM_convert 8 7, DW_OP_stack_value] undef
	.loc	12 705 8                        @ ../GUILib/src/core/lv_refr.c:705:8
	cmp	r0, #0
	beq	.LBB11_9
.Ltmp594:
@ %bb.2:
	@DEBUG_VALUE: lv_refr_obj:ext_size <- $r6
	@DEBUG_VALUE: lv_refr_obj:mask_ori_p <- $r5
	@DEBUG_VALUE: lv_refr_obj:obj <- $r4
	.loc	12 0 8 is_stmt 0                @ ../GUILib/src/core/lv_refr.c:0:8
	add	r6, sp, #24
.Ltmp595:
	.loc	12 707 9 is_stmt 1              @ ../GUILib/src/core/lv_refr.c:707:9
	mov	r0, r4
	movs	r1, #20
	mov	r2, r6
	bl	lv_event_send
.Ltmp596:
	.loc	12 708 9                        @ ../GUILib/src/core/lv_refr.c:708:9
	mov	r0, r4
	movs	r1, #21
	mov	r2, r6
	bl	lv_event_send
.Ltmp597:
	.loc	12 709 9                        @ ../GUILib/src/core/lv_refr.c:709:9
	mov	r0, r4
	movs	r1, #22
	mov	r2, r6
	bl	lv_event_send
.Ltmp598:
	.loc	12 0 9 is_stmt 0                @ ../GUILib/src/core/lv_refr.c:0:9
	add	r6, sp, #16
	.loc	12 723 9 is_stmt 1              @ ../GUILib/src/core/lv_refr.c:723:9
	mov	r0, r4
	mov	r1, r6
	bl	lv_obj_get_coords
.Ltmp599:
	.loc	12 0 9 is_stmt 0                @ ../GUILib/src/core/lv_refr.c:0:9
	add	r0, sp, #32
	.loc	12 724 20 is_stmt 1             @ ../GUILib/src/core/lv_refr.c:724:20
	mov	r1, r5
	mov	r2, r6
	bl	_lv_area_intersect
.Ltmp600:
	@DEBUG_VALUE: lv_refr_obj:union_ok <- [DW_OP_LLVM_convert 1 7, DW_OP_LLVM_convert 8 7, DW_OP_stack_value] undef
	.loc	12 725 12                       @ ../GUILib/src/core/lv_refr.c:725:12
	cbz	r0, .LBB11_8
.Ltmp601:
@ %bb.3:
	@DEBUG_VALUE: lv_refr_obj:mask_ori_p <- $r5
	@DEBUG_VALUE: lv_refr_obj:obj <- $r4
	.loc	12 729 34                       @ ../GUILib/src/core/lv_refr.c:729:34
	mov	r0, r4
	bl	lv_obj_get_child_cnt
.Ltmp602:
	@DEBUG_VALUE: i <- 0
	@DEBUG_VALUE: child_cnt <- $r0
	.loc	12 730 13                       @ ../GUILib/src/core/lv_refr.c:730:13
	cbz	r0, .LBB11_8
.Ltmp603:
@ %bb.4:
	@DEBUG_VALUE: lv_refr_obj:mask_ori_p <- $r5
	@DEBUG_VALUE: lv_refr_obj:obj <- $r4
	@DEBUG_VALUE: child_cnt <- $r0
	@DEBUG_VALUE: i <- 0
	.loc	12 0 13 is_stmt 0               @ ../GUILib/src/core/lv_refr.c:0:13
	mov	r10, r0
.Ltmp604:
	@DEBUG_VALUE: child_cnt <- $r10
	@DEBUG_VALUE: child_cnt <- $r10
	movs	r5, #0
.Ltmp605:
	mov	r6, sp
	add.w	r9, sp, #8
	add.w	r8, sp, #32
.Ltmp606:
	.p2align	2
.LBB11_5:                               @ =>This Inner Loop Header: Depth=1
	@DEBUG_VALUE: child_cnt <- $r10
	@DEBUG_VALUE: lv_refr_obj:obj <- $r4
	@DEBUG_VALUE: i <- $r5
	.loc	12 731 41 is_stmt 1             @ ../GUILib/src/core/lv_refr.c:731:41
	ldr	r0, [r4, #8]
	.loc	12 732 17                       @ ../GUILib/src/core/lv_refr.c:732:17
	mov	r1, r6
	.loc	12 731 52                       @ ../GUILib/src/core/lv_refr.c:731:52
	ldr	r0, [r0]
	.loc	12 731 36 is_stmt 0             @ ../GUILib/src/core/lv_refr.c:731:36
	ldr.w	r7, [r0, r5, lsl #2]
.Ltmp607:
	@DEBUG_VALUE: child <- $r7
	.loc	12 732 17 is_stmt 1             @ ../GUILib/src/core/lv_refr.c:732:17
	mov	r0, r7
	bl	lv_obj_get_coords
.Ltmp608:
	.loc	12 733 28                       @ ../GUILib/src/core/lv_refr.c:733:28
	mov	r0, r7
	bl	_lv_obj_get_ext_draw_size
.Ltmp609:
	.loc	12 734 31                       @ ../GUILib/src/core/lv_refr.c:734:31
	ldrh.w	r1, [sp]
.Ltmp610:
	@DEBUG_VALUE: lv_refr_obj:ext_size <- $r0
	.loc	12 735 31                       @ ../GUILib/src/core/lv_refr.c:735:31
	ldrh.w	r2, [sp, #2]
	.loc	12 734 31                       @ ../GUILib/src/core/lv_refr.c:734:31
	subs	r1, r1, r0
	strh.w	r1, [sp]
	.loc	12 735 31                       @ ../GUILib/src/core/lv_refr.c:735:31
	subs	r1, r2, r0
	.loc	12 736 31                       @ ../GUILib/src/core/lv_refr.c:736:31
	ldrh.w	r2, [sp, #4]
	.loc	12 735 31                       @ ../GUILib/src/core/lv_refr.c:735:31
	strh.w	r1, [sp, #2]
	.loc	12 736 31                       @ ../GUILib/src/core/lv_refr.c:736:31
	adds	r1, r2, r0
	.loc	12 737 31                       @ ../GUILib/src/core/lv_refr.c:737:31
	ldrh.w	r2, [sp, #6]
	.loc	12 736 31                       @ ../GUILib/src/core/lv_refr.c:736:31
	strh.w	r1, [sp, #4]
	.loc	12 737 31                       @ ../GUILib/src/core/lv_refr.c:737:31
	add	r0, r2
.Ltmp611:
	strh.w	r0, [sp, #6]
	.loc	12 740 28                       @ ../GUILib/src/core/lv_refr.c:740:28
	mov	r0, r9
	mov	r1, r8
	mov	r2, r6
	bl	_lv_area_intersect
.Ltmp612:
	@DEBUG_VALUE: lv_refr_obj:union_ok <- [DW_OP_LLVM_convert 1 7, DW_OP_LLVM_convert 8 7, DW_OP_stack_value] undef
	.loc	12 743 20                       @ ../GUILib/src/core/lv_refr.c:743:20
	cbz	r0, .LBB11_7
.Ltmp613:
@ %bb.6:                                @   in Loop: Header=BB11_5 Depth=1
	@DEBUG_VALUE: child_cnt <- $r10
	@DEBUG_VALUE: child <- $r7
	@DEBUG_VALUE: i <- $r5
	@DEBUG_VALUE: lv_refr_obj:obj <- $r4
	.loc	12 745 21                       @ ../GUILib/src/core/lv_refr.c:745:21
	mov	r0, r7
	mov	r1, r9
	bl	lv_refr_obj
.Ltmp614:
.LBB11_7:                               @   in Loop: Header=BB11_5 Depth=1
	@DEBUG_VALUE: child_cnt <- $r10
	@DEBUG_VALUE: i <- $r5
	@DEBUG_VALUE: lv_refr_obj:obj <- $r4
	.loc	12 730 40                       @ ../GUILib/src/core/lv_refr.c:730:40
	adds	r5, #1
.Ltmp615:
	@DEBUG_VALUE: i <- $r5
	.loc	12 730 13 is_stmt 0             @ ../GUILib/src/core/lv_refr.c:730:13
	cmp	r10, r5
	bne	.LBB11_5
.Ltmp616:
.LBB11_8:
	@DEBUG_VALUE: lv_refr_obj:obj <- $r4
	.loc	12 0 13                         @ ../GUILib/src/core/lv_refr.c:0:13
	add	r5, sp, #24
	.loc	12 751 9 is_stmt 1              @ ../GUILib/src/core/lv_refr.c:751:9
	mov	r0, r4
	movs	r1, #23
	mov	r2, r5
	bl	lv_event_send
.Ltmp617:
	.loc	12 752 9                        @ ../GUILib/src/core/lv_refr.c:752:9
	mov	r0, r4
	movs	r1, #24
	mov	r2, r5
	bl	lv_event_send
.Ltmp618:
	.loc	12 753 9                        @ ../GUILib/src/core/lv_refr.c:753:9
	mov	r0, r4
	movs	r1, #25
	mov	r2, r5
	bl	lv_event_send
.Ltmp619:
.LBB11_9:
	@DEBUG_VALUE: lv_refr_obj:obj <- $r4
	.loc	12 755 1                        @ ../GUILib/src/core/lv_refr.c:755:1
	add	sp, #40
	pop.w	{r4, r5, r6, r7, r8, r9, r10, pc}
.Ltmp620:
.Lfunc_end11:
	.size	lv_refr_obj, .Lfunc_end11-lv_refr_obj
	.cfi_endproc
	.cantunwind
	.fnend
                                        @ -- End function
	.type	disp_refr,%object               @ @disp_refr
	.section	.bss.disp_refr,"aw",%nobits
	.p2align	2
disp_refr:
	.long	0
	.size	disp_refr, 4

	.type	px_num,%object                  @ @px_num
	.section	.bss.px_num,"aw",%nobits
	.p2align	2
px_num:
	.long	0                               @ 0x0
	.size	px_num, 4

	.type	_lv_disp_refr_timer.perf_label,%object @ @_lv_disp_refr_timer.perf_label
	.section	.bss._lv_disp_refr_timer.perf_label,"aw",%nobits
	.p2align	2
_lv_disp_refr_timer.perf_label:
	.long	0
	.size	_lv_disp_refr_timer.perf_label, 4

	.type	.L.str,%object                  @ @.str
	.section	.rodata.str1.1,"aMS",%progbits,1
.L.str:
	.asciz	"?"
	.size	.L.str, 2

	.type	_lv_disp_refr_timer.perf_last_time,%object @ @_lv_disp_refr_timer.perf_last_time
	.section	.bss._lv_disp_refr_timer.perf_last_time,"aw",%nobits
	.p2align	2
_lv_disp_refr_timer.perf_last_time:
	.long	0                               @ 0x0
	.size	_lv_disp_refr_timer.perf_last_time, 4

	.type	_lv_disp_refr_timer.elaps_sum,%object @ @_lv_disp_refr_timer.elaps_sum
	.section	.bss._lv_disp_refr_timer.elaps_sum,"aw",%nobits
	.p2align	2
_lv_disp_refr_timer.elaps_sum:
	.long	0                               @ 0x0
	.size	_lv_disp_refr_timer.elaps_sum, 4

	.type	_lv_disp_refr_timer.frame_cnt,%object @ @_lv_disp_refr_timer.frame_cnt
	.section	.bss._lv_disp_refr_timer.frame_cnt,"aw",%nobits
	.p2align	2
_lv_disp_refr_timer.frame_cnt:
	.long	0                               @ 0x0
	.size	_lv_disp_refr_timer.frame_cnt, 4

	.type	fps_sum_all,%object             @ @fps_sum_all
	.section	.bss.fps_sum_all,"aw",%nobits
	.p2align	2
fps_sum_all:
	.long	0                               @ 0x0
	.size	fps_sum_all, 4

	.type	fps_sum_cnt,%object             @ @fps_sum_cnt
	.section	.bss.fps_sum_cnt,"aw",%nobits
	.p2align	2
fps_sum_cnt:
	.long	0                               @ 0x0
	.size	fps_sum_cnt, 4

	.type	_lv_disp_refr_timer.mem_label,%object @ @_lv_disp_refr_timer.mem_label
	.section	.bss._lv_disp_refr_timer.mem_label,"aw",%nobits
	.p2align	2
_lv_disp_refr_timer.mem_label:
	.long	0
	.size	_lv_disp_refr_timer.mem_label, 4

	.type	_lv_disp_refr_timer.mem_last_time,%object @ @_lv_disp_refr_timer.mem_last_time
	.section	.bss._lv_disp_refr_timer.mem_last_time,"aw",%nobits
	.p2align	2
_lv_disp_refr_timer.mem_last_time:
	.long	0                               @ 0x0
	.size	_lv_disp_refr_timer.mem_last_time, 4

	.file	21 "C:\\Users\\Hyacincher\\Desktop\\HyTelectrl\\Code\\Project" "../GUILib/src/core/../misc/lv_mem.h"
	.file	22 "C:\\Users\\Hyacincher\\Desktop\\HyTelectrl\\Code\\Project" "../GUILib/src/hal/../draw/lv_draw_img.h"
	.file	23 "C:\\Users\\Hyacincher\\Desktop\\HyTelectrl\\Code\\Project" "../GUILib/src/hal/../draw/lv_img_buf.h"
	.file	24 "C:\\Users\\Hyacincher\\Desktop\\HyTelectrl\\Code\\Project" "../GUILib/src/hal/../draw/lv_draw_rect.h"
	.section	".note.GNU-stack","",%progbits
	.eabi_attribute	30, 3	@ Tag_ABI_optimization_goals
	.ARM_attribute	16, 1	@ Tag_AV_eba