	.text
	.syntax unified
	.eabi_attribute	67, "2.09"	@ Tag_conformance
	.cpu	cortex-m4
	.eabi_attribute	6, 13	@ Tag_CPU_arch
	.eabi_attribute	7, 77	@ Tag_CPU_arch_profile
	.eabi_attribute	8, 0	@ Tag_ARM_ISA_use
	.eabi_attribute	9, 2	@ Tag_THUMB_ISA_use
	.fpu	fpv4-sp-d16
	.eabi_attribute	27, 1	@ Tag_ABI_HardFP_use
	.eabi_attribute	36, 1	@ Tag_FP_HP_extension
	.eabi_attribute	34, 1	@ Tag_CPU_unaligned_access
	.eabi_attribute	17, 1	@ Tag_ABI_PCS_GOT_use
	.eabi_attribute	20, 2	@ Tag_ABI_FP_denormal
	.eabi_attribute	21, 0	@ Tag_ABI_FP_exceptions
	.eabi_attribute	23, 1	@ Tag_ABI_FP_number_model
	.eabi_attribute	24, 1	@ Tag_ABI_align_needed
	.eabi_attribute	25, 1	@ Tag_ABI_align_preserved
	.eabi_attribute	28, 1	@ Tag_ABI_VFP_args
	.eabi_attribute	38, 1	@ Tag_ABI_FP_16bit_format
	.eabi_attribute	18, 2	@ Tag_ABI_PCS_wchar_t
	.eabi_attribute	26, 1	@ Tag_ABI_enum_size
	.eabi_attribute	14, 0	@ Tag_ABI_PCS_R9_use
	.file	"lv_slider.c"
	.file	1 "C:\\Users\\Hyacincher\\Desktop\\HyTelectrl\\Code\\Project" "../GUILib/src/widgets/../core/lv_obj_class.h"
	.file	2 "C:\\Users\\Hyacincher\\Desktop\\HyTelectrl\\Code\\Project" "../GUILib/src/widgets/../core/../core/lv_obj.h"
	.file	3 "D:\\Keil MDK\\ARM\\ARMCLANG\\Bin\\..\\include" "stdint.h"
	.file	4 "C:\\Users\\Hyacincher\\Desktop\\HyTelectrl\\Code\\Project" "../GUILib/src/widgets/../core/../misc/lv_ll.h"
	.file	5 "C:\\Users\\Hyacincher\\Desktop\\HyTelectrl\\Code\\Project" "../GUILib/src/widgets/../core/lv_group.h"
	.file	6 "C:\\Users\\Hyacincher\\Desktop\\HyTelectrl\\Code\\Project" "../GUILib/src/hal/../misc/lv_area.h"
	.file	7 "C:\\Users\\Hyacincher\\Desktop\\HyTelectrl\\Code\\Project" "../GUILib/src/widgets/../core/lv_obj_scroll.h"
	.file	8 "C:\\Users\\Hyacincher\\Desktop\\HyTelectrl\\Code\\Project" "../GUILib/src/hal/../draw/../misc/lv_style.h"
	.file	9 "C:\\Users\\Hyacincher\\Desktop\\HyTelectrl\\Code\\Project" "../GUILib/src/hal/../misc/lv_color.h"
	.file	10 "C:\\Users\\Hyacincher\\Desktop\\HyTelectrl\\Code\\Project" "../GUILib/src/widgets/../core/lv_obj_style.h"
	.file	11 "C:\\Users\\Hyacincher\\Desktop\\HyTelectrl\\Code\\Project" "../GUILib/src/widgets/../core/lv_event.h"
	.file	12 "C:\\Users\\Hyacincher\\Desktop\\HyTelectrl\\Code\\Project" "../GUILib/src/widgets/lv_slider.c"
	.file	13 "C:\\Users\\Hyacincher\\Desktop\\HyTelectrl\\Code\\Project" "../GUILib/src/hal/../draw/../misc/lv_types.h"
	.file	14 "C:\\Users\\Hyacincher\\Desktop\\HyTelectrl\\Code\\Project" "../GUILib/src/widgets/lv_slider.h"
	.file	15 "C:\\Users\\Hyacincher\\Desktop\\HyTelectrl\\Code\\Project" "../GUILib/src/widgets/../core/../hal/lv_hal_indev.h"
	.file	16 "C:\\Users\\Hyacincher\\Desktop\\HyTelectrl\\Code\\Project" "../GUILib/src/hal/../draw/../misc/lv_bidi.h"
	.file	17 "C:\\Users\\Hyacincher\\Desktop\\HyTelectrl\\Code\\Project" "../GUILib/src/widgets/../misc/lv_anim.h"
	.file	18 "C:\\Users\\Hyacincher\\Desktop\\HyTelectrl\\Code\\Project" "../GUILib/src/widgets/lv_bar.h"
	.section	.text.lv_slider_constructor,"ax",%progbits
	.p2align	1                               @ -- Begin function lv_slider_constructor
	.type	lv_slider_constructor,%function
	.code	16                              @ @lv_slider_constructor
	.thumb_func
lv_slider_constructor:
.Lfunc_begin0:
	.loc	12 80 0                         @ ../GUILib/src/widgets/lv_slider.c:80:0
	.fnstart
	.cfi_sections .debug_frame
	.cfi_startproc
@ %bb.0:
	@DEBUG_VALUE: lv_slider_constructor:class_p <- $r0
	@DEBUG_VALUE: lv_slider_constructor:obj <- $r1
	.save	{r4, lr}
	push	{r4, lr}
	.cfi_def_cfa_offset 8
	.cfi_offset lr, -4
	.cfi_offset r4, -8
.Ltmp0:
	@DEBUG_VALUE: lv_slider_constructor:slider <- $r1
	mov	r4, r1
.Ltmp1:
	.loc	12 86 22 prologue_end           @ ../GUILib/src/widgets/lv_slider.c:86:22
	ldrb.w	r1, [r1, #116]
.Ltmp2:
	@DEBUG_VALUE: lv_slider_constructor:obj <- [DW_OP_LLVM_entry_value 1] $r1
	.loc	12 0 22 is_stmt 0               @ ../GUILib/src/widgets/lv_slider.c:0:22
	movs	r0, #0
.Ltmp3:
	@DEBUG_VALUE: lv_slider_constructor:class_p <- [DW_OP_LLVM_entry_value 1] $r0
	@DEBUG_VALUE: lv_slider_constructor:slider <- $r4
	@DEBUG_VALUE: lv_slider_constructor:obj <- $r4
	.loc	12 85 26 is_stmt 1              @ ../GUILib/src/widgets/lv_slider.c:85:26
	str	r0, [r4, #112]
	.loc	12 87 29                        @ ../GUILib/src/widgets/lv_slider.c:87:29
	and	r0, r1, #252
	strb.w	r0, [r4, #116]
	.loc	12 89 5                         @ ../GUILib/src/widgets/lv_slider.c:89:5
	mov	r0, r4
	mov.w	r1, #256
	bl	lv_obj_clear_flag
.Ltmp4:
	.loc	12 90 5                         @ ../GUILib/src/widgets/lv_slider.c:90:5
	mov	r0, r4
	movs	r1, #16
	bl	lv_obj_clear_flag
.Ltmp5:
	.loc	12 91 36                        @ ../GUILib/src/widgets/lv_slider.c:91:36
	movs	r0, #0
	bl	lv_disp_get_dpi
.Ltmp6:
	cmp	r0, #30
	blt	.LBB0_2
.Ltmp7:
@ %bb.1:
	@DEBUG_VALUE: lv_slider_constructor:obj <- $r4
	@DEBUG_VALUE: lv_slider_constructor:slider <- $r4
	@DEBUG_VALUE: lv_slider_constructor:class_p <- [DW_OP_LLVM_entry_value 1] $r0
	movs	r0, #0
	bl	lv_disp_get_dpi
.Ltmp8:
	.loc	12 0 36 is_stmt 0               @ ../GUILib/src/widgets/lv_slider.c:0:36
	movs	r1, #80
	.loc	12 91 36                        @ ../GUILib/src/widgets/lv_slider.c:91:36
	add.w	r0, r1, r0, lsl #3
	movw	r1, #26215
	movt	r1, #26214
	smmul	r0, r0, r1
	asrs	r1, r0, #6
	add.w	r0, r1, r0, lsr #31
	b	.LBB0_3
.Ltmp9:
.LBB0_2:
	@DEBUG_VALUE: lv_slider_constructor:obj <- $r4
	@DEBUG_VALUE: lv_slider_constructor:slider <- $r4
	@DEBUG_VALUE: lv_slider_constructor:class_p <- [DW_OP_LLVM_entry_value 1] $r0
	.loc	12 0 36                         @ ../GUILib/src/widgets/lv_slider.c:0:36
	movs	r0, #1
.Ltmp10:
.LBB0_3:
	@DEBUG_VALUE: lv_slider_constructor:obj <- $r4
	@DEBUG_VALUE: lv_slider_constructor:slider <- $r4
	@DEBUG_VALUE: lv_slider_constructor:class_p <- [DW_OP_LLVM_entry_value 1] $r0
	.loc	12 91 5                         @ ../GUILib/src/widgets/lv_slider.c:91:5
	sxth	r1, r0
	mov	r0, r4
	pop.w	{r4, lr}
.Ltmp11:
	b	lv_obj_set_ext_click_area
.Ltmp12:
.Lfunc_end0:
	.size	lv_slider_constructor, .Lfunc_end0-lv_slider_constructor
	.cfi_endproc
	.file	19 "C:\\Users\\Hyacincher\\Desktop\\HyTelectrl\\Code\\Project" "../GUILib/src/widgets/../core/lv_obj_pos.h"
	.cantunwind
	.fnend
                                        @ -- End function
	.section	.text.lv_slider_event,"ax",%progbits
	.p2align	2                               @ -- Begin function lv_slider_event
	.type	lv_slider_event,%function
	.code	16                              @ @lv_slider_event
	.thumb_func
lv_slider_event:
.Lfunc_begin1:
	.loc	12 95 0 is_stmt 1               @ ../GUILib/src/widgets/lv_slider.c:95:0
	.fnstart
	.cfi_startproc
@ %bb.0:
	@DEBUG_VALUE: lv_slider_event:class_p <- $r0
	@DEBUG_VALUE: lv_slider_event:e <- $r1
	.save	{r4, r5, r6, r7, r8, r9, r10, r11, lr}
	push.w	{r4, r5, r6, r7, r8, r9, r10, r11, lr}
	.cfi_def_cfa_offset 36
	.cfi_offset lr, -4
	.cfi_offset r11, -8
	.cfi_offset r10, -12
	.cfi_offset r9, -16
	.cfi_offset r8, -20
	.cfi_offset r7, -24
	.cfi_offset r6, -28
	.cfi_offset r5, -32
	.cfi_offset r4, -36
	.pad	#196
	sub	sp, #196
	.cfi_def_cfa_offset 232
.Ltmp13:
	.loc	12 101 11 prologue_end          @ ../GUILib/src/widgets/lv_slider.c:101:11
	movw	r6, :lower16:lv_slider_class
	movt	r6, :upper16:lv_slider_class
	mov	r0, r6
.Ltmp14:
	@DEBUG_VALUE: lv_slider_event:class_p <- [DW_OP_LLVM_entry_value 1] $r0
	.loc	12 0 11 is_stmt 0               @ ../GUILib/src/widgets/lv_slider.c:0:11
	mov	r5, r1
.Ltmp15:
	@DEBUG_VALUE: lv_slider_event:e <- $r5
	.loc	12 101 11                       @ ../GUILib/src/widgets/lv_slider.c:101:11
	bl	lv_obj_event_base
.Ltmp16:
	@DEBUG_VALUE: lv_slider_event:res <- $r0
	.loc	12 102 8 is_stmt 1              @ ../GUILib/src/widgets/lv_slider.c:102:8
	cmp	r0, #1
	bne.w	.LBB1_82
.Ltmp17:
@ %bb.1:
	@DEBUG_VALUE: lv_slider_event:e <- $r5
	@DEBUG_VALUE: lv_slider_event:res <- $r0
	@DEBUG_VALUE: lv_slider_event:class_p <- [DW_OP_LLVM_entry_value 1] $r0
	.loc	12 104 28                       @ ../GUILib/src/widgets/lv_slider.c:104:28
	mov	r0, r5
.Ltmp18:
	bl	lv_event_get_code
.Ltmp19:
	mov	r4, r0
.Ltmp20:
	@DEBUG_VALUE: lv_slider_event:code <- undef
	.loc	12 105 22                       @ ../GUILib/src/widgets/lv_slider.c:105:22
	mov	r0, r5
	bl	lv_event_get_target
.Ltmp21:
	mov	r11, r0
.Ltmp22:
	@DEBUG_VALUE: lv_slider_get_mode:slider <- $r11
	@DEBUG_VALUE: lv_slider_event:slider <- $r11
	@DEBUG_VALUE: lv_slider_event:obj <- $r11
	.loc	14 179 26                       @ ../GUILib/src/widgets/lv_slider.h:179:26
	bl	lv_bar_get_mode
.Ltmp23:
	mov	r7, r0
.Ltmp24:
	@DEBUG_VALUE: lv_slider_get_mode:mode <- $r7
	subs	r0, #2
	clz	r0, r0
	lsrs	r0, r0, #5
	.loc	14 180 8                        @ ../GUILib/src/widgets/lv_slider.h:180:8
	cmp	r7, #1
	it	ne
	lslne	r7, r0, #1
.Ltmp25:
	@DEBUG_VALUE: lv_slider_event:type <- $r7
	.loc	12 110 8                        @ ../GUILib/src/widgets/lv_slider.c:110:8
	subs	r0, r4, #1
	cmp	r0, #20
	bhi	.LBB1_9
.Ltmp26:
@ %bb.2:
	@DEBUG_VALUE: lv_slider_event:obj <- $r11
	@DEBUG_VALUE: lv_slider_event:slider <- $r11
	@DEBUG_VALUE: lv_slider_get_mode:slider <- $r11
	@DEBUG_VALUE: lv_slider_event:type <- $r7
	@DEBUG_VALUE: lv_slider_event:e <- $r5
	@DEBUG_VALUE: lv_slider_event:class_p <- [DW_OP_LLVM_entry_value 1] $r0
	.loc	12 0 8 is_stmt 0                @ ../GUILib/src/widgets/lv_slider.c:0:8
.LCPI1_0:
	tbh	[pc, r0, lsl #1]
.Ltmp27:
@ %bb.3:
.LJTI1_0:
	.short	(.LBB1_29-(.LCPI1_0+4))/2
	.short	(.LBB1_32-(.LCPI1_0+4))/2
	.short	(.LBB1_4-(.LCPI1_0+4))/2
	.short	(.LBB1_82-(.LCPI1_0+4))/2
	.short	(.LBB1_82-(.LCPI1_0+4))/2
	.short	(.LBB1_82-(.LCPI1_0+4))/2
	.short	(.LBB1_82-(.LCPI1_0+4))/2
	.short	(.LBB1_4-(.LCPI1_0+4))/2
	.short	(.LBB1_82-(.LCPI1_0+4))/2
	.short	(.LBB1_82-(.LCPI1_0+4))/2
	.short	(.LBB1_82-(.LCPI1_0+4))/2
	.short	(.LBB1_82-(.LCPI1_0+4))/2
	.short	(.LBB1_11-(.LCPI1_0+4))/2
	.short	(.LBB1_16-(.LCPI1_0+4))/2
	.short	(.LBB1_82-(.LCPI1_0+4))/2
	.short	(.LBB1_82-(.LCPI1_0+4))/2
	.short	(.LBB1_20-(.LCPI1_0+4))/2
	.short	(.LBB1_82-(.LCPI1_0+4))/2
	.short	(.LBB1_36-(.LCPI1_0+4))/2
	.short	(.LBB1_82-(.LCPI1_0+4))/2
	.short	(.LBB1_22-(.LCPI1_0+4))/2
	.p2align	1
.LBB1_4:
.Ltmp28:
	@DEBUG_VALUE: lv_slider_event:obj <- $r11
	@DEBUG_VALUE: lv_slider_event:slider <- $r11
	@DEBUG_VALUE: lv_slider_event:type <- $r7
	@DEBUG_VALUE: lv_slider_event:e <- $r5
	@DEBUG_VALUE: lv_slider_event:class_p <- [DW_OP_LLVM_entry_value 1] $r0
	.loc	12 244 26 is_stmt 1             @ ../GUILib/src/widgets/lv_slider.c:244:26
	ldrb.w	r0, [r11, #116]
	and	r0, r0, #254
	strb.w	r0, [r11, #116]
	movs	r0, #0
	.loc	12 245 30                       @ ../GUILib/src/widgets/lv_slider.c:245:30
	str.w	r0, [r11, #112]
	.loc	12 247 9                        @ ../GUILib/src/widgets/lv_slider.c:247:9
	mov	r0, r11
	bl	lv_obj_invalidate
.Ltmp29:
	.loc	12 250 28                       @ ../GUILib/src/widgets/lv_slider.c:250:28
	mov	r0, r11
	bl	lv_obj_get_group
.Ltmp30:
	mov	r5, r0
.Ltmp31:
	@DEBUG_VALUE: lv_slider_event:e <- [DW_OP_LLVM_entry_value 1] $r1
	@DEBUG_VALUE: g <- $r5
	.loc	12 251 28                       @ ../GUILib/src/widgets/lv_slider.c:251:28
	bl	lv_group_get_editing
.Ltmp32:
	mov	r4, r0
.Ltmp33:
	@DEBUG_VALUE: editing <- [DW_OP_LLVM_convert 1 7, DW_OP_LLVM_convert 8 7, DW_OP_stack_value] undef
	.loc	12 252 56                       @ ../GUILib/src/widgets/lv_slider.c:252:56
	bl	lv_indev_get_act
.Ltmp34:
	.loc	12 252 38 is_stmt 0             @ ../GUILib/src/widgets/lv_slider.c:252:38
	bl	lv_indev_get_type
.Ltmp35:
	.loc	12 253 12 is_stmt 1             @ ../GUILib/src/widgets/lv_slider.c:253:12
	cmp	r4, #0
.Ltmp36:
	@DEBUG_VALUE: indev_type <- $r0
	beq.w	.LBB1_82
.Ltmp37:
@ %bb.5:
	@DEBUG_VALUE: lv_slider_event:obj <- $r11
	@DEBUG_VALUE: lv_slider_event:slider <- $r11
	@DEBUG_VALUE: lv_slider_event:type <- $r7
	@DEBUG_VALUE: g <- $r5
	@DEBUG_VALUE: indev_type <- $r0
	@DEBUG_VALUE: lv_slider_event:e <- [DW_OP_LLVM_entry_value 1] $r1
	@DEBUG_VALUE: lv_slider_event:class_p <- [DW_OP_LLVM_entry_value 1] $r0
	cmp	r0, #4
	bne.w	.LBB1_82
.Ltmp38:
@ %bb.6:
	@DEBUG_VALUE: lv_slider_event:obj <- $r11
	@DEBUG_VALUE: lv_slider_event:slider <- $r11
	@DEBUG_VALUE: lv_slider_event:type <- $r7
	@DEBUG_VALUE: g <- $r5
	@DEBUG_VALUE: indev_type <- $r0
	@DEBUG_VALUE: lv_slider_event:e <- [DW_OP_LLVM_entry_value 1] $r1
	@DEBUG_VALUE: lv_slider_event:class_p <- [DW_OP_LLVM_entry_value 1] $r0
	@DEBUG_VALUE: lv_slider_get_mode:slider <- $r11
	.loc	14 179 26                       @ ../GUILib/src/widgets/lv_slider.h:179:26
	mov	r0, r11
.Ltmp39:
	bl	lv_bar_get_mode
.Ltmp40:
	@DEBUG_VALUE: lv_slider_get_mode:mode <- $r0
	.loc	12 255 20                       @ ../GUILib/src/widgets/lv_slider.c:255:20
	cmp	r0, #2
	bne.w	.LBB1_42
.Ltmp41:
@ %bb.7:
	@DEBUG_VALUE: lv_slider_event:obj <- $r11
	@DEBUG_VALUE: lv_slider_event:slider <- $r11
	@DEBUG_VALUE: lv_slider_event:type <- $r7
	@DEBUG_VALUE: g <- $r5
	@DEBUG_VALUE: lv_slider_event:e <- [DW_OP_LLVM_entry_value 1] $r1
	@DEBUG_VALUE: lv_slider_event:class_p <- [DW_OP_LLVM_entry_value 1] $r0
	.loc	12 256 32                       @ ../GUILib/src/widgets/lv_slider.c:256:32
	ldrb.w	r0, [r11, #116]
.Ltmp42:
	.loc	12 256 24 is_stmt 0             @ ../GUILib/src/widgets/lv_slider.c:256:24
	lsls	r1, r0, #30
	bmi.w	.LBB1_59
.Ltmp43:
@ %bb.8:
	@DEBUG_VALUE: lv_slider_event:obj <- $r11
	@DEBUG_VALUE: lv_slider_event:slider <- $r11
	@DEBUG_VALUE: lv_slider_event:type <- $r7
	@DEBUG_VALUE: g <- $r5
	@DEBUG_VALUE: lv_slider_event:e <- [DW_OP_LLVM_entry_value 1] $r1
	@DEBUG_VALUE: lv_slider_event:class_p <- [DW_OP_LLVM_entry_value 1] $r0
	.loc	12 256 78                       @ ../GUILib/src/widgets/lv_slider.c:256:78
	orr	r0, r0, #2
	b	.LBB1_19
.Ltmp44:
.LBB1_9:
	@DEBUG_VALUE: lv_slider_event:obj <- $r11
	@DEBUG_VALUE: lv_slider_event:slider <- $r11
	@DEBUG_VALUE: lv_slider_event:type <- $r7
	@DEBUG_VALUE: lv_slider_event:e <- $r5
	@DEBUG_VALUE: lv_slider_event:class_p <- [DW_OP_LLVM_entry_value 1] $r0
	.loc	12 110 8 is_stmt 1              @ ../GUILib/src/widgets/lv_slider.c:110:8
	cmp	r4, #41
	bne.w	.LBB1_82
.Ltmp45:
@ %bb.10:
	@DEBUG_VALUE: lv_slider_event:obj <- $r11
	@DEBUG_VALUE: lv_slider_event:slider <- $r11
	@DEBUG_VALUE: lv_slider_event:type <- $r7
	@DEBUG_VALUE: lv_slider_event:e <- $r5
	@DEBUG_VALUE: lv_slider_event:class_p <- [DW_OP_LLVM_entry_value 1] $r0
	.loc	12 276 9                        @ ../GUILib/src/widgets/lv_slider.c:276:9
	mov	r0, r11
	add	sp, #196
	pop.w	{r4, r5, r6, r7, r8, r9, r10, r11, lr}
.Ltmp46:
	@DEBUG_VALUE: lv_slider_event:e <- [DW_OP_LLVM_entry_value 1] $r1
	b	lv_obj_refresh_ext_draw_size
.Ltmp47:
.LBB1_11:
	@DEBUG_VALUE: lv_slider_event:obj <- $r11
	@DEBUG_VALUE: lv_slider_event:slider <- $r11
	@DEBUG_VALUE: lv_slider_event:type <- $r7
	@DEBUG_VALUE: lv_slider_event:e <- $r5
	@DEBUG_VALUE: lv_slider_event:class_p <- [DW_OP_LLVM_entry_value 1] $r0
	.loc	12 300 28                       @ ../GUILib/src/widgets/lv_slider.c:300:28
	mov	r0, r5
	bl	lv_event_get_param
.Ltmp48:
	.loc	12 300 18 is_stmt 0             @ ../GUILib/src/widgets/lv_slider.c:300:18
	ldrb	r0, [r0]
.Ltmp49:
	@DEBUG_VALUE: c <- undef
	.loc	12 302 30 is_stmt 1             @ ../GUILib/src/widgets/lv_slider.c:302:30
	subs	r0, #17
	cmp	r0, #3
	bhi.w	.LBB1_82
.Ltmp50:
@ %bb.12:
	@DEBUG_VALUE: lv_slider_event:obj <- $r11
	@DEBUG_VALUE: lv_slider_event:slider <- $r11
	@DEBUG_VALUE: lv_slider_event:type <- $r7
	@DEBUG_VALUE: lv_slider_event:e <- $r5
	@DEBUG_VALUE: lv_slider_event:class_p <- [DW_OP_LLVM_entry_value 1] $r0
	.loc	12 0 30 is_stmt 0               @ ../GUILib/src/widgets/lv_slider.c:0:30
.LCPI1_1:
	tbh	[pc, r0, lsl #1]
.Ltmp51:
@ %bb.13:
.LJTI1_1:
	.short	(.LBB1_14-(.LCPI1_1+4))/2
	.short	(.LBB1_55-(.LCPI1_1+4))/2
	.short	(.LBB1_14-(.LCPI1_1+4))/2
	.short	(.LBB1_55-(.LCPI1_1+4))/2
	.p2align	1
.LBB1_14:
.Ltmp52:
	@DEBUG_VALUE: lv_slider_event:obj <- $r11
	@DEBUG_VALUE: lv_slider_event:slider <- $r11
	@DEBUG_VALUE: lv_slider_event:type <- $r7
	@DEBUG_VALUE: lv_slider_event:e <- $r5
	@DEBUG_VALUE: lv_slider_event:class_p <- [DW_OP_LLVM_entry_value 1] $r0
	.loc	12 303 25 is_stmt 1             @ ../GUILib/src/widgets/lv_slider.c:303:25
	ldrb.w	r0, [r11, #116]
.Ltmp53:
	.loc	12 303 16 is_stmt 0             @ ../GUILib/src/widgets/lv_slider.c:303:16
	lsls	r0, r0, #30
	bmi.w	.LBB1_61
.Ltmp54:
@ %bb.15:
	@DEBUG_VALUE: lv_slider_event:obj <- $r11
	@DEBUG_VALUE: lv_slider_event:slider <- $r11
	@DEBUG_VALUE: lv_slider_event:type <- $r7
	@DEBUG_VALUE: lv_slider_event:e <- $r5
	@DEBUG_VALUE: lv_slider_event:class_p <- [DW_OP_LLVM_entry_value 1] $r0
	@DEBUG_VALUE: lv_slider_get_value:obj <- $r11
	.loc	14 132 12 is_stmt 1             @ ../GUILib/src/widgets/lv_slider.h:132:12
	mov	r0, r11
	bl	lv_bar_get_value
.Ltmp55:
	.loc	12 303 92                       @ ../GUILib/src/widgets/lv_slider.c:303:92
	adds	r1, r0, #1
.Ltmp56:
	@DEBUG_VALUE: lv_slider_set_value:anim <- 1
	@DEBUG_VALUE: lv_slider_set_value:obj <- $r11
	@DEBUG_VALUE: lv_slider_set_value:value <- $r1
	.loc	12 0 92 is_stmt 0               @ ../GUILib/src/widgets/lv_slider.c:0:92
	b	.LBB1_57
.Ltmp57:
.LBB1_16:
	@DEBUG_VALUE: lv_slider_event:obj <- $r11
	@DEBUG_VALUE: lv_slider_event:slider <- $r11
	@DEBUG_VALUE: lv_slider_event:type <- $r7
	@DEBUG_VALUE: lv_slider_event:e <- $r5
	@DEBUG_VALUE: lv_slider_event:class_p <- [DW_OP_LLVM_entry_value 1] $r0
	.loc	12 270 56 is_stmt 1             @ ../GUILib/src/widgets/lv_slider.c:270:56
	bl	lv_indev_get_act
.Ltmp58:
	.loc	12 270 38 is_stmt 0             @ ../GUILib/src/widgets/lv_slider.c:270:38
	bl	lv_indev_get_type
.Ltmp59:
	@DEBUG_VALUE: indev_type <- $r0
	.loc	12 271 48 is_stmt 1             @ ../GUILib/src/widgets/lv_slider.c:271:48
	cmp	r0, #4
	beq	.LBB1_18
.Ltmp60:
@ %bb.17:
	@DEBUG_VALUE: lv_slider_event:obj <- $r11
	@DEBUG_VALUE: lv_slider_event:slider <- $r11
	@DEBUG_VALUE: lv_slider_event:type <- $r7
	@DEBUG_VALUE: lv_slider_event:e <- $r5
	@DEBUG_VALUE: indev_type <- $r0
	@DEBUG_VALUE: lv_slider_event:class_p <- [DW_OP_LLVM_entry_value 1] $r0
	cmp	r0, #2
	bne.w	.LBB1_82
.Ltmp61:
.LBB1_18:
	@DEBUG_VALUE: lv_slider_event:obj <- $r11
	@DEBUG_VALUE: lv_slider_event:slider <- $r11
	@DEBUG_VALUE: lv_slider_event:type <- $r7
	@DEBUG_VALUE: lv_slider_event:e <- $r5
	@DEBUG_VALUE: indev_type <- $r0
	@DEBUG_VALUE: lv_slider_event:class_p <- [DW_OP_LLVM_entry_value 1] $r0
	.loc	12 272 37                       @ ../GUILib/src/widgets/lv_slider.c:272:37
	ldrb.w	r0, [r11, #116]
.Ltmp62:
	and	r0, r0, #253
.Ltmp63:
.LBB1_19:
	@DEBUG_VALUE: lv_slider_event:obj <- $r11
	@DEBUG_VALUE: lv_slider_event:slider <- $r11
	@DEBUG_VALUE: lv_slider_event:class_p <- [DW_OP_LLVM_entry_value 1] $r0
	.loc	12 0 0 is_stmt 0                @ ../GUILib/src/widgets/lv_slider.c:0:0
	strb.w	r0, [r11, #116]
	b	.LBB1_82
.Ltmp64:
.LBB1_20:
	@DEBUG_VALUE: lv_slider_event:obj <- $r11
	@DEBUG_VALUE: lv_slider_event:slider <- $r11
	@DEBUG_VALUE: lv_slider_event:type <- $r7
	@DEBUG_VALUE: lv_slider_event:e <- $r5
	@DEBUG_VALUE: lv_slider_event:class_p <- [DW_OP_LLVM_entry_value 1] $r0
	.loc	12 111 37 is_stmt 1             @ ../GUILib/src/widgets/lv_slider.c:111:37
	mov	r0, r5
	bl	lv_event_get_param
.Ltmp65:
	.loc	12 114 74                       @ ../GUILib/src/widgets/lv_slider.c:114:74
	ldr	r1, [r0]
	.loc	12 111 37                       @ ../GUILib/src/widgets/lv_slider.c:111:37
	mov	r5, r0
.Ltmp66:
	@DEBUG_VALUE: lv_slider_event:e <- [DW_OP_LLVM_entry_value 1] $r1
	@DEBUG_VALUE: info <- $r5
	.loc	12 114 51                       @ ../GUILib/src/widgets/lv_slider.c:114:51
	add.w	r0, r11, #104
	.loc	12 114 21 is_stmt 0             @ ../GUILib/src/widgets/lv_slider.c:114:21
	movs	r2, #0
	bl	_lv_area_is_point_on
.Ltmp67:
	.loc	12 117 33 is_stmt 1             @ ../GUILib/src/widgets/lv_slider.c:117:33
	cmp	r7, #2
.Ltmp68:
	.loc	12 114 19                       @ ../GUILib/src/widgets/lv_slider.c:114:19
	strb	r0, [r5, #4]
.Ltmp69:
	.loc	12 117 33                       @ ../GUILib/src/widgets/lv_slider.c:117:33
	it	eq
	cmpeq	r0, #0
	bne.w	.LBB1_82
.Ltmp70:
@ %bb.21:
	@DEBUG_VALUE: lv_slider_event:obj <- $r11
	@DEBUG_VALUE: lv_slider_event:slider <- $r11
	@DEBUG_VALUE: lv_slider_event:type <- $r7
	@DEBUG_VALUE: info <- $r5
	@DEBUG_VALUE: lv_slider_event:e <- [DW_OP_LLVM_entry_value 1] $r1
	@DEBUG_VALUE: lv_slider_event:class_p <- [DW_OP_LLVM_entry_value 1] $r0
	.loc	12 118 77                       @ ../GUILib/src/widgets/lv_slider.c:118:77
	ldr	r1, [r5]
	.loc	12 118 55 is_stmt 0             @ ../GUILib/src/widgets/lv_slider.c:118:55
	add.w	r0, r11, #96
	.loc	12 118 25                       @ ../GUILib/src/widgets/lv_slider.c:118:25
	movs	r2, #0
	bl	_lv_area_is_point_on
.Ltmp71:
	.loc	12 118 23                       @ ../GUILib/src/widgets/lv_slider.c:118:23
	strb	r0, [r5, #4]
	b	.LBB1_82
.Ltmp72:
.LBB1_22:
	@DEBUG_VALUE: lv_slider_event:obj <- $r11
	@DEBUG_VALUE: lv_slider_event:slider <- $r11
	@DEBUG_VALUE: lv_slider_event:type <- $r7
	@DEBUG_VALUE: lv_slider_event:e <- $r5
	@DEBUG_VALUE: lv_slider_event:class_p <- [DW_OP_LLVM_entry_value 1] $r0
	@DEBUG_VALUE: draw_knob:e <- $r5
	.loc	12 324 22 is_stmt 1             @ ../GUILib/src/widgets/lv_slider.c:324:22
	mov	r0, r5
	bl	lv_event_get_target
.Ltmp73:
	mov	r7, r0
.Ltmp74:
	@DEBUG_VALUE: draw_knob:slider <- $r7
	@DEBUG_VALUE: draw_knob:obj <- $r7
	.loc	12 326 35                       @ ../GUILib/src/widgets/lv_slider.c:326:35
	mov	r0, r5
	bl	lv_event_get_param
.Ltmp75:
	mov	r8, r0
.Ltmp76:
	@DEBUG_VALUE: lv_obj_get_style_base_dir:part <- 0
	@DEBUG_VALUE: draw_knob:clip_area <- $r8
	@DEBUG_VALUE: lv_obj_get_style_base_dir:obj <- $r7
	.file	20 "C:\\Users\\Hyacincher\\Desktop\\HyTelectrl\\Code\\Project" "../GUILib/src/widgets/../core/lv_obj_style_gen.h"
	.loc	20 189 26                       @ ../GUILib/src/widgets/../core/lv_obj_style_gen.h:189:26
	mov	r0, r7
	movs	r1, #0
	movw	r2, #5226
	movs	r5, #0
.Ltmp77:
	@DEBUG_VALUE: lv_slider_event:e <- [DW_OP_LLVM_entry_value 1] $r1
	bl	lv_obj_get_style_prop
.Ltmp78:
	mov	r4, r0
.Ltmp79:
	@DEBUG_VALUE: draw_knob:base_dir <- undef
	@DEBUG_VALUE: lv_obj_get_style_base_dir:v <- $r4
	.loc	12 329 23                       @ ../GUILib/src/widgets/lv_slider.c:329:23
	mov	r0, r7
	bl	lv_obj_get_width
.Ltmp80:
	mov	r10, r0
.Ltmp81:
	@DEBUG_VALUE: draw_knob:objw <- $r10
	.loc	12 330 23                       @ ../GUILib/src/widgets/lv_slider.c:330:23
	mov	r0, r7
	bl	lv_obj_get_height
.Ltmp82:
	mov	r11, r0
.Ltmp83:
	@DEBUG_VALUE: draw_knob:hor <- [DW_OP_LLVM_convert 1 7, DW_OP_LLVM_convert 8 7, DW_OP_stack_value] undef
	@DEBUG_VALUE: draw_knob:objh <- $r11
	.loc	12 332 28                       @ ../GUILib/src/widgets/lv_slider.c:332:28
	cmp	r10, r0
.Ltmp84:
	.loc	12 334 20                       @ ../GUILib/src/widgets/lv_slider.c:334:20
	ldrb.w	r0, [r7, #92]
.Ltmp85:
	.loc	12 332 28                       @ ../GUILib/src/widgets/lv_slider.c:332:28
	mov	r9, r10
.Ltmp86:
	.loc	12 334 20                       @ ../GUILib/src/widgets/lv_slider.c:334:20
	and	r0, r0, #3
.Ltmp87:
	.loc	12 332 28                       @ ../GUILib/src/widgets/lv_slider.c:332:28
	it	ge
	movge	r9, r11
.Ltmp88:
	@DEBUG_VALUE: draw_knob:sym <- 0
	@DEBUG_VALUE: draw_knob:knob_size <- $r9
	.loc	12 334 52                       @ ../GUILib/src/widgets/lv_slider.c:334:52
	cmp	r0, #1
	bne	.LBB1_25
.Ltmp89:
@ %bb.23:
	@DEBUG_VALUE: draw_knob:objh <- $r11
	@DEBUG_VALUE: draw_knob:objw <- $r10
	@DEBUG_VALUE: draw_knob:knob_size <- $r9
	@DEBUG_VALUE: draw_knob:clip_area <- $r8
	@DEBUG_VALUE: draw_knob:obj <- $r7
	@DEBUG_VALUE: draw_knob:slider <- $r7
	@DEBUG_VALUE: draw_knob:sym <- 0
	@DEBUG_VALUE: lv_slider_event:e <- [DW_OP_LLVM_entry_value 1] $r1
	@DEBUG_VALUE: lv_slider_event:class_p <- [DW_OP_LLVM_entry_value 1] $r0
	.loc	12 334 67 is_stmt 0             @ ../GUILib/src/widgets/lv_slider.c:334:67
	ldr	r0, [r7, #40]
	movs	r5, #0
	.loc	12 334 81                       @ ../GUILib/src/widgets/lv_slider.c:334:81
	cmp.w	r0, #-1
	bgt	.LBB1_25
.Ltmp90:
@ %bb.24:
	@DEBUG_VALUE: draw_knob:objh <- $r11
	@DEBUG_VALUE: draw_knob:objw <- $r10
	@DEBUG_VALUE: draw_knob:knob_size <- $r9
	@DEBUG_VALUE: draw_knob:clip_area <- $r8
	@DEBUG_VALUE: draw_knob:obj <- $r7
	@DEBUG_VALUE: draw_knob:slider <- $r7
	@DEBUG_VALUE: draw_knob:sym <- 0
	@DEBUG_VALUE: lv_slider_event:e <- [DW_OP_LLVM_entry_value 1] $r1
	@DEBUG_VALUE: lv_slider_event:class_p <- [DW_OP_LLVM_entry_value 1] $r0
	.loc	12 334 96                       @ ../GUILib/src/widgets/lv_slider.c:334:96
	ldr	r0, [r7, #44]
	.loc	12 334 106                      @ ../GUILib/src/widgets/lv_slider.c:334:106
	cmp	r0, #0
	it	gt
	movgt	r5, #1
.Ltmp91:
.LBB1_25:
	@DEBUG_VALUE: draw_knob:objh <- $r11
	@DEBUG_VALUE: draw_knob:objw <- $r10
	@DEBUG_VALUE: draw_knob:knob_size <- $r9
	@DEBUG_VALUE: draw_knob:clip_area <- $r8
	@DEBUG_VALUE: draw_knob:obj <- $r7
	@DEBUG_VALUE: draw_knob:slider <- $r7
	@DEBUG_VALUE: draw_knob:sym <- 0
	@DEBUG_VALUE: lv_slider_event:e <- [DW_OP_LLVM_entry_value 1] $r1
	@DEBUG_VALUE: lv_slider_event:class_p <- [DW_OP_LLVM_entry_value 1] $r0
	.loc	12 339 8 is_stmt 1              @ ../GUILib/src/widgets/lv_slider.c:339:8
	cmp	r10, r11
	.loc	12 0 0 is_stmt 0                @ ../GUILib/src/widgets/lv_slider.c:0:0
	uxtb	r2, r4
.Ltmp92:
	@DEBUG_VALUE: draw_knob:sym <- undef
	@DEBUG_VALUE: draw_knob:base_dir <- $r2
	.loc	12 339 8                        @ ../GUILib/src/widgets/lv_slider.c:339:8
	str.w	r8, [sp, #8]                    @ 4-byte Spill
.Ltmp93:
	@DEBUG_VALUE: draw_knob:clip_area <- [DW_OP_plus_uconst 8] [$sp+0]
	str	r2, [sp]                        @ 4-byte Spill
	blt.w	.LBB1_38
.Ltmp94:
@ %bb.26:
	@DEBUG_VALUE: draw_knob:clip_area <- [DW_OP_plus_uconst 8] [$sp+0]
	@DEBUG_VALUE: draw_knob:objh <- $r11
	@DEBUG_VALUE: draw_knob:objw <- $r10
	@DEBUG_VALUE: draw_knob:knob_size <- $r9
	@DEBUG_VALUE: draw_knob:obj <- $r7
	@DEBUG_VALUE: draw_knob:slider <- $r7
	@DEBUG_VALUE: draw_knob:base_dir <- $r2
	@DEBUG_VALUE: lv_slider_event:e <- [DW_OP_LLVM_entry_value 1] $r1
	@DEBUG_VALUE: lv_slider_event:class_p <- [DW_OP_LLVM_entry_value 1] $r0
	.loc	12 340 12 is_stmt 1             @ ../GUILib/src/widgets/lv_slider.c:340:12
	cmp	r5, #0
	beq.w	.LBB1_58
.Ltmp95:
@ %bb.27:
	@DEBUG_VALUE: draw_knob:clip_area <- [DW_OP_plus_uconst 8] [$sp+0]
	@DEBUG_VALUE: draw_knob:objh <- $r11
	@DEBUG_VALUE: draw_knob:objw <- $r10
	@DEBUG_VALUE: draw_knob:knob_size <- $r9
	@DEBUG_VALUE: draw_knob:obj <- $r7
	@DEBUG_VALUE: draw_knob:slider <- $r7
	@DEBUG_VALUE: draw_knob:base_dir <- $r2
	@DEBUG_VALUE: lv_slider_event:e <- [DW_OP_LLVM_entry_value 1] $r1
	@DEBUG_VALUE: lv_slider_event:class_p <- [DW_OP_LLVM_entry_value 1] $r0
	.loc	12 344 28                       @ ../GUILib/src/widgets/lv_slider.c:344:28
	ldr	r1, [r7, #36]
	.loc	12 0 0 is_stmt 0                @ ../GUILib/src/widgets/lv_slider.c:0:0
	add.w	r0, r7, #52
.Ltmp96:
	.loc	12 344 16                       @ ../GUILib/src/widgets/lv_slider.c:344:16
	cmp	r1, #0
.Ltmp97:
	.loc	12 0 0                          @ ../GUILib/src/widgets/lv_slider.c:0:0
	add.w	r1, r7, #56
.Ltmp98:
	.loc	12 344 16                       @ ../GUILib/src/widgets/lv_slider.c:344:16
	bmi.w	.LBB1_71
.Ltmp99:
@ %bb.28:
	@DEBUG_VALUE: draw_knob:clip_area <- [DW_OP_plus_uconst 8] [$sp+0]
	@DEBUG_VALUE: draw_knob:objh <- $r11
	@DEBUG_VALUE: draw_knob:objw <- $r10
	@DEBUG_VALUE: draw_knob:knob_size <- $r9
	@DEBUG_VALUE: draw_knob:obj <- $r7
	@DEBUG_VALUE: draw_knob:slider <- $r7
	@DEBUG_VALUE: draw_knob:base_dir <- $r2
	@DEBUG_VALUE: lv_slider_event:e <- [DW_OP_LLVM_entry_value 1] $r1
	@DEBUG_VALUE: lv_slider_event:class_p <- [DW_OP_LLVM_entry_value 1] $r0
	.loc	12 345 32 is_stmt 1             @ ../GUILib/src/widgets/lv_slider.c:345:32
	cmp	r2, #1
	it	eq
	moveq	r1, r0
	ldrh	r0, [r1]
	b	.LBB1_73
.Ltmp100:
.LBB1_29:
	@DEBUG_VALUE: lv_slider_event:obj <- $r11
	@DEBUG_VALUE: lv_slider_event:slider <- $r11
	@DEBUG_VALUE: lv_slider_event:type <- $r7
	@DEBUG_VALUE: lv_slider_event:e <- $r5
	@DEBUG_VALUE: lv_slider_event:class_p <- [DW_OP_LLVM_entry_value 1] $r0
	.loc	12 122 9                        @ ../GUILib/src/widgets/lv_slider.c:122:9
	mov	r0, r11
	bl	lv_obj_invalidate
.Ltmp101:
	.loc	12 125 26                       @ ../GUILib/src/widgets/lv_slider.c:125:26
	ldrb.w	r0, [r11, #116]
.Ltmp102:
	.loc	12 126 42                       @ ../GUILib/src/widgets/lv_slider.c:126:42
	sbfx	r1, r7, #0, #2
.Ltmp103:
	.loc	12 125 26                       @ ../GUILib/src/widgets/lv_slider.c:125:26
	orr	r0, r0, #1
.Ltmp104:
	.loc	12 126 42                       @ ../GUILib/src/widgets/lv_slider.c:126:42
	cmp.w	r1, #-1
.Ltmp105:
	.loc	12 125 26                       @ ../GUILib/src/widgets/lv_slider.c:125:26
	strb.w	r0, [r11, #116]
.Ltmp106:
	.loc	12 126 42                       @ ../GUILib/src/widgets/lv_slider.c:126:42
	ble.w	.LBB1_43
.Ltmp107:
.LBB1_30:
	@DEBUG_VALUE: lv_slider_event:obj <- $r11
	@DEBUG_VALUE: lv_slider_event:slider <- $r11
	@DEBUG_VALUE: lv_slider_event:type <- $r7
	@DEBUG_VALUE: lv_slider_event:class_p <- [DW_OP_LLVM_entry_value 1] $r0
	.loc	12 0 0 is_stmt 0                @ ../GUILib/src/widgets/lv_slider.c:0:0
	add.w	r0, r11, #36
.Ltmp108:
.LBB1_31:
	@DEBUG_VALUE: lv_slider_event:obj <- $r11
	@DEBUG_VALUE: lv_slider_event:slider <- $r11
	@DEBUG_VALUE: lv_slider_event:class_p <- [DW_OP_LLVM_entry_value 1] $r0
	str.w	r0, [r11, #112]
	b	.LBB1_82
.Ltmp109:
.LBB1_32:
	@DEBUG_VALUE: lv_slider_event:obj <- $r11
	@DEBUG_VALUE: lv_slider_event:slider <- $r11
	@DEBUG_VALUE: lv_slider_event:type <- $r7
	@DEBUG_VALUE: lv_slider_event:e <- $r5
	@DEBUG_VALUE: lv_slider_event:class_p <- [DW_OP_LLVM_entry_value 1] $r0
	.loc	12 185 50 is_stmt 1             @ ../GUILib/src/widgets/lv_slider.c:185:50
	ldr.w	r0, [r11, #112]
.Ltmp110:
	.loc	12 185 13 is_stmt 0             @ ../GUILib/src/widgets/lv_slider.c:185:13
	cmp	r0, #0
	beq.w	.LBB1_82
.Ltmp111:
@ %bb.33:
	@DEBUG_VALUE: lv_slider_event:obj <- $r11
	@DEBUG_VALUE: lv_slider_event:slider <- $r11
	@DEBUG_VALUE: lv_slider_event:type <- $r7
	@DEBUG_VALUE: lv_slider_event:e <- $r5
	@DEBUG_VALUE: lv_slider_event:class_p <- [DW_OP_LLVM_entry_value 1] $r0
	.loc	12 186 30 is_stmt 1             @ ../GUILib/src/widgets/lv_slider.c:186:30
	bl	lv_indev_get_act
.Ltmp112:
	mov	r4, r0
.Ltmp113:
	@DEBUG_VALUE: indev <- $r4
	.loc	12 187 12                       @ ../GUILib/src/widgets/lv_slider.c:187:12
	bl	lv_indev_get_type
.Ltmp114:
	.loc	12 187 12 is_stmt 0             @ ../GUILib/src/widgets/lv_slider.c:187:12
	cmp	r0, #1
	bne.w	.LBB1_82
.Ltmp115:
@ %bb.34:
	@DEBUG_VALUE: lv_slider_event:obj <- $r11
	@DEBUG_VALUE: lv_slider_event:slider <- $r11
	@DEBUG_VALUE: lv_slider_event:type <- $r7
	@DEBUG_VALUE: lv_slider_event:e <- $r5
	@DEBUG_VALUE: indev <- $r4
	@DEBUG_VALUE: lv_slider_event:class_p <- [DW_OP_LLVM_entry_value 1] $r0
	.loc	12 0 12                         @ ../GUILib/src/widgets/lv_slider.c:0:12
	add	r1, sp, #64
	.loc	12 190 9 is_stmt 1              @ ../GUILib/src/widgets/lv_slider.c:190:9
	mov	r0, r4
	bl	lv_indev_get_point
.Ltmp116:
	@DEBUG_VALUE: lv_obj_get_style_base_dir:part <- 0
	@DEBUG_VALUE: lv_obj_get_style_base_dir:obj <- $r11
	.loc	20 189 26                       @ ../GUILib/src/widgets/../core/lv_obj_style_gen.h:189:26
	mov	r0, r11
	movs	r1, #0
	movw	r2, #5226
	bl	lv_obj_get_style_prop
.Ltmp117:
	mov	r8, r0
.Ltmp118:
	@DEBUG_VALUE: base_dir <- [DW_OP_LLVM_convert 32 7, DW_OP_LLVM_convert 8 7, DW_OP_stack_value] $r8
	@DEBUG_VALUE: lv_obj_get_style_base_dir:v <- $r8
	.loc	12 193 24                       @ ../GUILib/src/widgets/lv_slider.c:193:24
	mov	r0, r11
	bl	lv_obj_get_width
.Ltmp119:
	mov	r6, r0
.Ltmp120:
	@DEBUG_VALUE: w <- $r6
	.loc	12 194 24                       @ ../GUILib/src/widgets/lv_slider.c:194:24
	mov	r0, r11
	bl	lv_obj_get_height
.Ltmp121:
	mov	r7, r0
.Ltmp122:
	@DEBUG_VALUE: lv_obj_get_style_pad_left:part <- 0
	@DEBUG_VALUE: lv_obj_get_style_pad_left:obj <- $r11
	@DEBUG_VALUE: h <- $r7
	.loc	20 105 26                       @ ../GUILib/src/widgets/../core/lv_obj_style_gen.h:105:26
	mov	r0, r11
	movs	r1, #0
	movw	r2, #6162
	bl	lv_obj_get_style_prop
.Ltmp123:
	mov	r9, r0
.Ltmp124:
	@DEBUG_VALUE: lv_obj_get_style_pad_right:part <- 0
	@DEBUG_VALUE: lv_obj_get_style_pad_right:obj <- $r11
	@DEBUG_VALUE: bg_left <- [DW_OP_LLVM_convert 32 7, DW_OP_LLVM_convert 16 7, DW_OP_stack_value] $r9
	@DEBUG_VALUE: lv_obj_get_style_pad_left:v <- $r9
	.loc	20 111 26                       @ ../GUILib/src/widgets/../core/lv_obj_style_gen.h:111:26
	mov	r0, r11
	movs	r1, #0
	movw	r2, #6163
	bl	lv_obj_get_style_prop
.Ltmp125:
	mov	r5, r0
.Ltmp126:
	@DEBUG_VALUE: lv_slider_event:e <- [DW_OP_LLVM_entry_value 1] $r1
	@DEBUG_VALUE: lv_obj_get_style_pad_top:part <- 0
	@DEBUG_VALUE: lv_obj_get_style_pad_top:obj <- $r11
	@DEBUG_VALUE: bg_right <- [DW_OP_LLVM_convert 32 7, DW_OP_LLVM_convert 16 7, DW_OP_stack_value] $r5
	@DEBUG_VALUE: lv_obj_get_style_pad_right:v <- $r5
	.loc	20 93 26                        @ ../GUILib/src/widgets/../core/lv_obj_style_gen.h:93:26
	mov	r0, r11
	movs	r1, #0
	movw	r2, #6160
	bl	lv_obj_get_style_prop
.Ltmp127:
	mov	r4, r0
.Ltmp128:
	@DEBUG_VALUE: lv_obj_get_style_pad_bottom:part <- 0
	@DEBUG_VALUE: lv_obj_get_style_pad_bottom:obj <- $r11
	@DEBUG_VALUE: bg_top <- [DW_OP_LLVM_convert 32 7, DW_OP_LLVM_convert 16 7, DW_OP_stack_value] $r4
	@DEBUG_VALUE: lv_obj_get_style_pad_top:v <- $r4
	.loc	20 99 26                        @ ../GUILib/src/widgets/../core/lv_obj_style_gen.h:99:26
	mov	r0, r11
	movs	r1, #0
	movw	r2, #6161
	bl	lv_obj_get_style_prop
.Ltmp129:
	@DEBUG_VALUE: bg_bottom <- [DW_OP_LLVM_convert 32 7, DW_OP_LLVM_convert 16 7, DW_OP_stack_value] $r0
	@DEBUG_VALUE: lv_obj_get_style_pad_bottom:v <- $r0
	.loc	12 201 61                       @ ../GUILib/src/widgets/lv_slider.c:201:61
	ldrd	r2, r1, [r11, #40]
	.loc	12 206 12                       @ ../GUILib/src/widgets/lv_slider.c:206:12
	cmp	r6, r7
	.loc	12 201 47                       @ ../GUILib/src/widgets/lv_slider.c:201:47
	sub.w	r3, r1, r2
.Ltmp130:
	@DEBUG_VALUE: real_max_value <- $r1
	@DEBUG_VALUE: real_min_value <- $r2
	@DEBUG_VALUE: new_value <- 0
	@DEBUG_VALUE: range <- $r3
	.loc	12 206 12                       @ ../GUILib/src/widgets/lv_slider.c:206:12
	bge.w	.LBB1_65
.Ltmp131:
@ %bb.35:
	@DEBUG_VALUE: lv_slider_event:obj <- $r11
	@DEBUG_VALUE: lv_slider_event:slider <- $r11
	@DEBUG_VALUE: bg_left <- [DW_OP_LLVM_convert 32 7, DW_OP_LLVM_convert 16 7, DW_OP_stack_value] $r9
	@DEBUG_VALUE: base_dir <- [DW_OP_LLVM_convert 32 7, DW_OP_LLVM_convert 8 7, DW_OP_stack_value] $r8
	@DEBUG_VALUE: h <- $r7
	@DEBUG_VALUE: w <- $r6
	@DEBUG_VALUE: bg_right <- [DW_OP_LLVM_convert 32 7, DW_OP_LLVM_convert 16 7, DW_OP_stack_value] $r5
	@DEBUG_VALUE: bg_top <- [DW_OP_LLVM_convert 32 7, DW_OP_LLVM_convert 16 7, DW_OP_stack_value] $r4
	@DEBUG_VALUE: range <- $r3
	@DEBUG_VALUE: real_min_value <- $r2
	@DEBUG_VALUE: real_max_value <- $r1
	@DEBUG_VALUE: bg_bottom <- [DW_OP_LLVM_convert 32 7, DW_OP_LLVM_convert 16 7, DW_OP_stack_value] $r0
	@DEBUG_VALUE: new_value <- 0
	@DEBUG_VALUE: lv_slider_event:e <- [DW_OP_LLVM_entry_value 1] $r1
	@DEBUG_VALUE: lv_slider_event:class_p <- [DW_OP_LLVM_entry_value 1] $r0
	@DEBUG_VALUE: bg_top <- $r4
	@DEBUG_VALUE: bg_bottom <- $r0
	.loc	12 218 36                       @ ../GUILib/src/widgets/lv_slider.c:218:36
	subs	r7, r7, r4
.Ltmp132:
	.loc	12 218 38 is_stmt 0             @ ../GUILib/src/widgets/lv_slider.c:218:38
	sxth	r6, r0
.Ltmp133:
	.loc	12 218 48                       @ ../GUILib/src/widgets/lv_slider.c:218:48
	subs	r0, r7, r0
.Ltmp134:
	@DEBUG_VALUE: indic_h <- $r0
	.loc	12 219 27 is_stmt 1             @ ../GUILib/src/widgets/lv_slider.c:219:27
	ldrsh.w	r7, [sp, #66]
	.loc	12 219 44 is_stmt 0             @ ../GUILib/src/widgets/lv_slider.c:219:44
	ldrsh.w	r5, [r11, #26]
.Ltmp135:
	.loc	12 219 47                       @ ../GUILib/src/widgets/lv_slider.c:219:47
	subs	r7, r6, r7
	.loc	12 219 29                       @ ../GUILib/src/widgets/lv_slider.c:219:29
	add	r7, r5
.Ltmp136:
	@DEBUG_VALUE: new_value <- undef
	.loc	12 0 29                         @ ../GUILib/src/widgets/lv_slider.c:0:29
	b	.LBB1_86
.Ltmp137:
.LBB1_36:
	@DEBUG_VALUE: lv_slider_event:obj <- $r11
	@DEBUG_VALUE: lv_slider_event:slider <- $r11
	@DEBUG_VALUE: lv_slider_event:type <- $r7
	@DEBUG_VALUE: lv_slider_event:e <- $r5
	@DEBUG_VALUE: lv_slider_event:class_p <- [DW_OP_LLVM_entry_value 1] $r0
	@DEBUG_VALUE: lv_obj_get_style_pad_left:obj <- $r11
	@DEBUG_VALUE: lv_obj_get_style_pad_left:part <- 196608
	.loc	20 105 26 is_stmt 1             @ ../GUILib/src/widgets/../core/lv_obj_style_gen.h:105:26
	mov	r0, r11
	mov.w	r1, #196608
	movw	r2, #6162
	bl	lv_obj_get_style_prop
.Ltmp138:
	str	r0, [sp, #8]                    @ 4-byte Spill
.Ltmp139:
	@DEBUG_VALUE: lv_obj_get_style_pad_right:part <- 196608
	@DEBUG_VALUE: lv_obj_get_style_pad_right:obj <- $r11
	@DEBUG_VALUE: knob_left <- [DW_OP_plus_uconst 8, DW_OP_deref_size 4, DW_OP_LLVM_convert 32 7, DW_OP_LLVM_convert 16 7, DW_OP_stack_value] $sp
	@DEBUG_VALUE: lv_obj_get_style_pad_left:v <- [DW_OP_plus_uconst 8] [$sp+0]
	.loc	20 111 26                       @ ../GUILib/src/widgets/../core/lv_obj_style_gen.h:111:26
	mov	r0, r11
	mov.w	r1, #196608
	movw	r2, #6163
	bl	lv_obj_get_style_prop
.Ltmp140:
	mov	r10, r0
.Ltmp141:
	@DEBUG_VALUE: lv_obj_get_style_pad_top:part <- 196608
	@DEBUG_VALUE: lv_obj_get_style_pad_top:obj <- $r11
	@DEBUG_VALUE: knob_right <- [DW_OP_LLVM_convert 32 7, DW_OP_LLVM_convert 16 7, DW_OP_stack_value] $r10
	@DEBUG_VALUE: lv_obj_get_style_pad_right:v <- $r10
	.loc	20 93 26                        @ ../GUILib/src/widgets/../core/lv_obj_style_gen.h:93:26
	mov	r0, r11
	mov.w	r1, #196608
	movw	r2, #6160
	bl	lv_obj_get_style_prop
.Ltmp142:
	mov	r7, r0
.Ltmp143:
	@DEBUG_VALUE: lv_obj_get_style_pad_bottom:part <- 196608
	@DEBUG_VALUE: lv_obj_get_style_pad_bottom:obj <- $r11
	@DEBUG_VALUE: knob_top <- [DW_OP_LLVM_convert 32 7, DW_OP_LLVM_convert 16 7, DW_OP_stack_value] $r7
	@DEBUG_VALUE: lv_obj_get_style_pad_top:v <- $r7
	.loc	20 99 26                        @ ../GUILib/src/widgets/../core/lv_obj_style_gen.h:99:26
	mov	r0, r11
	mov.w	r1, #196608
	movw	r2, #6161
	bl	lv_obj_get_style_prop
.Ltmp144:
	str	r0, [sp, #4]                    @ 4-byte Spill
.Ltmp145:
	@DEBUG_VALUE: lv_obj_get_style_transform_zoom:part <- 196608
	@DEBUG_VALUE: lv_obj_get_style_transform_zoom:obj <- $r11
	@DEBUG_VALUE: knob_bottom <- [DW_OP_plus_uconst 4, DW_OP_deref_size 4, DW_OP_LLVM_convert 32 7, DW_OP_LLVM_convert 16 7, DW_OP_stack_value] $sp
	@DEBUG_VALUE: lv_obj_get_style_pad_bottom:v <- [DW_OP_plus_uconst 4] [$sp+0]
	.loc	20 81 26                        @ ../GUILib/src/widgets/../core/lv_obj_style_gen.h:81:26
	mov	r0, r11
	mov.w	r1, #196608
	movw	r2, #14350
	bl	lv_obj_get_style_prop
.Ltmp146:
	mov	r6, r0
.Ltmp147:
	@DEBUG_VALUE: lv_obj_get_style_transform_width:part <- 196608
	@DEBUG_VALUE: lv_obj_get_style_transform_width:obj <- $r11
	@DEBUG_VALUE: zoom <- [DW_OP_LLVM_convert 32 7, DW_OP_LLVM_convert 16 7, DW_OP_stack_value] $r6
	@DEBUG_VALUE: lv_obj_get_style_transform_zoom:v <- $r6
	.loc	20 57 26                        @ ../GUILib/src/widgets/../core/lv_obj_style_gen.h:57:26
	mov	r0, r11
	mov.w	r1, #196608
	movw	r2, #2058
	bl	lv_obj_get_style_prop
.Ltmp148:
	mov	r4, r0
.Ltmp149:
	@DEBUG_VALUE: lv_obj_get_style_transform_height:part <- 196608
	@DEBUG_VALUE: lv_obj_get_style_transform_height:obj <- $r11
	@DEBUG_VALUE: trans_w <- [DW_OP_LLVM_convert 32 7, DW_OP_LLVM_convert 16 7, DW_OP_stack_value] $r4
	@DEBUG_VALUE: lv_obj_get_style_transform_width:v <- $r4
	.loc	20 63 26                        @ ../GUILib/src/widgets/../core/lv_obj_style_gen.h:63:26
	mov	r0, r11
	mov.w	r1, #196608
	movw	r2, #2059
	bl	lv_obj_get_style_prop
.Ltmp150:
	mov	r8, r0
.Ltmp151:
	@DEBUG_VALUE: trans_h <- [DW_OP_LLVM_convert 32 7, DW_OP_LLVM_convert 16 7, DW_OP_stack_value] $r8
	@DEBUG_VALUE: lv_obj_get_style_transform_height:v <- $r8
	.loc	12 288 32                       @ ../GUILib/src/widgets/lv_slider.c:288:32
	mov	r0, r11
	bl	lv_obj_get_width
.Ltmp152:
	lsls	r4, r4, #16
.Ltmp153:
	add.w	r9, r0, r4, asr #15
	mov	r0, r11
	bl	lv_obj_get_height
.Ltmp154:
	lsl.w	r1, r8, #16
	add.w	r0, r0, r1, asr #15
	cmp	r9, r0
	bge	.LBB1_53
.Ltmp155:
@ %bb.37:
	@DEBUG_VALUE: lv_slider_event:obj <- $r11
	@DEBUG_VALUE: lv_slider_event:slider <- $r11
	@DEBUG_VALUE: knob_right <- [DW_OP_LLVM_convert 32 7, DW_OP_LLVM_convert 16 7, DW_OP_stack_value] $r10
	@DEBUG_VALUE: trans_h <- [DW_OP_LLVM_convert 32 7, DW_OP_LLVM_convert 16 7, DW_OP_stack_value] $r8
	@DEBUG_VALUE: knob_top <- [DW_OP_LLVM_convert 32 7, DW_OP_LLVM_convert 16 7, DW_OP_stack_value] $r7
	@DEBUG_VALUE: zoom <- [DW_OP_LLVM_convert 32 7, DW_OP_LLVM_convert 16 7, DW_OP_stack_value] $r6
	@DEBUG_VALUE: lv_slider_event:e <- $r5
	@DEBUG_VALUE: knob_bottom <- [DW_OP_plus_uconst 4, DW_OP_deref_size 4, DW_OP_LLVM_convert 32 7, DW_OP_LLVM_convert 16 7, DW_OP_stack_value] $sp
	@DEBUG_VALUE: knob_left <- [DW_OP_plus_uconst 8, DW_OP_deref_size 4, DW_OP_LLVM_convert 32 7, DW_OP_LLVM_convert 16 7, DW_OP_stack_value] $sp
	@DEBUG_VALUE: lv_slider_event:class_p <- [DW_OP_LLVM_entry_value 1] $r0
	mov	r0, r11
	asrs	r4, r4, #15
	bl	lv_obj_get_width
.Ltmp156:
	.loc	12 0 32 is_stmt 0               @ ../GUILib/src/widgets/lv_slider.c:0:32
	b	.LBB1_54
.Ltmp157:
.LBB1_38:
	@DEBUG_VALUE: draw_knob:clip_area <- [DW_OP_plus_uconst 8] [$sp+0]
	@DEBUG_VALUE: draw_knob:objh <- $r11
	@DEBUG_VALUE: draw_knob:objw <- $r10
	@DEBUG_VALUE: draw_knob:knob_size <- $r9
	@DEBUG_VALUE: draw_knob:obj <- $r7
	@DEBUG_VALUE: draw_knob:slider <- $r7
	@DEBUG_VALUE: draw_knob:base_dir <- $r2
	@DEBUG_VALUE: lv_slider_event:e <- [DW_OP_LLVM_entry_value 1] $r1
	@DEBUG_VALUE: lv_slider_event:class_p <- [DW_OP_LLVM_entry_value 1] $r0
	.loc	12 354 12 is_stmt 1             @ ../GUILib/src/widgets/lv_slider.c:354:12
	cbz	r5, .LBB1_40
.Ltmp158:
@ %bb.39:
	@DEBUG_VALUE: draw_knob:clip_area <- [DW_OP_plus_uconst 8] [$sp+0]
	@DEBUG_VALUE: draw_knob:objh <- $r11
	@DEBUG_VALUE: draw_knob:objw <- $r10
	@DEBUG_VALUE: draw_knob:knob_size <- $r9
	@DEBUG_VALUE: draw_knob:obj <- $r7
	@DEBUG_VALUE: draw_knob:slider <- $r7
	@DEBUG_VALUE: draw_knob:base_dir <- $r2
	@DEBUG_VALUE: lv_slider_event:e <- [DW_OP_LLVM_entry_value 1] $r1
	@DEBUG_VALUE: lv_slider_event:class_p <- [DW_OP_LLVM_entry_value 1] $r0
	.loc	12 358 28                       @ ../GUILib/src/widgets/lv_slider.c:358:28
	ldr	r0, [r7, #36]
.Ltmp159:
	.loc	12 358 16 is_stmt 0             @ ../GUILib/src/widgets/lv_slider.c:358:16
	cmp	r0, #0
	bmi.w	.LBB1_83
.Ltmp160:
.LBB1_40:
	@DEBUG_VALUE: draw_knob:clip_area <- [DW_OP_plus_uconst 8] [$sp+0]
	@DEBUG_VALUE: draw_knob:objh <- $r11
	@DEBUG_VALUE: draw_knob:objw <- $r10
	@DEBUG_VALUE: draw_knob:knob_size <- $r9
	@DEBUG_VALUE: draw_knob:obj <- $r7
	@DEBUG_VALUE: draw_knob:slider <- $r7
	@DEBUG_VALUE: draw_knob:base_dir <- $r2
	@DEBUG_VALUE: lv_slider_event:e <- [DW_OP_LLVM_entry_value 1] $r1
	@DEBUG_VALUE: lv_slider_event:class_p <- [DW_OP_LLVM_entry_value 1] $r0
	.loc	12 0 0                          @ ../GUILib/src/widgets/lv_slider.c:0:0
	ldrh	r0, [r7, #54]
.Ltmp161:
.LBB1_41:
	@DEBUG_VALUE: draw_knob:clip_area <- [DW_OP_plus_uconst 8] [$sp+0]
	@DEBUG_VALUE: draw_knob:objh <- $r11
	@DEBUG_VALUE: draw_knob:objw <- $r10
	@DEBUG_VALUE: draw_knob:knob_size <- $r9
	@DEBUG_VALUE: draw_knob:obj <- $r7
	@DEBUG_VALUE: draw_knob:slider <- $r7
	@DEBUG_VALUE: draw_knob:base_dir <- $r2
	@DEBUG_VALUE: lv_slider_event:e <- [DW_OP_LLVM_entry_value 1] $r1
	@DEBUG_VALUE: lv_slider_event:class_p <- [DW_OP_LLVM_entry_value 1] $r0
	strh.w	r0, [sp, #190]
	b	.LBB1_74
.Ltmp162:
.LBB1_42:
	@DEBUG_VALUE: lv_slider_event:obj <- $r11
	@DEBUG_VALUE: lv_slider_event:slider <- $r11
	@DEBUG_VALUE: lv_slider_event:type <- $r7
	@DEBUG_VALUE: g <- $r5
	@DEBUG_VALUE: lv_slider_event:e <- [DW_OP_LLVM_entry_value 1] $r1
	@DEBUG_VALUE: lv_slider_event:class_p <- [DW_OP_LLVM_entry_value 1] $r0
	.loc	12 263 21 is_stmt 1             @ ../GUILib/src/widgets/lv_slider.c:263:21
	mov	r0, r5
	movs	r1, #0
	b	.LBB1_60
.Ltmp163:
.LBB1_43:
	@DEBUG_VALUE: lv_slider_event:obj <- $r11
	@DEBUG_VALUE: lv_slider_event:slider <- $r11
	@DEBUG_VALUE: lv_slider_event:type <- $r7
	@DEBUG_VALUE: lv_slider_event:e <- $r5
	@DEBUG_VALUE: lv_slider_event:class_p <- [DW_OP_LLVM_entry_value 1] $r0
	.loc	12 126 42                       @ ../GUILib/src/widgets/lv_slider.c:126:42
	and	r0, r7, #3
	cmp	r0, #2
	bne.w	.LBB1_82
.Ltmp164:
@ %bb.44:
	@DEBUG_VALUE: lv_slider_event:obj <- $r11
	@DEBUG_VALUE: lv_slider_event:slider <- $r11
	@DEBUG_VALUE: lv_slider_event:type <- $r7
	@DEBUG_VALUE: lv_slider_event:e <- $r5
	@DEBUG_VALUE: lv_slider_event:class_p <- [DW_OP_LLVM_entry_value 1] $r0
	.loc	12 130 32                       @ ../GUILib/src/widgets/lv_slider.c:130:32
	bl	lv_indev_get_act
.Ltmp165:
	.loc	12 0 32 is_stmt 0               @ ../GUILib/src/widgets/lv_slider.c:0:32
	add	r1, sp, #64
	.loc	12 130 13                       @ ../GUILib/src/widgets/lv_slider.c:130:13
	bl	lv_indev_get_point
.Ltmp166:
	.loc	12 131 24 is_stmt 1             @ ../GUILib/src/widgets/lv_slider.c:131:24
	mov	r0, r11
	bl	lv_obj_get_width
.Ltmp167:
	mov	r4, r0
	.loc	12 131 49 is_stmt 0             @ ../GUILib/src/widgets/lv_slider.c:131:49
	mov	r0, r11
	bl	lv_obj_get_height
.Ltmp168:
	mov	r5, r0
.Ltmp169:
	@DEBUG_VALUE: lv_slider_event:e <- [DW_OP_LLVM_entry_value 1] $r1
	@DEBUG_VALUE: hor <- [DW_OP_LLVM_convert 1 7, DW_OP_LLVM_convert 8 7, DW_OP_stack_value] undef
	@DEBUG_VALUE: lv_obj_get_style_base_dir:part <- 0
	@DEBUG_VALUE: lv_obj_get_style_base_dir:obj <- $r11
	.loc	20 189 26 is_stmt 1             @ ../GUILib/src/widgets/../core/lv_obj_style_gen.h:189:26
	mov	r0, r11
	movs	r1, #0
	movw	r2, #5226
	bl	lv_obj_get_style_prop
.Ltmp170:
	.loc	12 135 16                       @ ../GUILib/src/widgets/lv_slider.c:135:16
	cmp	r4, r5
.Ltmp171:
	@DEBUG_VALUE: base_dir <- [DW_OP_LLVM_convert 32 7, DW_OP_LLVM_convert 8 7, DW_OP_stack_value] $r0
	@DEBUG_VALUE: lv_obj_get_style_base_dir:v <- $r0
	@DEBUG_VALUE: lv_obj_get_style_base_dir:part <- 0
	@DEBUG_VALUE: lv_obj_get_style_base_dir:obj <- $r11
	bge.w	.LBB1_67
.Ltmp172:
@ %bb.45:
	@DEBUG_VALUE: lv_slider_event:obj <- $r11
	@DEBUG_VALUE: lv_slider_event:slider <- $r11
	@DEBUG_VALUE: lv_slider_event:type <- $r7
	@DEBUG_VALUE: base_dir <- [DW_OP_LLVM_convert 32 7, DW_OP_LLVM_convert 8 7, DW_OP_stack_value] $r0
	@DEBUG_VALUE: lv_slider_event:e <- [DW_OP_LLVM_entry_value 1] $r1
	@DEBUG_VALUE: lv_slider_event:class_p <- [DW_OP_LLVM_entry_value 1] $r0
	.loc	12 161 22                       @ ../GUILib/src/widgets/lv_slider.c:161:22
	ldrsh.w	r0, [sp, #66]
.Ltmp173:
	.loc	12 161 50 is_stmt 0             @ ../GUILib/src/widgets/lv_slider.c:161:50
	ldrsh.w	r1, [r11, #106]
.Ltmp174:
	.loc	12 161 20                       @ ../GUILib/src/widgets/lv_slider.c:161:20
	cmp	r0, r1
	blt.w	.LBB1_30
.Ltmp175:
@ %bb.46:
	@DEBUG_VALUE: lv_slider_event:obj <- $r11
	@DEBUG_VALUE: lv_slider_event:slider <- $r11
	@DEBUG_VALUE: lv_slider_event:type <- $r7
	@DEBUG_VALUE: lv_slider_event:e <- [DW_OP_LLVM_entry_value 1] $r1
	@DEBUG_VALUE: lv_slider_event:class_p <- [DW_OP_LLVM_entry_value 1] $r0
	.loc	12 164 54 is_stmt 1             @ ../GUILib/src/widgets/lv_slider.c:164:54
	ldrsh.w	r2, [r11, #102]
.Ltmp176:
	.loc	12 164 25 is_stmt 0             @ ../GUILib/src/widgets/lv_slider.c:164:25
	cmp	r0, r2
	bgt.w	.LBB1_90
.Ltmp177:
@ %bb.47:
	@DEBUG_VALUE: lv_slider_event:obj <- $r11
	@DEBUG_VALUE: lv_slider_event:slider <- $r11
	@DEBUG_VALUE: lv_slider_event:type <- $r7
	@DEBUG_VALUE: lv_slider_event:e <- [DW_OP_LLVM_entry_value 1] $r1
	@DEBUG_VALUE: lv_slider_event:class_p <- [DW_OP_LLVM_entry_value 1] $r0
	.loc	12 169 33 is_stmt 1             @ ../GUILib/src/widgets/lv_slider.c:169:33
	ldrsh.w	r7, [r11, #98]
.Ltmp178:
	.loc	12 170 34                       @ ../GUILib/src/widgets/lv_slider.c:170:34
	ldrsh.w	r3, [r11, #110]
	.loc	12 169 33                       @ ../GUILib/src/widgets/lv_slider.c:169:33
	subs	r2, r2, r7
	add.w	r2, r2, r2, lsr #31
	subs	r7, r7, r0
	add.w	r2, r7, r2, asr #1
	cmp	r2, #0
	bpl	.LBB1_49
.Ltmp179:
@ %bb.48:
	@DEBUG_VALUE: lv_slider_event:obj <- $r11
	@DEBUG_VALUE: lv_slider_event:slider <- $r11
	@DEBUG_VALUE: lv_slider_event:e <- [DW_OP_LLVM_entry_value 1] $r1
	@DEBUG_VALUE: lv_slider_event:class_p <- [DW_OP_LLVM_entry_value 1] $r0
	rsbs	r2, r2, #0
.Ltmp180:
.LBB1_49:
	@DEBUG_VALUE: lv_slider_event:obj <- $r11
	@DEBUG_VALUE: lv_slider_event:slider <- $r11
	@DEBUG_VALUE: lv_slider_event:e <- [DW_OP_LLVM_entry_value 1] $r1
	@DEBUG_VALUE: lv_slider_event:class_p <- [DW_OP_LLVM_entry_value 1] $r0
	@DEBUG_VALUE: dist_left <- [DW_OP_LLVM_convert 32 7, DW_OP_LLVM_convert 16 7, DW_OP_stack_value] $r2
	.loc	12 170 34                       @ ../GUILib/src/widgets/lv_slider.c:170:34
	subs	r3, r3, r1
	add.w	r3, r3, r3, lsr #31
	subs	r0, r1, r0
	add.w	r0, r0, r3, asr #1
	cmp	r0, #0
	bpl	.LBB1_51
.Ltmp181:
@ %bb.50:
	@DEBUG_VALUE: lv_slider_event:obj <- $r11
	@DEBUG_VALUE: lv_slider_event:slider <- $r11
	@DEBUG_VALUE: dist_left <- [DW_OP_LLVM_convert 32 7, DW_OP_LLVM_convert 16 7, DW_OP_stack_value] $r2
	@DEBUG_VALUE: lv_slider_event:e <- [DW_OP_LLVM_entry_value 1] $r1
	@DEBUG_VALUE: lv_slider_event:class_p <- [DW_OP_LLVM_entry_value 1] $r0
	rsbs	r0, r0, #0
.Ltmp182:
.LBB1_51:
	@DEBUG_VALUE: lv_slider_event:obj <- $r11
	@DEBUG_VALUE: lv_slider_event:slider <- $r11
	@DEBUG_VALUE: dist_left <- [DW_OP_LLVM_convert 32 7, DW_OP_LLVM_convert 16 7, DW_OP_stack_value] $r2
	@DEBUG_VALUE: lv_slider_event:e <- [DW_OP_LLVM_entry_value 1] $r1
	@DEBUG_VALUE: lv_slider_event:class_p <- [DW_OP_LLVM_entry_value 1] $r0
	@DEBUG_VALUE: dist_right <- [DW_OP_LLVM_convert 32 7, DW_OP_LLVM_convert 16 7, DW_OP_stack_value] $r0
	.loc	12 173 24                       @ ../GUILib/src/widgets/lv_slider.c:173:24
	lsls	r0, r0, #16
.Ltmp183:
	.loc	12 173 24 is_stmt 0             @ ../GUILib/src/widgets/lv_slider.c:173:24
	cmp.w	r0, r2, lsl #16
	blt.w	.LBB1_97
.Ltmp184:
.LBB1_52:
	@DEBUG_VALUE: lv_slider_event:obj <- $r11
	@DEBUG_VALUE: lv_slider_event:slider <- $r11
	@DEBUG_VALUE: lv_slider_event:e <- [DW_OP_LLVM_entry_value 1] $r1
	@DEBUG_VALUE: lv_slider_event:class_p <- [DW_OP_LLVM_entry_value 1] $r0
	.loc	12 0 0                          @ ../GUILib/src/widgets/lv_slider.c:0:0
	ldrb.w	r1, [r11, #116]
	add.w	r0, r11, #48
	str.w	r0, [r11, #112]
	orr	r0, r1, #2
	b	.LBB1_19
.Ltmp185:
.LBB1_53:
	@DEBUG_VALUE: lv_slider_event:obj <- $r11
	@DEBUG_VALUE: lv_slider_event:slider <- $r11
	@DEBUG_VALUE: knob_right <- [DW_OP_LLVM_convert 32 7, DW_OP_LLVM_convert 16 7, DW_OP_stack_value] $r10
	@DEBUG_VALUE: trans_h <- [DW_OP_LLVM_convert 32 7, DW_OP_LLVM_convert 16 7, DW_OP_stack_value] $r8
	@DEBUG_VALUE: knob_top <- [DW_OP_LLVM_convert 32 7, DW_OP_LLVM_convert 16 7, DW_OP_stack_value] $r7
	@DEBUG_VALUE: zoom <- [DW_OP_LLVM_convert 32 7, DW_OP_LLVM_convert 16 7, DW_OP_stack_value] $r6
	@DEBUG_VALUE: lv_slider_event:e <- $r5
	@DEBUG_VALUE: knob_bottom <- [DW_OP_plus_uconst 4, DW_OP_deref_size 4, DW_OP_LLVM_convert 32 7, DW_OP_LLVM_convert 16 7, DW_OP_stack_value] $sp
	@DEBUG_VALUE: knob_left <- [DW_OP_plus_uconst 8, DW_OP_deref_size 4, DW_OP_LLVM_convert 32 7, DW_OP_LLVM_convert 16 7, DW_OP_stack_value] $sp
	@DEBUG_VALUE: lv_slider_event:class_p <- [DW_OP_LLVM_entry_value 1] $r0
	.loc	12 288 32 is_stmt 1             @ ../GUILib/src/widgets/lv_slider.c:288:32
	mov	r0, r11
	asrs	r4, r1, #15
	bl	lv_obj_get_height
.Ltmp186:
.LBB1_54:
	@DEBUG_VALUE: lv_slider_event:obj <- $r11
	@DEBUG_VALUE: lv_slider_event:slider <- $r11
	@DEBUG_VALUE: knob_right <- [DW_OP_LLVM_convert 32 7, DW_OP_LLVM_convert 16 7, DW_OP_stack_value] $r10
	@DEBUG_VALUE: trans_h <- [DW_OP_LLVM_convert 32 7, DW_OP_LLVM_convert 16 7, DW_OP_stack_value] $r8
	@DEBUG_VALUE: knob_top <- [DW_OP_LLVM_convert 32 7, DW_OP_LLVM_convert 16 7, DW_OP_stack_value] $r7
	@DEBUG_VALUE: zoom <- [DW_OP_LLVM_convert 32 7, DW_OP_LLVM_convert 16 7, DW_OP_stack_value] $r6
	@DEBUG_VALUE: lv_slider_event:e <- $r5
	@DEBUG_VALUE: knob_bottom <- [DW_OP_plus_uconst 4, DW_OP_deref_size 4, DW_OP_LLVM_convert 32 7, DW_OP_LLVM_convert 16 7, DW_OP_stack_value] $sp
	@DEBUG_VALUE: knob_left <- [DW_OP_plus_uconst 8, DW_OP_deref_size 4, DW_OP_LLVM_convert 32 7, DW_OP_LLVM_convert 16 7, DW_OP_stack_value] $sp
	@DEBUG_VALUE: lv_slider_event:class_p <- [DW_OP_LLVM_entry_value 1] $r0
	.loc	12 0 32 is_stmt 0               @ ../GUILib/src/widgets/lv_slider.c:0:32
	ldrd	r3, r1, [sp, #4]                @ 8-byte Folded Reload
	.loc	12 288 32                       @ ../GUILib/src/widgets/lv_slider.c:288:32
	add	r0, r4
.Ltmp187:
	@DEBUG_VALUE: knob_size <- [DW_OP_constu 1, DW_OP_shr, DW_OP_LLVM_convert 32 7, DW_OP_LLVM_convert 16 7, DW_OP_stack_value] $r0
	.loc	12 290 22 is_stmt 1             @ ../GUILib/src/widgets/lv_slider.c:290:22
	sxth	r1, r1
	sxth.w	r2, r10
	.loc	12 289 22                       @ ../GUILib/src/widgets/lv_slider.c:289:22
	lsls	r0, r0, #15
.Ltmp188:
	.loc	12 290 22                       @ ../GUILib/src/widgets/lv_slider.c:290:22
	cmp	r1, r2
	it	gt
	movgt	r2, r1
	sxth	r1, r3
	sxth	r3, r7
	.loc	12 289 32                       @ ../GUILib/src/widgets/lv_slider.c:289:32
	smultb	r0, r0, r6
.Ltmp189:
	@DEBUG_VALUE: knob_size <- [DW_OP_constu 8, DW_OP_shr, DW_OP_LLVM_convert 32 7, DW_OP_LLVM_convert 16 7, DW_OP_stack_value] $r0
	.loc	12 290 22                       @ ../GUILib/src/widgets/lv_slider.c:290:22
	cmp	r1, r3
	it	gt
	movgt	r3, r1
	cmp	r2, r3
	it	gt
	movgt	r3, r2
	.loc	12 290 19 is_stmt 0             @ ../GUILib/src/widgets/lv_slider.c:290:19
	add.w	r4, r3, r0, lsr #8
.Ltmp190:
	@DEBUG_VALUE: knob_size <- [DW_OP_LLVM_convert 32 7, DW_OP_LLVM_convert 16 7, DW_OP_plus_uconst 2, DW_OP_stack_value] $r4
	.loc	12 292 22 is_stmt 1             @ ../GUILib/src/widgets/lv_slider.c:292:22
	mov	r0, r11
	mov.w	r1, #196608
	bl	lv_obj_calculate_ext_draw_size
.Ltmp191:
	.loc	12 0 22 is_stmt 0               @ ../GUILib/src/widgets/lv_slider.c:0:22
	mov.w	r1, #131072
	.loc	12 292 19                       @ ../GUILib/src/widgets/lv_slider.c:292:19
	add.w	r1, r1, r4, lsl #16
	add.w	r4, r0, r1, lsr #16
.Ltmp192:
	@DEBUG_VALUE: knob_size <- $r4
	.loc	12 295 26 is_stmt 1             @ ../GUILib/src/widgets/lv_slider.c:295:26
	mov	r0, r5
	.loc	12 292 19                       @ ../GUILib/src/widgets/lv_slider.c:292:19
	sxth	r6, r4
.Ltmp193:
	.loc	12 295 26                       @ ../GUILib/src/widgets/lv_slider.c:295:26
	bl	lv_event_get_param
.Ltmp194:
	@DEBUG_VALUE: s <- $r0
	.loc	12 296 15                       @ ../GUILib/src/widgets/lv_slider.c:296:15
	ldrsh.w	r1, [r0]
	cmp	r1, r6
	it	gt
	movgt	r4, r1
.Ltmp195:
	.loc	12 296 13 is_stmt 0             @ ../GUILib/src/widgets/lv_slider.c:296:13
	strh	r4, [r0]
	b	.LBB1_82
.Ltmp196:
.LBB1_55:
	@DEBUG_VALUE: lv_slider_event:obj <- $r11
	@DEBUG_VALUE: lv_slider_event:slider <- $r11
	@DEBUG_VALUE: lv_slider_event:type <- $r7
	@DEBUG_VALUE: lv_slider_event:e <- $r5
	@DEBUG_VALUE: lv_slider_event:class_p <- [DW_OP_LLVM_entry_value 1] $r0
	.loc	12 310 25 is_stmt 1             @ ../GUILib/src/widgets/lv_slider.c:310:25
	ldrb.w	r0, [r11, #116]
.Ltmp197:
	.loc	12 310 16 is_stmt 0             @ ../GUILib/src/widgets/lv_slider.c:310:16
	lsls	r0, r0, #30
	bmi	.LBB1_62
.Ltmp198:
@ %bb.56:
	@DEBUG_VALUE: lv_slider_event:obj <- $r11
	@DEBUG_VALUE: lv_slider_event:slider <- $r11
	@DEBUG_VALUE: lv_slider_event:type <- $r7
	@DEBUG_VALUE: lv_slider_event:e <- $r5
	@DEBUG_VALUE: lv_slider_event:class_p <- [DW_OP_LLVM_entry_value 1] $r0
	@DEBUG_VALUE: lv_slider_get_value:obj <- $r11
	.loc	14 132 12 is_stmt 1             @ ../GUILib/src/widgets/lv_slider.h:132:12
	mov	r0, r11
	bl	lv_bar_get_value
.Ltmp199:
	.loc	12 310 92                       @ ../GUILib/src/widgets/lv_slider.c:310:92
	subs	r1, r0, #1
.Ltmp200:
	@DEBUG_VALUE: lv_slider_set_value:anim <- 1
	@DEBUG_VALUE: lv_slider_set_value:obj <- $r11
	@DEBUG_VALUE: lv_slider_set_value:value <- $r1
.LBB1_57:
	@DEBUG_VALUE: lv_slider_event:obj <- $r11
	@DEBUG_VALUE: lv_slider_event:slider <- $r11
	@DEBUG_VALUE: lv_slider_event:type <- $r7
	@DEBUG_VALUE: lv_slider_event:e <- $r5
	@DEBUG_VALUE: lv_slider_event:class_p <- [DW_OP_LLVM_entry_value 1] $r0
	.loc	12 0 0 is_stmt 0                @ ../GUILib/src/widgets/lv_slider.c:0:0
	mov	r0, r11
	movs	r2, #1
	bl	lv_bar_set_value
.Ltmp201:
	b	.LBB1_64
.Ltmp202:
.LBB1_58:
	@DEBUG_VALUE: draw_knob:clip_area <- [DW_OP_plus_uconst 8] [$sp+0]
	@DEBUG_VALUE: draw_knob:objh <- $r11
	@DEBUG_VALUE: draw_knob:objw <- $r10
	@DEBUG_VALUE: draw_knob:knob_size <- $r9
	@DEBUG_VALUE: draw_knob:obj <- $r7
	@DEBUG_VALUE: draw_knob:slider <- $r7
	@DEBUG_VALUE: draw_knob:base_dir <- $r2
	@DEBUG_VALUE: lv_slider_event:e <- [DW_OP_LLVM_entry_value 1] $r1
	@DEBUG_VALUE: lv_slider_event:class_p <- [DW_OP_LLVM_entry_value 1] $r0
	.loc	12 341 28 is_stmt 1             @ ../GUILib/src/widgets/lv_slider.c:341:28
	add.w	r0, r7, #56
	cmp	r2, #1
	it	eq
	addeq.w	r0, r7, #52
	b	.LBB1_72
.Ltmp203:
.LBB1_59:
	@DEBUG_VALUE: lv_slider_event:obj <- $r11
	@DEBUG_VALUE: lv_slider_event:slider <- $r11
	@DEBUG_VALUE: lv_slider_event:type <- $r7
	@DEBUG_VALUE: g <- $r5
	@DEBUG_VALUE: lv_slider_event:e <- [DW_OP_LLVM_entry_value 1] $r1
	@DEBUG_VALUE: lv_slider_event:class_p <- [DW_OP_LLVM_entry_value 1] $r0
	.loc	12 258 49                       @ ../GUILib/src/widgets/lv_slider.c:258:49
	and	r2, r0, #253
	.loc	12 259 25                       @ ../GUILib/src/widgets/lv_slider.c:259:25
	mov	r0, r5
	movs	r1, #0
	.loc	12 258 49                       @ ../GUILib/src/widgets/lv_slider.c:258:49
	strb.w	r2, [r11, #116]
.Ltmp204:
.LBB1_60:
	@DEBUG_VALUE: lv_slider_event:obj <- $r11
	@DEBUG_VALUE: lv_slider_event:slider <- $r11
	@DEBUG_VALUE: lv_slider_event:type <- $r7
	@DEBUG_VALUE: g <- $r5
	@DEBUG_VALUE: lv_slider_event:e <- [DW_OP_LLVM_entry_value 1] $r1
	@DEBUG_VALUE: lv_slider_event:class_p <- [DW_OP_LLVM_entry_value 1] $r0
	.loc	12 0 0 is_stmt 0                @ ../GUILib/src/widgets/lv_slider.c:0:0
	add	sp, #196
	pop.w	{r4, r5, r6, r7, r8, r9, r10, r11, lr}
.Ltmp205:
	b	lv_group_set_editing
.Ltmp206:
.LBB1_61:
	@DEBUG_VALUE: lv_slider_event:obj <- $r11
	@DEBUG_VALUE: lv_slider_event:slider <- $r11
	@DEBUG_VALUE: lv_slider_event:type <- $r7
	@DEBUG_VALUE: lv_slider_event:e <- $r5
	@DEBUG_VALUE: lv_slider_event:class_p <- [DW_OP_LLVM_entry_value 1] $r0
	@DEBUG_VALUE: lv_slider_get_left_value:obj <- $r11
	.loc	14 142 12 is_stmt 1             @ ../GUILib/src/widgets/lv_slider.h:142:12
	mov	r0, r11
	bl	lv_bar_get_start_value
.Ltmp207:
	.loc	12 304 78                       @ ../GUILib/src/widgets/lv_slider.c:304:78
	adds	r1, r0, #1
.Ltmp208:
	@DEBUG_VALUE: lv_slider_set_left_value:anim <- 1
	@DEBUG_VALUE: lv_slider_set_left_value:obj <- $r11
	@DEBUG_VALUE: lv_slider_set_left_value:value <- $r1
	.loc	12 0 78 is_stmt 0               @ ../GUILib/src/widgets/lv_slider.c:0:78
	b	.LBB1_63
.Ltmp209:
.LBB1_62:
	@DEBUG_VALUE: lv_slider_event:obj <- $r11
	@DEBUG_VALUE: lv_slider_event:slider <- $r11
	@DEBUG_VALUE: lv_slider_event:type <- $r7
	@DEBUG_VALUE: lv_slider_event:e <- $r5
	@DEBUG_VALUE: lv_slider_event:class_p <- [DW_OP_LLVM_entry_value 1] $r0
	@DEBUG_VALUE: lv_slider_get_left_value:obj <- $r11
	.loc	14 142 12 is_stmt 1             @ ../GUILib/src/widgets/lv_slider.h:142:12
	mov	r0, r11
	bl	lv_bar_get_start_value
.Ltmp210:
	.loc	12 311 78                       @ ../GUILib/src/widgets/lv_slider.c:311:78
	subs	r1, r0, #1
.Ltmp211:
	@DEBUG_VALUE: lv_slider_set_left_value:anim <- 1
	@DEBUG_VALUE: lv_slider_set_left_value:obj <- $r11
	@DEBUG_VALUE: lv_slider_set_left_value:value <- $r1
.LBB1_63:
	@DEBUG_VALUE: lv_slider_event:obj <- $r11
	@DEBUG_VALUE: lv_slider_event:slider <- $r11
	@DEBUG_VALUE: lv_slider_event:type <- $r7
	@DEBUG_VALUE: lv_slider_event:e <- $r5
	@DEBUG_VALUE: lv_slider_event:class_p <- [DW_OP_LLVM_entry_value 1] $r0
	.loc	12 0 0 is_stmt 0                @ ../GUILib/src/widgets/lv_slider.c:0:0
	mov	r0, r11
	movs	r2, #1
	bl	lv_bar_set_start_value
.Ltmp212:
.LBB1_64:
	@DEBUG_VALUE: lv_slider_event:obj <- $r11
	@DEBUG_VALUE: lv_slider_event:slider <- $r11
	@DEBUG_VALUE: lv_slider_event:type <- $r7
	@DEBUG_VALUE: lv_slider_event:e <- $r5
	@DEBUG_VALUE: lv_slider_event:class_p <- [DW_OP_LLVM_entry_value 1] $r0
	mov	r0, r11
	movs	r1, #28
	movs	r2, #0
	add	sp, #196
	pop.w	{r4, r5, r6, r7, r8, r9, r10, r11, lr}
.Ltmp213:
	@DEBUG_VALUE: lv_slider_event:e <- [DW_OP_LLVM_entry_value 1] $r1
	b	lv_event_send
.Ltmp214:
.LBB1_65:
	@DEBUG_VALUE: lv_obj_get_style_base_dir:obj <- $r11
	@DEBUG_VALUE: lv_slider_event:obj <- $r11
	@DEBUG_VALUE: lv_slider_event:slider <- $r11
	@DEBUG_VALUE: bg_left <- [DW_OP_LLVM_convert 32 7, DW_OP_LLVM_convert 16 7, DW_OP_stack_value] $r9
	@DEBUG_VALUE: lv_obj_get_style_base_dir:v <- $r8
	@DEBUG_VALUE: base_dir <- [DW_OP_LLVM_convert 32 7, DW_OP_LLVM_convert 8 7, DW_OP_stack_value] $r8
	@DEBUG_VALUE: h <- $r7
	@DEBUG_VALUE: w <- $r6
	@DEBUG_VALUE: bg_right <- [DW_OP_LLVM_convert 32 7, DW_OP_LLVM_convert 16 7, DW_OP_stack_value] $r5
	@DEBUG_VALUE: bg_top <- [DW_OP_LLVM_convert 32 7, DW_OP_LLVM_convert 16 7, DW_OP_stack_value] $r4
	@DEBUG_VALUE: range <- $r3
	@DEBUG_VALUE: real_min_value <- $r2
	@DEBUG_VALUE: real_max_value <- $r1
	@DEBUG_VALUE: bg_bottom <- [DW_OP_LLVM_convert 32 7, DW_OP_LLVM_convert 16 7, DW_OP_stack_value] $r0
	@DEBUG_VALUE: new_value <- 0
	@DEBUG_VALUE: lv_obj_get_style_base_dir:part <- 0
	@DEBUG_VALUE: lv_slider_event:e <- [DW_OP_LLVM_entry_value 1] $r1
	@DEBUG_VALUE: lv_slider_event:class_p <- [DW_OP_LLVM_entry_value 1] $r0
	@DEBUG_VALUE: base_dir <- $r8
	@DEBUG_VALUE: bg_left <- $r9
	@DEBUG_VALUE: bg_right <- $r5
	.loc	20 190 12 is_stmt 1             @ ../GUILib/src/widgets/../core/lv_obj_style_gen.h:190:12
	uxtb.w	r0, r8
.Ltmp215:
	.loc	12 207 36                       @ ../GUILib/src/widgets/lv_slider.c:207:36
	sub.w	r7, r6, r9
.Ltmp216:
	.loc	12 208 16                       @ ../GUILib/src/widgets/lv_slider.c:208:16
	cmp	r0, #1
	.loc	12 207 46                       @ ../GUILib/src/widgets/lv_slider.c:207:46
	sub.w	r0, r7, r5
.Ltmp217:
	@DEBUG_VALUE: indic_w <- $r0
	.loc	12 208 16                       @ ../GUILib/src/widgets/lv_slider.c:208:16
	bne.w	.LBB1_84
.Ltmp218:
@ %bb.66:
	@DEBUG_VALUE: lv_slider_event:obj <- $r11
	@DEBUG_VALUE: lv_slider_event:slider <- $r11
	@DEBUG_VALUE: bg_left <- $r9
	@DEBUG_VALUE: base_dir <- $r8
	@DEBUG_VALUE: w <- $r6
	@DEBUG_VALUE: bg_right <- $r5
	@DEBUG_VALUE: bg_top <- [DW_OP_LLVM_convert 32 7, DW_OP_LLVM_convert 16 7, DW_OP_stack_value] $r4
	@DEBUG_VALUE: range <- $r3
	@DEBUG_VALUE: real_min_value <- $r2
	@DEBUG_VALUE: real_max_value <- $r1
	@DEBUG_VALUE: indic_w <- $r0
	@DEBUG_VALUE: new_value <- 0
	@DEBUG_VALUE: lv_slider_event:e <- [DW_OP_LLVM_entry_value 1] $r1
	@DEBUG_VALUE: lv_slider_event:class_p <- [DW_OP_LLVM_entry_value 1] $r0
	.loc	12 207 48                       @ ../GUILib/src/widgets/lv_slider.c:207:48
	sxth	r7, r5
.Ltmp219:
	.loc	12 209 42                       @ ../GUILib/src/widgets/lv_slider.c:209:42
	ldrsh.w	r6, [r11, #24]
.Ltmp220:
	.loc	12 209 61 is_stmt 0             @ ../GUILib/src/widgets/lv_slider.c:209:61
	ldrsh.w	r5, [sp, #64]
.Ltmp221:
	.loc	12 0 61                         @ ../GUILib/src/widgets/lv_slider.c:0:61
	b	.LBB1_85
.Ltmp222:
.LBB1_67:
	@DEBUG_VALUE: lv_obj_get_style_base_dir:obj <- $r11
	@DEBUG_VALUE: lv_slider_event:obj <- $r11
	@DEBUG_VALUE: lv_slider_event:slider <- $r11
	@DEBUG_VALUE: lv_slider_event:type <- $r7
	@DEBUG_VALUE: lv_obj_get_style_base_dir:v <- $r0
	@DEBUG_VALUE: base_dir <- [DW_OP_LLVM_convert 32 7, DW_OP_LLVM_convert 8 7, DW_OP_stack_value] $r0
	@DEBUG_VALUE: lv_obj_get_style_base_dir:part <- 0
	@DEBUG_VALUE: lv_slider_event:e <- [DW_OP_LLVM_entry_value 1] $r1
	@DEBUG_VALUE: lv_slider_event:class_p <- [DW_OP_LLVM_entry_value 1] $r0
	@DEBUG_VALUE: base_dir <- $r0
	.loc	20 190 12 is_stmt 1             @ ../GUILib/src/widgets/../core/lv_obj_style_gen.h:190:12
	uxtb	r1, r0
.Ltmp223:
	.loc	12 0 0 is_stmt 0                @ ../GUILib/src/widgets/lv_slider.c:0:0
	ldrsh.w	r0, [sp, #64]
.Ltmp224:
	.loc	12 136 49 is_stmt 1             @ ../GUILib/src/widgets/lv_slider.c:136:49
	cmp	r1, #1
	bne.w	.LBB1_88
.Ltmp225:
@ %bb.68:
	@DEBUG_VALUE: lv_slider_event:obj <- $r11
	@DEBUG_VALUE: lv_slider_event:slider <- $r11
	@DEBUG_VALUE: lv_slider_event:type <- $r7
	@DEBUG_VALUE: lv_slider_event:e <- [DW_OP_LLVM_entry_value 1] $r1
	@DEBUG_VALUE: lv_slider_event:class_p <- [DW_OP_LLVM_entry_value 1] $r0
	.loc	12 137 120                      @ ../GUILib/src/widgets/lv_slider.c:137:120
	ldrsh.w	r2, [r11, #104]
.Ltmp226:
	.loc	12 136 20                       @ ../GUILib/src/widgets/lv_slider.c:136:20
	cmp	r0, r2
	blt.w	.LBB1_30
.Ltmp227:
@ %bb.69:
	@DEBUG_VALUE: lv_slider_event:obj <- $r11
	@DEBUG_VALUE: lv_slider_event:slider <- $r11
	@DEBUG_VALUE: lv_slider_event:type <- $r7
	@DEBUG_VALUE: lv_slider_event:e <- [DW_OP_LLVM_entry_value 1] $r1
	@DEBUG_VALUE: lv_slider_event:class_p <- [DW_OP_LLVM_entry_value 1] $r0
	.loc	12 141 123                      @ ../GUILib/src/widgets/lv_slider.c:141:123
	ldrsh.w	r3, [r11, #100]
.Ltmp228:
	.loc	12 140 25                       @ ../GUILib/src/widgets/lv_slider.c:140:25
	cmp	r0, r3
	bgt.w	.LBB1_90
.Ltmp229:
@ %bb.70:
	@DEBUG_VALUE: lv_slider_event:obj <- $r11
	@DEBUG_VALUE: lv_slider_event:slider <- $r11
	@DEBUG_VALUE: lv_slider_event:type <- $r7
	@DEBUG_VALUE: lv_slider_event:e <- [DW_OP_LLVM_entry_value 1] $r1
	@DEBUG_VALUE: lv_slider_event:class_p <- [DW_OP_LLVM_entry_value 1] $r0
	.loc	12 146 33                       @ ../GUILib/src/widgets/lv_slider.c:146:33
	ldrh.w	r7, [r11, #96]
.Ltmp230:
	.loc	12 147 34                       @ ../GUILib/src/widgets/lv_slider.c:147:34
	ldrh.w	r1, [r11, #108]
	b	.LBB1_92
.Ltmp231:
.LBB1_71:
	@DEBUG_VALUE: draw_knob:clip_area <- [DW_OP_plus_uconst 8] [$sp+0]
	@DEBUG_VALUE: draw_knob:objh <- $r11
	@DEBUG_VALUE: draw_knob:objw <- $r10
	@DEBUG_VALUE: draw_knob:knob_size <- $r9
	@DEBUG_VALUE: draw_knob:obj <- $r7
	@DEBUG_VALUE: draw_knob:slider <- $r7
	@DEBUG_VALUE: draw_knob:base_dir <- $r2
	@DEBUG_VALUE: lv_slider_event:e <- [DW_OP_LLVM_entry_value 1] $r1
	@DEBUG_VALUE: lv_slider_event:class_p <- [DW_OP_LLVM_entry_value 1] $r0
	.loc	12 348 32                       @ ../GUILib/src/widgets/lv_slider.c:348:32
	cmp	r2, #1
	it	eq
	moveq	r0, r1
.Ltmp232:
.LBB1_72:
	@DEBUG_VALUE: draw_knob:clip_area <- [DW_OP_plus_uconst 8] [$sp+0]
	@DEBUG_VALUE: draw_knob:objh <- $r11
	@DEBUG_VALUE: draw_knob:objw <- $r10
	@DEBUG_VALUE: draw_knob:knob_size <- $r9
	@DEBUG_VALUE: draw_knob:obj <- $r7
	@DEBUG_VALUE: draw_knob:slider <- $r7
	@DEBUG_VALUE: draw_knob:base_dir <- $r2
	@DEBUG_VALUE: lv_slider_event:e <- [DW_OP_LLVM_entry_value 1] $r1
	@DEBUG_VALUE: lv_slider_event:class_p <- [DW_OP_LLVM_entry_value 1] $r0
	.loc	12 0 0 is_stmt 0                @ ../GUILib/src/widgets/lv_slider.c:0:0
	ldrh	r0, [r0]
.Ltmp233:
.LBB1_73:
	@DEBUG_VALUE: draw_knob:clip_area <- [DW_OP_plus_uconst 8] [$sp+0]
	@DEBUG_VALUE: draw_knob:objh <- $r11
	@DEBUG_VALUE: draw_knob:objw <- $r10
	@DEBUG_VALUE: draw_knob:knob_size <- $r9
	@DEBUG_VALUE: draw_knob:obj <- $r7
	@DEBUG_VALUE: draw_knob:slider <- $r7
	@DEBUG_VALUE: draw_knob:base_dir <- $r2
	@DEBUG_VALUE: lv_slider_event:e <- [DW_OP_LLVM_entry_value 1] $r1
	@DEBUG_VALUE: lv_slider_event:class_p <- [DW_OP_LLVM_entry_value 1] $r0
	strh.w	r0, [sp, #188]
.Ltmp234:
.LBB1_74:
	@DEBUG_VALUE: draw_knob:clip_area <- [DW_OP_plus_uconst 8] [$sp+0]
	@DEBUG_VALUE: draw_knob:objh <- $r11
	@DEBUG_VALUE: draw_knob:objw <- $r10
	@DEBUG_VALUE: draw_knob:knob_size <- $r9
	@DEBUG_VALUE: draw_knob:obj <- $r7
	@DEBUG_VALUE: draw_knob:slider <- $r7
	@DEBUG_VALUE: draw_knob:base_dir <- $r2
	@DEBUG_VALUE: lv_slider_event:e <- [DW_OP_LLVM_entry_value 1] $r1
	@DEBUG_VALUE: lv_slider_event:class_p <- [DW_OP_LLVM_entry_value 1] $r0
	add	r5, sp, #136
	.loc	12 331 21 is_stmt 1             @ ../GUILib/src/widgets/lv_slider.c:331:21
	movs	r4, #0
	.loc	12 368 5                        @ ../GUILib/src/widgets/lv_slider.c:368:5
	mov	r0, r5
	mov.w	r8, #0
	.loc	12 331 21                       @ ../GUILib/src/widgets/lv_slider.c:331:21
	cmp	r10, r11
	it	ge
	movge	r4, #1
	.loc	12 368 5                        @ ../GUILib/src/widgets/lv_slider.c:368:5
	bl	lv_draw_rect_dsc_init
.Ltmp235:
	.loc	12 369 5                        @ ../GUILib/src/widgets/lv_slider.c:369:5
	mov	r0, r7
	mov.w	r1, #196608
	mov	r2, r5
	bl	lv_obj_init_draw_rect_dsc
.Ltmp236:
	.loc	12 371 5                        @ ../GUILib/src/widgets/lv_slider.c:371:5
	sxth.w	r2, r9
	add	r1, sp, #188
	mov	r0, r7
	mov	r3, r4
	str	r2, [sp, #4]                    @ 4-byte Spill
	bl	position_knob
.Ltmp237:
	@DEBUG_VALUE: lv_area_copy:src <- [DW_OP_plus_uconst 188, DW_OP_stack_value] $sp
	.loc	6 112 21                        @ ../GUILib/src/hal/../misc/lv_area.h:112:21
	ldrd	r0, r1, [sp, #188]
	ldr.w	r9, [sp, #8]                    @ 4-byte Reload
.Ltmp238:
	@DEBUG_VALUE: draw_knob:clip_area <- $r9
	.loc	6 112 14 is_stmt 0              @ ../GUILib/src/hal/../misc/lv_area.h:112:14
	mov	r4, r7
	str	r0, [r4, #104]!
.Ltmp239:
	@DEBUG_VALUE: lv_area_copy:dest <- $r4
	.loc	6 114 14 is_stmt 1              @ ../GUILib/src/hal/../misc/lv_area.h:114:14
	str	r1, [r7, #108]
	add	r0, sp, #64
.Ltmp240:
	.loc	12 375 5                        @ ../GUILib/src/widgets/lv_slider.c:375:5
	mov	r1, r9
	bl	lv_obj_draw_dsc_init
.Ltmp241:
	.loc	12 376 24                       @ ../GUILib/src/widgets/lv_slider.c:376:24
	mov.w	r0, #196608
	strd	r0, r8, [sp, #116]
.Ltmp242:
	.loc	14 179 26                       @ ../GUILib/src/widgets/lv_slider.h:179:26
	mov	r0, r7
.Ltmp243:
	.loc	12 377 27                       @ ../GUILib/src/widgets/lv_slider.c:377:27
	strd	r6, r8, [sp, #68]
	.loc	12 380 29                       @ ../GUILib/src/widgets/lv_slider.c:380:29
	strd	r4, r5, [sp, #76]
.Ltmp244:
	@DEBUG_VALUE: lv_slider_get_mode:slider <- $r7
	.loc	14 179 26                       @ ../GUILib/src/widgets/lv_slider.h:179:26
	bl	lv_bar_get_mode
.Ltmp245:
	@DEBUG_VALUE: lv_slider_get_mode:mode <- $r0
	.loc	12 383 8                        @ ../GUILib/src/widgets/lv_slider.c:383:8
	cmp	r0, #2
	bne	.LBB1_77
.Ltmp246:
@ %bb.75:
	@DEBUG_VALUE: draw_knob:objh <- $r11
	@DEBUG_VALUE: draw_knob:objw <- $r10
	@DEBUG_VALUE: draw_knob:clip_area <- $r9
	@DEBUG_VALUE: draw_knob:obj <- $r7
	@DEBUG_VALUE: draw_knob:slider <- $r7
	@DEBUG_VALUE: lv_slider_event:e <- [DW_OP_LLVM_entry_value 1] $r1
	@DEBUG_VALUE: lv_slider_event:class_p <- [DW_OP_LLVM_entry_value 1] $r0
	.loc	12 0 8 is_stmt 0                @ ../GUILib/src/widgets/lv_slider.c:0:8
	add	r6, sp, #136
	add	r0, sp, #12
.Ltmp247:
	.loc	12 391 9 is_stmt 1              @ ../GUILib/src/widgets/lv_slider.c:391:9
	mov	r1, r6
	movs	r2, #52
	bl	lv_memcpy
.Ltmp248:
	.loc	12 0 9 is_stmt 0                @ ../GUILib/src/widgets/lv_slider.c:0:9
	add	r5, sp, #64
	.loc	12 393 9 is_stmt 1              @ ../GUILib/src/widgets/lv_slider.c:393:9
	mov	r0, r7
	movs	r1, #26
	mov	r2, r5
	bl	lv_event_send
.Ltmp249:
	.loc	12 394 9                        @ ../GUILib/src/widgets/lv_slider.c:394:9
	mov	r0, r4
	mov	r1, r9
	mov	r2, r6
	bl	lv_draw_rect
.Ltmp250:
	.loc	12 395 9                        @ ../GUILib/src/widgets/lv_slider.c:395:9
	mov	r0, r7
	movs	r1, #27
	mov	r2, r5
	bl	lv_event_send
.Ltmp251:
	.loc	12 398 12                       @ ../GUILib/src/widgets/lv_slider.c:398:12
	cmp	r10, r11
	blt	.LBB1_78
.Ltmp252:
@ %bb.76:
	@DEBUG_VALUE: draw_knob:objh <- $r11
	@DEBUG_VALUE: draw_knob:objw <- $r10
	@DEBUG_VALUE: draw_knob:clip_area <- $r9
	@DEBUG_VALUE: draw_knob:obj <- $r7
	@DEBUG_VALUE: draw_knob:slider <- $r7
	@DEBUG_VALUE: lv_slider_event:e <- [DW_OP_LLVM_entry_value 1] $r1
	@DEBUG_VALUE: lv_slider_event:class_p <- [DW_OP_LLVM_entry_value 1] $r0
	.loc	12 399 28                       @ ../GUILib/src/widgets/lv_slider.c:399:28
	ldr	r1, [sp]                        @ 4-byte Reload
	add.w	r0, r7, #52
	cmp	r1, #1
	it	eq
	addeq.w	r0, r7, #56
	ldrh	r0, [r0]
	.loc	12 399 26 is_stmt 0             @ ../GUILib/src/widgets/lv_slider.c:399:26
	strh.w	r0, [sp, #188]
	b	.LBB1_79
.Ltmp253:
.LBB1_77:
	@DEBUG_VALUE: draw_knob:objh <- $r11
	@DEBUG_VALUE: draw_knob:objw <- $r10
	@DEBUG_VALUE: draw_knob:clip_area <- $r9
	@DEBUG_VALUE: draw_knob:obj <- $r7
	@DEBUG_VALUE: draw_knob:slider <- $r7
	@DEBUG_VALUE: lv_slider_event:e <- [DW_OP_LLVM_entry_value 1] $r1
	@DEBUG_VALUE: lv_slider_event:class_p <- [DW_OP_LLVM_entry_value 1] $r0
	.loc	12 0 26                         @ ../GUILib/src/widgets/lv_slider.c:0:26
	add	r5, sp, #64
.Ltmp254:
	.loc	12 384 9 is_stmt 1              @ ../GUILib/src/widgets/lv_slider.c:384:9
	mov	r0, r7
	movs	r1, #26
	mov	r2, r5
	bl	lv_event_send
.Ltmp255:
	.loc	12 0 9 is_stmt 0                @ ../GUILib/src/widgets/lv_slider.c:0:9
	add	r2, sp, #136
	.loc	12 385 9 is_stmt 1              @ ../GUILib/src/widgets/lv_slider.c:385:9
	mov	r0, r4
	mov	r1, r9
	b	.LBB1_80
.Ltmp256:
.LBB1_78:
	@DEBUG_VALUE: draw_knob:objh <- $r11
	@DEBUG_VALUE: draw_knob:objw <- $r10
	@DEBUG_VALUE: draw_knob:clip_area <- $r9
	@DEBUG_VALUE: draw_knob:obj <- $r7
	@DEBUG_VALUE: draw_knob:slider <- $r7
	@DEBUG_VALUE: lv_slider_event:e <- [DW_OP_LLVM_entry_value 1] $r1
	@DEBUG_VALUE: lv_slider_event:class_p <- [DW_OP_LLVM_entry_value 1] $r0
	.loc	12 402 51                       @ ../GUILib/src/widgets/lv_slider.c:402:51
	ldrh	r0, [r7, #58]
	.loc	12 402 26 is_stmt 0             @ ../GUILib/src/widgets/lv_slider.c:402:26
	strh.w	r0, [sp, #190]
.Ltmp257:
.LBB1_79:
	@DEBUG_VALUE: draw_knob:objh <- $r11
	@DEBUG_VALUE: draw_knob:objw <- $r10
	@DEBUG_VALUE: draw_knob:clip_area <- $r9
	@DEBUG_VALUE: draw_knob:obj <- $r7
	@DEBUG_VALUE: draw_knob:slider <- $r7
	@DEBUG_VALUE: lv_slider_event:e <- [DW_OP_LLVM_entry_value 1] $r1
	@DEBUG_VALUE: lv_slider_event:class_p <- [DW_OP_LLVM_entry_value 1] $r0
	.loc	12 0 26                         @ ../GUILib/src/widgets/lv_slider.c:0:26
	movs	r3, #0
	.loc	12 331 21 is_stmt 1             @ ../GUILib/src/widgets/lv_slider.c:331:21
	cmp	r10, r11
	it	ge
	movge	r3, #1
.Ltmp258:
	.loc	12 404 9                        @ ../GUILib/src/widgets/lv_slider.c:404:9
	ldr	r2, [sp, #4]                    @ 4-byte Reload
	add	r1, sp, #188
	mov	r0, r7
	bl	position_knob
.Ltmp259:
	@DEBUG_VALUE: lv_area_copy:src <- [DW_OP_plus_uconst 188, DW_OP_stack_value] $sp
	.loc	6 112 21                        @ ../GUILib/src/hal/../misc/lv_area.h:112:21
	ldrd	r0, r1, [sp, #188]
	.loc	6 112 14 is_stmt 0              @ ../GUILib/src/hal/../misc/lv_area.h:112:14
	mov	r4, r7
	str	r0, [r4, #96]!
.Ltmp260:
	@DEBUG_VALUE: lv_area_copy:dest <- $r4
	.loc	6 114 14 is_stmt 1              @ ../GUILib/src/hal/../misc/lv_area.h:114:14
	str	r1, [r7, #100]
	add	r1, sp, #12
.Ltmp261:
	.loc	12 407 9                        @ ../GUILib/src/widgets/lv_slider.c:407:9
	mov	r0, r6
	movs	r2, #52
	bl	lv_memcpy
.Ltmp262:
	.loc	12 0 9 is_stmt 0                @ ../GUILib/src/widgets/lv_slider.c:0:9
	movs	r0, #1
	.loc	12 408 28 is_stmt 1             @ ../GUILib/src/widgets/lv_slider.c:408:28
	add	r1, sp, #72
	add	r5, sp, #64
	stm	r1!, {r0, r4, r6}
	.loc	12 411 26                       @ ../GUILib/src/widgets/lv_slider.c:411:26
	str	r0, [sp, #120]
	.loc	12 413 9                        @ ../GUILib/src/widgets/lv_slider.c:413:9
	mov	r0, r7
	movs	r1, #26
	mov	r2, r5
	bl	lv_event_send
.Ltmp263:
	.loc	12 414 9                        @ ../GUILib/src/widgets/lv_slider.c:414:9
	mov	r0, r4
	mov	r1, r9
	mov	r2, r6
.Ltmp264:
.LBB1_80:
	@DEBUG_VALUE: draw_knob:objh <- $r11
	@DEBUG_VALUE: draw_knob:objw <- $r10
	@DEBUG_VALUE: draw_knob:clip_area <- $r9
	@DEBUG_VALUE: draw_knob:obj <- $r7
	@DEBUG_VALUE: draw_knob:slider <- $r7
	@DEBUG_VALUE: lv_slider_event:e <- [DW_OP_LLVM_entry_value 1] $r1
	@DEBUG_VALUE: lv_slider_event:class_p <- [DW_OP_LLVM_entry_value 1] $r0
	.loc	12 0 0 is_stmt 0                @ ../GUILib/src/widgets/lv_slider.c:0:0
	bl	lv_draw_rect
.Ltmp265:
	mov	r0, r7
	movs	r1, #27
	mov	r2, r5
.Ltmp266:
.LBB1_81:
	@DEBUG_VALUE: lv_slider_event:e <- [DW_OP_LLVM_entry_value 1] $r1
	@DEBUG_VALUE: lv_slider_event:class_p <- [DW_OP_LLVM_entry_value 1] $r0
	bl	lv_event_send
.Ltmp267:
	@DEBUG_VALUE: lv_slider_event:res <- undef
.LBB1_82:
	@DEBUG_VALUE: lv_slider_event:class_p <- [DW_OP_LLVM_entry_value 1] $r0
	add	sp, #196
	pop.w	{r4, r5, r6, r7, r8, r9, r10, r11, pc}
.Ltmp268:
.LBB1_83:
	@DEBUG_VALUE: draw_knob:clip_area <- [DW_OP_plus_uconst 8] [$sp+0]
	@DEBUG_VALUE: draw_knob:objh <- $r11
	@DEBUG_VALUE: draw_knob:objw <- $r10
	@DEBUG_VALUE: draw_knob:knob_size <- $r9
	@DEBUG_VALUE: draw_knob:obj <- $r7
	@DEBUG_VALUE: draw_knob:slider <- $r7
	@DEBUG_VALUE: draw_knob:base_dir <- $r2
	@DEBUG_VALUE: lv_slider_event:e <- [DW_OP_LLVM_entry_value 1] $r1
	@DEBUG_VALUE: lv_slider_event:class_p <- [DW_OP_LLVM_entry_value 1] $r0
	.loc	12 362 55 is_stmt 1             @ ../GUILib/src/widgets/lv_slider.c:362:55
	ldrh	r0, [r7, #58]
	b	.LBB1_41
.Ltmp269:
.LBB1_84:
	@DEBUG_VALUE: lv_slider_event:obj <- $r11
	@DEBUG_VALUE: lv_slider_event:slider <- $r11
	@DEBUG_VALUE: bg_left <- $r9
	@DEBUG_VALUE: base_dir <- $r8
	@DEBUG_VALUE: w <- $r6
	@DEBUG_VALUE: bg_right <- $r5
	@DEBUG_VALUE: bg_top <- [DW_OP_LLVM_convert 32 7, DW_OP_LLVM_convert 16 7, DW_OP_stack_value] $r4
	@DEBUG_VALUE: range <- $r3
	@DEBUG_VALUE: real_min_value <- $r2
	@DEBUG_VALUE: real_max_value <- $r1
	@DEBUG_VALUE: indic_w <- $r0
	@DEBUG_VALUE: new_value <- 0
	@DEBUG_VALUE: lv_slider_event:e <- [DW_OP_LLVM_entry_value 1] $r1
	@DEBUG_VALUE: lv_slider_event:class_p <- [DW_OP_LLVM_entry_value 1] $r0
	.loc	12 212 31                       @ ../GUILib/src/widgets/lv_slider.c:212:31
	ldrsh.w	r6, [sp, #64]
.Ltmp270:
	.loc	12 212 48 is_stmt 0             @ ../GUILib/src/widgets/lv_slider.c:212:48
	ldrsh.w	r5, [r11, #20]
.Ltmp271:
	.loc	12 207 38 is_stmt 1             @ ../GUILib/src/widgets/lv_slider.c:207:38
	sxth.w	r7, r9
.Ltmp272:
.LBB1_85:
	@DEBUG_VALUE: lv_slider_event:obj <- $r11
	@DEBUG_VALUE: lv_slider_event:slider <- $r11
	@DEBUG_VALUE: bg_left <- $r9
	@DEBUG_VALUE: base_dir <- $r8
	@DEBUG_VALUE: bg_top <- [DW_OP_LLVM_convert 32 7, DW_OP_LLVM_convert 16 7, DW_OP_stack_value] $r4
	@DEBUG_VALUE: range <- $r3
	@DEBUG_VALUE: real_min_value <- $r2
	@DEBUG_VALUE: real_max_value <- $r1
	@DEBUG_VALUE: indic_w <- $r0
	@DEBUG_VALUE: new_value <- 0
	@DEBUG_VALUE: lv_slider_event:e <- [DW_OP_LLVM_entry_value 1] $r1
	@DEBUG_VALUE: lv_slider_event:class_p <- [DW_OP_LLVM_entry_value 1] $r0
	.loc	12 0 0 is_stmt 0                @ ../GUILib/src/widgets/lv_slider.c:0:0
	subs	r7, r6, r7
	subs	r7, r7, r5
.Ltmp273:
	@DEBUG_VALUE: new_value <- $r7
.LBB1_86:
	@DEBUG_VALUE: lv_slider_event:obj <- $r11
	@DEBUG_VALUE: lv_slider_event:slider <- $r11
	@DEBUG_VALUE: range <- $r3
	@DEBUG_VALUE: real_min_value <- $r2
	@DEBUG_VALUE: real_max_value <- $r1
	@DEBUG_VALUE: lv_slider_event:e <- [DW_OP_LLVM_entry_value 1] $r1
	@DEBUG_VALUE: lv_slider_event:class_p <- [DW_OP_LLVM_entry_value 1] $r0
	muls	r3, r7, r3
.Ltmp274:
	sxth	r0, r0
	sdiv	r3, r3, r0
.Ltmp275:
	@DEBUG_VALUE: new_value <- $r3
	.loc	12 226 20 is_stmt 1             @ ../GUILib/src/widgets/lv_slider.c:226:20
	ldr.w	r0, [r11, #112]
	.loc	12 226 49 is_stmt 0             @ ../GUILib/src/widgets/lv_slider.c:226:49
	add.w	r7, r11, #48
.Ltmp276:
	.loc	12 226 12                       @ ../GUILib/src/widgets/lv_slider.c:226:12
	cmp	r0, r7
.Ltmp277:
	.loc	12 0 0                          @ ../GUILib/src/widgets/lv_slider.c:0:0
	add	r3, r2
.Ltmp278:
	@DEBUG_VALUE: new_value <- $r3
	.loc	12 230 42 is_stmt 1             @ ../GUILib/src/widgets/lv_slider.c:230:42
	ite	ne
	ldrne	r2, [r7]
.Ltmp279:
	.loc	12 227 42                       @ ../GUILib/src/widgets/lv_slider.c:227:42
	ldreq.w	r1, [r11, #36]
.Ltmp280:
	@DEBUG_VALUE: real_max_value <- $r1
	@DEBUG_VALUE: real_min_value <- $r2
	@DEBUG_VALUE: real_max_value <- $r1
	.loc	12 233 12                       @ ../GUILib/src/widgets/lv_slider.c:233:12
	cmp	r3, r1
	it	le
	movle	r1, r3
.Ltmp281:
	cmp	r3, r2
.Ltmp282:
	.loc	12 235 12                       @ ../GUILib/src/widgets/lv_slider.c:235:12
	ldr	r3, [r0]
.Ltmp283:
	.loc	12 233 12                       @ ../GUILib/src/widgets/lv_slider.c:233:12
	it	lt
	movlt	r1, r2
.Ltmp284:
	@DEBUG_VALUE: new_value <- $r1
	.loc	12 235 12                       @ ../GUILib/src/widgets/lv_slider.c:235:12
	cmp	r3, r1
	beq	.LBB1_82
.Ltmp285:
@ %bb.87:
	@DEBUG_VALUE: lv_slider_event:obj <- $r11
	@DEBUG_VALUE: lv_slider_event:slider <- $r11
	@DEBUG_VALUE: real_min_value <- $r2
	@DEBUG_VALUE: new_value <- $r1
	@DEBUG_VALUE: lv_slider_event:e <- [DW_OP_LLVM_entry_value 1] $r1
	@DEBUG_VALUE: lv_slider_event:class_p <- [DW_OP_LLVM_entry_value 1] $r0
	.loc	12 236 35                       @ ../GUILib/src/widgets/lv_slider.c:236:35
	str	r1, [r0]
	.loc	12 237 13                       @ ../GUILib/src/widgets/lv_slider.c:237:13
	mov	r0, r11
	bl	lv_obj_invalidate
.Ltmp286:
	.loc	12 238 19                       @ ../GUILib/src/widgets/lv_slider.c:238:19
	mov	r0, r11
	movs	r1, #28
	movs	r2, #0
	b	.LBB1_81
.Ltmp287:
.LBB1_88:
	@DEBUG_VALUE: lv_slider_event:obj <- $r11
	@DEBUG_VALUE: lv_slider_event:slider <- $r11
	@DEBUG_VALUE: lv_slider_event:type <- $r7
	@DEBUG_VALUE: lv_slider_event:e <- [DW_OP_LLVM_entry_value 1] $r1
	@DEBUG_VALUE: lv_slider_event:class_p <- [DW_OP_LLVM_entry_value 1] $r0
	.loc	12 136 82                       @ ../GUILib/src/widgets/lv_slider.c:136:82
	ldrsh.w	r1, [r11, #108]
	.loc	12 136 86 is_stmt 0             @ ../GUILib/src/widgets/lv_slider.c:136:86
	cmp	r0, r1
	bgt.w	.LBB1_30
.Ltmp288:
@ %bb.89:
	@DEBUG_VALUE: lv_slider_event:obj <- $r11
	@DEBUG_VALUE: lv_slider_event:slider <- $r11
	@DEBUG_VALUE: lv_slider_event:type <- $r7
	@DEBUG_VALUE: lv_slider_event:e <- [DW_OP_LLVM_entry_value 1] $r1
	@DEBUG_VALUE: lv_slider_event:class_p <- [DW_OP_LLVM_entry_value 1] $r0
	.loc	12 140 86 is_stmt 1             @ ../GUILib/src/widgets/lv_slider.c:140:86
	ldrsh.w	r7, [r11, #96]
.Ltmp289:
	.loc	12 140 90 is_stmt 0             @ ../GUILib/src/widgets/lv_slider.c:140:90
	cmp	r0, r7
	bge	.LBB1_91
.Ltmp290:
.LBB1_90:
	@DEBUG_VALUE: lv_slider_event:obj <- $r11
	@DEBUG_VALUE: lv_slider_event:slider <- $r11
	@DEBUG_VALUE: lv_slider_event:e <- [DW_OP_LLVM_entry_value 1] $r1
	@DEBUG_VALUE: lv_slider_event:class_p <- [DW_OP_LLVM_entry_value 1] $r0
	.loc	12 0 0                          @ ../GUILib/src/widgets/lv_slider.c:0:0
	add.w	r0, r11, #48
	b	.LBB1_31
.Ltmp291:
.LBB1_91:
	@DEBUG_VALUE: lv_slider_event:obj <- $r11
	@DEBUG_VALUE: lv_slider_event:slider <- $r11
	@DEBUG_VALUE: lv_slider_event:e <- [DW_OP_LLVM_entry_value 1] $r1
	@DEBUG_VALUE: lv_slider_event:class_p <- [DW_OP_LLVM_entry_value 1] $r0
	.loc	12 146 33 is_stmt 1             @ ../GUILib/src/widgets/lv_slider.c:146:33
	ldrh.w	r3, [r11, #100]
	.loc	12 147 34                       @ ../GUILib/src/widgets/lv_slider.c:147:34
	ldrh.w	r2, [r11, #104]
.Ltmp292:
.LBB1_92:
	@DEBUG_VALUE: lv_slider_event:obj <- $r11
	@DEBUG_VALUE: lv_slider_event:slider <- $r11
	@DEBUG_VALUE: lv_slider_event:e <- [DW_OP_LLVM_entry_value 1] $r1
	@DEBUG_VALUE: lv_slider_event:class_p <- [DW_OP_LLVM_entry_value 1] $r0
	.loc	12 146 33                       @ ../GUILib/src/widgets/lv_slider.c:146:33
	sxth	r7, r7
	sxth	r3, r3
	subs	r3, r3, r7
	add.w	r3, r3, r3, lsr #31
	subs	r7, r7, r0
	add.w	r3, r7, r3, asr #1
	cmp	r3, #0
	bpl	.LBB1_94
.Ltmp293:
@ %bb.93:
	@DEBUG_VALUE: lv_slider_event:obj <- $r11
	@DEBUG_VALUE: lv_slider_event:slider <- $r11
	@DEBUG_VALUE: lv_slider_event:e <- [DW_OP_LLVM_entry_value 1] $r1
	@DEBUG_VALUE: lv_slider_event:class_p <- [DW_OP_LLVM_entry_value 1] $r0
	rsbs	r3, r3, #0
.Ltmp294:
.LBB1_94:
	@DEBUG_VALUE: lv_slider_event:obj <- $r11
	@DEBUG_VALUE: lv_slider_event:slider <- $r11
	@DEBUG_VALUE: lv_slider_event:e <- [DW_OP_LLVM_entry_value 1] $r1
	@DEBUG_VALUE: lv_slider_event:class_p <- [DW_OP_LLVM_entry_value 1] $r0
	@DEBUG_VALUE: dist_left <- [DW_OP_LLVM_convert 32 7, DW_OP_LLVM_convert 16 7, DW_OP_stack_value] $r3
	.loc	12 147 34                       @ ../GUILib/src/widgets/lv_slider.c:147:34
	sxth	r2, r2
	sxth	r1, r1
	subs	r1, r1, r2
	add.w	r1, r1, r1, lsr #31
	subs	r0, r2, r0
	add.w	r0, r0, r1, asr #1
	cmp	r0, #0
	bpl	.LBB1_96
.Ltmp295:
@ %bb.95:
	@DEBUG_VALUE: lv_slider_event:obj <- $r11
	@DEBUG_VALUE: lv_slider_event:slider <- $r11
	@DEBUG_VALUE: dist_left <- [DW_OP_LLVM_convert 32 7, DW_OP_LLVM_convert 16 7, DW_OP_stack_value] $r3
	@DEBUG_VALUE: lv_slider_event:e <- [DW_OP_LLVM_entry_value 1] $r1
	@DEBUG_VALUE: lv_slider_event:class_p <- [DW_OP_LLVM_entry_value 1] $r0
	rsbs	r0, r0, #0
.Ltmp296:
.LBB1_96:
	@DEBUG_VALUE: lv_slider_event:obj <- $r11
	@DEBUG_VALUE: lv_slider_event:slider <- $r11
	@DEBUG_VALUE: dist_left <- [DW_OP_LLVM_convert 32 7, DW_OP_LLVM_convert 16 7, DW_OP_stack_value] $r3
	@DEBUG_VALUE: lv_slider_event:e <- [DW_OP_LLVM_entry_value 1] $r1
	@DEBUG_VALUE: lv_slider_event:class_p <- [DW_OP_LLVM_entry_value 1] $r0
	@DEBUG_VALUE: dist_right <- [DW_OP_LLVM_convert 32 7, DW_OP_LLVM_convert 16 7, DW_OP_stack_value] $r0
	.loc	12 150 24                       @ ../GUILib/src/widgets/lv_slider.c:150:24
	lsls	r0, r0, #16
.Ltmp297:
	.loc	12 150 24 is_stmt 0             @ ../GUILib/src/widgets/lv_slider.c:150:24
	cmp.w	r0, r3, lsl #16
	bge.w	.LBB1_52
.Ltmp298:
.LBB1_97:
	@DEBUG_VALUE: lv_slider_event:obj <- $r11
	@DEBUG_VALUE: lv_slider_event:slider <- $r11
	@DEBUG_VALUE: lv_slider_event:e <- [DW_OP_LLVM_entry_value 1] $r1
	@DEBUG_VALUE: lv_slider_event:class_p <- [DW_OP_LLVM_entry_value 1] $r0
	.loc	12 0 0                          @ ../GUILib/src/widgets/lv_slider.c:0:0
	ldrb.w	r1, [r11, #116]
	add.w	r0, r11, #36
	str.w	r0, [r11, #112]
	and	r0, r1, #253
	b	.LBB1_19
.Ltmp299:
.Lfunc_end1:
	.size	lv_slider_event, .Lfunc_end1-lv_slider_event
	.cfi_endproc
	.file	21 "C:\\Users\\Hyacincher\\Desktop\\HyTelectrl\\Code\\Project" "../GUILib/src/hal/../draw/lv_draw_rect.h"
	.file	22 "C:\\Users\\Hyacincher\\Desktop\\HyTelectrl\\Code\\Project" "../GUILib/src/widgets/../core/lv_obj_draw.h"
	.file	23 "C:\\Users\\Hyacincher\\Desktop\\HyTelectrl\\Code\\Project" "../GUILib/src/widgets/../font/lv_font.h"
	.file	24 "C:\\Users\\Hyacincher\\Desktop\\HyTelectrl\\Code\\Project" "../GUILib/src/hal/../draw/lv_draw_label.h"
	.file	25 "C:\\Users\\Hyacincher\\Desktop\\HyTelectrl\\Code\\Project" "../GUILib/src/widgets/../misc/lv_txt.h"
	.file	26 "C:\\Users\\Hyacincher\\Desktop\\HyTelectrl\\Code\\Project" "../GUILib/src/hal/../draw/lv_draw_line.h"
	.file	27 "C:\\Users\\Hyacincher\\Desktop\\HyTelectrl\\Code\\Project" "../GUILib/src/hal/../draw/lv_draw_img.h"
	.file	28 "C:\\Users\\Hyacincher\\Desktop\\HyTelectrl\\Code\\Project" "../GUILib/src/hal/../draw/lv_draw_arc.h"
	.cantunwind
	.fnend
                                        @ -- End function
	.section	.text.lv_slider_create,"ax",%progbits
	.hidden	lv_slider_create                @ -- Begin function lv_slider_create
	.globl	lv_slider_create
	.p2align	1
	.type	lv_slider_create,%function
	.code	16                              @ @lv_slider_create
	.thumb_func
lv_slider_create:
.Lfunc_begin2:
	.loc	12 60 0 is_stmt 1               @ ../GUILib/src/widgets/lv_slider.c:60:0
	.fnstart
	.cfi_startproc
@ %bb.0:
	@DEBUG_VALUE: lv_slider_create:parent <- $r0
	.save	{r4, lr}
	push	{r4, lr}
	.cfi_def_cfa_offset 8
	.cfi_offset lr, -4
	.cfi_offset r4, -8
	mov	r1, r0
.Ltmp300:
	@DEBUG_VALUE: lv_slider_create:parent <- $r1
	.loc	12 62 22 prologue_end           @ ../GUILib/src/widgets/lv_slider.c:62:22
	movw	r0, :lower16:lv_slider_class
	movt	r0, :upper16:lv_slider_class
	@DEBUG_VALUE: lv_slider_create:parent <- $r1
	bl	lv_obj_class_create_obj
.Ltmp301:
	mov	r4, r0
.Ltmp302:
	@DEBUG_VALUE: lv_slider_create:obj <- $r4
	.loc	12 63 5                         @ ../GUILib/src/widgets/lv_slider.c:63:5
	bl	lv_obj_class_init_obj
.Ltmp303:
	.loc	12 64 5                         @ ../GUILib/src/widgets/lv_slider.c:64:5
	mov	r0, r4
	pop	{r4, pc}
.Ltmp304:
.Lfunc_end2:
	.size	lv_slider_create, .Lfunc_end2-lv_slider_create
	.cfi_endproc
	.cantunwind
	.fnend
                                        @ -- End function
	.section	.text.lv_slider_is_dragged,"ax",%progbits
	.hidden	lv_slider_is_dragged            @ -- Begin function lv_slider_is_dragged
	.globl	lv_slider_is_dragged
	.p2align	1
	.type	lv_slider_is_dragged,%function
	.code	16                              @ @lv_slider_is_dragged
	.thumb_func
lv_slider_is_dragged:
.Lfunc_begin3:
	.loc	12 68 0                         @ ../GUILib/src/widgets/lv_slider.c:68:0
	.fnstart
	.cfi_startproc
@ %bb.0:
	@DEBUG_VALUE: lv_slider_is_dragged:obj <- $r0
	@DEBUG_VALUE: lv_slider_is_dragged:obj <- $r0
	@DEBUG_VALUE: lv_slider_is_dragged:slider <- $r0
	@DEBUG_VALUE: lv_slider_is_dragged:slider <- $r0
	.loc	12 72 20 prologue_end           @ ../GUILib/src/widgets/lv_slider.c:72:20
	ldrb.w	r0, [r0, #116]
.Ltmp305:
	@DEBUG_VALUE: lv_slider_is_dragged:obj <- [DW_OP_LLVM_entry_value 1] $r0
	and	r0, r0, #1
	.loc	12 72 5 is_stmt 0               @ ../GUILib/src/widgets/lv_slider.c:72:5
	bx	lr
.Ltmp306:
.Lfunc_end3:
	.size	lv_slider_is_dragged, .Lfunc_end3-lv_slider_is_dragged
	.cfi_endproc
	.cantunwind
	.fnend
                                        @ -- End function
	.section	.text.position_knob,"ax",%progbits
	.p2align	1                               @ -- Begin function position_knob
	.type	position_knob,%function
	.code	16                              @ @position_knob
	.thumb_func
position_knob:
.Lfunc_begin4:
	.loc	12 420 0 is_stmt 1              @ ../GUILib/src/widgets/lv_slider.c:420:0
	.fnstart
	.cfi_startproc
@ %bb.0:
	@DEBUG_VALUE: position_knob:obj <- $r0
	@DEBUG_VALUE: position_knob:knob_area <- $r1
	@DEBUG_VALUE: position_knob:knob_size <- $r2
	@DEBUG_VALUE: position_knob:hor <- [DW_OP_LLVM_convert 1 7, DW_OP_LLVM_convert 8 7, DW_OP_stack_value] $r3
	.save	{r4, r5, r6, r7, r8, r9, r10, lr}
	push.w	{r4, r5, r6, r7, r8, r9, r10, lr}
	.cfi_def_cfa_offset 32
	.cfi_offset lr, -4
	.cfi_offset r10, -8
	.cfi_offset r9, -12
	.cfi_offset r8, -16
	.cfi_offset r7, -20
	.cfi_offset r6, -24
	.cfi_offset r5, -28
	.cfi_offset r4, -32
	mov	r4, r1
.Ltmp307:
	@DEBUG_VALUE: position_knob:knob_area <- $r4
	mov	r5, r0
.Ltmp308:
	@DEBUG_VALUE: position_knob:obj <- $r5
	@DEBUG_VALUE: position_knob:hor <- [DW_OP_LLVM_convert 1 7, DW_OP_LLVM_convert 8 7, DW_OP_stack_value] $r3
	@DEBUG_VALUE: position_knob:knob_size <- $r2
	@DEBUG_VALUE: position_knob:knob_area <- $r4
	@DEBUG_VALUE: position_knob:obj <- $r5
	.loc	12 0 0 prologue_end             @ ../GUILib/src/widgets/lv_slider.c:0:0
	asr.w	r0, r2, #1
.Ltmp309:
	.loc	12 422 8                        @ ../GUILib/src/widgets/lv_slider.c:422:8
	cbz	r3, .LBB4_2
.Ltmp310:
@ %bb.1:
	@DEBUG_VALUE: position_knob:obj <- $r5
	@DEBUG_VALUE: position_knob:knob_area <- $r4
	@DEBUG_VALUE: position_knob:hor <- [DW_OP_LLVM_convert 1 7, DW_OP_LLVM_convert 8 7, DW_OP_stack_value] $r3
	@DEBUG_VALUE: position_knob:knob_size <- $r2
	.loc	12 423 23                       @ ../GUILib/src/widgets/lv_slider.c:423:23
	ldrh	r1, [r4]
	subs	r0, r1, r0
	strh	r0, [r4]
	.loc	12 424 39                       @ ../GUILib/src/widgets/lv_slider.c:424:39
	add	r0, r2
	.loc	12 424 51 is_stmt 0             @ ../GUILib/src/widgets/lv_slider.c:424:51
	subs	r0, #1
	.loc	12 425 37 is_stmt 1             @ ../GUILib/src/widgets/lv_slider.c:425:37
	ldrh	r1, [r5, #22]
	.loc	12 424 23                       @ ../GUILib/src/widgets/lv_slider.c:424:23
	strh	r0, [r4, #4]
	.loc	12 426 37                       @ ../GUILib/src/widgets/lv_slider.c:426:37
	ldrh	r0, [r5, #26]
	.loc	12 425 23                       @ ../GUILib/src/widgets/lv_slider.c:425:23
	strh	r1, [r4, #2]
	b	.LBB4_3
.Ltmp311:
.LBB4_2:
	@DEBUG_VALUE: position_knob:obj <- $r5
	@DEBUG_VALUE: position_knob:knob_area <- $r4
	@DEBUG_VALUE: position_knob:hor <- [DW_OP_LLVM_convert 1 7, DW_OP_LLVM_convert 8 7, DW_OP_stack_value] $r3
	@DEBUG_VALUE: position_knob:knob_size <- $r2
	.loc	12 429 23                       @ ../GUILib/src/widgets/lv_slider.c:429:23
	ldrh	r1, [r4, #2]
	subs	r0, r1, r0
	strh	r0, [r4, #2]
	.loc	12 430 39                       @ ../GUILib/src/widgets/lv_slider.c:430:39
	add	r0, r2
	.loc	12 431 37                       @ ../GUILib/src/widgets/lv_slider.c:431:37
	ldrh	r1, [r5, #20]
	.loc	12 432 37                       @ ../GUILib/src/widgets/lv_slider.c:432:37
	ldrh	r2, [r5, #24]
.Ltmp312:
	@DEBUG_VALUE: position_knob:knob_size <- [DW_OP_LLVM_entry_value 1] $r2
	.loc	12 430 51                       @ ../GUILib/src/widgets/lv_slider.c:430:51
	subs	r0, #1
	.loc	12 431 23                       @ ../GUILib/src/widgets/lv_slider.c:431:23
	strh	r1, [r4]
	.loc	12 432 23                       @ ../GUILib/src/widgets/lv_slider.c:432:23
	strh	r2, [r4, #4]
.Ltmp313:
.LBB4_3:
	@DEBUG_VALUE: position_knob:obj <- $r5
	@DEBUG_VALUE: position_knob:knob_area <- $r4
	@DEBUG_VALUE: position_knob:hor <- [DW_OP_LLVM_convert 1 7, DW_OP_LLVM_convert 8 7, DW_OP_stack_value] $r3
	.loc	12 426 23                       @ ../GUILib/src/widgets/lv_slider.c:426:23
	strh	r0, [r4, #6]
.Ltmp314:
	@DEBUG_VALUE: lv_obj_get_style_pad_left:part <- 196608
	@DEBUG_VALUE: lv_obj_get_style_pad_left:obj <- $r5
	.loc	20 105 26                       @ ../GUILib/src/widgets/../core/lv_obj_style_gen.h:105:26
	mov	r0, r5
	mov.w	r1, #196608
	movw	r2, #6162
	bl	lv_obj_get_style_prop
.Ltmp315:
	mov	r8, r0
.Ltmp316:
	@DEBUG_VALUE: lv_obj_get_style_pad_right:part <- 196608
	@DEBUG_VALUE: lv_obj_get_style_pad_right:obj <- $r5
	@DEBUG_VALUE: position_knob:knob_left <- $r8
	@DEBUG_VALUE: lv_obj_get_style_pad_left:v <- $r8
	.loc	20 111 26                       @ ../GUILib/src/widgets/../core/lv_obj_style_gen.h:111:26
	mov	r0, r5
	mov.w	r1, #196608
	movw	r2, #6163
	bl	lv_obj_get_style_prop
.Ltmp317:
	mov	r9, r0
.Ltmp318:
	@DEBUG_VALUE: lv_obj_get_style_pad_top:part <- 196608
	@DEBUG_VALUE: lv_obj_get_style_pad_top:obj <- $r5
	@DEBUG_VALUE: position_knob:knob_right <- $r9
	@DEBUG_VALUE: lv_obj_get_style_pad_right:v <- $r9
	.loc	20 93 26                        @ ../GUILib/src/widgets/../core/lv_obj_style_gen.h:93:26
	mov	r0, r5
	mov.w	r1, #196608
	movw	r2, #6160
	bl	lv_obj_get_style_prop
.Ltmp319:
	mov	r10, r0
.Ltmp320:
	@DEBUG_VALUE: lv_obj_get_style_pad_bottom:part <- 196608
	@DEBUG_VALUE: lv_obj_get_style_pad_bottom:obj <- $r5
	@DEBUG_VALUE: position_knob:knob_top <- $r10
	@DEBUG_VALUE: lv_obj_get_style_pad_top:v <- $r10
	.loc	20 99 26                        @ ../GUILib/src/widgets/../core/lv_obj_style_gen.h:99:26
	mov	r0, r5
	mov.w	r1, #196608
	movw	r2, #6161
	bl	lv_obj_get_style_prop
.Ltmp321:
	mov	r7, r0
.Ltmp322:
	@DEBUG_VALUE: lv_obj_get_style_transform_width:part <- 196608
	@DEBUG_VALUE: lv_obj_get_style_transform_width:obj <- $r5
	@DEBUG_VALUE: position_knob:knob_bottom <- $r7
	@DEBUG_VALUE: lv_obj_get_style_pad_bottom:v <- $r7
	.loc	20 57 26                        @ ../GUILib/src/widgets/../core/lv_obj_style_gen.h:57:26
	mov	r0, r5
	mov.w	r1, #196608
	movw	r2, #2058
	bl	lv_obj_get_style_prop
.Ltmp323:
	mov	r6, r0
.Ltmp324:
	@DEBUG_VALUE: lv_obj_get_style_transform_height:part <- 196608
	@DEBUG_VALUE: lv_obj_get_style_transform_height:obj <- $r5
	@DEBUG_VALUE: position_knob:transf_w <- $r6
	@DEBUG_VALUE: lv_obj_get_style_transform_width:v <- $r6
	.loc	20 63 26                        @ ../GUILib/src/widgets/../core/lv_obj_style_gen.h:63:26
	mov	r0, r5
	mov.w	r1, #196608
	movw	r2, #2059
	bl	lv_obj_get_style_prop
.Ltmp325:
	@DEBUG_VALUE: position_knob:transf_h <- $r0
	@DEBUG_VALUE: lv_obj_get_style_transform_height:v <- $r0
	.loc	12 444 19                       @ ../GUILib/src/widgets/lv_slider.c:444:19
	ldrh	r1, [r4]
	.loc	12 444 32 is_stmt 0             @ ../GUILib/src/widgets/lv_slider.c:444:32
	add.w	r2, r6, r8
	.loc	12 444 19                       @ ../GUILib/src/widgets/lv_slider.c:444:19
	subs	r1, r1, r2
	strh	r1, [r4]
	.loc	12 445 19 is_stmt 1             @ ../GUILib/src/widgets/lv_slider.c:445:19
	ldrh	r1, [r4, #4]
	.loc	12 445 33 is_stmt 0             @ ../GUILib/src/widgets/lv_slider.c:445:33
	add.w	r2, r6, r9
	.loc	12 445 19                       @ ../GUILib/src/widgets/lv_slider.c:445:19
	add	r1, r2
	strh	r1, [r4, #4]
	.loc	12 446 19 is_stmt 1             @ ../GUILib/src/widgets/lv_slider.c:446:19
	ldrh	r1, [r4, #2]
	.loc	12 446 31 is_stmt 0             @ ../GUILib/src/widgets/lv_slider.c:446:31
	add.w	r2, r0, r10
	.loc	12 446 19                       @ ../GUILib/src/widgets/lv_slider.c:446:19
	subs	r1, r1, r2
	strh	r1, [r4, #2]
	.loc	12 447 19 is_stmt 1             @ ../GUILib/src/widgets/lv_slider.c:447:19
	ldrh	r1, [r4, #6]
	.loc	12 447 34 is_stmt 0             @ ../GUILib/src/widgets/lv_slider.c:447:34
	add	r0, r7
.Ltmp326:
	.loc	12 447 19                       @ ../GUILib/src/widgets/lv_slider.c:447:19
	add	r0, r1
	strh	r0, [r4, #6]
	.loc	12 448 1 is_stmt 1              @ ../GUILib/src/widgets/lv_slider.c:448:1
	pop.w	{r4, r5, r6, r7, r8, r9, r10, pc}
.Ltmp327:
.Lfunc_end4:
	.size	position_knob, .Lfunc_end4-position_knob
	.cfi_endproc
	.cantunwind
	.fnend
                                        @ -- End function
	.hidden	lv_slider_class                 @ @lv_slider_class
	.type	lv_slider_class,%object
	.section	.rodata.lv_slider_class,"a",%progbits
	.globl	lv_slider_class
	.p2align	2
lv_slider_class:
	.long	lv_bar_class
	.long	lv_slider_constructor
	.long	0
	.long	0
	.long	lv_slider_event
	.short	0                               @ 0x0
	.short	0                               @ 0x0
	.byte	133                             @ 0x85
	.byte	7                               @ 0x7
	.byte	0                               @ 0x0
	.zero	1
	.size	lv_slider_class, 28

	.file	29 "C:\\Users\\Hyacincher\\Desktop\\HyTelectrl\\Code\\Project" "../GUILib/src/hal/lv_hal_disp.h"
	.file	30 "C:\\Users\\Hyacincher\\Desktop\\HyTelectrl\\Code\\Project" "../GUILib/src/hal/../misc/lv_timer.h"
	.file	31 "C:\\Users\\Hyacincher\\Desktop\\HyTelectrl\\Code\\Project" "../GUILib/src/widgets/../core/lv_theme.h"
	.section	".note.GNU-stack","",%progbits
	.eabi_attribute	30, 3	@ Tag_ABI_optimization_goals
	.ARM_attribute	16, 1	@ Tag_AV_eba