	.text
	.syntax unified
	.eabi_attribute	67, "2.09"	@ Tag_conformance
	.cpu	cortex-m4
	.eabi_attribute	6, 13	@ Tag_CPU_arch
	.eabi_attribute	7, 77	@ Tag_CPU_arch_profile
	.eabi_attribute	8, 0	@ Tag_ARM_ISA_use
	.eabi_attribute	9, 2	@ Tag_THUMB_ISA_use
	.fpu	fpv4-sp-d16
	.eabi_attribute	27, 1	@ Tag_ABI_HardFP_use
	.eabi_attribute	36, 1	@ Tag_FP_HP_extension
	.eabi_attribute	34, 1	@ Tag_CPU_unaligned_access
	.eabi_attribute	17, 1	@ Tag_ABI_PCS_GOT_use
	.eabi_attribute	20, 2	@ Tag_ABI_FP_denormal
	.eabi_attribute	21, 0	@ Tag_ABI_FP_exceptions
	.eabi_attribute	23, 1	@ Tag_ABI_FP_number_model
	.eabi_attribute	24, 1	@ Tag_ABI_align_needed
	.eabi_attribute	25, 1	@ Tag_ABI_align_preserved
	.eabi_attribute	28, 1	@ Tag_ABI_VFP_args
	.eabi_attribute	38, 1	@ Tag_ABI_FP_16bit_format
	.eabi_attribute	18, 2	@ Tag_ABI_PCS_wchar_t
	.eabi_attribute	26, 1	@ Tag_ABI_enum_size
	.eabi_attribute	14, 0	@ Tag_ABI_PCS_R9_use
	.file	"lv_textarea.c"
	.file	1 "C:\\Users\\Hyacincher\\Desktop\\HyTelectrl\\Code\\Project" "../GUILib/src/widgets/../core/lv_obj_class.h"
	.file	2 "C:\\Users\\Hyacincher\\Desktop\\HyTelectrl\\Code\\Project" "../GUILib/src/widgets/../core/lv_obj.h"
	.file	3 "D:\\Keil MDK\\ARM\\ARMCLANG\\Bin\\..\\include" "stdint.h"
	.file	4 "C:\\Users\\Hyacincher\\Desktop\\HyTelectrl\\Code\\Project" "../GUILib/src/widgets/../core/../misc/lv_ll.h"
	.file	5 "C:\\Users\\Hyacincher\\Desktop\\HyTelectrl\\Code\\Project" "../GUILib/src/widgets/../core/lv_group.h"
	.file	6 "C:\\Users\\Hyacincher\\Desktop\\HyTelectrl\\Code\\Project" "../GUILib/src/hal/../misc/lv_area.h"
	.file	7 "C:\\Users\\Hyacincher\\Desktop\\HyTelectrl\\Code\\Project" "../GUILib/src/widgets/../core/lv_obj_scroll.h"
	.file	8 "C:\\Users\\Hyacincher\\Desktop\\HyTelectrl\\Code\\Project" "../GUILib/src/hal/../draw/../misc/lv_style.h"
	.file	9 "C:\\Users\\Hyacincher\\Desktop\\HyTelectrl\\Code\\Project" "../GUILib/src/hal/../misc/lv_color.h"
	.file	10 "C:\\Users\\Hyacincher\\Desktop\\HyTelectrl\\Code\\Project" "../GUILib/src/widgets/../core/lv_obj_style.h"
	.file	11 "C:\\Users\\Hyacincher\\Desktop\\HyTelectrl\\Code\\Project" "../GUILib/src/widgets/../core/lv_event.h"
	.file	12 "C:\\Users\\Hyacincher\\Desktop\\HyTelectrl\\Code\\Project" "../GUILib/src/widgets/lv_textarea.c"
	.file	13 "C:\\Users\\Hyacincher\\Desktop\\HyTelectrl\\Code\\Project" "../GUILib/src/hal/../draw/../misc/lv_types.h"
	.file	14 "C:\\Users\\Hyacincher\\Desktop\\HyTelectrl\\Code\\Project" "../GUILib/src/widgets/../misc/lv_anim.h"
	.file	15 "C:\\Users\\Hyacincher\\Desktop\\HyTelectrl\\Code\\Project" "../GUILib/src/widgets/../core/../hal/lv_hal_indev.h"
	.file	16 "C:\\Users\\Hyacincher\\Desktop\\HyTelectrl\\Code\\Project" "../GUILib/src/widgets/lv_textarea.h"
	.file	17 "C:\\Users\\Hyacincher\\Desktop\\HyTelectrl\\Code\\Project" "../GUILib/src/widgets/../misc/lv_txt.h"
	.file	18 "C:\\Users\\Hyacincher\\Desktop\\HyTelectrl\\Code\\Project" "../GUILib/src/widgets/../font/lv_font.h"
	.file	19 "C:\\Users\\Hyacincher\\Desktop\\HyTelectrl\\Code\\Project" "../GUILib/src/widgets/lv_label.h"
	.file	20 "C:\\Users\\Hyacincher\\Desktop\\HyTelectrl\\Code\\Project" "../GUILib/src/hal/../draw/lv_draw_label.h"
	.section	.text.lv_textarea_constructor,"ax",%progbits
	.p2align	1                               @ -- Begin function lv_textarea_constructor
	.type	lv_textarea_constructor,%function
	.code	16                              @ @lv_textarea_constructor
	.thumb_func
lv_textarea_constructor:
.Lfunc_begin0:
	.loc	12 800 0                        @ ../GUILib/src/widgets/lv_textarea.c:800:0
	.fnstart
	.cfi_sections .debug_frame
	.cfi_startproc
@ %bb.0:
	@DEBUG_VALUE: lv_textarea_constructor:class_p <- $r0
	@DEBUG_VALUE: lv_textarea_constructor:obj <- $r1
	.save	{r4, lr}
	push	{r4, lr}
	.cfi_def_cfa_offset 8
	.cfi_offset lr, -4
	.cfi_offset r4, -8
.Ltmp0:
	@DEBUG_VALUE: lv_textarea_constructor:ta <- $r1
	.loc	12 811 26 prologue_end          @ ../GUILib/src/widgets/lv_textarea.c:811:26
	ldrb.w	r0, [r1, #80]
.Ltmp1:
	@DEBUG_VALUE: lv_textarea_constructor:class_p <- [DW_OP_LLVM_entry_value 1] $r0
	.loc	12 0 26 is_stmt 0               @ ../GUILib/src/widgets/lv_textarea.c:0:26
	mov	r4, r1
.Ltmp2:
	@DEBUG_VALUE: lv_textarea_constructor:ta <- $r4
	@DEBUG_VALUE: lv_textarea_constructor:obj <- $r4
	.loc	12 806 27 is_stmt 1             @ ../GUILib/src/widgets/lv_textarea.c:806:27
	ldrb.w	r1, [r1, #92]
	.loc	12 814 27                       @ ../GUILib/src/widgets/lv_textarea.c:814:27
	orr	r0, r0, #3
	movw	r3, #1500
	strb.w	r0, [r4, #80]
	.loc	12 818 21                       @ ../GUILib/src/widgets/lv_textarea.c:818:21
	and	r0, r1, #241
	movs	r2, #0
	.loc	12 808 27                       @ ../GUILib/src/widgets/lv_textarea.c:808:27
	strh	r3, [r4, #56]
	movs	r3, #1
	.loc	12 818 21                       @ ../GUILib/src/widgets/lv_textarea.c:818:21
	strb.w	r0, [r4, #92]
	.loc	12 823 17                       @ ../GUILib/src/widgets/lv_textarea.c:823:17
	mov	r0, r4
	.loc	12 813 27                       @ ../GUILib/src/widgets/lv_textarea.c:813:27
	str	r3, [r4, #64]
	.loc	12 815 27                       @ ../GUILib/src/widgets/lv_textarea.c:815:27
	strh	r2, [r4, #60]
	.loc	12 820 21                       @ ../GUILib/src/widgets/lv_textarea.c:820:21
	strd	r2, r2, [r4, #36]
	.loc	12 807 27                       @ ../GUILib/src/widgets/lv_textarea.c:807:27
	strd	r2, r2, [r4, #44]
	.loc	12 810 27                       @ ../GUILib/src/widgets/lv_textarea.c:810:27
	str	r2, [r4, #52]
	.loc	12 823 17                       @ ../GUILib/src/widgets/lv_textarea.c:823:17
	bl	lv_label_create
.Ltmp3:
	.loc	12 824 5                        @ ../GUILib/src/widgets/lv_textarea.c:824:5
	movw	r1, #8292
	.loc	12 823 15                       @ ../GUILib/src/widgets/lv_textarea.c:823:15
	str	r0, [r4, #36]
	.loc	12 824 5                        @ ../GUILib/src/widgets/lv_textarea.c:824:5
	bl	lv_obj_set_width
.Ltmp4:
	.loc	12 825 27                       @ ../GUILib/src/widgets/lv_textarea.c:825:27
	ldr	r0, [r4, #36]
	.loc	12 825 5 is_stmt 0              @ ../GUILib/src/widgets/lv_textarea.c:825:5
	movw	r1, :lower16:.L.str
	movt	r1, :upper16:.L.str
	bl	lv_label_set_text
.Ltmp5:
	.loc	12 826 29 is_stmt 1             @ ../GUILib/src/widgets/lv_textarea.c:826:29
	ldr	r0, [r4, #36]
	.loc	12 826 5 is_stmt 0              @ ../GUILib/src/widgets/lv_textarea.c:826:5
	movw	r1, :lower16:label_event_cb
	movt	r1, :upper16:label_event_cb
	movs	r2, #0
	movs	r3, #0
	bl	lv_obj_add_event_cb
.Ltmp6:
	.loc	12 827 5 is_stmt 1              @ ../GUILib/src/widgets/lv_textarea.c:827:5
	mov	r0, r4
	mov.w	r1, #512
	bl	lv_obj_add_flag
.Ltmp7:
	.loc	12 828 5                        @ ../GUILib/src/widgets/lv_textarea.c:828:5
	mov	r0, r4
	movs	r1, #0
	bl	lv_textarea_set_cursor_pos
.Ltmp8:
	.loc	12 830 5                        @ ../GUILib/src/widgets/lv_textarea.c:830:5
	mov	r0, r4
	pop.w	{r4, lr}
.Ltmp9:
	b	start_cursor_blink
.Ltmp10:
.Lfunc_end0:
	.size	lv_textarea_constructor, .Lfunc_end0-lv_textarea_constructor
	.cfi_endproc
	.cantunwind
	.fnend
                                        @ -- End function
	.section	.text.lv_textarea_destructor,"ax",%progbits
	.p2align	1                               @ -- Begin function lv_textarea_destructor
	.type	lv_textarea_destructor,%function
	.code	16                              @ @lv_textarea_destructor
	.thumb_func
lv_textarea_destructor:
.Lfunc_begin1:
	.loc	12 836 0                        @ ../GUILib/src/widgets/lv_textarea.c:836:0
	.fnstart
	.cfi_startproc
@ %bb.0:
	@DEBUG_VALUE: lv_textarea_destructor:class_p <- $r0
	@DEBUG_VALUE: lv_textarea_destructor:obj <- $r1
	.save	{r4, lr}
	push	{r4, lr}
	.cfi_def_cfa_offset 8
	.cfi_offset lr, -4
	.cfi_offset r4, -8
.Ltmp11:
	@DEBUG_VALUE: lv_textarea_destructor:ta <- $r1
	.loc	12 840 12 prologue_end          @ ../GUILib/src/widgets/lv_textarea.c:840:12
	ldr	r0, [r1, #44]
.Ltmp12:
	@DEBUG_VALUE: lv_textarea_destructor:class_p <- [DW_OP_LLVM_entry_value 1] $r0
	.loc	12 0 12 is_stmt 0               @ ../GUILib/src/widgets/lv_textarea.c:0:12
	mov	r4, r1
.Ltmp13:
	@DEBUG_VALUE: lv_textarea_destructor:obj <- $r4
	@DEBUG_VALUE: lv_textarea_destructor:ta <- $r4
	@DEBUG_VALUE: lv_textarea_destructor:obj <- $r4
	.loc	12 840 8                        @ ../GUILib/src/widgets/lv_textarea.c:840:8
	cbz	r0, .LBB1_2
.Ltmp14:
@ %bb.1:
	@DEBUG_VALUE: lv_textarea_destructor:ta <- $r4
	@DEBUG_VALUE: lv_textarea_destructor:obj <- $r4
	@DEBUG_VALUE: lv_textarea_destructor:class_p <- [DW_OP_LLVM_entry_value 1] $r0
	.loc	12 841 9 is_stmt 1              @ ../GUILib/src/widgets/lv_textarea.c:841:9
	bl	lv_mem_free
.Ltmp15:
	.loc	12 0 9 is_stmt 0                @ ../GUILib/src/widgets/lv_textarea.c:0:9
	movs	r0, #0
	.loc	12 842 21 is_stmt 1             @ ../GUILib/src/widgets/lv_textarea.c:842:21
	str	r0, [r4, #44]
.Ltmp16:
.LBB1_2:
	@DEBUG_VALUE: lv_textarea_destructor:ta <- $r4
	@DEBUG_VALUE: lv_textarea_destructor:obj <- $r4
	@DEBUG_VALUE: lv_textarea_destructor:class_p <- [DW_OP_LLVM_entry_value 1] $r0
	.loc	12 844 12                       @ ../GUILib/src/widgets/lv_textarea.c:844:12
	ldr	r0, [r4, #40]
.Ltmp17:
	.loc	12 844 8 is_stmt 0              @ ../GUILib/src/widgets/lv_textarea.c:844:8
	cbz	r0, .LBB1_4
.Ltmp18:
@ %bb.3:
	@DEBUG_VALUE: lv_textarea_destructor:ta <- $r4
	@DEBUG_VALUE: lv_textarea_destructor:obj <- $r4
	@DEBUG_VALUE: lv_textarea_destructor:class_p <- [DW_OP_LLVM_entry_value 1] $r0
	.loc	12 845 9 is_stmt 1              @ ../GUILib/src/widgets/lv_textarea.c:845:9
	bl	lv_mem_free
.Ltmp19:
	.loc	12 0 9 is_stmt 0                @ ../GUILib/src/widgets/lv_textarea.c:0:9
	movs	r0, #0
	.loc	12 846 29 is_stmt 1             @ ../GUILib/src/widgets/lv_textarea.c:846:29
	str	r0, [r4, #40]
.Ltmp20:
.LBB1_4:
	@DEBUG_VALUE: lv_textarea_destructor:ta <- $r4
	@DEBUG_VALUE: lv_textarea_destructor:obj <- $r4
	@DEBUG_VALUE: lv_textarea_destructor:class_p <- [DW_OP_LLVM_entry_value 1] $r0
	.loc	12 848 1                        @ ../GUILib/src/widgets/lv_textarea.c:848:1
	pop	{r4, pc}
.Ltmp21:
.Lfunc_end1:
	.size	lv_textarea_destructor, .Lfunc_end1-lv_textarea_destructor
	.cfi_endproc
	.cantunwind
	.fnend
                                        @ -- End function
	.section	.text.lv_textarea_event,"ax",%progbits
	.p2align	2                               @ -- Begin function lv_textarea_event
	.type	lv_textarea_event,%function
	.code	16                              @ @lv_textarea_event
	.thumb_func
lv_textarea_event:
.Lfunc_begin2:
	.loc	12 851 0                        @ ../GUILib/src/widgets/lv_textarea.c:851:0
	.fnstart
	.cfi_startproc
@ %bb.0:
	@DEBUG_VALUE: lv_textarea_event:class_p <- $r0
	@DEBUG_VALUE: lv_textarea_event:e <- $r1
	.save	{r4, r5, r6, r7, r8, r9, lr}
	push.w	{r4, r5, r6, r7, r8, r9, lr}
	.cfi_def_cfa_offset 28
	.cfi_offset lr, -4
	.cfi_offset r9, -8
	.cfi_offset r8, -12
	.cfi_offset r7, -16
	.cfi_offset r6, -20
	.cfi_offset r5, -24
	.cfi_offset r4, -28
	.pad	#108
	sub	sp, #108
	.cfi_def_cfa_offset 136
.Ltmp22:
	.loc	12 856 11 prologue_end          @ ../GUILib/src/widgets/lv_textarea.c:856:11
	movw	r0, :lower16:lv_textarea_class
.Ltmp23:
	@DEBUG_VALUE: lv_textarea_event:class_p <- [DW_OP_LLVM_entry_value 1] $r0
	movt	r0, :upper16:lv_textarea_class
	mov	r6, r1
.Ltmp24:
	@DEBUG_VALUE: lv_textarea_event:e <- $r6
	bl	lv_obj_event_base
.Ltmp25:
	@DEBUG_VALUE: lv_textarea_event:res <- $r0
	.loc	12 857 8                        @ ../GUILib/src/widgets/lv_textarea.c:857:8
	cmp	r0, #1
	bne.w	.LBB2_31
.Ltmp26:
@ %bb.1:
	@DEBUG_VALUE: lv_textarea_event:e <- $r6
	@DEBUG_VALUE: lv_textarea_event:res <- $r0
	@DEBUG_VALUE: lv_textarea_event:class_p <- [DW_OP_LLVM_entry_value 1] $r0
	.loc	12 859 28                       @ ../GUILib/src/widgets/lv_textarea.c:859:28
	mov	r0, r6
.Ltmp27:
	bl	lv_event_get_code
.Ltmp28:
	mov	r5, r0
.Ltmp29:
	@DEBUG_VALUE: lv_textarea_event:code <- undef
	.loc	12 860 22                       @ ../GUILib/src/widgets/lv_textarea.c:860:22
	mov	r0, r6
	bl	lv_event_get_target
.Ltmp30:
	.loc	12 862 8                        @ ../GUILib/src/widgets/lv_textarea.c:862:8
	subs	r1, r5, #1
	cmp	r1, #13
.Ltmp31:
	@DEBUG_VALUE: lv_textarea_event:obj <- $r0
	bhi	.LBB2_13
.Ltmp32:
@ %bb.2:
	@DEBUG_VALUE: lv_textarea_event:e <- $r6
	@DEBUG_VALUE: lv_textarea_event:obj <- $r0
	@DEBUG_VALUE: lv_textarea_event:class_p <- [DW_OP_LLVM_entry_value 1] $r0
	.loc	12 0 8 is_stmt 0                @ ../GUILib/src/widgets/lv_textarea.c:0:8
	mov	r4, r0
.Ltmp33:
	@DEBUG_VALUE: lv_textarea_event:obj <- $r4
	@DEBUG_VALUE: lv_textarea_event:obj <- $r4
.LCPI2_0:
	tbh	[pc, r1, lsl #1]
.Ltmp34:
@ %bb.3:
.LJTI2_0:
	.short	(.LBB2_4-(.LCPI2_0+4))/2
	.short	(.LBB2_4-(.LCPI2_0+4))/2
	.short	(.LBB2_4-(.LCPI2_0+4))/2
	.short	(.LBB2_31-(.LCPI2_0+4))/2
	.short	(.LBB2_31-(.LCPI2_0+4))/2
	.short	(.LBB2_31-(.LCPI2_0+4))/2
	.short	(.LBB2_31-(.LCPI2_0+4))/2
	.short	(.LBB2_4-(.LCPI2_0+4))/2
	.short	(.LBB2_31-(.LCPI2_0+4))/2
	.short	(.LBB2_31-(.LCPI2_0+4))/2
	.short	(.LBB2_31-(.LCPI2_0+4))/2
	.short	(.LBB2_31-(.LCPI2_0+4))/2
	.short	(.LBB2_19-(.LCPI2_0+4))/2
	.short	(.LBB2_23-(.LCPI2_0+4))/2
	.p2align	1
.LBB2_4:
.Ltmp35:
	@DEBUG_VALUE: lv_textarea_event:e <- $r6
	@DEBUG_VALUE: lv_textarea_event:obj <- $r4
	@DEBUG_VALUE: lv_textarea_event:class_p <- [DW_OP_LLVM_entry_value 1] $r0
	@DEBUG_VALUE: update_cursor_position_on_click:e <- $r6
	.loc	12 1139 33 is_stmt 1            @ ../GUILib/src/widgets/lv_textarea.c:1139:33
	bl	lv_indev_get_act
.Ltmp36:
	@DEBUG_VALUE: update_cursor_position_on_click:click_source <- $r0
	.loc	12 1140 8                       @ ../GUILib/src/widgets/lv_textarea.c:1140:8
	cmp	r0, #0
	beq.w	.LBB2_31
.Ltmp37:
@ %bb.5:
	@DEBUG_VALUE: update_cursor_position_on_click:e <- $r6
	@DEBUG_VALUE: lv_textarea_event:e <- $r6
	@DEBUG_VALUE: lv_textarea_event:obj <- $r4
	@DEBUG_VALUE: update_cursor_position_on_click:click_source <- $r0
	@DEBUG_VALUE: lv_textarea_event:class_p <- [DW_OP_LLVM_entry_value 1] $r0
	.loc	12 0 0 is_stmt 0                @ ../GUILib/src/widgets/lv_textarea.c:0:0
	mov	r7, r0
.Ltmp38:
	@DEBUG_VALUE: update_cursor_position_on_click:click_source <- $r7
	@DEBUG_VALUE: update_cursor_position_on_click:click_source <- $r7
	.loc	12 1142 28 is_stmt 1            @ ../GUILib/src/widgets/lv_textarea.c:1142:28
	mov	r0, r6
	bl	lv_event_get_code
.Ltmp39:
	mov	r5, r0
.Ltmp40:
	@DEBUG_VALUE: update_cursor_position_on_click:code <- undef
	.loc	12 1143 22                      @ ../GUILib/src/widgets/lv_textarea.c:1143:22
	mov	r0, r6
	bl	lv_event_get_target
.Ltmp41:
	mov	r4, r0
.Ltmp42:
	@DEBUG_VALUE: update_cursor_position_on_click:ta <- $r4
	@DEBUG_VALUE: update_cursor_position_on_click:obj <- $r4
	.loc	12 1145 19                      @ ../GUILib/src/widgets/lv_textarea.c:1145:19
	ldrb.w	r0, [r0, #80]
.Ltmp43:
	.loc	12 1145 8 is_stmt 0             @ ../GUILib/src/widgets/lv_textarea.c:1145:8
	lsls	r0, r0, #30
	bpl.w	.LBB2_31
.Ltmp44:
@ %bb.6:
	@DEBUG_VALUE: update_cursor_position_on_click:click_source <- $r7
	@DEBUG_VALUE: update_cursor_position_on_click:e <- $r6
	@DEBUG_VALUE: lv_textarea_event:e <- $r6
	@DEBUG_VALUE: update_cursor_position_on_click:obj <- $r4
	@DEBUG_VALUE: update_cursor_position_on_click:ta <- $r4
	@DEBUG_VALUE: lv_textarea_event:class_p <- [DW_OP_LLVM_entry_value 1] $r0
	.loc	12 1147 8 is_stmt 1             @ ../GUILib/src/widgets/lv_textarea.c:1147:8
	mov	r0, r7
	bl	lv_indev_get_type
.Ltmp45:
	.loc	12 1147 64 is_stmt 0            @ ../GUILib/src/widgets/lv_textarea.c:1147:64
	cmp	r0, #2
	beq.w	.LBB2_31
.Ltmp46:
@ %bb.7:
	@DEBUG_VALUE: update_cursor_position_on_click:click_source <- $r7
	@DEBUG_VALUE: update_cursor_position_on_click:e <- $r6
	@DEBUG_VALUE: lv_textarea_event:e <- $r6
	@DEBUG_VALUE: update_cursor_position_on_click:obj <- $r4
	@DEBUG_VALUE: update_cursor_position_on_click:ta <- $r4
	@DEBUG_VALUE: lv_textarea_event:class_p <- [DW_OP_LLVM_entry_value 1] $r0
	.loc	12 1148 8 is_stmt 1             @ ../GUILib/src/widgets/lv_textarea.c:1148:8
	mov	r0, r7
	bl	lv_indev_get_type
.Ltmp47:
	.loc	12 1147 8                       @ ../GUILib/src/widgets/lv_textarea.c:1147:8
	cmp	r0, #4
	beq.w	.LBB2_31
.Ltmp48:
@ %bb.8:
	@DEBUG_VALUE: update_cursor_position_on_click:click_source <- $r7
	@DEBUG_VALUE: update_cursor_position_on_click:e <- $r6
	@DEBUG_VALUE: lv_textarea_event:e <- $r6
	@DEBUG_VALUE: update_cursor_position_on_click:obj <- $r4
	@DEBUG_VALUE: update_cursor_position_on_click:ta <- $r4
	@DEBUG_VALUE: lv_textarea_event:class_p <- [DW_OP_LLVM_entry_value 1] $r0
	.loc	12 1153 27                      @ ../GUILib/src/widgets/lv_textarea.c:1153:27
	ldr	r0, [r4, #36]
	add	r1, sp, #56
	.loc	12 1153 5 is_stmt 0             @ ../GUILib/src/widgets/lv_textarea.c:1153:5
	bl	lv_obj_get_coords
.Ltmp49:
	.loc	12 0 5                          @ ../GUILib/src/widgets/lv_textarea.c:0:5
	add	r1, sp, #8
	.loc	12 1156 5 is_stmt 1             @ ../GUILib/src/widgets/lv_textarea.c:1156:5
	mov	r0, r7
	bl	lv_indev_get_point
.Ltmp50:
	.loc	12 0 5 is_stmt 0                @ ../GUILib/src/widgets/lv_textarea.c:0:5
	add	r1, sp, #48
	.loc	12 1157 5 is_stmt 1             @ ../GUILib/src/widgets/lv_textarea.c:1157:5
	mov	r0, r7
	bl	lv_indev_get_vect
.Ltmp51:
	.loc	12 1159 18                      @ ../GUILib/src/widgets/lv_textarea.c:1159:18
	ldrsh.w	r0, [sp, #8]
	.loc	12 1159 24 is_stmt 0            @ ../GUILib/src/widgets/lv_textarea.c:1159:24
	cmp	r0, #0
	bmi.w	.LBB2_31
.Ltmp52:
@ %bb.9:
	@DEBUG_VALUE: update_cursor_position_on_click:click_source <- $r7
	@DEBUG_VALUE: update_cursor_position_on_click:e <- $r6
	@DEBUG_VALUE: lv_textarea_event:e <- $r6
	@DEBUG_VALUE: update_cursor_position_on_click:obj <- $r4
	@DEBUG_VALUE: update_cursor_position_on_click:ta <- $r4
	@DEBUG_VALUE: lv_textarea_event:class_p <- [DW_OP_LLVM_entry_value 1] $r0
	.loc	12 1159 37                      @ ../GUILib/src/widgets/lv_textarea.c:1159:37
	ldrsh.w	r1, [sp, #10]
.Ltmp53:
	.loc	12 1159 8                       @ ../GUILib/src/widgets/lv_textarea.c:1159:8
	cmp	r1, #0
	bmi.w	.LBB2_31
.Ltmp54:
@ %bb.10:
	@DEBUG_VALUE: update_cursor_position_on_click:click_source <- $r7
	@DEBUG_VALUE: update_cursor_position_on_click:e <- $r6
	@DEBUG_VALUE: lv_textarea_event:e <- $r6
	@DEBUG_VALUE: update_cursor_position_on_click:obj <- $r4
	@DEBUG_VALUE: update_cursor_position_on_click:ta <- $r4
	@DEBUG_VALUE: lv_textarea_event:class_p <- [DW_OP_LLVM_entry_value 1] $r0
	.loc	12 1161 44 is_stmt 1            @ ../GUILib/src/widgets/lv_textarea.c:1161:44
	ldrh.w	r2, [sp, #56]
	.loc	12 1161 29 is_stmt 0            @ ../GUILib/src/widgets/lv_textarea.c:1161:29
	subs	r0, r0, r2
	.loc	12 1162 44 is_stmt 1            @ ../GUILib/src/widgets/lv_textarea.c:1162:44
	ldrh.w	r2, [sp, #58]
	.loc	12 1161 15                      @ ../GUILib/src/widgets/lv_textarea.c:1161:15
	strh.w	r0, [sp, #40]
	.loc	12 1161 29 is_stmt 0            @ ../GUILib/src/widgets/lv_textarea.c:1161:29
	sxth	r6, r0
.Ltmp55:
	@DEBUG_VALUE: lv_textarea_event:e <- [DW_OP_LLVM_entry_value 1] $r1
	.loc	12 1164 51 is_stmt 1            @ ../GUILib/src/widgets/lv_textarea.c:1164:51
	ldr	r0, [r4, #36]
	.loc	12 1162 29                      @ ../GUILib/src/widgets/lv_textarea.c:1162:29
	subs	r1, r1, r2
	.loc	12 1162 15 is_stmt 0            @ ../GUILib/src/widgets/lv_textarea.c:1162:15
	strh.w	r1, [sp, #42]
	.loc	12 1164 30 is_stmt 1            @ ../GUILib/src/widgets/lv_textarea.c:1164:30
	bl	lv_obj_get_width
.Ltmp56:
	.loc	12 1169 49                      @ ../GUILib/src/widgets/lv_textarea.c:1169:49
	ldr.w	r8, [r4, #36]
.Ltmp57:
	@DEBUG_VALUE: update_cursor_position_on_click:label_data <- $r8
	.loc	12 1172 8                       @ ../GUILib/src/widgets/lv_textarea.c:1172:8
	cmp	r6, #0
.Ltmp58:
	@DEBUG_VALUE: update_cursor_position_on_click:label_width <- undef
	bmi.w	.LBB2_46
.Ltmp59:
@ %bb.11:
	@DEBUG_VALUE: update_cursor_position_on_click:label_data <- $r8
	@DEBUG_VALUE: update_cursor_position_on_click:click_source <- $r7
	@DEBUG_VALUE: update_cursor_position_on_click:obj <- $r4
	@DEBUG_VALUE: update_cursor_position_on_click:ta <- $r4
	@DEBUG_VALUE: lv_textarea_event:e <- [DW_OP_LLVM_entry_value 1] $r1
	@DEBUG_VALUE: lv_textarea_event:class_p <- [DW_OP_LLVM_entry_value 1] $r0
	.loc	12 1177 13                      @ ../GUILib/src/widgets/lv_textarea.c:1177:13
	cmp	r6, r0
	bge.w	.LBB2_47
.Ltmp60:
@ %bb.12:
	@DEBUG_VALUE: update_cursor_position_on_click:label_data <- $r8
	@DEBUG_VALUE: update_cursor_position_on_click:click_source <- $r7
	@DEBUG_VALUE: update_cursor_position_on_click:obj <- $r4
	@DEBUG_VALUE: update_cursor_position_on_click:ta <- $r4
	@DEBUG_VALUE: lv_textarea_event:e <- [DW_OP_LLVM_entry_value 1] $r1
	@DEBUG_VALUE: lv_textarea_event:class_p <- [DW_OP_LLVM_entry_value 1] $r0
	.loc	12 0 13 is_stmt 0               @ ../GUILib/src/widgets/lv_textarea.c:0:13
	add	r7, sp, #40
.Ltmp61:
	.loc	12 1182 28 is_stmt 1            @ ../GUILib/src/widgets/lv_textarea.c:1182:28
	mov	r0, r8
	mov	r1, r7
	bl	lv_label_get_letter_on
.Ltmp62:
	.loc	12 1183 69                      @ ../GUILib/src/widgets/lv_textarea.c:1183:69
	ldr	r1, [r4, #36]
	.loc	12 1182 28                      @ ../GUILib/src/widgets/lv_textarea.c:1182:28
	mov	r6, r0
.Ltmp63:
	@DEBUG_VALUE: update_cursor_position_on_click:char_id_at_click <- [DW_OP_LLVM_convert 32 7, DW_OP_LLVM_convert 16 7, DW_OP_stack_value] $r6
	.loc	12 1183 38                      @ ../GUILib/src/widgets/lv_textarea.c:1183:38
	mov	r0, r1
	mov	r1, r7
	bl	lv_label_is_char_under_pos
.Ltmp64:
	@DEBUG_VALUE: update_cursor_position_on_click:click_outside_label <- [DW_OP_constu 18446744073709551615, DW_OP_xor, DW_OP_LLVM_convert 1 7, DW_OP_LLVM_convert 8 7, DW_OP_stack_value] undef
	.loc	12 0 38 is_stmt 0               @ ../GUILib/src/widgets/lv_textarea.c:0:38
	uxth	r7, r6
	b	.LBB2_48
.Ltmp65:
.LBB2_13:
	@DEBUG_VALUE: lv_textarea_event:e <- $r6
	@DEBUG_VALUE: lv_textarea_event:obj <- $r0
	@DEBUG_VALUE: lv_textarea_event:class_p <- [DW_OP_LLVM_entry_value 1] $r0
	.loc	12 862 8 is_stmt 1              @ ../GUILib/src/widgets/lv_textarea.c:862:8
	cmp	r5, #21
	beq.w	.LBB2_24
.Ltmp66:
@ %bb.14:
	@DEBUG_VALUE: lv_textarea_event:e <- $r6
	@DEBUG_VALUE: lv_textarea_event:obj <- $r0
	@DEBUG_VALUE: lv_textarea_event:class_p <- [DW_OP_LLVM_entry_value 1] $r0
	cmp	r5, #24
	bne.w	.LBB2_31
.Ltmp67:
@ %bb.15:
	@DEBUG_VALUE: lv_textarea_event:e <- $r6
	@DEBUG_VALUE: lv_textarea_event:obj <- $r0
	@DEBUG_VALUE: lv_textarea_event:class_p <- [DW_OP_LLVM_entry_value 1] $r0
	@DEBUG_VALUE: draw_cursor:e <- $r6
	.loc	12 1297 22                      @ ../GUILib/src/widgets/lv_textarea.c:1297:22
	mov	r0, r6
.Ltmp68:
	bl	lv_event_get_target
.Ltmp69:
	mov	r5, r0
.Ltmp70:
	@DEBUG_VALUE: draw_cursor:ta <- $r5
	@DEBUG_VALUE: draw_cursor:obj <- $r5
	.loc	12 1299 35                      @ ../GUILib/src/widgets/lv_textarea.c:1299:35
	mov	r0, r6
	bl	lv_event_get_param
.Ltmp71:
	.loc	12 1300 46                      @ ../GUILib/src/widgets/lv_textarea.c:1300:46
	ldr	r1, [r5, #36]
	.loc	12 1299 35                      @ ../GUILib/src/widgets/lv_textarea.c:1299:35
	mov	r9, r0
.Ltmp72:
	@DEBUG_VALUE: draw_cursor:clip_area <- $r9
	.loc	12 1300 24                      @ ../GUILib/src/widgets/lv_textarea.c:1300:24
	mov	r0, r1
	bl	lv_label_get_text
.Ltmp73:
	.loc	12 1302 19                      @ ../GUILib/src/widgets/lv_textarea.c:1302:19
	ldrb.w	r1, [r5, #80]
.Ltmp74:
	.loc	12 1302 8 is_stmt 0             @ ../GUILib/src/widgets/lv_textarea.c:1302:8
	lsls	r1, r1, #31
.Ltmp75:
	@DEBUG_VALUE: draw_cursor:txt <- $r0
	.loc	12 0 8                          @ ../GUILib/src/widgets/lv_textarea.c:0:8
	beq.w	.LBB2_31
.Ltmp76:
@ %bb.16:
	@DEBUG_VALUE: draw_cursor:clip_area <- $r9
	@DEBUG_VALUE: draw_cursor:e <- $r6
	@DEBUG_VALUE: lv_textarea_event:e <- $r6
	@DEBUG_VALUE: draw_cursor:obj <- $r5
	@DEBUG_VALUE: draw_cursor:ta <- $r5
	@DEBUG_VALUE: draw_cursor:txt <- $r0
	@DEBUG_VALUE: lv_textarea_event:class_p <- [DW_OP_LLVM_entry_value 1] $r0
	add	r7, sp, #56
	mov	r6, r0
.Ltmp77:
	@DEBUG_VALUE: draw_cursor:txt <- $r6
	@DEBUG_VALUE: lv_textarea_event:e <- [DW_OP_LLVM_entry_value 1] $r1
	@DEBUG_VALUE: draw_cursor:txt <- $r6
	.loc	12 1305 5 is_stmt 1             @ ../GUILib/src/widgets/lv_textarea.c:1305:5
	mov	r0, r7
	bl	lv_draw_rect_dsc_init
.Ltmp78:
	.loc	12 1306 5                       @ ../GUILib/src/widgets/lv_textarea.c:1306:5
	mov	r0, r5
	mov.w	r1, #458752
	mov	r2, r7
	bl	lv_obj_init_draw_rect_dsc
.Ltmp79:
	@DEBUG_VALUE: lv_area_copy:dest <- [DW_OP_plus_uconst 48, DW_OP_stack_value] $sp
	.loc	12 1313 24                      @ ../GUILib/src/widgets/lv_textarea.c:1313:24
	ldr	r1, [r5, #36]
.Ltmp80:
	.loc	6 112 21                        @ ../GUILib/src/hal/../misc/lv_area.h:112:21
	ldrh.w	r0, [r5, #68]
.Ltmp81:
	.loc	12 1313 38                      @ ../GUILib/src/widgets/lv_textarea.c:1313:38
	ldrh	r3, [r1, #20]
.Ltmp82:
	.loc	6 113 21                        @ ../GUILib/src/hal/../misc/lv_area.h:113:21
	ldrh.w	r2, [r5, #70]
.Ltmp83:
	@DEBUG_VALUE: lv_area_copy:dest <- [DW_OP_plus_uconst 48, DW_OP_stack_value] $sp
	.loc	12 1313 17                      @ ../GUILib/src/widgets/lv_textarea.c:1313:17
	add	r0, r3
	strh.w	r0, [sp, #48]
	.loc	12 1314 38                      @ ../GUILib/src/widgets/lv_textarea.c:1314:38
	ldrh	r0, [r1, #22]
.Ltmp84:
	.loc	6 114 21                        @ ../GUILib/src/hal/../misc/lv_area.h:114:21
	ldrh.w	r4, [r5, #72]
	@DEBUG_VALUE: lv_area_copy:dest <- [DW_OP_plus_uconst 48, DW_OP_stack_value] $sp
	.loc	6 115 21                        @ ../GUILib/src/hal/../misc/lv_area.h:115:21
	ldrh.w	r1, [r5, #74]
.Ltmp85:
	@DEBUG_VALUE: lv_area_copy:dest <- [DW_OP_plus_uconst 48, DW_OP_stack_value] $sp
	.loc	12 1314 17                      @ ../GUILib/src/widgets/lv_textarea.c:1314:17
	add	r2, r0
	strh.w	r2, [sp, #50]
	.loc	12 1315 17                      @ ../GUILib/src/widgets/lv_textarea.c:1315:17
	adds	r2, r3, r4
	.loc	12 1316 17                      @ ../GUILib/src/widgets/lv_textarea.c:1316:17
	add	r0, r1
	.loc	12 1315 17                      @ ../GUILib/src/widgets/lv_textarea.c:1315:17
	strh.w	r2, [sp, #52]
	.loc	12 1316 17                      @ ../GUILib/src/widgets/lv_textarea.c:1316:17
	strh.w	r0, [sp, #54]
	add	r0, sp, #48
	.loc	12 1318 5                       @ ../GUILib/src/widgets/lv_textarea.c:1318:5
	mov	r1, r9
	mov	r2, r7
	bl	lv_draw_rect
.Ltmp86:
	@DEBUG_VALUE: lv_obj_get_style_border_width:part <- 458752
	@DEBUG_VALUE: lv_obj_get_style_border_width:obj <- $r5
	.file	21 "C:\\Users\\Hyacincher\\Desktop\\HyTelectrl\\Code\\Project" "../GUILib/src/widgets/../core/lv_obj_style_gen.h"
	.loc	21 297 26                       @ ../GUILib/src/widgets/../core/lv_obj_style_gen.h:297:26
	mov	r0, r5
	mov.w	r1, #458752
	movw	r2, #4146
	bl	lv_obj_get_style_prop
.Ltmp87:
	mov	r7, r0
.Ltmp88:
	@DEBUG_VALUE: lv_obj_get_style_pad_left:part <- 458752
	@DEBUG_VALUE: lv_obj_get_style_pad_left:obj <- $r5
	@DEBUG_VALUE: draw_cursor:border_width <- $r7
	@DEBUG_VALUE: lv_obj_get_style_border_width:v <- $r7
	.loc	21 105 26                       @ ../GUILib/src/widgets/../core/lv_obj_style_gen.h:105:26
	mov	r0, r5
	mov.w	r1, #458752
	movw	r2, #6162
	bl	lv_obj_get_style_prop
.Ltmp89:
	@DEBUG_VALUE: lv_obj_get_style_pad_left:v <- $r0
	.loc	12 1321 70                      @ ../GUILib/src/widgets/lv_textarea.c:1321:70
	adds	r4, r0, r7
.Ltmp90:
	@DEBUG_VALUE: lv_obj_get_style_pad_top:part <- 458752
	@DEBUG_VALUE: lv_obj_get_style_pad_top:obj <- $r5
	@DEBUG_VALUE: draw_cursor:left <- $r4
	.loc	21 93 26                        @ ../GUILib/src/widgets/../core/lv_obj_style_gen.h:93:26
	mov	r0, r5
	mov.w	r1, #458752
	movw	r2, #6160
	bl	lv_obj_get_style_prop
.Ltmp91:
	@DEBUG_VALUE: lv_obj_get_style_pad_top:v <- $r0
	.loc	12 1322 68                      @ ../GUILib/src/widgets/lv_textarea.c:1322:68
	add	r7, r0
.Ltmp92:
	@DEBUG_VALUE: draw_cursor:top <- $r7
	.loc	12 1324 43                      @ ../GUILib/src/widgets/lv_textarea.c:1324:43
	ldr	r0, [r5, #76]
	mov.w	r8, #0
.Ltmp93:
	@DEBUG_VALUE: draw_cursor:letter_buf <- 0
	.loc	12 1324 28 is_stmt 0            @ ../GUILib/src/widgets/lv_textarea.c:1324:28
	add	r6, r0
.Ltmp94:
	.loc	12 1324 58                      @ ../GUILib/src/widgets/lv_textarea.c:1324:58
	movw	r0, :lower16:_lv_txt_encoded_size
	movt	r0, :upper16:_lv_txt_encoded_size
	ldr	r1, [r0]
	mov	r0, r6
	.loc	12 1323 10 is_stmt 1            @ ../GUILib/src/widgets/lv_textarea.c:1323:10
	str.w	r8, [sp, #44]
	str.w	r8, [sp, #40]
	.loc	12 1324 58                      @ ../GUILib/src/widgets/lv_textarea.c:1324:58
	blx	r1
.Ltmp95:
	mov	r2, r0
.Ltmp96:
	@DEBUG_VALUE: draw_cursor:letter_buf <- [DW_OP_plus_uconst 40, DW_OP_deref] $sp
	.loc	12 0 58 is_stmt 0               @ ../GUILib/src/widgets/lv_textarea.c:0:58
	add	r0, sp, #40
	.loc	12 1324 5                       @ ../GUILib/src/widgets/lv_textarea.c:1324:5
	mov	r1, r6
	bl	lv_memcpy
.Ltmp97:
	.loc	12 1326 17 is_stmt 1            @ ../GUILib/src/widgets/lv_textarea.c:1326:17
	ldrh.w	r0, [sp, #48]
	.loc	12 1327 17                      @ ../GUILib/src/widgets/lv_textarea.c:1327:17
	ldrh.w	r1, [sp, #50]
	.loc	12 1326 17                      @ ../GUILib/src/widgets/lv_textarea.c:1326:17
	add	r0, r4
	strh.w	r0, [sp, #48]
	.loc	12 1327 17                      @ ../GUILib/src/widgets/lv_textarea.c:1327:17
	add	r1, r7
	.loc	12 1332 62                      @ ../GUILib/src/widgets/lv_textarea.c:1332:62
	ldr	r0, [r5, #36]
	.loc	12 1327 17                      @ ../GUILib/src/widgets/lv_textarea.c:1327:17
	strh.w	r1, [sp, #50]
.Ltmp98:
	@DEBUG_VALUE: lv_obj_get_style_text_color:part <- 0
	@DEBUG_VALUE: lv_obj_get_style_text_color:obj <- $r0
	.loc	21 315 26                       @ ../GUILib/src/widgets/../core/lv_obj_style_gen.h:315:26
	movs	r1, #0
	movw	r2, #1111
	bl	lv_obj_get_style_prop
.Ltmp99:
	.loc	21 0 26 is_stmt 0               @ ../GUILib/src/widgets/../core/lv_obj_style_gen.h:0:26
	add	r7, sp, #8
.Ltmp100:
	.loc	21 315 26                       @ ../GUILib/src/widgets/../core/lv_obj_style_gen.h:315:26
	mov	r6, r0
.Ltmp101:
	@DEBUG_VALUE: draw_cursor:label_color <- [DW_OP_LLVM_convert 32 7, DW_OP_LLVM_convert 16 7, DW_OP_stack_value] $r6
	@DEBUG_VALUE: lv_obj_get_style_text_color:v <- $r6
	.loc	12 1334 5 is_stmt 1             @ ../GUILib/src/widgets/lv_textarea.c:1334:5
	mov	r0, r7
	bl	lv_draw_label_dsc_init
.Ltmp102:
	.loc	12 1335 5                       @ ../GUILib/src/widgets/lv_textarea.c:1335:5
	mov	r0, r5
	mov.w	r1, #458752
	mov	r2, r7
	bl	lv_obj_init_draw_label_dsc
.Ltmp103:
	.loc	12 1336 16                      @ ../GUILib/src/widgets/lv_textarea.c:1336:16
	ldrb.w	r0, [sp, #66]
	.loc	12 1336 36 is_stmt 0            @ ../GUILib/src/widgets/lv_textarea.c:1336:36
	cmp	r0, #2
	@DEBUG_VALUE: lv_area_copy:src <- [DW_OP_plus_uconst 60, DW_OP_plus_uconst 8, DW_OP_stack_value] undef
	bhi	.LBB2_18
.Ltmp104:
@ %bb.17:
	@DEBUG_VALUE: draw_cursor:clip_area <- $r9
	@DEBUG_VALUE: lv_obj_get_style_text_color:v <- $r6
	@DEBUG_VALUE: draw_cursor:label_color <- [DW_OP_LLVM_convert 32 7, DW_OP_LLVM_convert 16 7, DW_OP_stack_value] $r6
	@DEBUG_VALUE: draw_cursor:obj <- $r5
	@DEBUG_VALUE: draw_cursor:ta <- $r5
	@DEBUG_VALUE: draw_cursor:left <- $r4
	@DEBUG_VALUE: draw_cursor:letter_buf <- [DW_OP_plus_uconst 40, DW_OP_deref] $sp
	@DEBUG_VALUE: lv_obj_get_style_text_color:part <- 0
	@DEBUG_VALUE: lv_textarea_event:e <- [DW_OP_LLVM_entry_value 1] $r1
	@DEBUG_VALUE: lv_textarea_event:class_p <- [DW_OP_LLVM_entry_value 1] $r0
	@DEBUG_VALUE: draw_cursor:label_color <- $r6
	.loc	12 1336 59                      @ ../GUILib/src/widgets/lv_textarea.c:1336:59
	ldrh.w	r0, [sp, #20]
.Ltmp105:
	.loc	21 316 14 is_stmt 1             @ ../GUILib/src/widgets/../core/lv_obj_style_gen.h:316:14
	uxth	r1, r6
.Ltmp106:
	.loc	12 1336 8                       @ ../GUILib/src/widgets/lv_textarea.c:1336:8
	cmp	r0, r1
	beq.w	.LBB2_31
.Ltmp107:
.LBB2_18:
	@DEBUG_VALUE: draw_cursor:clip_area <- $r9
	@DEBUG_VALUE: draw_cursor:obj <- $r5
	@DEBUG_VALUE: draw_cursor:ta <- $r5
	@DEBUG_VALUE: draw_cursor:left <- $r4
	@DEBUG_VALUE: draw_cursor:letter_buf <- [DW_OP_plus_uconst 40, DW_OP_deref] $sp
	@DEBUG_VALUE: lv_textarea_event:e <- [DW_OP_LLVM_entry_value 1] $r1
	@DEBUG_VALUE: lv_textarea_event:class_p <- [DW_OP_LLVM_entry_value 1] $r0
	@DEBUG_VALUE: draw_cursor:letter_buf <- [DW_OP_plus_uconst 40, DW_OP_deref] $sp
	.loc	12 0 8 is_stmt 0                @ ../GUILib/src/widgets/lv_textarea.c:0:8
	add	r0, sp, #48
	add	r2, sp, #8
	add	r3, sp, #40
.Ltmp108:
	.loc	12 1337 9 is_stmt 1             @ ../GUILib/src/widgets/lv_textarea.c:1337:9
	mov	r1, r9
	b	.LBB2_30
.Ltmp109:
.LBB2_19:
	@DEBUG_VALUE: lv_textarea_event:e <- $r6
	@DEBUG_VALUE: lv_textarea_event:obj <- $r4
	@DEBUG_VALUE: lv_textarea_event:class_p <- [DW_OP_LLVM_entry_value 1] $r0
	.loc	12 866 36                       @ ../GUILib/src/widgets/lv_textarea.c:866:36
	mov	r0, r6
	bl	lv_event_get_param
.Ltmp110:
	.loc	12 866 22 is_stmt 0             @ ../GUILib/src/widgets/lv_textarea.c:866:22
	ldr	r1, [r0]
.Ltmp111:
	@DEBUG_VALUE: c <- $r1
	.loc	12 867 12 is_stmt 1             @ ../GUILib/src/widgets/lv_textarea.c:867:12
	subs	r0, r1, #2
	cmp	r0, #18
	bhi.w	.LBB2_32
.Ltmp112:
@ %bb.20:
	@DEBUG_VALUE: lv_textarea_event:e <- $r6
	@DEBUG_VALUE: lv_textarea_event:obj <- $r4
	@DEBUG_VALUE: c <- $r1
	@DEBUG_VALUE: lv_textarea_event:class_p <- [DW_OP_LLVM_entry_value 1] $r0
	.loc	12 0 12 is_stmt 0               @ ../GUILib/src/widgets/lv_textarea.c:0:12
.LCPI2_1:
	tbb	[pc, r0]
.Ltmp113:
@ %bb.21:
.LJTI2_1:
	.byte	(.LBB2_22-(.LCPI2_1+4))/2
	.byte	(.LBB2_34-(.LCPI2_1+4))/2
	.byte	(.LBB2_37-(.LCPI2_1+4))/2
	.byte	(.LBB2_37-(.LCPI2_1+4))/2
	.byte	(.LBB2_37-(.LCPI2_1+4))/2
	.byte	(.LBB2_37-(.LCPI2_1+4))/2
	.byte	(.LBB2_35-(.LCPI2_1+4))/2
	.byte	(.LBB2_37-(.LCPI2_1+4))/2
	.byte	(.LBB2_36-(.LCPI2_1+4))/2
	.byte	(.LBB2_37-(.LCPI2_1+4))/2
	.byte	(.LBB2_37-(.LCPI2_1+4))/2
	.byte	(.LBB2_37-(.LCPI2_1+4))/2
	.byte	(.LBB2_37-(.LCPI2_1+4))/2
	.byte	(.LBB2_37-(.LCPI2_1+4))/2
	.byte	(.LBB2_37-(.LCPI2_1+4))/2
	.byte	(.LBB2_38-(.LCPI2_1+4))/2
	.byte	(.LBB2_39-(.LCPI2_1+4))/2
	.byte	(.LBB2_40-(.LCPI2_1+4))/2
	.byte	(.LBB2_41-(.LCPI2_1+4))/2
	.p2align	1
.LBB2_22:
.Ltmp114:
	@DEBUG_VALUE: lv_textarea_event:e <- $r6
	@DEBUG_VALUE: lv_textarea_event:obj <- $r4
	@DEBUG_VALUE: c <- $r1
	@DEBUG_VALUE: lv_textarea_event:class_p <- [DW_OP_LLVM_entry_value 1] $r0
	.loc	12 880 13 is_stmt 1             @ ../GUILib/src/widgets/lv_textarea.c:880:13
	mov	r0, r4
	movs	r1, #0
.Ltmp115:
	.loc	12 0 13 is_stmt 0               @ ../GUILib/src/widgets/lv_textarea.c:0:13
	b	.LBB2_44
.Ltmp116:
.LBB2_23:
	@DEBUG_VALUE: lv_textarea_event:e <- $r6
	@DEBUG_VALUE: lv_textarea_event:obj <- $r4
	@DEBUG_VALUE: lv_textarea_event:class_p <- [DW_OP_LLVM_entry_value 1] $r0
	.loc	12 863 9 is_stmt 1              @ ../GUILib/src/widgets/lv_textarea.c:863:9
	mov	r0, r4
	add	sp, #108
	pop.w	{r4, r5, r6, r7, r8, r9, lr}
.Ltmp117:
	@DEBUG_VALUE: lv_textarea_event:e <- [DW_OP_LLVM_entry_value 1] $r1
	b	start_cursor_blink
.Ltmp118:
.LBB2_24:
	@DEBUG_VALUE: lv_textarea_event:e <- $r6
	@DEBUG_VALUE: lv_textarea_event:obj <- $r0
	@DEBUG_VALUE: lv_textarea_event:class_p <- [DW_OP_LLVM_entry_value 1] $r0
	@DEBUG_VALUE: draw_placeholder:e <- $r6
	.loc	12 1272 22                      @ ../GUILib/src/widgets/lv_textarea.c:1272:22
	mov	r0, r6
.Ltmp119:
	bl	lv_event_get_target
.Ltmp120:
	mov	r4, r0
.Ltmp121:
	@DEBUG_VALUE: draw_placeholder:ta <- $r4
	@DEBUG_VALUE: draw_placeholder:obj <- $r4
	.loc	12 1274 35                      @ ../GUILib/src/widgets/lv_textarea.c:1274:35
	mov	r0, r6
	bl	lv_event_get_param
.Ltmp122:
	.loc	12 1275 46                      @ ../GUILib/src/widgets/lv_textarea.c:1275:46
	ldr	r1, [r4, #36]
	.loc	12 1274 35                      @ ../GUILib/src/widgets/lv_textarea.c:1274:35
	mov	r5, r0
.Ltmp123:
	@DEBUG_VALUE: draw_placeholder:clip_area <- $r5
	.loc	12 1275 24                      @ ../GUILib/src/widgets/lv_textarea.c:1275:24
	mov	r0, r1
	bl	lv_label_get_text
.Ltmp124:
	@DEBUG_VALUE: draw_placeholder:txt <- $r0
	.loc	12 1278 8                       @ ../GUILib/src/widgets/lv_textarea.c:1278:8
	ldrb	r0, [r0]
.Ltmp125:
	.loc	12 1278 23 is_stmt 0            @ ../GUILib/src/widgets/lv_textarea.c:1278:23
	cmp	r0, #0
	bne	.LBB2_31
.Ltmp126:
@ %bb.25:
	@DEBUG_VALUE: draw_placeholder:e <- $r6
	@DEBUG_VALUE: lv_textarea_event:e <- $r6
	@DEBUG_VALUE: draw_placeholder:clip_area <- $r5
	@DEBUG_VALUE: draw_placeholder:obj <- $r4
	@DEBUG_VALUE: draw_placeholder:ta <- $r4
	@DEBUG_VALUE: lv_textarea_event:class_p <- [DW_OP_LLVM_entry_value 1] $r0
	.loc	12 1278 30                      @ ../GUILib/src/widgets/lv_textarea.c:1278:30
	ldr	r0, [r4, #40]
	.loc	12 1278 46                      @ ../GUILib/src/widgets/lv_textarea.c:1278:46
	cmp	r0, #0
	beq	.LBB2_31
.Ltmp127:
@ %bb.26:
	@DEBUG_VALUE: draw_placeholder:e <- $r6
	@DEBUG_VALUE: lv_textarea_event:e <- $r6
	@DEBUG_VALUE: draw_placeholder:clip_area <- $r5
	@DEBUG_VALUE: draw_placeholder:obj <- $r4
	@DEBUG_VALUE: draw_placeholder:ta <- $r4
	@DEBUG_VALUE: lv_textarea_event:class_p <- [DW_OP_LLVM_entry_value 1] $r0
	.loc	12 1278 49                      @ ../GUILib/src/widgets/lv_textarea.c:1278:49
	ldrb	r0, [r0]
.Ltmp128:
	.loc	12 1278 8                       @ ../GUILib/src/widgets/lv_textarea.c:1278:8
	cbz	r0, .LBB2_31
.Ltmp129:
@ %bb.27:
	@DEBUG_VALUE: draw_placeholder:e <- $r6
	@DEBUG_VALUE: lv_textarea_event:e <- $r6
	@DEBUG_VALUE: draw_placeholder:clip_area <- $r5
	@DEBUG_VALUE: draw_placeholder:obj <- $r4
	@DEBUG_VALUE: draw_placeholder:ta <- $r4
	@DEBUG_VALUE: lv_textarea_event:class_p <- [DW_OP_LLVM_entry_value 1] $r0
	.loc	12 0 8                          @ ../GUILib/src/widgets/lv_textarea.c:0:8
	add	r6, sp, #56
.Ltmp130:
	@DEBUG_VALUE: lv_textarea_event:e <- [DW_OP_LLVM_entry_value 1] $r1
	.loc	12 1280 9 is_stmt 1             @ ../GUILib/src/widgets/lv_textarea.c:1280:9
	mov	r0, r6
	bl	lv_draw_label_dsc_init
.Ltmp131:
	.loc	12 1281 9                       @ ../GUILib/src/widgets/lv_textarea.c:1281:9
	mov	r0, r4
	mov.w	r1, #524288
	mov	r2, r6
	bl	lv_obj_init_draw_label_dsc
.Ltmp132:
	.loc	12 1283 16                      @ ../GUILib/src/widgets/lv_textarea.c:1283:16
	ldrb.w	r0, [r4, #92]
.Ltmp133:
	.loc	12 1283 12 is_stmt 0            @ ../GUILib/src/widgets/lv_textarea.c:1283:12
	lsls	r0, r0, #28
	bpl	.LBB2_29
.Ltmp134:
@ %bb.28:
	@DEBUG_VALUE: draw_placeholder:clip_area <- $r5
	@DEBUG_VALUE: draw_placeholder:obj <- $r4
	@DEBUG_VALUE: draw_placeholder:ta <- $r4
	@DEBUG_VALUE: lv_textarea_event:e <- [DW_OP_LLVM_entry_value 1] $r1
	@DEBUG_VALUE: lv_textarea_event:class_p <- [DW_OP_LLVM_entry_value 1] $r0
	.loc	12 1283 38                      @ ../GUILib/src/widgets/lv_textarea.c:1283:38
	ldrb.w	r0, [sp, #85]
	orr	r0, r0, #2
	strb.w	r0, [sp, #85]
.Ltmp135:
.LBB2_29:
	@DEBUG_VALUE: draw_placeholder:clip_area <- $r5
	@DEBUG_VALUE: draw_placeholder:obj <- $r4
	@DEBUG_VALUE: draw_placeholder:ta <- $r4
	@DEBUG_VALUE: lv_textarea_event:e <- [DW_OP_LLVM_entry_value 1] $r1
	@DEBUG_VALUE: lv_textarea_event:class_p <- [DW_OP_LLVM_entry_value 1] $r0
	@DEBUG_VALUE: lv_obj_get_style_pad_left:obj <- $r4
	@DEBUG_VALUE: lv_obj_get_style_pad_left:part <- 0
	.loc	21 105 26 is_stmt 1             @ ../GUILib/src/widgets/../core/lv_obj_style_gen.h:105:26
	mov	r0, r4
	movs	r1, #0
	movw	r2, #6162
	mov.w	r8, #0
	bl	lv_obj_get_style_prop
.Ltmp136:
	mov	r6, r0
.Ltmp137:
	@DEBUG_VALUE: lv_obj_get_style_pad_top:part <- 0
	@DEBUG_VALUE: lv_obj_get_style_pad_top:obj <- $r4
	@DEBUG_VALUE: left <- $r6
	@DEBUG_VALUE: lv_obj_get_style_pad_left:v <- $r6
	.loc	21 93 26                        @ ../GUILib/src/widgets/../core/lv_obj_style_gen.h:93:26
	mov	r0, r4
	movs	r1, #0
	movw	r2, #6160
	bl	lv_obj_get_style_prop
.Ltmp138:
	mov	r7, r0
.Ltmp139:
	@DEBUG_VALUE: lv_obj_get_style_border_width:part <- 0
	@DEBUG_VALUE: lv_obj_get_style_border_width:obj <- $r4
	@DEBUG_VALUE: top <- $r7
	@DEBUG_VALUE: lv_obj_get_style_pad_top:v <- $r7
	.loc	21 297 26                       @ ../GUILib/src/widgets/../core/lv_obj_style_gen.h:297:26
	mov	r0, r4
	movs	r1, #0
	movw	r2, #4146
	bl	lv_obj_get_style_prop
.Ltmp140:
	@DEBUG_VALUE: lv_area_copy:src <- [DW_OP_plus_uconst 20, DW_OP_stack_value] $r4
	@DEBUG_VALUE: lv_area_copy:dest <- [DW_OP_plus_uconst 8, DW_OP_stack_value] $sp
	@DEBUG_VALUE: border_width <- $r0
	@DEBUG_VALUE: lv_obj_get_style_border_width:v <- $r0
	.loc	6 112 21                        @ ../GUILib/src/hal/../misc/lv_area.h:112:21
	ldr	r1, [r4, #20]
	.loc	6 114 21                        @ ../GUILib/src/hal/../misc/lv_area.h:114:21
	ldr	r2, [r4, #24]
	.loc	6 112 14                        @ ../GUILib/src/hal/../misc/lv_area.h:112:14
	strd	r1, r2, [sp, #8]
.Ltmp141:
	.loc	12 1290 39                      @ ../GUILib/src/widgets/lv_textarea.c:1290:39
	adds	r1, r0, r6
	.loc	12 1290 59 is_stmt 0            @ ../GUILib/src/widgets/lv_textarea.c:1290:59
	add	r0, r7
.Ltmp142:
	.loc	12 0 59                         @ ../GUILib/src/widgets/lv_textarea.c:0:59
	add	r6, sp, #8
.Ltmp143:
	.loc	12 1290 9                       @ ../GUILib/src/widgets/lv_textarea.c:1290:9
	sxth	r1, r1
	sxth	r2, r0
	mov	r0, r6
	bl	lv_area_move
.Ltmp144:
	.loc	12 1291 59 is_stmt 1            @ ../GUILib/src/widgets/lv_textarea.c:1291:59
	ldr	r3, [r4, #40]
	add	r2, sp, #56
	.loc	12 1291 9 is_stmt 0             @ ../GUILib/src/widgets/lv_textarea.c:1291:9
	mov	r0, r6
	mov	r1, r5
.Ltmp145:
.LBB2_30:
	@DEBUG_VALUE: lv_textarea_event:e <- [DW_OP_LLVM_entry_value 1] $r1
	@DEBUG_VALUE: lv_textarea_event:class_p <- [DW_OP_LLVM_entry_value 1] $r0
	.loc	12 0 0                          @ ../GUILib/src/widgets/lv_textarea.c:0:0
	str.w	r8, [sp]
	bl	lv_draw_label
.Ltmp146:
.LBB2_31:
	@DEBUG_VALUE: lv_textarea_event:class_p <- [DW_OP_LLVM_entry_value 1] $r0
	.loc	12 899 1 is_stmt 1              @ ../GUILib/src/widgets/lv_textarea.c:899:1
	add	sp, #108
	pop.w	{r4, r5, r6, r7, r8, r9, pc}
.Ltmp147:
.LBB2_32:
	@DEBUG_VALUE: lv_textarea_event:e <- $r6
	@DEBUG_VALUE: lv_textarea_event:obj <- $r4
	@DEBUG_VALUE: c <- $r1
	@DEBUG_VALUE: lv_textarea_event:class_p <- [DW_OP_LLVM_entry_value 1] $r0
	.loc	12 867 12                       @ ../GUILib/src/widgets/lv_textarea.c:867:12
	cmp	r1, #127
	bne	.LBB2_37
.Ltmp148:
@ %bb.33:
	@DEBUG_VALUE: lv_textarea_event:e <- $r6
	@DEBUG_VALUE: lv_textarea_event:obj <- $r4
	@DEBUG_VALUE: c <- $r1
	@DEBUG_VALUE: lv_textarea_event:class_p <- [DW_OP_LLVM_entry_value 1] $r0
	.loc	12 878 13                       @ ../GUILib/src/widgets/lv_textarea.c:878:13
	mov	r0, r4
	add	sp, #108
	pop.w	{r4, r5, r6, r7, r8, r9, lr}
.Ltmp149:
	@DEBUG_VALUE: lv_textarea_event:e <- [DW_OP_LLVM_entry_value 1] $r1
	b	lv_textarea_del_char_forward
.Ltmp150:
.LBB2_34:
	@DEBUG_VALUE: lv_textarea_event:e <- $r6
	@DEBUG_VALUE: lv_textarea_event:obj <- $r4
	@DEBUG_VALUE: c <- $r1
	@DEBUG_VALUE: lv_textarea_event:class_p <- [DW_OP_LLVM_entry_value 1] $r0
	.loc	12 882 13                       @ ../GUILib/src/widgets/lv_textarea.c:882:13
	mov	r0, r4
	movw	r1, #32767
.Ltmp151:
	.loc	12 0 13 is_stmt 0               @ ../GUILib/src/widgets/lv_textarea.c:0:13
	b	.LBB2_44
.Ltmp152:
.LBB2_35:
	@DEBUG_VALUE: lv_textarea_event:e <- $r6
	@DEBUG_VALUE: lv_textarea_event:obj <- $r4
	@DEBUG_VALUE: c <- $r1
	@DEBUG_VALUE: lv_textarea_event:class_p <- [DW_OP_LLVM_entry_value 1] $r0
	.loc	12 876 13 is_stmt 1             @ ../GUILib/src/widgets/lv_textarea.c:876:13
	mov	r0, r4
	add	sp, #108
	pop.w	{r4, r5, r6, r7, r8, r9, lr}
.Ltmp153:
	@DEBUG_VALUE: lv_textarea_event:e <- [DW_OP_LLVM_entry_value 1] $r1
	b	lv_textarea_del_char
.Ltmp154:
.LBB2_36:
	@DEBUG_VALUE: lv_textarea_event:e <- $r6
	@DEBUG_VALUE: lv_textarea_event:obj <- $r4
	@DEBUG_VALUE: c <- $r1
	@DEBUG_VALUE: lv_textarea_event:class_p <- [DW_OP_LLVM_entry_value 1] $r0
	@DEBUG_VALUE: lv_textarea_get_one_line:obj <- $r4
	@DEBUG_VALUE: lv_textarea_get_one_line:ta <- $r4
	.loc	12 639 16                       @ ../GUILib/src/widgets/lv_textarea.c:639:16
	ldrb.w	r0, [r4, #92]
.Ltmp155:
	.loc	12 883 17                       @ ../GUILib/src/widgets/lv_textarea.c:883:17
	lsls	r0, r0, #28
	bmi	.LBB2_45
.Ltmp156:
.LBB2_37:
	@DEBUG_VALUE: lv_textarea_event:e <- $r6
	@DEBUG_VALUE: lv_textarea_event:obj <- $r4
	@DEBUG_VALUE: c <- $r1
	@DEBUG_VALUE: lv_textarea_event:class_p <- [DW_OP_LLVM_entry_value 1] $r0
	.loc	12 886 13                       @ ../GUILib/src/widgets/lv_textarea.c:886:13
	mov	r0, r4
	add	sp, #108
	pop.w	{r4, r5, r6, r7, r8, r9, lr}
.Ltmp157:
	@DEBUG_VALUE: lv_textarea_event:e <- [DW_OP_LLVM_entry_value 1] $r1
	b	lv_textarea_add_char
.Ltmp158:
.LBB2_38:
	@DEBUG_VALUE: lv_textarea_event:e <- $r6
	@DEBUG_VALUE: lv_textarea_event:obj <- $r4
	@DEBUG_VALUE: c <- $r1
	@DEBUG_VALUE: lv_textarea_event:class_p <- [DW_OP_LLVM_entry_value 1] $r0
	.loc	12 872 13                       @ ../GUILib/src/widgets/lv_textarea.c:872:13
	mov	r0, r4
	add	sp, #108
	pop.w	{r4, r5, r6, r7, r8, r9, lr}
.Ltmp159:
	@DEBUG_VALUE: lv_textarea_event:e <- [DW_OP_LLVM_entry_value 1] $r1
	b	lv_textarea_cursor_up
.Ltmp160:
.LBB2_39:
	@DEBUG_VALUE: lv_textarea_event:e <- $r6
	@DEBUG_VALUE: lv_textarea_event:obj <- $r4
	@DEBUG_VALUE: c <- $r1
	@DEBUG_VALUE: lv_textarea_event:class_p <- [DW_OP_LLVM_entry_value 1] $r0
	.loc	12 874 13                       @ ../GUILib/src/widgets/lv_textarea.c:874:13
	mov	r0, r4
	add	sp, #108
	pop.w	{r4, r5, r6, r7, r8, r9, lr}
.Ltmp161:
	@DEBUG_VALUE: lv_textarea_event:e <- [DW_OP_LLVM_entry_value 1] $r1
	b	lv_textarea_cursor_down
.Ltmp162:
.LBB2_40:
	@DEBUG_VALUE: lv_textarea_event:e <- $r6
	@DEBUG_VALUE: lv_textarea_event:obj <- $r4
	@DEBUG_VALUE: c <- $r1
	@DEBUG_VALUE: lv_textarea_event:class_p <- [DW_OP_LLVM_entry_value 1] $r0
	@DEBUG_VALUE: lv_textarea_cursor_right:obj <- $r4
	@DEBUG_VALUE: lv_textarea_get_cursor_pos:obj <- $r4
	@DEBUG_VALUE: lv_textarea_get_cursor_pos:ta <- $r4
	.loc	12 615 23                       @ ../GUILib/src/widgets/lv_textarea.c:615:23
	ldr	r0, [r4, #64]
.Ltmp163:
	@DEBUG_VALUE: lv_textarea_cursor_right:cp <- $r0
	.loc	12 727 7                        @ ../GUILib/src/widgets/lv_textarea.c:727:7
	adds	r1, r0, #1
.Ltmp164:
	@DEBUG_VALUE: lv_textarea_cursor_right:cp <- $r1
	.loc	12 0 7 is_stmt 0                @ ../GUILib/src/widgets/lv_textarea.c:0:7
	b	.LBB2_43
.Ltmp165:
.LBB2_41:
	@DEBUG_VALUE: lv_textarea_event:e <- $r6
	@DEBUG_VALUE: lv_textarea_event:obj <- $r4
	@DEBUG_VALUE: c <- $r1
	@DEBUG_VALUE: lv_textarea_event:class_p <- [DW_OP_LLVM_entry_value 1] $r0
	@DEBUG_VALUE: lv_textarea_cursor_left:obj <- $r4
	@DEBUG_VALUE: lv_textarea_get_cursor_pos:obj <- $r4
	@DEBUG_VALUE: lv_textarea_get_cursor_pos:ta <- $r4
	.loc	12 615 23 is_stmt 1             @ ../GUILib/src/widgets/lv_textarea.c:615:23
	ldr	r0, [r4, #64]
.Ltmp166:
	@DEBUG_VALUE: lv_textarea_cursor_left:cp <- $r0
	.loc	12 736 8                        @ ../GUILib/src/widgets/lv_textarea.c:736:8
	cmp	r0, #0
	beq	.LBB2_31
.Ltmp167:
@ %bb.42:
	@DEBUG_VALUE: lv_textarea_event:e <- $r6
	@DEBUG_VALUE: lv_textarea_cursor_left:obj <- $r4
	@DEBUG_VALUE: lv_textarea_event:obj <- $r4
	@DEBUG_VALUE: c <- $r1
	@DEBUG_VALUE: lv_textarea_cursor_left:cp <- $r0
	@DEBUG_VALUE: lv_textarea_event:class_p <- [DW_OP_LLVM_entry_value 1] $r0
	.loc	12 737 11                       @ ../GUILib/src/widgets/lv_textarea.c:737:11
	subs	r1, r0, #1
.Ltmp168:
	@DEBUG_VALUE: lv_textarea_cursor_left:cp <- $r1
.LBB2_43:
	@DEBUG_VALUE: lv_textarea_event:e <- $r6
	@DEBUG_VALUE: lv_textarea_event:obj <- $r4
	@DEBUG_VALUE: lv_textarea_event:class_p <- [DW_OP_LLVM_entry_value 1] $r0
	.loc	12 0 0 is_stmt 0                @ ../GUILib/src/widgets/lv_textarea.c:0:0
	mov	r0, r4
.Ltmp169:
.LBB2_44:
	@DEBUG_VALUE: lv_textarea_event:e <- $r6
	@DEBUG_VALUE: lv_textarea_event:obj <- $r4
	@DEBUG_VALUE: lv_textarea_event:class_p <- [DW_OP_LLVM_entry_value 1] $r0
	add	sp, #108
	pop.w	{r4, r5, r6, r7, r8, r9, lr}
.Ltmp170:
	@DEBUG_VALUE: lv_textarea_event:e <- [DW_OP_LLVM_entry_value 1] $r1
	b	lv_textarea_set_cursor_pos
.Ltmp171:
.LBB2_45:
	@DEBUG_VALUE: lv_textarea_event:e <- $r6
	@DEBUG_VALUE: lv_textarea_event:obj <- $r4
	@DEBUG_VALUE: c <- $r1
	@DEBUG_VALUE: lv_textarea_event:class_p <- [DW_OP_LLVM_entry_value 1] $r0
	.loc	12 884 13 is_stmt 1             @ ../GUILib/src/widgets/lv_textarea.c:884:13
	mov	r0, r4
	movs	r1, #31
.Ltmp172:
	movs	r2, #0
	add	sp, #108
	pop.w	{r4, r5, r6, r7, r8, r9, lr}
.Ltmp173:
	@DEBUG_VALUE: lv_textarea_event:e <- [DW_OP_LLVM_entry_value 1] $r1
	b	lv_event_send
.Ltmp174:
.LBB2_46:
	@DEBUG_VALUE: update_cursor_position_on_click:label_data <- $r8
	@DEBUG_VALUE: update_cursor_position_on_click:click_source <- $r7
	@DEBUG_VALUE: update_cursor_position_on_click:obj <- $r4
	@DEBUG_VALUE: update_cursor_position_on_click:ta <- $r4
	@DEBUG_VALUE: lv_textarea_event:e <- [DW_OP_LLVM_entry_value 1] $r1
	@DEBUG_VALUE: lv_textarea_event:class_p <- [DW_OP_LLVM_entry_value 1] $r0
	.loc	12 0 13 is_stmt 0               @ ../GUILib/src/widgets/lv_textarea.c:0:13
	movs	r7, #0
	movs	r0, #0
	b	.LBB2_48
.Ltmp175:
.LBB2_47:
	@DEBUG_VALUE: update_cursor_position_on_click:label_data <- $r8
	@DEBUG_VALUE: update_cursor_position_on_click:click_source <- $r7
	@DEBUG_VALUE: update_cursor_position_on_click:obj <- $r4
	@DEBUG_VALUE: update_cursor_position_on_click:ta <- $r4
	@DEBUG_VALUE: lv_textarea_event:e <- [DW_OP_LLVM_entry_value 1] $r1
	@DEBUG_VALUE: lv_textarea_event:class_p <- [DW_OP_LLVM_entry_value 1] $r0
	movs	r0, #0
	movw	r7, #32767
.Ltmp176:
.LBB2_48:
	@DEBUG_VALUE: update_cursor_position_on_click:label_data <- $r8
	@DEBUG_VALUE: update_cursor_position_on_click:obj <- $r4
	@DEBUG_VALUE: update_cursor_position_on_click:ta <- $r4
	@DEBUG_VALUE: lv_textarea_event:e <- [DW_OP_LLVM_entry_value 1] $r1
	@DEBUG_VALUE: lv_textarea_event:class_p <- [DW_OP_LLVM_entry_value 1] $r0
	@DEBUG_VALUE: update_cursor_position_on_click:char_id_at_click <- undef
	@DEBUG_VALUE: update_cursor_position_on_click:click_outside_label <- undef
	.loc	12 1186 12 is_stmt 1            @ ../GUILib/src/widgets/lv_textarea.c:1186:12
	ldrb.w	r1, [r4, #92]
.Ltmp177:
	.loc	12 1186 8 is_stmt 0             @ ../GUILib/src/widgets/lv_textarea.c:1186:8
	lsls	r2, r1, #30
	bmi	.LBB2_51
.Ltmp178:
.LBB2_49:
	@DEBUG_VALUE: update_cursor_position_on_click:label_data <- $r8
	@DEBUG_VALUE: update_cursor_position_on_click:obj <- $r4
	@DEBUG_VALUE: update_cursor_position_on_click:ta <- $r4
	@DEBUG_VALUE: lv_textarea_event:e <- [DW_OP_LLVM_entry_value 1] $r1
	@DEBUG_VALUE: lv_textarea_event:class_p <- [DW_OP_LLVM_entry_value 1] $r0
	.loc	12 1204 29 is_stmt 1            @ ../GUILib/src/widgets/lv_textarea.c:1204:29
	cmp	r5, #1
	beq	.LBB2_54
.Ltmp179:
@ %bb.50:
	@DEBUG_VALUE: update_cursor_position_on_click:label_data <- $r8
	@DEBUG_VALUE: update_cursor_position_on_click:obj <- $r4
	@DEBUG_VALUE: update_cursor_position_on_click:ta <- $r4
	@DEBUG_VALUE: lv_textarea_event:e <- [DW_OP_LLVM_entry_value 1] $r1
	@DEBUG_VALUE: lv_textarea_event:class_p <- [DW_OP_LLVM_entry_value 1] $r0
	.loc	12 0 0 is_stmt 0                @ ../GUILib/src/widgets/lv_textarea.c:0:0
	ands	r0, r1, #1
	.loc	12 1204 29                      @ ../GUILib/src/widgets/lv_textarea.c:1204:29
	beq	.LBB2_31
	b	.LBB2_54
.Ltmp180:
.LBB2_51:
	@DEBUG_VALUE: update_cursor_position_on_click:label_data <- $r8
	@DEBUG_VALUE: update_cursor_position_on_click:obj <- $r4
	@DEBUG_VALUE: update_cursor_position_on_click:ta <- $r4
	@DEBUG_VALUE: lv_textarea_event:e <- [DW_OP_LLVM_entry_value 1] $r1
	@DEBUG_VALUE: lv_textarea_event:class_p <- [DW_OP_LLVM_entry_value 1] $r0
	.loc	12 1187 34 is_stmt 1            @ ../GUILib/src/widgets/lv_textarea.c:1187:34
	cmp	r5, #1
	.loc	12 1187 17 is_stmt 0            @ ../GUILib/src/widgets/lv_textarea.c:1187:17
	and	r2, r1, #1
	.loc	12 1187 34                      @ ../GUILib/src/widgets/lv_textarea.c:1187:34
	bne	.LBB2_59
.Ltmp181:
@ %bb.52:
	@DEBUG_VALUE: update_cursor_position_on_click:label_data <- $r8
	@DEBUG_VALUE: update_cursor_position_on_click:obj <- $r4
	@DEBUG_VALUE: update_cursor_position_on_click:ta <- $r4
	@DEBUG_VALUE: lv_textarea_event:e <- [DW_OP_LLVM_entry_value 1] $r1
	@DEBUG_VALUE: lv_textarea_event:class_p <- [DW_OP_LLVM_entry_value 1] $r0
	.loc	12 0 0                          @ ../GUILib/src/widgets/lv_textarea.c:0:0
	eor	r3, r2, #1
	.loc	12 1187 34                      @ ../GUILib/src/widgets/lv_textarea.c:1187:34
	ands	r0, r3
	beq	.LBB2_59
.Ltmp182:
@ %bb.53:
	@DEBUG_VALUE: update_cursor_position_on_click:label_data <- $r8
	@DEBUG_VALUE: update_cursor_position_on_click:obj <- $r4
	@DEBUG_VALUE: update_cursor_position_on_click:ta <- $r4
	@DEBUG_VALUE: lv_textarea_event:e <- [DW_OP_LLVM_entry_value 1] $r1
	@DEBUG_VALUE: lv_textarea_event:class_p <- [DW_OP_LLVM_entry_value 1] $r0
	.loc	12 0 34                         @ ../GUILib/src/widgets/lv_textarea.c:0:34
	movw	r0, #65535
.Ltmp183:
	.loc	12 1189 30 is_stmt 1            @ ../GUILib/src/widgets/lv_textarea.c:1189:30
	strd	r7, r0, [r4, #84]
	.loc	12 1191 34                      @ ../GUILib/src/widgets/lv_textarea.c:1191:34
	orr	r0, r1, #1
	strb.w	r0, [r4, #92]
	.loc	12 1192 13                      @ ../GUILib/src/widgets/lv_textarea.c:1192:13
	mov	r0, r4
	mov.w	r1, #256
	bl	lv_obj_clear_flag
.Ltmp184:
.LBB2_54:
	@DEBUG_VALUE: update_cursor_position_on_click:label_data <- $r8
	@DEBUG_VALUE: update_cursor_position_on_click:obj <- $r4
	@DEBUG_VALUE: update_cursor_position_on_click:ta <- $r4
	@DEBUG_VALUE: lv_textarea_event:e <- [DW_OP_LLVM_entry_value 1] $r1
	@DEBUG_VALUE: lv_textarea_event:class_p <- [DW_OP_LLVM_entry_value 1] $r0
	.loc	12 1204 58                      @ ../GUILib/src/widgets/lv_textarea.c:1204:58
	mov	r0, r4
	mov	r1, r7
	bl	lv_textarea_set_cursor_pos
.Ltmp185:
	.loc	12 1206 12                      @ ../GUILib/src/widgets/lv_textarea.c:1206:12
	ldrb.w	r0, [r4, #92]
.Ltmp186:
	.loc	12 1206 8 is_stmt 0             @ ../GUILib/src/widgets/lv_textarea.c:1206:8
	lsls	r0, r0, #31
	beq	.LBB2_31
.Ltmp187:
@ %bb.55:
	@DEBUG_VALUE: update_cursor_position_on_click:label_data <- $r8
	@DEBUG_VALUE: update_cursor_position_on_click:obj <- $r4
	@DEBUG_VALUE: update_cursor_position_on_click:ta <- $r4
	@DEBUG_VALUE: lv_textarea_event:e <- [DW_OP_LLVM_entry_value 1] $r1
	@DEBUG_VALUE: lv_textarea_event:class_p <- [DW_OP_LLVM_entry_value 1] $r0
	.loc	12 1210 16 is_stmt 1            @ ../GUILib/src/widgets/lv_textarea.c:1210:16
	ldrd	r0, r1, [r4, #84]
.Ltmp188:
	.loc	12 1210 12 is_stmt 0            @ ../GUILib/src/widgets/lv_textarea.c:1210:12
	cmp	r0, r1
	bls	.LBB2_62
.Ltmp189:
@ %bb.56:
	@DEBUG_VALUE: update_cursor_position_on_click:label_data <- $r8
	@DEBUG_VALUE: update_cursor_position_on_click:obj <- $r4
	@DEBUG_VALUE: update_cursor_position_on_click:ta <- $r4
	@DEBUG_VALUE: lv_textarea_event:e <- [DW_OP_LLVM_entry_value 1] $r1
	@DEBUG_VALUE: lv_textarea_event:class_p <- [DW_OP_LLVM_entry_value 1] $r0
	.loc	12 1211 28 is_stmt 1            @ ../GUILib/src/widgets/lv_textarea.c:1211:28
	ldr.w	r2, [r8, #60]
	.loc	12 1211 53 is_stmt 0            @ ../GUILib/src/widgets/lv_textarea.c:1211:53
	cmp	r2, r1
	bne	.LBB2_58
.Ltmp190:
@ %bb.57:
	@DEBUG_VALUE: update_cursor_position_on_click:label_data <- $r8
	@DEBUG_VALUE: update_cursor_position_on_click:obj <- $r4
	@DEBUG_VALUE: update_cursor_position_on_click:ta <- $r4
	@DEBUG_VALUE: lv_textarea_event:e <- [DW_OP_LLVM_entry_value 1] $r1
	@DEBUG_VALUE: lv_textarea_event:class_p <- [DW_OP_LLVM_entry_value 1] $r0
	.loc	12 1211 68                      @ ../GUILib/src/widgets/lv_textarea.c:1211:68
	ldr.w	r2, [r8, #64]
.Ltmp191:
	.loc	12 1211 16                      @ ../GUILib/src/widgets/lv_textarea.c:1211:16
	cmp	r2, r0
	beq	.LBB2_75
.Ltmp192:
.LBB2_58:
	@DEBUG_VALUE: update_cursor_position_on_click:label_data <- $r8
	@DEBUG_VALUE: update_cursor_position_on_click:obj <- $r4
	@DEBUG_VALUE: update_cursor_position_on_click:ta <- $r4
	@DEBUG_VALUE: lv_textarea_event:e <- [DW_OP_LLVM_entry_value 1] $r1
	@DEBUG_VALUE: lv_textarea_event:class_p <- [DW_OP_LLVM_entry_value 1] $r0
	.loc	12 1212 39 is_stmt 1            @ ../GUILib/src/widgets/lv_textarea.c:1212:39
	str.w	r1, [r8, #60]
	b	.LBB2_73
.Ltmp193:
.LBB2_59:
	@DEBUG_VALUE: update_cursor_position_on_click:label_data <- $r8
	@DEBUG_VALUE: update_cursor_position_on_click:obj <- $r4
	@DEBUG_VALUE: update_cursor_position_on_click:ta <- $r4
	@DEBUG_VALUE: lv_textarea_event:e <- [DW_OP_LLVM_entry_value 1] $r1
	@DEBUG_VALUE: lv_textarea_event:class_p <- [DW_OP_LLVM_entry_value 1] $r0
	.loc	12 1194 38                      @ ../GUILib/src/widgets/lv_textarea.c:1194:38
	cmp	r5, #2
	bne	.LBB2_66
.Ltmp194:
@ %bb.60:
	@DEBUG_VALUE: update_cursor_position_on_click:label_data <- $r8
	@DEBUG_VALUE: update_cursor_position_on_click:obj <- $r4
	@DEBUG_VALUE: update_cursor_position_on_click:ta <- $r4
	@DEBUG_VALUE: lv_textarea_event:e <- [DW_OP_LLVM_entry_value 1] $r1
	@DEBUG_VALUE: lv_textarea_event:class_p <- [DW_OP_LLVM_entry_value 1] $r0
	cbz	r2, .LBB2_66
.Ltmp195:
@ %bb.61:
	@DEBUG_VALUE: update_cursor_position_on_click:label_data <- $r8
	@DEBUG_VALUE: update_cursor_position_on_click:obj <- $r4
	@DEBUG_VALUE: update_cursor_position_on_click:ta <- $r4
	@DEBUG_VALUE: lv_textarea_event:e <- [DW_OP_LLVM_entry_value 1] $r1
	@DEBUG_VALUE: lv_textarea_event:class_p <- [DW_OP_LLVM_entry_value 1] $r0
	.loc	12 1196 25                      @ ../GUILib/src/widgets/lv_textarea.c:1196:25
	str	r7, [r4, #88]
	b	.LBB2_49
.Ltmp196:
.LBB2_62:
	@DEBUG_VALUE: update_cursor_position_on_click:label_data <- $r8
	@DEBUG_VALUE: update_cursor_position_on_click:obj <- $r4
	@DEBUG_VALUE: update_cursor_position_on_click:ta <- $r4
	@DEBUG_VALUE: lv_textarea_event:e <- [DW_OP_LLVM_entry_value 1] $r1
	@DEBUG_VALUE: lv_textarea_event:class_p <- [DW_OP_LLVM_entry_value 1] $r0
	.loc	12 0 0 is_stmt 0                @ ../GUILib/src/widgets/lv_textarea.c:0:0
	ldr.w	r2, [r8, #60]
.Ltmp197:
	.loc	12 1217 17 is_stmt 1            @ ../GUILib/src/widgets/lv_textarea.c:1217:17
	bhs	.LBB2_70
.Ltmp198:
@ %bb.63:
	@DEBUG_VALUE: update_cursor_position_on_click:label_data <- $r8
	@DEBUG_VALUE: update_cursor_position_on_click:obj <- $r4
	@DEBUG_VALUE: update_cursor_position_on_click:ta <- $r4
	@DEBUG_VALUE: lv_textarea_event:e <- [DW_OP_LLVM_entry_value 1] $r1
	@DEBUG_VALUE: lv_textarea_event:class_p <- [DW_OP_LLVM_entry_value 1] $r0
	.loc	12 1218 55                      @ ../GUILib/src/widgets/lv_textarea.c:1218:55
	cmp	r2, r0
	bne	.LBB2_65
.Ltmp199:
@ %bb.64:
	@DEBUG_VALUE: update_cursor_position_on_click:label_data <- $r8
	@DEBUG_VALUE: update_cursor_position_on_click:obj <- $r4
	@DEBUG_VALUE: update_cursor_position_on_click:ta <- $r4
	@DEBUG_VALUE: lv_textarea_event:e <- [DW_OP_LLVM_entry_value 1] $r1
	@DEBUG_VALUE: lv_textarea_event:class_p <- [DW_OP_LLVM_entry_value 1] $r0
	.loc	12 1218 70 is_stmt 0            @ ../GUILib/src/widgets/lv_textarea.c:1218:70
	ldr.w	r2, [r8, #64]
.Ltmp200:
	.loc	12 1218 16                      @ ../GUILib/src/widgets/lv_textarea.c:1218:16
	cmp	r2, r1
	beq	.LBB2_75
.Ltmp201:
.LBB2_65:
	@DEBUG_VALUE: update_cursor_position_on_click:label_data <- $r8
	@DEBUG_VALUE: update_cursor_position_on_click:obj <- $r4
	@DEBUG_VALUE: update_cursor_position_on_click:ta <- $r4
	@DEBUG_VALUE: lv_textarea_event:e <- [DW_OP_LLVM_entry_value 1] $r1
	@DEBUG_VALUE: lv_textarea_event:class_p <- [DW_OP_LLVM_entry_value 1] $r0
	.loc	12 1219 39 is_stmt 1            @ ../GUILib/src/widgets/lv_textarea.c:1219:39
	strd	r0, r1, [r8, #60]
	b	.LBB2_74
.Ltmp202:
.LBB2_66:
	@DEBUG_VALUE: update_cursor_position_on_click:label_data <- $r8
	@DEBUG_VALUE: update_cursor_position_on_click:obj <- $r4
	@DEBUG_VALUE: update_cursor_position_on_click:ta <- $r4
	@DEBUG_VALUE: lv_textarea_event:e <- [DW_OP_LLVM_entry_value 1] $r1
	@DEBUG_VALUE: lv_textarea_event:class_p <- [DW_OP_LLVM_entry_value 1] $r0
	.loc	12 1198 38                      @ ../GUILib/src/widgets/lv_textarea.c:1198:38
	cmp	r2, #0
	beq	.LBB2_49
.Ltmp203:
@ %bb.67:
	@DEBUG_VALUE: update_cursor_position_on_click:label_data <- $r8
	@DEBUG_VALUE: update_cursor_position_on_click:obj <- $r4
	@DEBUG_VALUE: update_cursor_position_on_click:ta <- $r4
	@DEBUG_VALUE: lv_textarea_event:e <- [DW_OP_LLVM_entry_value 1] $r1
	@DEBUG_VALUE: lv_textarea_event:class_p <- [DW_OP_LLVM_entry_value 1] $r0
	.loc	12 1198 70 is_stmt 0            @ ../GUILib/src/widgets/lv_textarea.c:1198:70
	cmp	r5, #8
	beq	.LBB2_69
.Ltmp204:
@ %bb.68:
	@DEBUG_VALUE: update_cursor_position_on_click:label_data <- $r8
	@DEBUG_VALUE: update_cursor_position_on_click:obj <- $r4
	@DEBUG_VALUE: update_cursor_position_on_click:ta <- $r4
	@DEBUG_VALUE: lv_textarea_event:e <- [DW_OP_LLVM_entry_value 1] $r1
	@DEBUG_VALUE: lv_textarea_event:class_p <- [DW_OP_LLVM_entry_value 1] $r0
	cmp	r5, #3
	bne	.LBB2_49
.Ltmp205:
.LBB2_69:
	@DEBUG_VALUE: update_cursor_position_on_click:label_data <- $r8
	@DEBUG_VALUE: update_cursor_position_on_click:obj <- $r4
	@DEBUG_VALUE: update_cursor_position_on_click:ta <- $r4
	@DEBUG_VALUE: lv_textarea_event:e <- [DW_OP_LLVM_entry_value 1] $r1
	@DEBUG_VALUE: lv_textarea_event:class_p <- [DW_OP_LLVM_entry_value 1] $r0
	.loc	12 1200 13 is_stmt 1            @ ../GUILib/src/widgets/lv_textarea.c:1200:13
	mov	r0, r4
	mov.w	r1, #256
	bl	lv_obj_add_flag
.Ltmp206:
	.loc	12 1204 12                      @ ../GUILib/src/widgets/lv_textarea.c:1204:12
	ldrb.w	r1, [r4, #92]
	b	.LBB2_49
.Ltmp207:
.LBB2_70:
	@DEBUG_VALUE: update_cursor_position_on_click:label_data <- $r8
	@DEBUG_VALUE: update_cursor_position_on_click:obj <- $r4
	@DEBUG_VALUE: update_cursor_position_on_click:ta <- $r4
	@DEBUG_VALUE: lv_textarea_event:e <- [DW_OP_LLVM_entry_value 1] $r1
	@DEBUG_VALUE: lv_textarea_event:class_p <- [DW_OP_LLVM_entry_value 1] $r0
	.loc	12 0 12 is_stmt 0               @ ../GUILib/src/widgets/lv_textarea.c:0:12
	movw	r0, #65535
.Ltmp208:
	.loc	12 1225 66 is_stmt 1            @ ../GUILib/src/widgets/lv_textarea.c:1225:66
	cmp	r2, r0
	bne	.LBB2_72
.Ltmp209:
@ %bb.71:
	@DEBUG_VALUE: update_cursor_position_on_click:label_data <- $r8
	@DEBUG_VALUE: update_cursor_position_on_click:obj <- $r4
	@DEBUG_VALUE: update_cursor_position_on_click:ta <- $r4
	@DEBUG_VALUE: lv_textarea_event:e <- [DW_OP_LLVM_entry_value 1] $r1
	@DEBUG_VALUE: lv_textarea_event:class_p <- [DW_OP_LLVM_entry_value 1] $r0
	.loc	12 1225 81 is_stmt 0            @ ../GUILib/src/widgets/lv_textarea.c:1225:81
	ldr.w	r1, [r8, #64]
.Ltmp210:
	.loc	12 1225 16                      @ ../GUILib/src/widgets/lv_textarea.c:1225:16
	cmp	r1, r0
	beq	.LBB2_75
.Ltmp211:
.LBB2_72:
	@DEBUG_VALUE: update_cursor_position_on_click:label_data <- $r8
	@DEBUG_VALUE: update_cursor_position_on_click:obj <- $r4
	@DEBUG_VALUE: update_cursor_position_on_click:ta <- $r4
	@DEBUG_VALUE: lv_textarea_event:e <- [DW_OP_LLVM_entry_value 1] $r1
	@DEBUG_VALUE: lv_textarea_event:class_p <- [DW_OP_LLVM_entry_value 1] $r0
	.loc	12 1226 39 is_stmt 1            @ ../GUILib/src/widgets/lv_textarea.c:1226:39
	str.w	r0, [r8, #60]
.Ltmp212:
.LBB2_73:
	@DEBUG_VALUE: update_cursor_position_on_click:label_data <- $r8
	@DEBUG_VALUE: update_cursor_position_on_click:obj <- $r4
	@DEBUG_VALUE: update_cursor_position_on_click:ta <- $r4
	@DEBUG_VALUE: lv_textarea_event:e <- [DW_OP_LLVM_entry_value 1] $r1
	@DEBUG_VALUE: lv_textarea_event:class_p <- [DW_OP_LLVM_entry_value 1] $r0
	.loc	12 0 0 is_stmt 0                @ ../GUILib/src/widgets/lv_textarea.c:0:0
	str.w	r0, [r8, #64]
.Ltmp213:
.LBB2_74:
	@DEBUG_VALUE: update_cursor_position_on_click:label_data <- $r8
	@DEBUG_VALUE: update_cursor_position_on_click:obj <- $r4
	@DEBUG_VALUE: update_cursor_position_on_click:ta <- $r4
	@DEBUG_VALUE: lv_textarea_event:e <- [DW_OP_LLVM_entry_value 1] $r1
	@DEBUG_VALUE: lv_textarea_event:class_p <- [DW_OP_LLVM_entry_value 1] $r0
	mov	r0, r4
	bl	lv_obj_invalidate
.Ltmp214:
.LBB2_75:
	@DEBUG_VALUE: update_cursor_position_on_click:label_data <- $r8
	@DEBUG_VALUE: update_cursor_position_on_click:obj <- $r4
	@DEBUG_VALUE: update_cursor_position_on_click:ta <- $r4
	@DEBUG_VALUE: lv_textarea_event:e <- [DW_OP_LLVM_entry_value 1] $r1
	@DEBUG_VALUE: lv_textarea_event:class_p <- [DW_OP_LLVM_entry_value 1] $r0
	.loc	12 1232 40 is_stmt 1            @ ../GUILib/src/widgets/lv_textarea.c:1232:40
	cmp	r5, #8
	beq	.LBB2_77
.Ltmp215:
@ %bb.76:
	@DEBUG_VALUE: update_cursor_position_on_click:label_data <- $r8
	@DEBUG_VALUE: update_cursor_position_on_click:obj <- $r4
	@DEBUG_VALUE: update_cursor_position_on_click:ta <- $r4
	@DEBUG_VALUE: lv_textarea_event:e <- [DW_OP_LLVM_entry_value 1] $r1
	@DEBUG_VALUE: lv_textarea_event:class_p <- [DW_OP_LLVM_entry_value 1] $r0
	cmp	r5, #3
	bne.w	.LBB2_31
.Ltmp216:
.LBB2_77:
	@DEBUG_VALUE: update_cursor_position_on_click:label_data <- $r8
	@DEBUG_VALUE: update_cursor_position_on_click:obj <- $r4
	@DEBUG_VALUE: update_cursor_position_on_click:ta <- $r4
	@DEBUG_VALUE: lv_textarea_event:e <- [DW_OP_LLVM_entry_value 1] $r1
	@DEBUG_VALUE: lv_textarea_event:class_p <- [DW_OP_LLVM_entry_value 1] $r0
	.loc	12 1233 34                      @ ../GUILib/src/widgets/lv_textarea.c:1233:34
	ldrb.w	r0, [r4, #92]
	and	r0, r0, #254
	strb.w	r0, [r4, #92]
	b	.LBB2_31
.Ltmp217:
.Lfunc_end2:
	.size	lv_textarea_event, .Lfunc_end2-lv_textarea_event
	.cfi_endproc
	.file	22 "C:\\Users\\Hyacincher\\Desktop\\HyTelectrl\\Code\\Project" "../GUILib/src/hal/lv_hal_disp.h"
	.file	23 "C:\\Users\\Hyacincher\\Desktop\\HyTelectrl\\Code\\Project" "../GUILib/src/hal/../misc/lv_timer.h"
	.file	24 "C:\\Users\\Hyacincher\\Desktop\\HyTelectrl\\Code\\Project" "../GUILib/src/hal/../draw/lv_draw_rect.h"
	.file	25 "C:\\Users\\Hyacincher\\Desktop\\HyTelectrl\\Code\\Project" "../GUILib/src/hal/../draw/../misc/lv_bidi.h"
	.cantunwind
	.fnend
                                        @ -- End function
	.section	.text.lv_textarea_create,"ax",%progbits
	.hidden	lv_textarea_create              @ -- Begin function lv_textarea_create
	.globl	lv_textarea_create
	.p2align	1
	.type	lv_textarea_create,%function
	.code	16                              @ @lv_textarea_create
	.thumb_func
lv_textarea_create:
.Lfunc_begin3:
	.loc	12 86 0                         @ ../GUILib/src/widgets/lv_textarea.c:86:0
	.fnstart
	.cfi_startproc
@ %bb.0:
	@DEBUG_VALUE: lv_textarea_create:parent <- $r0
	.save	{r4, lr}
	push	{r4, lr}
	.cfi_def_cfa_offset 8
	.cfi_offset lr, -4
	.cfi_offset r4, -8
	mov	r1, r0
.Ltmp218:
	@DEBUG_VALUE: lv_textarea_create:parent <- $r1
	.loc	12 88 22 prologue_end           @ ../GUILib/src/widgets/lv_textarea.c:88:22
	movw	r0, :lower16:lv_textarea_class
	movt	r0, :upper16:lv_textarea_class
	@DEBUG_VALUE: lv_textarea_create:parent <- $r1
	bl	lv_obj_class_create_obj
.Ltmp219:
	mov	r4, r0
.Ltmp220:
	@DEBUG_VALUE: lv_textarea_create:obj <- $r4
	.loc	12 89 5                         @ ../GUILib/src/widgets/lv_textarea.c:89:5
	bl	lv_obj_class_init_obj
.Ltmp221:
	.loc	12 90 5                         @ ../GUILib/src/widgets/lv_textarea.c:90:5
	mov	r0, r4
	pop	{r4, pc}
.Ltmp222:
.Lfunc_end3:
	.size	lv_textarea_create, .Lfunc_end3-lv_textarea_create
	.cfi_endproc
	.cantunwind
	.fnend
                                        @ -- End function
	.section	.text.lv_textarea_add_char,"ax",%progbits
	.hidden	lv_textarea_add_char            @ -- Begin function lv_textarea_add_char
	.globl	lv_textarea_add_char
	.p2align	1
	.type	lv_textarea_add_char,%function
	.code	16                              @ @lv_textarea_add_char
	.thumb_func
lv_textarea_add_char:
.Lfunc_begin4:
	.loc	12 98 0                         @ ../GUILib/src/widgets/lv_textarea.c:98:0
	.fnstart
	.cfi_startproc
@ %bb.0:
	@DEBUG_VALUE: lv_textarea_add_char:obj <- $r0
	@DEBUG_VALUE: lv_textarea_add_char:c <- $r1
	.save	{r4, r5, r6, r7, r8, lr}
	push.w	{r4, r5, r6, r7, r8, lr}
	.cfi_def_cfa_offset 24
	.cfi_offset lr, -4
	.cfi_offset r8, -8
	.cfi_offset r7, -12
	.cfi_offset r6, -16
	.cfi_offset r5, -20
	.cfi_offset r4, -24
	.pad	#80
	sub	sp, #80
	.cfi_def_cfa_offset 104
	mov	r4, r0
.Ltmp223:
	@DEBUG_VALUE: lv_textarea_add_char:obj <- $r4
	movs	r0, #0
	mov	r5, r1
	str	r1, [sp, #76]
.Ltmp224:
	@DEBUG_VALUE: lv_textarea_add_char:ta <- $r4
	@DEBUG_VALUE: lv_textarea_add_char:c <- $r5
	@DEBUG_VALUE: lv_textarea_add_char:obj <- $r4
	.loc	12 106 16 prologue_end          @ ../GUILib/src/widgets/lv_textarea.c:106:16
	str	r1, [sp, #68]
	.loc	12 107 16                       @ ../GUILib/src/widgets/lv_textarea.c:107:16
	str	r0, [sp, #72]
	add	r1, sp, #68
.Ltmp225:
	@DEBUG_VALUE: lv_textarea_add_char:letter_buf <- [DW_OP_plus_uconst 68, DW_OP_stack_value] $sp
	.loc	12 115 20                       @ ../GUILib/src/widgets/lv_textarea.c:115:20
	mov	r0, r4
	bl	insert_handler
.Ltmp226:
	@DEBUG_VALUE: lv_textarea_add_char:res <- $r0
	.loc	12 116 8                        @ ../GUILib/src/widgets/lv_textarea.c:116:8
	cmp	r0, #1
	bne.w	.LBB4_29
.Ltmp227:
@ %bb.1:
	@DEBUG_VALUE: lv_textarea_add_char:c <- $r5
	@DEBUG_VALUE: lv_textarea_add_char:ta <- $r4
	@DEBUG_VALUE: lv_textarea_add_char:obj <- $r4
	@DEBUG_VALUE: lv_textarea_add_char:res <- $r0
	@DEBUG_VALUE: lv_textarea_add_char:letter_buf <- [DW_OP_plus_uconst 68, DW_OP_stack_value] $sp
	.loc	12 118 12                       @ ../GUILib/src/widgets/lv_textarea.c:118:12
	ldrb.w	r0, [r4, #92]
.Ltmp228:
	.loc	12 118 21 is_stmt 0             @ ../GUILib/src/widgets/lv_textarea.c:118:21
	lsls	r0, r0, #28
	bpl	.LBB4_4
.Ltmp229:
@ %bb.2:
	@DEBUG_VALUE: lv_textarea_add_char:c <- $r5
	@DEBUG_VALUE: lv_textarea_add_char:ta <- $r4
	@DEBUG_VALUE: lv_textarea_add_char:obj <- $r4
	@DEBUG_VALUE: lv_textarea_add_char:letter_buf <- [DW_OP_plus_uconst 68, DW_OP_stack_value] $sp
	@DEBUG_VALUE: lv_textarea_add_char:c <- $r5
	.loc	12 118 35                       @ ../GUILib/src/widgets/lv_textarea.c:118:35
	cmp	r5, #10
	beq.w	.LBB4_29
.Ltmp230:
@ %bb.3:
	@DEBUG_VALUE: lv_textarea_add_char:c <- $r5
	@DEBUG_VALUE: lv_textarea_add_char:ta <- $r4
	@DEBUG_VALUE: lv_textarea_add_char:obj <- $r4
	@DEBUG_VALUE: lv_textarea_add_char:letter_buf <- [DW_OP_plus_uconst 68, DW_OP_stack_value] $sp
	cmp	r5, #13
	beq.w	.LBB4_29
.Ltmp231:
.LBB4_4:
	@DEBUG_VALUE: lv_textarea_add_char:c <- $r5
	@DEBUG_VALUE: lv_textarea_add_char:ta <- $r4
	@DEBUG_VALUE: lv_textarea_add_char:obj <- $r4
	@DEBUG_VALUE: lv_textarea_add_char:letter_buf <- [DW_OP_plus_uconst 68, DW_OP_stack_value] $sp
	.loc	12 123 22 is_stmt 1             @ ../GUILib/src/widgets/lv_textarea.c:123:22
	movw	r8, :lower16:_lv_txt_encoded_next
	movt	r8, :upper16:_lv_txt_encoded_next
	ldr.w	r2, [r8]
.Ltmp232:
	@DEBUG_VALUE: lv_textarea_add_char:c <- [DW_OP_plus_uconst 76, DW_OP_deref] $sp
	.loc	12 0 22 is_stmt 0               @ ../GUILib/src/widgets/lv_textarea.c:0:22
	add	r0, sp, #76
	.loc	12 123 22                       @ ../GUILib/src/widgets/lv_textarea.c:123:22
	movs	r1, #0
	blx	r2
.Ltmp233:
	.loc	12 1006 13 is_stmt 1            @ ../GUILib/src/widgets/lv_textarea.c:1006:13
	ldr	r1, [r4, #48]
.Ltmp234:
	.loc	12 123 22                       @ ../GUILib/src/widgets/lv_textarea.c:123:22
	mov	r5, r0
.Ltmp235:
	@DEBUG_VALUE: char_is_accepted:ta <- $r4
	@DEBUG_VALUE: char_is_accepted:obj <- $r4
	@DEBUG_VALUE: char_is_accepted:c <- $r5
	@DEBUG_VALUE: lv_textarea_add_char:c_uni <- $r5
	.loc	12 1006 36                      @ ../GUILib/src/widgets/lv_textarea.c:1006:36
	cbz	r1, .LBB4_7
.Ltmp236:
@ %bb.5:
	@DEBUG_VALUE: lv_textarea_add_char:c_uni <- $r5
	@DEBUG_VALUE: char_is_accepted:c <- $r5
	@DEBUG_VALUE: char_is_accepted:obj <- $r4
	@DEBUG_VALUE: char_is_accepted:ta <- $r4
	@DEBUG_VALUE: lv_textarea_add_char:ta <- $r4
	@DEBUG_VALUE: lv_textarea_add_char:obj <- $r4
	@DEBUG_VALUE: lv_textarea_add_char:c <- [DW_OP_plus_uconst 76, DW_OP_deref] $sp
	@DEBUG_VALUE: lv_textarea_add_char:letter_buf <- [DW_OP_plus_uconst 68, DW_OP_stack_value] $sp
	.loc	12 1006 39 is_stmt 0            @ ../GUILib/src/widgets/lv_textarea.c:1006:39
	ldrb	r0, [r1]
	.loc	12 1006 70                      @ ../GUILib/src/widgets/lv_textarea.c:1006:70
	cbz	r0, .LBB4_7
.Ltmp237:
@ %bb.6:
	@DEBUG_VALUE: lv_textarea_add_char:c_uni <- $r5
	@DEBUG_VALUE: char_is_accepted:c <- $r5
	@DEBUG_VALUE: char_is_accepted:obj <- $r4
	@DEBUG_VALUE: char_is_accepted:ta <- $r4
	@DEBUG_VALUE: lv_textarea_add_char:ta <- $r4
	@DEBUG_VALUE: lv_textarea_add_char:obj <- $r4
	@DEBUG_VALUE: lv_textarea_add_char:c <- [DW_OP_plus_uconst 76, DW_OP_deref] $sp
	@DEBUG_VALUE: lv_textarea_add_char:letter_buf <- [DW_OP_plus_uconst 68, DW_OP_stack_value] $sp
	.loc	12 1009 12 is_stmt 1            @ ../GUILib/src/widgets/lv_textarea.c:1009:12
	mov	r6, r4
	ldr	r0, [r6, #52]!
	.loc	12 1009 27 is_stmt 0            @ ../GUILib/src/widgets/lv_textarea.c:1009:27
	cbnz	r0, .LBB4_8
	b	.LBB4_13
.Ltmp238:
.LBB4_7:
	@DEBUG_VALUE: lv_textarea_add_char:c_uni <- $r5
	@DEBUG_VALUE: char_is_accepted:c <- $r5
	@DEBUG_VALUE: char_is_accepted:obj <- $r4
	@DEBUG_VALUE: char_is_accepted:ta <- $r4
	@DEBUG_VALUE: lv_textarea_add_char:ta <- $r4
	@DEBUG_VALUE: lv_textarea_add_char:obj <- $r4
	@DEBUG_VALUE: lv_textarea_add_char:c <- [DW_OP_plus_uconst 76, DW_OP_deref] $sp
	@DEBUG_VALUE: lv_textarea_add_char:letter_buf <- [DW_OP_plus_uconst 68, DW_OP_stack_value] $sp
	.loc	12 1006 77 is_stmt 1            @ ../GUILib/src/widgets/lv_textarea.c:1006:77
	mov	r6, r4
	ldr	r0, [r6, #52]!
.Ltmp239:
	.loc	12 1006 8 is_stmt 0             @ ../GUILib/src/widgets/lv_textarea.c:1006:8
	cbz	r0, .LBB4_17
.Ltmp240:
.LBB4_8:
	@DEBUG_VALUE: lv_textarea_add_char:c_uni <- $r5
	@DEBUG_VALUE: char_is_accepted:c <- $r5
	@DEBUG_VALUE: char_is_accepted:obj <- $r4
	@DEBUG_VALUE: char_is_accepted:ta <- $r4
	@DEBUG_VALUE: lv_textarea_add_char:ta <- $r4
	@DEBUG_VALUE: lv_textarea_add_char:obj <- $r4
	@DEBUG_VALUE: lv_textarea_add_char:c <- [DW_OP_plus_uconst 76, DW_OP_deref] $sp
	@DEBUG_VALUE: lv_textarea_add_char:letter_buf <- [DW_OP_plus_uconst 68, DW_OP_stack_value] $sp
	.loc	12 1009 30 is_stmt 1            @ ../GUILib/src/widgets/lv_textarea.c:1009:30
	movw	r0, :lower16:_lv_txt_get_encoded_length
	movt	r0, :upper16:_lv_txt_get_encoded_length
.Ltmp241:
	.loc	12 583 12                       @ ../GUILib/src/widgets/lv_textarea.c:583:12
	ldrb.w	r1, [r4, #92]
.Ltmp242:
	.loc	12 1009 30                      @ ../GUILib/src/widgets/lv_textarea.c:1009:30
	ldr	r7, [r0]
.Ltmp243:
	@DEBUG_VALUE: lv_textarea_get_text:ta <- $r4
	@DEBUG_VALUE: lv_textarea_get_text:obj <- $r4
	.loc	12 583 8                        @ ../GUILib/src/widgets/lv_textarea.c:583:8
	lsls	r0, r1, #29
	bmi	.LBB4_10
.Ltmp244:
@ %bb.9:
	@DEBUG_VALUE: lv_textarea_add_char:c_uni <- $r5
	@DEBUG_VALUE: char_is_accepted:c <- $r5
	@DEBUG_VALUE: lv_textarea_get_text:obj <- $r4
	@DEBUG_VALUE: lv_textarea_get_text:ta <- $r4
	@DEBUG_VALUE: char_is_accepted:obj <- $r4
	@DEBUG_VALUE: char_is_accepted:ta <- $r4
	@DEBUG_VALUE: lv_textarea_add_char:ta <- $r4
	@DEBUG_VALUE: lv_textarea_add_char:obj <- $r4
	@DEBUG_VALUE: lv_textarea_add_char:c <- [DW_OP_plus_uconst 76, DW_OP_deref] $sp
	@DEBUG_VALUE: lv_textarea_add_char:letter_buf <- [DW_OP_plus_uconst 68, DW_OP_stack_value] $sp
	@DEBUG_VALUE: lv_textarea_get_text:ta <- $r4
	.loc	12 584 37                       @ ../GUILib/src/widgets/lv_textarea.c:584:37
	ldr	r0, [r4, #36]
	.loc	12 584 15 is_stmt 0             @ ../GUILib/src/widgets/lv_textarea.c:584:15
	bl	lv_label_get_text
.Ltmp245:
	@DEBUG_VALUE: lv_textarea_get_text:txt <- $r0
	.loc	12 0 15                         @ ../GUILib/src/widgets/lv_textarea.c:0:15
	b	.LBB4_11
.Ltmp246:
.LBB4_10:
	@DEBUG_VALUE: lv_textarea_add_char:c_uni <- $r5
	@DEBUG_VALUE: char_is_accepted:c <- $r5
	@DEBUG_VALUE: lv_textarea_get_text:obj <- $r4
	@DEBUG_VALUE: lv_textarea_get_text:ta <- $r4
	@DEBUG_VALUE: char_is_accepted:obj <- $r4
	@DEBUG_VALUE: char_is_accepted:ta <- $r4
	@DEBUG_VALUE: lv_textarea_add_char:ta <- $r4
	@DEBUG_VALUE: lv_textarea_add_char:obj <- $r4
	@DEBUG_VALUE: lv_textarea_add_char:c <- [DW_OP_plus_uconst 76, DW_OP_deref] $sp
	@DEBUG_VALUE: lv_textarea_add_char:letter_buf <- [DW_OP_plus_uconst 68, DW_OP_stack_value] $sp
	.loc	12 587 19 is_stmt 1             @ ../GUILib/src/widgets/lv_textarea.c:587:19
	ldr	r0, [r4, #44]
.Ltmp247:
	@DEBUG_VALUE: lv_textarea_get_text:txt <- $r0
.LBB4_11:
	@DEBUG_VALUE: lv_textarea_add_char:c_uni <- $r5
	@DEBUG_VALUE: char_is_accepted:c <- $r5
	@DEBUG_VALUE: char_is_accepted:obj <- $r4
	@DEBUG_VALUE: char_is_accepted:ta <- $r4
	@DEBUG_VALUE: lv_textarea_add_char:ta <- $r4
	@DEBUG_VALUE: lv_textarea_add_char:obj <- $r4
	@DEBUG_VALUE: lv_textarea_add_char:c <- [DW_OP_plus_uconst 76, DW_OP_deref] $sp
	@DEBUG_VALUE: lv_textarea_add_char:letter_buf <- [DW_OP_plus_uconst 68, DW_OP_stack_value] $sp
	.loc	12 1009 30                      @ ../GUILib/src/widgets/lv_textarea.c:1009:30
	blx	r7
.Ltmp248:
	.loc	12 1009 91 is_stmt 0            @ ../GUILib/src/widgets/lv_textarea.c:1009:91
	ldr	r1, [r6]
.Ltmp249:
	.loc	12 1009 8                       @ ../GUILib/src/widgets/lv_textarea.c:1009:8
	cmp	r0, r1
	bhs	.LBB4_29
.Ltmp250:
@ %bb.12:
	@DEBUG_VALUE: lv_textarea_add_char:c_uni <- $r5
	@DEBUG_VALUE: char_is_accepted:c <- $r5
	@DEBUG_VALUE: char_is_accepted:obj <- $r4
	@DEBUG_VALUE: char_is_accepted:ta <- $r4
	@DEBUG_VALUE: lv_textarea_add_char:ta <- $r4
	@DEBUG_VALUE: lv_textarea_add_char:obj <- $r4
	@DEBUG_VALUE: lv_textarea_add_char:c <- [DW_OP_plus_uconst 76, DW_OP_deref] $sp
	@DEBUG_VALUE: lv_textarea_add_char:letter_buf <- [DW_OP_plus_uconst 68, DW_OP_stack_value] $sp
	.loc	12 1014 12 is_stmt 1            @ ../GUILib/src/widgets/lv_textarea.c:1014:12
	ldr	r1, [r4, #48]
.Ltmp251:
	.loc	12 1014 8 is_stmt 0             @ ../GUILib/src/widgets/lv_textarea.c:1014:8
	cbz	r1, .LBB4_17
.Ltmp252:
.LBB4_13:
	@DEBUG_VALUE: lv_textarea_add_char:c_uni <- $r5
	@DEBUG_VALUE: char_is_accepted:c <- $r5
	@DEBUG_VALUE: char_is_accepted:obj <- $r4
	@DEBUG_VALUE: char_is_accepted:ta <- $r4
	@DEBUG_VALUE: lv_textarea_add_char:ta <- $r4
	@DEBUG_VALUE: lv_textarea_add_char:obj <- $r4
	@DEBUG_VALUE: lv_textarea_add_char:c <- [DW_OP_plus_uconst 76, DW_OP_deref] $sp
	@DEBUG_VALUE: lv_textarea_add_char:letter_buf <- [DW_OP_plus_uconst 68, DW_OP_stack_value] $sp
	.loc	12 0 8                          @ ../GUILib/src/widgets/lv_textarea.c:0:8
	movs	r0, #0
.Ltmp253:
	@DEBUG_VALUE: i <- 0
	.loc	12 1015 18 is_stmt 1            @ ../GUILib/src/widgets/lv_textarea.c:1015:18
	str	r0, [sp, #4]
	.loc	12 1017 15                      @ ../GUILib/src/widgets/lv_textarea.c:1017:15
	ldrb	r0, [r1]
	.loc	12 1017 9 is_stmt 0             @ ../GUILib/src/widgets/lv_textarea.c:1017:9
	cmp	r0, #0
	beq	.LBB4_29
.Ltmp254:
@ %bb.14:
	@DEBUG_VALUE: lv_textarea_add_char:c_uni <- $r5
	@DEBUG_VALUE: char_is_accepted:c <- $r5
	@DEBUG_VALUE: char_is_accepted:obj <- $r4
	@DEBUG_VALUE: char_is_accepted:ta <- $r4
	@DEBUG_VALUE: lv_textarea_add_char:ta <- $r4
	@DEBUG_VALUE: lv_textarea_add_char:obj <- $r4
	@DEBUG_VALUE: lv_textarea_add_char:c <- [DW_OP_plus_uconst 76, DW_OP_deref] $sp
	@DEBUG_VALUE: lv_textarea_add_char:letter_buf <- [DW_OP_plus_uconst 68, DW_OP_stack_value] $sp
	@DEBUG_VALUE: i <- 0
	.loc	12 0 9                          @ ../GUILib/src/widgets/lv_textarea.c:0:9
	add	r6, sp, #4
.Ltmp255:
	.p2align	2
.LBB4_15:                               @ =>This Inner Loop Header: Depth=1
	@DEBUG_VALUE: lv_textarea_add_char:c_uni <- $r5
	@DEBUG_VALUE: char_is_accepted:c <- $r5
	@DEBUG_VALUE: char_is_accepted:obj <- $r4
	@DEBUG_VALUE: char_is_accepted:ta <- $r4
	@DEBUG_VALUE: lv_textarea_add_char:ta <- $r4
	@DEBUG_VALUE: lv_textarea_add_char:obj <- $r4
	@DEBUG_VALUE: lv_textarea_add_char:c <- [DW_OP_plus_uconst 76, DW_OP_deref] $sp
	@DEBUG_VALUE: lv_textarea_add_char:letter_buf <- [DW_OP_plus_uconst 68, DW_OP_stack_value] $sp
	.loc	12 1018 26 is_stmt 1            @ ../GUILib/src/widgets/lv_textarea.c:1018:26
	ldr.w	r2, [r8]
.Ltmp256:
	@DEBUG_VALUE: i <- [DW_OP_plus_uconst 4, DW_OP_deref] $sp
	mov	r0, r1
	mov	r1, r6
	blx	r2
.Ltmp257:
	@DEBUG_VALUE: a <- $r0
	.loc	12 0 26 is_stmt 0               @ ../GUILib/src/widgets/lv_textarea.c:0:26
	cmp	r0, r5
	beq	.LBB4_17
.Ltmp258:
@ %bb.16:                               @   in Loop: Header=BB4_15 Depth=1
	@DEBUG_VALUE: lv_textarea_add_char:c_uni <- $r5
	@DEBUG_VALUE: char_is_accepted:c <- $r5
	@DEBUG_VALUE: char_is_accepted:obj <- $r4
	@DEBUG_VALUE: char_is_accepted:ta <- $r4
	@DEBUG_VALUE: lv_textarea_add_char:ta <- $r4
	@DEBUG_VALUE: lv_textarea_add_char:obj <- $r4
	@DEBUG_VALUE: i <- [DW_OP_plus_uconst 4, DW_OP_deref] $sp
	@DEBUG_VALUE: lv_textarea_add_char:c <- [DW_OP_plus_uconst 76, DW_OP_deref] $sp
	@DEBUG_VALUE: lv_textarea_add_char:letter_buf <- [DW_OP_plus_uconst 68, DW_OP_stack_value] $sp
	.loc	12 1017 19 is_stmt 1            @ ../GUILib/src/widgets/lv_textarea.c:1017:19
	ldr	r1, [r4, #48]
	.loc	12 1017 34 is_stmt 0            @ ../GUILib/src/widgets/lv_textarea.c:1017:34
	ldr	r0, [sp, #4]
.Ltmp259:
	@DEBUG_VALUE: i <- $r0
	.loc	12 1017 15                      @ ../GUILib/src/widgets/lv_textarea.c:1017:15
	ldrb	r0, [r1, r0]
.Ltmp260:
	.loc	12 1017 9                       @ ../GUILib/src/widgets/lv_textarea.c:1017:9
	cmp	r0, #0
	bne	.LBB4_15
	b	.LBB4_29
.Ltmp261:
.LBB4_17:
	@DEBUG_VALUE: lv_textarea_add_char:c_uni <- $r5
	@DEBUG_VALUE: lv_textarea_add_char:ta <- $r4
	@DEBUG_VALUE: lv_textarea_add_char:obj <- $r4
	@DEBUG_VALUE: lv_textarea_add_char:c <- [DW_OP_plus_uconst 76, DW_OP_deref] $sp
	@DEBUG_VALUE: lv_textarea_add_char:letter_buf <- [DW_OP_plus_uconst 68, DW_OP_stack_value] $sp
	.loc	12 130 12 is_stmt 1             @ ../GUILib/src/widgets/lv_textarea.c:130:12
	ldrb.w	r0, [r4, #92]
.Ltmp262:
	.loc	12 130 8 is_stmt 0              @ ../GUILib/src/widgets/lv_textarea.c:130:8
	lsls	r0, r0, #29
	bpl	.LBB4_19
.Ltmp263:
@ %bb.18:
	@DEBUG_VALUE: lv_textarea_add_char:c_uni <- $r5
	@DEBUG_VALUE: lv_textarea_add_char:ta <- $r4
	@DEBUG_VALUE: lv_textarea_add_char:obj <- $r4
	@DEBUG_VALUE: lv_textarea_add_char:c <- [DW_OP_plus_uconst 76, DW_OP_deref] $sp
	@DEBUG_VALUE: lv_textarea_add_char:letter_buf <- [DW_OP_plus_uconst 68, DW_OP_stack_value] $sp
	.loc	12 130 27                       @ ../GUILib/src/widgets/lv_textarea.c:130:27
	mov	r0, r4
	bl	pwd_char_hider
.Ltmp264:
.LBB4_19:
	@DEBUG_VALUE: lv_textarea_add_char:c_uni <- $r5
	@DEBUG_VALUE: lv_textarea_add_char:ta <- $r4
	@DEBUG_VALUE: lv_textarea_add_char:obj <- $r4
	@DEBUG_VALUE: lv_textarea_add_char:c <- [DW_OP_plus_uconst 76, DW_OP_deref] $sp
	@DEBUG_VALUE: lv_textarea_add_char:letter_buf <- [DW_OP_plus_uconst 68, DW_OP_stack_value] $sp
	.loc	12 133 12 is_stmt 1             @ ../GUILib/src/widgets/lv_textarea.c:133:12
	ldr	r0, [r4, #40]
	cbz	r0, .LBB4_22
.Ltmp265:
@ %bb.20:
	@DEBUG_VALUE: lv_textarea_add_char:c_uni <- $r5
	@DEBUG_VALUE: lv_textarea_add_char:ta <- $r4
	@DEBUG_VALUE: lv_textarea_add_char:obj <- $r4
	@DEBUG_VALUE: lv_textarea_add_char:c <- [DW_OP_plus_uconst 76, DW_OP_deref] $sp
	@DEBUG_VALUE: lv_textarea_add_char:letter_buf <- [DW_OP_plus_uconst 68, DW_OP_stack_value] $sp
	.loc	12 134 50                       @ ../GUILib/src/widgets/lv_textarea.c:134:50
	ldr	r0, [r4, #36]
	.loc	12 134 28 is_stmt 0             @ ../GUILib/src/widgets/lv_textarea.c:134:28
	bl	lv_label_get_text
.Ltmp266:
	@DEBUG_VALUE: txt <- $r0
	.loc	12 135 12 is_stmt 1             @ ../GUILib/src/widgets/lv_textarea.c:135:12
	ldrb	r0, [r0]
.Ltmp267:
	.loc	12 0 12 is_stmt 0               @ ../GUILib/src/widgets/lv_textarea.c:0:12
	cbnz	r0, .LBB4_22
.Ltmp268:
@ %bb.21:
	@DEBUG_VALUE: lv_textarea_add_char:c_uni <- $r5
	@DEBUG_VALUE: lv_textarea_add_char:ta <- $r4
	@DEBUG_VALUE: lv_textarea_add_char:obj <- $r4
	@DEBUG_VALUE: lv_textarea_add_char:c <- [DW_OP_plus_uconst 76, DW_OP_deref] $sp
	@DEBUG_VALUE: lv_textarea_add_char:letter_buf <- [DW_OP_plus_uconst 68, DW_OP_stack_value] $sp
	.loc	12 135 28                       @ ../GUILib/src/widgets/lv_textarea.c:135:28
	mov	r0, r4
	bl	lv_obj_invalidate
.Ltmp269:
.LBB4_22:
	@DEBUG_VALUE: lv_textarea_add_char:c_uni <- $r5
	@DEBUG_VALUE: lv_textarea_add_char:ta <- $r4
	@DEBUG_VALUE: lv_textarea_add_char:obj <- $r4
	@DEBUG_VALUE: lv_textarea_add_char:c <- [DW_OP_plus_uconst 76, DW_OP_deref] $sp
	@DEBUG_VALUE: lv_textarea_add_char:letter_buf <- [DW_OP_plus_uconst 68, DW_OP_stack_value] $sp
	.loc	12 138 27 is_stmt 1             @ ../GUILib/src/widgets/lv_textarea.c:138:27
	ldr	r0, [r4, #36]
	.loc	12 138 45 is_stmt 0             @ ../GUILib/src/widgets/lv_textarea.c:138:45
	ldr	r1, [r4, #64]
	add	r2, sp, #68
	.loc	12 138 5                        @ ../GUILib/src/widgets/lv_textarea.c:138:5
	bl	lv_label_ins_text
.Ltmp270:
	.loc	12 139 5 is_stmt 1              @ ../GUILib/src/widgets/lv_textarea.c:139:5
	mov	r0, r4
	bl	lv_textarea_clear_selection
.Ltmp271:
	.loc	12 141 12                       @ ../GUILib/src/widgets/lv_textarea.c:141:12
	ldrb.w	r0, [r4, #92]
.Ltmp272:
	.loc	12 141 8 is_stmt 0              @ ../GUILib/src/widgets/lv_textarea.c:141:8
	lsls	r0, r0, #29
	bpl	.LBB4_28
.Ltmp273:
@ %bb.23:
	@DEBUG_VALUE: lv_textarea_add_char:c_uni <- $r5
	@DEBUG_VALUE: lv_textarea_add_char:ta <- $r4
	@DEBUG_VALUE: lv_textarea_add_char:obj <- $r4
	@DEBUG_VALUE: lv_textarea_add_char:c <- [DW_OP_plus_uconst 76, DW_OP_deref] $sp
	@DEBUG_VALUE: lv_textarea_add_char:letter_buf <- [DW_OP_plus_uconst 68, DW_OP_stack_value] $sp
	.loc	12 142 42 is_stmt 1             @ ../GUILib/src/widgets/lv_textarea.c:142:42
	ldr	r5, [r4, #44]
.Ltmp274:
	.loc	12 142 51 is_stmt 0             @ ../GUILib/src/widgets/lv_textarea.c:142:51
	mov	r0, r5
	bl	strlen
.Ltmp275:
	mov	r6, r0
	add	r0, sp, #68
	.loc	12 142 73                       @ ../GUILib/src/widgets/lv_textarea.c:142:73
	bl	strlen
.Ltmp276:
	.loc	12 142 71                       @ ../GUILib/src/widgets/lv_textarea.c:142:71
	add	r0, r6
	.loc	12 142 92                       @ ../GUILib/src/widgets/lv_textarea.c:142:92
	adds	r1, r0, #1
	.loc	12 142 23                       @ ../GUILib/src/widgets/lv_textarea.c:142:23
	mov	r0, r5
	bl	lv_mem_realloc
.Ltmp277:
	.loc	12 142 21                       @ ../GUILib/src/widgets/lv_textarea.c:142:21
	str	r0, [r4, #44]
	cbz	r0, .LBB4_26
.Ltmp278:
@ %bb.24:
	@DEBUG_VALUE: lv_textarea_add_char:ta <- $r4
	@DEBUG_VALUE: lv_textarea_add_char:obj <- $r4
	@DEBUG_VALUE: lv_textarea_add_char:c <- [DW_OP_plus_uconst 76, DW_OP_deref] $sp
	@DEBUG_VALUE: lv_textarea_add_char:letter_buf <- [DW_OP_plus_uconst 68, DW_OP_stack_value] $sp
	.loc	12 146 45 is_stmt 1             @ ../GUILib/src/widgets/lv_textarea.c:146:45
	ldr	r1, [r4, #64]
	add	r2, sp, #68
	.loc	12 146 9 is_stmt 0              @ ../GUILib/src/widgets/lv_textarea.c:146:9
	bl	_lv_txt_ins
.Ltmp279:
	.loc	12 149 16 is_stmt 1             @ ../GUILib/src/widgets/lv_textarea.c:149:16
	ldrh	r0, [r4, #56]
.Ltmp280:
	.loc	12 149 12 is_stmt 0             @ ../GUILib/src/widgets/lv_textarea.c:149:12
	cbz	r0, .LBB4_27
.Ltmp281:
@ %bb.25:
	@DEBUG_VALUE: lv_textarea_add_char:ta <- $r4
	@DEBUG_VALUE: lv_textarea_add_char:obj <- $r4
	@DEBUG_VALUE: lv_textarea_add_char:c <- [DW_OP_plus_uconst 76, DW_OP_deref] $sp
	@DEBUG_VALUE: lv_textarea_add_char:letter_buf <- [DW_OP_plus_uconst 68, DW_OP_stack_value] $sp
	.loc	12 0 12                         @ ../GUILib/src/widgets/lv_textarea.c:0:12
	add	r5, sp, #4
.Ltmp282:
	.loc	12 154 13 is_stmt 1             @ ../GUILib/src/widgets/lv_textarea.c:154:13
	mov	r0, r5
	bl	lv_anim_init
.Ltmp283:
	.loc	14 135 16                       @ ../GUILib/src/widgets/../misc/lv_anim.h:135:16
	movw	r0, :lower16:pwd_char_hider_anim
	movt	r0, :upper16:pwd_char_hider_anim
.Ltmp284:
	@DEBUG_VALUE: lv_anim_set_exec_cb:exec_cb <- $r0
	str	r0, [sp, #8]
.Ltmp285:
	.loc	12 157 38                       @ ../GUILib/src/widgets/lv_textarea.c:157:38
	ldrh	r0, [r4, #56]
.Ltmp286:
	@DEBUG_VALUE: lv_anim_set_var:var <- $r4
	@DEBUG_VALUE: lv_anim_set_var:a <- [DW_OP_plus_uconst 4, DW_OP_stack_value] $sp
	.loc	14 123 12                       @ ../GUILib/src/widgets/../misc/lv_anim.h:123:12
	str	r4, [sp, #4]
.Ltmp287:
	@DEBUG_VALUE: lv_anim_set_exec_cb:a <- [DW_OP_plus_uconst 4, DW_OP_stack_value] $sp
	@DEBUG_VALUE: lv_anim_set_time:duration <- $r0
	@DEBUG_VALUE: lv_anim_set_time:a <- [DW_OP_plus_uconst 4, DW_OP_stack_value] $sp
	.loc	14 145 13                       @ ../GUILib/src/widgets/../misc/lv_anim.h:145:13
	str	r0, [sp, #44]
	movs	r0, #0
.Ltmp288:
	@DEBUG_VALUE: lv_anim_set_values:end <- 1
	@DEBUG_VALUE: lv_anim_set_values:start <- 0
	@DEBUG_VALUE: lv_anim_set_values:a <- [DW_OP_plus_uconst 4, DW_OP_stack_value] $sp
	.loc	14 166 20                       @ ../GUILib/src/widgets/../misc/lv_anim.h:166:20
	strd	r0, r0, [sp, #32]
	movs	r0, #1
	.loc	14 168 18                       @ ../GUILib/src/widgets/../misc/lv_anim.h:168:18
	str	r0, [sp, #40]
.Ltmp289:
	@DEBUG_VALUE: lv_anim_set_path_cb:a <- [DW_OP_plus_uconst 4, DW_OP_stack_value] $sp
	.loc	14 193 16                       @ ../GUILib/src/widgets/../misc/lv_anim.h:193:16
	movw	r0, :lower16:lv_anim_path_step
	movt	r0, :upper16:lv_anim_path_step
.Ltmp290:
	@DEBUG_VALUE: lv_anim_set_path_cb:path_cb <- $r0
	str	r0, [sp, #28]
.Ltmp291:
	@DEBUG_VALUE: lv_anim_set_ready_cb:a <- [DW_OP_plus_uconst 4, DW_OP_stack_value] $sp
	.loc	14 224 17                       @ ../GUILib/src/widgets/../misc/lv_anim.h:224:17
	movw	r0, :lower16:pwd_char_hider_anim_ready
.Ltmp292:
	movt	r0, :upper16:pwd_char_hider_anim_ready
.Ltmp293:
	@DEBUG_VALUE: lv_anim_set_ready_cb:ready_cb <- $r0
	str	r0, [sp, #16]
.Ltmp294:
	.loc	12 161 13                       @ ../GUILib/src/widgets/lv_textarea.c:161:13
	mov	r0, r5
.Ltmp295:
	bl	lv_anim_start
.Ltmp296:
	.loc	12 0 13 is_stmt 0               @ ../GUILib/src/widgets/lv_textarea.c:0:13
	b	.LBB4_28
.Ltmp297:
	.p2align	2
.LBB4_26:                               @ =>This Inner Loop Header: Depth=1
	@DEBUG_VALUE: lv_textarea_add_char:ta <- $r4
	@DEBUG_VALUE: lv_textarea_add_char:obj <- $r4
	@DEBUG_VALUE: lv_textarea_add_char:c <- [DW_OP_plus_uconst 76, DW_OP_deref] $sp
	@DEBUG_VALUE: lv_textarea_add_char:letter_buf <- [DW_OP_plus_uconst 68, DW_OP_stack_value] $sp
	.loc	12 143 9 is_stmt 1              @ ../GUILib/src/widgets/lv_textarea.c:143:9
	b	.LBB4_26
.Ltmp298:
.LBB4_27:
	@DEBUG_VALUE: lv_textarea_add_char:ta <- $r4
	@DEBUG_VALUE: lv_textarea_add_char:obj <- $r4
	@DEBUG_VALUE: lv_textarea_add_char:c <- [DW_OP_plus_uconst 76, DW_OP_deref] $sp
	@DEBUG_VALUE: lv_textarea_add_char:letter_buf <- [DW_OP_plus_uconst 68, DW_OP_stack_value] $sp
	.loc	12 150 13                       @ ../GUILib/src/widgets/lv_textarea.c:150:13
	mov	r0, r4
	bl	pwd_char_hider
.Ltmp299:
.LBB4_28:
	@DEBUG_VALUE: lv_textarea_add_char:ta <- $r4
	@DEBUG_VALUE: lv_textarea_add_char:obj <- $r4
	@DEBUG_VALUE: lv_textarea_add_char:c <- [DW_OP_plus_uconst 76, DW_OP_deref] $sp
	@DEBUG_VALUE: lv_textarea_add_char:letter_buf <- [DW_OP_plus_uconst 68, DW_OP_stack_value] $sp
	@DEBUG_VALUE: lv_textarea_get_cursor_pos:obj <- $r4
	@DEBUG_VALUE: lv_textarea_get_cursor_pos:ta <- $r4
	.loc	12 615 23                       @ ../GUILib/src/widgets/lv_textarea.c:615:23
	ldr	r0, [r4, #64]
.Ltmp300:
	.loc	12 166 69                       @ ../GUILib/src/widgets/lv_textarea.c:166:69
	adds	r1, r0, #1
	.loc	12 166 5 is_stmt 0              @ ../GUILib/src/widgets/lv_textarea.c:166:5
	mov	r0, r4
	bl	lv_textarea_set_cursor_pos
.Ltmp301:
	.loc	12 168 5 is_stmt 1              @ ../GUILib/src/widgets/lv_textarea.c:168:5
	mov	r0, r4
	movs	r1, #28
	movs	r2, #0
	bl	lv_event_send
.Ltmp302:
.LBB4_29:
	@DEBUG_VALUE: lv_textarea_add_char:ta <- $r4
	@DEBUG_VALUE: lv_textarea_add_char:obj <- $r4
	@DEBUG_VALUE: lv_textarea_add_char:letter_buf <- [DW_OP_plus_uconst 68, DW_OP_stack_value] $sp
	.loc	12 169 1                        @ ../GUILib/src/widgets/lv_textarea.c:169:1
	add	sp, #80
	pop.w	{r4, r5, r6, r7, r8, pc}
.Ltmp303:
.Lfunc_end4:
	.size	lv_textarea_add_char, .Lfunc_end4-lv_textarea_add_char
	.cfi_endproc
	.cantunwind
	.fnend
                                        @ -- End function
	.section	.text.insert_handler,"ax",%progbits
	.p2align	1                               @ -- Begin function insert_handler
	.type	insert_handler,%function
	.code	16                              @ @insert_handler
	.thumb_func
insert_handler:
.Lfunc_begin5:
	.loc	12 1254 0                       @ ../GUILib/src/widgets/lv_textarea.c:1254:0
	.fnstart
	.cfi_startproc
@ %bb.0:
	@DEBUG_VALUE: insert_handler:obj <- $r0
	@DEBUG_VALUE: insert_handler:txt <- $r1
	.save	{r4, r5, r6, lr}
	push	{r4, r5, r6, lr}
	.cfi_def_cfa_offset 16
	.cfi_offset lr, -4
	.cfi_offset r6, -8
	.cfi_offset r5, -12
	.cfi_offset r4, -16
.Ltmp304:
	.loc	12 1255 23 prologue_end         @ ../GUILib/src/widgets/lv_textarea.c:1255:23
	movw	r6, :lower16:ta_insert_replace
	mov	r5, r1
.Ltmp305:
	@DEBUG_VALUE: insert_handler:txt <- $r5
	.loc	12 0 23 is_stmt 0               @ ../GUILib/src/widgets/lv_textarea.c:0:23
	mov	r4, r0
.Ltmp306:
	@DEBUG_VALUE: insert_handler:obj <- $r4
	@DEBUG_VALUE: insert_handler:txt <- $r5
	@DEBUG_VALUE: insert_handler:obj <- $r4
	.loc	12 1255 23                      @ ../GUILib/src/widgets/lv_textarea.c:1255:23
	movt	r6, :upper16:ta_insert_replace
	movs	r0, #0
	str	r0, [r6]
	.loc	12 1256 5 is_stmt 1             @ ../GUILib/src/widgets/lv_textarea.c:1256:5
	mov	r0, r4
	movs	r1, #29
	mov	r2, r5
	bl	lv_event_send
.Ltmp307:
	.loc	12 1257 8                       @ ../GUILib/src/widgets/lv_textarea.c:1257:8
	ldr	r6, [r6]
.Ltmp308:
	.loc	12 1257 8 is_stmt 0             @ ../GUILib/src/widgets/lv_textarea.c:1257:8
	cbz	r6, .LBB5_5
.Ltmp309:
@ %bb.1:
	@DEBUG_VALUE: insert_handler:txt <- $r5
	@DEBUG_VALUE: insert_handler:obj <- $r4
	.loc	12 1258 12 is_stmt 1            @ ../GUILib/src/widgets/lv_textarea.c:1258:12
	ldrb	r0, [r6]
.Ltmp310:
	.loc	12 1258 12 is_stmt 0            @ ../GUILib/src/widgets/lv_textarea.c:1258:12
	cbz	r0, .LBB5_4
.Ltmp311:
@ %bb.2:
	@DEBUG_VALUE: insert_handler:txt <- $r5
	@DEBUG_VALUE: insert_handler:obj <- $r4
	.loc	12 1261 12 is_stmt 1            @ ../GUILib/src/widgets/lv_textarea.c:1261:12
	mov	r0, r6
	mov	r1, r5
	bl	strcmp
.Ltmp312:
	.loc	12 1261 12 is_stmt 0            @ ../GUILib/src/widgets/lv_textarea.c:1261:12
	cbz	r0, .LBB5_5
.Ltmp313:
@ %bb.3:
	@DEBUG_VALUE: insert_handler:txt <- $r5
	@DEBUG_VALUE: insert_handler:obj <- $r4
	.loc	12 1262 13 is_stmt 1            @ ../GUILib/src/widgets/lv_textarea.c:1262:13
	mov	r0, r4
	mov	r1, r6
	bl	lv_textarea_add_text
.Ltmp314:
.LBB5_4:
	@DEBUG_VALUE: insert_handler:txt <- $r5
	@DEBUG_VALUE: insert_handler:obj <- $r4
	.loc	12 0 13 is_stmt 0               @ ../GUILib/src/widgets/lv_textarea.c:0:13
	movs	r0, #0
	.loc	12 1268 1 is_stmt 1             @ ../GUILib/src/widgets/lv_textarea.c:1268:1
	pop	{r4, r5, r6, pc}
.Ltmp315:
.LBB5_5:
	@DEBUG_VALUE: insert_handler:txt <- $r5
	@DEBUG_VALUE: insert_handler:obj <- $r4
	.loc	12 0 1 is_stmt 0                @ ../GUILib/src/widgets/lv_textarea.c:0:1
	movs	r0, #1
	.loc	12 1268 1                       @ ../GUILib/src/widgets/lv_textarea.c:1268:1
	pop	{r4, r5, r6, pc}
.Ltmp316:
.Lfunc_end5:
	.size	insert_handler, .Lfunc_end5-insert_handler
	.cfi_endproc
	.cantunwind
	.fnend
                                        @ -- End function
	.section	.text.pwd_char_hider,"ax",%progbits
	.p2align	2                               @ -- Begin function pwd_char_hider
	.type	pwd_char_hider,%function
	.code	16                              @ @pwd_char_hider
	.thumb_func
pwd_char_hider:
.Lfunc_begin6:
	.loc	12 964 0 is_stmt 1              @ ../GUILib/src/widgets/lv_textarea.c:964:0
	.fnstart
	.cfi_startproc
@ %bb.0:
	@DEBUG_VALUE: pwd_char_hider:obj <- $r0
	.save	{r4, r5, r6, r7, r8, r9, r10, r11, lr}
	push.w	{r4, r5, r6, r7, r8, r9, r10, r11, lr}
	.cfi_def_cfa_offset 36
	.cfi_offset lr, -4
	.cfi_offset r11, -8
	.cfi_offset r10, -12
	.cfi_offset r9, -16
	.cfi_offset r8, -20
	.cfi_offset r7, -24
	.cfi_offset r6, -28
	.cfi_offset r5, -32
	.cfi_offset r4, -36
	.pad	#12
	sub	sp, #12
	.cfi_def_cfa_offset 48
	mov	r11, r0
.Ltmp317:
	@DEBUG_VALUE: pwd_char_hider:ta <- $r11
	@DEBUG_VALUE: pwd_char_hider:obj <- $r11
	.loc	12 966 12 prologue_end          @ ../GUILib/src/widgets/lv_textarea.c:966:12
	ldrb.w	r0, [r0, #92]
.Ltmp318:
	.loc	12 966 8 is_stmt 0              @ ../GUILib/src/widgets/lv_textarea.c:966:8
	lsls	r0, r0, #29
	bpl	.LBB6_7
.Ltmp319:
@ %bb.1:
	@DEBUG_VALUE: pwd_char_hider:obj <- $r11
	@DEBUG_VALUE: pwd_char_hider:ta <- $r11
	@DEBUG_VALUE: pwd_char_hider:ta <- $r11
	.loc	12 967 45 is_stmt 1             @ ../GUILib/src/widgets/lv_textarea.c:967:45
	ldr.w	r0, [r11, #36]
	.loc	12 967 23 is_stmt 0             @ ../GUILib/src/widgets/lv_textarea.c:967:23
	bl	lv_label_get_text
.Ltmp320:
	.loc	12 968 27 is_stmt 1             @ ../GUILib/src/widgets/lv_textarea.c:968:27
	movw	r1, :lower16:_lv_txt_get_encoded_length
	movt	r1, :upper16:_lv_txt_get_encoded_length
	ldr	r1, [r1]
.Ltmp321:
	@DEBUG_VALUE: txt <- $r0
	blx	r1
.Ltmp322:
	@DEBUG_VALUE: enc_len <- $r0
	.loc	12 969 12                       @ ../GUILib/src/widgets/lv_textarea.c:969:12
	cbz	r0, .LBB6_7
.Ltmp323:
@ %bb.2:
	@DEBUG_VALUE: pwd_char_hider:obj <- $r11
	@DEBUG_VALUE: pwd_char_hider:ta <- $r11
	@DEBUG_VALUE: enc_len <- $r0
	.loc	12 0 0 is_stmt 0                @ ../GUILib/src/widgets/lv_textarea.c:0:0
	mov	r9, r0
.Ltmp324:
	@DEBUG_VALUE: enc_len <- $r9
	@DEBUG_VALUE: enc_len <- $r9
	@DEBUG_VALUE: lv_obj_get_style_text_font:obj <- $r11
	@DEBUG_VALUE: lv_obj_get_style_text_font:part <- 0
	.loc	21 333 26 is_stmt 1             @ ../GUILib/src/widgets/../core/lv_obj_style_gen.h:333:26
	mov	r0, r11
	movs	r1, #0
	movw	r2, #5209
	mov.w	r10, #0
	bl	lv_obj_get_style_prop
.Ltmp325:
	@DEBUG_VALUE: font <- $r0
	@DEBUG_VALUE: lv_obj_get_style_text_font:v <- $r0
	.loc	21 0 26 is_stmt 0               @ ../GUILib/src/widgets/../core/lv_obj_style_gen.h:0:26
	mov	r1, sp
.Ltmp326:
	.loc	12 975 22 is_stmt 1             @ ../GUILib/src/widgets/lv_textarea.c:975:22
	movw	r2, #8226
	movs	r3, #0
	bl	lv_font_get_glyph_dsc
.Ltmp327:
	@DEBUG_VALUE: has_bullet <- [DW_OP_LLVM_convert 1 7, DW_OP_LLVM_convert 8 7, DW_OP_stack_value] $r0
	.loc	12 977 12                       @ ../GUILib/src/widgets/lv_textarea.c:977:12
	adr	r7, .LCPI6_1
	movs	r6, #1
	adr	r1, .LCPI6_0
	cmp	r0, #0
	it	ne
	movne	r7, r1
.Ltmp328:
	@DEBUG_VALUE: bullet <- $r7
	.loc	12 980 29                       @ ../GUILib/src/widgets/lv_textarea.c:980:29
	it	ne
	movne	r6, #3
.Ltmp329:
	@DEBUG_VALUE: bullet_len <- $r6
	.loc	12 981 49                       @ ../GUILib/src/widgets/lv_textarea.c:981:49
	mul	r0, r6, r9
.Ltmp330:
	.loc	12 981 62 is_stmt 0             @ ../GUILib/src/widgets/lv_textarea.c:981:62
	adds	r0, #1
	.loc	12 981 26                       @ ../GUILib/src/widgets/lv_textarea.c:981:26
	bl	lv_mem_buf_get
.Ltmp331:
	.loc	12 983 9 is_stmt 1              @ ../GUILib/src/widgets/lv_textarea.c:983:9
	cmp.w	r9, #1
.Ltmp332:
	.loc	12 981 26                       @ ../GUILib/src/widgets/lv_textarea.c:981:26
	mov	r8, r0
.Ltmp333:
	@DEBUG_VALUE: i <- 0
	@DEBUG_VALUE: txt_tmp <- $r8
	.loc	12 983 9                        @ ../GUILib/src/widgets/lv_textarea.c:983:9
	blt	.LBB6_5
.Ltmp334:
@ %bb.3:
	@DEBUG_VALUE: lv_obj_get_style_text_font:obj <- $r11
	@DEBUG_VALUE: pwd_char_hider:obj <- $r11
	@DEBUG_VALUE: pwd_char_hider:ta <- $r11
	@DEBUG_VALUE: enc_len <- $r9
	@DEBUG_VALUE: txt_tmp <- $r8
	@DEBUG_VALUE: bullet <- $r7
	@DEBUG_VALUE: bullet_len <- $r6
	@DEBUG_VALUE: i <- 0
	@DEBUG_VALUE: lv_obj_get_style_text_font:part <- 0
	.loc	12 0 9 is_stmt 0                @ ../GUILib/src/widgets/lv_textarea.c:0:9
	mov	r5, r8
	mov	r4, r9
.Ltmp335:
	.p2align	2
.LBB6_4:                                @ =>This Inner Loop Header: Depth=1
	@DEBUG_VALUE: pwd_char_hider:obj <- $r11
	@DEBUG_VALUE: pwd_char_hider:ta <- $r11
	@DEBUG_VALUE: enc_len <- $r9
	@DEBUG_VALUE: txt_tmp <- $r8
	@DEBUG_VALUE: bullet <- $r7
	@DEBUG_VALUE: bullet_len <- $r6
	@DEBUG_VALUE: i <- undef
	.loc	12 984 13 is_stmt 1             @ ../GUILib/src/widgets/lv_textarea.c:984:13
	mov	r0, r5
	mov	r1, r7
	mov	r2, r6
	bl	lv_memcpy
.Ltmp336:
	@DEBUG_VALUE: i <- [DW_OP_plus_uconst 1, DW_OP_stack_value] undef
	.loc	12 983 22                       @ ../GUILib/src/widgets/lv_textarea.c:983:22
	subs	r4, #1
	add	r5, r6
.Ltmp337:
	.loc	12 983 9 is_stmt 0              @ ../GUILib/src/widgets/lv_textarea.c:983:9
	bne	.LBB6_4
	b	.LBB6_6
.Ltmp338:
.LBB6_5:
	@DEBUG_VALUE: lv_obj_get_style_text_font:obj <- $r11
	@DEBUG_VALUE: pwd_char_hider:obj <- $r11
	@DEBUG_VALUE: pwd_char_hider:ta <- $r11
	@DEBUG_VALUE: enc_len <- $r9
	@DEBUG_VALUE: txt_tmp <- $r8
	@DEBUG_VALUE: bullet <- $r7
	@DEBUG_VALUE: bullet_len <- $r6
	@DEBUG_VALUE: i <- 0
	@DEBUG_VALUE: lv_obj_get_style_text_font:part <- 0
	.loc	12 0 0                          @ ../GUILib/src/widgets/lv_textarea.c:0:0
	mov.w	r9, #0
.Ltmp339:
.LBB6_6:
	@DEBUG_VALUE: pwd_char_hider:obj <- $r11
	@DEBUG_VALUE: pwd_char_hider:ta <- $r11
	@DEBUG_VALUE: txt_tmp <- $r8
	@DEBUG_VALUE: bullet <- $r7
	@DEBUG_VALUE: bullet_len <- $r6
	.loc	12 987 19 is_stmt 1             @ ../GUILib/src/widgets/lv_textarea.c:987:19
	mul	r0, r9, r6
	.loc	12 987 33 is_stmt 0             @ ../GUILib/src/widgets/lv_textarea.c:987:33
	strb.w	r10, [r8, r0]
	.loc	12 989 31 is_stmt 1             @ ../GUILib/src/widgets/lv_textarea.c:989:31
	ldr.w	r0, [r11, #36]
	.loc	12 989 9 is_stmt 0              @ ../GUILib/src/widgets/lv_textarea.c:989:9
	mov	r1, r8
	bl	lv_label_set_text
.Ltmp340:
	.loc	12 990 9 is_stmt 1              @ ../GUILib/src/widgets/lv_textarea.c:990:9
	mov	r0, r8
	bl	lv_mem_buf_release
.Ltmp341:
	.loc	12 991 9                        @ ../GUILib/src/widgets/lv_textarea.c:991:9
	mov	r0, r11
	bl	refr_cursor_area
.Ltmp342:
.LBB6_7:
	@DEBUG_VALUE: pwd_char_hider:obj <- $r11
	@DEBUG_VALUE: pwd_char_hider:ta <- $r11
	.loc	12 0 9 is_stmt 0                @ ../GUILib/src/widgets/lv_textarea.c:0:9
	add	sp, #12
	pop.w	{r4, r5, r6, r7, r8, r9, r10, r11, pc}
.Ltmp343:
	.p2align	2
@ %bb.8:
.LCPI6_0:
.L.str.1:
	.asciz	"\342\200\242"
.LCPI6_1:
.L.str.2:
	.asciz	"*\000\000"
.Lfunc_end6:
	.size	pwd_char_hider, .Lfunc_end6-pwd_char_hider
	.cfi_endproc
	.cantunwind
	.fnend
                                        @ -- End function
	.section	.text.lv_textarea_clear_selection,"ax",%progbits
	.hidden	lv_textarea_clear_selection     @ -- Begin function lv_textarea_clear_selection
	.globl	lv_textarea_clear_selection
	.p2align	1
	.type	lv_textarea_clear_selection,%function
	.code	16                              @ @lv_textarea_clear_selection
	.thumb_func
lv_textarea_clear_selection:
.Lfunc_begin7:
	.loc	12 706 0 is_stmt 1              @ ../GUILib/src/widgets/lv_textarea.c:706:0
	.fnstart
	.cfi_startproc
@ %bb.0:
	@DEBUG_VALUE: lv_textarea_clear_selection:obj <- $r0
	.save	{r4, r5, r7, lr}
	push	{r4, r5, r7, lr}
	.cfi_def_cfa_offset 16
	.cfi_offset lr, -4
	.cfi_offset r7, -8
	.cfi_offset r5, -12
	.cfi_offset r4, -16
.Ltmp344:
	@DEBUG_VALUE: lv_textarea_clear_selection:ta <- $r0
	mov	r4, r0
.Ltmp345:
	@DEBUG_VALUE: lv_textarea_clear_selection:ta <- $r4
	@DEBUG_VALUE: lv_textarea_clear_selection:obj <- $r4
	.loc	12 712 46 prologue_end          @ ../GUILib/src/widgets/lv_textarea.c:712:46
	ldr	r0, [r0, #36]
	.loc	12 712 8 is_stmt 0              @ ../GUILib/src/widgets/lv_textarea.c:712:8
	bl	lv_label_get_text_selection_start
.Ltmp346:
	.loc	12 0 8                          @ ../GUILib/src/widgets/lv_textarea.c:0:8
	movw	r5, #65535
	.loc	12 712 81                       @ ../GUILib/src/widgets/lv_textarea.c:712:81
	cmp	r0, r5
	bne	.LBB7_2
.Ltmp347:
@ %bb.1:
	@DEBUG_VALUE: lv_textarea_clear_selection:obj <- $r4
	@DEBUG_VALUE: lv_textarea_clear_selection:ta <- $r4
	.loc	12 713 44 is_stmt 1             @ ../GUILib/src/widgets/lv_textarea.c:713:44
	ldr	r0, [r4, #36]
	.loc	12 713 8 is_stmt 0              @ ../GUILib/src/widgets/lv_textarea.c:713:8
	bl	lv_label_get_text_selection_end
.Ltmp348:
	.loc	12 712 8 is_stmt 1              @ ../GUILib/src/widgets/lv_textarea.c:712:8
	cmp	r0, r5
	.loc	12 720 1                        @ ../GUILib/src/widgets/lv_textarea.c:720:1
	it	eq
	popeq	{r4, r5, r7, pc}
.Ltmp349:
.LBB7_2:
	.loc	12 714 41                       @ ../GUILib/src/widgets/lv_textarea.c:714:41
	ldr	r0, [r4, #36]
	.loc	12 714 9 is_stmt 0              @ ../GUILib/src/widgets/lv_textarea.c:714:9
	movw	r1, #65535
	bl	lv_label_set_text_sel_start
.Ltmp350:
	.loc	12 715 39 is_stmt 1             @ ../GUILib/src/widgets/lv_textarea.c:715:39
	ldr	r0, [r4, #36]
	.loc	12 715 9 is_stmt 0              @ ../GUILib/src/widgets/lv_textarea.c:715:9
	movw	r1, #65535
	pop.w	{r4, r5, r7, lr}
.Ltmp351:
	b	lv_label_set_text_sel_end
.Ltmp352:
.Lfunc_end7:
	.size	lv_textarea_clear_selection, .Lfunc_end7-lv_textarea_clear_selection
	.cfi_endproc
	.cantunwind
	.fnend
                                        @ -- End function
	.section	.text.pwd_char_hider_anim,"ax",%progbits
	.p2align	1                               @ -- Begin function pwd_char_hider_anim
	.type	pwd_char_hider_anim,%function
	.code	16                              @ @pwd_char_hider_anim
	.thumb_func
pwd_char_hider_anim:
.Lfunc_begin8:
	.loc	12 944 0 is_stmt 1              @ ../GUILib/src/widgets/lv_textarea.c:944:0
	.fnstart
	.cfi_startproc
@ %bb.0:
	@DEBUG_VALUE: pwd_char_hider_anim:obj <- $r0
	@DEBUG_VALUE: pwd_char_hider_anim:x <- $r1
	.loc	12 947 1 prologue_end           @ ../GUILib/src/widgets/lv_textarea.c:947:1
	bx	lr
.Ltmp353:
.Lfunc_end8:
	.size	pwd_char_hider_anim, .Lfunc_end8-pwd_char_hider_anim
	.cfi_endproc
	.cantunwind
	.fnend
                                        @ -- End function
	.section	.text.pwd_char_hider_anim_ready,"ax",%progbits
	.p2align	1                               @ -- Begin function pwd_char_hider_anim_ready
	.type	pwd_char_hider_anim_ready,%function
	.code	16                              @ @pwd_char_hider_anim_ready
	.thumb_func
pwd_char_hider_anim_ready:
.Lfunc_begin9:
	.loc	12 954 0                        @ ../GUILib/src/widgets/lv_textarea.c:954:0
	.fnstart
	.cfi_startproc
@ %bb.0:
	@DEBUG_VALUE: pwd_char_hider_anim_ready:a <- $r0
	@DEBUG_VALUE: pwd_char_hider_anim_ready:a <- $r0
	.loc	12 955 25 prologue_end          @ ../GUILib/src/widgets/lv_textarea.c:955:25
	ldr	r0, [r0]
.Ltmp354:
	@DEBUG_VALUE: pwd_char_hider_anim_ready:a <- [DW_OP_LLVM_entry_value 1] $r0
	@DEBUG_VALUE: pwd_char_hider_anim_ready:obj <- $r0
	.loc	12 956 5                        @ ../GUILib/src/widgets/lv_textarea.c:956:5
	b	pwd_char_hider
.Ltmp355:
.Lfunc_end9:
	.size	pwd_char_hider_anim_ready, .Lfunc_end9-pwd_char_hider_anim_ready
	.cfi_endproc
	.cantunwind
	.fnend
                                        @ -- End function
	.section	.text.lv_textarea_set_cursor_pos,"ax",%progbits
	.hidden	lv_textarea_set_cursor_pos      @ -- Begin function lv_textarea_set_cursor_pos
	.globl	lv_textarea_set_cursor_pos
	.p2align	1
	.type	lv_textarea_set_cursor_pos,%function
	.code	16                              @ @lv_textarea_set_cursor_pos
	.thumb_func
lv_textarea_set_cursor_pos:
.Lfunc_begin10:
	.loc	12 387 0                        @ ../GUILib/src/widgets/lv_textarea.c:387:0
	.fnstart
	.cfi_startproc
@ %bb.0:
	@DEBUG_VALUE: lv_textarea_set_cursor_pos:obj <- $r0
	@DEBUG_VALUE: lv_textarea_set_cursor_pos:pos <- $r1
	.save	{r4, r5, r6, r7, r8, lr}
	push.w	{r4, r5, r6, r7, r8, lr}
	.cfi_def_cfa_offset 24
	.cfi_offset lr, -4
	.cfi_offset r8, -8
	.cfi_offset r7, -12
	.cfi_offset r6, -16
	.cfi_offset r5, -20
	.cfi_offset r4, -24
	.pad	#8
	sub	sp, #8
	.cfi_def_cfa_offset 32
	mov	r4, r0
.Ltmp356:
	@DEBUG_VALUE: lv_textarea_set_cursor_pos:ta <- $r4
	@DEBUG_VALUE: lv_textarea_set_cursor_pos:obj <- $r4
	.loc	12 391 29 prologue_end          @ ../GUILib/src/widgets/lv_textarea.c:391:29
	ldr	r0, [r0, #64]
.Ltmp357:
	@DEBUG_VALUE: lv_textarea_set_cursor_pos:pos <- $r1
	.loc	12 391 8 is_stmt 0              @ ../GUILib/src/widgets/lv_textarea.c:391:8
	cmp	r0, r1
	beq	.LBB10_10
.Ltmp358:
@ %bb.1:
	@DEBUG_VALUE: lv_textarea_set_cursor_pos:obj <- $r4
	@DEBUG_VALUE: lv_textarea_set_cursor_pos:ta <- $r4
	@DEBUG_VALUE: lv_textarea_set_cursor_pos:pos <- $r1
	.loc	12 393 20 is_stmt 1             @ ../GUILib/src/widgets/lv_textarea.c:393:20
	movw	r0, :lower16:_lv_txt_get_encoded_length
	movt	r0, :upper16:_lv_txt_get_encoded_length
	ldr	r6, [r0]
	.loc	12 393 69 is_stmt 0             @ ../GUILib/src/widgets/lv_textarea.c:393:69
	ldr	r0, [r4, #36]
	mov	r5, r1
.Ltmp359:
	@DEBUG_VALUE: lv_textarea_set_cursor_pos:pos <- $r5
	@DEBUG_VALUE: lv_textarea_set_cursor_pos:pos <- $r5
	@DEBUG_VALUE: lv_textarea_set_cursor_pos:ta <- $r4
	.loc	12 393 47                       @ ../GUILib/src/widgets/lv_textarea.c:393:47
	bl	lv_label_get_text
.Ltmp360:
	.loc	12 393 20                       @ ../GUILib/src/widgets/lv_textarea.c:393:20
	blx	r6
.Ltmp361:
	@DEBUG_VALUE: lv_textarea_set_cursor_pos:len <- $r0
	.loc	12 395 8 is_stmt 1              @ ../GUILib/src/widgets/lv_textarea.c:395:8
	cmp	r5, #0
	it	mi
	addmi	r5, r0
.Ltmp362:
	@DEBUG_VALUE: lv_textarea_set_cursor_pos:pos <- [DW_OP_LLVM_entry_value 1] $r1
	@DEBUG_VALUE: lv_textarea_set_cursor_pos:pos <- $r5
	.loc	12 0 8 is_stmt 0                @ ../GUILib/src/widgets/lv_textarea.c:0:8
	movw	r1, #32767
.Ltmp363:
	.loc	12 397 27 is_stmt 1             @ ../GUILib/src/widgets/lv_textarea.c:397:27
	mov	r6, r5
	cmp	r5, r1
	it	eq
	moveq	r6, r0
	cmp	r5, r0
	it	gt
	movgt	r6, r0
.Ltmp364:
	@DEBUG_VALUE: lv_textarea_set_cursor_pos:len <- $r6
	@DEBUG_VALUE: lv_textarea_set_cursor_pos:pos <- $r6
	.loc	12 402 5                        @ ../GUILib/src/widgets/lv_textarea.c:402:5
	mov	r0, r4
	.loc	12 399 20                       @ ../GUILib/src/widgets/lv_textarea.c:399:20
	str	r6, [r4, #64]
	.loc	12 402 5                        @ ../GUILib/src/widgets/lv_textarea.c:402:5
	bl	lv_obj_update_layout
.Ltmp365:
	@DEBUG_VALUE: lv_obj_get_style_text_font:part <- 0
	@DEBUG_VALUE: lv_obj_get_style_text_font:obj <- $r4
	.loc	21 333 26                       @ ../GUILib/src/widgets/../core/lv_obj_style_gen.h:333:26
	mov	r0, r4
	movs	r1, #0
	movw	r2, #5209
	bl	lv_obj_get_style_prop
.Ltmp366:
	.loc	12 406 33                       @ ../GUILib/src/widgets/lv_textarea.c:406:33
	ldr	r1, [r4, #36]
.Ltmp367:
	.loc	21 333 26                       @ ../GUILib/src/widgets/../core/lv_obj_style_gen.h:333:26
	mov	r5, r0
.Ltmp368:
	@DEBUG_VALUE: lv_font_get_line_height:font_p <- $r5
	@DEBUG_VALUE: lv_textarea_set_cursor_pos:font <- $r5
	@DEBUG_VALUE: lv_obj_get_style_text_font:v <- $r5
	@DEBUG_VALUE: lv_obj_get_style_text_font:part <- 0
	@DEBUG_VALUE: lv_obj_get_style_text_font:obj <- $r4
	.loc	21 0 26 is_stmt 0               @ ../GUILib/src/widgets/../core/lv_obj_style_gen.h:0:26
	add	r2, sp, #4
.Ltmp369:
	.loc	12 406 5 is_stmt 1              @ ../GUILib/src/widgets/lv_textarea.c:406:5
	mov	r0, r1
	mov	r1, r6
	bl	lv_label_get_letter_pos
.Ltmp370:
	.loc	12 417 20                       @ ../GUILib/src/widgets/lv_textarea.c:417:20
	ldrsh.w	r6, [r5, #8]
.Ltmp371:
	@DEBUG_VALUE: lv_textarea_set_cursor_pos:font_h <- $r6
	.loc	12 412 16                       @ ../GUILib/src/widgets/lv_textarea.c:412:16
	ldrsh.w	r5, [sp, #6]
.Ltmp372:
	.loc	12 412 20 is_stmt 0             @ ../GUILib/src/widgets/lv_textarea.c:412:20
	mov	r0, r4
	bl	lv_obj_get_scroll_top
.Ltmp373:
	.loc	12 412 8                        @ ../GUILib/src/widgets/lv_textarea.c:412:8
	cmp	r5, r0
	bge	.LBB10_3
.Ltmp374:
@ %bb.2:
	@DEBUG_VALUE: lv_textarea_set_cursor_pos:font_h <- $r6
	@DEBUG_VALUE: lv_textarea_set_cursor_pos:obj <- $r4
	@DEBUG_VALUE: lv_textarea_set_cursor_pos:ta <- $r4
	.loc	12 413 41 is_stmt 1             @ ../GUILib/src/widgets/lv_textarea.c:413:41
	ldrsh.w	r1, [sp, #6]
	.loc	12 413 9 is_stmt 0              @ ../GUILib/src/widgets/lv_textarea.c:413:9
	mov	r0, r4
	movs	r2, #1
	bl	lv_obj_scroll_to_y
.Ltmp375:
.LBB10_3:
	@DEBUG_VALUE: lv_textarea_set_cursor_pos:font_h <- $r6
	@DEBUG_VALUE: lv_textarea_set_cursor_pos:obj <- $r4
	@DEBUG_VALUE: lv_textarea_set_cursor_pos:ta <- $r4
	.loc	12 416 20 is_stmt 1             @ ../GUILib/src/widgets/lv_textarea.c:416:20
	mov	r0, r4
	.loc	12 0 0 is_stmt 0                @ ../GUILib/src/widgets/lv_textarea.c:0:0
	uxth.w	r8, r6
	.loc	12 416 20                       @ ../GUILib/src/widgets/lv_textarea.c:416:20
	bl	lv_obj_get_content_height
.Ltmp376:
	.loc	12 417 16 is_stmt 1             @ ../GUILib/src/widgets/lv_textarea.c:417:16
	ldrsh.w	r1, [sp, #6]
.Ltmp377:
	.loc	12 416 20                       @ ../GUILib/src/widgets/lv_textarea.c:416:20
	mov	r5, r0
.Ltmp378:
	@DEBUG_VALUE: lv_textarea_set_cursor_pos:h <- undef
	.loc	12 417 29                       @ ../GUILib/src/widgets/lv_textarea.c:417:29
	mov	r0, r4
	.loc	12 417 18 is_stmt 0             @ ../GUILib/src/widgets/lv_textarea.c:417:18
	adds	r7, r1, r6
	.loc	12 417 29                       @ ../GUILib/src/widgets/lv_textarea.c:417:29
	bl	lv_obj_get_scroll_top
.Ltmp379:
	.loc	12 417 27                       @ ../GUILib/src/widgets/lv_textarea.c:417:27
	subs	r0, r7, r0
.Ltmp380:
	.loc	12 417 8                        @ ../GUILib/src/widgets/lv_textarea.c:417:8
	cmp	r0, r5
	ble	.LBB10_5
.Ltmp381:
@ %bb.4:
	@DEBUG_VALUE: lv_textarea_set_cursor_pos:font_h <- $r6
	@DEBUG_VALUE: lv_textarea_set_cursor_pos:obj <- $r4
	@DEBUG_VALUE: lv_textarea_set_cursor_pos:ta <- $r4
	.loc	12 418 41 is_stmt 1             @ ../GUILib/src/widgets/lv_textarea.c:418:41
	ldrh.w	r0, [sp, #6]
	.loc	12 418 43 is_stmt 0             @ ../GUILib/src/widgets/lv_textarea.c:418:43
	sub.w	r1, r8, r5
	.loc	12 418 47                       @ ../GUILib/src/widgets/lv_textarea.c:418:47
	add	r0, r1
	.loc	12 418 9                        @ ../GUILib/src/widgets/lv_textarea.c:418:9
	sxth	r1, r0
	mov	r0, r4
	movs	r2, #1
	bl	lv_obj_scroll_to_y
.Ltmp382:
.LBB10_5:
	@DEBUG_VALUE: lv_textarea_set_cursor_pos:font_h <- $r6
	@DEBUG_VALUE: lv_textarea_set_cursor_pos:obj <- $r4
	@DEBUG_VALUE: lv_textarea_set_cursor_pos:ta <- $r4
	.loc	12 422 16 is_stmt 1             @ ../GUILib/src/widgets/lv_textarea.c:422:16
	ldrsh.w	r5, [sp, #4]
	.loc	12 422 20 is_stmt 0             @ ../GUILib/src/widgets/lv_textarea.c:422:20
	mov	r0, r4
	bl	lv_obj_get_scroll_left
.Ltmp383:
	.loc	12 422 8                        @ ../GUILib/src/widgets/lv_textarea.c:422:8
	cmp	r5, r0
	bge	.LBB10_7
.Ltmp384:
@ %bb.6:
	@DEBUG_VALUE: lv_textarea_set_cursor_pos:font_h <- $r6
	@DEBUG_VALUE: lv_textarea_set_cursor_pos:obj <- $r4
	@DEBUG_VALUE: lv_textarea_set_cursor_pos:ta <- $r4
	.loc	12 423 41 is_stmt 1             @ ../GUILib/src/widgets/lv_textarea.c:423:41
	ldrsh.w	r1, [sp, #4]
	.loc	12 423 9 is_stmt 0              @ ../GUILib/src/widgets/lv_textarea.c:423:9
	mov	r0, r4
	movs	r2, #1
	bl	lv_obj_scroll_to_x
.Ltmp385:
.LBB10_7:
	@DEBUG_VALUE: lv_textarea_set_cursor_pos:font_h <- $r6
	@DEBUG_VALUE: lv_textarea_set_cursor_pos:obj <- $r4
	@DEBUG_VALUE: lv_textarea_set_cursor_pos:ta <- $r4
	.loc	12 426 20 is_stmt 1             @ ../GUILib/src/widgets/lv_textarea.c:426:20
	mov	r0, r4
	bl	lv_obj_get_content_width
.Ltmp386:
	.loc	12 427 16                       @ ../GUILib/src/widgets/lv_textarea.c:427:16
	ldrsh.w	r1, [sp, #4]
.Ltmp387:
	.loc	12 426 20                       @ ../GUILib/src/widgets/lv_textarea.c:426:20
	mov	r5, r0
.Ltmp388:
	@DEBUG_VALUE: lv_textarea_set_cursor_pos:w <- undef
	.loc	12 427 29                       @ ../GUILib/src/widgets/lv_textarea.c:427:29
	mov	r0, r4
	.loc	12 427 18 is_stmt 0             @ ../GUILib/src/widgets/lv_textarea.c:427:18
	add	r6, r1
.Ltmp389:
	.loc	12 427 29                       @ ../GUILib/src/widgets/lv_textarea.c:427:29
	bl	lv_obj_get_scroll_left
.Ltmp390:
	.loc	12 427 27                       @ ../GUILib/src/widgets/lv_textarea.c:427:27
	subs	r0, r6, r0
.Ltmp391:
	.loc	12 427 8                        @ ../GUILib/src/widgets/lv_textarea.c:427:8
	cmp	r0, r5
	ble	.LBB10_9
.Ltmp392:
@ %bb.8:
	@DEBUG_VALUE: lv_textarea_set_cursor_pos:obj <- $r4
	@DEBUG_VALUE: lv_textarea_set_cursor_pos:ta <- $r4
	.loc	12 428 41 is_stmt 1             @ ../GUILib/src/widgets/lv_textarea.c:428:41
	ldrh.w	r0, [sp, #4]
	.loc	12 428 43 is_stmt 0             @ ../GUILib/src/widgets/lv_textarea.c:428:43
	sub.w	r1, r8, r5
	.loc	12 428 47                       @ ../GUILib/src/widgets/lv_textarea.c:428:47
	add	r0, r1
	.loc	12 428 9                        @ ../GUILib/src/widgets/lv_textarea.c:428:9
	sxth	r1, r0
	mov	r0, r4
	movs	r2, #1
	bl	lv_obj_scroll_to_x
.Ltmp393:
.LBB10_9:
	@DEBUG_VALUE: lv_textarea_set_cursor_pos:obj <- $r4
	@DEBUG_VALUE: lv_textarea_set_cursor_pos:ta <- $r4
	.loc	12 431 34 is_stmt 1             @ ../GUILib/src/widgets/lv_textarea.c:431:34
	ldrh.w	r0, [sp, #4]
	.loc	12 431 24 is_stmt 0             @ ../GUILib/src/widgets/lv_textarea.c:431:24
	strh	r0, [r4, #60]
	.loc	12 433 5 is_stmt 1              @ ../GUILib/src/widgets/lv_textarea.c:433:5
	mov	r0, r4
	bl	start_cursor_blink
.Ltmp394:
	.loc	12 435 5                        @ ../GUILib/src/widgets/lv_textarea.c:435:5
	mov	r0, r4
	bl	refr_cursor_area
.Ltmp395:
.LBB10_10:
	@DEBUG_VALUE: lv_textarea_set_cursor_pos:obj <- $r4
	@DEBUG_VALUE: lv_textarea_set_cursor_pos:ta <- $r4
	.loc	12 436 1                        @ ../GUILib/src/widgets/lv_textarea.c:436:1
	add	sp, #8
	pop.w	{r4, r5, r6, r7, r8, pc}
.Ltmp396:
.Lfunc_end10:
	.size	lv_textarea_set_cursor_pos, .Lfunc_end10-lv_textarea_set_cursor_pos
	.cfi_endproc
	.cantunwind
	.fnend
                                        @ -- End function
	.section	.text.lv_textarea_get_cursor_pos,"ax",%progbits
	.hidden	lv_textarea_get_cursor_pos      @ -- Begin function lv_textarea_get_cursor_pos
	.globl	lv_textarea_get_cursor_pos
	.p2align	1
	.type	lv_textarea_get_cursor_pos,%function
	.code	16                              @ @lv_textarea_get_cursor_pos
	.thumb_func
lv_textarea_get_cursor_pos:
.Lfunc_begin11:
	.loc	12 611 0                        @ ../GUILib/src/widgets/lv_textarea.c:611:0
	.fnstart
	.cfi_startproc
@ %bb.0:
	@DEBUG_VALUE: lv_textarea_get_cursor_pos:obj <- $r0
	@DEBUG_VALUE: lv_textarea_get_cursor_pos:obj <- $r0
	@DEBUG_VALUE: lv_textarea_get_cursor_pos:ta <- $r0
	@DEBUG_VALUE: lv_textarea_get_cursor_pos:ta <- $r0
	.loc	12 615 23 prologue_end          @ ../GUILib/src/widgets/lv_textarea.c:615:23
	ldr	r0, [r0, #64]
.Ltmp397:
	@DEBUG_VALUE: lv_textarea_get_cursor_pos:obj <- [DW_OP_LLVM_entry_value 1] $r0
	.loc	12 615 5 is_stmt 0              @ ../GUILib/src/widgets/lv_textarea.c:615:5
	bx	lr
.Ltmp398:
.Lfunc_end11:
	.size	lv_textarea_get_cursor_pos, .Lfunc_end11-lv_textarea_get_cursor_pos
	.cfi_endproc
	.cantunwind
	.fnend
                                        @ -- End function
	.section	.text.lv_textarea_add_text,"ax",%progbits
	.hidden	lv_textarea_add_text            @ -- Begin function lv_textarea_add_text
	.globl	lv_textarea_add_text
	.p2align	1
	.type	lv_textarea_add_text,%function
	.code	16                              @ @lv_textarea_add_text
	.thumb_func
lv_textarea_add_text:
.Lfunc_begin12:
	.loc	12 172 0 is_stmt 1              @ ../GUILib/src/widgets/lv_textarea.c:172:0
	.fnstart
	.cfi_startproc
@ %bb.0:
	@DEBUG_VALUE: lv_textarea_add_text:obj <- $r0
	@DEBUG_VALUE: lv_textarea_add_text:txt <- $r1
	@DEBUG_VALUE: lv_textarea_add_text:txt <- $r1
	.save	{r4, r5, r6, r7, r8, lr}
	push.w	{r4, r5, r6, r7, r8, lr}
	.cfi_def_cfa_offset 24
	.cfi_offset lr, -4
	.cfi_offset r8, -8
	.cfi_offset r7, -12
	.cfi_offset r6, -16
	.cfi_offset r5, -20
	.cfi_offset r4, -24
	.pad	#64
	sub	sp, #64
	.cfi_def_cfa_offset 88
	@DEBUG_VALUE: lv_textarea_add_text:obj <- $r0
.Ltmp399:
	.loc	12 174 5 prologue_end           @ ../GUILib/src/widgets/lv_textarea.c:174:5
	cbz	r1, .LBB12_9
.Ltmp400:
@ %bb.1:
	@DEBUG_VALUE: lv_textarea_add_text:txt <- $r1
	@DEBUG_VALUE: lv_textarea_add_text:obj <- $r0
	.loc	12 0 5 is_stmt 0                @ ../GUILib/src/widgets/lv_textarea.c:0:5
	mov	r8, r0
.Ltmp401:
	@DEBUG_VALUE: lv_textarea_add_text:obj <- $r8
	@DEBUG_VALUE: lv_textarea_add_text:ta <- $r8
	.loc	12 178 12 is_stmt 1             @ ../GUILib/src/widgets/lv_textarea.c:178:12
	ldrb.w	r0, [r0, #92]
	mov	r5, r1
.Ltmp402:
	@DEBUG_VALUE: lv_textarea_add_text:txt <- $r5
	@DEBUG_VALUE: lv_textarea_add_text:txt <- $r5
	.loc	12 178 8 is_stmt 0              @ ../GUILib/src/widgets/lv_textarea.c:178:8
	lsls	r0, r0, #29
	bpl	.LBB12_3
.Ltmp403:
@ %bb.2:
	@DEBUG_VALUE: lv_textarea_add_text:ta <- $r8
	@DEBUG_VALUE: lv_textarea_add_text:obj <- $r8
	@DEBUG_VALUE: lv_textarea_add_text:txt <- $r5
	.loc	12 178 27                       @ ../GUILib/src/widgets/lv_textarea.c:178:27
	mov	r0, r8
	bl	pwd_char_hider
.Ltmp404:
.LBB12_3:
	@DEBUG_VALUE: lv_textarea_add_text:ta <- $r8
	@DEBUG_VALUE: lv_textarea_add_text:obj <- $r8
	@DEBUG_VALUE: lv_textarea_add_text:txt <- $r5
	@DEBUG_VALUE: lv_textarea_get_accepted_chars:obj <- $r8
	@DEBUG_VALUE: lv_textarea_get_accepted_chars:ta <- $r8
	.loc	12 648 16 is_stmt 1             @ ../GUILib/src/widgets/lv_textarea.c:648:16
	ldr.w	r0, [r8, #48]
.Ltmp405:
	.loc	12 181 44                       @ ../GUILib/src/widgets/lv_textarea.c:181:44
	cbnz	r0, .LBB12_5
.Ltmp406:
@ %bb.4:
	@DEBUG_VALUE: lv_textarea_add_text:ta <- $r8
	@DEBUG_VALUE: lv_textarea_add_text:obj <- $r8
	@DEBUG_VALUE: lv_textarea_add_text:txt <- $r5
	@DEBUG_VALUE: lv_textarea_get_max_length:obj <- $r8
	@DEBUG_VALUE: lv_textarea_get_max_length:ta <- $r8
	.loc	12 656 16                       @ ../GUILib/src/widgets/lv_textarea.c:656:16
	ldr.w	r0, [r8, #52]
.Ltmp407:
	.loc	12 181 8                        @ ../GUILib/src/widgets/lv_textarea.c:181:8
	cbz	r0, .LBB12_10
.Ltmp408:
.LBB12_5:
	@DEBUG_VALUE: lv_textarea_add_text:ta <- $r8
	@DEBUG_VALUE: lv_textarea_add_text:obj <- $r8
	@DEBUG_VALUE: lv_textarea_add_text:txt <- $r5
	.loc	12 183 15                       @ ../GUILib/src/widgets/lv_textarea.c:183:15
	ldrb	r0, [r5]
	movs	r1, #0
.Ltmp409:
	@DEBUG_VALUE: i <- 0
	.loc	12 182 18                       @ ../GUILib/src/widgets/lv_textarea.c:182:18
	str	r1, [sp]
	.loc	12 183 9                        @ ../GUILib/src/widgets/lv_textarea.c:183:9
	cbz	r0, .LBB12_8
.Ltmp410:
@ %bb.6:
	@DEBUG_VALUE: lv_textarea_add_text:ta <- $r8
	@DEBUG_VALUE: lv_textarea_add_text:obj <- $r8
	@DEBUG_VALUE: lv_textarea_add_text:txt <- $r5
	@DEBUG_VALUE: i <- 0
	.loc	12 0 9 is_stmt 0                @ ../GUILib/src/widgets/lv_textarea.c:0:9
	movw	r7, :lower16:_lv_txt_encoded_next
	movw	r4, :lower16:_lv_txt_unicode_to_encoded
	movt	r7, :upper16:_lv_txt_encoded_next
	mov	r6, sp
	movt	r4, :upper16:_lv_txt_unicode_to_encoded
.Ltmp411:
	.p2align	2
.LBB12_7:                               @ =>This Inner Loop Header: Depth=1
	@DEBUG_VALUE: lv_textarea_add_text:ta <- $r8
	@DEBUG_VALUE: lv_textarea_add_text:obj <- $r8
	@DEBUG_VALUE: lv_textarea_add_text:txt <- $r5
	.loc	12 184 26 is_stmt 1             @ ../GUILib/src/widgets/lv_textarea.c:184:26
	ldr	r2, [r7]
.Ltmp412:
	@DEBUG_VALUE: i <- [DW_OP_deref] $sp
	mov	r0, r5
	mov	r1, r6
	blx	r2
.Ltmp413:
	.loc	12 185 39                       @ ../GUILib/src/widgets/lv_textarea.c:185:39
	ldr	r1, [r4]
.Ltmp414:
	@DEBUG_VALUE: c <- $r0
	blx	r1
.Ltmp415:
	mov	r1, r0
	.loc	12 185 13 is_stmt 0             @ ../GUILib/src/widgets/lv_textarea.c:185:13
	mov	r0, r8
	bl	lv_textarea_add_char
.Ltmp416:
	.loc	12 183 19 is_stmt 1             @ ../GUILib/src/widgets/lv_textarea.c:183:19
	ldr	r0, [sp]
.Ltmp417:
	@DEBUG_VALUE: i <- $r0
	.loc	12 183 15 is_stmt 0             @ ../GUILib/src/widgets/lv_textarea.c:183:15
	ldrb	r0, [r5, r0]
.Ltmp418:
	.loc	12 183 9                        @ ../GUILib/src/widgets/lv_textarea.c:183:9
	cmp	r0, #0
	bne	.LBB12_7
.Ltmp419:
.LBB12_8:
	@DEBUG_VALUE: lv_textarea_add_text:ta <- $r8
	@DEBUG_VALUE: lv_textarea_add_text:obj <- $r8
	@DEBUG_VALUE: lv_textarea_add_text:txt <- $r5
	.loc	12 231 1 is_stmt 1              @ ../GUILib/src/widgets/lv_textarea.c:231:1
	add	sp, #64
	pop.w	{r4, r5, r6, r7, r8, pc}
.Ltmp420:
	.p2align	2
.LBB12_9:                               @ =>This Inner Loop Header: Depth=1
	@DEBUG_VALUE: lv_textarea_add_text:txt <- $r1
	@DEBUG_VALUE: lv_textarea_add_text:obj <- $r0
	.loc	12 174 5                        @ ../GUILib/src/widgets/lv_textarea.c:174:5
	b	.LBB12_9
.Ltmp421:
.LBB12_10:
	@DEBUG_VALUE: lv_textarea_add_text:ta <- $r8
	@DEBUG_VALUE: lv_textarea_add_text:obj <- $r8
	@DEBUG_VALUE: lv_textarea_add_text:txt <- $r5
	.loc	12 190 20                       @ ../GUILib/src/widgets/lv_textarea.c:190:20
	mov	r0, r8
	mov	r1, r5
	bl	insert_handler
.Ltmp422:
	@DEBUG_VALUE: lv_textarea_add_text:res <- $r0
	.loc	12 191 8                        @ ../GUILib/src/widgets/lv_textarea.c:191:8
	cmp	r0, #1
	bne	.LBB12_8
.Ltmp423:
@ %bb.11:
	@DEBUG_VALUE: lv_textarea_add_text:ta <- $r8
	@DEBUG_VALUE: lv_textarea_add_text:obj <- $r8
	@DEBUG_VALUE: lv_textarea_add_text:txt <- $r5
	@DEBUG_VALUE: lv_textarea_add_text:res <- $r0
	.loc	12 194 12                       @ ../GUILib/src/widgets/lv_textarea.c:194:12
	ldr.w	r0, [r8, #40]
.Ltmp424:
	.loc	12 194 8 is_stmt 0              @ ../GUILib/src/widgets/lv_textarea.c:194:8
	cbz	r0, .LBB12_14
.Ltmp425:
@ %bb.12:
	@DEBUG_VALUE: lv_textarea_add_text:ta <- $r8
	@DEBUG_VALUE: lv_textarea_add_text:obj <- $r8
	@DEBUG_VALUE: lv_textarea_add_text:txt <- $r5
	.loc	12 195 54 is_stmt 1             @ ../GUILib/src/widgets/lv_textarea.c:195:54
	ldr.w	r0, [r8, #36]
	.loc	12 195 32 is_stmt 0             @ ../GUILib/src/widgets/lv_textarea.c:195:32
	bl	lv_label_get_text
.Ltmp426:
	@DEBUG_VALUE: txt_act <- $r0
	.loc	12 196 12 is_stmt 1             @ ../GUILib/src/widgets/lv_textarea.c:196:12
	ldrb	r0, [r0]
.Ltmp427:
	.loc	12 196 12 is_stmt 0             @ ../GUILib/src/widgets/lv_textarea.c:196:12
	cbnz	r0, .LBB12_14
.Ltmp428:
@ %bb.13:
	@DEBUG_VALUE: lv_textarea_add_text:ta <- $r8
	@DEBUG_VALUE: lv_textarea_add_text:obj <- $r8
	@DEBUG_VALUE: lv_textarea_add_text:txt <- $r5
	.loc	12 196 32                       @ ../GUILib/src/widgets/lv_textarea.c:196:32
	mov	r0, r8
	bl	lv_obj_invalidate
.Ltmp429:
.LBB12_14:
	@DEBUG_VALUE: lv_textarea_add_text:ta <- $r8
	@DEBUG_VALUE: lv_textarea_add_text:obj <- $r8
	@DEBUG_VALUE: lv_textarea_add_text:txt <- $r5
	.loc	12 200 27 is_stmt 1             @ ../GUILib/src/widgets/lv_textarea.c:200:27
	ldr.w	r0, [r8, #36]
	.loc	12 200 45 is_stmt 0             @ ../GUILib/src/widgets/lv_textarea.c:200:45
	ldr.w	r1, [r8, #64]
	.loc	12 200 5                        @ ../GUILib/src/widgets/lv_textarea.c:200:5
	mov	r2, r5
	bl	lv_label_ins_text
.Ltmp430:
	.loc	12 201 5 is_stmt 1              @ ../GUILib/src/widgets/lv_textarea.c:201:5
	mov	r0, r8
	bl	lv_textarea_clear_selection
.Ltmp431:
	.loc	12 203 12                       @ ../GUILib/src/widgets/lv_textarea.c:203:12
	ldrb.w	r0, [r8, #92]
.Ltmp432:
	.loc	12 203 8 is_stmt 0              @ ../GUILib/src/widgets/lv_textarea.c:203:8
	lsls	r0, r0, #29
	bpl	.LBB12_20
.Ltmp433:
@ %bb.15:
	@DEBUG_VALUE: lv_textarea_add_text:ta <- $r8
	@DEBUG_VALUE: lv_textarea_add_text:obj <- $r8
	@DEBUG_VALUE: lv_textarea_add_text:txt <- $r5
	.loc	12 204 42 is_stmt 1             @ ../GUILib/src/widgets/lv_textarea.c:204:42
	ldr.w	r6, [r8, #44]
	.loc	12 204 51 is_stmt 0             @ ../GUILib/src/widgets/lv_textarea.c:204:51
	mov	r0, r6
	bl	strlen
.Ltmp434:
	mov	r7, r0
	.loc	12 204 73                       @ ../GUILib/src/widgets/lv_textarea.c:204:73
	mov	r0, r5
	bl	strlen
.Ltmp435:
	.loc	12 204 71                       @ ../GUILib/src/widgets/lv_textarea.c:204:71
	add	r0, r7
	.loc	12 204 85                       @ ../GUILib/src/widgets/lv_textarea.c:204:85
	adds	r1, r0, #1
	.loc	12 204 23                       @ ../GUILib/src/widgets/lv_textarea.c:204:23
	mov	r0, r6
	bl	lv_mem_realloc
.Ltmp436:
	.loc	12 204 21                       @ ../GUILib/src/widgets/lv_textarea.c:204:21
	str.w	r0, [r8, #44]
.Ltmp437:
	.loc	12 205 9 is_stmt 1              @ ../GUILib/src/widgets/lv_textarea.c:205:9
	cbz	r0, .LBB12_18
.Ltmp438:
@ %bb.16:
	@DEBUG_VALUE: lv_textarea_add_text:ta <- $r8
	@DEBUG_VALUE: lv_textarea_add_text:obj <- $r8
	@DEBUG_VALUE: lv_textarea_add_text:txt <- $r5
	.loc	12 208 45                       @ ../GUILib/src/widgets/lv_textarea.c:208:45
	ldr.w	r1, [r8, #64]
	.loc	12 208 9 is_stmt 0              @ ../GUILib/src/widgets/lv_textarea.c:208:9
	mov	r2, r5
	bl	_lv_txt_ins
.Ltmp439:
	.loc	12 211 16 is_stmt 1             @ ../GUILib/src/widgets/lv_textarea.c:211:16
	ldrh.w	r0, [r8, #56]
.Ltmp440:
	.loc	12 211 12 is_stmt 0             @ ../GUILib/src/widgets/lv_textarea.c:211:12
	cbz	r0, .LBB12_19
.Ltmp441:
@ %bb.17:
	@DEBUG_VALUE: lv_textarea_add_text:ta <- $r8
	@DEBUG_VALUE: lv_textarea_add_text:obj <- $r8
	@DEBUG_VALUE: lv_textarea_add_text:txt <- $r5
	.loc	12 0 12                         @ ../GUILib/src/widgets/lv_textarea.c:0:12
	mov	r6, sp
.Ltmp442:
	.loc	12 216 13 is_stmt 1             @ ../GUILib/src/widgets/lv_textarea.c:216:13
	mov	r0, r6
	bl	lv_anim_init
.Ltmp443:
	.loc	14 135 16                       @ ../GUILib/src/widgets/../misc/lv_anim.h:135:16
	movw	r0, :lower16:pwd_char_hider_anim
	movt	r0, :upper16:pwd_char_hider_anim
.Ltmp444:
	@DEBUG_VALUE: lv_anim_set_exec_cb:exec_cb <- $r0
	str	r0, [sp, #4]
.Ltmp445:
	.loc	12 219 38                       @ ../GUILib/src/widgets/lv_textarea.c:219:38
	ldrh.w	r0, [r8, #56]
.Ltmp446:
	@DEBUG_VALUE: lv_anim_set_var:var <- $r8
	@DEBUG_VALUE: lv_anim_set_var:a <- $sp
	.loc	14 123 12                       @ ../GUILib/src/widgets/../misc/lv_anim.h:123:12
	str.w	r8, [sp]
.Ltmp447:
	@DEBUG_VALUE: lv_anim_set_exec_cb:a <- $sp
	@DEBUG_VALUE: lv_anim_set_time:duration <- $r0
	@DEBUG_VALUE: lv_anim_set_time:a <- $sp
	.loc	14 145 13                       @ ../GUILib/src/widgets/../misc/lv_anim.h:145:13
	str	r0, [sp, #40]
	movs	r0, #0
.Ltmp448:
	@DEBUG_VALUE: lv_anim_set_values:end <- 1
	@DEBUG_VALUE: lv_anim_set_values:start <- 0
	@DEBUG_VALUE: lv_anim_set_values:a <- $sp
	.loc	14 166 20                       @ ../GUILib/src/widgets/../misc/lv_anim.h:166:20
	strd	r0, r0, [sp, #28]
	movs	r0, #1
	.loc	14 168 18                       @ ../GUILib/src/widgets/../misc/lv_anim.h:168:18
	str	r0, [sp, #36]
.Ltmp449:
	@DEBUG_VALUE: lv_anim_set_path_cb:a <- $sp
	.loc	14 193 16                       @ ../GUILib/src/widgets/../misc/lv_anim.h:193:16
	movw	r0, :lower16:lv_anim_path_step
	movt	r0, :upper16:lv_anim_path_step
.Ltmp450:
	@DEBUG_VALUE: lv_anim_set_path_cb:path_cb <- $r0
	str	r0, [sp, #24]
.Ltmp451:
	@DEBUG_VALUE: lv_anim_set_ready_cb:a <- $sp
	.loc	14 224 17                       @ ../GUILib/src/widgets/../misc/lv_anim.h:224:17
	movw	r0, :lower16:pwd_char_hider_anim_ready
.Ltmp452:
	movt	r0, :upper16:pwd_char_hider_anim_ready
.Ltmp453:
	@DEBUG_VALUE: lv_anim_set_ready_cb:ready_cb <- $r0
	str	r0, [sp, #12]
.Ltmp454:
	.loc	12 223 13                       @ ../GUILib/src/widgets/lv_textarea.c:223:13
	mov	r0, r6
.Ltmp455:
	bl	lv_anim_start
.Ltmp456:
	.loc	12 0 13 is_stmt 0               @ ../GUILib/src/widgets/lv_textarea.c:0:13
	b	.LBB12_20
.Ltmp457:
	.p2align	2
.LBB12_18:                              @ =>This Inner Loop Header: Depth=1
	@DEBUG_VALUE: lv_textarea_add_text:ta <- $r8
	@DEBUG_VALUE: lv_textarea_add_text:obj <- $r8
	@DEBUG_VALUE: lv_textarea_add_text:txt <- $r5
	.loc	12 205 9 is_stmt 1              @ ../GUILib/src/widgets/lv_textarea.c:205:9
	b	.LBB12_18
.Ltmp458:
.LBB12_19:
	@DEBUG_VALUE: lv_textarea_add_text:ta <- $r8
	@DEBUG_VALUE: lv_textarea_add_text:obj <- $r8
	@DEBUG_VALUE: lv_textarea_add_text:txt <- $r5
	.loc	12 212 13                       @ ../GUILib/src/widgets/lv_textarea.c:212:13
	mov	r0, r8
	bl	pwd_char_hider
.Ltmp459:
.LBB12_20:
	@DEBUG_VALUE: lv_textarea_add_text:ta <- $r8
	@DEBUG_VALUE: lv_textarea_add_text:obj <- $r8
	@DEBUG_VALUE: lv_textarea_add_text:txt <- $r5
	@DEBUG_VALUE: lv_textarea_get_cursor_pos:obj <- $r8
	@DEBUG_VALUE: lv_textarea_get_cursor_pos:ta <- $r8
	.loc	12 228 71                       @ ../GUILib/src/widgets/lv_textarea.c:228:71
	movw	r0, :lower16:_lv_txt_get_encoded_length
	movt	r0, :upper16:_lv_txt_get_encoded_length
	ldr	r1, [r0]
.Ltmp460:
	.loc	12 615 23                       @ ../GUILib/src/widgets/lv_textarea.c:615:23
	ldr.w	r4, [r8, #64]
.Ltmp461:
	.loc	12 228 71                       @ ../GUILib/src/widgets/lv_textarea.c:228:71
	mov	r0, r5
	blx	r1
.Ltmp462:
	.loc	12 228 69 is_stmt 0             @ ../GUILib/src/widgets/lv_textarea.c:228:69
	adds	r1, r0, r4
	.loc	12 228 5                        @ ../GUILib/src/widgets/lv_textarea.c:228:5
	mov	r0, r8
	bl	lv_textarea_set_cursor_pos
.Ltmp463:
	.loc	12 230 5 is_stmt 1              @ ../GUILib/src/widgets/lv_textarea.c:230:5
	mov	r0, r8
	movs	r1, #28
	movs	r2, #0
	bl	lv_event_send
.Ltmp464:
	.loc	12 0 5 is_stmt 0                @ ../GUILib/src/widgets/lv_textarea.c:0:5
	b	.LBB12_8
.Ltmp465:
.Lfunc_end12:
	.size	lv_textarea_add_text, .Lfunc_end12-lv_textarea_add_text
	.cfi_endproc
	.cantunwind
	.fnend
                                        @ -- End function
	.section	.text.lv_textarea_get_accepted_chars,"ax",%progbits
	.hidden	lv_textarea_get_accepted_chars  @ -- Begin function lv_textarea_get_accepted_chars
	.globl	lv_textarea_get_accepted_chars
	.p2align	1
	.type	lv_textarea_get_accepted_chars,%function
	.code	16                              @ @lv_textarea_get_accepted_chars
	.thumb_func
lv_textarea_get_accepted_chars:
.Lfunc_begin13:
	.loc	12 643 0 is_stmt 1              @ ../GUILib/src/widgets/lv_textarea.c:643:0
	.fnstart
	.cfi_startproc
@ %bb.0:
	@DEBUG_VALUE: lv_textarea_get_accepted_chars:obj <- $r0
	@DEBUG_VALUE: lv_textarea_get_accepted_chars:obj <- $r0
	@DEBUG_VALUE: lv_textarea_get_accepted_chars:ta <- $r0
	@DEBUG_VALUE: lv_textarea_get_accepted_chars:ta <- $r0
	.loc	12 648 16 prologue_end          @ ../GUILib/src/widgets/lv_textarea.c:648:16
	ldr	r0, [r0, #48]
.Ltmp466:
	@DEBUG_VALUE: lv_textarea_get_accepted_chars:obj <- [DW_OP_LLVM_entry_value 1] $r0
	.loc	12 648 5 is_stmt 0              @ ../GUILib/src/widgets/lv_textarea.c:648:5
	bx	lr
.Ltmp467:
.Lfunc_end13:
	.size	lv_textarea_get_accepted_chars, .Lfunc_end13-lv_textarea_get_accepted_chars
	.cfi_endproc
	.cantunwind
	.fnend
                                        @ -- End function
	.section	.text.lv_textarea_get_max_length,"ax",%progbits
	.hidden	lv_textarea_get_max_length      @ -- Begin function lv_textarea_get_max_length
	.globl	lv_textarea_get_max_length
	.p2align	1
	.type	lv_textarea_get_max_length,%function
	.code	16                              @ @lv_textarea_get_max_length
	.thumb_func
lv_textarea_get_max_length:
.Lfunc_begin14:
	.loc	12 652 0 is_stmt 1              @ ../GUILib/src/widgets/lv_textarea.c:652:0
	.fnstart
	.cfi_startproc
@ %bb.0:
	@DEBUG_VALUE: lv_textarea_get_max_length:obj <- $r0
	@DEBUG_VALUE: lv_textarea_get_max_length:obj <- $r0
	@DEBUG_VALUE: lv_textarea_get_max_length:ta <- $r0
	@DEBUG_VALUE: lv_textarea_get_max_length:ta <- $r0
	.loc	12 656 16 prologue_end          @ ../GUILib/src/widgets/lv_textarea.c:656:16
	ldr	r0, [r0, #52]
.Ltmp468:
	@DEBUG_VALUE: lv_textarea_get_max_length:obj <- [DW_OP_LLVM_entry_value 1] $r0
	.loc	12 656 5 is_stmt 0              @ ../GUILib/src/widgets/lv_textarea.c:656:5
	bx	lr
.Ltmp469:
.Lfunc_end14:
	.size	lv_textarea_get_max_length, .Lfunc_end14-lv_textarea_get_max_length
	.cfi_endproc
	.cantunwind
	.fnend
                                        @ -- End function
	.section	.text.lv_textarea_del_char,"ax",%progbits
	.hidden	lv_textarea_del_char            @ -- Begin function lv_textarea_del_char
	.globl	lv_textarea_del_char
	.p2align	1
	.type	lv_textarea_del_char,%function
	.code	16                              @ @lv_textarea_del_char
	.thumb_func
lv_textarea_del_char:
.Lfunc_begin15:
	.loc	12 234 0 is_stmt 1              @ ../GUILib/src/widgets/lv_textarea.c:234:0
	.fnstart
	.cfi_startproc
@ %bb.0:
	@DEBUG_VALUE: lv_textarea_del_char:obj <- $r0
	.save	{r4, r5, r7, lr}
	push	{r4, r5, r7, lr}
	.cfi_def_cfa_offset 16
	.cfi_offset lr, -4
	.cfi_offset r7, -8
	.cfi_offset r5, -12
	.cfi_offset r4, -16
	.pad	#8
	sub	sp, #8
	.cfi_def_cfa_offset 24
	mov	r4, r0
.Ltmp470:
	@DEBUG_VALUE: lv_textarea_del_char:ta <- $r4
	@DEBUG_VALUE: lv_textarea_del_char:obj <- $r4
	.loc	12 238 36 prologue_end          @ ../GUILib/src/widgets/lv_textarea.c:238:36
	ldr	r0, [r0, #64]
.Ltmp471:
	@DEBUG_VALUE: lv_textarea_del_char:cur_pos <- $r0
	.loc	12 240 8                        @ ../GUILib/src/widgets/lv_textarea.c:240:8
	cmp	r0, #0
	beq	.LBB15_8
.Ltmp472:
@ %bb.1:
	@DEBUG_VALUE: lv_textarea_del_char:obj <- $r4
	@DEBUG_VALUE: lv_textarea_del_char:ta <- $r4
	@DEBUG_VALUE: lv_textarea_del_char:cur_pos <- $r0
	.loc	12 0 8 is_stmt 0                @ ../GUILib/src/widgets/lv_textarea.c:0:8
	movs	r0, #127
.Ltmp473:
	@DEBUG_VALUE: lv_textarea_del_char:del_buf <- 127
	.loc	12 242 10 is_stmt 1             @ ../GUILib/src/widgets/lv_textarea.c:242:10
	strh.w	r0, [sp, #6]
.Ltmp474:
	@DEBUG_VALUE: lv_textarea_del_char:del_buf <- [DW_OP_plus_uconst 6, DW_OP_deref] $sp
	.loc	12 0 10 is_stmt 0               @ ../GUILib/src/widgets/lv_textarea.c:0:10
	add.w	r1, sp, #6
	.loc	12 244 20 is_stmt 1             @ ../GUILib/src/widgets/lv_textarea.c:244:20
	mov	r0, r4
	bl	insert_handler
.Ltmp475:
	@DEBUG_VALUE: lv_textarea_del_char:res <- $r0
	.loc	12 245 8                        @ ../GUILib/src/widgets/lv_textarea.c:245:8
	cmp	r0, #1
	bne	.LBB15_8
.Ltmp476:
@ %bb.2:
	@DEBUG_VALUE: lv_textarea_del_char:obj <- $r4
	@DEBUG_VALUE: lv_textarea_del_char:ta <- $r4
	@DEBUG_VALUE: lv_textarea_del_char:res <- $r0
	@DEBUG_VALUE: lv_textarea_del_char:del_buf <- [DW_OP_plus_uconst 6, DW_OP_deref] $sp
	.loc	12 247 46                       @ ../GUILib/src/widgets/lv_textarea.c:247:46
	ldr	r0, [r4, #36]
.Ltmp477:
	.loc	12 247 24 is_stmt 0             @ ../GUILib/src/widgets/lv_textarea.c:247:24
	bl	lv_label_get_text
.Ltmp478:
	.loc	12 250 39 is_stmt 1             @ ../GUILib/src/widgets/lv_textarea.c:250:39
	ldr	r1, [r4, #64]
	.loc	12 250 5 is_stmt 0              @ ../GUILib/src/widgets/lv_textarea.c:250:5
	movs	r2, #1
	.loc	12 250 43                       @ ../GUILib/src/widgets/lv_textarea.c:250:43
	subs	r1, #1
	.loc	12 247 24 is_stmt 1             @ ../GUILib/src/widgets/lv_textarea.c:247:24
	mov	r5, r0
.Ltmp479:
	@DEBUG_VALUE: lv_textarea_del_char:label_txt <- $r5
	.loc	12 250 5                        @ ../GUILib/src/widgets/lv_textarea.c:250:5
	bl	_lv_txt_cut
.Ltmp480:
	.loc	12 253 27                       @ ../GUILib/src/widgets/lv_textarea.c:253:27
	ldr	r0, [r4, #36]
	.loc	12 253 5 is_stmt 0              @ ../GUILib/src/widgets/lv_textarea.c:253:5
	mov	r1, r5
	bl	lv_label_set_text
.Ltmp481:
	.loc	12 254 5 is_stmt 1              @ ../GUILib/src/widgets/lv_textarea.c:254:5
	mov	r0, r4
	bl	lv_textarea_clear_selection
.Ltmp482:
	.loc	12 257 12                       @ ../GUILib/src/widgets/lv_textarea.c:257:12
	ldr	r0, [r4, #40]
.Ltmp483:
	.loc	12 257 8 is_stmt 0              @ ../GUILib/src/widgets/lv_textarea.c:257:8
	cbz	r0, .LBB15_5
.Ltmp484:
@ %bb.3:
	@DEBUG_VALUE: lv_textarea_del_char:label_txt <- $r5
	@DEBUG_VALUE: lv_textarea_del_char:obj <- $r4
	@DEBUG_VALUE: lv_textarea_del_char:ta <- $r4
	@DEBUG_VALUE: lv_textarea_del_char:del_buf <- [DW_OP_plus_uconst 6, DW_OP_deref] $sp
	.loc	12 258 50 is_stmt 1             @ ../GUILib/src/widgets/lv_textarea.c:258:50
	ldr	r0, [r4, #36]
	.loc	12 258 28 is_stmt 0             @ ../GUILib/src/widgets/lv_textarea.c:258:28
	bl	lv_label_get_text
.Ltmp485:
	@DEBUG_VALUE: txt <- $r0
	.loc	12 259 12 is_stmt 1             @ ../GUILib/src/widgets/lv_textarea.c:259:12
	ldrb	r0, [r0]
.Ltmp486:
	.loc	12 259 12 is_stmt 0             @ ../GUILib/src/widgets/lv_textarea.c:259:12
	cbnz	r0, .LBB15_5
.Ltmp487:
@ %bb.4:
	@DEBUG_VALUE: lv_textarea_del_char:label_txt <- $r5
	@DEBUG_VALUE: lv_textarea_del_char:obj <- $r4
	@DEBUG_VALUE: lv_textarea_del_char:ta <- $r4
	@DEBUG_VALUE: lv_textarea_del_char:del_buf <- [DW_OP_plus_uconst 6, DW_OP_deref] $sp
	.loc	12 259 28                       @ ../GUILib/src/widgets/lv_textarea.c:259:28
	mov	r0, r4
	bl	lv_obj_invalidate
.Ltmp488:
.LBB15_5:
	@DEBUG_VALUE: lv_textarea_del_char:label_txt <- $r5
	@DEBUG_VALUE: lv_textarea_del_char:obj <- $r4
	@DEBUG_VALUE: lv_textarea_del_char:ta <- $r4
	@DEBUG_VALUE: lv_textarea_del_char:del_buf <- [DW_OP_plus_uconst 6, DW_OP_deref] $sp
	.loc	12 262 12 is_stmt 1             @ ../GUILib/src/widgets/lv_textarea.c:262:12
	ldrb.w	r0, [r4, #92]
.Ltmp489:
	.loc	12 262 8 is_stmt 0              @ ../GUILib/src/widgets/lv_textarea.c:262:8
	lsls	r0, r0, #29
	bpl	.LBB15_7
.Ltmp490:
@ %bb.6:
	@DEBUG_VALUE: lv_textarea_del_char:label_txt <- $r5
	@DEBUG_VALUE: lv_textarea_del_char:obj <- $r4
	@DEBUG_VALUE: lv_textarea_del_char:ta <- $r4
	@DEBUG_VALUE: lv_textarea_del_char:del_buf <- [DW_OP_plus_uconst 6, DW_OP_deref] $sp
	.loc	12 263 45 is_stmt 1             @ ../GUILib/src/widgets/lv_textarea.c:263:45
	ldr	r1, [r4, #64]
	.loc	12 263 25 is_stmt 0             @ ../GUILib/src/widgets/lv_textarea.c:263:25
	ldr	r0, [r4, #44]
	.loc	12 263 49                       @ ../GUILib/src/widgets/lv_textarea.c:263:49
	subs	r1, #1
	.loc	12 263 9                        @ ../GUILib/src/widgets/lv_textarea.c:263:9
	movs	r2, #1
	bl	_lv_txt_cut
.Ltmp491:
	.loc	12 265 42 is_stmt 1             @ ../GUILib/src/widgets/lv_textarea.c:265:42
	ldr	r5, [r4, #44]
.Ltmp492:
	.loc	12 265 51 is_stmt 0             @ ../GUILib/src/widgets/lv_textarea.c:265:51
	mov	r0, r5
	bl	strlen
.Ltmp493:
	.loc	12 265 71                       @ ../GUILib/src/widgets/lv_textarea.c:265:71
	adds	r1, r0, #1
	.loc	12 265 23                       @ ../GUILib/src/widgets/lv_textarea.c:265:23
	mov	r0, r5
	bl	lv_mem_realloc
.Ltmp494:
	.loc	12 265 21                       @ ../GUILib/src/widgets/lv_textarea.c:265:21
	str	r0, [r4, #44]
.Ltmp495:
	.loc	12 266 9 is_stmt 1              @ ../GUILib/src/widgets/lv_textarea.c:266:9
	cbz	r0, .LBB15_9
.Ltmp496:
.LBB15_7:
	@DEBUG_VALUE: lv_textarea_del_char:obj <- $r4
	@DEBUG_VALUE: lv_textarea_del_char:ta <- $r4
	@DEBUG_VALUE: lv_textarea_del_char:del_buf <- [DW_OP_plus_uconst 6, DW_OP_deref] $sp
	.loc	12 271 48                       @ ../GUILib/src/widgets/lv_textarea.c:271:48
	ldr	r0, [r4, #64]
	.loc	12 271 52 is_stmt 0             @ ../GUILib/src/widgets/lv_textarea.c:271:52
	subs	r1, r0, #1
	.loc	12 271 5                        @ ../GUILib/src/widgets/lv_textarea.c:271:5
	mov	r0, r4
	bl	lv_textarea_set_cursor_pos
.Ltmp497:
	.loc	12 273 5 is_stmt 1              @ ../GUILib/src/widgets/lv_textarea.c:273:5
	mov	r0, r4
	movs	r1, #28
	movs	r2, #0
	bl	lv_event_send
.Ltmp498:
.LBB15_8:
	@DEBUG_VALUE: lv_textarea_del_char:obj <- $r4
	@DEBUG_VALUE: lv_textarea_del_char:ta <- $r4
	.loc	12 275 1                        @ ../GUILib/src/widgets/lv_textarea.c:275:1
	add	sp, #8
	pop	{r4, r5, r7, pc}
.Ltmp499:
	.p2align	2
.LBB15_9:                               @ =>This Inner Loop Header: Depth=1
	@DEBUG_VALUE: lv_textarea_del_char:obj <- $r4
	@DEBUG_VALUE: lv_textarea_del_char:ta <- $r4
	@DEBUG_VALUE: lv_textarea_del_char:del_buf <- [DW_OP_plus_uconst 6, DW_OP_deref] $sp
	.loc	12 266 9                        @ ../GUILib/src/widgets/lv_textarea.c:266:9
	b	.LBB15_9
.Ltmp500:
.Lfunc_end15:
	.size	lv_textarea_del_char, .Lfunc_end15-lv_textarea_del_char
	.cfi_endproc
	.cantunwind
	.fnend
                                        @ -- End function
	.section	.text.lv_textarea_del_char_forward,"ax",%progbits
	.hidden	lv_textarea_del_char_forward    @ -- Begin function lv_textarea_del_char_forward
	.globl	lv_textarea_del_char_forward
	.p2align	1
	.type	lv_textarea_del_char_forward,%function
	.code	16                              @ @lv_textarea_del_char_forward
	.thumb_func
lv_textarea_del_char_forward:
.Lfunc_begin16:
	.loc	12 278 0                        @ ../GUILib/src/widgets/lv_textarea.c:278:0
	.fnstart
	.cfi_startproc
@ %bb.0:
	@DEBUG_VALUE: lv_textarea_del_char_forward:obj <- $r0
	@DEBUG_VALUE: lv_textarea_get_cursor_pos:obj <- $r0
	.save	{r4, r5, r7, lr}
	push	{r4, r5, r7, lr}
	.cfi_def_cfa_offset 16
	.cfi_offset lr, -4
	.cfi_offset r7, -8
	.cfi_offset r5, -12
	.cfi_offset r4, -16
.Ltmp501:
	@DEBUG_VALUE: lv_textarea_get_cursor_pos:ta <- $r0
	.loc	12 615 23 prologue_end          @ ../GUILib/src/widgets/lv_textarea.c:615:23
	ldr	r5, [r0, #64]
.Ltmp502:
	@DEBUG_VALUE: lv_textarea_del_char_forward:cp <- $r5
	.loc	12 0 23 is_stmt 0               @ ../GUILib/src/widgets/lv_textarea.c:0:23
	mov	r4, r0
.Ltmp503:
	@DEBUG_VALUE: lv_textarea_get_cursor_pos:ta <- $r4
	@DEBUG_VALUE: lv_textarea_get_cursor_pos:obj <- $r4
	@DEBUG_VALUE: lv_textarea_del_char_forward:obj <- $r4
	.loc	12 282 40 is_stmt 1             @ ../GUILib/src/widgets/lv_textarea.c:282:40
	adds	r1, r5, #1
	.loc	12 282 5 is_stmt 0              @ ../GUILib/src/widgets/lv_textarea.c:282:5
	bl	lv_textarea_set_cursor_pos
.Ltmp504:
	@DEBUG_VALUE: lv_textarea_get_cursor_pos:ta <- $r4
	@DEBUG_VALUE: lv_textarea_get_cursor_pos:obj <- $r4
	.loc	12 615 23 is_stmt 1             @ ../GUILib/src/widgets/lv_textarea.c:615:23
	ldr	r0, [r4, #64]
.Ltmp505:
	.loc	12 283 8                        @ ../GUILib/src/widgets/lv_textarea.c:283:8
	cmp	r5, r0
	.loc	12 284 1                        @ ../GUILib/src/widgets/lv_textarea.c:284:1
	it	eq
	popeq	{r4, r5, r7, pc}
.Ltmp506:
.LBB16_1:
	.loc	12 283 47                       @ ../GUILib/src/widgets/lv_textarea.c:283:47
	mov	r0, r4
	pop.w	{r4, r5, r7, lr}
.Ltmp507:
	b	lv_textarea_del_char
.Ltmp508:
.Lfunc_end16:
	.size	lv_textarea_del_char_forward, .Lfunc_end16-lv_textarea_del_char_forward
	.cfi_endproc
	.cantunwind
	.fnend
                                        @ -- End function
	.section	.text.lv_textarea_set_text,"ax",%progbits
	.hidden	lv_textarea_set_text            @ -- Begin function lv_textarea_set_text
	.globl	lv_textarea_set_text
	.p2align	1
	.type	lv_textarea_set_text,%function
	.code	16                              @ @lv_textarea_set_text
	.thumb_func
lv_textarea_set_text:
.Lfunc_begin17:
	.loc	12 291 0                        @ ../GUILib/src/widgets/lv_textarea.c:291:0
	.fnstart
	.cfi_startproc
@ %bb.0:
	@DEBUG_VALUE: lv_textarea_set_text:obj <- $r0
	@DEBUG_VALUE: lv_textarea_set_text:txt <- $r1
	@DEBUG_VALUE: lv_textarea_set_text:txt <- $r1
	.save	{r4, r5, r6, r7, r8, lr}
	push.w	{r4, r5, r6, r7, r8, lr}
	.cfi_def_cfa_offset 24
	.cfi_offset lr, -4
	.cfi_offset r8, -8
	.cfi_offset r7, -12
	.cfi_offset r6, -16
	.cfi_offset r5, -20
	.cfi_offset r4, -24
	.pad	#64
	sub	sp, #64
	.cfi_def_cfa_offset 88
	@DEBUG_VALUE: lv_textarea_set_text:obj <- $r0
.Ltmp509:
	.loc	12 293 5 prologue_end           @ ../GUILib/src/widgets/lv_textarea.c:293:5
	cbz	r1, .LBB17_8
.Ltmp510:
@ %bb.1:
	@DEBUG_VALUE: lv_textarea_set_text:txt <- $r1
	@DEBUG_VALUE: lv_textarea_set_text:obj <- $r0
	.loc	12 0 5 is_stmt 0                @ ../GUILib/src/widgets/lv_textarea.c:0:5
	mov	r5, r1
.Ltmp511:
	@DEBUG_VALUE: lv_textarea_set_text:txt <- $r5
	@DEBUG_VALUE: lv_textarea_set_text:txt <- $r5
	mov	r8, r0
.Ltmp512:
	@DEBUG_VALUE: lv_textarea_set_text:obj <- $r8
	@DEBUG_VALUE: lv_textarea_set_text:ta <- $r8
	.loc	12 298 5 is_stmt 1              @ ../GUILib/src/widgets/lv_textarea.c:298:5
	bl	lv_textarea_clear_selection
.Ltmp513:
	@DEBUG_VALUE: lv_textarea_get_accepted_chars:ta <- $r8
	@DEBUG_VALUE: lv_textarea_get_accepted_chars:obj <- $r8
	.loc	12 648 16                       @ ../GUILib/src/widgets/lv_textarea.c:648:16
	ldr.w	r0, [r8, #48]
.Ltmp514:
	.loc	12 301 44                       @ ../GUILib/src/widgets/lv_textarea.c:301:44
	cbnz	r0, .LBB17_3
.Ltmp515:
@ %bb.2:
	@DEBUG_VALUE: lv_textarea_set_text:ta <- $r8
	@DEBUG_VALUE: lv_textarea_set_text:obj <- $r8
	@DEBUG_VALUE: lv_textarea_set_text:txt <- $r5
	@DEBUG_VALUE: lv_textarea_get_max_length:obj <- $r8
	@DEBUG_VALUE: lv_textarea_get_max_length:ta <- $r8
	.loc	12 656 16                       @ ../GUILib/src/widgets/lv_textarea.c:656:16
	ldr.w	r0, [r8, #52]
.Ltmp516:
	.loc	12 301 8                        @ ../GUILib/src/widgets/lv_textarea.c:301:8
	cbz	r0, .LBB17_9
.Ltmp517:
.LBB17_3:
	@DEBUG_VALUE: lv_textarea_set_text:ta <- $r8
	@DEBUG_VALUE: lv_textarea_set_text:obj <- $r8
	@DEBUG_VALUE: lv_textarea_set_text:txt <- $r5
	.loc	12 302 31                       @ ../GUILib/src/widgets/lv_textarea.c:302:31
	ldr.w	r0, [r8, #36]
	.loc	12 302 9 is_stmt 0              @ ../GUILib/src/widgets/lv_textarea.c:302:9
	movw	r1, :lower16:.L.str
	movt	r1, :upper16:.L.str
	bl	lv_label_set_text
.Ltmp518:
	.loc	12 303 9 is_stmt 1              @ ../GUILib/src/widgets/lv_textarea.c:303:9
	mov	r0, r8
	movw	r1, #32767
	bl	lv_textarea_set_cursor_pos
.Ltmp519:
	.loc	12 304 16                       @ ../GUILib/src/widgets/lv_textarea.c:304:16
	ldrb.w	r0, [r8, #92]
.Ltmp520:
	.loc	12 304 12 is_stmt 0             @ ../GUILib/src/widgets/lv_textarea.c:304:12
	lsls	r0, r0, #29
	bpl	.LBB17_5
.Ltmp521:
@ %bb.4:
	@DEBUG_VALUE: lv_textarea_set_text:ta <- $r8
	@DEBUG_VALUE: lv_textarea_set_text:obj <- $r8
	@DEBUG_VALUE: lv_textarea_set_text:txt <- $r5
	.loc	12 305 17 is_stmt 1             @ ../GUILib/src/widgets/lv_textarea.c:305:17
	ldr.w	r0, [r8, #44]
	movs	r1, #0
	.loc	12 305 28 is_stmt 0             @ ../GUILib/src/widgets/lv_textarea.c:305:28
	strb	r1, [r0]
.Ltmp522:
.LBB17_5:
	@DEBUG_VALUE: lv_textarea_set_text:ta <- $r8
	@DEBUG_VALUE: lv_textarea_set_text:obj <- $r8
	@DEBUG_VALUE: lv_textarea_set_text:txt <- $r5
	.loc	12 308 15 is_stmt 1             @ ../GUILib/src/widgets/lv_textarea.c:308:15
	ldrb	r0, [r5]
	movs	r1, #0
.Ltmp523:
	@DEBUG_VALUE: i <- 0
	.loc	12 307 18                       @ ../GUILib/src/widgets/lv_textarea.c:307:18
	str	r1, [sp]
	.loc	12 308 9                        @ ../GUILib/src/widgets/lv_textarea.c:308:9
	cbz	r0, .LBB17_10
.Ltmp524:
@ %bb.6:
	@DEBUG_VALUE: lv_textarea_set_text:ta <- $r8
	@DEBUG_VALUE: lv_textarea_set_text:obj <- $r8
	@DEBUG_VALUE: lv_textarea_set_text:txt <- $r5
	@DEBUG_VALUE: i <- 0
	.loc	12 0 9 is_stmt 0                @ ../GUILib/src/widgets/lv_textarea.c:0:9
	movw	r7, :lower16:_lv_txt_encoded_next
	movw	r4, :lower16:_lv_txt_unicode_to_encoded
	movt	r7, :upper16:_lv_txt_encoded_next
	mov	r6, sp
	movt	r4, :upper16:_lv_txt_unicode_to_encoded
.Ltmp525:
	.p2align	2
.LBB17_7:                               @ =>This Inner Loop Header: Depth=1
	@DEBUG_VALUE: lv_textarea_set_text:ta <- $r8
	@DEBUG_VALUE: lv_textarea_set_text:obj <- $r8
	@DEBUG_VALUE: lv_textarea_set_text:txt <- $r5
	.loc	12 309 26 is_stmt 1             @ ../GUILib/src/widgets/lv_textarea.c:309:26
	ldr	r2, [r7]
.Ltmp526:
	@DEBUG_VALUE: i <- [DW_OP_deref] $sp
	mov	r0, r5
	mov	r1, r6
	blx	r2
.Ltmp527:
	.loc	12 310 39                       @ ../GUILib/src/widgets/lv_textarea.c:310:39
	ldr	r1, [r4]
.Ltmp528:
	@DEBUG_VALUE: c <- $r0
	blx	r1
.Ltmp529:
	mov	r1, r0
	.loc	12 310 13 is_stmt 0             @ ../GUILib/src/widgets/lv_textarea.c:310:13
	mov	r0, r8
	bl	lv_textarea_add_char
.Ltmp530:
	.loc	12 308 19 is_stmt 1             @ ../GUILib/src/widgets/lv_textarea.c:308:19
	ldr	r0, [sp]
.Ltmp531:
	@DEBUG_VALUE: i <- $r0
	.loc	12 308 15 is_stmt 0             @ ../GUILib/src/widgets/lv_textarea.c:308:15
	ldrb	r0, [r5, r0]
.Ltmp532:
	.loc	12 308 9                        @ ../GUILib/src/widgets/lv_textarea.c:308:9
	cmp	r0, #0
	bne	.LBB17_7
	b	.LBB17_10
.Ltmp533:
	.p2align	2
.LBB17_8:                               @ =>This Inner Loop Header: Depth=1
	@DEBUG_VALUE: lv_textarea_set_text:txt <- $r1
	@DEBUG_VALUE: lv_textarea_set_text:obj <- $r0
	.loc	12 293 5 is_stmt 1              @ ../GUILib/src/widgets/lv_textarea.c:293:5
	b	.LBB17_8
.Ltmp534:
.LBB17_9:
	@DEBUG_VALUE: lv_textarea_set_text:ta <- $r8
	@DEBUG_VALUE: lv_textarea_set_text:obj <- $r8
	@DEBUG_VALUE: lv_textarea_set_text:txt <- $r5
	.loc	12 314 31                       @ ../GUILib/src/widgets/lv_textarea.c:314:31
	ldr.w	r0, [r8, #36]
	.loc	12 314 9 is_stmt 0              @ ../GUILib/src/widgets/lv_textarea.c:314:9
	mov	r1, r5
	bl	lv_label_set_text
.Ltmp535:
	.loc	12 315 9 is_stmt 1              @ ../GUILib/src/widgets/lv_textarea.c:315:9
	mov	r0, r8
	movw	r1, #32767
	bl	lv_textarea_set_cursor_pos
.Ltmp536:
.LBB17_10:
	@DEBUG_VALUE: lv_textarea_set_text:ta <- $r8
	@DEBUG_VALUE: lv_textarea_set_text:obj <- $r8
	@DEBUG_VALUE: lv_textarea_set_text:txt <- $r5
	.loc	12 319 12                       @ ../GUILib/src/widgets/lv_textarea.c:319:12
	ldr.w	r0, [r8, #40]
.Ltmp537:
	.loc	12 319 8 is_stmt 0              @ ../GUILib/src/widgets/lv_textarea.c:319:8
	cbz	r0, .LBB17_13
.Ltmp538:
@ %bb.11:
	@DEBUG_VALUE: lv_textarea_set_text:ta <- $r8
	@DEBUG_VALUE: lv_textarea_set_text:obj <- $r8
	@DEBUG_VALUE: lv_textarea_set_text:txt <- $r5
	.loc	12 320 54 is_stmt 1             @ ../GUILib/src/widgets/lv_textarea.c:320:54
	ldr.w	r0, [r8, #36]
	.loc	12 320 32 is_stmt 0             @ ../GUILib/src/widgets/lv_textarea.c:320:32
	bl	lv_label_get_text
.Ltmp539:
	@DEBUG_VALUE: txt_act <- $r0
	.loc	12 321 12 is_stmt 1             @ ../GUILib/src/widgets/lv_textarea.c:321:12
	ldrb	r0, [r0]
.Ltmp540:
	.loc	12 321 12 is_stmt 0             @ ../GUILib/src/widgets/lv_textarea.c:321:12
	cbnz	r0, .LBB17_13
.Ltmp541:
@ %bb.12:
	@DEBUG_VALUE: lv_textarea_set_text:ta <- $r8
	@DEBUG_VALUE: lv_textarea_set_text:obj <- $r8
	@DEBUG_VALUE: lv_textarea_set_text:txt <- $r5
	.loc	12 321 32                       @ ../GUILib/src/widgets/lv_textarea.c:321:32
	mov	r0, r8
	bl	lv_obj_invalidate
.Ltmp542:
.LBB17_13:
	@DEBUG_VALUE: lv_textarea_set_text:ta <- $r8
	@DEBUG_VALUE: lv_textarea_set_text:obj <- $r8
	@DEBUG_VALUE: lv_textarea_set_text:txt <- $r5
	.loc	12 324 12 is_stmt 1             @ ../GUILib/src/widgets/lv_textarea.c:324:12
	ldrb.w	r0, [r8, #92]
.Ltmp543:
	.loc	12 324 8 is_stmt 0              @ ../GUILib/src/widgets/lv_textarea.c:324:8
	lsls	r0, r0, #29
	bpl	.LBB17_19
.Ltmp544:
@ %bb.14:
	@DEBUG_VALUE: lv_textarea_set_text:ta <- $r8
	@DEBUG_VALUE: lv_textarea_set_text:obj <- $r8
	@DEBUG_VALUE: lv_textarea_set_text:txt <- $r5
	.loc	12 325 42 is_stmt 1             @ ../GUILib/src/widgets/lv_textarea.c:325:42
	ldr.w	r6, [r8, #44]
	.loc	12 325 51 is_stmt 0             @ ../GUILib/src/widgets/lv_textarea.c:325:51
	mov	r0, r5
	bl	strlen
.Ltmp545:
	.loc	12 325 63                       @ ../GUILib/src/widgets/lv_textarea.c:325:63
	adds	r1, r0, #1
	.loc	12 325 23                       @ ../GUILib/src/widgets/lv_textarea.c:325:23
	mov	r0, r6
	bl	lv_mem_realloc
.Ltmp546:
	.loc	12 325 21                       @ ../GUILib/src/widgets/lv_textarea.c:325:21
	str.w	r0, [r8, #44]
.Ltmp547:
	.loc	12 326 9 is_stmt 1              @ ../GUILib/src/widgets/lv_textarea.c:326:9
	cbz	r0, .LBB17_17
.Ltmp548:
@ %bb.15:
	@DEBUG_VALUE: lv_textarea_set_text:ta <- $r8
	@DEBUG_VALUE: lv_textarea_set_text:obj <- $r8
	@DEBUG_VALUE: lv_textarea_set_text:txt <- $r5
	.loc	12 328 9                        @ ../GUILib/src/widgets/lv_textarea.c:328:9
	mov	r1, r5
	bl	strcpy
.Ltmp549:
	.loc	12 331 16                       @ ../GUILib/src/widgets/lv_textarea.c:331:16
	ldrh.w	r0, [r8, #56]
.Ltmp550:
	.loc	12 331 12 is_stmt 0             @ ../GUILib/src/widgets/lv_textarea.c:331:12
	cbz	r0, .LBB17_18
.Ltmp551:
@ %bb.16:
	@DEBUG_VALUE: lv_textarea_set_text:ta <- $r8
	@DEBUG_VALUE: lv_textarea_set_text:obj <- $r8
	@DEBUG_VALUE: lv_textarea_set_text:txt <- $r5
	.loc	12 0 12                         @ ../GUILib/src/widgets/lv_textarea.c:0:12
	mov	r5, sp
.Ltmp552:
	@DEBUG_VALUE: lv_textarea_set_text:txt <- [DW_OP_LLVM_entry_value 1] $r1
	.loc	12 336 13 is_stmt 1             @ ../GUILib/src/widgets/lv_textarea.c:336:13
	mov	r0, r5
	bl	lv_anim_init
.Ltmp553:
	.loc	14 135 16                       @ ../GUILib/src/widgets/../misc/lv_anim.h:135:16
	movw	r0, :lower16:pwd_char_hider_anim
	movt	r0, :upper16:pwd_char_hider_anim
.Ltmp554:
	@DEBUG_VALUE: lv_anim_set_exec_cb:exec_cb <- $r0
	str	r0, [sp, #4]
.Ltmp555:
	.loc	12 339 38                       @ ../GUILib/src/widgets/lv_textarea.c:339:38
	ldrh.w	r0, [r8, #56]
.Ltmp556:
	@DEBUG_VALUE: lv_anim_set_var:var <- $r8
	@DEBUG_VALUE: lv_anim_set_var:a <- $sp
	.loc	14 123 12                       @ ../GUILib/src/widgets/../misc/lv_anim.h:123:12
	str.w	r8, [sp]
.Ltmp557:
	@DEBUG_VALUE: lv_anim_set_exec_cb:a <- $sp
	@DEBUG_VALUE: lv_anim_set_time:duration <- $r0
	@DEBUG_VALUE: lv_anim_set_time:a <- $sp
	.loc	14 145 13                       @ ../GUILib/src/widgets/../misc/lv_anim.h:145:13
	str	r0, [sp, #40]
	movs	r0, #0
.Ltmp558:
	@DEBUG_VALUE: lv_anim_set_values:end <- 1
	@DEBUG_VALUE: lv_anim_set_values:start <- 0
	@DEBUG_VALUE: lv_anim_set_values:a <- $sp
	.loc	14 166 20                       @ ../GUILib/src/widgets/../misc/lv_anim.h:166:20
	strd	r0, r0, [sp, #28]
	movs	r0, #1
	.loc	14 168 18                       @ ../GUILib/src/widgets/../misc/lv_anim.h:168:18
	str	r0, [sp, #36]
.Ltmp559:
	@DEBUG_VALUE: lv_anim_set_path_cb:a <- $sp
	.loc	14 193 16                       @ ../GUILib/src/widgets/../misc/lv_anim.h:193:16
	movw	r0, :lower16:lv_anim_path_step
	movt	r0, :upper16:lv_anim_path_step
.Ltmp560:
	@DEBUG_VALUE: lv_anim_set_path_cb:path_cb <- $r0
	str	r0, [sp, #24]
.Ltmp561:
	@DEBUG_VALUE: lv_anim_set_ready_cb:a <- $sp
	.loc	14 224 17                       @ ../GUILib/src/widgets/../misc/lv_anim.h:224:17
	movw	r0, :lower16:pwd_char_hider_anim_ready
.Ltmp562:
	movt	r0, :upper16:pwd_char_hider_anim_ready
.Ltmp563:
	@DEBUG_VALUE: lv_anim_set_ready_cb:ready_cb <- $r0
	str	r0, [sp, #12]
.Ltmp564:
	.loc	12 343 13                       @ ../GUILib/src/widgets/lv_textarea.c:343:13
	mov	r0, r5
.Ltmp565:
	bl	lv_anim_start
.Ltmp566:
	.loc	12 0 13 is_stmt 0               @ ../GUILib/src/widgets/lv_textarea.c:0:13
	b	.LBB17_19
.Ltmp567:
	.p2align	2
.LBB17_17:                              @ =>This Inner Loop Header: Depth=1
	@DEBUG_VALUE: lv_textarea_set_text:ta <- $r8
	@DEBUG_VALUE: lv_textarea_set_text:obj <- $r8
	@DEBUG_VALUE: lv_textarea_set_text:txt <- $r5
	.loc	12 326 9 is_stmt 1              @ ../GUILib/src/widgets/lv_textarea.c:326:9
	b	.LBB17_17
.Ltmp568:
.LBB17_18:
	@DEBUG_VALUE: lv_textarea_set_text:ta <- $r8
	@DEBUG_VALUE: lv_textarea_set_text:obj <- $r8
	@DEBUG_VALUE: lv_textarea_set_text:txt <- $r5
	.loc	12 332 13                       @ ../GUILib/src/widgets/lv_textarea.c:332:13
	mov	r0, r8
	bl	pwd_char_hider
.Ltmp569:
.LBB17_19:
	@DEBUG_VALUE: lv_textarea_set_text:ta <- $r8
	@DEBUG_VALUE: lv_textarea_set_text:obj <- $r8
	.loc	12 347 5                        @ ../GUILib/src/widgets/lv_textarea.c:347:5
	mov	r0, r8
	movs	r1, #28
	movs	r2, #0
	bl	lv_event_send
.Ltmp570:
	.loc	12 348 1                        @ ../GUILib/src/widgets/lv_textarea.c:348:1
	add	sp, #64
	pop.w	{r4, r5, r6, r7, r8, pc}
.Ltmp571:
.Lfunc_end17:
	.size	lv_textarea_set_text, .Lfunc_end17-lv_textarea_set_text
	.cfi_endproc
	.cantunwind
	.fnend
                                        @ -- End function
	.section	.text.lv_textarea_set_placeholder_text,"ax",%progbits
	.hidden	lv_textarea_set_placeholder_text @ -- Begin function lv_textarea_set_placeholder_text
	.globl	lv_textarea_set_placeholder_text
	.p2align	1
	.type	lv_textarea_set_placeholder_text,%function
	.code	16                              @ @lv_textarea_set_placeholder_text
	.thumb_func
lv_textarea_set_placeholder_text:
.Lfunc_begin18:
	.loc	12 351 0                        @ ../GUILib/src/widgets/lv_textarea.c:351:0
	.fnstart
	.cfi_startproc
@ %bb.0:
	@DEBUG_VALUE: lv_textarea_set_placeholder_text:obj <- $r0
	@DEBUG_VALUE: lv_textarea_set_placeholder_text:txt <- $r1
	@DEBUG_VALUE: lv_textarea_set_placeholder_text:txt <- $r1
	.save	{r4, r5, r7, lr}
	push	{r4, r5, r7, lr}
	.cfi_def_cfa_offset 16
	.cfi_offset lr, -4
	.cfi_offset r7, -8
	.cfi_offset r5, -12
	.cfi_offset r4, -16
	@DEBUG_VALUE: lv_textarea_set_placeholder_text:obj <- $r0
.Ltmp572:
	.loc	12 353 5 prologue_end           @ ../GUILib/src/widgets/lv_textarea.c:353:5
	cbz	r1, .LBB18_4
.Ltmp573:
@ %bb.1:
	@DEBUG_VALUE: lv_textarea_set_placeholder_text:txt <- $r1
	@DEBUG_VALUE: lv_textarea_set_placeholder_text:obj <- $r0
	.loc	12 0 5 is_stmt 0                @ ../GUILib/src/widgets/lv_textarea.c:0:5
	mov	r4, r0
.Ltmp574:
	@DEBUG_VALUE: lv_textarea_set_placeholder_text:obj <- $r4
	@DEBUG_VALUE: lv_textarea_set_placeholder_text:obj <- $r4
	@DEBUG_VALUE: lv_textarea_set_placeholder_text:ta <- $r4
	.loc	12 357 22 is_stmt 1             @ ../GUILib/src/widgets/lv_textarea.c:357:22
	mov	r0, r1
	mov	r5, r1
.Ltmp575:
	@DEBUG_VALUE: lv_textarea_set_placeholder_text:txt <- $r5
	@DEBUG_VALUE: lv_textarea_set_placeholder_text:txt <- $r5
	bl	strlen
.Ltmp576:
	mov	r1, r0
.Ltmp577:
	@DEBUG_VALUE: lv_textarea_set_placeholder_text:txt_len <- $r1
	.loc	12 0 0 is_stmt 0                @ ../GUILib/src/widgets/lv_textarea.c:0:0
	ldr	r0, [r4, #40]
.Ltmp578:
	.loc	12 359 8 is_stmt 1              @ ../GUILib/src/widgets/lv_textarea.c:359:8
	cbz	r1, .LBB18_5
.Ltmp579:
@ %bb.2:
	@DEBUG_VALUE: lv_textarea_set_placeholder_text:txt <- $r5
	@DEBUG_VALUE: lv_textarea_set_placeholder_text:ta <- $r4
	@DEBUG_VALUE: lv_textarea_set_placeholder_text:obj <- $r4
	@DEBUG_VALUE: lv_textarea_set_placeholder_text:txt_len <- $r1
	.loc	12 0 0 is_stmt 0                @ ../GUILib/src/widgets/lv_textarea.c:0:0
	add.w	r1, r1, #1
.Ltmp580:
	.loc	12 368 12 is_stmt 1             @ ../GUILib/src/widgets/lv_textarea.c:368:12
	cbz	r0, .LBB18_7
.Ltmp581:
@ %bb.3:
	@DEBUG_VALUE: lv_textarea_set_placeholder_text:txt <- $r5
	@DEBUG_VALUE: lv_textarea_set_placeholder_text:ta <- $r4
	@DEBUG_VALUE: lv_textarea_set_placeholder_text:obj <- $r4
	.loc	12 372 35                       @ ../GUILib/src/widgets/lv_textarea.c:372:35
	bl	lv_mem_realloc
.Ltmp582:
	.loc	12 0 35 is_stmt 0               @ ../GUILib/src/widgets/lv_textarea.c:0:35
	b	.LBB18_8
.Ltmp583:
	.p2align	2
.LBB18_4:                               @ =>This Inner Loop Header: Depth=1
	@DEBUG_VALUE: lv_textarea_set_placeholder_text:txt <- $r1
	@DEBUG_VALUE: lv_textarea_set_placeholder_text:obj <- $r0
	.loc	12 353 5 is_stmt 1              @ ../GUILib/src/widgets/lv_textarea.c:353:5
	b	.LBB18_4
.Ltmp584:
.LBB18_5:
	@DEBUG_VALUE: lv_textarea_set_placeholder_text:txt <- $r5
	@DEBUG_VALUE: lv_textarea_set_placeholder_text:ta <- $r4
	@DEBUG_VALUE: lv_textarea_set_placeholder_text:obj <- $r4
	@DEBUG_VALUE: lv_textarea_set_placeholder_text:txt_len <- $r1
	@DEBUG_VALUE: lv_textarea_set_placeholder_text:ta <- $r4
	.loc	12 360 12                       @ ../GUILib/src/widgets/lv_textarea.c:360:12
	cbz	r0, .LBB18_10
.Ltmp585:
@ %bb.6:
	@DEBUG_VALUE: lv_textarea_set_placeholder_text:txt <- $r5
	@DEBUG_VALUE: lv_textarea_set_placeholder_text:ta <- $r4
	@DEBUG_VALUE: lv_textarea_set_placeholder_text:obj <- $r4
	@DEBUG_VALUE: lv_textarea_set_placeholder_text:txt_len <- $r1
	.loc	12 361 13                       @ ../GUILib/src/widgets/lv_textarea.c:361:13
	bl	lv_mem_free
.Ltmp586:
	.loc	12 0 13 is_stmt 0               @ ../GUILib/src/widgets/lv_textarea.c:0:13
	movs	r0, #0
	.loc	12 362 33 is_stmt 1             @ ../GUILib/src/widgets/lv_textarea.c:362:33
	str	r0, [r4, #40]
	b	.LBB18_10
.Ltmp587:
.LBB18_7:
	@DEBUG_VALUE: lv_textarea_set_placeholder_text:txt <- $r5
	@DEBUG_VALUE: lv_textarea_set_placeholder_text:ta <- $r4
	@DEBUG_VALUE: lv_textarea_set_placeholder_text:obj <- $r4
	.loc	12 369 35                       @ ../GUILib/src/widgets/lv_textarea.c:369:35
	mov	r0, r1
	bl	lv_mem_alloc
.Ltmp588:
.LBB18_8:
	@DEBUG_VALUE: lv_textarea_set_placeholder_text:txt <- $r5
	@DEBUG_VALUE: lv_textarea_set_placeholder_text:ta <- $r4
	@DEBUG_VALUE: lv_textarea_set_placeholder_text:obj <- $r4
	.loc	12 0 0 is_stmt 0                @ ../GUILib/src/widgets/lv_textarea.c:0:0
	str	r0, [r4, #40]
.Ltmp589:
	.loc	12 375 9 is_stmt 1              @ ../GUILib/src/widgets/lv_textarea.c:375:9
	cbz	r0, .LBB18_11
.Ltmp590:
@ %bb.9:
	@DEBUG_VALUE: lv_textarea_set_placeholder_text:txt <- $r5
	@DEBUG_VALUE: lv_textarea_set_placeholder_text:ta <- $r4
	@DEBUG_VALUE: lv_textarea_set_placeholder_text:obj <- $r4
	.loc	12 380 9                        @ ../GUILib/src/widgets/lv_textarea.c:380:9
	mov	r1, r5
	bl	strcpy
.Ltmp591:
.LBB18_10:
	@DEBUG_VALUE: lv_textarea_set_placeholder_text:txt <- $r5
	@DEBUG_VALUE: lv_textarea_set_placeholder_text:ta <- $r4
	@DEBUG_VALUE: lv_textarea_set_placeholder_text:obj <- $r4
	.loc	12 383 5                        @ ../GUILib/src/widgets/lv_textarea.c:383:5
	mov	r0, r4
	pop.w	{r4, r5, r7, lr}
.Ltmp592:
	@DEBUG_VALUE: lv_textarea_set_placeholder_text:txt <- [DW_OP_LLVM_entry_value 1] $r1
	@DEBUG_VALUE: lv_textarea_set_placeholder_text:obj <- [DW_OP_LLVM_entry_value 1] $r0
	b	lv_obj_invalidate
.Ltmp593:
	.p2align	2
.LBB18_11:                              @ =>This Inner Loop Header: Depth=1
	@DEBUG_VALUE: lv_textarea_set_placeholder_text:txt <- $r5
	@DEBUG_VALUE: lv_textarea_set_placeholder_text:ta <- $r4
	@DEBUG_VALUE: lv_textarea_set_placeholder_text:obj <- $r4
	.loc	12 375 9                        @ ../GUILib/src/widgets/lv_textarea.c:375:9
	b	.LBB18_11
.Ltmp594:
.Lfunc_end18:
	.size	lv_textarea_set_placeholder_text, .Lfunc_end18-lv_textarea_set_placeholder_text
	.cfi_endproc
	.file	26 "C:\\Users\\Hyacincher\\Desktop\\HyTelectrl\\Code\\Project" "../GUILib/src/widgets/../core/lv_obj_pos.h"
	.cantunwind
	.fnend
                                        @ -- End function
	.section	.text.start_cursor_blink,"ax",%progbits
	.p2align	1                               @ -- Begin function start_cursor_blink
	.type	start_cursor_blink,%function
	.code	16                              @ @start_cursor_blink
	.thumb_func
start_cursor_blink:
.Lfunc_begin19:
	.loc	12 1030 0                       @ ../GUILib/src/widgets/lv_textarea.c:1030:0
	.fnstart
	.cfi_startproc
@ %bb.0:
	@DEBUG_VALUE: start_cursor_blink:obj <- $r0
	.save	{r4, r5, r6, lr}
	push	{r4, r5, r6, lr}
	.cfi_def_cfa_offset 16
	.cfi_offset lr, -4
	.cfi_offset r6, -8
	.cfi_offset r5, -12
	.cfi_offset r4, -16
	.pad	#64
	sub	sp, #64
	.cfi_def_cfa_offset 80
.Ltmp595:
	.loc	21 159 26 prologue_end          @ ../GUILib/src/widgets/../core/lv_obj_style_gen.h:159:26
	mov.w	r1, #458752
	movs	r2, #101
	mov	r4, r0
.Ltmp596:
	@DEBUG_VALUE: lv_obj_get_style_anim_time:part <- 458752
	@DEBUG_VALUE: lv_obj_get_style_anim_time:obj <- $r4
	@DEBUG_VALUE: start_cursor_blink:ta <- $r4
	@DEBUG_VALUE: start_cursor_blink:obj <- $r4
	bl	lv_obj_get_style_prop
.Ltmp597:
	@DEBUG_VALUE: start_cursor_blink:blink_time <- $r0
	@DEBUG_VALUE: lv_obj_get_style_anim_time:v <- $r0
	.loc	12 1033 8                       @ ../GUILib/src/widgets/lv_textarea.c:1033:8
	cbz	r0, .LBB19_2
.Ltmp598:
@ %bb.1:
	@DEBUG_VALUE: start_cursor_blink:obj <- $r4
	@DEBUG_VALUE: start_cursor_blink:ta <- $r4
	@DEBUG_VALUE: start_cursor_blink:blink_time <- $r0
	.loc	12 0 8 is_stmt 0                @ ../GUILib/src/widgets/lv_textarea.c:0:8
	mov	r6, sp
	mov	r5, r0
.Ltmp599:
	@DEBUG_VALUE: start_cursor_blink:blink_time <- $r5
	@DEBUG_VALUE: lv_obj_get_style_anim_time:v <- $r5
	@DEBUG_VALUE: start_cursor_blink:blink_time <- $r5
	.loc	12 1039 9 is_stmt 1             @ ../GUILib/src/widgets/lv_textarea.c:1039:9
	mov	r0, r6
	bl	lv_anim_init
.Ltmp600:
	@DEBUG_VALUE: lv_anim_set_var:var <- $r4
	@DEBUG_VALUE: lv_anim_set_var:a <- $sp
	.loc	14 135 16                       @ ../GUILib/src/widgets/../misc/lv_anim.h:135:16
	movw	r0, :lower16:cursor_blink_anim_cb
	movt	r0, :upper16:cursor_blink_anim_cb
.Ltmp601:
	@DEBUG_VALUE: lv_anim_set_exec_cb:exec_cb <- $r0
	str	r0, [sp, #4]
.Ltmp602:
	@DEBUG_VALUE: lv_anim_set_time:duration <- $r5
	@DEBUG_VALUE: lv_anim_set_time:a <- $sp
	.loc	14 0 16 is_stmt 0               @ ../GUILib/src/widgets/../misc/lv_anim.h:0:16
	movs	r0, #1
.Ltmp603:
	@DEBUG_VALUE: lv_anim_set_values:end <- 0
	@DEBUG_VALUE: lv_anim_set_values:start <- 1
	@DEBUG_VALUE: lv_anim_set_values:a <- $sp
	.loc	14 166 20 is_stmt 1             @ ../GUILib/src/widgets/../misc/lv_anim.h:166:20
	strd	r0, r0, [sp, #28]
	movs	r0, #0
	.loc	14 168 18                       @ ../GUILib/src/widgets/../misc/lv_anim.h:168:18
	str	r0, [sp, #36]
.Ltmp604:
	@DEBUG_VALUE: lv_anim_set_path_cb:a <- $sp
	.loc	14 193 16                       @ ../GUILib/src/widgets/../misc/lv_anim.h:193:16
	movw	r0, :lower16:lv_anim_path_step
	movt	r0, :upper16:lv_anim_path_step
.Ltmp605:
	@DEBUG_VALUE: lv_anim_set_path_cb:path_cb <- $r0
	str	r0, [sp, #24]
	movw	r0, #65535
.Ltmp606:
	@DEBUG_VALUE: lv_anim_set_repeat_count:cnt <- -1
	@DEBUG_VALUE: lv_anim_set_repeat_count:a <- $sp
	.loc	14 254 19                       @ ../GUILib/src/widgets/../misc/lv_anim.h:254:19
	strh.w	r0, [sp, #60]
.Ltmp607:
	.loc	12 1047 9                       @ ../GUILib/src/widgets/lv_textarea.c:1047:9
	mov	r0, r6
.Ltmp608:
	.loc	14 123 12                       @ ../GUILib/src/widgets/../misc/lv_anim.h:123:12
	str	r4, [sp]
.Ltmp609:
	@DEBUG_VALUE: lv_anim_set_exec_cb:a <- $sp
	.loc	14 145 13                       @ ../GUILib/src/widgets/../misc/lv_anim.h:145:13
	str	r5, [sp, #40]
.Ltmp610:
	@DEBUG_VALUE: lv_anim_set_playback_time:time <- $r5
	@DEBUG_VALUE: lv_anim_set_playback_time:a <- $sp
	.loc	14 234 22                       @ ../GUILib/src/widgets/../misc/lv_anim.h:234:22
	str	r5, [sp, #52]
.Ltmp611:
	.loc	12 1047 9                       @ ../GUILib/src/widgets/lv_textarea.c:1047:9
	bl	lv_anim_start
.Ltmp612:
	.loc	12 0 9 is_stmt 0                @ ../GUILib/src/widgets/lv_textarea.c:0:9
	b	.LBB19_3
.Ltmp613:
.LBB19_2:
	@DEBUG_VALUE: start_cursor_blink:obj <- $r4
	@DEBUG_VALUE: start_cursor_blink:ta <- $r4
	@DEBUG_VALUE: start_cursor_blink:blink_time <- $r0
	@DEBUG_VALUE: start_cursor_blink:ta <- $r4
	.loc	12 1034 9 is_stmt 1             @ ../GUILib/src/widgets/lv_textarea.c:1034:9
	movw	r1, :lower16:cursor_blink_anim_cb
	movt	r1, :upper16:cursor_blink_anim_cb
	mov	r0, r4
.Ltmp614:
	bl	lv_anim_del
.Ltmp615:
	.loc	12 1035 25                      @ ../GUILib/src/widgets/lv_textarea.c:1035:25
	ldrb.w	r0, [r4, #80]
	orr	r0, r0, #1
	strb.w	r0, [r4, #80]
.Ltmp616:
.LBB19_3:
	@DEBUG_VALUE: start_cursor_blink:obj <- $r4
	@DEBUG_VALUE: start_cursor_blink:ta <- $r4
	.loc	12 1049 1                       @ ../GUILib/src/widgets/lv_textarea.c:1049:1
	add	sp, #64
	pop	{r4, r5, r6, pc}
.Ltmp617:
.Lfunc_end19:
	.size	start_cursor_blink, .Lfunc_end19-start_cursor_blink
	.cfi_endproc
	.cantunwind
	.fnend
                                        @ -- End function
	.section	.text.refr_cursor_area,"ax",%progbits
	.p2align	1                               @ -- Begin function refr_cursor_area
	.type	refr_cursor_area,%function
	.code	16                              @ @refr_cursor_area
	.thumb_func
refr_cursor_area:
.Lfunc_begin20:
	.loc	12 1052 0                       @ ../GUILib/src/widgets/lv_textarea.c:1052:0
	.fnstart
	.cfi_startproc
@ %bb.0:
	@DEBUG_VALUE: refr_cursor_area:obj <- $r0
	.save	{r4, r5, r6, r7, r8, r9, r10, r11, lr}
	push.w	{r4, r5, r6, r7, r8, r9, r10, r11, lr}
	.cfi_def_cfa_offset 36
	.cfi_offset lr, -4
	.cfi_offset r11, -8
	.cfi_offset r10, -12
	.cfi_offset r9, -16
	.cfi_offset r8, -20
	.cfi_offset r7, -24
	.cfi_offset r6, -28
	.cfi_offset r5, -32
	.cfi_offset r4, -36
	.pad	#28
	sub	sp, #28
	.cfi_def_cfa_offset 64
.Ltmp618:
	.loc	21 333 26 prologue_end          @ ../GUILib/src/widgets/../core/lv_obj_style_gen.h:333:26
	movs	r1, #0
	movw	r2, #5209
	mov	r4, r0
.Ltmp619:
	@DEBUG_VALUE: lv_obj_get_style_text_font:part <- 0
	@DEBUG_VALUE: lv_obj_get_style_text_font:obj <- $r4
	@DEBUG_VALUE: refr_cursor_area:ta <- $r4
	@DEBUG_VALUE: refr_cursor_area:obj <- $r4
	bl	lv_obj_get_style_prop
.Ltmp620:
	mov	r7, r0
.Ltmp621:
	@DEBUG_VALUE: lv_obj_get_style_text_line_space:part <- 0
	@DEBUG_VALUE: lv_obj_get_style_text_line_space:obj <- $r4
	@DEBUG_VALUE: refr_cursor_area:font <- $r7
	@DEBUG_VALUE: lv_obj_get_style_text_font:v <- $r7
	.loc	21 345 26                       @ ../GUILib/src/widgets/../core/lv_obj_style_gen.h:345:26
	mov	r0, r4
	movs	r1, #0
	movw	r2, #5211
	bl	lv_obj_get_style_prop
.Ltmp622:
	.loc	12 1059 46                      @ ../GUILib/src/widgets/lv_textarea.c:1059:46
	ldr	r1, [r4, #36]
.Ltmp623:
	@DEBUG_VALUE: lv_textarea_get_cursor_pos:ta <- $r4
	@DEBUG_VALUE: lv_textarea_get_cursor_pos:obj <- $r4
	.loc	12 615 23                       @ ../GUILib/src/widgets/lv_textarea.c:615:23
	ldr.w	r9, [r4, #64]
.Ltmp624:
	@DEBUG_VALUE: refr_cursor_area:cur_pos <- $r9
	.loc	21 345 26                       @ ../GUILib/src/widgets/../core/lv_obj_style_gen.h:345:26
	str	r0, [sp, #8]                    @ 4-byte Spill
.Ltmp625:
	@DEBUG_VALUE: refr_cursor_area:line_space <- [DW_OP_plus_uconst 8, DW_OP_deref_size 4, DW_OP_LLVM_convert 32 7, DW_OP_LLVM_convert 16 7, DW_OP_stack_value] $sp
	@DEBUG_VALUE: lv_obj_get_style_text_line_space:v <- [DW_OP_plus_uconst 8] [$sp+0]
	@DEBUG_VALUE: lv_obj_get_style_text_line_space:part <- 0
	@DEBUG_VALUE: lv_obj_get_style_text_line_space:obj <- $r4
	.loc	12 1059 24                      @ ../GUILib/src/widgets/lv_textarea.c:1059:24
	mov	r0, r1
	bl	lv_label_get_text
.Ltmp626:
	.loc	12 1062 16                      @ ../GUILib/src/widgets/lv_textarea.c:1062:16
	movw	r1, :lower16:_lv_txt_encoded_get_byte_id
	movt	r1, :upper16:_lv_txt_encoded_get_byte_id
	ldr	r2, [r1]
	mov	r1, r9
	.loc	12 1059 24                      @ ../GUILib/src/widgets/lv_textarea.c:1059:24
	mov	r6, r0
.Ltmp627:
	@DEBUG_VALUE: refr_cursor_area:txt <- $r6
	.loc	12 1062 16                      @ ../GUILib/src/widgets/lv_textarea.c:1062:16
	blx	r2
.Ltmp628:
	@DEBUG_VALUE: refr_cursor_area:byte_pos <- $r0
	.loc	12 1064 23                      @ ../GUILib/src/widgets/lv_textarea.c:1064:23
	movw	r1, :lower16:_lv_txt_encoded_next
	movt	r1, :upper16:_lv_txt_encoded_next
	ldr	r2, [r1]
	.loc	12 1064 45 is_stmt 0            @ ../GUILib/src/widgets/lv_textarea.c:1064:45
	add.w	r11, r6, r0
	str	r0, [sp, #12]                   @ 4-byte Spill
.Ltmp629:
	@DEBUG_VALUE: refr_cursor_area:byte_pos <- [DW_OP_plus_uconst 12] [$sp+0]
	@DEBUG_VALUE: refr_cursor_area:byte_pos <- [DW_OP_plus_uconst 12] [$sp+0]
	.loc	12 1064 23                      @ ../GUILib/src/widgets/lv_textarea.c:1064:23
	mov	r0, r11
	movs	r1, #0
	blx	r2
.Ltmp630:
	.loc	18 120 20 is_stmt 1             @ ../GUILib/src/widgets/../font/lv_font.h:120:20
	ldrh.w	r10, [r7, #8]
.Ltmp631:
	@DEBUG_VALUE: refr_cursor_area:letter_h <- undef
	.loc	12 1064 23                      @ ../GUILib/src/widgets/lv_textarea.c:1064:23
	mov	r5, r0
.Ltmp632:
	@DEBUG_VALUE: refr_cursor_area:letter <- $r5
	@DEBUG_VALUE: lv_font_get_line_height:font_p <- $r7
	.loc	12 1070 23                      @ ../GUILib/src/widgets/lv_textarea.c:1070:23
	cmp	r0, #13
	bhi	.LBB20_3
.Ltmp633:
@ %bb.1:
	@DEBUG_VALUE: refr_cursor_area:cur_pos <- $r9
	@DEBUG_VALUE: lv_font_get_line_height:font_p <- $r7
	@DEBUG_VALUE: lv_obj_get_style_text_font:v <- $r7
	@DEBUG_VALUE: refr_cursor_area:font <- $r7
	@DEBUG_VALUE: refr_cursor_area:txt <- $r6
	@DEBUG_VALUE: refr_cursor_area:letter <- $r5
	@DEBUG_VALUE: lv_textarea_get_cursor_pos:obj <- $r4
	@DEBUG_VALUE: lv_textarea_get_cursor_pos:ta <- $r4
	@DEBUG_VALUE: lv_obj_get_style_text_line_space:obj <- $r4
	@DEBUG_VALUE: refr_cursor_area:obj <- $r4
	@DEBUG_VALUE: refr_cursor_area:ta <- $r4
	@DEBUG_VALUE: lv_obj_get_style_text_font:obj <- $r4
	@DEBUG_VALUE: refr_cursor_area:byte_pos <- [DW_OP_plus_uconst 12] [$sp+0]
	@DEBUG_VALUE: lv_obj_get_style_text_line_space:v <- [DW_OP_plus_uconst 8] [$sp+0]
	@DEBUG_VALUE: refr_cursor_area:line_space <- [DW_OP_plus_uconst 8, DW_OP_deref_size 4, DW_OP_LLVM_convert 32 7, DW_OP_LLVM_convert 16 7, DW_OP_stack_value] $sp
	@DEBUG_VALUE: lv_obj_get_style_text_line_space:part <- 0
	@DEBUG_VALUE: lv_obj_get_style_text_font:part <- 0
	.loc	12 0 23 is_stmt 0               @ ../GUILib/src/widgets/lv_textarea.c:0:23
	movs	r0, #1
	lsls	r0, r5
	movw	r1, #9217
	tst	r0, r1
	beq	.LBB20_3
.Ltmp634:
@ %bb.2:
	@DEBUG_VALUE: refr_cursor_area:cur_pos <- $r9
	@DEBUG_VALUE: lv_font_get_line_height:font_p <- $r7
	@DEBUG_VALUE: lv_obj_get_style_text_font:v <- $r7
	@DEBUG_VALUE: refr_cursor_area:font <- $r7
	@DEBUG_VALUE: refr_cursor_area:txt <- $r6
	@DEBUG_VALUE: refr_cursor_area:letter <- $r5
	@DEBUG_VALUE: lv_textarea_get_cursor_pos:obj <- $r4
	@DEBUG_VALUE: lv_textarea_get_cursor_pos:ta <- $r4
	@DEBUG_VALUE: lv_obj_get_style_text_line_space:obj <- $r4
	@DEBUG_VALUE: refr_cursor_area:obj <- $r4
	@DEBUG_VALUE: refr_cursor_area:ta <- $r4
	@DEBUG_VALUE: lv_obj_get_style_text_font:obj <- $r4
	@DEBUG_VALUE: refr_cursor_area:byte_pos <- [DW_OP_plus_uconst 12] [$sp+0]
	@DEBUG_VALUE: lv_obj_get_style_text_line_space:v <- [DW_OP_plus_uconst 8] [$sp+0]
	@DEBUG_VALUE: refr_cursor_area:line_space <- [DW_OP_plus_uconst 8, DW_OP_deref_size 4, DW_OP_LLVM_convert 32 7, DW_OP_LLVM_convert 16 7, DW_OP_stack_value] $sp
	@DEBUG_VALUE: lv_obj_get_style_text_line_space:part <- 0
	@DEBUG_VALUE: lv_obj_get_style_text_font:part <- 0
	movs	r1, #32
	b	.LBB20_4
.Ltmp635:
.LBB20_3:
	@DEBUG_VALUE: refr_cursor_area:cur_pos <- $r9
	@DEBUG_VALUE: lv_font_get_line_height:font_p <- $r7
	@DEBUG_VALUE: lv_obj_get_style_text_font:v <- $r7
	@DEBUG_VALUE: refr_cursor_area:font <- $r7
	@DEBUG_VALUE: refr_cursor_area:txt <- $r6
	@DEBUG_VALUE: refr_cursor_area:letter <- $r5
	@DEBUG_VALUE: lv_textarea_get_cursor_pos:obj <- $r4
	@DEBUG_VALUE: lv_textarea_get_cursor_pos:ta <- $r4
	@DEBUG_VALUE: lv_obj_get_style_text_line_space:obj <- $r4
	@DEBUG_VALUE: refr_cursor_area:obj <- $r4
	@DEBUG_VALUE: refr_cursor_area:ta <- $r4
	@DEBUG_VALUE: lv_obj_get_style_text_font:obj <- $r4
	@DEBUG_VALUE: refr_cursor_area:byte_pos <- [DW_OP_plus_uconst 12] [$sp+0]
	@DEBUG_VALUE: lv_obj_get_style_text_line_space:v <- [DW_OP_plus_uconst 8] [$sp+0]
	@DEBUG_VALUE: refr_cursor_area:line_space <- [DW_OP_plus_uconst 8, DW_OP_deref_size 4, DW_OP_LLVM_convert 32 7, DW_OP_LLVM_convert 16 7, DW_OP_stack_value] $sp
	@DEBUG_VALUE: lv_obj_get_style_text_line_space:part <- 0
	@DEBUG_VALUE: lv_obj_get_style_text_font:part <- 0
	mov	r1, r5
.Ltmp636:
.LBB20_4:
	@DEBUG_VALUE: refr_cursor_area:cur_pos <- $r9
	@DEBUG_VALUE: refr_cursor_area:font <- $r7
	@DEBUG_VALUE: refr_cursor_area:txt <- $r6
	@DEBUG_VALUE: refr_cursor_area:letter <- $r5
	@DEBUG_VALUE: refr_cursor_area:obj <- $r4
	@DEBUG_VALUE: refr_cursor_area:ta <- $r4
	@DEBUG_VALUE: refr_cursor_area:byte_pos <- [DW_OP_plus_uconst 12] [$sp+0]
	@DEBUG_VALUE: refr_cursor_area:line_space <- [DW_OP_plus_uconst 8, DW_OP_deref_size 4, DW_OP_LLVM_convert 32 7, DW_OP_LLVM_convert 16 7, DW_OP_stack_value] $sp
	mov	r0, r7
	movs	r2, #0
	str	r7, [sp, #4]                    @ 4-byte Spill
.Ltmp637:
	@DEBUG_VALUE: refr_cursor_area:font <- [DW_OP_plus_uconst 4] [$sp+0]
	bl	lv_font_get_glyph_width
.Ltmp638:
	.loc	12 1079 33 is_stmt 1            @ ../GUILib/src/widgets/lv_textarea.c:1079:33
	ldr	r1, [r4, #36]
.Ltmp639:
	.loc	12 0 0 is_stmt 0                @ ../GUILib/src/widgets/lv_textarea.c:0:0
	mov	r8, r0
.Ltmp640:
	@DEBUG_VALUE: refr_cursor_area:letter_w <- undef
	add	r2, sp, #24
.Ltmp641:
	.loc	12 1079 5                       @ ../GUILib/src/widgets/lv_textarea.c:1079:5
	mov	r0, r1
	mov	r1, r9
	bl	lv_label_get_letter_pos
.Ltmp642:
	.loc	12 1081 67 is_stmt 1            @ ../GUILib/src/widgets/lv_textarea.c:1081:67
	ldr	r7, [r4, #36]
	.loc	12 1081 88 is_stmt 0            @ ../GUILib/src/widgets/lv_textarea.c:1081:88
	mov	r0, r7
	bl	lv_label_get_text
.Ltmp643:
	mov	r2, r0
	.loc	12 1081 29                      @ ../GUILib/src/widgets/lv_textarea.c:1081:29
	mov	r0, r7
	movs	r1, #0
	bl	lv_obj_calculate_style_text_align
.Ltmp644:
	.loc	12 1084 27 is_stmt 1            @ ../GUILib/src/widgets/lv_textarea.c:1084:27
	ldr	r2, [r4, #36]
	.loc	12 1084 19 is_stmt 0            @ ../GUILib/src/widgets/lv_textarea.c:1084:19
	ldrsh.w	r1, [sp, #24]
	.loc	12 1084 41                      @ ../GUILib/src/widgets/lv_textarea.c:1084:41
	ldrsh.w	r3, [r2, #20]
	.loc	12 1084 21                      @ ../GUILib/src/widgets/lv_textarea.c:1084:21
	sxtah	r1, r1, r8
	.loc	12 1084 75                      @ ../GUILib/src/widgets/lv_textarea.c:1084:75
	ldrsh.w	r2, [r2, #24]
	.loc	12 1084 44                      @ ../GUILib/src/widgets/lv_textarea.c:1084:44
	add	r1, r3
	.loc	12 1084 78                      @ ../GUILib/src/widgets/lv_textarea.c:1084:78
	cmp	r1, r2
.Ltmp645:
	@DEBUG_VALUE: refr_cursor_area:align <- undef
	ble	.LBB20_12
.Ltmp646:
@ %bb.5:
	@DEBUG_VALUE: refr_cursor_area:font <- [DW_OP_plus_uconst 4] [$sp+0]
	@DEBUG_VALUE: refr_cursor_area:cur_pos <- $r9
	@DEBUG_VALUE: refr_cursor_area:txt <- $r6
	@DEBUG_VALUE: refr_cursor_area:letter <- $r5
	@DEBUG_VALUE: refr_cursor_area:obj <- $r4
	@DEBUG_VALUE: refr_cursor_area:ta <- $r4
	@DEBUG_VALUE: refr_cursor_area:byte_pos <- [DW_OP_plus_uconst 12] [$sp+0]
	@DEBUG_VALUE: refr_cursor_area:line_space <- [DW_OP_plus_uconst 8, DW_OP_deref_size 4, DW_OP_LLVM_convert 32 7, DW_OP_LLVM_convert 16 7, DW_OP_stack_value] $sp
	.loc	12 1084 99                      @ ../GUILib/src/widgets/lv_textarea.c:1084:99
	cmp	r0, #3
	mov	r7, r10
	beq	.LBB20_13
.Ltmp647:
@ %bb.6:
	@DEBUG_VALUE: refr_cursor_area:font <- [DW_OP_plus_uconst 4] [$sp+0]
	@DEBUG_VALUE: refr_cursor_area:cur_pos <- $r9
	@DEBUG_VALUE: refr_cursor_area:txt <- $r6
	@DEBUG_VALUE: refr_cursor_area:letter <- $r5
	@DEBUG_VALUE: refr_cursor_area:obj <- $r4
	@DEBUG_VALUE: refr_cursor_area:ta <- $r4
	@DEBUG_VALUE: refr_cursor_area:byte_pos <- [DW_OP_plus_uconst 12] [$sp+0]
	@DEBUG_VALUE: refr_cursor_area:line_space <- [DW_OP_plus_uconst 8, DW_OP_deref_size 4, DW_OP_LLVM_convert 32 7, DW_OP_LLVM_convert 16 7, DW_OP_stack_value] $sp
	.loc	12 0 0                          @ ../GUILib/src/widgets/lv_textarea.c:0:0
	ldrb.w	r0, [r4, #92]
	ands	r0, r0, #8
	.loc	12 1084 99                      @ ../GUILib/src/widgets/lv_textarea.c:1084:99
	bne	.LBB20_13
.Ltmp648:
@ %bb.7:
	@DEBUG_VALUE: refr_cursor_area:font <- [DW_OP_plus_uconst 4] [$sp+0]
	@DEBUG_VALUE: refr_cursor_area:cur_pos <- $r9
	@DEBUG_VALUE: refr_cursor_area:txt <- $r6
	@DEBUG_VALUE: refr_cursor_area:letter <- $r5
	@DEBUG_VALUE: refr_cursor_area:obj <- $r4
	@DEBUG_VALUE: refr_cursor_area:ta <- $r4
	@DEBUG_VALUE: refr_cursor_area:byte_pos <- [DW_OP_plus_uconst 12] [$sp+0]
	@DEBUG_VALUE: refr_cursor_area:line_space <- [DW_OP_plus_uconst 8, DW_OP_deref_size 4, DW_OP_LLVM_convert 32 7, DW_OP_LLVM_convert 16 7, DW_OP_stack_value] $sp
	.loc	12 0 99                         @ ../GUILib/src/widgets/lv_textarea.c:0:99
	movs	r0, #0
.Ltmp649:
	.loc	12 1087 34 is_stmt 1            @ ../GUILib/src/widgets/lv_textarea.c:1087:34
	ldr	r1, [sp, #8]                    @ 4-byte Reload
	.loc	12 1086 22                      @ ../GUILib/src/widgets/lv_textarea.c:1086:22
	strh.w	r0, [sp, #24]
	.loc	12 1087 22                      @ ../GUILib/src/widgets/lv_textarea.c:1087:22
	ldrh.w	r0, [sp, #26]
	.loc	12 1087 34 is_stmt 0            @ ../GUILib/src/widgets/lv_textarea.c:1087:34
	add	r1, r7
	.loc	12 1089 12 is_stmt 1            @ ../GUILib/src/widgets/lv_textarea.c:1089:12
	cmp	r5, #0
	ldr	r5, [sp, #12]                   @ 4-byte Reload
.Ltmp650:
	.loc	12 1087 22                      @ ../GUILib/src/widgets/lv_textarea.c:1087:22
	add	r0, r1
	strh.w	r0, [sp, #26]
	.loc	12 1089 12                      @ ../GUILib/src/widgets/lv_textarea.c:1089:12
	beq	.LBB20_10
.Ltmp651:
@ %bb.8:
	@DEBUG_VALUE: refr_cursor_area:font <- [DW_OP_plus_uconst 4] [$sp+0]
	@DEBUG_VALUE: refr_cursor_area:cur_pos <- $r9
	@DEBUG_VALUE: refr_cursor_area:txt <- $r6
	@DEBUG_VALUE: refr_cursor_area:obj <- $r4
	@DEBUG_VALUE: refr_cursor_area:ta <- $r4
	@DEBUG_VALUE: refr_cursor_area:byte_pos <- [DW_OP_plus_uconst 12] [$sp+0]
	@DEBUG_VALUE: refr_cursor_area:line_space <- [DW_OP_plus_uconst 8, DW_OP_deref_size 4, DW_OP_LLVM_convert 32 7, DW_OP_LLVM_convert 16 7, DW_OP_stack_value] $sp
	.loc	12 1090 25                      @ ../GUILib/src/widgets/lv_textarea.c:1090:25
	movw	r0, :lower16:_lv_txt_encoded_size
	movt	r0, :upper16:_lv_txt_encoded_size
	ldr	r1, [r0]
	mov	r0, r11
	blx	r1
.Ltmp652:
	.loc	12 1090 22 is_stmt 0            @ ../GUILib/src/widgets/lv_textarea.c:1090:22
	add	r5, r0
.Ltmp653:
	@DEBUG_VALUE: refr_cursor_area:byte_pos <- $r5
	.loc	12 1091 22 is_stmt 1            @ ../GUILib/src/widgets/lv_textarea.c:1091:22
	movw	r0, :lower16:_lv_txt_encoded_next
	movt	r0, :upper16:_lv_txt_encoded_next
	ldr	r2, [r0]
	.loc	12 1091 44 is_stmt 0            @ ../GUILib/src/widgets/lv_textarea.c:1091:44
	adds	r0, r6, r5
	.loc	12 1091 22                      @ ../GUILib/src/widgets/lv_textarea.c:1091:22
	movs	r1, #0
	blx	r2
.Ltmp654:
	mov	r1, r0
.Ltmp655:
	@DEBUG_VALUE: refr_cursor_area:letter <- $r1
	.loc	12 1094 27 is_stmt 1            @ ../GUILib/src/widgets/lv_textarea.c:1094:27
	cmp	r0, #13
	bhi.w	.LBB20_15
.Ltmp656:
@ %bb.9:
	@DEBUG_VALUE: refr_cursor_area:font <- [DW_OP_plus_uconst 4] [$sp+0]
	@DEBUG_VALUE: refr_cursor_area:cur_pos <- $r9
	@DEBUG_VALUE: refr_cursor_area:txt <- $r6
	@DEBUG_VALUE: refr_cursor_area:byte_pos <- $r5
	@DEBUG_VALUE: refr_cursor_area:obj <- $r4
	@DEBUG_VALUE: refr_cursor_area:ta <- $r4
	@DEBUG_VALUE: refr_cursor_area:letter <- $r1
	@DEBUG_VALUE: refr_cursor_area:line_space <- [DW_OP_plus_uconst 8, DW_OP_deref_size 4, DW_OP_LLVM_convert 32 7, DW_OP_LLVM_convert 16 7, DW_OP_stack_value] $sp
	.loc	12 0 27 is_stmt 0               @ ../GUILib/src/widgets/lv_textarea.c:0:27
	movs	r0, #1
	lsls	r0, r1
	movw	r2, #9217
	tst	r0, r2
	beq.w	.LBB20_15
.Ltmp657:
.LBB20_10:
	@DEBUG_VALUE: refr_cursor_area:font <- [DW_OP_plus_uconst 4] [$sp+0]
	@DEBUG_VALUE: refr_cursor_area:cur_pos <- $r9
	@DEBUG_VALUE: refr_cursor_area:txt <- $r6
	@DEBUG_VALUE: refr_cursor_area:obj <- $r4
	@DEBUG_VALUE: refr_cursor_area:ta <- $r4
	@DEBUG_VALUE: refr_cursor_area:line_space <- [DW_OP_plus_uconst 8, DW_OP_deref_size 4, DW_OP_LLVM_convert 32 7, DW_OP_LLVM_convert 16 7, DW_OP_stack_value] $sp
	.loc	12 1095 24 is_stmt 1            @ ../GUILib/src/widgets/lv_textarea.c:1095:24
	ldr	r0, [sp, #4]                    @ 4-byte Reload
.Ltmp658:
	@DEBUG_VALUE: refr_cursor_area:font <- $r0
	movs	r1, #32
.Ltmp659:
.LBB20_11:
	@DEBUG_VALUE: refr_cursor_area:cur_pos <- $r9
	@DEBUG_VALUE: refr_cursor_area:txt <- $r6
	@DEBUG_VALUE: refr_cursor_area:obj <- $r4
	@DEBUG_VALUE: refr_cursor_area:ta <- $r4
	@DEBUG_VALUE: refr_cursor_area:font <- $r0
	@DEBUG_VALUE: refr_cursor_area:line_space <- [DW_OP_plus_uconst 8, DW_OP_deref_size 4, DW_OP_LLVM_convert 32 7, DW_OP_LLVM_convert 16 7, DW_OP_stack_value] $sp
	.loc	12 0 0 is_stmt 0                @ ../GUILib/src/widgets/lv_textarea.c:0:0
	movs	r2, #0
	bl	lv_font_get_glyph_width
.Ltmp660:
	mov	r8, r0
.Ltmp661:
	@DEBUG_VALUE: refr_cursor_area:letter_w <- undef
	b	.LBB20_14
.Ltmp662:
.LBB20_12:
	@DEBUG_VALUE: refr_cursor_area:font <- [DW_OP_plus_uconst 4] [$sp+0]
	@DEBUG_VALUE: refr_cursor_area:cur_pos <- $r9
	@DEBUG_VALUE: refr_cursor_area:txt <- $r6
	@DEBUG_VALUE: refr_cursor_area:letter <- $r5
	@DEBUG_VALUE: refr_cursor_area:obj <- $r4
	@DEBUG_VALUE: refr_cursor_area:ta <- $r4
	@DEBUG_VALUE: refr_cursor_area:byte_pos <- [DW_OP_plus_uconst 12] [$sp+0]
	@DEBUG_VALUE: refr_cursor_area:line_space <- [DW_OP_plus_uconst 8, DW_OP_deref_size 4, DW_OP_LLVM_convert 32 7, DW_OP_LLVM_convert 16 7, DW_OP_stack_value] $sp
	mov	r7, r10
.Ltmp663:
.LBB20_13:
	@DEBUG_VALUE: refr_cursor_area:font <- [DW_OP_plus_uconst 4] [$sp+0]
	@DEBUG_VALUE: refr_cursor_area:cur_pos <- $r9
	@DEBUG_VALUE: refr_cursor_area:txt <- $r6
	@DEBUG_VALUE: refr_cursor_area:letter <- $r5
	@DEBUG_VALUE: refr_cursor_area:obj <- $r4
	@DEBUG_VALUE: refr_cursor_area:ta <- $r4
	@DEBUG_VALUE: refr_cursor_area:byte_pos <- [DW_OP_plus_uconst 12] [$sp+0]
	@DEBUG_VALUE: refr_cursor_area:line_space <- [DW_OP_plus_uconst 8, DW_OP_deref_size 4, DW_OP_LLVM_convert 32 7, DW_OP_LLVM_convert 16 7, DW_OP_stack_value] $sp
	ldr	r5, [sp, #12]                   @ 4-byte Reload
.Ltmp664:
.LBB20_14:
	@DEBUG_VALUE: refr_cursor_area:cur_pos <- $r9
	@DEBUG_VALUE: refr_cursor_area:txt <- $r6
	@DEBUG_VALUE: refr_cursor_area:obj <- $r4
	@DEBUG_VALUE: refr_cursor_area:ta <- $r4
	@DEBUG_VALUE: refr_cursor_area:line_space <- [DW_OP_plus_uconst 8, DW_OP_deref_size 4, DW_OP_LLVM_convert 32 7, DW_OP_LLVM_convert 16 7, DW_OP_stack_value] $sp
	@DEBUG_VALUE: refr_cursor_area:byte_pos <- $r5
	@DEBUG_VALUE: refr_cursor_area:letter_w <- $r8
	.loc	21 297 26 is_stmt 1             @ ../GUILib/src/widgets/../core/lv_obj_style_gen.h:297:26
	mov	r0, r4
	mov.w	r1, #458752
	movw	r2, #4146
.Ltmp665:
	.loc	12 1103 29                      @ ../GUILib/src/widgets/lv_textarea.c:1103:29
	str	r5, [r4, #76]
.Ltmp666:
	@DEBUG_VALUE: lv_obj_get_style_border_width:part <- 458752
	@DEBUG_VALUE: lv_obj_get_style_border_width:obj <- $r4
	.loc	21 297 26                       @ ../GUILib/src/widgets/../core/lv_obj_style_gen.h:297:26
	bl	lv_obj_get_style_prop
.Ltmp667:
	mov	r5, r0
.Ltmp668:
	@DEBUG_VALUE: lv_obj_get_style_pad_top:part <- 458752
	@DEBUG_VALUE: lv_obj_get_style_pad_top:obj <- $r4
	@DEBUG_VALUE: refr_cursor_area:border_width <- $r5
	@DEBUG_VALUE: lv_obj_get_style_border_width:v <- $r5
	.loc	21 93 26                        @ ../GUILib/src/widgets/../core/lv_obj_style_gen.h:93:26
	mov	r0, r4
	mov.w	r1, #458752
	movw	r2, #6160
	bl	lv_obj_get_style_prop
.Ltmp669:
	mov	r9, r0
.Ltmp670:
	@DEBUG_VALUE: lv_obj_get_style_pad_bottom:part <- 458752
	@DEBUG_VALUE: lv_obj_get_style_pad_bottom:obj <- $r4
	@DEBUG_VALUE: refr_cursor_area:top <- undef
	@DEBUG_VALUE: lv_obj_get_style_pad_top:v <- $r9
	.loc	21 99 26                        @ ../GUILib/src/widgets/../core/lv_obj_style_gen.h:99:26
	mov	r0, r4
	mov.w	r1, #458752
	movw	r2, #6161
	bl	lv_obj_get_style_prop
.Ltmp671:
	mov	r10, r0
.Ltmp672:
	@DEBUG_VALUE: lv_obj_get_style_pad_left:part <- 458752
	@DEBUG_VALUE: lv_obj_get_style_pad_left:obj <- $r4
	@DEBUG_VALUE: refr_cursor_area:bottom <- undef
	@DEBUG_VALUE: lv_obj_get_style_pad_bottom:v <- $r10
	.loc	21 105 26                       @ ../GUILib/src/widgets/../core/lv_obj_style_gen.h:105:26
	mov	r0, r4
	mov.w	r1, #458752
	movw	r2, #6162
	bl	lv_obj_get_style_prop
.Ltmp673:
	mov	r6, r0
.Ltmp674:
	@DEBUG_VALUE: lv_obj_get_style_pad_right:part <- 458752
	@DEBUG_VALUE: lv_obj_get_style_pad_right:obj <- $r4
	@DEBUG_VALUE: refr_cursor_area:left <- undef
	@DEBUG_VALUE: lv_obj_get_style_pad_left:v <- $r6
	.loc	21 111 26                       @ ../GUILib/src/widgets/../core/lv_obj_style_gen.h:111:26
	mov	r0, r4
	mov.w	r1, #458752
	movw	r2, #6163
	bl	lv_obj_get_style_prop
.Ltmp675:
	@DEBUG_VALUE: refr_cursor_area:right <- undef
	@DEBUG_VALUE: lv_obj_get_style_pad_right:v <- $r0
	.loc	12 1113 30                      @ ../GUILib/src/widgets/lv_textarea.c:1113:30
	ldrh.w	r1, [sp, #24]
	.loc	12 1109 70                      @ ../GUILib/src/widgets/lv_textarea.c:1109:70
	adds	r2, r6, r5
	.loc	12 1113 32                      @ ../GUILib/src/widgets/lv_textarea.c:1113:32
	sub.w	r11, r1, r2
.Ltmp676:
	@DEBUG_VALUE: refr_cursor_area:cur_area <- [DW_OP_LLVM_fragment 0 16] $r11
	.loc	12 1114 30                      @ ../GUILib/src/widgets/lv_textarea.c:1114:30
	ldrh.w	r2, [sp, #26]
	.loc	12 1107 68                      @ ../GUILib/src/widgets/lv_textarea.c:1107:68
	add.w	r3, r9, r5
	.loc	12 1114 32                      @ ../GUILib/src/widgets/lv_textarea.c:1114:32
	sub.w	r9, r2, r3
.Ltmp677:
	@DEBUG_VALUE: refr_cursor_area:cur_area <- [DW_OP_LLVM_fragment 16 16] $r9
	.loc	12 1110 72                      @ ../GUILib/src/widgets/lv_textarea.c:1110:72
	subs	r3, r5, #1
	.loc	12 1115 32                      @ ../GUILib/src/widgets/lv_textarea.c:1115:32
	add.w	r6, r3, r8
	.loc	12 1115 40 is_stmt 0            @ ../GUILib/src/widgets/lv_textarea.c:1115:40
	add	r0, r6
	.loc	12 1115 51                      @ ../GUILib/src/widgets/lv_textarea.c:1115:51
	adds	r5, r0, r1
.Ltmp678:
	@DEBUG_VALUE: refr_cursor_area:cur_area <- [DW_OP_LLVM_fragment 32 16] $r5
	.loc	12 1116 32 is_stmt 1            @ ../GUILib/src/widgets/lv_textarea.c:1116:32
	adds	r0, r3, r7
	.loc	12 1121 24                      @ ../GUILib/src/widgets/lv_textarea.c:1121:24
	ldr	r1, [r4, #36]
	.loc	12 1116 41                      @ ../GUILib/src/widgets/lv_textarea.c:1116:41
	add	r0, r10
	.loc	12 1116 52 is_stmt 0            @ ../GUILib/src/widgets/lv_textarea.c:1116:52
	adds	r6, r0, r2
.Ltmp679:
	@DEBUG_VALUE: lv_area_copy:dest <- [DW_OP_plus_uconst 16, DW_OP_stack_value] $sp
	@DEBUG_VALUE: refr_cursor_area:cur_area <- [DW_OP_LLVM_fragment 48 16] $r6
	.loc	6 112 21 is_stmt 1              @ ../GUILib/src/hal/../misc/lv_area.h:112:21
	ldrh.w	r0, [r4, #68]
.Ltmp680:
	.loc	12 1121 38                      @ ../GUILib/src/widgets/lv_textarea.c:1121:38
	ldrh	r3, [r1, #20]
.Ltmp681:
	.loc	6 113 21                        @ ../GUILib/src/hal/../misc/lv_area.h:113:21
	ldrh.w	r2, [r4, #70]
.Ltmp682:
	@DEBUG_VALUE: lv_area_copy:dest <- [DW_OP_plus_uconst 16, DW_OP_stack_value] $sp
	.loc	12 1121 17                      @ ../GUILib/src/widgets/lv_textarea.c:1121:17
	add	r0, r3
	strh.w	r0, [sp, #16]
	.loc	12 1122 38                      @ ../GUILib/src/widgets/lv_textarea.c:1122:38
	ldrh	r0, [r1, #22]
.Ltmp683:
	.loc	6 115 21                        @ ../GUILib/src/hal/../misc/lv_area.h:115:21
	ldrh.w	r1, [r4, #74]
	@DEBUG_VALUE: lv_area_copy:dest <- [DW_OP_plus_uconst 16, DW_OP_stack_value] $sp
	.loc	6 114 21                        @ ../GUILib/src/hal/../misc/lv_area.h:114:21
	ldrh.w	r7, [r4, #72]
.Ltmp684:
	@DEBUG_VALUE: lv_area_copy:dest <- [DW_OP_plus_uconst 16, DW_OP_stack_value] $sp
	.loc	12 1122 17                      @ ../GUILib/src/widgets/lv_textarea.c:1122:17
	add	r2, r0
	.loc	12 1124 17                      @ ../GUILib/src/widgets/lv_textarea.c:1124:17
	add	r0, r1
	add.w	r8, sp, #16
.Ltmp685:
	.loc	12 1122 17                      @ ../GUILib/src/widgets/lv_textarea.c:1122:17
	strh.w	r2, [sp, #18]
	.loc	12 1123 17                      @ ../GUILib/src/widgets/lv_textarea.c:1123:17
	adds	r2, r3, r7
	.loc	12 1124 17                      @ ../GUILib/src/widgets/lv_textarea.c:1124:17
	strh.w	r0, [sp, #22]
	.loc	12 1125 5                       @ ../GUILib/src/widgets/lv_textarea.c:1125:5
	mov	r0, r4
	mov	r1, r8
	.loc	12 1123 17                      @ ../GUILib/src/widgets/lv_textarea.c:1123:17
	strh.w	r2, [sp, #20]
	.loc	12 1125 5                       @ ../GUILib/src/widgets/lv_textarea.c:1125:5
	bl	lv_obj_invalidate_area
.Ltmp686:
	@DEBUG_VALUE: lv_area_copy:dest <- [DW_OP_plus_uconst 68, DW_OP_stack_value] $r4
	@DEBUG_VALUE: lv_area_copy:src <- undef
	@DEBUG_VALUE: lv_area_copy:src <- [DW_OP_plus_uconst 60, DW_OP_plus_uconst 8, DW_OP_stack_value] $r4
	.loc	12 1130 24                      @ ../GUILib/src/widgets/lv_textarea.c:1130:24
	ldr	r0, [r4, #36]
.Ltmp687:
	.loc	6 112 14                        @ ../GUILib/src/hal/../misc/lv_area.h:112:14
	strh.w	r11, [r4, #68]
	.loc	6 113 14                        @ ../GUILib/src/hal/../misc/lv_area.h:113:14
	strh.w	r9, [r4, #70]
.Ltmp688:
	@DEBUG_VALUE: lv_area_copy:dest <- [DW_OP_plus_uconst 68, DW_OP_stack_value] $r4
	.loc	12 1130 38                      @ ../GUILib/src/widgets/lv_textarea.c:1130:38
	ldrh	r1, [r0, #20]
	.loc	12 1131 38                      @ ../GUILib/src/widgets/lv_textarea.c:1131:38
	ldrh	r0, [r0, #22]
	.loc	12 1130 17                      @ ../GUILib/src/widgets/lv_textarea.c:1130:17
	add.w	r2, r1, r11
	strh.w	r2, [sp, #16]
	.loc	12 1131 17                      @ ../GUILib/src/widgets/lv_textarea.c:1131:17
	add.w	r2, r0, r9
	.loc	12 1132 17                      @ ../GUILib/src/widgets/lv_textarea.c:1132:17
	add	r1, r5
	.loc	12 1133 17                      @ ../GUILib/src/widgets/lv_textarea.c:1133:17
	add	r0, r6
	.loc	12 1132 17                      @ ../GUILib/src/widgets/lv_textarea.c:1132:17
	strh.w	r1, [sp, #20]
	.loc	12 1133 17                      @ ../GUILib/src/widgets/lv_textarea.c:1133:17
	strh.w	r0, [sp, #22]
	.loc	12 1134 5                       @ ../GUILib/src/widgets/lv_textarea.c:1134:5
	mov	r0, r4
	mov	r1, r8
.Ltmp689:
	.loc	6 114 14                        @ ../GUILib/src/hal/../misc/lv_area.h:114:14
	strh.w	r5, [r4, #72]
	@DEBUG_VALUE: lv_area_copy:dest <- [DW_OP_plus_uconst 68, DW_OP_stack_value] $r4
	.loc	6 115 14                        @ ../GUILib/src/hal/../misc/lv_area.h:115:14
	strh.w	r6, [r4, #74]
.Ltmp690:
	@DEBUG_VALUE: lv_area_copy:dest <- [DW_OP_plus_uconst 16, DW_OP_stack_value] $sp
	@DEBUG_VALUE: lv_area_copy:dest <- [DW_OP_plus_uconst 68, DW_OP_stack_value] $r4
	.loc	12 1131 17                      @ ../GUILib/src/widgets/lv_textarea.c:1131:17
	strh.w	r2, [sp, #18]
	.loc	12 1134 5                       @ ../GUILib/src/widgets/lv_textarea.c:1134:5
	bl	lv_obj_invalidate_area
.Ltmp691:
	@DEBUG_VALUE: lv_area_copy:src <- [DW_OP_plus_uconst 60, DW_OP_plus_uconst 8, DW_OP_stack_value] undef
	.loc	12 1135 1                       @ ../GUILib/src/widgets/lv_textarea.c:1135:1
	add	sp, #28
	pop.w	{r4, r5, r6, r7, r8, r9, r10, r11, pc}
.Ltmp692:
.LBB20_15:
	@DEBUG_VALUE: refr_cursor_area:font <- [DW_OP_plus_uconst 4] [$sp+0]
	@DEBUG_VALUE: refr_cursor_area:cur_pos <- $r9
	@DEBUG_VALUE: refr_cursor_area:txt <- $r6
	@DEBUG_VALUE: refr_cursor_area:byte_pos <- $r5
	@DEBUG_VALUE: refr_cursor_area:obj <- $r4
	@DEBUG_VALUE: refr_cursor_area:ta <- $r4
	@DEBUG_VALUE: refr_cursor_area:letter <- $r1
	@DEBUG_VALUE: refr_cursor_area:line_space <- [DW_OP_plus_uconst 8, DW_OP_deref_size 4, DW_OP_LLVM_convert 32 7, DW_OP_LLVM_convert 16 7, DW_OP_stack_value] $sp
	.loc	12 1098 24                      @ ../GUILib/src/widgets/lv_textarea.c:1098:24
	ldr	r0, [sp, #4]                    @ 4-byte Reload
.Ltmp693:
	@DEBUG_VALUE: refr_cursor_area:font <- $r0
	.loc	12 0 24 is_stmt 0               @ ../GUILib/src/widgets/lv_textarea.c:0:24
	b	.LBB20_11
.Ltmp694:
.Lfunc_end20:
	.size	refr_cursor_area, .Lfunc_end20-refr_cursor_area
	.cfi_endproc
	.cantunwind
	.fnend
                                        @ -- End function
	.section	.text.lv_textarea_set_cursor_click_pos,"ax",%progbits
	.hidden	lv_textarea_set_cursor_click_pos @ -- Begin function lv_textarea_set_cursor_click_pos
	.globl	lv_textarea_set_cursor_click_pos
	.p2align	1
	.type	lv_textarea_set_cursor_click_pos,%function
	.code	16                              @ @lv_textarea_set_cursor_click_pos
	.thumb_func
lv_textarea_set_cursor_click_pos:
.Lfunc_begin21:
	.loc	12 439 0 is_stmt 1              @ ../GUILib/src/widgets/lv_textarea.c:439:0
	.fnstart
	.cfi_startproc
@ %bb.0:
	@DEBUG_VALUE: lv_textarea_set_cursor_click_pos:obj <- $r0
	@DEBUG_VALUE: lv_textarea_set_cursor_click_pos:obj <- $r0
	@DEBUG_VALUE: lv_textarea_set_cursor_click_pos:en <- [DW_OP_LLVM_convert 1 7, DW_OP_LLVM_convert 8 7, DW_OP_stack_value] $r1
	@DEBUG_VALUE: lv_textarea_set_cursor_click_pos:ta <- $r0
	@DEBUG_VALUE: lv_textarea_set_cursor_click_pos:ta <- $r0
	.loc	12 443 26 prologue_end          @ ../GUILib/src/widgets/lv_textarea.c:443:26
	ldrb.w	r2, [r0, #80]
	@DEBUG_VALUE: lv_textarea_set_cursor_click_pos:en <- [DW_OP_LLVM_convert 1 7, DW_OP_LLVM_convert 8 7, DW_OP_stack_value] $r1
	and	r2, r2, #253
	bfi	r2, r1, #1, #1
	strb.w	r2, [r0, #80]
	.loc	12 444 1                        @ ../GUILib/src/widgets/lv_textarea.c:444:1
	bx	lr
.Ltmp695:
.Lfunc_end21:
	.size	lv_textarea_set_cursor_click_pos, .Lfunc_end21-lv_textarea_set_cursor_click_pos
	.cfi_endproc
	.cantunwind
	.fnend
                                        @ -- End function
	.section	.text.lv_textarea_set_password_mode,"ax",%progbits
	.hidden	lv_textarea_set_password_mode   @ -- Begin function lv_textarea_set_password_mode
	.globl	lv_textarea_set_password_mode
	.p2align	1
	.type	lv_textarea_set_password_mode,%function
	.code	16                              @ @lv_textarea_set_password_mode
	.thumb_func
lv_textarea_set_password_mode:
.Lfunc_begin22:
	.loc	12 447 0                        @ ../GUILib/src/widgets/lv_textarea.c:447:0
	.fnstart
	.cfi_startproc
@ %bb.0:
	@DEBUG_VALUE: lv_textarea_set_password_mode:obj <- $r0
	@DEBUG_VALUE: lv_textarea_set_password_mode:en <- [DW_OP_LLVM_convert 1 7, DW_OP_LLVM_convert 8 7, DW_OP_stack_value] $r1
	.save	{r4, r5, r7, lr}
	push	{r4, r5, r7, lr}
	.cfi_def_cfa_offset 16
	.cfi_offset lr, -4
	.cfi_offset r7, -8
	.cfi_offset r5, -12
	.cfi_offset r4, -16
.Ltmp696:
	@DEBUG_VALUE: lv_textarea_set_password_mode:ta <- $r0
	mov	r4, r0
.Ltmp697:
	@DEBUG_VALUE: lv_textarea_set_password_mode:ta <- $r4
	@DEBUG_VALUE: lv_textarea_set_password_mode:obj <- $r4
	.loc	12 451 12 prologue_end          @ ../GUILib/src/widgets/lv_textarea.c:451:12
	ldrb.w	r0, [r0, #92]
	@DEBUG_VALUE: lv_textarea_set_password_mode:en <- [DW_OP_LLVM_convert 1 7, DW_OP_LLVM_convert 8 7, DW_OP_stack_value] $r1
	movs	r3, #1
	.loc	12 451 21 is_stmt 0             @ ../GUILib/src/widgets/lv_textarea.c:451:21
	and	r2, r0, #4
	eor.w	r2, r3, r2, lsr #2
.Ltmp698:
	.loc	12 451 8                        @ ../GUILib/src/widgets/lv_textarea.c:451:8
	eors	r2, r1
	.loc	12 477 1 is_stmt 1              @ ../GUILib/src/widgets/lv_textarea.c:477:1
	it	ne
	popne	{r4, r5, r7, pc}
.Ltmp699:
.LBB22_1:
	@DEBUG_VALUE: lv_textarea_set_password_mode:en <- [DW_OP_LLVM_convert 1 7, DW_OP_LLVM_convert 8 7, DW_OP_stack_value] $r1
	.loc	12 453 18                       @ ../GUILib/src/widgets/lv_textarea.c:453:18
	and	r0, r0, #251
	bfi	r0, r1, #2, #1
	strb.w	r0, [r4, #92]
	.loc	12 455 8                        @ ../GUILib/src/widgets/lv_textarea.c:455:8
	cbz	r1, .LBB22_5
.Ltmp700:
@ %bb.2:
	@DEBUG_VALUE: lv_textarea_set_password_mode:en <- [DW_OP_LLVM_convert 1 7, DW_OP_LLVM_convert 8 7, DW_OP_stack_value] $r1
	.loc	12 456 46                       @ ../GUILib/src/widgets/lv_textarea.c:456:46
	ldr	r0, [r4, #36]
	.loc	12 456 24 is_stmt 0             @ ../GUILib/src/widgets/lv_textarea.c:456:24
	bl	lv_label_get_text
.Ltmp701:
	mov	r5, r0
.Ltmp702:
	@DEBUG_VALUE: txt <- $r5
	.loc	12 457 22 is_stmt 1             @ ../GUILib/src/widgets/lv_textarea.c:457:22
	bl	strlen
.Ltmp703:
	@DEBUG_VALUE: len <- $r0
	.loc	12 458 40                       @ ../GUILib/src/widgets/lv_textarea.c:458:40
	adds	r0, #1
.Ltmp704:
	.loc	12 458 23 is_stmt 0             @ ../GUILib/src/widgets/lv_textarea.c:458:23
	bl	lv_mem_alloc
.Ltmp705:
	.loc	12 458 21                       @ ../GUILib/src/widgets/lv_textarea.c:458:21
	str	r0, [r4, #44]
.Ltmp706:
	.loc	12 459 9 is_stmt 1              @ ../GUILib/src/widgets/lv_textarea.c:459:9
	cbz	r0, .LBB22_4
.Ltmp707:
@ %bb.3:
	@DEBUG_VALUE: txt <- $r5
	.loc	12 462 9                        @ ../GUILib/src/widgets/lv_textarea.c:462:9
	mov	r1, r5
	bl	strcpy
.Ltmp708:
	.loc	12 464 9                        @ ../GUILib/src/widgets/lv_textarea.c:464:9
	mov	r0, r4
	bl	pwd_char_hider
.Ltmp709:
	.loc	12 466 9                        @ ../GUILib/src/widgets/lv_textarea.c:466:9
	mov	r0, r4
	bl	lv_textarea_clear_selection
.Ltmp710:
	.loc	12 0 9 is_stmt 0                @ ../GUILib/src/widgets/lv_textarea.c:0:9
	b	.LBB22_6
.Ltmp711:
	.p2align	2
.LBB22_4:                               @ =>This Inner Loop Header: Depth=1
	@DEBUG_VALUE: txt <- $r5
	.loc	12 459 9 is_stmt 1              @ ../GUILib/src/widgets/lv_textarea.c:459:9
	b	.LBB22_4
.Ltmp712:
.LBB22_5:
	@DEBUG_VALUE: lv_textarea_set_password_mode:en <- [DW_OP_LLVM_convert 1 7, DW_OP_LLVM_convert 8 7, DW_OP_stack_value] $r1
	.loc	12 470 9                        @ ../GUILib/src/widgets/lv_textarea.c:470:9
	mov	r0, r4
	bl	lv_textarea_clear_selection
.Ltmp713:
	.loc	12 471 31                       @ ../GUILib/src/widgets/lv_textarea.c:471:31
	ldr	r0, [r4, #36]
	.loc	12 471 42 is_stmt 0             @ ../GUILib/src/widgets/lv_textarea.c:471:42
	ldr	r1, [r4, #44]
	.loc	12 471 9                        @ ../GUILib/src/widgets/lv_textarea.c:471:9
	bl	lv_label_set_text
.Ltmp714:
	.loc	12 472 25 is_stmt 1             @ ../GUILib/src/widgets/lv_textarea.c:472:25
	ldr	r0, [r4, #44]
	.loc	12 472 9 is_stmt 0              @ ../GUILib/src/widgets/lv_textarea.c:472:9
	bl	lv_mem_free
.Ltmp715:
	.loc	12 0 9                          @ ../GUILib/src/widgets/lv_textarea.c:0:9
	movs	r0, #0
	.loc	12 473 21 is_stmt 1             @ ../GUILib/src/widgets/lv_textarea.c:473:21
	str	r0, [r4, #44]
.Ltmp716:
.LBB22_6:
	.loc	12 476 5                        @ ../GUILib/src/widgets/lv_textarea.c:476:5
	mov	r0, r4
	pop.w	{r4, r5, r7, lr}
.Ltmp717:
	b	refr_cursor_area
.Ltmp718:
.Lfunc_end22:
	.size	lv_textarea_set_password_mode, .Lfunc_end22-lv_textarea_set_password_mode
	.cfi_endproc
	.cantunwind
	.fnend
                                        @ -- End function
	.section	.text.lv_textarea_set_one_line,"ax",%progbits
	.hidden	lv_textarea_set_one_line        @ -- Begin function lv_textarea_set_one_line
	.globl	lv_textarea_set_one_line
	.p2align	1
	.type	lv_textarea_set_one_line,%function
	.code	16                              @ @lv_textarea_set_one_line
	.thumb_func
lv_textarea_set_one_line:
.Lfunc_begin23:
	.loc	12 480 0                        @ ../GUILib/src/widgets/lv_textarea.c:480:0
	.fnstart
	.cfi_startproc
@ %bb.0:
	@DEBUG_VALUE: lv_textarea_set_one_line:obj <- $r0
	@DEBUG_VALUE: lv_textarea_set_one_line:en <- [DW_OP_LLVM_convert 1 7, DW_OP_LLVM_convert 8 7, DW_OP_stack_value] $r1
	.save	{r4, lr}
	push	{r4, lr}
	.cfi_def_cfa_offset 8
	.cfi_offset lr, -4
	.cfi_offset r4, -8
.Ltmp719:
	@DEBUG_VALUE: lv_textarea_set_one_line:ta <- $r0
	mov	r4, r0
.Ltmp720:
	@DEBUG_VALUE: lv_textarea_set_one_line:ta <- $r4
	@DEBUG_VALUE: lv_textarea_set_one_line:obj <- $r4
	.loc	12 484 12 prologue_end          @ ../GUILib/src/widgets/lv_textarea.c:484:12
	ldrb.w	r0, [r0, #92]
	@DEBUG_VALUE: lv_textarea_set_one_line:en <- [DW_OP_LLVM_convert 1 7, DW_OP_LLVM_convert 8 7, DW_OP_stack_value] $r1
	movs	r3, #1
	.loc	12 484 21 is_stmt 0             @ ../GUILib/src/widgets/lv_textarea.c:484:21
	and	r2, r0, #8
	eor.w	r2, r3, r2, lsr #3
.Ltmp721:
	.loc	12 484 8                        @ ../GUILib/src/widgets/lv_textarea.c:484:8
	eors	r2, r1
	.loc	12 501 1 is_stmt 1              @ ../GUILib/src/widgets/lv_textarea.c:501:1
	it	ne
	popne	{r4, pc}
.Ltmp722:
.LBB23_1:
	@DEBUG_VALUE: lv_textarea_set_one_line:en <- [DW_OP_LLVM_convert 1 7, DW_OP_LLVM_convert 8 7, DW_OP_stack_value] $r1
	.loc	12 486 8                        @ ../GUILib/src/widgets/lv_textarea.c:486:8
	cbz	r1, .LBB23_3
.Ltmp723:
@ %bb.2:
	@DEBUG_VALUE: lv_textarea_set_one_line:en <- [DW_OP_LLVM_convert 1 7, DW_OP_LLVM_convert 8 7, DW_OP_stack_value] $r1
	.loc	12 487 22                       @ ../GUILib/src/widgets/lv_textarea.c:487:22
	orr	r1, r0, #8
.Ltmp724:
	.loc	12 488 30                       @ ../GUILib/src/widgets/lv_textarea.c:488:30
	ldr	r0, [r4, #36]
	.loc	12 487 22                       @ ../GUILib/src/widgets/lv_textarea.c:487:22
	strb.w	r1, [r4, #92]
	.loc	12 488 9                        @ ../GUILib/src/widgets/lv_textarea.c:488:9
	movw	r1, #10193
	bl	lv_obj_set_width
.Ltmp725:
	.loc	12 489 40                       @ ../GUILib/src/widgets/lv_textarea.c:489:40
	ldr	r0, [r4, #36]
	.loc	12 489 9 is_stmt 0              @ ../GUILib/src/widgets/lv_textarea.c:489:9
	movw	r1, #8292
	movs	r2, #0
	bl	lv_obj_set_style_min_width
.Ltmp726:
	.loc	12 491 9 is_stmt 1              @ ../GUILib/src/widgets/lv_textarea.c:491:9
	mov	r0, r4
	movw	r1, #10193
	bl	lv_obj_set_height
.Ltmp727:
	.loc	12 0 9 is_stmt 0                @ ../GUILib/src/widgets/lv_textarea.c:0:9
	b	.LBB23_4
.Ltmp728:
.LBB23_3:
	@DEBUG_VALUE: lv_textarea_set_one_line:en <- [DW_OP_LLVM_convert 1 7, DW_OP_LLVM_convert 8 7, DW_OP_stack_value] $r1
	.loc	12 495 22 is_stmt 1             @ ../GUILib/src/widgets/lv_textarea.c:495:22
	and	r1, r0, #247
.Ltmp729:
	.loc	12 496 30                       @ ../GUILib/src/widgets/lv_textarea.c:496:30
	ldr	r0, [r4, #36]
	.loc	12 495 22                       @ ../GUILib/src/widgets/lv_textarea.c:495:22
	strb.w	r1, [r4, #92]
	.loc	12 496 9                        @ ../GUILib/src/widgets/lv_textarea.c:496:9
	movw	r1, #8292
	bl	lv_obj_set_width
.Ltmp730:
	.loc	12 497 40                       @ ../GUILib/src/widgets/lv_textarea.c:497:40
	ldr	r0, [r4, #36]
	.loc	12 497 9 is_stmt 0              @ ../GUILib/src/widgets/lv_textarea.c:497:9
	movs	r1, #0
	movs	r2, #0
	bl	lv_obj_set_style_min_width
.Ltmp731:
	.loc	12 498 9 is_stmt 1              @ ../GUILib/src/widgets/lv_textarea.c:498:9
	mov	r0, r4
	movw	r1, #4100
	movs	r2, #0
	bl	lv_obj_remove_local_style_prop
.Ltmp732:
.LBB23_4:
	.loc	12 0 0 is_stmt 0                @ ../GUILib/src/widgets/lv_textarea.c:0:0
	mov	r0, r4
	movs	r1, #0
	movs	r2, #0
	movs	r3, #0
	pop.w	{r4, lr}
.Ltmp733:
	b	lv_obj_scroll_to
.Ltmp734:
.Lfunc_end23:
	.size	lv_textarea_set_one_line, .Lfunc_end23-lv_textarea_set_one_line
	.cfi_endproc
	.cantunwind
	.fnend
                                        @ -- End function
	.section	.text.lv_textarea_set_accepted_chars,"ax",%progbits
	.hidden	lv_textarea_set_accepted_chars  @ -- Begin function lv_textarea_set_accepted_chars
	.globl	lv_textarea_set_accepted_chars
	.p2align	1
	.type	lv_textarea_set_accepted_chars,%function
	.code	16                              @ @lv_textarea_set_accepted_chars
	.thumb_func
lv_textarea_set_accepted_chars:
.Lfunc_begin24:
	.loc	12 504 0 is_stmt 1              @ ../GUILib/src/widgets/lv_textarea.c:504:0
	.fnstart
	.cfi_startproc
@ %bb.0:
	@DEBUG_VALUE: lv_textarea_set_accepted_chars:obj <- $r0
	@DEBUG_VALUE: lv_textarea_set_accepted_chars:obj <- $r0
	@DEBUG_VALUE: lv_textarea_set_accepted_chars:list <- $r1
	@DEBUG_VALUE: lv_textarea_set_accepted_chars:list <- $r1
	@DEBUG_VALUE: lv_textarea_set_accepted_chars:ta <- $r0
	@DEBUG_VALUE: lv_textarea_set_accepted_chars:ta <- $r0
	.loc	12 509 24 prologue_end          @ ../GUILib/src/widgets/lv_textarea.c:509:24
	str	r1, [r0, #48]
	.loc	12 510 1                        @ ../GUILib/src/widgets/lv_textarea.c:510:1
	bx	lr
.Ltmp735:
.Lfunc_end24:
	.size	lv_textarea_set_accepted_chars, .Lfunc_end24-lv_textarea_set_accepted_chars
	.cfi_endproc
	.cantunwind
	.fnend
                                        @ -- End function
	.section	.text.lv_textarea_set_max_length,"ax",%progbits
	.hidden	lv_textarea_set_max_length      @ -- Begin function lv_textarea_set_max_length
	.globl	lv_textarea_set_max_length
	.p2align	1
	.type	lv_textarea_set_max_length,%function
	.code	16                              @ @lv_textarea_set_max_length
	.thumb_func
lv_textarea_set_max_length:
.Lfunc_begin25:
	.loc	12 513 0                        @ ../GUILib/src/widgets/lv_textarea.c:513:0
	.fnstart
	.cfi_startproc
@ %bb.0:
	@DEBUG_VALUE: lv_textarea_set_max_length:obj <- $r0
	@DEBUG_VALUE: lv_textarea_set_max_length:obj <- $r0
	@DEBUG_VALUE: lv_textarea_set_max_length:num <- $r1
	@DEBUG_VALUE: lv_textarea_set_max_length:num <- $r1
	@DEBUG_VALUE: lv_textarea_set_max_length:ta <- $r0
	@DEBUG_VALUE: lv_textarea_set_max_length:ta <- $r0
	.loc	12 518 20 prologue_end          @ ../GUILib/src/widgets/lv_textarea.c:518:20
	str	r1, [r0, #52]
	.loc	12 519 1                        @ ../GUILib/src/widgets/lv_textarea.c:519:1
	bx	lr
.Ltmp736:
.Lfunc_end25:
	.size	lv_textarea_set_max_length, .Lfunc_end25-lv_textarea_set_max_length
	.cfi_endproc
	.cantunwind
	.fnend
                                        @ -- End function
	.section	.text.lv_textarea_set_insert_replace,"ax",%progbits
	.hidden	lv_textarea_set_insert_replace  @ -- Begin function lv_textarea_set_insert_replace
	.globl	lv_textarea_set_insert_replace
	.p2align	1
	.type	lv_textarea_set_insert_replace,%function
	.code	16                              @ @lv_textarea_set_insert_replace
	.thumb_func
lv_textarea_set_insert_replace:
.Lfunc_begin26:
	.loc	12 522 0                        @ ../GUILib/src/widgets/lv_textarea.c:522:0
	.fnstart
	.cfi_startproc
@ %bb.0:
	@DEBUG_VALUE: lv_textarea_set_insert_replace:obj <- $r0
	@DEBUG_VALUE: lv_textarea_set_insert_replace:txt <- $r1
	@DEBUG_VALUE: lv_textarea_set_insert_replace:txt <- $r1
	.loc	12 526 23 prologue_end          @ ../GUILib/src/widgets/lv_textarea.c:526:23
	movw	r0, :lower16:ta_insert_replace
.Ltmp737:
	@DEBUG_VALUE: lv_textarea_set_insert_replace:obj <- [DW_OP_LLVM_entry_value 1] $r0
	movt	r0, :upper16:ta_insert_replace
	str	r1, [r0]
	.loc	12 527 1                        @ ../GUILib/src/widgets/lv_textarea.c:527:1
	bx	lr
.Ltmp738:
.Lfunc_end26:
	.size	lv_textarea_set_insert_replace, .Lfunc_end26-lv_textarea_set_insert_replace
	.cfi_endproc
	.cantunwind
	.fnend
                                        @ -- End function
	.section	.text.lv_textarea_set_text_selection,"ax",%progbits
	.hidden	lv_textarea_set_text_selection  @ -- Begin function lv_textarea_set_text_selection
	.globl	lv_textarea_set_text_selection
	.p2align	1
	.type	lv_textarea_set_text_selection,%function
	.code	16                              @ @lv_textarea_set_text_selection
	.thumb_func
lv_textarea_set_text_selection:
.Lfunc_begin27:
	.loc	12 530 0                        @ ../GUILib/src/widgets/lv_textarea.c:530:0
	.fnstart
	.cfi_startproc
@ %bb.0:
	@DEBUG_VALUE: lv_textarea_set_text_selection:obj <- $r0
	@DEBUG_VALUE: lv_textarea_set_text_selection:obj <- $r0
	@DEBUG_VALUE: lv_textarea_set_text_selection:en <- [DW_OP_LLVM_convert 1 7, DW_OP_LLVM_convert 8 7, DW_OP_stack_value] $r1
	@DEBUG_VALUE: lv_textarea_set_text_selection:ta <- $r0
	@DEBUG_VALUE: lv_textarea_set_text_selection:ta <- $r0
	.loc	12 536 21 prologue_end          @ ../GUILib/src/widgets/lv_textarea.c:536:21
	ldrb.w	r2, [r0, #92]
	@DEBUG_VALUE: lv_textarea_set_text_selection:en <- [DW_OP_LLVM_convert 1 7, DW_OP_LLVM_convert 8 7, DW_OP_stack_value] $r1
	.loc	12 538 8                        @ ../GUILib/src/widgets/lv_textarea.c:538:8
	cmp	r1, #0
	.loc	12 536 21                       @ ../GUILib/src/widgets/lv_textarea.c:536:21
	and	r2, r2, #253
	bfi	r2, r1, #1, #1
	strb.w	r2, [r0, #92]
.Ltmp739:
	.loc	12 538 13                       @ ../GUILib/src/widgets/lv_textarea.c:538:13
	it	eq
.Ltmp740:
	beq	lv_textarea_clear_selection
.Ltmp741:
	.loc	12 543 1                        @ ../GUILib/src/widgets/lv_textarea.c:543:1
	bx	lr
.Ltmp742:
.Lfunc_end27:
	.size	lv_textarea_set_text_selection, .Lfunc_end27-lv_textarea_set_text_selection
	.cfi_endproc
	.cantunwind
	.fnend
                                        @ -- End function
	.section	.text.lv_textarea_set_password_show_time,"ax",%progbits
	.hidden	lv_textarea_set_password_show_time @ -- Begin function lv_textarea_set_password_show_time
	.globl	lv_textarea_set_password_show_time
	.p2align	1
	.type	lv_textarea_set_password_show_time,%function
	.code	16                              @ @lv_textarea_set_password_show_time
	.thumb_func
lv_textarea_set_password_show_time:
.Lfunc_begin28:
	.loc	12 546 0                        @ ../GUILib/src/widgets/lv_textarea.c:546:0
	.fnstart
	.cfi_startproc
@ %bb.0:
	@DEBUG_VALUE: lv_textarea_set_password_show_time:obj <- $r0
	@DEBUG_VALUE: lv_textarea_set_password_show_time:obj <- $r0
	@DEBUG_VALUE: lv_textarea_set_password_show_time:time <- $r1
	@DEBUG_VALUE: lv_textarea_set_password_show_time:time <- $r1
	@DEBUG_VALUE: lv_textarea_set_password_show_time:ta <- $r0
	@DEBUG_VALUE: lv_textarea_set_password_show_time:ta <- $r0
	.loc	12 550 23 prologue_end          @ ../GUILib/src/widgets/lv_textarea.c:550:23
	strh	r1, [r0, #56]
	.loc	12 551 1                        @ ../GUILib/src/widgets/lv_textarea.c:551:1
	bx	lr
.Ltmp743:
.Lfunc_end28:
	.size	lv_textarea_set_password_show_time, .Lfunc_end28-lv_textarea_set_password_show_time
	.cfi_endproc
	.cantunwind
	.fnend
                                        @ -- End function
	.section	.text.lv_textarea_set_align,"ax",%progbits
	.hidden	lv_textarea_set_align           @ -- Begin function lv_textarea_set_align
	.globl	lv_textarea_set_align
	.p2align	1
	.type	lv_textarea_set_align,%function
	.code	16                              @ @lv_textarea_set_align
	.thumb_func
lv_textarea_set_align:
.Lfunc_begin29:
	.loc	12 554 0                        @ ../GUILib/src/widgets/lv_textarea.c:554:0
	.fnstart
	.cfi_startproc
@ %bb.0:
	@DEBUG_VALUE: lv_textarea_set_align:obj <- $r0
	@DEBUG_VALUE: lv_textarea_set_align:align <- $r1
	.save	{r4, r5, r7, lr}
	push	{r4, r5, r7, lr}
	.cfi_def_cfa_offset 16
	.cfi_offset lr, -4
	.cfi_offset r7, -8
	.cfi_offset r5, -12
	.cfi_offset r4, -16
.Ltmp744:
	.loc	12 556 5 prologue_end           @ ../GUILib/src/widgets/lv_textarea.c:556:5
	movs	r2, #0
	mov	r4, r1
	mov	r5, r0
.Ltmp745:
	@DEBUG_VALUE: lv_textarea_set_align:align <- $r4
	@DEBUG_VALUE: lv_textarea_set_align:obj <- $r5
	bl	lv_obj_set_style_text_align
.Ltmp746:
	.loc	12 558 5                        @ ../GUILib/src/widgets/lv_textarea.c:558:5
	mov	r1, r4
	cmp	r4, #3
	it	ne
	movne	r1, #1
.Ltmp747:
	.loc	12 0 0 is_stmt 0                @ ../GUILib/src/widgets/lv_textarea.c:0:0
	ldr	r0, [r5, #36]
.Ltmp748:
	.loc	12 558 5                        @ ../GUILib/src/widgets/lv_textarea.c:558:5
	cmp	r4, #2
	it	eq
	moveq	r1, r4
.Ltmp749:
	.loc	12 0 0                          @ ../GUILib/src/widgets/lv_textarea.c:0:0
	movs	r2, #0
	movs	r3, #0
	pop.w	{r4, r5, r7, lr}
.Ltmp750:
	b	lv_obj_align
.Ltmp751:
.Lfunc_end29:
	.size	lv_textarea_set_align, .Lfunc_end29-lv_textarea_set_align
	.cfi_endproc
	.cantunwind
	.fnend
                                        @ -- End function
	.section	.text.lv_textarea_get_label,"ax",%progbits
	.hidden	lv_textarea_get_label           @ -- Begin function lv_textarea_get_label
	.globl	lv_textarea_get_label
	.p2align	1
	.type	lv_textarea_get_label,%function
	.code	16                              @ @lv_textarea_get_label
	.thumb_func
lv_textarea_get_label:
.Lfunc_begin30:
	.loc	12 603 0 is_stmt 1              @ ../GUILib/src/widgets/lv_textarea.c:603:0
	.fnstart
	.cfi_startproc
@ %bb.0:
	@DEBUG_VALUE: lv_textarea_get_label:obj <- $r0
	@DEBUG_VALUE: lv_textarea_get_label:obj <- $r0
	@DEBUG_VALUE: lv_textarea_get_label:ta <- $r0
	@DEBUG_VALUE: lv_textarea_get_label:ta <- $r0
	.loc	12 607 16 prologue_end          @ ../GUILib/src/widgets/lv_textarea.c:607:16
	ldr	r0, [r0, #36]
.Ltmp752:
	@DEBUG_VALUE: lv_textarea_get_label:obj <- [DW_OP_LLVM_entry_value 1] $r0
	.loc	12 607 5 is_stmt 0              @ ../GUILib/src/widgets/lv_textarea.c:607:5
	bx	lr
.Ltmp753:
.Lfunc_end30:
	.size	lv_textarea_get_label, .Lfunc_end30-lv_textarea_get_label
	.cfi_endproc
	.cantunwind
	.fnend
                                        @ -- End function
	.section	.text.lv_textarea_get_text,"ax",%progbits
	.hidden	lv_textarea_get_text            @ -- Begin function lv_textarea_get_text
	.globl	lv_textarea_get_text
	.p2align	1
	.type	lv_textarea_get_text,%function
	.code	16                              @ @lv_textarea_get_text
	.thumb_func
lv_textarea_get_text:
.Lfunc_begin31:
	.loc	12 577 0 is_stmt 1              @ ../GUILib/src/widgets/lv_textarea.c:577:0
	.fnstart
	.cfi_startproc
@ %bb.0:
	@DEBUG_VALUE: lv_textarea_get_text:obj <- $r0
	@DEBUG_VALUE: lv_textarea_get_text:obj <- $r0
	@DEBUG_VALUE: lv_textarea_get_text:ta <- $r0
	@DEBUG_VALUE: lv_textarea_get_text:ta <- $r0
	.loc	12 583 12 prologue_end          @ ../GUILib/src/widgets/lv_textarea.c:583:12
	ldrb.w	r1, [r0, #92]
.Ltmp754:
	.loc	12 583 8 is_stmt 0              @ ../GUILib/src/widgets/lv_textarea.c:583:8
	lsls	r1, r1, #29
.Ltmp755:
	.loc	12 587 19 is_stmt 1             @ ../GUILib/src/widgets/lv_textarea.c:587:19
	itt	mi
	ldrmi	r0, [r0, #44]
.Ltmp756:
	@DEBUG_VALUE: lv_textarea_get_text:obj <- [DW_OP_LLVM_entry_value 1] $r0
	@DEBUG_VALUE: lv_textarea_get_text:txt <- $r0
	.loc	12 590 5                        @ ../GUILib/src/widgets/lv_textarea.c:590:5
	bxmi	lr
.Ltmp757:
.LBB31_1:
	@DEBUG_VALUE: lv_textarea_get_text:txt <- $r0
	@DEBUG_VALUE: lv_textarea_get_text:obj <- [DW_OP_LLVM_entry_value 1] $r0
	@DEBUG_VALUE: lv_textarea_get_text:ta <- $r0
	.loc	12 584 37                       @ ../GUILib/src/widgets/lv_textarea.c:584:37
	ldr	r0, [r0, #36]
.Ltmp758:
	.loc	12 584 15 is_stmt 0             @ ../GUILib/src/widgets/lv_textarea.c:584:15
	b	lv_label_get_text
.Ltmp759:
.Lfunc_end31:
	.size	lv_textarea_get_text, .Lfunc_end31-lv_textarea_get_text
	.cfi_endproc
	.cantunwind
	.fnend
                                        @ -- End function
	.section	.text.lv_textarea_get_placeholder_text,"ax",%progbits
	.hidden	lv_textarea_get_placeholder_text @ -- Begin function lv_textarea_get_placeholder_text
	.globl	lv_textarea_get_placeholder_text
	.p2align	1
	.type	lv_textarea_get_placeholder_text,%function
	.code	16                              @ @lv_textarea_get_placeholder_text
	.thumb_func
lv_textarea_get_placeholder_text:
.Lfunc_begin32:
	.loc	12 594 0 is_stmt 1              @ ../GUILib/src/widgets/lv_textarea.c:594:0
	.fnstart
	.cfi_startproc
@ %bb.0:
	@DEBUG_VALUE: lv_textarea_get_placeholder_text:obj <- $r0
	@DEBUG_VALUE: lv_textarea_get_placeholder_text:obj <- $r0
	@DEBUG_VALUE: lv_textarea_get_placeholder_text:ta <- $r0
	@DEBUG_VALUE: lv_textarea_get_placeholder_text:ta <- $r0
	.loc	12 598 12 prologue_end          @ ../GUILib/src/widgets/lv_textarea.c:598:12
	ldr	r1, [r0, #40]
.Ltmp760:
	.loc	12 598 8 is_stmt 0              @ ../GUILib/src/widgets/lv_textarea.c:598:8
	movw	r0, :lower16:.L.str
.Ltmp761:
	@DEBUG_VALUE: lv_textarea_get_placeholder_text:obj <- [DW_OP_LLVM_entry_value 1] $r0
	movt	r0, :upper16:.L.str
	cmp	r1, #0
	it	ne
	movne	r0, r1
	.loc	12 600 1 is_stmt 1              @ ../GUILib/src/widgets/lv_textarea.c:600:1
	bx	lr
.Ltmp762:
.Lfunc_end32:
	.size	lv_textarea_get_placeholder_text, .Lfunc_end32-lv_textarea_get_placeholder_text
	.cfi_endproc
	.cantunwind
	.fnend
                                        @ -- End function
	.section	.text.lv_textarea_get_cursor_click_pos,"ax",%progbits
	.hidden	lv_textarea_get_cursor_click_pos @ -- Begin function lv_textarea_get_cursor_click_pos
	.globl	lv_textarea_get_cursor_click_pos
	.p2align	1
	.type	lv_textarea_get_cursor_click_pos,%function
	.code	16                              @ @lv_textarea_get_cursor_click_pos
	.thumb_func
lv_textarea_get_cursor_click_pos:
.Lfunc_begin33:
	.loc	12 619 0                        @ ../GUILib/src/widgets/lv_textarea.c:619:0
	.fnstart
	.cfi_startproc
@ %bb.0:
	@DEBUG_VALUE: lv_textarea_get_cursor_click_pos:obj <- $r0
	@DEBUG_VALUE: lv_textarea_get_cursor_click_pos:obj <- $r0
	@DEBUG_VALUE: lv_textarea_get_cursor_click_pos:ta <- $r0
	@DEBUG_VALUE: lv_textarea_get_cursor_click_pos:ta <- $r0
	.loc	12 623 23 prologue_end          @ ../GUILib/src/widgets/lv_textarea.c:623:23
	ldrb.w	r0, [r0, #80]
.Ltmp763:
	@DEBUG_VALUE: lv_textarea_get_cursor_click_pos:obj <- [DW_OP_LLVM_entry_value 1] $r0
	.loc	12 623 12 is_stmt 0             @ ../GUILib/src/widgets/lv_textarea.c:623:12
	ubfx	r0, r0, #1, #1
	.loc	12 623 5                        @ ../GUILib/src/widgets/lv_textarea.c:623:5
	bx	lr
.Ltmp764:
.Lfunc_end33:
	.size	lv_textarea_get_cursor_click_pos, .Lfunc_end33-lv_textarea_get_cursor_click_pos
	.cfi_endproc
	.cantunwind
	.fnend
                                        @ -- End function
	.section	.text.lv_textarea_get_password_mode,"ax",%progbits
	.hidden	lv_textarea_get_password_mode   @ -- Begin function lv_textarea_get_password_mode
	.globl	lv_textarea_get_password_mode
	.p2align	1
	.type	lv_textarea_get_password_mode,%function
	.code	16                              @ @lv_textarea_get_password_mode
	.thumb_func
lv_textarea_get_password_mode:
.Lfunc_begin34:
	.loc	12 627 0 is_stmt 1              @ ../GUILib/src/widgets/lv_textarea.c:627:0
	.fnstart
	.cfi_startproc
@ %bb.0:
	@DEBUG_VALUE: lv_textarea_get_password_mode:obj <- $r0
	@DEBUG_VALUE: lv_textarea_get_password_mode:obj <- $r0
	@DEBUG_VALUE: lv_textarea_get_password_mode:ta <- $r0
	@DEBUG_VALUE: lv_textarea_get_password_mode:ta <- $r0
	.loc	12 631 16 prologue_end          @ ../GUILib/src/widgets/lv_textarea.c:631:16
	ldrb.w	r0, [r0, #92]
.Ltmp765:
	@DEBUG_VALUE: lv_textarea_get_password_mode:obj <- [DW_OP_LLVM_entry_value 1] $r0
	.loc	12 631 12 is_stmt 0             @ ../GUILib/src/widgets/lv_textarea.c:631:12
	ubfx	r0, r0, #2, #1
	.loc	12 631 5                        @ ../GUILib/src/widgets/lv_textarea.c:631:5
	bx	lr
.Ltmp766:
.Lfunc_end34:
	.size	lv_textarea_get_password_mode, .Lfunc_end34-lv_textarea_get_password_mode
	.cfi_endproc
	.cantunwind
	.fnend
                                        @ -- End function
	.section	.text.lv_textarea_get_one_line,"ax",%progbits
	.hidden	lv_textarea_get_one_line        @ -- Begin function lv_textarea_get_one_line
	.globl	lv_textarea_get_one_line
	.p2align	1
	.type	lv_textarea_get_one_line,%function
	.code	16                              @ @lv_textarea_get_one_line
	.thumb_func
lv_textarea_get_one_line:
.Lfunc_begin35:
	.loc	12 635 0 is_stmt 1              @ ../GUILib/src/widgets/lv_textarea.c:635:0
	.fnstart
	.cfi_startproc
@ %bb.0:
	@DEBUG_VALUE: lv_textarea_get_one_line:obj <- $r0
	@DEBUG_VALUE: lv_textarea_get_one_line:obj <- $r0
	@DEBUG_VALUE: lv_textarea_get_one_line:ta <- $r0
	@DEBUG_VALUE: lv_textarea_get_one_line:ta <- $r0
	.loc	12 639 16 prologue_end          @ ../GUILib/src/widgets/lv_textarea.c:639:16
	ldrb.w	r0, [r0, #92]
.Ltmp767:
	@DEBUG_VALUE: lv_textarea_get_one_line:obj <- [DW_OP_LLVM_entry_value 1] $r0
	.loc	12 639 12 is_stmt 0             @ ../GUILib/src/widgets/lv_textarea.c:639:12
	ubfx	r0, r0, #3, #1
	.loc	12 639 5                        @ ../GUILib/src/widgets/lv_textarea.c:639:5
	bx	lr
.Ltmp768:
.Lfunc_end35:
	.size	lv_textarea_get_one_line, .Lfunc_end35-lv_textarea_get_one_line
	.cfi_endproc
	.cantunwind
	.fnend
                                        @ -- End function
	.section	.text.lv_textarea_text_is_selected,"ax",%progbits
	.hidden	lv_textarea_text_is_selected    @ -- Begin function lv_textarea_text_is_selected
	.globl	lv_textarea_text_is_selected
	.p2align	1
	.type	lv_textarea_text_is_selected,%function
	.code	16                              @ @lv_textarea_text_is_selected
	.thumb_func
lv_textarea_text_is_selected:
.Lfunc_begin36:
	.loc	12 660 0 is_stmt 1              @ ../GUILib/src/widgets/lv_textarea.c:660:0
	.fnstart
	.cfi_startproc
@ %bb.0:
	@DEBUG_VALUE: lv_textarea_text_is_selected:obj <- $r0
	.save	{r4, r5, r7, lr}
	push	{r4, r5, r7, lr}
	.cfi_def_cfa_offset 16
	.cfi_offset lr, -4
	.cfi_offset r7, -8
	.cfi_offset r5, -12
	.cfi_offset r4, -16
.Ltmp769:
	@DEBUG_VALUE: lv_textarea_text_is_selected:ta <- $r0
	mov	r4, r0
.Ltmp770:
	@DEBUG_VALUE: lv_textarea_text_is_selected:ta <- $r4
	@DEBUG_VALUE: lv_textarea_text_is_selected:obj <- $r4
	.loc	12 666 47 prologue_end          @ ../GUILib/src/widgets/lv_textarea.c:666:47
	ldr	r0, [r0, #36]
	.loc	12 666 9 is_stmt 0              @ ../GUILib/src/widgets/lv_textarea.c:666:9
	bl	lv_label_get_text_selection_start
.Ltmp771:
	.loc	12 0 9                          @ ../GUILib/src/widgets/lv_textarea.c:0:9
	movw	r5, #65535
	.loc	12 666 82                       @ ../GUILib/src/widgets/lv_textarea.c:666:82
	cmp	r0, r5
.Ltmp772:
	.loc	12 677 1 is_stmt 1              @ ../GUILib/src/widgets/lv_textarea.c:677:1
	itt	ne
	movne	r0, #1
	popne	{r4, r5, r7, pc}
.Ltmp773:
.LBB36_1:
	.loc	12 667 45                       @ ../GUILib/src/widgets/lv_textarea.c:667:45
	ldr	r0, [r4, #36]
	.loc	12 667 9 is_stmt 0              @ ../GUILib/src/widgets/lv_textarea.c:667:9
	bl	lv_label_get_text_selection_end
.Ltmp774:
	.loc	12 667 52                       @ ../GUILib/src/widgets/lv_textarea.c:667:52
	subs	r0, r0, r5
	it	ne
	movne	r0, #1
.Ltmp775:
	.loc	12 666 8 is_stmt 1              @ ../GUILib/src/widgets/lv_textarea.c:666:8
	pop	{r4, r5, r7, pc}
.Ltmp776:
.Lfunc_end36:
	.size	lv_textarea_text_is_selected, .Lfunc_end36-lv_textarea_text_is_selected
	.cfi_endproc
	.cantunwind
	.fnend
                                        @ -- End function
	.section	.text.lv_textarea_get_text_selection,"ax",%progbits
	.hidden	lv_textarea_get_text_selection  @ -- Begin function lv_textarea_get_text_selection
	.globl	lv_textarea_get_text_selection
	.p2align	1
	.type	lv_textarea_get_text_selection,%function
	.code	16                              @ @lv_textarea_get_text_selection
	.thumb_func
lv_textarea_get_text_selection:
.Lfunc_begin37:
	.loc	12 680 0                        @ ../GUILib/src/widgets/lv_textarea.c:680:0
	.fnstart
	.cfi_startproc
@ %bb.0:
	@DEBUG_VALUE: lv_textarea_get_text_selection:obj <- $r0
	@DEBUG_VALUE: lv_textarea_get_text_selection:obj <- $r0
	@DEBUG_VALUE: lv_textarea_get_text_selection:ta <- $r0
	@DEBUG_VALUE: lv_textarea_get_text_selection:ta <- $r0
	.loc	12 685 16 prologue_end          @ ../GUILib/src/widgets/lv_textarea.c:685:16
	ldrb.w	r0, [r0, #92]
.Ltmp777:
	@DEBUG_VALUE: lv_textarea_get_text_selection:obj <- [DW_OP_LLVM_entry_value 1] $r0
	.loc	12 685 12 is_stmt 0             @ ../GUILib/src/widgets/lv_textarea.c:685:12
	ubfx	r0, r0, #1, #1
	.loc	12 685 5                        @ ../GUILib/src/widgets/lv_textarea.c:685:5
	bx	lr
.Ltmp778:
.Lfunc_end37:
	.size	lv_textarea_get_text_selection, .Lfunc_end37-lv_textarea_get_text_selection
	.cfi_endproc
	.cantunwind
	.fnend
                                        @ -- End function
	.section	.text.lv_textarea_get_password_show_time,"ax",%progbits
	.hidden	lv_textarea_get_password_show_time @ -- Begin function lv_textarea_get_password_show_time
	.globl	lv_textarea_get_password_show_time
	.p2align	1
	.type	lv_textarea_get_password_show_time,%function
	.code	16                              @ @lv_textarea_get_password_show_time
	.thumb_func
lv_textarea_get_password_show_time:
.Lfunc_begin38:
	.loc	12 693 0 is_stmt 1              @ ../GUILib/src/widgets/lv_textarea.c:693:0
	.fnstart
	.cfi_startproc
@ %bb.0:
	@DEBUG_VALUE: lv_textarea_get_password_show_time:obj <- $r0
	@DEBUG_VALUE: lv_textarea_get_password_show_time:obj <- $r0
	@DEBUG_VALUE: lv_textarea_get_password_show_time:ta <- $r0
	@DEBUG_VALUE: lv_textarea_get_password_show_time:ta <- $r0
	.loc	12 698 16 prologue_end          @ ../GUILib/src/widgets/lv_textarea.c:698:16
	ldrh	r0, [r0, #56]
.Ltmp779:
	@DEBUG_VALUE: lv_textarea_get_password_show_time:obj <- [DW_OP_LLVM_entry_value 1] $r0
	.loc	12 698 5 is_stmt 0              @ ../GUILib/src/widgets/lv_textarea.c:698:5
	bx	lr
.Ltmp780:
.Lfunc_end38:
	.size	lv_textarea_get_password_show_time, .Lfunc_end38-lv_textarea_get_password_show_time
	.cfi_endproc
	.cantunwind
	.fnend
                                        @ -- End function
	.section	.text.lv_textarea_cursor_right,"ax",%progbits
	.hidden	lv_textarea_cursor_right        @ -- Begin function lv_textarea_cursor_right
	.globl	lv_textarea_cursor_right
	.p2align	1
	.type	lv_textarea_cursor_right,%function
	.code	16                              @ @lv_textarea_cursor_right
	.thumb_func
lv_textarea_cursor_right:
.Lfunc_begin39:
	.loc	12 723 0 is_stmt 1              @ ../GUILib/src/widgets/lv_textarea.c:723:0
	.fnstart
	.cfi_startproc
@ %bb.0:
	@DEBUG_VALUE: lv_textarea_cursor_right:obj <- $r0
	@DEBUG_VALUE: lv_textarea_cursor_right:obj <- $r0
	@DEBUG_VALUE: lv_textarea_get_cursor_pos:obj <- $r0
	@DEBUG_VALUE: lv_textarea_get_cursor_pos:obj <- $r0
	@DEBUG_VALUE: lv_textarea_get_cursor_pos:ta <- $r0
	@DEBUG_VALUE: lv_textarea_get_cursor_pos:ta <- $r0
	.loc	12 615 23 prologue_end          @ ../GUILib/src/widgets/lv_textarea.c:615:23
	ldr	r1, [r0, #64]
.Ltmp781:
	@DEBUG_VALUE: lv_textarea_cursor_right:cp <- $r1
	.loc	12 727 7                        @ ../GUILib/src/widgets/lv_textarea.c:727:7
	adds	r1, #1
.Ltmp782:
	@DEBUG_VALUE: lv_textarea_cursor_right:cp <- $r1
	.loc	12 728 5                        @ ../GUILib/src/widgets/lv_textarea.c:728:5
	b	lv_textarea_set_cursor_pos
.Ltmp783:
.Lfunc_end39:
	.size	lv_textarea_cursor_right, .Lfunc_end39-lv_textarea_cursor_right
	.cfi_endproc
	.cantunwind
	.fnend
                                        @ -- End function
	.section	.text.lv_textarea_cursor_left,"ax",%progbits
	.hidden	lv_textarea_cursor_left         @ -- Begin function lv_textarea_cursor_left
	.globl	lv_textarea_cursor_left
	.p2align	1
	.type	lv_textarea_cursor_left,%function
	.code	16                              @ @lv_textarea_cursor_left
	.thumb_func
lv_textarea_cursor_left:
.Lfunc_begin40:
	.loc	12 732 0                        @ ../GUILib/src/widgets/lv_textarea.c:732:0
	.fnstart
	.cfi_startproc
@ %bb.0:
	@DEBUG_VALUE: lv_textarea_cursor_left:obj <- $r0
	@DEBUG_VALUE: lv_textarea_cursor_left:obj <- $r0
	@DEBUG_VALUE: lv_textarea_get_cursor_pos:obj <- $r0
	@DEBUG_VALUE: lv_textarea_get_cursor_pos:obj <- $r0
	@DEBUG_VALUE: lv_textarea_get_cursor_pos:ta <- $r0
	@DEBUG_VALUE: lv_textarea_get_cursor_pos:ta <- $r0
	.loc	12 615 23 prologue_end          @ ../GUILib/src/widgets/lv_textarea.c:615:23
	ldr	r1, [r0, #64]
.Ltmp784:
	@DEBUG_VALUE: lv_textarea_cursor_left:cp <- $r1
	.loc	12 736 8                        @ ../GUILib/src/widgets/lv_textarea.c:736:8
	cmp	r1, #0
.Ltmp785:
	.loc	12 737 11                       @ ../GUILib/src/widgets/lv_textarea.c:737:11
	ite	ne
	subne	r1, #1
.Ltmp786:
	@DEBUG_VALUE: lv_textarea_cursor_left:cp <- $r1
	.loc	12 740 1                        @ ../GUILib/src/widgets/lv_textarea.c:740:1
	bxeq	lr
.Ltmp787:
	.loc	12 738 9                        @ ../GUILib/src/widgets/lv_textarea.c:738:9
	b	lv_textarea_set_cursor_pos
.Ltmp788:
.Lfunc_end40:
	.size	lv_textarea_cursor_left, .Lfunc_end40-lv_textarea_cursor_left
	.cfi_endproc
	.cantunwind
	.fnend
                                        @ -- End function
	.section	.text.lv_textarea_cursor_down,"ax",%progbits
	.hidden	lv_textarea_cursor_down         @ -- Begin function lv_textarea_cursor_down
	.globl	lv_textarea_cursor_down
	.p2align	1
	.type	lv_textarea_cursor_down,%function
	.code	16                              @ @lv_textarea_cursor_down
	.thumb_func
lv_textarea_cursor_down:
.Lfunc_begin41:
	.loc	12 743 0                        @ ../GUILib/src/widgets/lv_textarea.c:743:0
	.fnstart
	.cfi_startproc
@ %bb.0:
	@DEBUG_VALUE: lv_textarea_cursor_down:obj <- $r0
	.save	{r4, r5, r7, lr}
	push	{r4, r5, r7, lr}
	.cfi_def_cfa_offset 16
	.cfi_offset lr, -4
	.cfi_offset r7, -8
	.cfi_offset r5, -12
	.cfi_offset r4, -16
	.pad	#8
	sub	sp, #8
	.cfi_def_cfa_offset 24
	mov	r4, r0
.Ltmp789:
	@DEBUG_VALUE: lv_textarea_cursor_down:ta <- $r4
	@DEBUG_VALUE: lv_textarea_cursor_down:obj <- $r4
	.loc	12 750 33 prologue_end          @ ../GUILib/src/widgets/lv_textarea.c:750:33
	ldr	r0, [r0, #36]
.Ltmp790:
	@DEBUG_VALUE: lv_textarea_get_cursor_pos:ta <- $r4
	@DEBUG_VALUE: lv_textarea_get_cursor_pos:obj <- $r4
	.loc	12 615 23                       @ ../GUILib/src/widgets/lv_textarea.c:615:23
	ldr	r1, [r4, #64]
	add	r2, sp, #4
.Ltmp791:
	.loc	12 750 5                        @ ../GUILib/src/widgets/lv_textarea.c:750:5
	bl	lv_label_get_letter_pos
.Ltmp792:
	@DEBUG_VALUE: lv_obj_get_style_text_line_space:part <- 0
	@DEBUG_VALUE: lv_obj_get_style_text_line_space:obj <- $r4
	.loc	21 345 26                       @ ../GUILib/src/widgets/../core/lv_obj_style_gen.h:345:26
	mov	r0, r4
	movs	r1, #0
	movw	r2, #5211
	bl	lv_obj_get_style_prop
.Ltmp793:
	mov	r5, r0
.Ltmp794:
	@DEBUG_VALUE: lv_obj_get_style_text_font:part <- 0
	@DEBUG_VALUE: lv_obj_get_style_text_font:obj <- $r4
	@DEBUG_VALUE: lv_textarea_cursor_down:line_space <- $r5
	@DEBUG_VALUE: lv_obj_get_style_text_line_space:v <- $r5
	.loc	21 333 26                       @ ../GUILib/src/widgets/../core/lv_obj_style_gen.h:333:26
	mov	r0, r4
	movs	r1, #0
	movw	r2, #5209
	bl	lv_obj_get_style_prop
.Ltmp795:
	@DEBUG_VALUE: lv_font_get_line_height:font_p <- $r0
	@DEBUG_VALUE: lv_textarea_cursor_down:font <- $r0
	@DEBUG_VALUE: lv_obj_get_style_text_font:v <- $r0
	.loc	18 120 20                       @ ../GUILib/src/widgets/../font/lv_font.h:120:20
	ldrh	r0, [r0, #8]
.Ltmp796:
	@DEBUG_VALUE: lv_textarea_cursor_down:font_h <- $r0
	.loc	12 757 11                       @ ../GUILib/src/widgets/lv_textarea.c:757:11
	ldrh.w	r1, [sp, #6]
	.loc	12 757 21 is_stmt 0             @ ../GUILib/src/widgets/lv_textarea.c:757:21
	add	r0, r5
.Ltmp797:
	.loc	12 757 34                       @ ../GUILib/src/widgets/lv_textarea.c:757:34
	add	r0, r1
	.loc	12 757 11                       @ ../GUILib/src/widgets/lv_textarea.c:757:11
	adds	r0, #1
	sxth	r5, r0
.Ltmp798:
	strh.w	r0, [sp, #6]
	.loc	12 758 24 is_stmt 1             @ ../GUILib/src/widgets/lv_textarea.c:758:24
	ldrh	r1, [r4, #60]
.Ltmp799:
	.loc	12 761 38                       @ ../GUILib/src/widgets/lv_textarea.c:761:38
	ldr	r0, [r4, #36]
.Ltmp800:
	.loc	12 758 11                       @ ../GUILib/src/widgets/lv_textarea.c:758:11
	strh.w	r1, [sp, #4]
.Ltmp801:
	.loc	12 761 16                       @ ../GUILib/src/widgets/lv_textarea.c:761:16
	bl	lv_obj_get_height
.Ltmp802:
	.loc	12 761 8 is_stmt 0              @ ../GUILib/src/widgets/lv_textarea.c:761:8
	cmp	r5, r0
	bge	.LBB41_2
.Ltmp803:
@ %bb.1:
	@DEBUG_VALUE: lv_textarea_cursor_down:obj <- $r4
	@DEBUG_VALUE: lv_textarea_cursor_down:ta <- $r4
	.loc	12 763 59 is_stmt 1             @ ../GUILib/src/widgets/lv_textarea.c:763:59
	ldr	r0, [r4, #36]
	add	r1, sp, #4
	.loc	12 763 32 is_stmt 0             @ ../GUILib/src/widgets/lv_textarea.c:763:32
	bl	lv_label_get_letter_on
.Ltmp804:
	.loc	12 765 49 is_stmt 1             @ ../GUILib/src/widgets/lv_textarea.c:765:49
	ldrh	r5, [r4, #60]
.Ltmp805:
	@DEBUG_VALUE: cur_valid_x_tmp <- $r5
	.loc	12 763 32                       @ ../GUILib/src/widgets/lv_textarea.c:763:32
	mov	r1, r0
.Ltmp806:
	@DEBUG_VALUE: new_cur_pos <- $r1
	.loc	12 766 9                        @ ../GUILib/src/widgets/lv_textarea.c:766:9
	mov	r0, r4
	bl	lv_textarea_set_cursor_pos
.Ltmp807:
	.loc	12 767 28                       @ ../GUILib/src/widgets/lv_textarea.c:767:28
	strh	r5, [r4, #60]
.Ltmp808:
.LBB41_2:
	@DEBUG_VALUE: lv_textarea_cursor_down:obj <- $r4
	@DEBUG_VALUE: lv_textarea_cursor_down:ta <- $r4
	.loc	12 769 1                        @ ../GUILib/src/widgets/lv_textarea.c:769:1
	add	sp, #8
	pop	{r4, r5, r7, pc}
.Ltmp809:
.Lfunc_end41:
	.size	lv_textarea_cursor_down, .Lfunc_end41-lv_textarea_cursor_down
	.cfi_endproc
	.cantunwind
	.fnend
                                        @ -- End function
	.section	.text.lv_textarea_cursor_up,"ax",%progbits
	.hidden	lv_textarea_cursor_up           @ -- Begin function lv_textarea_cursor_up
	.globl	lv_textarea_cursor_up
	.p2align	1
	.type	lv_textarea_cursor_up,%function
	.code	16                              @ @lv_textarea_cursor_up
	.thumb_func
lv_textarea_cursor_up:
.Lfunc_begin42:
	.loc	12 772 0                        @ ../GUILib/src/widgets/lv_textarea.c:772:0
	.fnstart
	.cfi_startproc
@ %bb.0:
	@DEBUG_VALUE: lv_textarea_cursor_up:obj <- $r0
	.save	{r4, r5, r6, lr}
	push	{r4, r5, r6, lr}
	.cfi_def_cfa_offset 16
	.cfi_offset lr, -4
	.cfi_offset r6, -8
	.cfi_offset r5, -12
	.cfi_offset r4, -16
	.pad	#8
	sub	sp, #8
	.cfi_def_cfa_offset 24
	mov	r4, r0
.Ltmp810:
	@DEBUG_VALUE: lv_textarea_cursor_up:ta <- $r4
	@DEBUG_VALUE: lv_textarea_cursor_up:obj <- $r4
	.loc	12 779 33 prologue_end          @ ../GUILib/src/widgets/lv_textarea.c:779:33
	ldr	r0, [r0, #36]
.Ltmp811:
	@DEBUG_VALUE: lv_textarea_get_cursor_pos:ta <- $r4
	@DEBUG_VALUE: lv_textarea_get_cursor_pos:obj <- $r4
	.loc	12 615 23                       @ ../GUILib/src/widgets/lv_textarea.c:615:23
	ldr	r1, [r4, #64]
	add	r5, sp, #4
.Ltmp812:
	.loc	12 779 5                        @ ../GUILib/src/widgets/lv_textarea.c:779:5
	mov	r2, r5
	bl	lv_label_get_letter_pos
.Ltmp813:
	@DEBUG_VALUE: lv_obj_get_style_text_line_space:part <- 0
	@DEBUG_VALUE: lv_obj_get_style_text_line_space:obj <- $r4
	.loc	21 345 26                       @ ../GUILib/src/widgets/../core/lv_obj_style_gen.h:345:26
	mov	r0, r4
	movs	r1, #0
	movw	r2, #5211
	bl	lv_obj_get_style_prop
.Ltmp814:
	mov	r6, r0
.Ltmp815:
	@DEBUG_VALUE: lv_obj_get_style_text_font:part <- 0
	@DEBUG_VALUE: lv_obj_get_style_text_font:obj <- $r4
	@DEBUG_VALUE: lv_textarea_cursor_up:line_space <- $r6
	@DEBUG_VALUE: lv_obj_get_style_text_line_space:v <- $r6
	.loc	21 333 26                       @ ../GUILib/src/widgets/../core/lv_obj_style_gen.h:333:26
	mov	r0, r4
	movs	r1, #0
	movw	r2, #5209
	bl	lv_obj_get_style_prop
.Ltmp816:
	@DEBUG_VALUE: lv_font_get_line_height:font_p <- $r0
	@DEBUG_VALUE: lv_textarea_cursor_up:font <- $r0
	@DEBUG_VALUE: lv_obj_get_style_text_font:v <- $r0
	.loc	18 120 20                       @ ../GUILib/src/widgets/../font/lv_font.h:120:20
	ldrh	r0, [r0, #8]
.Ltmp817:
	@DEBUG_VALUE: lv_textarea_cursor_up:font_h <- $r0
	.loc	12 785 11                       @ ../GUILib/src/widgets/lv_textarea.c:785:11
	ldrh.w	r1, [sp, #6]
	.loc	12 785 34 is_stmt 0             @ ../GUILib/src/widgets/lv_textarea.c:785:34
	add	r0, r6
.Ltmp818:
	.loc	12 785 11                       @ ../GUILib/src/widgets/lv_textarea.c:785:11
	subs	r0, r1, r0
	adds	r0, #1
	.loc	12 786 24 is_stmt 1             @ ../GUILib/src/widgets/lv_textarea.c:786:24
	ldrh	r1, [r4, #60]
	.loc	12 785 11                       @ ../GUILib/src/widgets/lv_textarea.c:785:11
	strh.w	r0, [sp, #6]
	.loc	12 789 61                       @ ../GUILib/src/widgets/lv_textarea.c:789:61
	ldr	r0, [r4, #36]
	.loc	12 786 11                       @ ../GUILib/src/widgets/lv_textarea.c:786:11
	strh.w	r1, [sp, #4]
	.loc	12 789 34                       @ ../GUILib/src/widgets/lv_textarea.c:789:34
	mov	r1, r5
	bl	lv_label_get_letter_on
.Ltmp819:
	.loc	12 790 45                       @ ../GUILib/src/widgets/lv_textarea.c:790:45
	ldrh	r5, [r4, #60]
.Ltmp820:
	@DEBUG_VALUE: lv_textarea_cursor_up:cur_valid_x_tmp <- $r5
	.loc	12 789 34                       @ ../GUILib/src/widgets/lv_textarea.c:789:34
	mov	r1, r0
.Ltmp821:
	@DEBUG_VALUE: lv_textarea_cursor_up:new_cur_pos <- $r1
	.loc	12 791 5                        @ ../GUILib/src/widgets/lv_textarea.c:791:5
	mov	r0, r4
	bl	lv_textarea_set_cursor_pos
.Ltmp822:
	.loc	12 792 24                       @ ../GUILib/src/widgets/lv_textarea.c:792:24
	strh	r5, [r4, #60]
	.loc	12 793 1                        @ ../GUILib/src/widgets/lv_textarea.c:793:1
	add	sp, #8
	pop	{r4, r5, r6, pc}
.Ltmp823:
.Lfunc_end42:
	.size	lv_textarea_cursor_up, .Lfunc_end42-lv_textarea_cursor_up
	.cfi_endproc
	.cantunwind
	.fnend
                                        @ -- End function
	.section	.text.label_event_cb,"ax",%progbits
	.p2align	1                               @ -- Begin function label_event_cb
	.type	label_event_cb,%function
	.code	16                              @ @label_event_cb
	.thumb_func
label_event_cb:
.Lfunc_begin43:
	.loc	12 902 0                        @ ../GUILib/src/widgets/lv_textarea.c:902:0
	.fnstart
	.cfi_startproc
@ %bb.0:
	@DEBUG_VALUE: label_event_cb:e <- $r0
	.save	{r4, r5, r6, lr}
	push	{r4, r5, r6, lr}
	.cfi_def_cfa_offset 16
	.cfi_offset lr, -4
	.cfi_offset r6, -8
	.cfi_offset r5, -12
	.cfi_offset r4, -16
	mov	r4, r0
.Ltmp824:
	@DEBUG_VALUE: label_event_cb:e <- $r4
	.loc	12 903 28 prologue_end          @ ../GUILib/src/widgets/lv_textarea.c:903:28
	bl	lv_event_get_code
.Ltmp825:
	mov	r6, r0
.Ltmp826:
	@DEBUG_VALUE: label_event_cb:code <- undef
	.loc	12 904 24                       @ ../GUILib/src/widgets/lv_textarea.c:904:24
	mov	r0, r4
	bl	lv_event_get_target
.Ltmp827:
	mov	r5, r0
.Ltmp828:
	@DEBUG_VALUE: label_event_cb:label <- $r5
	.loc	12 905 21                       @ ../GUILib/src/widgets/lv_textarea.c:905:21
	bl	lv_obj_get_parent
.Ltmp829:
	.loc	12 907 39                       @ ../GUILib/src/widgets/lv_textarea.c:907:39
	sub.w	r1, r6, #41
	cmp	r1, #1
.Ltmp830:
	@DEBUG_VALUE: label_event_cb:ta <- $r0
	.loc	12 912 1                        @ ../GUILib/src/widgets/lv_textarea.c:912:1
	it	hi
	pophi	{r4, r5, r6, pc}
.Ltmp831:
.LBB43_1:
	@DEBUG_VALUE: label_event_cb:ta <- $r0
	.loc	12 0 0 is_stmt 0                @ ../GUILib/src/widgets/lv_textarea.c:0:0
	mov	r4, r0
.Ltmp832:
	@DEBUG_VALUE: label_event_cb:ta <- $r4
	@DEBUG_VALUE: label_event_cb:ta <- $r4
	.loc	12 908 9 is_stmt 1              @ ../GUILib/src/widgets/lv_textarea.c:908:9
	mov	r0, r5
	movs	r1, #0
	bl	lv_label_set_text
.Ltmp833:
	.loc	12 909 9                        @ ../GUILib/src/widgets/lv_textarea.c:909:9
	mov	r0, r4
	bl	refr_cursor_area
.Ltmp834:
	.loc	12 910 9                        @ ../GUILib/src/widgets/lv_textarea.c:910:9
	mov	r0, r4
	pop.w	{r4, r5, r6, lr}
.Ltmp835:
	b	start_cursor_blink
.Ltmp836:
.Lfunc_end43:
	.size	label_event_cb, .Lfunc_end43-label_event_cb
	.cfi_endproc
	.cantunwind
	.fnend
                                        @ -- End function
	.section	.text.cursor_blink_anim_cb,"ax",%progbits
	.p2align	1                               @ -- Begin function cursor_blink_anim_cb
	.type	cursor_blink_anim_cb,%function
	.code	16                              @ @cursor_blink_anim_cb
	.thumb_func
cursor_blink_anim_cb:
.Lfunc_begin44:
	.loc	12 922 0                        @ ../GUILib/src/widgets/lv_textarea.c:922:0
	.fnstart
	.cfi_startproc
@ %bb.0:
	@DEBUG_VALUE: cursor_blink_anim_cb:obj <- $r0
	@DEBUG_VALUE: cursor_blink_anim_cb:obj <- $r0
	@DEBUG_VALUE: cursor_blink_anim_cb:show <- $r1
	.save	{r4, lr}
	push	{r4, lr}
	.cfi_def_cfa_offset 8
	.cfi_offset lr, -4
	.cfi_offset r4, -8
	.pad	#8
	sub	sp, #8
	.cfi_def_cfa_offset 16
.Ltmp837:
	@DEBUG_VALUE: cursor_blink_anim_cb:ta <- $r0
	.loc	12 924 27 prologue_end          @ ../GUILib/src/widgets/lv_textarea.c:924:27
	ldrb.w	r2, [r0, #80]
	@DEBUG_VALUE: cursor_blink_anim_cb:show <- $r1
	and	r3, r2, #1
.Ltmp838:
	.loc	12 924 8 is_stmt 0              @ ../GUILib/src/widgets/lv_textarea.c:924:8
	cmp	r3, r1
	beq	.LBB44_2
.Ltmp839:
@ %bb.1:
	@DEBUG_VALUE: cursor_blink_anim_cb:show <- $r1
	@DEBUG_VALUE: cursor_blink_anim_cb:ta <- $r0
	@DEBUG_VALUE: cursor_blink_anim_cb:obj <- $r0
	@DEBUG_VALUE: cursor_blink_anim_cb:ta <- $r0
	.loc	12 925 32 is_stmt 1             @ ../GUILib/src/widgets/lv_textarea.c:925:32
	cmp	r1, #0
	it	ne
	movne	r1, #1
.Ltmp840:
	@DEBUG_VALUE: cursor_blink_anim_cb:show <- [DW_OP_LLVM_entry_value 1] $r1
	.loc	12 925 25 is_stmt 0             @ ../GUILib/src/widgets/lv_textarea.c:925:25
	and	r2, r2, #254
	add	r1, r2
	.loc	12 928 28 is_stmt 1             @ ../GUILib/src/widgets/lv_textarea.c:928:28
	ldr	r2, [r0, #36]
	.loc	12 925 25                       @ ../GUILib/src/widgets/lv_textarea.c:925:25
	strb.w	r1, [r0, #80]
.Ltmp841:
	@DEBUG_VALUE: lv_area_copy:src <- [DW_OP_plus_uconst 68, DW_OP_stack_value] $r0
	@DEBUG_VALUE: lv_area_copy:dest <- $sp
	.loc	6 112 21                        @ ../GUILib/src/hal/../misc/lv_area.h:112:21
	ldrh.w	r12, [r0, #68]
.Ltmp842:
	.loc	12 928 42                       @ ../GUILib/src/widgets/lv_textarea.c:928:42
	ldrh	r1, [r2, #20]
.Ltmp843:
	.loc	6 114 21                        @ ../GUILib/src/hal/../misc/lv_area.h:114:21
	ldrh.w	lr, [r0, #72]
.Ltmp844:
	@DEBUG_VALUE: lv_area_copy:src <- [DW_OP_plus_uconst 68, DW_OP_stack_value] $r0
	@DEBUG_VALUE: lv_area_copy:dest <- $sp
	.loc	12 928 21                       @ ../GUILib/src/widgets/lv_textarea.c:928:21
	add.w	r3, r1, r12
	strh.w	r3, [sp]
	.loc	12 929 42                       @ ../GUILib/src/widgets/lv_textarea.c:929:42
	ldrh	r2, [r2, #22]
.Ltmp845:
	.loc	6 115 21                        @ ../GUILib/src/hal/../misc/lv_area.h:115:21
	ldrh.w	r3, [r0, #74]
	@DEBUG_VALUE: lv_area_copy:src <- [DW_OP_plus_uconst 68, DW_OP_stack_value] $r0
	@DEBUG_VALUE: lv_area_copy:dest <- $sp
	.loc	6 113 21                        @ ../GUILib/src/hal/../misc/lv_area.h:113:21
	ldrh.w	r4, [r0, #70]
.Ltmp846:
	@DEBUG_VALUE: lv_area_copy:src <- [DW_OP_plus_uconst 68, DW_OP_stack_value] $r0
	@DEBUG_VALUE: lv_area_copy:dest <- $sp
	.loc	12 930 21                       @ ../GUILib/src/widgets/lv_textarea.c:930:21
	add	r1, lr
	strh.w	r1, [sp, #4]
	.loc	12 931 21                       @ ../GUILib/src/widgets/lv_textarea.c:931:21
	adds	r1, r2, r3
	.loc	12 929 21                       @ ../GUILib/src/widgets/lv_textarea.c:929:21
	add	r4, r2
	.loc	12 931 21                       @ ../GUILib/src/widgets/lv_textarea.c:931:21
	strh.w	r1, [sp, #6]
	mov	r1, sp
	.loc	12 929 21                       @ ../GUILib/src/widgets/lv_textarea.c:929:21
	strh.w	r4, [sp, #2]
	.loc	12 932 9                        @ ../GUILib/src/widgets/lv_textarea.c:932:9
	bl	lv_obj_invalidate_area
.Ltmp847:
	@DEBUG_VALUE: cursor_blink_anim_cb:obj <- [DW_OP_LLVM_entry_value 1] $r0
.LBB44_2:
	.loc	12 934 1                        @ ../GUILib/src/widgets/lv_textarea.c:934:1
	add	sp, #8
	pop	{r4, pc}
.Ltmp848:
.Lfunc_end44:
	.size	cursor_blink_anim_cb, .Lfunc_end44-cursor_blink_anim_cb
	.cfi_endproc
	.cantunwind
	.fnend
                                        @ -- End function
	.hidden	lv_textarea_class               @ @lv_textarea_class
	.type	lv_textarea_class,%object
	.section	.rodata.lv_textarea_class,"a",%progbits
	.globl	lv_textarea_class
	.p2align	2
lv_textarea_class:
	.long	lv_obj_class
	.long	lv_textarea_constructor
	.long	lv_textarea_destructor
	.long	0
	.long	lv_textarea_event
	.short	444                             @ 0x1bc
	.short	222                             @ 0xde
	.byte	4                               @ 0x4
	.byte	6                               @ 0x6
	.byte	0                               @ 0x0
	.zero	1
	.size	lv_textarea_class, 28

	.type	.L.str,%object                  @ @.str
	.section	.rodata.str1.1,"aMS",%progbits,1
.L.str:
	.zero	1
	.size	.L.str, 1

	.type	ta_insert_replace,%object       @ @ta_insert_replace
	.section	.bss.ta_insert_replace,"aw",%nobits
	.p2align	2
ta_insert_replace:
	.long	0
	.size	ta_insert_replace, 4

	.file	27 "D:\\Keil MDK\\ARM\\ARMCLANG\\Bin\\..\\include" "stddef.h"
	.section	".note.GNU-stack","",%progbits
	.eabi_attribute	30, 3	@ Tag_ABI_optimization_goals
	.ARM_attribute	16, 1	@ Tag_AV_eba