	.text
	.syntax unified
	.eabi_attribute	67, "2.09"	@ Tag_conformance
	.cpu	cortex-m4
	.eabi_attribute	6, 13	@ Tag_CPU_arch
	.eabi_attribute	7, 77	@ Tag_CPU_arch_profile
	.eabi_attribute	8, 0	@ Tag_ARM_ISA_use
	.eabi_attribute	9, 2	@ Tag_THUMB_ISA_use
	.fpu	fpv4-sp-d16
	.eabi_attribute	27, 1	@ Tag_ABI_HardFP_use
	.eabi_attribute	36, 1	@ Tag_FP_HP_extension
	.eabi_attribute	34, 1	@ Tag_CPU_unaligned_access
	.eabi_attribute	17, 1	@ Tag_ABI_PCS_GOT_use
	.eabi_attribute	20, 2	@ Tag_ABI_FP_denormal
	.eabi_attribute	21, 0	@ Tag_ABI_FP_exceptions
	.eabi_attribute	23, 1	@ Tag_ABI_FP_number_model
	.eabi_attribute	24, 1	@ Tag_ABI_align_needed
	.eabi_attribute	25, 1	@ Tag_ABI_align_preserved
	.eabi_attribute	28, 1	@ Tag_ABI_VFP_args
	.eabi_attribute	38, 1	@ Tag_ABI_FP_16bit_format
	.eabi_attribute	18, 2	@ Tag_ABI_PCS_wchar_t
	.eabi_attribute	26, 1	@ Tag_ABI_enum_size
	.eabi_attribute	14, 0	@ Tag_ABI_PCS_R9_use
	.file	"lv_timer.c"
	.file	1 "C:\\Users\\Hyacincher\\Desktop\\HyTelectrl\\Code\\Project" "../GUILib/src/misc/lv_timer.c"
	.file	2 "D:\\Keil MDK\\ARM\\ARMCLANG\\Bin\\..\\include" "stdint.h"
	.section	.text._lv_timer_core_init,"ax",%progbits
	.hidden	_lv_timer_core_init             @ -- Begin function _lv_timer_core_init
	.globl	_lv_timer_core_init
	.p2align	1
	.type	_lv_timer_core_init,%function
	.code	16                              @ @_lv_timer_core_init
	.thumb_func
_lv_timer_core_init:
.Lfunc_begin0:
	.loc	1 56 0                          @ ../GUILib/src/misc/lv_timer.c:56:0
	.fnstart
	.cfi_sections .debug_frame
	.cfi_startproc
@ %bb.0:
	.save	{r7, lr}
	push	{r7, lr}
	.cfi_def_cfa_offset 8
	.cfi_offset lr, -4
	.cfi_offset r7, -8
.Ltmp0:
	.loc	1 57 5 prologue_end             @ ../GUILib/src/misc/lv_timer.c:57:5
	movw	r0, :lower16:_lv_timer_ll
	movt	r0, :upper16:_lv_timer_ll
	movs	r1, #24
	bl	_lv_ll_init
.Ltmp1:
	@DEBUG_VALUE: lv_timer_enable:en <- 1
	.loc	1 268 18                        @ ../GUILib/src/misc/lv_timer.c:268:18
	movw	r0, :lower16:lv_timer_run
	movt	r0, :upper16:lv_timer_run
	movs	r1, #1
	strb	r1, [r0]
.Ltmp2:
	.loc	1 61 1                          @ ../GUILib/src/misc/lv_timer.c:61:1
	pop	{r7, pc}
.Ltmp3:
.Lfunc_end0:
	.size	_lv_timer_core_init, .Lfunc_end0-_lv_timer_core_init
	.cfi_endproc
	.cantunwind
	.fnend
                                        @ -- End function
	.section	.text.lv_timer_enable,"ax",%progbits
	.hidden	lv_timer_enable                 @ -- Begin function lv_timer_enable
	.globl	lv_timer_enable
	.p2align	1
	.type	lv_timer_enable,%function
	.code	16                              @ @lv_timer_enable
	.thumb_func
lv_timer_enable:
.Lfunc_begin1:
	.loc	1 267 0                         @ ../GUILib/src/misc/lv_timer.c:267:0
	.fnstart
	.cfi_startproc
@ %bb.0:
	@DEBUG_VALUE: lv_timer_enable:en <- undef
	.loc	1 268 18 prologue_end           @ ../GUILib/src/misc/lv_timer.c:268:18
	movw	r1, :lower16:lv_timer_run
	movt	r1, :upper16:lv_timer_run
	strb	r0, [r1]
	.loc	1 269 1                         @ ../GUILib/src/misc/lv_timer.c:269:1
	bx	lr
.Ltmp4:
.Lfunc_end1:
	.size	lv_timer_enable, .Lfunc_end1-lv_timer_enable
	.cfi_endproc
	.cantunwind
	.fnend
                                        @ -- End function
	.section	.text.lv_timer_handler,"ax",%progbits
	.hidden	lv_timer_handler                @ -- Begin function lv_timer_handler
	.globl	lv_timer_handler
	.p2align	1
	.type	lv_timer_handler,%function
	.code	16                              @ @lv_timer_handler
	.thumb_func
lv_timer_handler:
.Lfunc_begin2:
	.loc	1 68 0                          @ ../GUILib/src/misc/lv_timer.c:68:0
	.fnstart
	.cfi_startproc
@ %bb.0:
	.save	{r4, r5, r6, r7, r8, r9, r10, r11, lr}
	push.w	{r4, r5, r6, r7, r8, r9, r10, r11, lr}
	.cfi_def_cfa_offset 36
	.cfi_offset lr, -4
	.cfi_offset r11, -8
	.cfi_offset r10, -12
	.cfi_offset r9, -16
	.cfi_offset r8, -20
	.cfi_offset r7, -24
	.cfi_offset r6, -28
	.cfi_offset r5, -32
	.cfi_offset r4, -36
	.pad	#4
	sub	sp, #4
	.cfi_def_cfa_offset 40
.Ltmp5:
	.loc	1 73 8 prologue_end             @ ../GUILib/src/misc/lv_timer.c:73:8
	movw	r1, :lower16:lv_timer_handler.already_running
	movt	r1, :upper16:lv_timer_handler.already_running
	ldrb	r0, [r1]
	movs	r5, #1
.Ltmp6:
	.loc	1 73 8 is_stmt 0                @ ../GUILib/src/misc/lv_timer.c:73:8
	cmp	r0, #0
	bne.w	.LBB2_30
@ %bb.1:
.Ltmp7:
	.loc	1 79 8 is_stmt 1                @ ../GUILib/src/misc/lv_timer.c:79:8
	movw	r0, :lower16:lv_timer_run
	movt	r0, :upper16:lv_timer_run
	ldrb	r0, [r0]
.Ltmp8:
	.loc	1 77 21                         @ ../GUILib/src/misc/lv_timer.c:77:21
	strb	r5, [r1]
	.loc	1 79 8                          @ ../GUILib/src/misc/lv_timer.c:79:8
	cmp	r0, #0
	beq.w	.LBB2_29
@ %bb.2:
	.loc	1 87 30                         @ ../GUILib/src/misc/lv_timer.c:87:30
	bl	lv_tick_get
.Ltmp9:
	@DEBUG_VALUE: lv_timer_handler:handler_start <- $r0
	.loc	1 0 30 is_stmt 0                @ ../GUILib/src/misc/lv_timer.c:0:30
	str	r0, [sp]                        @ 4-byte Spill
.Ltmp10:
	@DEBUG_VALUE: lv_timer_handler:handler_start <- [$sp+0]
	@DEBUG_VALUE: lv_timer_handler:handler_start <- [$sp+0]
	.loc	1 89 8 is_stmt 1                @ ../GUILib/src/misc/lv_timer.c:89:8
	cbnz	r0, .LBB2_4
.Ltmp11:
@ %bb.3:
	@DEBUG_VALUE: lv_timer_handler:handler_start <- [$sp+0]
	.loc	1 91 16                         @ ../GUILib/src/misc/lv_timer.c:91:16
	movw	r0, :lower16:lv_timer_handler.run_cnt
	movt	r0, :upper16:lv_timer_handler.run_cnt
	ldr	r1, [r0]
	adds	r1, #1
	.loc	1 92 12                         @ ../GUILib/src/misc/lv_timer.c:92:12
	cmp	r1, #100
	it	hi
	movhi	r1, #0
	.loc	1 0 0 is_stmt 0                 @ ../GUILib/src/misc/lv_timer.c:0:0
	str	r1, [r0]
.Ltmp12:
.LBB2_4:
	@DEBUG_VALUE: lv_timer_handler:handler_start <- [$sp+0]
	movw	r10, :lower16:timer_deleted
	movw	r5, :lower16:_lv_timer_ll
	movw	r9, :lower16:_lv_timer_act
	movt	r10, :upper16:timer_deleted
	movt	r5, :upper16:_lv_timer_ll
	movt	r9, :upper16:_lv_timer_act
.Ltmp13:
.LBB2_5:                                @ =>This Loop Header: Depth=1
                                        @     Child Loop BB2_6 Depth 2
	@DEBUG_VALUE: lv_timer_handler:handler_start <- [$sp+0]
	.loc	1 102 35 is_stmt 1              @ ../GUILib/src/misc/lv_timer.c:102:35
	movw	r1, :lower16:timer_created
	movs	r0, #0
	movt	r1, :upper16:timer_created
	.loc	1 101 35                        @ ../GUILib/src/misc/lv_timer.c:101:35
	strb.w	r0, [r10]
	.loc	1 102 35                        @ ../GUILib/src/misc/lv_timer.c:102:35
	strb	r0, [r1]
	.loc	1 103 37                        @ ../GUILib/src/misc/lv_timer.c:103:37
	mov	r0, r5
	bl	_lv_ll_get_head
.Ltmp14:
	mov	r6, r0
	.loc	1 104 9                         @ ../GUILib/src/misc/lv_timer.c:104:9
	cmp	r0, #0
	.loc	1 0 0 is_stmt 0                 @ ../GUILib/src/misc/lv_timer.c:0:0
	str.w	r0, [r9]
	.loc	1 104 9                         @ ../GUILib/src/misc/lv_timer.c:104:9
	beq	.LBB2_19
.Ltmp15:
	.p2align	2
.LBB2_6:                                @   Parent Loop BB2_5 Depth=1
                                        @ =>  This Inner Loop Header: Depth=2
	@DEBUG_VALUE: lv_timer_handler:handler_start <- [$sp+0]
	.loc	1 107 20 is_stmt 1              @ ../GUILib/src/misc/lv_timer.c:107:20
	mov	r0, r5
	mov	r1, r6
	bl	_lv_ll_get_next
.Ltmp16:
	.loc	1 109 30                        @ ../GUILib/src/misc/lv_timer.c:109:30
	ldr.w	r7, [r9]
.Ltmp17:
	@DEBUG_VALUE: lv_timer_exec:timer <- $r7
	.loc	1 107 20                        @ ../GUILib/src/misc/lv_timer.c:107:20
	mov	r6, r0
.Ltmp18:
	@DEBUG_VALUE: lv_timer_handler:next <- $r6
	@DEBUG_VALUE: lv_timer_exec:timer <- $r7
	.loc	1 302 15                        @ ../GUILib/src/misc/lv_timer.c:302:15
	ldrb	r1, [r7, #20]
.Ltmp19:
	.loc	1 302 8 is_stmt 0               @ ../GUILib/src/misc/lv_timer.c:302:8
	lsls	r1, r1, #31
	bne	.LBB2_17
.Ltmp20:
@ %bb.7:                                @   in Loop: Header=BB2_6 Depth=2
	@DEBUG_VALUE: lv_timer_exec:timer <- $r7
	@DEBUG_VALUE: lv_timer_handler:next <- $r6
	@DEBUG_VALUE: lv_timer_handler:handler_start <- [$sp+0]
	@DEBUG_VALUE: lv_timer_exec:exec <- 0
	@DEBUG_VALUE: lv_timer_time_remaining:timer <- $r7
	.loc	1 337 41 is_stmt 1              @ ../GUILib/src/misc/lv_timer.c:337:41
	ldr	r0, [r7, #4]
	.loc	1 337 20 is_stmt 0              @ ../GUILib/src/misc/lv_timer.c:337:20
	bl	lv_tick_elaps
.Ltmp21:
	.loc	1 338 22 is_stmt 1              @ ../GUILib/src/misc/lv_timer.c:338:22
	ldr.w	r11, [r7]
.Ltmp22:
	.loc	1 337 20                        @ ../GUILib/src/misc/lv_timer.c:337:20
	mov	r4, r0
.Ltmp23:
	@DEBUG_VALUE: lv_timer_time_remaining:elp <- $r4
	.loc	1 305 8                         @ ../GUILib/src/misc/lv_timer.c:305:8
	cmp	r11, r0
	bhi	.LBB2_11
.Ltmp24:
@ %bb.8:                                @   in Loop: Header=BB2_6 Depth=2
	@DEBUG_VALUE: lv_timer_exec:timer <- $r7
	@DEBUG_VALUE: lv_timer_handler:next <- $r6
	@DEBUG_VALUE: lv_timer_handler:handler_start <- [$sp+0]
	@DEBUG_VALUE: lv_timer_exec:exec <- 0
	.loc	1 309 48                        @ ../GUILib/src/misc/lv_timer.c:309:48
	ldr.w	r8, [r7, #16]
.Ltmp25:
	@DEBUG_VALUE: original_repeat_count <- $r8
	.loc	1 310 12                        @ ../GUILib/src/misc/lv_timer.c:310:12
	cmp.w	r8, #1
.Ltmp26:
	.loc	1 310 56 is_stmt 0              @ ../GUILib/src/misc/lv_timer.c:310:56
	itt	ge
	subge.w	r0, r8, #1
	strge	r0, [r7, #16]
.Ltmp27:
	.loc	1 311 27 is_stmt 1              @ ../GUILib/src/misc/lv_timer.c:311:27
	bl	lv_tick_get
.Ltmp28:
	.loc	1 313 28                        @ ../GUILib/src/misc/lv_timer.c:313:28
	cmp.w	r8, #0
.Ltmp29:
	.loc	1 311 25                        @ ../GUILib/src/misc/lv_timer.c:311:25
	str	r0, [r7, #4]
.Ltmp30:
	.loc	1 313 28                        @ ../GUILib/src/misc/lv_timer.c:313:28
	beq	.LBB2_11
.Ltmp31:
@ %bb.9:                                @   in Loop: Header=BB2_6 Depth=2
	@DEBUG_VALUE: original_repeat_count <- $r8
	@DEBUG_VALUE: lv_timer_exec:timer <- $r7
	@DEBUG_VALUE: lv_timer_handler:next <- $r6
	@DEBUG_VALUE: lv_timer_handler:handler_start <- [$sp+0]
	@DEBUG_VALUE: lv_timer_exec:exec <- 0
	.loc	1 0 0 is_stmt 0                 @ ../GUILib/src/misc/lv_timer.c:0:0
	ldr	r1, [r7, #8]
	.loc	1 313 28                        @ ../GUILib/src/misc/lv_timer.c:313:28
	cbz	r1, .LBB2_11
.Ltmp32:
@ %bb.10:                               @   in Loop: Header=BB2_6 Depth=2
	@DEBUG_VALUE: original_repeat_count <- $r8
	@DEBUG_VALUE: lv_timer_exec:timer <- $r7
	@DEBUG_VALUE: lv_timer_handler:next <- $r6
	@DEBUG_VALUE: lv_timer_handler:handler_start <- [$sp+0]
	@DEBUG_VALUE: lv_timer_exec:exec <- 0
	.loc	1 313 59                        @ ../GUILib/src/misc/lv_timer.c:313:59
	mov	r0, r7
	blx	r1
.Ltmp33:
.LBB2_11:                               @   in Loop: Header=BB2_6 Depth=2
	@DEBUG_VALUE: lv_timer_exec:timer <- $r7
	@DEBUG_VALUE: lv_timer_handler:next <- $r6
	@DEBUG_VALUE: lv_timer_handler:handler_start <- [$sp+0]
	@DEBUG_VALUE: lv_timer_exec:exec <- 0
	@DEBUG_VALUE: lv_timer_exec:exec <- undef
	.loc	1 319 8 is_stmt 1               @ ../GUILib/src/misc/lv_timer.c:319:8
	ldrb.w	r0, [r10]
.Ltmp34:
	.loc	1 319 8 is_stmt 0               @ ../GUILib/src/misc/lv_timer.c:319:8
	cbnz	r0, .LBB2_14
.Ltmp35:
@ %bb.12:                               @   in Loop: Header=BB2_6 Depth=2
	@DEBUG_VALUE: lv_timer_exec:timer <- $r7
	@DEBUG_VALUE: lv_timer_handler:next <- $r6
	@DEBUG_VALUE: lv_timer_handler:handler_start <- [$sp+0]
	.loc	1 320 19 is_stmt 1              @ ../GUILib/src/misc/lv_timer.c:320:19
	ldr	r0, [r7, #16]
.Ltmp36:
	.loc	1 320 12 is_stmt 0              @ ../GUILib/src/misc/lv_timer.c:320:12
	cbnz	r0, .LBB2_14
.Ltmp37:
@ %bb.13:                               @   in Loop: Header=BB2_6 Depth=2
	@DEBUG_VALUE: lv_timer_exec:timer <- $r7
	@DEBUG_VALUE: lv_timer_handler:next <- $r6
	@DEBUG_VALUE: lv_timer_handler:handler_start <- [$sp+0]
	@DEBUG_VALUE: lv_timer_del:timer <- $r7
	.loc	1 203 5 is_stmt 1               @ ../GUILib/src/misc/lv_timer.c:203:5
	mov	r0, r5
	mov	r1, r7
	bl	_lv_ll_remove
.Ltmp38:
	.loc	1 204 19                        @ ../GUILib/src/misc/lv_timer.c:204:19
	movs	r0, #1
	strb.w	r0, [r10]
	.loc	1 206 5                         @ ../GUILib/src/misc/lv_timer.c:206:5
	mov	r0, r7
	bl	lv_mem_free
.Ltmp39:
	.p2align	2
.LBB2_14:                               @   in Loop: Header=BB2_6 Depth=2
	@DEBUG_VALUE: lv_timer_handler:next <- $r6
	@DEBUG_VALUE: lv_timer_handler:handler_start <- [$sp+0]
	.loc	1 109 16                        @ ../GUILib/src/misc/lv_timer.c:109:16
	cmp	r11, r4
	bhi	.LBB2_17
.Ltmp40:
@ %bb.15:                               @   in Loop: Header=BB2_6 Depth=2
	@DEBUG_VALUE: lv_timer_handler:next <- $r6
	@DEBUG_VALUE: lv_timer_handler:handler_start <- [$sp+0]
	.loc	1 111 20                        @ ../GUILib/src/misc/lv_timer.c:111:20
	movw	r0, :lower16:timer_created
	movt	r0, :upper16:timer_created
	ldrb	r0, [r0]
	.loc	1 111 34 is_stmt 0              @ ../GUILib/src/misc/lv_timer.c:111:34
	cbnz	r0, .LBB2_18
.Ltmp41:
@ %bb.16:                               @   in Loop: Header=BB2_6 Depth=2
	@DEBUG_VALUE: lv_timer_handler:next <- $r6
	@DEBUG_VALUE: lv_timer_handler:handler_start <- [$sp+0]
	.loc	1 111 37                        @ ../GUILib/src/misc/lv_timer.c:111:37
	ldrb.w	r0, [r10]
.Ltmp42:
	.loc	1 111 20                        @ ../GUILib/src/misc/lv_timer.c:111:20
	cbnz	r0, .LBB2_18
.Ltmp43:
.LBB2_17:                               @   in Loop: Header=BB2_6 Depth=2
	@DEBUG_VALUE: lv_timer_handler:next <- $r6
	@DEBUG_VALUE: lv_timer_handler:handler_start <- [$sp+0]
	.loc	1 104 9 is_stmt 1               @ ../GUILib/src/misc/lv_timer.c:104:9
	cmp	r6, #0
	.loc	1 0 0 is_stmt 0                 @ ../GUILib/src/misc/lv_timer.c:0:0
	str.w	r6, [r9]
	.loc	1 104 9                         @ ../GUILib/src/misc/lv_timer.c:104:9
	bne	.LBB2_6
	b	.LBB2_20
.Ltmp44:
.LBB2_18:                               @   in Loop: Header=BB2_5 Depth=1
	@DEBUG_VALUE: lv_timer_handler:next <- $r6
	@DEBUG_VALUE: lv_timer_handler:handler_start <- [$sp+0]
	.loc	1 119 13 is_stmt 1              @ ../GUILib/src/misc/lv_timer.c:119:13
	ldr.w	r6, [r9]
.Ltmp45:
.LBB2_19:                               @   in Loop: Header=BB2_5 Depth=1
	@DEBUG_VALUE: lv_timer_handler:handler_start <- [$sp+0]
	.loc	1 119 5 is_stmt 0               @ ../GUILib/src/misc/lv_timer.c:119:5
	cmp	r6, #0
	bne	.LBB2_5
.Ltmp46:
.LBB2_20:
	@DEBUG_VALUE: lv_timer_handler:handler_start <- [$sp+0]
	@DEBUG_VALUE: lv_timer_handler:time_till_next <- -1
	.loc	1 122 12 is_stmt 1              @ ../GUILib/src/misc/lv_timer.c:122:12
	movw	r0, :lower16:_lv_timer_ll
	movt	r0, :upper16:_lv_timer_ll
	bl	_lv_ll_get_head
.Ltmp47:
	@DEBUG_VALUE: lv_timer_handler:next <- $r0
	.loc	1 123 5                         @ ../GUILib/src/misc/lv_timer.c:123:5
	cbz	r0, .LBB2_25
.Ltmp48:
@ %bb.21:
	@DEBUG_VALUE: lv_timer_handler:next <- $r0
	@DEBUG_VALUE: lv_timer_handler:handler_start <- [$sp+0]
	@DEBUG_VALUE: lv_timer_handler:time_till_next <- -1
	.loc	1 0 5 is_stmt 0                 @ ../GUILib/src/misc/lv_timer.c:0:5
	movw	r6, :lower16:_lv_timer_ll
	mov	r4, r0
.Ltmp49:
	@DEBUG_VALUE: lv_timer_handler:next <- $r4
	@DEBUG_VALUE: lv_timer_handler:next <- $r4
	mov.w	r5, #-1
	movt	r6, :upper16:_lv_timer_ll
.Ltmp50:
	.p2align	2
.LBB2_22:                               @ =>This Inner Loop Header: Depth=1
	@DEBUG_VALUE: lv_timer_handler:next <- $r4
	@DEBUG_VALUE: lv_timer_handler:handler_start <- [$sp+0]
	@DEBUG_VALUE: lv_timer_handler:next <- $r4
	@DEBUG_VALUE: lv_timer_handler:time_till_next <- $r5
	.loc	1 124 19 is_stmt 1              @ ../GUILib/src/misc/lv_timer.c:124:19
	ldrb	r0, [r4, #20]
.Ltmp51:
	.loc	1 124 12 is_stmt 0              @ ../GUILib/src/misc/lv_timer.c:124:12
	lsls	r0, r0, #31
	bne	.LBB2_24
.Ltmp52:
@ %bb.23:                               @   in Loop: Header=BB2_22 Depth=1
	@DEBUG_VALUE: lv_timer_handler:time_till_next <- $r5
	@DEBUG_VALUE: lv_timer_handler:next <- $r4
	@DEBUG_VALUE: lv_timer_handler:handler_start <- [$sp+0]
	@DEBUG_VALUE: lv_timer_time_remaining:timer <- $r4
	.loc	1 337 41 is_stmt 1              @ ../GUILib/src/misc/lv_timer.c:337:41
	ldr	r0, [r4, #4]
	.loc	1 337 20 is_stmt 0              @ ../GUILib/src/misc/lv_timer.c:337:20
	bl	lv_tick_elaps
.Ltmp53:
	.loc	1 338 22 is_stmt 1              @ ../GUILib/src/misc/lv_timer.c:338:22
	ldr	r1, [r4]
.Ltmp54:
	@DEBUG_VALUE: lv_timer_time_remaining:elp <- $r0
	.loc	1 338 8 is_stmt 0               @ ../GUILib/src/misc/lv_timer.c:338:8
	subs	r0, r1, r0
.Ltmp55:
	it	lo
	movlo	r0, #0
.Ltmp56:
	@DEBUG_VALUE: delay <- $r5
	.loc	1 126 16 is_stmt 1              @ ../GUILib/src/misc/lv_timer.c:126:16
	cmp	r0, r5
	it	lo
	movlo	r5, r0
.Ltmp57:
	@DEBUG_VALUE: lv_timer_handler:time_till_next <- $r5
.LBB2_24:                               @   in Loop: Header=BB2_22 Depth=1
	@DEBUG_VALUE: lv_timer_handler:time_till_next <- $r5
	@DEBUG_VALUE: lv_timer_handler:next <- $r4
	@DEBUG_VALUE: lv_timer_handler:handler_start <- [$sp+0]
	@DEBUG_VALUE: lv_timer_handler:time_till_next <- $r5
	.loc	1 130 16                        @ ../GUILib/src/misc/lv_timer.c:130:16
	mov	r0, r6
	mov	r1, r4
	bl	_lv_ll_get_next
.Ltmp58:
	mov	r4, r0
.Ltmp59:
	@DEBUG_VALUE: lv_timer_handler:next <- $r4
	.loc	1 123 5                         @ ../GUILib/src/misc/lv_timer.c:123:5
	cmp	r0, #0
	bne	.LBB2_22
	b	.LBB2_26
.Ltmp60:
.LBB2_25:
	@DEBUG_VALUE: lv_timer_handler:next <- $r0
	@DEBUG_VALUE: lv_timer_handler:handler_start <- [$sp+0]
	@DEBUG_VALUE: lv_timer_handler:time_till_next <- -1
	.loc	1 0 5 is_stmt 0                 @ ../GUILib/src/misc/lv_timer.c:0:5
	mov.w	r5, #-1
.Ltmp61:
.LBB2_26:
	@DEBUG_VALUE: lv_timer_handler:handler_start <- [$sp+0]
	.loc	1 133 18 is_stmt 1              @ ../GUILib/src/misc/lv_timer.c:133:18
	ldr	r0, [sp]                        @ 4-byte Reload
	bl	lv_tick_elaps
.Ltmp62:
	.loc	1 133 15 is_stmt 0              @ ../GUILib/src/misc/lv_timer.c:133:15
	movw	r6, :lower16:lv_timer_handler.busy_time
	movt	r6, :upper16:lv_timer_handler.busy_time
	ldr	r1, [r6]
	.loc	1 134 47 is_stmt 1              @ ../GUILib/src/misc/lv_timer.c:134:47
	movw	r4, :lower16:lv_timer_handler.idle_period_start
	movt	r4, :upper16:lv_timer_handler.idle_period_start
	.loc	1 133 15                        @ ../GUILib/src/misc/lv_timer.c:133:15
	add	r1, r0
	.loc	1 134 47                        @ ../GUILib/src/misc/lv_timer.c:134:47
	ldr	r0, [r4]
	.loc	1 133 15                        @ ../GUILib/src/misc/lv_timer.c:133:15
	str	r1, [r6]
	.loc	1 134 33                        @ ../GUILib/src/misc/lv_timer.c:134:33
	bl	lv_tick_elaps
.Ltmp63:
	@DEBUG_VALUE: lv_timer_handler:idle_period_time <- $r0
	.loc	1 135 8                         @ ../GUILib/src/misc/lv_timer.c:135:8
	cmp.w	r0, #500
	blo	.LBB2_28
.Ltmp64:
@ %bb.27:
	@DEBUG_VALUE: lv_timer_handler:idle_period_time <- $r0
	@DEBUG_VALUE: lv_timer_handler:handler_start <- [$sp+0]
	.loc	1 136 30                        @ ../GUILib/src/misc/lv_timer.c:136:30
	ldr	r1, [r6]
	movs	r2, #100
	.loc	1 136 40 is_stmt 0              @ ../GUILib/src/misc/lv_timer.c:136:40
	muls	r1, r2, r1
	.loc	1 136 47                        @ ../GUILib/src/misc/lv_timer.c:136:47
	udiv	r0, r1, r0
.Ltmp65:
	.loc	1 0 47                          @ ../GUILib/src/misc/lv_timer.c:0:47
	movs	r3, #0
	.loc	1 137 29 is_stmt 1              @ ../GUILib/src/misc/lv_timer.c:137:29
	uxtb	r0, r0
	rsb.w	r1, r0, #100
	cmp	r2, r0
	.loc	1 137 27 is_stmt 0              @ ../GUILib/src/misc/lv_timer.c:137:27
	movw	r0, :lower16:idle_last
	movt	r0, :upper16:idle_last
	.loc	1 137 29                        @ ../GUILib/src/misc/lv_timer.c:137:29
	it	lo
	movlo	r1, r3
	.loc	1 137 27                        @ ../GUILib/src/misc/lv_timer.c:137:27
	strb	r1, [r0]
	.loc	1 138 27 is_stmt 1              @ ../GUILib/src/misc/lv_timer.c:138:27
	str	r3, [r6]
	.loc	1 139 29                        @ ../GUILib/src/misc/lv_timer.c:139:29
	bl	lv_tick_get
.Ltmp66:
	.loc	1 139 27 is_stmt 0              @ ../GUILib/src/misc/lv_timer.c:139:27
	str	r0, [r4]
.Ltmp67:
.LBB2_28:
	@DEBUG_VALUE: lv_timer_handler:handler_start <- [$sp+0]
	.loc	1 0 27                          @ ../GUILib/src/misc/lv_timer.c:0:27
	movw	r1, :lower16:lv_timer_handler.already_running
	movt	r1, :upper16:lv_timer_handler.already_running
.Ltmp68:
.LBB2_29:
	movs	r0, #0
	strb	r0, [r1]
.LBB2_30:
	.loc	1 146 1 is_stmt 1               @ ../GUILib/src/misc/lv_timer.c:146:1
	mov	r0, r5
	add	sp, #4
	pop.w	{r4, r5, r6, r7, r8, r9, r10, r11, pc}
.Ltmp69:
.Lfunc_end2:
	.size	lv_timer_handler, .Lfunc_end2-lv_timer_handler
	.cfi_endproc
	.file	3 "C:\\Users\\Hyacincher\\Desktop\\HyTelectrl\\Code\\Project" "../GUILib/src/misc/lv_timer.h"
	.cantunwind
	.fnend
                                        @ -- End function
	.section	.text.lv_timer_create_basic,"ax",%progbits
	.hidden	lv_timer_create_basic           @ -- Begin function lv_timer_create_basic
	.globl	lv_timer_create_basic
	.p2align	1
	.type	lv_timer_create_basic,%function
	.code	16                              @ @lv_timer_create_basic
	.thumb_func
lv_timer_create_basic:
.Lfunc_begin3:
	.loc	1 154 0                         @ ../GUILib/src/misc/lv_timer.c:154:0
	.fnstart
	.cfi_startproc
@ %bb.0:
	.loc	1 155 12 prologue_end           @ ../GUILib/src/misc/lv_timer.c:155:12
	movs	r0, #0
	mov.w	r1, #500
	movs	r2, #0
.Ltmp70:
	b	lv_timer_create
.Ltmp71:
.Lfunc_end3:
	.size	lv_timer_create_basic, .Lfunc_end3-lv_timer_create_basic
	.cfi_endproc
	.cantunwind
	.fnend
                                        @ -- End function
	.section	.text.lv_timer_create,"ax",%progbits
	.hidden	lv_timer_create                 @ -- Begin function lv_timer_create
	.globl	lv_timer_create
	.p2align	1
	.type	lv_timer_create,%function
	.code	16                              @ @lv_timer_create
	.thumb_func
lv_timer_create:
.Lfunc_begin4:
	.loc	1 168 0                         @ ../GUILib/src/misc/lv_timer.c:168:0
	.fnstart
	.cfi_startproc
@ %bb.0:
	@DEBUG_VALUE: lv_timer_create:timer_xcb <- $r0
	@DEBUG_VALUE: lv_timer_create:period <- $r1
	@DEBUG_VALUE: lv_timer_create:user_data <- $r2
	.save	{r4, r5, r6, r7, lr}
	push	{r4, r5, r6, r7, lr}
	.cfi_def_cfa_offset 20
	.cfi_offset lr, -4
	.cfi_offset r7, -8
	.cfi_offset r6, -12
	.cfi_offset r5, -16
	.cfi_offset r4, -20
	.pad	#4
	sub	sp, #4
	.cfi_def_cfa_offset 24
	mov	r6, r0
.Ltmp72:
	@DEBUG_VALUE: lv_timer_create:timer_xcb <- $r6
	@DEBUG_VALUE: lv_timer_create:new_timer <- 0
	@DEBUG_VALUE: lv_timer_create:user_data <- $r4
	@DEBUG_VALUE: lv_timer_create:period <- $r7
	@DEBUG_VALUE: lv_timer_create:timer_xcb <- $r6
	.loc	1 171 17 prologue_end           @ ../GUILib/src/misc/lv_timer.c:171:17
	movw	r0, :lower16:_lv_timer_ll
	movt	r0, :upper16:_lv_timer_ll
	mov	r4, r2
.Ltmp73:
	.loc	1 0 17 is_stmt 0                @ ../GUILib/src/misc/lv_timer.c:0:17
	mov	r7, r1
.Ltmp74:
	.loc	1 171 17                        @ ../GUILib/src/misc/lv_timer.c:171:17
	bl	_lv_ll_ins_head
.Ltmp75:
	@DEBUG_VALUE: lv_timer_create:new_timer <- $r0
	.loc	1 172 5 is_stmt 1               @ ../GUILib/src/misc/lv_timer.c:172:5
	cbz	r0, .LBB4_2
.Ltmp76:
@ %bb.1:
	@DEBUG_VALUE: lv_timer_create:timer_xcb <- $r6
	@DEBUG_VALUE: lv_timer_create:new_timer <- $r0
	.loc	1 0 0 is_stmt 0                 @ ../GUILib/src/misc/lv_timer.c:0:0
	mov	r5, r0
.Ltmp77:
	@DEBUG_VALUE: lv_timer_create:new_timer <- $r5
	.loc	1 178 23 is_stmt 1              @ ../GUILib/src/misc/lv_timer.c:178:23
	ldrb	r1, [r5, #20]
	.loc	1 175 23                        @ ../GUILib/src/misc/lv_timer.c:175:23
	str	r7, [r0]
	.loc	1 176 25                        @ ../GUILib/src/misc/lv_timer.c:176:25
	str	r6, [r0, #8]
	mov.w	r0, #-1
	.loc	1 177 29                        @ ../GUILib/src/misc/lv_timer.c:177:29
	str	r0, [r5, #16]
	.loc	1 178 23                        @ ../GUILib/src/misc/lv_timer.c:178:23
	and	r0, r1, #254
	strb	r0, [r5, #20]
	.loc	1 179 27                        @ ../GUILib/src/misc/lv_timer.c:179:27
	bl	lv_tick_get
.Ltmp78:
	.loc	1 182 19                        @ ../GUILib/src/misc/lv_timer.c:182:19
	movw	r1, :lower16:timer_created
	movt	r1, :upper16:timer_created
	movs	r2, #1
	.loc	1 179 25                        @ ../GUILib/src/misc/lv_timer.c:179:25
	str	r0, [r5, #4]
	.loc	1 180 26                        @ ../GUILib/src/misc/lv_timer.c:180:26
	str	r4, [r5, #12]
	.loc	1 185 1                         @ ../GUILib/src/misc/lv_timer.c:185:1
	mov	r0, r5
	.loc	1 182 19                        @ ../GUILib/src/misc/lv_timer.c:182:19
	strb	r2, [r1]
.Ltmp79:
	@DEBUG_VALUE: lv_timer_create:new_timer <- undef
	.loc	1 185 1                         @ ../GUILib/src/misc/lv_timer.c:185:1
	add	sp, #4
	pop	{r4, r5, r6, r7, pc}
.Ltmp80:
	.p2align	2
.LBB4_2:                                @ =>This Inner Loop Header: Depth=1
	@DEBUG_VALUE: lv_timer_create:timer_xcb <- $r6
	@DEBUG_VALUE: lv_timer_create:new_timer <- $r0
	.loc	1 172 5                         @ ../GUILib/src/misc/lv_timer.c:172:5
	b	.LBB4_2
.Ltmp81:
.Lfunc_end4:
	.size	lv_timer_create, .Lfunc_end4-lv_timer_create
	.cfi_endproc
	.cantunwind
	.fnend
                                        @ -- End function
	.section	.text.lv_timer_set_cb,"ax",%progbits
	.hidden	lv_timer_set_cb                 @ -- Begin function lv_timer_set_cb
	.globl	lv_timer_set_cb
	.p2align	1
	.type	lv_timer_set_cb,%function
	.code	16                              @ @lv_timer_set_cb
	.thumb_func
lv_timer_set_cb:
.Lfunc_begin5:
	.loc	1 193 0                         @ ../GUILib/src/misc/lv_timer.c:193:0
	.fnstart
	.cfi_startproc
@ %bb.0:
	@DEBUG_VALUE: lv_timer_set_cb:timer <- $r0
	@DEBUG_VALUE: lv_timer_set_cb:timer <- $r0
	@DEBUG_VALUE: lv_timer_set_cb:timer_cb <- $r1
	@DEBUG_VALUE: lv_timer_set_cb:timer_cb <- $r1
	.loc	1 194 21 prologue_end           @ ../GUILib/src/misc/lv_timer.c:194:21
	str	r1, [r0, #8]
	.loc	1 195 1                         @ ../GUILib/src/misc/lv_timer.c:195:1
	bx	lr
.Ltmp82:
.Lfunc_end5:
	.size	lv_timer_set_cb, .Lfunc_end5-lv_timer_set_cb
	.cfi_endproc
	.cantunwind
	.fnend
                                        @ -- End function
	.section	.text.lv_timer_del,"ax",%progbits
	.hidden	lv_timer_del                    @ -- Begin function lv_timer_del
	.globl	lv_timer_del
	.p2align	1
	.type	lv_timer_del,%function
	.code	16                              @ @lv_timer_del
	.thumb_func
lv_timer_del:
.Lfunc_begin6:
	.loc	1 202 0                         @ ../GUILib/src/misc/lv_timer.c:202:0
	.fnstart
	.cfi_startproc
@ %bb.0:
	@DEBUG_VALUE: lv_timer_del:timer <- $r0
	.save	{r4, lr}
	push	{r4, lr}
	.cfi_def_cfa_offset 8
	.cfi_offset lr, -4
	.cfi_offset r4, -8
	mov	r4, r0
.Ltmp83:
	@DEBUG_VALUE: lv_timer_del:timer <- $r4
	@DEBUG_VALUE: lv_timer_del:timer <- $r4
	.loc	1 203 5 prologue_end            @ ../GUILib/src/misc/lv_timer.c:203:5
	movw	r0, :lower16:_lv_timer_ll
	movt	r0, :upper16:_lv_timer_ll
	mov	r1, r4
	bl	_lv_ll_remove
.Ltmp84:
	.loc	1 204 19                        @ ../GUILib/src/misc/lv_timer.c:204:19
	movw	r1, :lower16:timer_deleted
	movt	r1, :upper16:timer_deleted
	movs	r2, #1
	.loc	1 206 5                         @ ../GUILib/src/misc/lv_timer.c:206:5
	mov	r0, r4
	.loc	1 204 19                        @ ../GUILib/src/misc/lv_timer.c:204:19
	strb	r2, [r1]
	.loc	1 206 5                         @ ../GUILib/src/misc/lv_timer.c:206:5
	pop.w	{r4, lr}
.Ltmp85:
	@DEBUG_VALUE: lv_timer_del:timer <- [DW_OP_LLVM_entry_value 1] $r0
	b	lv_mem_free
.Ltmp86:
.Lfunc_end6:
	.size	lv_timer_del, .Lfunc_end6-lv_timer_del
	.cfi_endproc
	.file	4 "C:\\Users\\Hyacincher\\Desktop\\HyTelectrl\\Code\\Project" "../GUILib/src/misc/lv_mem.h"
	.cantunwind
	.fnend
                                        @ -- End function
	.section	.text.lv_timer_pause,"ax",%progbits
	.hidden	lv_timer_pause                  @ -- Begin function lv_timer_pause
	.globl	lv_timer_pause
	.p2align	1
	.type	lv_timer_pause,%function
	.code	16                              @ @lv_timer_pause
	.thumb_func
lv_timer_pause:
.Lfunc_begin7:
	.loc	1 214 0                         @ ../GUILib/src/misc/lv_timer.c:214:0
	.fnstart
	.cfi_startproc
@ %bb.0:
	@DEBUG_VALUE: lv_timer_pause:timer <- $r0
	@DEBUG_VALUE: lv_timer_pause:timer <- $r0
	.loc	1 215 19 prologue_end           @ ../GUILib/src/misc/lv_timer.c:215:19
	ldrb	r1, [r0, #20]
	orr	r1, r1, #1
	strb	r1, [r0, #20]
	.loc	1 216 1                         @ ../GUILib/src/misc/lv_timer.c:216:1
	bx	lr
.Ltmp87:
.Lfunc_end7:
	.size	lv_timer_pause, .Lfunc_end7-lv_timer_pause
	.cfi_endproc
	.cantunwind
	.fnend
                                        @ -- End function
	.section	.text.lv_timer_resume,"ax",%progbits
	.hidden	lv_timer_resume                 @ -- Begin function lv_timer_resume
	.globl	lv_timer_resume
	.p2align	1
	.type	lv_timer_resume,%function
	.code	16                              @ @lv_timer_resume
	.thumb_func
lv_timer_resume:
.Lfunc_begin8:
	.loc	1 219 0                         @ ../GUILib/src/misc/lv_timer.c:219:0
	.fnstart
	.cfi_startproc
@ %bb.0:
	@DEBUG_VALUE: lv_timer_resume:timer <- $r0
	@DEBUG_VALUE: lv_timer_resume:timer <- $r0
	.loc	1 220 19 prologue_end           @ ../GUILib/src/misc/lv_timer.c:220:19
	ldrb	r1, [r0, #20]
	and	r1, r1, #254
	strb	r1, [r0, #20]
	.loc	1 221 1                         @ ../GUILib/src/misc/lv_timer.c:221:1
	bx	lr
.Ltmp88:
.Lfunc_end8:
	.size	lv_timer_resume, .Lfunc_end8-lv_timer_resume
	.cfi_endproc
	.cantunwind
	.fnend
                                        @ -- End function
	.section	.text.lv_timer_set_period,"ax",%progbits
	.hidden	lv_timer_set_period             @ -- Begin function lv_timer_set_period
	.globl	lv_timer_set_period
	.p2align	1
	.type	lv_timer_set_period,%function
	.code	16                              @ @lv_timer_set_period
	.thumb_func
lv_timer_set_period:
.Lfunc_begin9:
	.loc	1 229 0                         @ ../GUILib/src/misc/lv_timer.c:229:0
	.fnstart
	.cfi_startproc
@ %bb.0:
	@DEBUG_VALUE: lv_timer_set_period:timer <- $r0
	@DEBUG_VALUE: lv_timer_set_period:timer <- $r0
	@DEBUG_VALUE: lv_timer_set_period:period <- $r1
	@DEBUG_VALUE: lv_timer_set_period:period <- $r1
	.loc	1 230 19 prologue_end           @ ../GUILib/src/misc/lv_timer.c:230:19
	str	r1, [r0]
	.loc	1 231 1                         @ ../GUILib/src/misc/lv_timer.c:231:1
	bx	lr
.Ltmp89:
.Lfunc_end9:
	.size	lv_timer_set_period, .Lfunc_end9-lv_timer_set_period
	.cfi_endproc
	.cantunwind
	.fnend
                                        @ -- End function
	.section	.text.lv_timer_ready,"ax",%progbits
	.hidden	lv_timer_ready                  @ -- Begin function lv_timer_ready
	.globl	lv_timer_ready
	.p2align	1
	.type	lv_timer_ready,%function
	.code	16                              @ @lv_timer_ready
	.thumb_func
lv_timer_ready:
.Lfunc_begin10:
	.loc	1 238 0                         @ ../GUILib/src/misc/lv_timer.c:238:0
	.fnstart
	.cfi_startproc
@ %bb.0:
	@DEBUG_VALUE: lv_timer_ready:timer <- $r0
	.save	{r4, lr}
	push	{r4, lr}
	.cfi_def_cfa_offset 8
	.cfi_offset lr, -4
	.cfi_offset r4, -8
	mov	r4, r0
.Ltmp90:
	@DEBUG_VALUE: lv_timer_ready:timer <- $r4
	@DEBUG_VALUE: lv_timer_ready:timer <- $r4
	.loc	1 239 23 prologue_end           @ ../GUILib/src/misc/lv_timer.c:239:23
	bl	lv_tick_get
.Ltmp91:
	.loc	1 239 46 is_stmt 0              @ ../GUILib/src/misc/lv_timer.c:239:46
	ldr	r1, [r4]
	.loc	1 239 53                        @ ../GUILib/src/misc/lv_timer.c:239:53
	mvns	r1, r1
	add	r0, r1
	.loc	1 239 21                        @ ../GUILib/src/misc/lv_timer.c:239:21
	str	r0, [r4, #4]
	.loc	1 240 1 is_stmt 1               @ ../GUILib/src/misc/lv_timer.c:240:1
	pop	{r4, pc}
.Ltmp92:
.Lfunc_end10:
	.size	lv_timer_ready, .Lfunc_end10-lv_timer_ready
	.cfi_endproc
	.cantunwind
	.fnend
                                        @ -- End function
	.section	.text.lv_timer_set_repeat_count,"ax",%progbits
	.hidden	lv_timer_set_repeat_count       @ -- Begin function lv_timer_set_repeat_count
	.globl	lv_timer_set_repeat_count
	.p2align	1
	.type	lv_timer_set_repeat_count,%function
	.code	16                              @ @lv_timer_set_repeat_count
	.thumb_func
lv_timer_set_repeat_count:
.Lfunc_begin11:
	.loc	1 248 0                         @ ../GUILib/src/misc/lv_timer.c:248:0
	.fnstart
	.cfi_startproc
@ %bb.0:
	@DEBUG_VALUE: lv_timer_set_repeat_count:timer <- $r0
	@DEBUG_VALUE: lv_timer_set_repeat_count:timer <- $r0
	@DEBUG_VALUE: lv_timer_set_repeat_count:repeat_count <- $r1
	@DEBUG_VALUE: lv_timer_set_repeat_count:repeat_count <- $r1
	.loc	1 249 25 prologue_end           @ ../GUILib/src/misc/lv_timer.c:249:25
	str	r1, [r0, #16]
	.loc	1 250 1                         @ ../GUILib/src/misc/lv_timer.c:250:1
	bx	lr
.Ltmp93:
.Lfunc_end11:
	.size	lv_timer_set_repeat_count, .Lfunc_end11-lv_timer_set_repeat_count
	.cfi_endproc
	.cantunwind
	.fnend
                                        @ -- End function
	.section	.text.lv_timer_reset,"ax",%progbits
	.hidden	lv_timer_reset                  @ -- Begin function lv_timer_reset
	.globl	lv_timer_reset
	.p2align	1
	.type	lv_timer_reset,%function
	.code	16                              @ @lv_timer_reset
	.thumb_func
lv_timer_reset:
.Lfunc_begin12:
	.loc	1 258 0                         @ ../GUILib/src/misc/lv_timer.c:258:0
	.fnstart
	.cfi_startproc
@ %bb.0:
	@DEBUG_VALUE: lv_timer_reset:timer <- $r0
	.save	{r4, lr}
	push	{r4, lr}
	.cfi_def_cfa_offset 8
	.cfi_offset lr, -4
	.cfi_offset r4, -8
	mov	r4, r0
.Ltmp94:
	@DEBUG_VALUE: lv_timer_reset:timer <- $r4
	@DEBUG_VALUE: lv_timer_reset:timer <- $r4
	.loc	1 259 23 prologue_end           @ ../GUILib/src/misc/lv_timer.c:259:23
	bl	lv_tick_get
.Ltmp95:
	.loc	1 259 21 is_stmt 0              @ ../GUILib/src/misc/lv_timer.c:259:21
	str	r0, [r4, #4]
	.loc	1 260 1 is_stmt 1               @ ../GUILib/src/misc/lv_timer.c:260:1
	pop	{r4, pc}
.Ltmp96:
.Lfunc_end12:
	.size	lv_timer_reset, .Lfunc_end12-lv_timer_reset
	.cfi_endproc
	.cantunwind
	.fnend
                                        @ -- End function
	.section	.text.lv_timer_get_idle,"ax",%progbits
	.hidden	lv_timer_get_idle               @ -- Begin function lv_timer_get_idle
	.globl	lv_timer_get_idle
	.p2align	1
	.type	lv_timer_get_idle,%function
	.code	16                              @ @lv_timer_get_idle
	.thumb_func
lv_timer_get_idle:
.Lfunc_begin13:
	.loc	1 276 0                         @ ../GUILib/src/misc/lv_timer.c:276:0
	.fnstart
	.cfi_startproc
@ %bb.0:
	.loc	1 277 12 prologue_end           @ ../GUILib/src/misc/lv_timer.c:277:12
	movw	r0, :lower16:idle_last
	movt	r0, :upper16:idle_last
	ldrb	r0, [r0]
	.loc	1 277 5 is_stmt 0               @ ../GUILib/src/misc/lv_timer.c:277:5
	bx	lr
.Ltmp97:
.Lfunc_end13:
	.size	lv_timer_get_idle, .Lfunc_end13-lv_timer_get_idle
	.cfi_endproc
	.cantunwind
	.fnend
                                        @ -- End function
	.section	.text.lv_timer_get_next,"ax",%progbits
	.hidden	lv_timer_get_next               @ -- Begin function lv_timer_get_next
	.globl	lv_timer_get_next
	.p2align	1
	.type	lv_timer_get_next,%function
	.code	16                              @ @lv_timer_get_next
	.thumb_func
lv_timer_get_next:
.Lfunc_begin14:
	.loc	1 286 0 is_stmt 1               @ ../GUILib/src/misc/lv_timer.c:286:0
	.fnstart
	.cfi_startproc
@ %bb.0:
	@DEBUG_VALUE: lv_timer_get_next:timer <- $r0
	@DEBUG_VALUE: lv_timer_get_next:timer <- $r0
	.loc	1 287 8 prologue_end            @ ../GUILib/src/misc/lv_timer.c:287:8
	cbz	r0, .LBB14_2
.Ltmp98:
@ %bb.1:
	@DEBUG_VALUE: lv_timer_get_next:timer <- $r0
	.loc	1 0 8 is_stmt 0                 @ ../GUILib/src/misc/lv_timer.c:0:8
	mov	r1, r0
.Ltmp99:
	@DEBUG_VALUE: lv_timer_get_next:timer <- $r1
	.loc	1 288 17 is_stmt 1              @ ../GUILib/src/misc/lv_timer.c:288:17
	movw	r0, :lower16:_lv_timer_ll
	movt	r0, :upper16:_lv_timer_ll
.Ltmp100:
	b	_lv_ll_get_next
.Ltmp101:
.LBB14_2:
	@DEBUG_VALUE: lv_timer_get_next:timer <- $r0
	.loc	1 287 30                        @ ../GUILib/src/misc/lv_timer.c:287:30
	movw	r0, :lower16:_lv_timer_ll
.Ltmp102:
	@DEBUG_VALUE: lv_timer_get_next:timer <- [DW_OP_LLVM_entry_value 1] $r0
	movt	r0, :upper16:_lv_timer_ll
.Ltmp103:
	b	_lv_ll_get_head
.Ltmp104:
.Lfunc_end14:
	.size	lv_timer_get_next, .Lfunc_end14-lv_timer_get_next
	.cfi_endproc
	.file	5 "C:\\Users\\Hyacincher\\Desktop\\HyTelectrl\\Code\\Project" "../GUILib/src/misc/lv_ll.h"
	.cantunwind
	.fnend
                                        @ -- End function
	.type	lv_timer_handler.already_running,%object @ @lv_timer_handler.already_running
	.section	.bss.lv_timer_handler.already_running,"aw",%nobits
lv_timer_handler.already_running:
	.byte	0                               @ 0x0
	.size	lv_timer_handler.already_running, 1

	.type	lv_timer_run,%object            @ @lv_timer_run
	.section	.bss.lv_timer_run,"aw",%nobits
lv_timer_run:
	.byte	0                               @ 0x0
	.size	lv_timer_run, 1

	.type	lv_timer_handler.idle_period_start,%object @ @lv_timer_handler.idle_period_start
	.section	.bss.lv_timer_handler.idle_period_start,"aw",%nobits
	.p2align	2
lv_timer_handler.idle_period_start:
	.long	0                               @ 0x0
	.size	lv_timer_handler.idle_period_start, 4

	.type	lv_timer_handler.busy_time,%object @ @lv_timer_handler.busy_time
	.section	.bss.lv_timer_handler.busy_time,"aw",%nobits
	.p2align	2
lv_timer_handler.busy_time:
	.long	0                               @ 0x0
	.size	lv_timer_handler.busy_time, 4

	.type	lv_timer_handler.run_cnt,%object @ @lv_timer_handler.run_cnt
	.section	.bss.lv_timer_handler.run_cnt,"aw",%nobits
	.p2align	2
lv_timer_handler.run_cnt:
	.long	0                               @ 0x0
	.size	lv_timer_handler.run_cnt, 4

	.type	timer_deleted,%object           @ @timer_deleted
	.section	.bss.timer_deleted,"aw",%nobits
timer_deleted:
	.byte	0                               @ 0x0
	.size	timer_deleted, 1

	.type	timer_created,%object           @ @timer_created
	.section	.bss.timer_created,"aw",%nobits
timer_created:
	.byte	0                               @ 0x0
	.size	timer_created, 1

	.type	idle_last,%object               @ @idle_last
	.section	.bss.idle_last,"aw",%nobits
idle_last:
	.byte	0                               @ 0x0
	.size	idle_last, 1

	.section	".note.GNU-stack","",%progbits
	.eabi_attribute	30, 3	@ Tag_ABI_optimization_goals
	.ARM_attribute	16, 1	@ Tag_AV_eba