	.text
	.syntax unified
	.eabi_attribute	67, "2.09"	@ Tag_conformance
	.cpu	cortex-m4
	.eabi_attribute	6, 13	@ Tag_CPU_arch
	.eabi_attribute	7, 77	@ Tag_CPU_arch_profile
	.eabi_attribute	8, 0	@ Tag_ARM_ISA_use
	.eabi_attribute	9, 2	@ Tag_THUMB_ISA_use
	.fpu	fpv4-sp-d16
	.eabi_attribute	27, 1	@ Tag_ABI_HardFP_use
	.eabi_attribute	36, 1	@ Tag_FP_HP_extension
	.eabi_attribute	34, 1	@ Tag_CPU_unaligned_access
	.eabi_attribute	17, 1	@ Tag_ABI_PCS_GOT_use
	.eabi_attribute	20, 2	@ Tag_ABI_FP_denormal
	.eabi_attribute	21, 0	@ Tag_ABI_FP_exceptions
	.eabi_attribute	23, 1	@ Tag_ABI_FP_number_model
	.eabi_attribute	24, 1	@ Tag_ABI_align_needed
	.eabi_attribute	25, 1	@ Tag_ABI_align_preserved
	.eabi_attribute	28, 1	@ Tag_ABI_VFP_args
	.eabi_attribute	38, 1	@ Tag_ABI_FP_16bit_format
	.eabi_attribute	18, 2	@ Tag_ABI_PCS_wchar_t
	.eabi_attribute	26, 1	@ Tag_ABI_enum_size
	.eabi_attribute	14, 0	@ Tag_ABI_PCS_R9_use
	.file	"lv_table.c"
	.file	1 "C:\\Users\\Hyacincher\\Desktop\\HyTelectrl\\Code\\Project" "../GUILib/src/widgets/../core/lv_obj_class.h"
	.file	2 "C:\\Users\\Hyacincher\\Desktop\\HyTelectrl\\Code\\Project" "../GUILib/src/widgets/../core/lv_obj.h"
	.file	3 "D:\\Keil MDK\\ARM\\ARMCLANG\\Bin\\..\\include" "stdint.h"
	.file	4 "C:\\Users\\Hyacincher\\Desktop\\HyTelectrl\\Code\\Project" "../GUILib/src/widgets/../core/../misc/lv_ll.h"
	.file	5 "C:\\Users\\Hyacincher\\Desktop\\HyTelectrl\\Code\\Project" "../GUILib/src/widgets/../core/lv_group.h"
	.file	6 "C:\\Users\\Hyacincher\\Desktop\\HyTelectrl\\Code\\Project" "../GUILib/src/hal/../misc/lv_area.h"
	.file	7 "C:\\Users\\Hyacincher\\Desktop\\HyTelectrl\\Code\\Project" "../GUILib/src/widgets/../core/lv_obj_scroll.h"
	.file	8 "C:\\Users\\Hyacincher\\Desktop\\HyTelectrl\\Code\\Project" "../GUILib/src/hal/../draw/../misc/lv_style.h"
	.file	9 "C:\\Users\\Hyacincher\\Desktop\\HyTelectrl\\Code\\Project" "../GUILib/src/hal/../misc/lv_color.h"
	.file	10 "C:\\Users\\Hyacincher\\Desktop\\HyTelectrl\\Code\\Project" "../GUILib/src/widgets/../core/lv_obj_style.h"
	.file	11 "C:\\Users\\Hyacincher\\Desktop\\HyTelectrl\\Code\\Project" "../GUILib/src/widgets/../core/lv_event.h"
	.file	12 "C:\\Users\\Hyacincher\\Desktop\\HyTelectrl\\Code\\Project" "../GUILib/src/widgets/lv_table.c"
	.file	13 "C:\\Users\\Hyacincher\\Desktop\\HyTelectrl\\Code\\Project" "../GUILib/src/hal/../draw/../misc/lv_types.h"
	.file	14 "C:\\Users\\Hyacincher\\Desktop\\HyTelectrl\\Code\\Project" "../GUILib/src/widgets/../core/../hal/lv_hal_indev.h"
	.file	15 "C:\\Users\\Hyacincher\\Desktop\\HyTelectrl\\Code\\Project" "../GUILib/src/hal/../draw/../misc/lv_bidi.h"
	.file	16 "C:\\Users\\Hyacincher\\Desktop\\HyTelectrl\\Code\\Project" "../GUILib/src/widgets/lv_table.h"
	.file	17 "C:\\Users\\Hyacincher\\Desktop\\HyTelectrl\\Code\\Project" "../GUILib/src/widgets/../misc/lv_txt.h"
	.file	18 "C:\\Users\\Hyacincher\\Desktop\\HyTelectrl\\Code\\Project" "../GUILib/src/widgets/../font/lv_font.h"
	.section	.text.lv_table_constructor,"ax",%progbits
	.p2align	1                               @ -- Begin function lv_table_constructor
	.type	lv_table_constructor,%function
	.code	16                              @ @lv_table_constructor
	.thumb_func
lv_table_constructor:
.Lfunc_begin0:
	.loc	12 434 0                        @ ../GUILib/src/widgets/lv_table.c:434:0
	.fnstart
	.cfi_sections .debug_frame
	.cfi_startproc
@ %bb.0:
	@DEBUG_VALUE: lv_table_constructor:class_p <- $r0
	@DEBUG_VALUE: lv_table_constructor:obj <- $r1
	.save	{r4, lr}
	push	{r4, lr}
	.cfi_def_cfa_offset 8
	.cfi_offset lr, -4
	.cfi_offset r4, -8
	mov.w	r0, #65537
.Ltmp0:
	@DEBUG_VALUE: lv_table_constructor:class_p <- [DW_OP_LLVM_entry_value 1] $r0
	@DEBUG_VALUE: lv_table_constructor:table <- $r4
	@DEBUG_VALUE: lv_table_constructor:obj <- $r4
	.loc	12 440 20 prologue_end          @ ../GUILib/src/widgets/lv_table.c:440:20
	str	r0, [r1, #36]
	.loc	12 442 20                       @ ../GUILib/src/widgets/lv_table.c:442:20
	movs	r0, #2
	mov	r4, r1
.Ltmp1:
	bl	lv_mem_alloc
.Ltmp2:
	.loc	12 443 40                       @ ../GUILib/src/widgets/lv_table.c:443:40
	ldrh	r1, [r4, #38]
	.loc	12 442 18                       @ ../GUILib/src/widgets/lv_table.c:442:18
	str	r0, [r4, #48]
	.loc	12 443 48                       @ ../GUILib/src/widgets/lv_table.c:443:48
	lsls	r0, r1, #1
	.loc	12 443 20 is_stmt 0             @ ../GUILib/src/widgets/lv_table.c:443:20
	bl	lv_mem_alloc
.Ltmp3:
	.loc	12 444 12 is_stmt 1             @ ../GUILib/src/widgets/lv_table.c:444:12
	ldr	r1, [r4, #48]
	movs	r2, #222
	.loc	12 444 21 is_stmt 0             @ ../GUILib/src/widgets/lv_table.c:444:21
	strh	r2, [r1]
	.loc	12 445 21 is_stmt 1             @ ../GUILib/src/widgets/lv_table.c:445:21
	strh	r2, [r0]
	.loc	12 446 64                       @ ../GUILib/src/widgets/lv_table.c:446:64
	ldrh	r1, [r4, #38]
	.loc	12 446 81 is_stmt 0             @ ../GUILib/src/widgets/lv_table.c:446:81
	ldrh	r2, [r4, #36]
	.loc	12 443 18 is_stmt 1             @ ../GUILib/src/widgets/lv_table.c:443:18
	str	r0, [r4, #44]
	.loc	12 446 46                       @ ../GUILib/src/widgets/lv_table.c:446:46
	ldr	r0, [r4, #40]
	.loc	12 446 89 is_stmt 0             @ ../GUILib/src/widgets/lv_table.c:446:89
	muls	r1, r2, r1
	lsls	r1, r1, #2
	.loc	12 446 24                       @ ../GUILib/src/widgets/lv_table.c:446:24
	bl	lv_mem_realloc
.Ltmp4:
	.loc	12 0 24                         @ ../GUILib/src/widgets/lv_table.c:0:24
	movs	r1, #0
	.loc	12 446 22                       @ ../GUILib/src/widgets/lv_table.c:446:22
	str	r0, [r4, #40]
	.loc	12 447 25 is_stmt 1             @ ../GUILib/src/widgets/lv_table.c:447:25
	str	r1, [r0]
	.loc	12 450 1                        @ ../GUILib/src/widgets/lv_table.c:450:1
	pop	{r4, pc}
.Ltmp5:
.Lfunc_end0:
	.size	lv_table_constructor, .Lfunc_end0-lv_table_constructor
	.cfi_endproc
	.cantunwind
	.fnend
                                        @ -- End function
	.section	.text.lv_table_destructor,"ax",%progbits
	.p2align	1                               @ -- Begin function lv_table_destructor
	.type	lv_table_destructor,%function
	.code	16                              @ @lv_table_destructor
	.thumb_func
lv_table_destructor:
.Lfunc_begin1:
	.loc	12 453 0                        @ ../GUILib/src/widgets/lv_table.c:453:0
	.fnstart
	.cfi_startproc
@ %bb.0:
	@DEBUG_VALUE: lv_table_destructor:class_p <- $r0
	@DEBUG_VALUE: lv_table_destructor:obj <- $r1
	.save	{r4, r5, r6, r7, lr}
	push	{r4, r5, r6, r7, lr}
	.cfi_def_cfa_offset 20
	.cfi_offset lr, -4
	.cfi_offset r7, -8
	.cfi_offset r6, -12
	.cfi_offset r5, -16
	.cfi_offset r4, -20
	.pad	#4
	sub	sp, #4
	.cfi_def_cfa_offset 24
	mov	r4, r1
.Ltmp6:
	@DEBUG_VALUE: lv_table_destructor:i <- 0
	@DEBUG_VALUE: lv_table_destructor:table <- $r4
	@DEBUG_VALUE: lv_table_destructor:obj <- $r4
	.loc	12 458 27 prologue_end          @ ../GUILib/src/widgets/lv_table.c:458:27
	ldrh	r1, [r1, #36]
	.loc	12 458 44 is_stmt 0             @ ../GUILib/src/widgets/lv_table.c:458:44
	ldrh	r2, [r4, #38]
	.loc	12 458 35                       @ ../GUILib/src/widgets/lv_table.c:458:35
	mul	r0, r2, r1
.Ltmp7:
	@DEBUG_VALUE: lv_table_destructor:class_p <- [DW_OP_LLVM_entry_value 1] $r0
	.loc	12 458 5                        @ ../GUILib/src/widgets/lv_table.c:458:5
	cbz	r0, .LBB1_5
.Ltmp8:
@ %bb.1:
	@DEBUG_VALUE: lv_table_destructor:obj <- $r4
	@DEBUG_VALUE: lv_table_destructor:table <- $r4
	@DEBUG_VALUE: lv_table_destructor:class_p <- [DW_OP_LLVM_entry_value 1] $r0
	@DEBUG_VALUE: lv_table_destructor:i <- 0
	.loc	12 0 5                          @ ../GUILib/src/widgets/lv_table.c:0:5
	movs	r5, #0
	movs	r7, #0
	movs	r6, #0
.Ltmp9:
	.p2align	2
.LBB1_2:                                @ =>This Inner Loop Header: Depth=1
	@DEBUG_VALUE: lv_table_destructor:obj <- $r4
	@DEBUG_VALUE: lv_table_destructor:table <- $r4
	@DEBUG_VALUE: lv_table_destructor:class_p <- [DW_OP_LLVM_entry_value 1] $r0
	@DEBUG_VALUE: lv_table_destructor:i <- $r6
	.loc	12 459 19 is_stmt 1             @ ../GUILib/src/widgets/lv_table.c:459:19
	ldr	r0, [r4, #40]
	.loc	12 459 12 is_stmt 0             @ ../GUILib/src/widgets/lv_table.c:459:12
	ldr.w	r0, [r0, r7, lsl #2]
.Ltmp10:
	.loc	12 459 12                       @ ../GUILib/src/widgets/lv_table.c:459:12
	cbz	r0, .LBB1_4
.Ltmp11:
@ %bb.3:                                @   in Loop: Header=BB1_2 Depth=1
	@DEBUG_VALUE: lv_table_destructor:i <- $r6
	@DEBUG_VALUE: lv_table_destructor:obj <- $r4
	@DEBUG_VALUE: lv_table_destructor:table <- $r4
	@DEBUG_VALUE: lv_table_destructor:class_p <- [DW_OP_LLVM_entry_value 1] $r0
	.loc	12 460 13 is_stmt 1             @ ../GUILib/src/widgets/lv_table.c:460:13
	bl	lv_mem_free
.Ltmp12:
	.loc	12 461 20                       @ ../GUILib/src/widgets/lv_table.c:461:20
	ldr	r0, [r4, #40]
.Ltmp13:
	.loc	12 458 27                       @ ../GUILib/src/widgets/lv_table.c:458:27
	ldrh	r1, [r4, #36]
	.loc	12 458 44 is_stmt 0             @ ../GUILib/src/widgets/lv_table.c:458:44
	ldrh	r2, [r4, #38]
.Ltmp14:
	.loc	12 461 33 is_stmt 1             @ ../GUILib/src/widgets/lv_table.c:461:33
	str.w	r5, [r0, r7, lsl #2]
.Ltmp15:
.LBB1_4:                                @   in Loop: Header=BB1_2 Depth=1
	@DEBUG_VALUE: lv_table_destructor:i <- $r6
	@DEBUG_VALUE: lv_table_destructor:obj <- $r4
	@DEBUG_VALUE: lv_table_destructor:table <- $r4
	@DEBUG_VALUE: lv_table_destructor:class_p <- [DW_OP_LLVM_entry_value 1] $r0
	.loc	12 458 54                       @ ../GUILib/src/widgets/lv_table.c:458:54
	adds	r6, #1
.Ltmp16:
	@DEBUG_VALUE: lv_table_destructor:i <- $r6
	.loc	12 458 20 is_stmt 0             @ ../GUILib/src/widgets/lv_table.c:458:20
	uxth	r0, r1
	.loc	12 458 37                       @ ../GUILib/src/widgets/lv_table.c:458:37
	uxth	r3, r2
	.loc	12 458 16                       @ ../GUILib/src/widgets/lv_table.c:458:16
	uxth	r7, r6
	.loc	12 458 35                       @ ../GUILib/src/widgets/lv_table.c:458:35
	muls	r0, r3, r0
.Ltmp17:
	.loc	12 458 5                        @ ../GUILib/src/widgets/lv_table.c:458:5
	cmp	r0, r7
	bhi	.LBB1_2
.Ltmp18:
.LBB1_5:
	@DEBUG_VALUE: lv_table_destructor:obj <- $r4
	@DEBUG_VALUE: lv_table_destructor:table <- $r4
	@DEBUG_VALUE: lv_table_destructor:class_p <- [DW_OP_LLVM_entry_value 1] $r0
	.loc	12 465 15 is_stmt 1             @ ../GUILib/src/widgets/lv_table.c:465:15
	ldr	r0, [r4, #40]
.Ltmp19:
	.loc	12 465 8 is_stmt 0              @ ../GUILib/src/widgets/lv_table.c:465:8
	cbz	r0, .LBB1_7
.Ltmp20:
@ %bb.6:
	@DEBUG_VALUE: lv_table_destructor:obj <- $r4
	@DEBUG_VALUE: lv_table_destructor:table <- $r4
	@DEBUG_VALUE: lv_table_destructor:class_p <- [DW_OP_LLVM_entry_value 1] $r0
	.loc	12 465 26                       @ ../GUILib/src/widgets/lv_table.c:465:26
	bl	lv_mem_free
.Ltmp21:
.LBB1_7:
	@DEBUG_VALUE: lv_table_destructor:obj <- $r4
	@DEBUG_VALUE: lv_table_destructor:table <- $r4
	@DEBUG_VALUE: lv_table_destructor:class_p <- [DW_OP_LLVM_entry_value 1] $r0
	.loc	12 466 15 is_stmt 1             @ ../GUILib/src/widgets/lv_table.c:466:15
	ldr	r0, [r4, #44]
.Ltmp22:
	.loc	12 466 8 is_stmt 0              @ ../GUILib/src/widgets/lv_table.c:466:8
	cbz	r0, .LBB1_9
.Ltmp23:
@ %bb.8:
	@DEBUG_VALUE: lv_table_destructor:obj <- $r4
	@DEBUG_VALUE: lv_table_destructor:table <- $r4
	@DEBUG_VALUE: lv_table_destructor:class_p <- [DW_OP_LLVM_entry_value 1] $r0
	.loc	12 466 22                       @ ../GUILib/src/widgets/lv_table.c:466:22
	add	sp, #4
	pop.w	{r4, r5, r6, r7, lr}
.Ltmp24:
	b	lv_mem_free
.Ltmp25:
.LBB1_9:
	@DEBUG_VALUE: lv_table_destructor:obj <- $r4
	@DEBUG_VALUE: lv_table_destructor:table <- $r4
	@DEBUG_VALUE: lv_table_destructor:class_p <- [DW_OP_LLVM_entry_value 1] $r0
	.loc	12 467 1 is_stmt 1              @ ../GUILib/src/widgets/lv_table.c:467:1
	add	sp, #4
	pop	{r4, r5, r6, r7, pc}
.Ltmp26:
.Lfunc_end1:
	.size	lv_table_destructor, .Lfunc_end1-lv_table_destructor
	.cfi_endproc
	.file	19 "C:\\Users\\Hyacincher\\Desktop\\HyTelectrl\\Code\\Project" "../GUILib/src/widgets/../core/../misc/lv_mem.h"
	.cantunwind
	.fnend
                                        @ -- End function
	.section	.text.lv_table_event,"ax",%progbits
	.p2align	2                               @ -- Begin function lv_table_event
	.type	lv_table_event,%function
	.code	16                              @ @lv_table_event
	.thumb_func
lv_table_event:
.Lfunc_begin2:
	.loc	12 470 0                        @ ../GUILib/src/widgets/lv_table.c:470:0
	.fnstart
	.cfi_startproc
@ %bb.0:
	@DEBUG_VALUE: lv_table_event:class_p <- $r0
	@DEBUG_VALUE: lv_table_event:e <- $r1
	.save	{r4, r5, r6, r7, r8, r9, r10, r11, lr}
	push.w	{r4, r5, r6, r7, r8, r9, r10, r11, lr}
	.cfi_def_cfa_offset 36
	.cfi_offset lr, -4
	.cfi_offset r11, -8
	.cfi_offset r10, -12
	.cfi_offset r9, -16
	.cfi_offset r8, -20
	.cfi_offset r7, -24
	.cfi_offset r6, -28
	.cfi_offset r5, -32
	.cfi_offset r4, -36
	.pad	#380
	sub	sp, #380
	.cfi_def_cfa_offset 416
.Ltmp27:
	.loc	12 476 11 prologue_end          @ ../GUILib/src/widgets/lv_table.c:476:11
	movw	r5, :lower16:lv_table_class
	movt	r5, :upper16:lv_table_class
	mov	r0, r5
.Ltmp28:
	@DEBUG_VALUE: lv_table_event:class_p <- [DW_OP_LLVM_entry_value 1] $r0
	.loc	12 0 11 is_stmt 0               @ ../GUILib/src/widgets/lv_table.c:0:11
	mov	r6, r1
.Ltmp29:
	@DEBUG_VALUE: lv_table_event:e <- $r6
	.loc	12 476 11                       @ ../GUILib/src/widgets/lv_table.c:476:11
	bl	lv_obj_event_base
.Ltmp30:
	@DEBUG_VALUE: lv_table_event:res <- $r0
	.loc	12 477 8 is_stmt 1              @ ../GUILib/src/widgets/lv_table.c:477:8
	cmp	r0, #1
	bne.w	.LBB2_90
.Ltmp31:
@ %bb.1:
	@DEBUG_VALUE: lv_table_event:e <- $r6
	@DEBUG_VALUE: lv_table_event:res <- $r0
	@DEBUG_VALUE: lv_table_event:class_p <- [DW_OP_LLVM_entry_value 1] $r0
	.loc	12 479 28                       @ ../GUILib/src/widgets/lv_table.c:479:28
	mov	r0, r6
.Ltmp32:
	bl	lv_event_get_code
.Ltmp33:
	mov	r7, r0
.Ltmp34:
	@DEBUG_VALUE: lv_table_event:code <- undef
	.loc	12 480 22                       @ ../GUILib/src/widgets/lv_table.c:480:22
	mov	r0, r6
	bl	lv_event_get_target
.Ltmp35:
	.loc	12 483 8                        @ ../GUILib/src/widgets/lv_table.c:483:8
	cmp	r7, #13
	.loc	12 480 22                       @ ../GUILib/src/widgets/lv_table.c:480:22
	mov	r4, r0
.Ltmp36:
	@DEBUG_VALUE: lv_table_event:table <- $r4
	@DEBUG_VALUE: lv_table_event:obj <- $r4
	.loc	12 483 8                        @ ../GUILib/src/widgets/lv_table.c:483:8
	bgt	.LBB2_11
.Ltmp37:
@ %bb.2:
	@DEBUG_VALUE: lv_table_event:e <- $r6
	@DEBUG_VALUE: lv_table_event:obj <- $r4
	@DEBUG_VALUE: lv_table_event:table <- $r4
	@DEBUG_VALUE: lv_table_event:class_p <- [DW_OP_LLVM_entry_value 1] $r0
	subs	r0, r7, #1
	cmp	r0, #2
	blo.w	.LBB2_65
.Ltmp38:
@ %bb.3:
	@DEBUG_VALUE: lv_table_event:e <- $r6
	@DEBUG_VALUE: lv_table_event:obj <- $r4
	@DEBUG_VALUE: lv_table_event:table <- $r4
	@DEBUG_VALUE: lv_table_event:class_p <- [DW_OP_LLVM_entry_value 1] $r0
	cmp	r7, #8
	beq.w	.LBB2_68
.Ltmp39:
@ %bb.4:
	@DEBUG_VALUE: lv_table_event:e <- $r6
	@DEBUG_VALUE: lv_table_event:obj <- $r4
	@DEBUG_VALUE: lv_table_event:table <- $r4
	@DEBUG_VALUE: lv_table_event:class_p <- [DW_OP_LLVM_entry_value 1] $r0
	cmp	r7, #13
	bne.w	.LBB2_90
.Ltmp40:
@ %bb.5:
	@DEBUG_VALUE: lv_table_event:e <- $r6
	@DEBUG_VALUE: lv_table_event:obj <- $r4
	@DEBUG_VALUE: lv_table_event:table <- $r4
	@DEBUG_VALUE: lv_table_event:class_p <- [DW_OP_LLVM_entry_value 1] $r0
	.loc	12 528 34                       @ ../GUILib/src/widgets/lv_table.c:528:34
	mov	r0, r6
	bl	lv_event_get_param
.Ltmp41:
	.loc	12 529 30                       @ ../GUILib/src/widgets/lv_table.c:529:30
	ldrh	r1, [r4, #52]
.Ltmp42:
	@DEBUG_VALUE: col <- [DW_OP_LLVM_convert 16 7, DW_OP_LLVM_convert 32 7, DW_OP_stack_value] $r1
	.loc	12 0 30 is_stmt 0               @ ../GUILib/src/widgets/lv_table.c:0:30
	movw	r3, #65535
.Ltmp43:
	@DEBUG_VALUE: row <- undef
	.loc	12 531 38 is_stmt 1             @ ../GUILib/src/widgets/lv_table.c:531:38
	cmp	r1, r3
.Ltmp44:
	@DEBUG_VALUE: c <- undef
	.loc	12 0 38 is_stmt 0               @ ../GUILib/src/widgets/lv_table.c:0:38
	beq.w	.LBB2_91
.Ltmp45:
@ %bb.6:
	@DEBUG_VALUE: lv_table_event:e <- $r6
	@DEBUG_VALUE: lv_table_event:obj <- $r4
	@DEBUG_VALUE: lv_table_event:table <- $r4
	@DEBUG_VALUE: col <- [DW_OP_LLVM_convert 16 7, DW_OP_LLVM_convert 32 7, DW_OP_stack_value] $r1
	@DEBUG_VALUE: lv_table_event:class_p <- [DW_OP_LLVM_entry_value 1] $r0
	ldrh	r2, [r4, #54]
.Ltmp46:
	@DEBUG_VALUE: row <- $r2
	.loc	12 531 38                       @ ../GUILib/src/widgets/lv_table.c:531:38
	cmp	r2, r3
	beq.w	.LBB2_91
.Ltmp47:
@ %bb.7:
	@DEBUG_VALUE: lv_table_event:e <- $r6
	@DEBUG_VALUE: lv_table_event:obj <- $r4
	@DEBUG_VALUE: lv_table_event:table <- $r4
	@DEBUG_VALUE: row <- $r2
	@DEBUG_VALUE: col <- [DW_OP_LLVM_convert 16 7, DW_OP_LLVM_convert 32 7, DW_OP_stack_value] $r1
	@DEBUG_VALUE: lv_table_event:class_p <- [DW_OP_LLVM_entry_value 1] $r0
	.loc	12 538 26 is_stmt 1             @ ../GUILib/src/widgets/lv_table.c:538:26
	ldrh	r6, [r4, #36]
.Ltmp48:
	@DEBUG_VALUE: lv_table_event:e <- [DW_OP_LLVM_entry_value 1] $r1
	.loc	12 528 21                       @ ../GUILib/src/widgets/lv_table.c:528:21
	ldr	r5, [r0]
.Ltmp49:
	@DEBUG_VALUE: c <- $r5
	@DEBUG_VALUE: col <- $r1
	.loc	12 539 26                       @ ../GUILib/src/widgets/lv_table.c:539:26
	ldrh.w	r12, [r4, #38]
.Ltmp50:
	.loc	12 538 12                       @ ../GUILib/src/widgets/lv_table.c:538:12
	cmp	r1, r6
	mov.w	r3, #0
	mov.w	r7, #0
	it	lo
	movlo	r3, r1
.Ltmp51:
	@DEBUG_VALUE: col <- $r3
	.loc	12 539 12                       @ ../GUILib/src/widgets/lv_table.c:539:12
	cmp	r2, r12
	.loc	12 541 12                       @ ../GUILib/src/widgets/lv_table.c:541:12
	sub.w	r5, r5, #17
.Ltmp52:
	.loc	12 539 12                       @ ../GUILib/src/widgets/lv_table.c:539:12
	it	lo
	movlo	r7, r2
.Ltmp53:
	@DEBUG_VALUE: row <- $r7
	.loc	12 541 12                       @ ../GUILib/src/widgets/lv_table.c:541:12
	cmp	r5, #3
	bhi.w	.LBB2_90
.Ltmp54:
@ %bb.8:
	@DEBUG_VALUE: row <- $r7
	@DEBUG_VALUE: lv_table_event:obj <- $r4
	@DEBUG_VALUE: lv_table_event:table <- $r4
	@DEBUG_VALUE: col <- $r3
	@DEBUG_VALUE: lv_table_event:e <- [DW_OP_LLVM_entry_value 1] $r1
	@DEBUG_VALUE: lv_table_event:class_p <- [DW_OP_LLVM_entry_value 1] $r0
	.loc	12 0 12 is_stmt 0               @ ../GUILib/src/widgets/lv_table.c:0:12
.LCPI2_0:
	tbh	[pc, r5, lsl #1]
.Ltmp55:
@ %bb.9:
.LJTI2_0:
	.short	(.LBB2_10-(.LCPI2_0+4))/2
	.short	(.LBB2_104-(.LCPI2_0+4))/2
	.short	(.LBB2_105-(.LCPI2_0+4))/2
	.short	(.LBB2_106-(.LCPI2_0+4))/2
	.p2align	1
.LBB2_10:
.Ltmp56:
	@DEBUG_VALUE: row <- $r7
	@DEBUG_VALUE: lv_table_event:obj <- $r4
	@DEBUG_VALUE: lv_table_event:table <- $r4
	@DEBUG_VALUE: col <- $r3
	@DEBUG_VALUE: lv_table_event:e <- [DW_OP_LLVM_entry_value 1] $r1
	@DEBUG_VALUE: lv_table_event:class_p <- [DW_OP_LLVM_entry_value 1] $r0
	.loc	12 543 36 is_stmt 1             @ ../GUILib/src/widgets/lv_table.c:543:36
	subs	r7, #1
.Ltmp57:
	@DEBUG_VALUE: row <- $r7
	.loc	12 0 36 is_stmt 0               @ ../GUILib/src/widgets/lv_table.c:0:36
	b	.LBB2_107
.Ltmp58:
.LBB2_11:
	@DEBUG_VALUE: lv_table_event:e <- $r6
	@DEBUG_VALUE: lv_table_event:obj <- $r4
	@DEBUG_VALUE: lv_table_event:table <- $r4
	@DEBUG_VALUE: lv_table_event:class_p <- [DW_OP_LLVM_entry_value 1] $r0
	.loc	12 483 8 is_stmt 1              @ ../GUILib/src/widgets/lv_table.c:483:8
	cmp	r7, #41
	bgt.w	.LBB2_62
.Ltmp59:
@ %bb.12:
	@DEBUG_VALUE: lv_table_event:e <- $r6
	@DEBUG_VALUE: lv_table_event:obj <- $r4
	@DEBUG_VALUE: lv_table_event:table <- $r4
	@DEBUG_VALUE: lv_table_event:class_p <- [DW_OP_LLVM_entry_value 1] $r0
	cmp	r7, #14
	beq.w	.LBB2_70
.Ltmp60:
@ %bb.13:
	@DEBUG_VALUE: lv_table_event:e <- $r6
	@DEBUG_VALUE: lv_table_event:obj <- $r4
	@DEBUG_VALUE: lv_table_event:table <- $r4
	@DEBUG_VALUE: lv_table_event:class_p <- [DW_OP_LLVM_entry_value 1] $r0
	cmp	r7, #21
	bne.w	.LBB2_90
.Ltmp61:
@ %bb.14:
	@DEBUG_VALUE: lv_table_event:e <- $r6
	@DEBUG_VALUE: lv_table_event:obj <- $r4
	@DEBUG_VALUE: lv_table_event:table <- $r4
	@DEBUG_VALUE: lv_table_event:class_p <- [DW_OP_LLVM_entry_value 1] $r0
	@DEBUG_VALUE: draw_main:e <- $r6
	.loc	12 590 22                       @ ../GUILib/src/widgets/lv_table.c:590:22
	mov	r0, r6
	bl	lv_event_get_target
.Ltmp62:
	mov	r4, r0
.Ltmp63:
	@DEBUG_VALUE: draw_main:table <- $r4
	@DEBUG_VALUE: draw_main:obj <- $r4
	.loc	12 592 39                       @ ../GUILib/src/widgets/lv_table.c:592:39
	mov	r0, r6
	bl	lv_event_get_param
.Ltmp64:
	mov	r2, r0
.Ltmp65:
	@DEBUG_VALUE: draw_main:clip_area_ori <- $r2
	.loc	12 594 46                       @ ../GUILib/src/widgets/lv_table.c:594:46
	add.w	r1, r4, #20
	add	r0, sp, #372
	str	r4, [sp, #92]                   @ 4-byte Spill
.Ltmp66:
	@DEBUG_VALUE: draw_main:table <- [DW_OP_plus_uconst 92] [$sp+0]
	@DEBUG_VALUE: draw_main:table <- [DW_OP_plus_uconst 92] [$sp+0]
	@DEBUG_VALUE: draw_main:obj <- [DW_OP_plus_uconst 92] [$sp+0]
	.loc	12 0 46 is_stmt 0               @ ../GUILib/src/widgets/lv_table.c:0:46
	str	r1, [sp, #48]                   @ 4-byte Spill
	.loc	12 594 9                        @ ../GUILib/src/widgets/lv_table.c:594:9
	bl	_lv_area_intersect
.Ltmp67:
	.loc	12 594 8                        @ ../GUILib/src/widgets/lv_table.c:594:8
	cmp	r0, #0
	beq.w	.LBB2_90
.Ltmp68:
@ %bb.15:
	@DEBUG_VALUE: draw_main:e <- $r6
	@DEBUG_VALUE: lv_table_event:e <- $r6
	@DEBUG_VALUE: draw_main:obj <- [DW_OP_plus_uconst 92] [$sp+0]
	@DEBUG_VALUE: draw_main:table <- [DW_OP_plus_uconst 92] [$sp+0]
	@DEBUG_VALUE: lv_table_event:class_p <- [DW_OP_LLVM_entry_value 1] $r0
	@DEBUG_VALUE: lv_obj_get_style_border_width:obj <- [DW_OP_plus_uconst 92] [$sp+0]
	@DEBUG_VALUE: lv_obj_get_style_border_width:part <- 0
	.loc	12 0 8                          @ ../GUILib/src/widgets/lv_table.c:0:8
	ldr	r6, [sp, #92]                   @ 4-byte Reload
.Ltmp69:
	@DEBUG_VALUE: lv_table_event:e <- [DW_OP_LLVM_entry_value 1] $r1
	.file	20 "C:\\Users\\Hyacincher\\Desktop\\HyTelectrl\\Code\\Project" "../GUILib/src/widgets/../core/lv_obj_style_gen.h"
	.loc	20 297 26 is_stmt 1             @ ../GUILib/src/widgets/../core/lv_obj_style_gen.h:297:26
	movs	r1, #0
	mov	r0, r6
	movw	r2, #4146
	mov.w	r11, #0
	bl	lv_obj_get_style_prop
.Ltmp70:
	mov	r8, r0
.Ltmp71:
	@DEBUG_VALUE: lv_obj_get_style_pad_top:part <- 0
	@DEBUG_VALUE: lv_obj_get_style_pad_top:obj <- [DW_OP_plus_uconst 92] [$sp+0]
	@DEBUG_VALUE: draw_main:border_width <- $r8
	@DEBUG_VALUE: lv_obj_get_style_border_width:v <- $r8
	.loc	20 93 26                        @ ../GUILib/src/widgets/../core/lv_obj_style_gen.h:93:26
	mov	r0, r6
	movs	r1, #0
	movw	r2, #6160
	bl	lv_obj_get_style_prop
.Ltmp72:
	mov	r10, r0
.Ltmp73:
	@DEBUG_VALUE: lv_obj_get_style_pad_bottom:part <- 0
	@DEBUG_VALUE: lv_obj_get_style_pad_bottom:obj <- [DW_OP_plus_uconst 92] [$sp+0]
	@DEBUG_VALUE: draw_main:bg_top <- $r10
	@DEBUG_VALUE: lv_obj_get_style_pad_top:v <- $r10
	.loc	20 99 26                        @ ../GUILib/src/widgets/../core/lv_obj_style_gen.h:99:26
	mov	r0, r6
	movs	r1, #0
	movw	r2, #6161
	bl	lv_obj_get_style_prop
.Ltmp74:
	str	r0, [sp, #88]                   @ 4-byte Spill
.Ltmp75:
	@DEBUG_VALUE: lv_obj_get_style_pad_left:part <- 0
	@DEBUG_VALUE: lv_obj_get_style_pad_left:obj <- [DW_OP_plus_uconst 92] [$sp+0]
	@DEBUG_VALUE: draw_main:bg_bottom <- [DW_OP_plus_uconst 88, DW_OP_deref_size 4, DW_OP_LLVM_convert 32 7, DW_OP_LLVM_convert 16 7, DW_OP_stack_value] $sp
	@DEBUG_VALUE: lv_obj_get_style_pad_bottom:v <- [DW_OP_plus_uconst 88] [$sp+0]
	.loc	20 105 26                       @ ../GUILib/src/widgets/../core/lv_obj_style_gen.h:105:26
	mov	r0, r6
	movs	r1, #0
	movw	r2, #6162
	bl	lv_obj_get_style_prop
.Ltmp76:
	mov	r4, r0
.Ltmp77:
	@DEBUG_VALUE: lv_obj_get_style_pad_right:part <- 0
	@DEBUG_VALUE: lv_obj_get_style_pad_right:obj <- [DW_OP_plus_uconst 92] [$sp+0]
	@DEBUG_VALUE: draw_main:bg_left <- [DW_OP_LLVM_convert 32 7, DW_OP_LLVM_convert 16 7, DW_OP_stack_value] $r4
	@DEBUG_VALUE: lv_obj_get_style_pad_left:v <- $r4
	.loc	20 111 26                       @ ../GUILib/src/widgets/../core/lv_obj_style_gen.h:111:26
	mov	r0, r6
	movs	r1, #0
	movw	r2, #6163
	bl	lv_obj_get_style_prop
.Ltmp78:
	str	r0, [sp, #84]                   @ 4-byte Spill
.Ltmp79:
	@DEBUG_VALUE: lv_obj_get_style_pad_left:part <- 327680
	@DEBUG_VALUE: lv_obj_get_style_pad_left:obj <- [DW_OP_plus_uconst 92] [$sp+0]
	@DEBUG_VALUE: draw_main:bg_right <- [DW_OP_plus_uconst 84, DW_OP_deref_size 4, DW_OP_LLVM_convert 32 7, DW_OP_LLVM_convert 16 7, DW_OP_stack_value] $sp
	@DEBUG_VALUE: lv_obj_get_style_pad_right:v <- [DW_OP_plus_uconst 84] [$sp+0]
	.loc	20 105 26                       @ ../GUILib/src/widgets/../core/lv_obj_style_gen.h:105:26
	mov	r0, r6
	mov.w	r1, #327680
	movw	r2, #6162
	bl	lv_obj_get_style_prop
.Ltmp80:
	str	r0, [sp, #64]                   @ 4-byte Spill
.Ltmp81:
	@DEBUG_VALUE: lv_obj_get_style_pad_right:part <- 327680
	@DEBUG_VALUE: lv_obj_get_style_pad_right:obj <- [DW_OP_plus_uconst 92] [$sp+0]
	@DEBUG_VALUE: draw_main:cell_left <- [DW_OP_plus_uconst 64, DW_OP_deref_size 4, DW_OP_LLVM_convert 32 7, DW_OP_LLVM_convert 16 7, DW_OP_stack_value] $sp
	@DEBUG_VALUE: lv_obj_get_style_pad_left:v <- [DW_OP_plus_uconst 64] [$sp+0]
	.loc	20 111 26                       @ ../GUILib/src/widgets/../core/lv_obj_style_gen.h:111:26
	mov	r0, r6
	mov.w	r1, #327680
	movw	r2, #6163
	bl	lv_obj_get_style_prop
.Ltmp82:
	str	r0, [sp, #60]                   @ 4-byte Spill
.Ltmp83:
	@DEBUG_VALUE: lv_obj_get_style_pad_top:part <- 327680
	@DEBUG_VALUE: lv_obj_get_style_pad_top:obj <- [DW_OP_plus_uconst 92] [$sp+0]
	@DEBUG_VALUE: draw_main:cell_right <- [DW_OP_plus_uconst 60, DW_OP_deref_size 4, DW_OP_LLVM_convert 32 7, DW_OP_LLVM_convert 16 7, DW_OP_stack_value] $sp
	@DEBUG_VALUE: lv_obj_get_style_pad_right:v <- [DW_OP_plus_uconst 60] [$sp+0]
	.loc	20 93 26                        @ ../GUILib/src/widgets/../core/lv_obj_style_gen.h:93:26
	mov	r0, r6
	mov.w	r1, #327680
	movw	r2, #6160
	bl	lv_obj_get_style_prop
.Ltmp84:
	str	r0, [sp, #56]                   @ 4-byte Spill
.Ltmp85:
	@DEBUG_VALUE: lv_obj_get_style_pad_bottom:part <- 327680
	@DEBUG_VALUE: lv_obj_get_style_pad_bottom:obj <- [DW_OP_plus_uconst 92] [$sp+0]
	@DEBUG_VALUE: draw_main:cell_top <- [DW_OP_plus_uconst 56, DW_OP_deref_size 4, DW_OP_LLVM_convert 32 7, DW_OP_LLVM_convert 16 7, DW_OP_stack_value] $sp
	@DEBUG_VALUE: lv_obj_get_style_pad_top:v <- [DW_OP_plus_uconst 56] [$sp+0]
	.loc	20 99 26                        @ ../GUILib/src/widgets/../core/lv_obj_style_gen.h:99:26
	mov	r0, r6
	mov.w	r1, #327680
	movw	r2, #6161
	bl	lv_obj_get_style_prop
.Ltmp86:
	str	r0, [sp, #52]                   @ 4-byte Spill
.Ltmp87:
	@DEBUG_VALUE: draw_main:cell_bottom <- [DW_OP_plus_uconst 52, DW_OP_deref_size 4, DW_OP_LLVM_convert 32 7, DW_OP_LLVM_convert 16 7, DW_OP_stack_value] $sp
	@DEBUG_VALUE: lv_obj_get_style_pad_bottom:v <- [DW_OP_plus_uconst 52] [$sp+0]
	.loc	12 614 21                       @ ../GUILib/src/widgets/lv_table.c:614:21
	ldrh	r0, [r6, #34]
	add.w	r9, sp, #300
	orr	r0, r0, #4
	.loc	12 612 33                       @ ../GUILib/src/widgets/lv_table.c:612:33
	ldrh	r7, [r6, #32]
.Ltmp88:
	@DEBUG_VALUE: draw_main:state_ori <- $r7
	.loc	12 614 21                       @ ../GUILib/src/widgets/lv_table.c:614:21
	strh	r0, [r6, #34]
	.loc	12 617 5                        @ ../GUILib/src/widgets/lv_table.c:617:5
	mov	r0, r9
	.loc	12 613 16                       @ ../GUILib/src/widgets/lv_table.c:613:16
	strh.w	r11, [r6, #32]
	.loc	12 617 5                        @ ../GUILib/src/widgets/lv_table.c:617:5
	bl	lv_draw_rect_dsc_init
.Ltmp89:
	.loc	12 618 5                        @ ../GUILib/src/widgets/lv_table.c:618:5
	mov	r0, r6
	mov.w	r1, #327680
	mov	r2, r9
	bl	lv_obj_init_draw_rect_dsc
.Ltmp90:
	.loc	12 0 5 is_stmt 0                @ ../GUILib/src/widgets/lv_table.c:0:5
	add.w	r9, sp, #216
	.loc	12 622 5 is_stmt 1              @ ../GUILib/src/widgets/lv_table.c:622:5
	mov	r0, r9
	bl	lv_draw_label_dsc_init
.Ltmp91:
	.loc	12 623 5                        @ ../GUILib/src/widgets/lv_table.c:623:5
	mov	r0, r6
	mov.w	r1, #327680
	mov	r2, r9
	bl	lv_obj_init_draw_label_dsc
.Ltmp92:
	.loc	12 625 21                       @ ../GUILib/src/widgets/lv_table.c:625:21
	ldrh	r0, [r6, #34]
	str	r7, [sp, #24]                   @ 4-byte Spill
.Ltmp93:
	@DEBUG_VALUE: draw_main:state_ori <- [DW_OP_plus_uconst 24] [$sp+0]
	bic	r0, r0, #4
	.loc	12 624 16                       @ ../GUILib/src/widgets/lv_table.c:624:16
	strh	r7, [r6, #32]
	.loc	12 631 32                       @ ../GUILib/src/widgets/lv_table.c:631:32
	ldrh	r7, [r6, #22]
	.loc	12 625 21                       @ ../GUILib/src/widgets/lv_table.c:625:21
	strh	r0, [r6, #34]
.Ltmp94:
	@DEBUG_VALUE: draw_main:cell <- 0
	.loc	12 631 50                       @ ../GUILib/src/widgets/lv_table.c:631:50
	mov	r0, r6
	bl	lv_obj_get_scroll_y
.Ltmp95:
	.loc	12 631 35 is_stmt 0             @ ../GUILib/src/widgets/lv_table.c:631:35
	add.w	r1, r10, r8
	.loc	12 631 48                       @ ../GUILib/src/widgets/lv_table.c:631:48
	mvns	r0, r0
	add	r1, r7
	.loc	12 631 75                       @ ../GUILib/src/widgets/lv_table.c:631:75
	add	r0, r1
	.loc	12 631 18                       @ ../GUILib/src/widgets/lv_table.c:631:18
	strh.w	r0, [sp, #366]
	.loc	12 632 27 is_stmt 1             @ ../GUILib/src/widgets/lv_table.c:632:27
	mov	r0, r6
	bl	lv_obj_get_scroll_x
.Ltmp96:
	mov	r9, r0
.Ltmp97:
	@DEBUG_VALUE: lv_obj_get_style_base_dir:part <- 0
	@DEBUG_VALUE: lv_obj_get_style_base_dir:obj <- [DW_OP_plus_uconst 92] [$sp+0]
	@DEBUG_VALUE: draw_main:scroll_x <- undef
	.loc	20 189 26                       @ ../GUILib/src/widgets/../core/lv_obj_style_gen.h:189:26
	mov	r0, r6
	movs	r1, #0
	movw	r2, #5226
	bl	lv_obj_get_style_prop
.Ltmp98:
	str	r0, [sp, #20]                   @ 4-byte Spill
.Ltmp99:
	@DEBUG_VALUE: draw_main:rtl <- [DW_OP_LLVM_convert 1 7, DW_OP_LLVM_convert 8 7, DW_OP_stack_value] undef
	@DEBUG_VALUE: lv_obj_get_style_base_dir:v <- [DW_OP_plus_uconst 20] [$sp+0]
	.loc	20 0 26 is_stmt 0               @ ../GUILib/src/widgets/../core/lv_obj_style_gen.h:0:26
	add	r0, sp, #112
	add	r1, sp, #372
.Ltmp100:
	.loc	12 637 5 is_stmt 1              @ ../GUILib/src/widgets/lv_table.c:637:5
	bl	lv_obj_draw_dsc_init
.Ltmp101:
	.loc	12 638 24                       @ ../GUILib/src/widgets/lv_table.c:638:24
	mov.w	r0, #327680
	str	r0, [sp, #164]
	add	r0, sp, #248
	.loc	12 641 28                       @ ../GUILib/src/widgets/lv_table.c:641:28
	str	r0, [sp, #128]
.Ltmp102:
	.loc	12 644 31                       @ ../GUILib/src/widgets/lv_table.c:644:31
	ldrh	r0, [r6, #38]
	add	r1, sp, #184
.Ltmp103:
	.loc	12 644 5 is_stmt 0              @ ../GUILib/src/widgets/lv_table.c:644:5
	cmp	r0, #0
.Ltmp104:
	.loc	12 639 27 is_stmt 1             @ ../GUILib/src/widgets/lv_table.c:639:27
	strd	r5, r11, [sp, #116]
	.loc	12 642 29                       @ ../GUILib/src/widgets/lv_table.c:642:29
	str	r1, [sp, #132]
.Ltmp105:
	@DEBUG_VALUE: draw_main:row <- 0
	.loc	12 0 29 is_stmt 0               @ ../GUILib/src/widgets/lv_table.c:0:29
	beq.w	.LBB2_90
.Ltmp106:
@ %bb.16:
	@DEBUG_VALUE: lv_obj_get_style_pad_top:v <- $r10
	@DEBUG_VALUE: draw_main:bg_top <- $r10
	@DEBUG_VALUE: lv_obj_get_style_border_width:v <- $r8
	@DEBUG_VALUE: draw_main:border_width <- $r8
	@DEBUG_VALUE: lv_obj_get_style_pad_left:v <- $r4
	@DEBUG_VALUE: draw_main:bg_left <- [DW_OP_LLVM_convert 32 7, DW_OP_LLVM_convert 16 7, DW_OP_stack_value] $r4
	@DEBUG_VALUE: lv_obj_get_style_base_dir:v <- [DW_OP_plus_uconst 20] [$sp+0]
	@DEBUG_VALUE: lv_obj_get_style_base_dir:obj <- [DW_OP_plus_uconst 92] [$sp+0]
	@DEBUG_VALUE: draw_main:state_ori <- [DW_OP_plus_uconst 24] [$sp+0]
	@DEBUG_VALUE: lv_obj_get_style_pad_bottom:v <- [DW_OP_plus_uconst 52] [$sp+0]
	@DEBUG_VALUE: draw_main:cell_bottom <- [DW_OP_plus_uconst 52, DW_OP_deref_size 4, DW_OP_LLVM_convert 32 7, DW_OP_LLVM_convert 16 7, DW_OP_stack_value] $sp
	@DEBUG_VALUE: lv_obj_get_style_pad_top:v <- [DW_OP_plus_uconst 56] [$sp+0]
	@DEBUG_VALUE: draw_main:cell_top <- [DW_OP_plus_uconst 56, DW_OP_deref_size 4, DW_OP_LLVM_convert 32 7, DW_OP_LLVM_convert 16 7, DW_OP_stack_value] $sp
	@DEBUG_VALUE: lv_obj_get_style_pad_bottom:obj <- [DW_OP_plus_uconst 92] [$sp+0]
	@DEBUG_VALUE: lv_obj_get_style_pad_right:v <- [DW_OP_plus_uconst 60] [$sp+0]
	@DEBUG_VALUE: draw_main:cell_right <- [DW_OP_plus_uconst 60, DW_OP_deref_size 4, DW_OP_LLVM_convert 32 7, DW_OP_LLVM_convert 16 7, DW_OP_stack_value] $sp
	@DEBUG_VALUE: lv_obj_get_style_pad_top:obj <- [DW_OP_plus_uconst 92] [$sp+0]
	@DEBUG_VALUE: lv_obj_get_style_pad_left:v <- [DW_OP_plus_uconst 64] [$sp+0]
	@DEBUG_VALUE: draw_main:cell_left <- [DW_OP_plus_uconst 64, DW_OP_deref_size 4, DW_OP_LLVM_convert 32 7, DW_OP_LLVM_convert 16 7, DW_OP_stack_value] $sp
	@DEBUG_VALUE: lv_obj_get_style_pad_right:obj <- [DW_OP_plus_uconst 92] [$sp+0]
	@DEBUG_VALUE: lv_obj_get_style_pad_right:v <- [DW_OP_plus_uconst 84] [$sp+0]
	@DEBUG_VALUE: draw_main:bg_right <- [DW_OP_plus_uconst 84, DW_OP_deref_size 4, DW_OP_LLVM_convert 32 7, DW_OP_LLVM_convert 16 7, DW_OP_stack_value] $sp
	@DEBUG_VALUE: lv_obj_get_style_pad_left:obj <- [DW_OP_plus_uconst 92] [$sp+0]
	@DEBUG_VALUE: lv_obj_get_style_pad_right:obj <- [DW_OP_plus_uconst 92] [$sp+0]
	@DEBUG_VALUE: lv_obj_get_style_pad_bottom:v <- [DW_OP_plus_uconst 88] [$sp+0]
	@DEBUG_VALUE: draw_main:bg_bottom <- [DW_OP_plus_uconst 88, DW_OP_deref_size 4, DW_OP_LLVM_convert 32 7, DW_OP_LLVM_convert 16 7, DW_OP_stack_value] $sp
	@DEBUG_VALUE: lv_obj_get_style_pad_left:obj <- [DW_OP_plus_uconst 92] [$sp+0]
	@DEBUG_VALUE: lv_obj_get_style_pad_bottom:obj <- [DW_OP_plus_uconst 92] [$sp+0]
	@DEBUG_VALUE: lv_obj_get_style_pad_top:obj <- [DW_OP_plus_uconst 92] [$sp+0]
	@DEBUG_VALUE: lv_obj_get_style_border_width:obj <- [DW_OP_plus_uconst 92] [$sp+0]
	@DEBUG_VALUE: draw_main:obj <- [DW_OP_plus_uconst 92] [$sp+0]
	@DEBUG_VALUE: draw_main:table <- [DW_OP_plus_uconst 92] [$sp+0]
	@DEBUG_VALUE: draw_main:row <- 0
	@DEBUG_VALUE: lv_obj_get_style_base_dir:part <- 0
	@DEBUG_VALUE: draw_main:cell <- 0
	@DEBUG_VALUE: lv_obj_get_style_pad_bottom:part <- 327680
	@DEBUG_VALUE: lv_obj_get_style_pad_top:part <- 327680
	@DEBUG_VALUE: lv_obj_get_style_pad_right:part <- 327680
	@DEBUG_VALUE: lv_obj_get_style_pad_left:part <- 327680
	@DEBUG_VALUE: lv_obj_get_style_pad_right:part <- 0
	@DEBUG_VALUE: lv_obj_get_style_pad_left:part <- 0
	@DEBUG_VALUE: lv_obj_get_style_pad_bottom:part <- 0
	@DEBUG_VALUE: lv_obj_get_style_pad_top:part <- 0
	@DEBUG_VALUE: lv_obj_get_style_border_width:part <- 0
	@DEBUG_VALUE: lv_table_event:e <- [DW_OP_LLVM_entry_value 1] $r1
	@DEBUG_VALUE: lv_table_event:class_p <- [DW_OP_LLVM_entry_value 1] $r0
	sxth.w	r1, r10
.Ltmp107:
	@DEBUG_VALUE: draw_main:bg_right <- [DW_OP_plus_uconst 84] [$sp+0]
	@DEBUG_VALUE: draw_main:bg_left <- $r4
	str	r1, [sp, #44]                   @ 4-byte Spill
	mvn.w	r1, r9
	add.w	r2, r4, r8
	add	r1, r2
	str	r1, [sp, #16]                   @ 4-byte Spill
	ldr	r1, [sp, #84]                   @ 4-byte Reload
.Ltmp108:
	@DEBUG_VALUE: draw_main:bg_right <- $r1
	movs	r6, #0
	mvns	r1, r1
.Ltmp109:
	sub.w	r2, r1, r8
	sub.w	r2, r2, r9
	str	r2, [sp, #12]                   @ 4-byte Spill
	sxth	r2, r4
	sxth	r1, r1
	str	r2, [sp, #40]                   @ 4-byte Spill
	str	r1, [sp, #36]                   @ 4-byte Spill
	ldr	r1, [sp, #88]                   @ 4-byte Reload
	mov.w	lr, #0
	mvns	r1, r1
	sxth	r1, r1
	str	r1, [sp, #32]                   @ 4-byte Spill
.Ltmp110:
	.p2align	2
.LBB2_17:                               @ =>This Loop Header: Depth=1
                                        @     Child Loop BB2_23 Depth 2
                                        @       Child Loop BB2_28 Depth 3
	@DEBUG_VALUE: draw_main:state_ori <- [DW_OP_plus_uconst 24] [$sp+0]
	@DEBUG_VALUE: draw_main:cell_bottom <- [DW_OP_plus_uconst 52, DW_OP_deref_size 4, DW_OP_LLVM_convert 32 7, DW_OP_LLVM_convert 16 7, DW_OP_stack_value] $sp
	@DEBUG_VALUE: draw_main:cell_top <- [DW_OP_plus_uconst 56, DW_OP_deref_size 4, DW_OP_LLVM_convert 32 7, DW_OP_LLVM_convert 16 7, DW_OP_stack_value] $sp
	@DEBUG_VALUE: draw_main:cell_right <- [DW_OP_plus_uconst 60, DW_OP_deref_size 4, DW_OP_LLVM_convert 32 7, DW_OP_LLVM_convert 16 7, DW_OP_stack_value] $sp
	@DEBUG_VALUE: draw_main:cell_left <- [DW_OP_plus_uconst 64, DW_OP_deref_size 4, DW_OP_LLVM_convert 32 7, DW_OP_LLVM_convert 16 7, DW_OP_stack_value] $sp
	@DEBUG_VALUE: draw_main:bg_bottom <- [DW_OP_plus_uconst 88, DW_OP_deref_size 4, DW_OP_LLVM_convert 32 7, DW_OP_LLVM_convert 16 7, DW_OP_stack_value] $sp
	@DEBUG_VALUE: draw_main:obj <- [DW_OP_plus_uconst 92] [$sp+0]
	@DEBUG_VALUE: draw_main:table <- [DW_OP_plus_uconst 92] [$sp+0]
	@DEBUG_VALUE: lv_table_event:e <- [DW_OP_LLVM_entry_value 1] $r1
	@DEBUG_VALUE: lv_table_event:class_p <- [DW_OP_LLVM_entry_value 1] $r0
	@DEBUG_VALUE: draw_main:cell <- $lr
	@DEBUG_VALUE: draw_main:row <- $r6
	.loc	12 645 35 is_stmt 1             @ ../GUILib/src/widgets/lv_table.c:645:35
	ldr	r1, [sp, #92]                   @ 4-byte Reload
	.loc	12 647 34                       @ ../GUILib/src/widgets/lv_table.c:647:34
	ldrh.w	r2, [sp, #366]
	.loc	12 645 35                       @ ../GUILib/src/widgets/lv_table.c:645:35
	ldr	r1, [r1, #44]
	.loc	12 647 37                       @ ../GUILib/src/widgets/lv_table.c:647:37
	adds	r3, r2, #1
	.loc	12 645 28                       @ ../GUILib/src/widgets/lv_table.c:645:28
	ldrh.w	r1, [r1, r6, lsl #1]
.Ltmp111:
	@DEBUG_VALUE: h_row <- $r1
	.loc	12 647 37                       @ ../GUILib/src/widgets/lv_table.c:647:37
	sxth	r7, r3
	.loc	12 647 22 is_stmt 0             @ ../GUILib/src/widgets/lv_table.c:647:22
	strh.w	r3, [sp, #362]
.Ltmp112:
	.loc	12 650 37 is_stmt 1             @ ../GUILib/src/widgets/lv_table.c:650:37
	ldrsh.w	r3, [sp, #378]
.Ltmp113:
	.loc	12 648 45                       @ ../GUILib/src/widgets/lv_table.c:648:45
	add	r2, r1
	.loc	12 650 12                       @ ../GUILib/src/widgets/lv_table.c:650:12
	cmp	r7, r3
	.loc	12 648 22                       @ ../GUILib/src/widgets/lv_table.c:648:22
	strh.w	r2, [sp, #366]
	.loc	12 650 12                       @ ../GUILib/src/widgets/lv_table.c:650:12
	bgt.w	.LBB2_90
.Ltmp114:
@ %bb.18:                               @   in Loop: Header=BB2_17 Depth=1
	@DEBUG_VALUE: draw_main:row <- $r6
	@DEBUG_VALUE: h_row <- $r1
	@DEBUG_VALUE: draw_main:state_ori <- [DW_OP_plus_uconst 24] [$sp+0]
	@DEBUG_VALUE: draw_main:cell_bottom <- [DW_OP_plus_uconst 52, DW_OP_deref_size 4, DW_OP_LLVM_convert 32 7, DW_OP_LLVM_convert 16 7, DW_OP_stack_value] $sp
	@DEBUG_VALUE: draw_main:cell_top <- [DW_OP_plus_uconst 56, DW_OP_deref_size 4, DW_OP_LLVM_convert 32 7, DW_OP_LLVM_convert 16 7, DW_OP_stack_value] $sp
	@DEBUG_VALUE: draw_main:cell_right <- [DW_OP_plus_uconst 60, DW_OP_deref_size 4, DW_OP_LLVM_convert 32 7, DW_OP_LLVM_convert 16 7, DW_OP_stack_value] $sp
	@DEBUG_VALUE: draw_main:cell_left <- [DW_OP_plus_uconst 64, DW_OP_deref_size 4, DW_OP_LLVM_convert 32 7, DW_OP_LLVM_convert 16 7, DW_OP_stack_value] $sp
	@DEBUG_VALUE: draw_main:bg_bottom <- [DW_OP_plus_uconst 88, DW_OP_deref_size 4, DW_OP_LLVM_convert 32 7, DW_OP_LLVM_convert 16 7, DW_OP_stack_value] $sp
	@DEBUG_VALUE: draw_main:obj <- [DW_OP_plus_uconst 92] [$sp+0]
	@DEBUG_VALUE: draw_main:table <- [DW_OP_plus_uconst 92] [$sp+0]
	@DEBUG_VALUE: draw_main:cell <- $lr
	@DEBUG_VALUE: lv_table_event:e <- [DW_OP_LLVM_entry_value 1] $r1
	@DEBUG_VALUE: lv_table_event:class_p <- [DW_OP_LLVM_entry_value 1] $r0
	.loc	20 190 12                       @ ../GUILib/src/widgets/../core/lv_obj_style_gen.h:190:12
	ldr	r2, [sp, #20]                   @ 4-byte Reload
	uxtb	r2, r2
.Ltmp115:
	.loc	12 652 12                       @ ../GUILib/src/widgets/lv_table.c:652:12
	cmp	r2, #1
	str	r2, [sp, #84]                   @ 4-byte Spill
	bne	.LBB2_20
.Ltmp116:
@ %bb.19:                               @   in Loop: Header=BB2_17 Depth=1
	@DEBUG_VALUE: draw_main:row <- $r6
	@DEBUG_VALUE: h_row <- $r1
	@DEBUG_VALUE: draw_main:state_ori <- [DW_OP_plus_uconst 24] [$sp+0]
	@DEBUG_VALUE: draw_main:cell_bottom <- [DW_OP_plus_uconst 52, DW_OP_deref_size 4, DW_OP_LLVM_convert 32 7, DW_OP_LLVM_convert 16 7, DW_OP_stack_value] $sp
	@DEBUG_VALUE: draw_main:cell_top <- [DW_OP_plus_uconst 56, DW_OP_deref_size 4, DW_OP_LLVM_convert 32 7, DW_OP_LLVM_convert 16 7, DW_OP_stack_value] $sp
	@DEBUG_VALUE: draw_main:cell_right <- [DW_OP_plus_uconst 60, DW_OP_deref_size 4, DW_OP_LLVM_convert 32 7, DW_OP_LLVM_convert 16 7, DW_OP_stack_value] $sp
	@DEBUG_VALUE: draw_main:cell_left <- [DW_OP_plus_uconst 64, DW_OP_deref_size 4, DW_OP_LLVM_convert 32 7, DW_OP_LLVM_convert 16 7, DW_OP_stack_value] $sp
	@DEBUG_VALUE: draw_main:bg_bottom <- [DW_OP_plus_uconst 88, DW_OP_deref_size 4, DW_OP_LLVM_convert 32 7, DW_OP_LLVM_convert 16 7, DW_OP_stack_value] $sp
	@DEBUG_VALUE: draw_main:obj <- [DW_OP_plus_uconst 92] [$sp+0]
	@DEBUG_VALUE: draw_main:table <- [DW_OP_plus_uconst 92] [$sp+0]
	@DEBUG_VALUE: draw_main:cell <- $lr
	@DEBUG_VALUE: lv_table_event:e <- [DW_OP_LLVM_entry_value 1] $r1
	@DEBUG_VALUE: lv_table_event:class_p <- [DW_OP_LLVM_entry_value 1] $r0
	.loc	12 652 44 is_stmt 0             @ ../GUILib/src/widgets/lv_table.c:652:44
	ldr	r2, [sp, #92]                   @ 4-byte Reload
	.loc	12 652 73                       @ ../GUILib/src/widgets/lv_table.c:652:73
	ldr	r3, [sp, #12]                   @ 4-byte Reload
	.loc	12 652 44                       @ ../GUILib/src/widgets/lv_table.c:652:44
	ldrh	r2, [r2, #24]
	.loc	12 652 73                       @ ../GUILib/src/widgets/lv_table.c:652:73
	add	r2, r3
	.loc	12 652 30                       @ ../GUILib/src/widgets/lv_table.c:652:30
	strh.w	r2, [sp, #360]
	b	.LBB2_21
.Ltmp117:
.LBB2_20:                               @   in Loop: Header=BB2_17 Depth=1
	@DEBUG_VALUE: draw_main:row <- $r6
	@DEBUG_VALUE: h_row <- $r1
	@DEBUG_VALUE: draw_main:state_ori <- [DW_OP_plus_uconst 24] [$sp+0]
	@DEBUG_VALUE: draw_main:cell_bottom <- [DW_OP_plus_uconst 52, DW_OP_deref_size 4, DW_OP_LLVM_convert 32 7, DW_OP_LLVM_convert 16 7, DW_OP_stack_value] $sp
	@DEBUG_VALUE: draw_main:cell_top <- [DW_OP_plus_uconst 56, DW_OP_deref_size 4, DW_OP_LLVM_convert 32 7, DW_OP_LLVM_convert 16 7, DW_OP_stack_value] $sp
	@DEBUG_VALUE: draw_main:cell_right <- [DW_OP_plus_uconst 60, DW_OP_deref_size 4, DW_OP_LLVM_convert 32 7, DW_OP_LLVM_convert 16 7, DW_OP_stack_value] $sp
	@DEBUG_VALUE: draw_main:cell_left <- [DW_OP_plus_uconst 64, DW_OP_deref_size 4, DW_OP_LLVM_convert 32 7, DW_OP_LLVM_convert 16 7, DW_OP_stack_value] $sp
	@DEBUG_VALUE: draw_main:bg_bottom <- [DW_OP_plus_uconst 88, DW_OP_deref_size 4, DW_OP_LLVM_convert 32 7, DW_OP_LLVM_convert 16 7, DW_OP_stack_value] $sp
	@DEBUG_VALUE: draw_main:obj <- [DW_OP_plus_uconst 92] [$sp+0]
	@DEBUG_VALUE: draw_main:table <- [DW_OP_plus_uconst 92] [$sp+0]
	@DEBUG_VALUE: draw_main:cell <- $lr
	@DEBUG_VALUE: lv_table_event:e <- [DW_OP_LLVM_entry_value 1] $r1
	@DEBUG_VALUE: lv_table_event:class_p <- [DW_OP_LLVM_entry_value 1] $r0
	.loc	12 653 41 is_stmt 1             @ ../GUILib/src/widgets/lv_table.c:653:41
	ldr	r2, [sp, #48]                   @ 4-byte Reload
	.loc	12 653 69 is_stmt 0             @ ../GUILib/src/widgets/lv_table.c:653:69
	ldr	r3, [sp, #16]                   @ 4-byte Reload
	.loc	12 653 41                       @ ../GUILib/src/widgets/lv_table.c:653:41
	ldrh	r2, [r2]
	.loc	12 653 69                       @ ../GUILib/src/widgets/lv_table.c:653:69
	add	r2, r3
	.loc	12 653 27                       @ ../GUILib/src/widgets/lv_table.c:653:27
	strh.w	r2, [sp, #364]
.Ltmp118:
.LBB2_21:                               @   in Loop: Header=BB2_17 Depth=1
	@DEBUG_VALUE: draw_main:row <- $r6
	@DEBUG_VALUE: h_row <- $r1
	@DEBUG_VALUE: draw_main:state_ori <- [DW_OP_plus_uconst 24] [$sp+0]
	@DEBUG_VALUE: draw_main:cell_bottom <- [DW_OP_plus_uconst 52, DW_OP_deref_size 4, DW_OP_LLVM_convert 32 7, DW_OP_LLVM_convert 16 7, DW_OP_stack_value] $sp
	@DEBUG_VALUE: draw_main:cell_top <- [DW_OP_plus_uconst 56, DW_OP_deref_size 4, DW_OP_LLVM_convert 32 7, DW_OP_LLVM_convert 16 7, DW_OP_stack_value] $sp
	@DEBUG_VALUE: draw_main:cell_right <- [DW_OP_plus_uconst 60, DW_OP_deref_size 4, DW_OP_LLVM_convert 32 7, DW_OP_LLVM_convert 16 7, DW_OP_stack_value] $sp
	@DEBUG_VALUE: draw_main:cell_left <- [DW_OP_plus_uconst 64, DW_OP_deref_size 4, DW_OP_LLVM_convert 32 7, DW_OP_LLVM_convert 16 7, DW_OP_stack_value] $sp
	@DEBUG_VALUE: draw_main:bg_bottom <- [DW_OP_plus_uconst 88, DW_OP_deref_size 4, DW_OP_LLVM_convert 32 7, DW_OP_LLVM_convert 16 7, DW_OP_stack_value] $sp
	@DEBUG_VALUE: draw_main:obj <- [DW_OP_plus_uconst 92] [$sp+0]
	@DEBUG_VALUE: draw_main:table <- [DW_OP_plus_uconst 92] [$sp+0]
	@DEBUG_VALUE: draw_main:cell <- $lr
	@DEBUG_VALUE: lv_table_event:e <- [DW_OP_LLVM_entry_value 1] $r1
	@DEBUG_VALUE: lv_table_event:class_p <- [DW_OP_LLVM_entry_value 1] $r0
	@DEBUG_VALUE: draw_main:cell <- $lr
	@DEBUG_VALUE: draw_main:col <- 0
	.loc	12 655 35 is_stmt 1             @ ../GUILib/src/widgets/lv_table.c:655:35
	ldr	r2, [sp, #92]                   @ 4-byte Reload
	ldrh.w	r12, [r2, #36]
.Ltmp119:
	.loc	12 655 9 is_stmt 0              @ ../GUILib/src/widgets/lv_table.c:655:9
	cmp.w	r12, #0
	beq.w	.LBB2_61
.Ltmp120:
@ %bb.22:                               @   in Loop: Header=BB2_17 Depth=1
	@DEBUG_VALUE: draw_main:row <- $r6
	@DEBUG_VALUE: h_row <- $r1
	@DEBUG_VALUE: draw_main:state_ori <- [DW_OP_plus_uconst 24] [$sp+0]
	@DEBUG_VALUE: draw_main:cell_bottom <- [DW_OP_plus_uconst 52, DW_OP_deref_size 4, DW_OP_LLVM_convert 32 7, DW_OP_LLVM_convert 16 7, DW_OP_stack_value] $sp
	@DEBUG_VALUE: draw_main:cell_top <- [DW_OP_plus_uconst 56, DW_OP_deref_size 4, DW_OP_LLVM_convert 32 7, DW_OP_LLVM_convert 16 7, DW_OP_stack_value] $sp
	@DEBUG_VALUE: draw_main:cell_right <- [DW_OP_plus_uconst 60, DW_OP_deref_size 4, DW_OP_LLVM_convert 32 7, DW_OP_LLVM_convert 16 7, DW_OP_stack_value] $sp
	@DEBUG_VALUE: draw_main:cell_left <- [DW_OP_plus_uconst 64, DW_OP_deref_size 4, DW_OP_LLVM_convert 32 7, DW_OP_LLVM_convert 16 7, DW_OP_stack_value] $sp
	@DEBUG_VALUE: draw_main:bg_bottom <- [DW_OP_plus_uconst 88, DW_OP_deref_size 4, DW_OP_LLVM_convert 32 7, DW_OP_LLVM_convert 16 7, DW_OP_stack_value] $sp
	@DEBUG_VALUE: draw_main:obj <- [DW_OP_plus_uconst 92] [$sp+0]
	@DEBUG_VALUE: draw_main:table <- [DW_OP_plus_uconst 92] [$sp+0]
	@DEBUG_VALUE: draw_main:cell <- $lr
	@DEBUG_VALUE: draw_main:col <- 0
	@DEBUG_VALUE: lv_table_event:e <- [DW_OP_LLVM_entry_value 1] $r1
	@DEBUG_VALUE: lv_table_event:class_p <- [DW_OP_LLVM_entry_value 1] $r0
	.loc	12 0 9                          @ ../GUILib/src/widgets/lv_table.c:0:9
	add.w	r0, r1, r1, lsr #15
	sxth	r0, r0
	str	r6, [sp, #68]                   @ 4-byte Spill
.Ltmp121:
	@DEBUG_VALUE: draw_main:row <- [DW_OP_plus_uconst 68] [$sp+0]
	@DEBUG_VALUE: draw_main:row <- [DW_OP_plus_uconst 68] [$sp+0]
	asrs	r0, r0, #1
	movs	r5, #0
	movs	r6, #0
	str	r0, [sp, #28]                   @ 4-byte Spill
.Ltmp122:
	.p2align	2
.LBB2_23:                               @   Parent Loop BB2_17 Depth=1
                                        @ =>  This Loop Header: Depth=2
                                        @       Child Loop BB2_28 Depth 3
	@DEBUG_VALUE: draw_main:state_ori <- [DW_OP_plus_uconst 24] [$sp+0]
	@DEBUG_VALUE: draw_main:cell_bottom <- [DW_OP_plus_uconst 52, DW_OP_deref_size 4, DW_OP_LLVM_convert 32 7, DW_OP_LLVM_convert 16 7, DW_OP_stack_value] $sp
	@DEBUG_VALUE: draw_main:cell_top <- [DW_OP_plus_uconst 56, DW_OP_deref_size 4, DW_OP_LLVM_convert 32 7, DW_OP_LLVM_convert 16 7, DW_OP_stack_value] $sp
	@DEBUG_VALUE: draw_main:cell_right <- [DW_OP_plus_uconst 60, DW_OP_deref_size 4, DW_OP_LLVM_convert 32 7, DW_OP_LLVM_convert 16 7, DW_OP_stack_value] $sp
	@DEBUG_VALUE: draw_main:cell_left <- [DW_OP_plus_uconst 64, DW_OP_deref_size 4, DW_OP_LLVM_convert 32 7, DW_OP_LLVM_convert 16 7, DW_OP_stack_value] $sp
	@DEBUG_VALUE: draw_main:bg_bottom <- [DW_OP_plus_uconst 88, DW_OP_deref_size 4, DW_OP_LLVM_convert 32 7, DW_OP_LLVM_convert 16 7, DW_OP_stack_value] $sp
	@DEBUG_VALUE: draw_main:obj <- [DW_OP_plus_uconst 92] [$sp+0]
	@DEBUG_VALUE: draw_main:table <- [DW_OP_plus_uconst 92] [$sp+0]
	@DEBUG_VALUE: draw_main:cell <- $lr
	@DEBUG_VALUE: lv_table_event:e <- [DW_OP_LLVM_entry_value 1] $r1
	@DEBUG_VALUE: lv_table_event:class_p <- [DW_OP_LLVM_entry_value 1] $r0
	@DEBUG_VALUE: draw_main:cell <- $lr
	@DEBUG_VALUE: draw_main:col <- $r6
	@DEBUG_VALUE: ctrl <- 0
	.loc	12 657 23 is_stmt 1             @ ../GUILib/src/widgets/lv_table.c:657:23
	ldr	r0, [sp, #92]                   @ 4-byte Reload
	ldr.w	r11, [r0, #40]
	.loc	12 657 16 is_stmt 0             @ ../GUILib/src/widgets/lv_table.c:657:16
	uxth.w	r0, lr
	str	r0, [sp, #88]                   @ 4-byte Spill
	ldr.w	r0, [r11, r0, lsl #2]
.Ltmp123:
	.loc	12 657 16                       @ ../GUILib/src/widgets/lv_table.c:657:16
	cmp	r0, #0
.Ltmp124:
	.loc	12 657 47                       @ ../GUILib/src/widgets/lv_table.c:657:47
	ite	ne
	ldrbne.w	r8, [r0]
	moveq.w	r8, #0
.Ltmp125:
	@DEBUG_VALUE: ctrl <- $r8
	.loc	12 659 16 is_stmt 1             @ ../GUILib/src/widgets/lv_table.c:659:16
	ldr	r1, [sp, #84]                   @ 4-byte Reload
	cmp	r1, #1
	bne	.LBB2_25
.Ltmp126:
@ %bb.24:                               @   in Loop: Header=BB2_23 Depth=2
	@DEBUG_VALUE: ctrl <- $r8
	@DEBUG_VALUE: draw_main:col <- $r6
	@DEBUG_VALUE: draw_main:state_ori <- [DW_OP_plus_uconst 24] [$sp+0]
	@DEBUG_VALUE: draw_main:cell_bottom <- [DW_OP_plus_uconst 52, DW_OP_deref_size 4, DW_OP_LLVM_convert 32 7, DW_OP_LLVM_convert 16 7, DW_OP_stack_value] $sp
	@DEBUG_VALUE: draw_main:cell_top <- [DW_OP_plus_uconst 56, DW_OP_deref_size 4, DW_OP_LLVM_convert 32 7, DW_OP_LLVM_convert 16 7, DW_OP_stack_value] $sp
	@DEBUG_VALUE: draw_main:cell_right <- [DW_OP_plus_uconst 60, DW_OP_deref_size 4, DW_OP_LLVM_convert 32 7, DW_OP_LLVM_convert 16 7, DW_OP_stack_value] $sp
	@DEBUG_VALUE: draw_main:cell_left <- [DW_OP_plus_uconst 64, DW_OP_deref_size 4, DW_OP_LLVM_convert 32 7, DW_OP_LLVM_convert 16 7, DW_OP_stack_value] $sp
	@DEBUG_VALUE: draw_main:bg_bottom <- [DW_OP_plus_uconst 88, DW_OP_deref_size 4, DW_OP_LLVM_convert 32 7, DW_OP_LLVM_convert 16 7, DW_OP_stack_value] $sp
	@DEBUG_VALUE: draw_main:obj <- [DW_OP_plus_uconst 92] [$sp+0]
	@DEBUG_VALUE: draw_main:table <- [DW_OP_plus_uconst 92] [$sp+0]
	@DEBUG_VALUE: draw_main:cell <- $lr
	@DEBUG_VALUE: lv_table_event:e <- [DW_OP_LLVM_entry_value 1] $r1
	@DEBUG_VALUE: lv_table_event:class_p <- [DW_OP_LLVM_entry_value 1] $r0
	.loc	12 660 42                       @ ../GUILib/src/widgets/lv_table.c:660:42
	ldrh.w	r3, [sp, #360]
	.loc	12 661 54                       @ ../GUILib/src/widgets/lv_table.c:661:54
	ldr	r1, [sp, #92]                   @ 4-byte Reload
	.loc	12 660 45                       @ ../GUILib/src/widgets/lv_table.c:660:45
	subs	r2, r3, #1
	.loc	12 661 54                       @ ../GUILib/src/widgets/lv_table.c:661:54
	ldr	r1, [r1, #48]
	.loc	12 660 30                       @ ../GUILib/src/widgets/lv_table.c:660:30
	strh.w	r2, [sp, #364]
	.loc	12 661 47                       @ ../GUILib/src/widgets/lv_table.c:661:47
	ldrh.w	r7, [r1, r5, lsl #1]
	mov	r4, r5
	.loc	12 661 65 is_stmt 0             @ ../GUILib/src/widgets/lv_table.c:661:65
	subs	r3, r3, r7
	.loc	12 661 30                       @ ../GUILib/src/widgets/lv_table.c:661:30
	strh.w	r3, [sp, #360]
	b	.LBB2_26
.Ltmp127:
	.p2align	2
.LBB2_25:                               @   in Loop: Header=BB2_23 Depth=2
	@DEBUG_VALUE: ctrl <- $r8
	@DEBUG_VALUE: draw_main:col <- $r6
	@DEBUG_VALUE: draw_main:state_ori <- [DW_OP_plus_uconst 24] [$sp+0]
	@DEBUG_VALUE: draw_main:cell_bottom <- [DW_OP_plus_uconst 52, DW_OP_deref_size 4, DW_OP_LLVM_convert 32 7, DW_OP_LLVM_convert 16 7, DW_OP_stack_value] $sp
	@DEBUG_VALUE: draw_main:cell_top <- [DW_OP_plus_uconst 56, DW_OP_deref_size 4, DW_OP_LLVM_convert 32 7, DW_OP_LLVM_convert 16 7, DW_OP_stack_value] $sp
	@DEBUG_VALUE: draw_main:cell_right <- [DW_OP_plus_uconst 60, DW_OP_deref_size 4, DW_OP_LLVM_convert 32 7, DW_OP_LLVM_convert 16 7, DW_OP_stack_value] $sp
	@DEBUG_VALUE: draw_main:cell_left <- [DW_OP_plus_uconst 64, DW_OP_deref_size 4, DW_OP_LLVM_convert 32 7, DW_OP_LLVM_convert 16 7, DW_OP_stack_value] $sp
	@DEBUG_VALUE: draw_main:bg_bottom <- [DW_OP_plus_uconst 88, DW_OP_deref_size 4, DW_OP_LLVM_convert 32 7, DW_OP_LLVM_convert 16 7, DW_OP_stack_value] $sp
	@DEBUG_VALUE: draw_main:obj <- [DW_OP_plus_uconst 92] [$sp+0]
	@DEBUG_VALUE: draw_main:table <- [DW_OP_plus_uconst 92] [$sp+0]
	@DEBUG_VALUE: draw_main:cell <- $lr
	@DEBUG_VALUE: lv_table_event:e <- [DW_OP_LLVM_entry_value 1] $r1
	@DEBUG_VALUE: lv_table_event:class_p <- [DW_OP_LLVM_entry_value 1] $r0
	.loc	12 664 42 is_stmt 1             @ ../GUILib/src/widgets/lv_table.c:664:42
	ldrh.w	r2, [sp, #364]
	.loc	12 665 54                       @ ../GUILib/src/widgets/lv_table.c:665:54
	ldr	r1, [sp, #92]                   @ 4-byte Reload
	.loc	12 664 45                       @ ../GUILib/src/widgets/lv_table.c:664:45
	adds	r3, r2, #1
	.loc	12 665 54                       @ ../GUILib/src/widgets/lv_table.c:665:54
	ldr	r1, [r1, #48]
	.loc	12 664 30                       @ ../GUILib/src/widgets/lv_table.c:664:30
	strh.w	r3, [sp, #360]
	.loc	12 665 47                       @ ../GUILib/src/widgets/lv_table.c:665:47
	ldrh.w	r7, [r1, r5, lsl #1]
	mov	r4, r5
	.loc	12 665 65 is_stmt 0             @ ../GUILib/src/widgets/lv_table.c:665:65
	add	r2, r7
	.loc	12 665 30                       @ ../GUILib/src/widgets/lv_table.c:665:30
	strh.w	r2, [sp, #364]
.Ltmp128:
.LBB2_26:                               @   in Loop: Header=BB2_23 Depth=2
	@DEBUG_VALUE: ctrl <- $r8
	@DEBUG_VALUE: draw_main:col <- $r6
	@DEBUG_VALUE: draw_main:state_ori <- [DW_OP_plus_uconst 24] [$sp+0]
	@DEBUG_VALUE: draw_main:cell_bottom <- [DW_OP_plus_uconst 52, DW_OP_deref_size 4, DW_OP_LLVM_convert 32 7, DW_OP_LLVM_convert 16 7, DW_OP_stack_value] $sp
	@DEBUG_VALUE: draw_main:cell_top <- [DW_OP_plus_uconst 56, DW_OP_deref_size 4, DW_OP_LLVM_convert 32 7, DW_OP_LLVM_convert 16 7, DW_OP_stack_value] $sp
	@DEBUG_VALUE: draw_main:cell_right <- [DW_OP_plus_uconst 60, DW_OP_deref_size 4, DW_OP_LLVM_convert 32 7, DW_OP_LLVM_convert 16 7, DW_OP_stack_value] $sp
	@DEBUG_VALUE: draw_main:cell_left <- [DW_OP_plus_uconst 64, DW_OP_deref_size 4, DW_OP_LLVM_convert 32 7, DW_OP_LLVM_convert 16 7, DW_OP_stack_value] $sp
	@DEBUG_VALUE: draw_main:bg_bottom <- [DW_OP_plus_uconst 88, DW_OP_deref_size 4, DW_OP_LLVM_convert 32 7, DW_OP_LLVM_convert 16 7, DW_OP_stack_value] $sp
	@DEBUG_VALUE: draw_main:obj <- [DW_OP_plus_uconst 92] [$sp+0]
	@DEBUG_VALUE: draw_main:table <- [DW_OP_plus_uconst 92] [$sp+0]
	@DEBUG_VALUE: draw_main:cell <- $lr
	@DEBUG_VALUE: lv_table_event:e <- [DW_OP_LLVM_entry_value 1] $r1
	@DEBUG_VALUE: lv_table_event:class_p <- [DW_OP_LLVM_entry_value 1] $r0
	@DEBUG_VALUE: ctrl <- $r8
	@DEBUG_VALUE: col_merge <- 0
	.loc	12 669 65 is_stmt 1             @ ../GUILib/src/widgets/lv_table.c:669:65
	sub.w	r10, r12, #1
.Ltmp129:
	.loc	12 669 13 is_stmt 0             @ ../GUILib/src/widgets/lv_table.c:669:13
	cmp	r4, r10
	mov.w	r9, #0
	str	r6, [sp, #80]                   @ 4-byte Spill
.Ltmp130:
	@DEBUG_VALUE: draw_main:col <- [DW_OP_plus_uconst 80] [$sp+0]
	@DEBUG_VALUE: draw_main:col <- [DW_OP_plus_uconst 80] [$sp+0]
	@DEBUG_VALUE: ctrl <- $r8
	@DEBUG_VALUE: col_merge <- 0
	bge	.LBB2_31
.Ltmp131:
@ %bb.27:                               @   in Loop: Header=BB2_23 Depth=2
	@DEBUG_VALUE: draw_main:col <- [DW_OP_plus_uconst 80] [$sp+0]
	@DEBUG_VALUE: ctrl <- $r8
	@DEBUG_VALUE: draw_main:state_ori <- [DW_OP_plus_uconst 24] [$sp+0]
	@DEBUG_VALUE: draw_main:cell_bottom <- [DW_OP_plus_uconst 52, DW_OP_deref_size 4, DW_OP_LLVM_convert 32 7, DW_OP_LLVM_convert 16 7, DW_OP_stack_value] $sp
	@DEBUG_VALUE: draw_main:cell_top <- [DW_OP_plus_uconst 56, DW_OP_deref_size 4, DW_OP_LLVM_convert 32 7, DW_OP_LLVM_convert 16 7, DW_OP_stack_value] $sp
	@DEBUG_VALUE: draw_main:cell_right <- [DW_OP_plus_uconst 60, DW_OP_deref_size 4, DW_OP_LLVM_convert 32 7, DW_OP_LLVM_convert 16 7, DW_OP_stack_value] $sp
	@DEBUG_VALUE: draw_main:cell_left <- [DW_OP_plus_uconst 64, DW_OP_deref_size 4, DW_OP_LLVM_convert 32 7, DW_OP_LLVM_convert 16 7, DW_OP_stack_value] $sp
	@DEBUG_VALUE: draw_main:bg_bottom <- [DW_OP_plus_uconst 88, DW_OP_deref_size 4, DW_OP_LLVM_convert 32 7, DW_OP_LLVM_convert 16 7, DW_OP_stack_value] $sp
	@DEBUG_VALUE: draw_main:obj <- [DW_OP_plus_uconst 92] [$sp+0]
	@DEBUG_VALUE: draw_main:table <- [DW_OP_plus_uconst 92] [$sp+0]
	@DEBUG_VALUE: draw_main:cell <- $lr
	@DEBUG_VALUE: col_merge <- 0
	@DEBUG_VALUE: lv_table_event:e <- [DW_OP_LLVM_entry_value 1] $r1
	@DEBUG_VALUE: lv_table_event:class_p <- [DW_OP_LLVM_entry_value 1] $r0
	.loc	12 0 13                         @ ../GUILib/src/widgets/lv_table.c:0:13
	mov	r4, r5
	mov	r7, r5
.Ltmp132:
	.loc	12 670 20 is_stmt 1             @ ../GUILib/src/widgets/lv_table.c:670:20
	cbz	r0, .LBB2_32
.Ltmp133:
	.p2align	2
.LBB2_28:                               @   Parent Loop BB2_17 Depth=1
                                        @     Parent Loop BB2_23 Depth=2
                                        @ =>    This Inner Loop Header: Depth=3
	@DEBUG_VALUE: draw_main:col <- [DW_OP_plus_uconst 80] [$sp+0]
	@DEBUG_VALUE: draw_main:state_ori <- [DW_OP_plus_uconst 24] [$sp+0]
	@DEBUG_VALUE: draw_main:cell_bottom <- [DW_OP_plus_uconst 52, DW_OP_deref_size 4, DW_OP_LLVM_convert 32 7, DW_OP_LLVM_convert 16 7, DW_OP_stack_value] $sp
	@DEBUG_VALUE: draw_main:cell_top <- [DW_OP_plus_uconst 56, DW_OP_deref_size 4, DW_OP_LLVM_convert 32 7, DW_OP_LLVM_convert 16 7, DW_OP_stack_value] $sp
	@DEBUG_VALUE: draw_main:cell_right <- [DW_OP_plus_uconst 60, DW_OP_deref_size 4, DW_OP_LLVM_convert 32 7, DW_OP_LLVM_convert 16 7, DW_OP_stack_value] $sp
	@DEBUG_VALUE: draw_main:cell_left <- [DW_OP_plus_uconst 64, DW_OP_deref_size 4, DW_OP_LLVM_convert 32 7, DW_OP_LLVM_convert 16 7, DW_OP_stack_value] $sp
	@DEBUG_VALUE: draw_main:bg_bottom <- [DW_OP_plus_uconst 88, DW_OP_deref_size 4, DW_OP_LLVM_convert 32 7, DW_OP_LLVM_convert 16 7, DW_OP_stack_value] $sp
	@DEBUG_VALUE: draw_main:obj <- [DW_OP_plus_uconst 92] [$sp+0]
	@DEBUG_VALUE: draw_main:table <- [DW_OP_plus_uconst 92] [$sp+0]
	@DEBUG_VALUE: draw_main:cell <- $lr
	@DEBUG_VALUE: lv_table_event:e <- [DW_OP_LLVM_entry_value 1] $r1
	@DEBUG_VALUE: lv_table_event:class_p <- [DW_OP_LLVM_entry_value 1] $r0
	@DEBUG_VALUE: col_merge <- $r9
	@DEBUG_VALUE: next_cell_data <- $r0
	.loc	12 672 47                       @ ../GUILib/src/widgets/lv_table.c:672:47
	ldrb	r5, [r0]
.Ltmp134:
	@DEBUG_VALUE: ctrl <- $r5
	.loc	12 673 24                       @ ../GUILib/src/widgets/lv_table.c:673:24
	lsls	r0, r5, #31
.Ltmp135:
	beq	.LBB2_33
.Ltmp136:
@ %bb.29:                               @   in Loop: Header=BB2_28 Depth=3
	@DEBUG_VALUE: draw_main:col <- [DW_OP_plus_uconst 80] [$sp+0]
	@DEBUG_VALUE: col_merge <- $r9
	@DEBUG_VALUE: ctrl <- $r5
	@DEBUG_VALUE: draw_main:state_ori <- [DW_OP_plus_uconst 24] [$sp+0]
	@DEBUG_VALUE: draw_main:cell_bottom <- [DW_OP_plus_uconst 52, DW_OP_deref_size 4, DW_OP_LLVM_convert 32 7, DW_OP_LLVM_convert 16 7, DW_OP_stack_value] $sp
	@DEBUG_VALUE: draw_main:cell_top <- [DW_OP_plus_uconst 56, DW_OP_deref_size 4, DW_OP_LLVM_convert 32 7, DW_OP_LLVM_convert 16 7, DW_OP_stack_value] $sp
	@DEBUG_VALUE: draw_main:cell_right <- [DW_OP_plus_uconst 60, DW_OP_deref_size 4, DW_OP_LLVM_convert 32 7, DW_OP_LLVM_convert 16 7, DW_OP_stack_value] $sp
	@DEBUG_VALUE: draw_main:cell_left <- [DW_OP_plus_uconst 64, DW_OP_deref_size 4, DW_OP_LLVM_convert 32 7, DW_OP_LLVM_convert 16 7, DW_OP_stack_value] $sp
	@DEBUG_VALUE: draw_main:bg_bottom <- [DW_OP_plus_uconst 88, DW_OP_deref_size 4, DW_OP_LLVM_convert 32 7, DW_OP_LLVM_convert 16 7, DW_OP_stack_value] $sp
	@DEBUG_VALUE: draw_main:obj <- [DW_OP_plus_uconst 92] [$sp+0]
	@DEBUG_VALUE: draw_main:table <- [DW_OP_plus_uconst 92] [$sp+0]
	@DEBUG_VALUE: draw_main:cell <- $lr
	@DEBUG_VALUE: lv_table_event:e <- [DW_OP_LLVM_entry_value 1] $r1
	@DEBUG_VALUE: lv_table_event:class_p <- [DW_OP_LLVM_entry_value 1] $r0
	.loc	12 674 28                       @ ../GUILib/src/widgets/lv_table.c:674:28
	ldr	r0, [sp, #84]                   @ 4-byte Reload
.Ltmp137:
	.loc	12 669 79                       @ ../GUILib/src/widgets/lv_table.c:669:79
	add.w	r9, r9, #1
.Ltmp138:
	@DEBUG_VALUE: col_merge <- $r9
	@DEBUG_VALUE: ctrl <- $r5
	.loc	12 674 28                       @ ../GUILib/src/widgets/lv_table.c:674:28
	cmp	r0, #1
.Ltmp139:
	.loc	12 0 0 is_stmt 0                @ ../GUILib/src/widgets/lv_table.c:0:0
	add.w	r0, r7, #1
.Ltmp140:
	.loc	12 669 42 is_stmt 1             @ ../GUILib/src/widgets/lv_table.c:669:42
	uxtah	r7, r4, r9
.Ltmp141:
	.loc	12 675 46                       @ ../GUILib/src/widgets/lv_table.c:675:46
	ldrh.w	r0, [r1, r0, lsl #1]
	.loc	12 675 43 is_stmt 0             @ ../GUILib/src/widgets/lv_table.c:675:43
	ittee	ne
	addne	r2, r0
	strhne.w	r2, [sp, #364]
	.loc	12 674 46 is_stmt 1             @ ../GUILib/src/widgets/lv_table.c:674:46
	subeq	r3, r3, r0
	strheq.w	r3, [sp, #360]
.Ltmp142:
	.loc	12 669 13                       @ ../GUILib/src/widgets/lv_table.c:669:13
	cmp	r7, r10
	bge	.LBB2_33
.Ltmp143:
@ %bb.30:                               @   in Loop: Header=BB2_28 Depth=3
	@DEBUG_VALUE: draw_main:col <- [DW_OP_plus_uconst 80] [$sp+0]
	@DEBUG_VALUE: col_merge <- $r9
	@DEBUG_VALUE: ctrl <- $r5
	@DEBUG_VALUE: draw_main:state_ori <- [DW_OP_plus_uconst 24] [$sp+0]
	@DEBUG_VALUE: draw_main:cell_bottom <- [DW_OP_plus_uconst 52, DW_OP_deref_size 4, DW_OP_LLVM_convert 32 7, DW_OP_LLVM_convert 16 7, DW_OP_stack_value] $sp
	@DEBUG_VALUE: draw_main:cell_top <- [DW_OP_plus_uconst 56, DW_OP_deref_size 4, DW_OP_LLVM_convert 32 7, DW_OP_LLVM_convert 16 7, DW_OP_stack_value] $sp
	@DEBUG_VALUE: draw_main:cell_right <- [DW_OP_plus_uconst 60, DW_OP_deref_size 4, DW_OP_LLVM_convert 32 7, DW_OP_LLVM_convert 16 7, DW_OP_stack_value] $sp
	@DEBUG_VALUE: draw_main:cell_left <- [DW_OP_plus_uconst 64, DW_OP_deref_size 4, DW_OP_LLVM_convert 32 7, DW_OP_LLVM_convert 16 7, DW_OP_stack_value] $sp
	@DEBUG_VALUE: draw_main:bg_bottom <- [DW_OP_plus_uconst 88, DW_OP_deref_size 4, DW_OP_LLVM_convert 32 7, DW_OP_LLVM_convert 16 7, DW_OP_stack_value] $sp
	@DEBUG_VALUE: draw_main:obj <- [DW_OP_plus_uconst 92] [$sp+0]
	@DEBUG_VALUE: draw_main:table <- [DW_OP_plus_uconst 92] [$sp+0]
	@DEBUG_VALUE: draw_main:cell <- $lr
	@DEBUG_VALUE: lv_table_event:e <- [DW_OP_LLVM_entry_value 1] $r1
	@DEBUG_VALUE: lv_table_event:class_p <- [DW_OP_LLVM_entry_value 1] $r0
	.loc	12 670 42                       @ ../GUILib/src/widgets/lv_table.c:670:42
	ldr.w	r8, [sp, #88]                   @ 4-byte Reload
.Ltmp144:
	.loc	12 0 0 is_stmt 0                @ ../GUILib/src/widgets/lv_table.c:0:0
	uxth.w	r0, r9
	@DEBUG_VALUE: col_merge <- $r9
	@DEBUG_VALUE: ctrl <- $r5
.Ltmp145:
	.loc	12 670 42                       @ ../GUILib/src/widgets/lv_table.c:670:42
	add	r0, r8
	.loc	12 670 20                       @ ../GUILib/src/widgets/lv_table.c:670:20
	ldr.w	r0, [r11, r0, lsl #2]
.Ltmp146:
	.loc	12 670 20                       @ ../GUILib/src/widgets/lv_table.c:670:20
	cmp	r0, #0
	bne	.LBB2_28
	b	.LBB2_33
.Ltmp147:
	.p2align	2
.LBB2_31:                               @   in Loop: Header=BB2_23 Depth=2
	@DEBUG_VALUE: draw_main:col <- [DW_OP_plus_uconst 80] [$sp+0]
	@DEBUG_VALUE: ctrl <- $r8
	@DEBUG_VALUE: draw_main:state_ori <- [DW_OP_plus_uconst 24] [$sp+0]
	@DEBUG_VALUE: draw_main:cell_bottom <- [DW_OP_plus_uconst 52, DW_OP_deref_size 4, DW_OP_LLVM_convert 32 7, DW_OP_LLVM_convert 16 7, DW_OP_stack_value] $sp
	@DEBUG_VALUE: draw_main:cell_top <- [DW_OP_plus_uconst 56, DW_OP_deref_size 4, DW_OP_LLVM_convert 32 7, DW_OP_LLVM_convert 16 7, DW_OP_stack_value] $sp
	@DEBUG_VALUE: draw_main:cell_right <- [DW_OP_plus_uconst 60, DW_OP_deref_size 4, DW_OP_LLVM_convert 32 7, DW_OP_LLVM_convert 16 7, DW_OP_stack_value] $sp
	@DEBUG_VALUE: draw_main:cell_left <- [DW_OP_plus_uconst 64, DW_OP_deref_size 4, DW_OP_LLVM_convert 32 7, DW_OP_LLVM_convert 16 7, DW_OP_stack_value] $sp
	@DEBUG_VALUE: draw_main:bg_bottom <- [DW_OP_plus_uconst 88, DW_OP_deref_size 4, DW_OP_LLVM_convert 32 7, DW_OP_LLVM_convert 16 7, DW_OP_stack_value] $sp
	@DEBUG_VALUE: draw_main:obj <- [DW_OP_plus_uconst 92] [$sp+0]
	@DEBUG_VALUE: draw_main:table <- [DW_OP_plus_uconst 92] [$sp+0]
	@DEBUG_VALUE: draw_main:cell <- $lr
	@DEBUG_VALUE: col_merge <- 0
	@DEBUG_VALUE: lv_table_event:e <- [DW_OP_LLVM_entry_value 1] $r1
	@DEBUG_VALUE: lv_table_event:class_p <- [DW_OP_LLVM_entry_value 1] $r0
	.loc	12 669 42 is_stmt 1             @ ../GUILib/src/widgets/lv_table.c:669:42
	mov	r7, r4
.Ltmp148:
.LBB2_32:                               @   in Loop: Header=BB2_23 Depth=2
	@DEBUG_VALUE: draw_main:col <- [DW_OP_plus_uconst 80] [$sp+0]
	@DEBUG_VALUE: ctrl <- $r8
	@DEBUG_VALUE: draw_main:state_ori <- [DW_OP_plus_uconst 24] [$sp+0]
	@DEBUG_VALUE: draw_main:cell_bottom <- [DW_OP_plus_uconst 52, DW_OP_deref_size 4, DW_OP_LLVM_convert 32 7, DW_OP_LLVM_convert 16 7, DW_OP_stack_value] $sp
	@DEBUG_VALUE: draw_main:cell_top <- [DW_OP_plus_uconst 56, DW_OP_deref_size 4, DW_OP_LLVM_convert 32 7, DW_OP_LLVM_convert 16 7, DW_OP_stack_value] $sp
	@DEBUG_VALUE: draw_main:cell_right <- [DW_OP_plus_uconst 60, DW_OP_deref_size 4, DW_OP_LLVM_convert 32 7, DW_OP_LLVM_convert 16 7, DW_OP_stack_value] $sp
	@DEBUG_VALUE: draw_main:cell_left <- [DW_OP_plus_uconst 64, DW_OP_deref_size 4, DW_OP_LLVM_convert 32 7, DW_OP_LLVM_convert 16 7, DW_OP_stack_value] $sp
	@DEBUG_VALUE: draw_main:bg_bottom <- [DW_OP_plus_uconst 88, DW_OP_deref_size 4, DW_OP_LLVM_convert 32 7, DW_OP_LLVM_convert 16 7, DW_OP_stack_value] $sp
	@DEBUG_VALUE: draw_main:obj <- [DW_OP_plus_uconst 92] [$sp+0]
	@DEBUG_VALUE: draw_main:table <- [DW_OP_plus_uconst 92] [$sp+0]
	@DEBUG_VALUE: draw_main:cell <- $lr
	@DEBUG_VALUE: col_merge <- 0
	@DEBUG_VALUE: lv_table_event:e <- [DW_OP_LLVM_entry_value 1] $r1
	@DEBUG_VALUE: lv_table_event:class_p <- [DW_OP_LLVM_entry_value 1] $r0
	.loc	12 0 42 is_stmt 0               @ ../GUILib/src/widgets/lv_table.c:0:42
	mov	r5, r8
.Ltmp149:
	@DEBUG_VALUE: ctrl <- $r5
	@DEBUG_VALUE: ctrl <- $r5
.LBB2_33:                               @   in Loop: Header=BB2_23 Depth=2
	@DEBUG_VALUE: draw_main:col <- [DW_OP_plus_uconst 80] [$sp+0]
	@DEBUG_VALUE: ctrl <- $r5
	@DEBUG_VALUE: draw_main:state_ori <- [DW_OP_plus_uconst 24] [$sp+0]
	@DEBUG_VALUE: draw_main:cell_bottom <- [DW_OP_plus_uconst 52, DW_OP_deref_size 4, DW_OP_LLVM_convert 32 7, DW_OP_LLVM_convert 16 7, DW_OP_stack_value] $sp
	@DEBUG_VALUE: draw_main:cell_top <- [DW_OP_plus_uconst 56, DW_OP_deref_size 4, DW_OP_LLVM_convert 32 7, DW_OP_LLVM_convert 16 7, DW_OP_stack_value] $sp
	@DEBUG_VALUE: draw_main:cell_right <- [DW_OP_plus_uconst 60, DW_OP_deref_size 4, DW_OP_LLVM_convert 32 7, DW_OP_LLVM_convert 16 7, DW_OP_stack_value] $sp
	@DEBUG_VALUE: draw_main:cell_left <- [DW_OP_plus_uconst 64, DW_OP_deref_size 4, DW_OP_LLVM_convert 32 7, DW_OP_LLVM_convert 16 7, DW_OP_stack_value] $sp
	@DEBUG_VALUE: draw_main:bg_bottom <- [DW_OP_plus_uconst 88, DW_OP_deref_size 4, DW_OP_LLVM_convert 32 7, DW_OP_LLVM_convert 16 7, DW_OP_stack_value] $sp
	@DEBUG_VALUE: draw_main:obj <- [DW_OP_plus_uconst 92] [$sp+0]
	@DEBUG_VALUE: draw_main:table <- [DW_OP_plus_uconst 92] [$sp+0]
	@DEBUG_VALUE: draw_main:cell <- $lr
	@DEBUG_VALUE: lv_table_event:e <- [DW_OP_LLVM_entry_value 1] $r1
	@DEBUG_VALUE: lv_table_event:class_p <- [DW_OP_LLVM_entry_value 1] $r0
	@DEBUG_VALUE: ctrl <- $r5
	.loc	12 685 26 is_stmt 1             @ ../GUILib/src/widgets/lv_table.c:685:26
	ldrsh.w	r0, [sp, #366]
	.loc	12 685 41 is_stmt 0             @ ../GUILib/src/widgets/lv_table.c:685:41
	ldrsh.w	r1, [sp, #374]
.Ltmp150:
	.loc	12 685 16                       @ ../GUILib/src/widgets/lv_table.c:685:16
	cmp	r0, r1
	blt.w	.LBB2_59
.Ltmp151:
@ %bb.34:                               @   in Loop: Header=BB2_23 Depth=2
	@DEBUG_VALUE: draw_main:col <- [DW_OP_plus_uconst 80] [$sp+0]
	@DEBUG_VALUE: ctrl <- $r5
	@DEBUG_VALUE: draw_main:state_ori <- [DW_OP_plus_uconst 24] [$sp+0]
	@DEBUG_VALUE: draw_main:cell_bottom <- [DW_OP_plus_uconst 52, DW_OP_deref_size 4, DW_OP_LLVM_convert 32 7, DW_OP_LLVM_convert 16 7, DW_OP_stack_value] $sp
	@DEBUG_VALUE: draw_main:cell_top <- [DW_OP_plus_uconst 56, DW_OP_deref_size 4, DW_OP_LLVM_convert 32 7, DW_OP_LLVM_convert 16 7, DW_OP_stack_value] $sp
	@DEBUG_VALUE: draw_main:cell_right <- [DW_OP_plus_uconst 60, DW_OP_deref_size 4, DW_OP_LLVM_convert 32 7, DW_OP_LLVM_convert 16 7, DW_OP_stack_value] $sp
	@DEBUG_VALUE: draw_main:cell_left <- [DW_OP_plus_uconst 64, DW_OP_deref_size 4, DW_OP_LLVM_convert 32 7, DW_OP_LLVM_convert 16 7, DW_OP_stack_value] $sp
	@DEBUG_VALUE: draw_main:bg_bottom <- [DW_OP_plus_uconst 88, DW_OP_deref_size 4, DW_OP_LLVM_convert 32 7, DW_OP_LLVM_convert 16 7, DW_OP_stack_value] $sp
	@DEBUG_VALUE: draw_main:obj <- [DW_OP_plus_uconst 92] [$sp+0]
	@DEBUG_VALUE: draw_main:table <- [DW_OP_plus_uconst 92] [$sp+0]
	@DEBUG_VALUE: draw_main:cell <- $lr
	@DEBUG_VALUE: lv_table_event:e <- [DW_OP_LLVM_entry_value 1] $r1
	@DEBUG_VALUE: lv_table_event:class_p <- [DW_OP_LLVM_entry_value 1] $r0
	@DEBUG_VALUE: lv_area_copy:dest <- [DW_OP_plus_uconst 104, DW_OP_stack_value] $sp
	@DEBUG_VALUE: lv_area_copy:src <- [DW_OP_plus_uconst 360, DW_OP_stack_value] $sp
	.loc	12 694 30 is_stmt 1             @ ../GUILib/src/widgets/lv_table.c:694:30
	ldrb.w	r1, [sp, #331]
.Ltmp152:
	.loc	6 113 21                        @ ../GUILib/src/hal/../misc/lv_area.h:113:21
	ldrh.w	r12, [sp, #362]
	str	r4, [sp, #72]                   @ 4-byte Spill
.Ltmp153:
	.loc	12 694 65                       @ ../GUILib/src/widgets/lv_table.c:694:65
	lsls	r4, r1, #28
.Ltmp154:
	.loc	6 112 14                        @ ../GUILib/src/hal/../misc/lv_area.h:112:14
	strh.w	r3, [sp, #104]
	.loc	6 113 14                        @ ../GUILib/src/hal/../misc/lv_area.h:113:14
	strh.w	r12, [sp, #106]
	.loc	6 114 14                        @ ../GUILib/src/hal/../misc/lv_area.h:114:14
	strh.w	r2, [sp, #108]
	@DEBUG_VALUE: lv_area_copy:src <- [DW_OP_plus_uconst 360, DW_OP_stack_value] $sp
	@DEBUG_VALUE: lv_area_copy:dest <- [DW_OP_plus_uconst 104, DW_OP_stack_value] $sp
	.loc	6 115 14                        @ ../GUILib/src/hal/../misc/lv_area.h:115:14
	strh.w	r0, [sp, #110]
	@DEBUG_VALUE: lv_area_copy:src <- [DW_OP_plus_uconst 360, DW_OP_stack_value] $sp
	@DEBUG_VALUE: lv_area_copy:dest <- [DW_OP_plus_uconst 104, DW_OP_stack_value] $sp
	str.w	lr, [sp, #76]                   @ 4-byte Spill
.Ltmp155:
	@DEBUG_VALUE: draw_main:cell <- [DW_OP_plus_uconst 76] [$sp+0]
	@DEBUG_VALUE: draw_main:cell <- [DW_OP_plus_uconst 76] [$sp+0]
	.loc	12 694 65                       @ ../GUILib/src/widgets/lv_table.c:694:65
	bpl	.LBB2_37
.Ltmp156:
@ %bb.35:                               @   in Loop: Header=BB2_23 Depth=2
	@DEBUG_VALUE: draw_main:cell <- [DW_OP_plus_uconst 76] [$sp+0]
	@DEBUG_VALUE: draw_main:col <- [DW_OP_plus_uconst 80] [$sp+0]
	@DEBUG_VALUE: ctrl <- $r5
	@DEBUG_VALUE: draw_main:state_ori <- [DW_OP_plus_uconst 24] [$sp+0]
	@DEBUG_VALUE: draw_main:cell_bottom <- [DW_OP_plus_uconst 52, DW_OP_deref_size 4, DW_OP_LLVM_convert 32 7, DW_OP_LLVM_convert 16 7, DW_OP_stack_value] $sp
	@DEBUG_VALUE: draw_main:cell_top <- [DW_OP_plus_uconst 56, DW_OP_deref_size 4, DW_OP_LLVM_convert 32 7, DW_OP_LLVM_convert 16 7, DW_OP_stack_value] $sp
	@DEBUG_VALUE: draw_main:cell_right <- [DW_OP_plus_uconst 60, DW_OP_deref_size 4, DW_OP_LLVM_convert 32 7, DW_OP_LLVM_convert 16 7, DW_OP_stack_value] $sp
	@DEBUG_VALUE: draw_main:cell_left <- [DW_OP_plus_uconst 64, DW_OP_deref_size 4, DW_OP_LLVM_convert 32 7, DW_OP_LLVM_convert 16 7, DW_OP_stack_value] $sp
	@DEBUG_VALUE: draw_main:bg_bottom <- [DW_OP_plus_uconst 88, DW_OP_deref_size 4, DW_OP_LLVM_convert 32 7, DW_OP_LLVM_convert 16 7, DW_OP_stack_value] $sp
	@DEBUG_VALUE: draw_main:obj <- [DW_OP_plus_uconst 92] [$sp+0]
	@DEBUG_VALUE: draw_main:table <- [DW_OP_plus_uconst 92] [$sp+0]
	@DEBUG_VALUE: lv_table_event:e <- [DW_OP_LLVM_entry_value 1] $r1
	@DEBUG_VALUE: lv_table_event:class_p <- [DW_OP_LLVM_entry_value 1] $r0
	.loc	12 694 102 is_stmt 0            @ ../GUILib/src/widgets/lv_table.c:694:102
	ldr	r4, [sp, #48]                   @ 4-byte Reload
	.loc	12 694 105                      @ ../GUILib/src/widgets/lv_table.c:694:105
	ldr.w	r11, [sp, #40]                  @ 4-byte Reload
	.loc	12 694 102                      @ ../GUILib/src/widgets/lv_table.c:694:102
	ldrsh.w	r4, [r4]
	.loc	12 694 68                       @ ../GUILib/src/widgets/lv_table.c:694:68
	sxth.w	r10, r3
	.loc	12 694 105                      @ ../GUILib/src/widgets/lv_table.c:694:105
	add	r4, r11
.Ltmp157:
	.loc	12 694 16                       @ ../GUILib/src/widgets/lv_table.c:694:16
	cmp	r4, r10
	bge	.LBB2_37
.Ltmp158:
@ %bb.36:                               @   in Loop: Header=BB2_23 Depth=2
	@DEBUG_VALUE: draw_main:cell <- [DW_OP_plus_uconst 76] [$sp+0]
	@DEBUG_VALUE: draw_main:col <- [DW_OP_plus_uconst 80] [$sp+0]
	@DEBUG_VALUE: ctrl <- $r5
	@DEBUG_VALUE: draw_main:state_ori <- [DW_OP_plus_uconst 24] [$sp+0]
	@DEBUG_VALUE: draw_main:cell_bottom <- [DW_OP_plus_uconst 52, DW_OP_deref_size 4, DW_OP_LLVM_convert 32 7, DW_OP_LLVM_convert 16 7, DW_OP_stack_value] $sp
	@DEBUG_VALUE: draw_main:cell_top <- [DW_OP_plus_uconst 56, DW_OP_deref_size 4, DW_OP_LLVM_convert 32 7, DW_OP_LLVM_convert 16 7, DW_OP_stack_value] $sp
	@DEBUG_VALUE: draw_main:cell_right <- [DW_OP_plus_uconst 60, DW_OP_deref_size 4, DW_OP_LLVM_convert 32 7, DW_OP_LLVM_convert 16 7, DW_OP_stack_value] $sp
	@DEBUG_VALUE: draw_main:cell_left <- [DW_OP_plus_uconst 64, DW_OP_deref_size 4, DW_OP_LLVM_convert 32 7, DW_OP_LLVM_convert 16 7, DW_OP_stack_value] $sp
	@DEBUG_VALUE: draw_main:bg_bottom <- [DW_OP_plus_uconst 88, DW_OP_deref_size 4, DW_OP_LLVM_convert 32 7, DW_OP_LLVM_convert 16 7, DW_OP_stack_value] $sp
	@DEBUG_VALUE: draw_main:obj <- [DW_OP_plus_uconst 92] [$sp+0]
	@DEBUG_VALUE: draw_main:table <- [DW_OP_plus_uconst 92] [$sp+0]
	@DEBUG_VALUE: lv_table_event:e <- [DW_OP_LLVM_entry_value 1] $r1
	@DEBUG_VALUE: lv_table_event:class_p <- [DW_OP_LLVM_entry_value 1] $r0
	.loc	12 695 53 is_stmt 1             @ ../GUILib/src/widgets/lv_table.c:695:53
	ldrh.w	r4, [sp, #328]
	.loc	12 695 66 is_stmt 0             @ ../GUILib/src/widgets/lv_table.c:695:66
	add.w	r4, r4, r4, lsr #15
	sxth	r4, r4
	.loc	12 695 37                       @ ../GUILib/src/widgets/lv_table.c:695:37
	sub.w	r3, r3, r4, lsr #1
	strh.w	r3, [sp, #104]
.Ltmp159:
.LBB2_37:                               @   in Loop: Header=BB2_23 Depth=2
	@DEBUG_VALUE: draw_main:cell <- [DW_OP_plus_uconst 76] [$sp+0]
	@DEBUG_VALUE: draw_main:col <- [DW_OP_plus_uconst 80] [$sp+0]
	@DEBUG_VALUE: ctrl <- $r5
	@DEBUG_VALUE: draw_main:state_ori <- [DW_OP_plus_uconst 24] [$sp+0]
	@DEBUG_VALUE: draw_main:cell_bottom <- [DW_OP_plus_uconst 52, DW_OP_deref_size 4, DW_OP_LLVM_convert 32 7, DW_OP_LLVM_convert 16 7, DW_OP_stack_value] $sp
	@DEBUG_VALUE: draw_main:cell_top <- [DW_OP_plus_uconst 56, DW_OP_deref_size 4, DW_OP_LLVM_convert 32 7, DW_OP_LLVM_convert 16 7, DW_OP_stack_value] $sp
	@DEBUG_VALUE: draw_main:cell_right <- [DW_OP_plus_uconst 60, DW_OP_deref_size 4, DW_OP_LLVM_convert 32 7, DW_OP_LLVM_convert 16 7, DW_OP_stack_value] $sp
	@DEBUG_VALUE: draw_main:cell_left <- [DW_OP_plus_uconst 64, DW_OP_deref_size 4, DW_OP_LLVM_convert 32 7, DW_OP_LLVM_convert 16 7, DW_OP_stack_value] $sp
	@DEBUG_VALUE: draw_main:bg_bottom <- [DW_OP_plus_uconst 88, DW_OP_deref_size 4, DW_OP_LLVM_convert 32 7, DW_OP_LLVM_convert 16 7, DW_OP_stack_value] $sp
	@DEBUG_VALUE: draw_main:obj <- [DW_OP_plus_uconst 92] [$sp+0]
	@DEBUG_VALUE: draw_main:table <- [DW_OP_plus_uconst 92] [$sp+0]
	@DEBUG_VALUE: lv_table_event:e <- [DW_OP_LLVM_entry_value 1] $r1
	@DEBUG_VALUE: lv_table_event:class_p <- [DW_OP_LLVM_entry_value 1] $r0
	.loc	12 697 64 is_stmt 1             @ ../GUILib/src/widgets/lv_table.c:697:64
	lsls	r3, r1, #29
	bpl	.LBB2_40
.Ltmp160:
@ %bb.38:                               @   in Loop: Header=BB2_23 Depth=2
	@DEBUG_VALUE: draw_main:cell <- [DW_OP_plus_uconst 76] [$sp+0]
	@DEBUG_VALUE: draw_main:col <- [DW_OP_plus_uconst 80] [$sp+0]
	@DEBUG_VALUE: ctrl <- $r5
	@DEBUG_VALUE: draw_main:state_ori <- [DW_OP_plus_uconst 24] [$sp+0]
	@DEBUG_VALUE: draw_main:cell_bottom <- [DW_OP_plus_uconst 52, DW_OP_deref_size 4, DW_OP_LLVM_convert 32 7, DW_OP_LLVM_convert 16 7, DW_OP_stack_value] $sp
	@DEBUG_VALUE: draw_main:cell_top <- [DW_OP_plus_uconst 56, DW_OP_deref_size 4, DW_OP_LLVM_convert 32 7, DW_OP_LLVM_convert 16 7, DW_OP_stack_value] $sp
	@DEBUG_VALUE: draw_main:cell_right <- [DW_OP_plus_uconst 60, DW_OP_deref_size 4, DW_OP_LLVM_convert 32 7, DW_OP_LLVM_convert 16 7, DW_OP_stack_value] $sp
	@DEBUG_VALUE: draw_main:cell_left <- [DW_OP_plus_uconst 64, DW_OP_deref_size 4, DW_OP_LLVM_convert 32 7, DW_OP_LLVM_convert 16 7, DW_OP_stack_value] $sp
	@DEBUG_VALUE: draw_main:bg_bottom <- [DW_OP_plus_uconst 88, DW_OP_deref_size 4, DW_OP_LLVM_convert 32 7, DW_OP_LLVM_convert 16 7, DW_OP_stack_value] $sp
	@DEBUG_VALUE: draw_main:obj <- [DW_OP_plus_uconst 92] [$sp+0]
	@DEBUG_VALUE: draw_main:table <- [DW_OP_plus_uconst 92] [$sp+0]
	@DEBUG_VALUE: lv_table_event:e <- [DW_OP_LLVM_entry_value 1] $r1
	@DEBUG_VALUE: lv_table_event:class_p <- [DW_OP_LLVM_entry_value 1] $r0
	.loc	12 697 101 is_stmt 0            @ ../GUILib/src/widgets/lv_table.c:697:101
	ldr	r3, [sp, #92]                   @ 4-byte Reload
	.loc	12 697 104                      @ ../GUILib/src/widgets/lv_table.c:697:104
	ldr	r4, [sp, #44]                   @ 4-byte Reload
	.loc	12 697 101                      @ ../GUILib/src/widgets/lv_table.c:697:101
	ldrsh.w	r3, [r3, #22]
	.loc	12 0 0                          @ ../GUILib/src/widgets/lv_table.c:0:0
	sxth.w	r10, r12
	.loc	12 697 104                      @ ../GUILib/src/widgets/lv_table.c:697:104
	add	r3, r4
.Ltmp161:
	.loc	12 697 16                       @ ../GUILib/src/widgets/lv_table.c:697:16
	cmp	r3, r10
	bge	.LBB2_40
.Ltmp162:
@ %bb.39:                               @   in Loop: Header=BB2_23 Depth=2
	@DEBUG_VALUE: draw_main:cell <- [DW_OP_plus_uconst 76] [$sp+0]
	@DEBUG_VALUE: draw_main:col <- [DW_OP_plus_uconst 80] [$sp+0]
	@DEBUG_VALUE: ctrl <- $r5
	@DEBUG_VALUE: draw_main:state_ori <- [DW_OP_plus_uconst 24] [$sp+0]
	@DEBUG_VALUE: draw_main:cell_bottom <- [DW_OP_plus_uconst 52, DW_OP_deref_size 4, DW_OP_LLVM_convert 32 7, DW_OP_LLVM_convert 16 7, DW_OP_stack_value] $sp
	@DEBUG_VALUE: draw_main:cell_top <- [DW_OP_plus_uconst 56, DW_OP_deref_size 4, DW_OP_LLVM_convert 32 7, DW_OP_LLVM_convert 16 7, DW_OP_stack_value] $sp
	@DEBUG_VALUE: draw_main:cell_right <- [DW_OP_plus_uconst 60, DW_OP_deref_size 4, DW_OP_LLVM_convert 32 7, DW_OP_LLVM_convert 16 7, DW_OP_stack_value] $sp
	@DEBUG_VALUE: draw_main:cell_left <- [DW_OP_plus_uconst 64, DW_OP_deref_size 4, DW_OP_LLVM_convert 32 7, DW_OP_LLVM_convert 16 7, DW_OP_stack_value] $sp
	@DEBUG_VALUE: draw_main:bg_bottom <- [DW_OP_plus_uconst 88, DW_OP_deref_size 4, DW_OP_LLVM_convert 32 7, DW_OP_LLVM_convert 16 7, DW_OP_stack_value] $sp
	@DEBUG_VALUE: draw_main:obj <- [DW_OP_plus_uconst 92] [$sp+0]
	@DEBUG_VALUE: draw_main:table <- [DW_OP_plus_uconst 92] [$sp+0]
	@DEBUG_VALUE: lv_table_event:e <- [DW_OP_LLVM_entry_value 1] $r1
	@DEBUG_VALUE: lv_table_event:class_p <- [DW_OP_LLVM_entry_value 1] $r0
	.loc	12 698 53 is_stmt 1             @ ../GUILib/src/widgets/lv_table.c:698:53
	ldrh.w	r3, [sp, #328]
	.loc	12 698 66 is_stmt 0             @ ../GUILib/src/widgets/lv_table.c:698:66
	add.w	r3, r3, r3, lsr #15
	sxth	r3, r3
	.loc	12 698 37                       @ ../GUILib/src/widgets/lv_table.c:698:37
	sub.w	r3, r12, r3, lsr #1
	strh.w	r3, [sp, #106]
.Ltmp163:
.LBB2_40:                               @   in Loop: Header=BB2_23 Depth=2
	@DEBUG_VALUE: draw_main:cell <- [DW_OP_plus_uconst 76] [$sp+0]
	@DEBUG_VALUE: draw_main:col <- [DW_OP_plus_uconst 80] [$sp+0]
	@DEBUG_VALUE: ctrl <- $r5
	@DEBUG_VALUE: draw_main:state_ori <- [DW_OP_plus_uconst 24] [$sp+0]
	@DEBUG_VALUE: draw_main:cell_bottom <- [DW_OP_plus_uconst 52, DW_OP_deref_size 4, DW_OP_LLVM_convert 32 7, DW_OP_LLVM_convert 16 7, DW_OP_stack_value] $sp
	@DEBUG_VALUE: draw_main:cell_top <- [DW_OP_plus_uconst 56, DW_OP_deref_size 4, DW_OP_LLVM_convert 32 7, DW_OP_LLVM_convert 16 7, DW_OP_stack_value] $sp
	@DEBUG_VALUE: draw_main:cell_right <- [DW_OP_plus_uconst 60, DW_OP_deref_size 4, DW_OP_LLVM_convert 32 7, DW_OP_LLVM_convert 16 7, DW_OP_stack_value] $sp
	@DEBUG_VALUE: draw_main:cell_left <- [DW_OP_plus_uconst 64, DW_OP_deref_size 4, DW_OP_LLVM_convert 32 7, DW_OP_LLVM_convert 16 7, DW_OP_stack_value] $sp
	@DEBUG_VALUE: draw_main:bg_bottom <- [DW_OP_plus_uconst 88, DW_OP_deref_size 4, DW_OP_LLVM_convert 32 7, DW_OP_LLVM_convert 16 7, DW_OP_stack_value] $sp
	@DEBUG_VALUE: draw_main:obj <- [DW_OP_plus_uconst 92] [$sp+0]
	@DEBUG_VALUE: draw_main:table <- [DW_OP_plus_uconst 92] [$sp+0]
	@DEBUG_VALUE: lv_table_event:e <- [DW_OP_LLVM_entry_value 1] $r1
	@DEBUG_VALUE: lv_table_event:class_p <- [DW_OP_LLVM_entry_value 1] $r0
	.loc	12 700 66 is_stmt 1             @ ../GUILib/src/widgets/lv_table.c:700:66
	lsls	r3, r1, #27
	bpl	.LBB2_43
.Ltmp164:
@ %bb.41:                               @   in Loop: Header=BB2_23 Depth=2
	@DEBUG_VALUE: draw_main:cell <- [DW_OP_plus_uconst 76] [$sp+0]
	@DEBUG_VALUE: draw_main:col <- [DW_OP_plus_uconst 80] [$sp+0]
	@DEBUG_VALUE: ctrl <- $r5
	@DEBUG_VALUE: draw_main:state_ori <- [DW_OP_plus_uconst 24] [$sp+0]
	@DEBUG_VALUE: draw_main:cell_bottom <- [DW_OP_plus_uconst 52, DW_OP_deref_size 4, DW_OP_LLVM_convert 32 7, DW_OP_LLVM_convert 16 7, DW_OP_stack_value] $sp
	@DEBUG_VALUE: draw_main:cell_top <- [DW_OP_plus_uconst 56, DW_OP_deref_size 4, DW_OP_LLVM_convert 32 7, DW_OP_LLVM_convert 16 7, DW_OP_stack_value] $sp
	@DEBUG_VALUE: draw_main:cell_right <- [DW_OP_plus_uconst 60, DW_OP_deref_size 4, DW_OP_LLVM_convert 32 7, DW_OP_LLVM_convert 16 7, DW_OP_stack_value] $sp
	@DEBUG_VALUE: draw_main:cell_left <- [DW_OP_plus_uconst 64, DW_OP_deref_size 4, DW_OP_LLVM_convert 32 7, DW_OP_LLVM_convert 16 7, DW_OP_stack_value] $sp
	@DEBUG_VALUE: draw_main:bg_bottom <- [DW_OP_plus_uconst 88, DW_OP_deref_size 4, DW_OP_LLVM_convert 32 7, DW_OP_LLVM_convert 16 7, DW_OP_stack_value] $sp
	@DEBUG_VALUE: draw_main:obj <- [DW_OP_plus_uconst 92] [$sp+0]
	@DEBUG_VALUE: draw_main:table <- [DW_OP_plus_uconst 92] [$sp+0]
	@DEBUG_VALUE: lv_table_event:e <- [DW_OP_LLVM_entry_value 1] $r1
	@DEBUG_VALUE: lv_table_event:class_p <- [DW_OP_LLVM_entry_value 1] $r0
	.loc	12 700 103 is_stmt 0            @ ../GUILib/src/widgets/lv_table.c:700:103
	ldr	r3, [sp, #92]                   @ 4-byte Reload
	.loc	12 700 117                      @ ../GUILib/src/widgets/lv_table.c:700:117
	ldr	r4, [sp, #36]                   @ 4-byte Reload
	.loc	12 700 103                      @ ../GUILib/src/widgets/lv_table.c:700:103
	ldrsh.w	r3, [r3, #24]
	.loc	12 700 69                       @ ../GUILib/src/widgets/lv_table.c:700:69
	sxth.w	r12, r2
	.loc	12 700 117                      @ ../GUILib/src/widgets/lv_table.c:700:117
	add	r3, r4
.Ltmp165:
	.loc	12 700 16                       @ ../GUILib/src/widgets/lv_table.c:700:16
	cmp	r3, r12
	ble	.LBB2_43
.Ltmp166:
@ %bb.42:                               @   in Loop: Header=BB2_23 Depth=2
	@DEBUG_VALUE: draw_main:cell <- [DW_OP_plus_uconst 76] [$sp+0]
	@DEBUG_VALUE: draw_main:col <- [DW_OP_plus_uconst 80] [$sp+0]
	@DEBUG_VALUE: ctrl <- $r5
	@DEBUG_VALUE: draw_main:state_ori <- [DW_OP_plus_uconst 24] [$sp+0]
	@DEBUG_VALUE: draw_main:cell_bottom <- [DW_OP_plus_uconst 52, DW_OP_deref_size 4, DW_OP_LLVM_convert 32 7, DW_OP_LLVM_convert 16 7, DW_OP_stack_value] $sp
	@DEBUG_VALUE: draw_main:cell_top <- [DW_OP_plus_uconst 56, DW_OP_deref_size 4, DW_OP_LLVM_convert 32 7, DW_OP_LLVM_convert 16 7, DW_OP_stack_value] $sp
	@DEBUG_VALUE: draw_main:cell_right <- [DW_OP_plus_uconst 60, DW_OP_deref_size 4, DW_OP_LLVM_convert 32 7, DW_OP_LLVM_convert 16 7, DW_OP_stack_value] $sp
	@DEBUG_VALUE: draw_main:cell_left <- [DW_OP_plus_uconst 64, DW_OP_deref_size 4, DW_OP_LLVM_convert 32 7, DW_OP_LLVM_convert 16 7, DW_OP_stack_value] $sp
	@DEBUG_VALUE: draw_main:bg_bottom <- [DW_OP_plus_uconst 88, DW_OP_deref_size 4, DW_OP_LLVM_convert 32 7, DW_OP_LLVM_convert 16 7, DW_OP_stack_value] $sp
	@DEBUG_VALUE: draw_main:obj <- [DW_OP_plus_uconst 92] [$sp+0]
	@DEBUG_VALUE: draw_main:table <- [DW_OP_plus_uconst 92] [$sp+0]
	@DEBUG_VALUE: lv_table_event:e <- [DW_OP_LLVM_entry_value 1] $r1
	@DEBUG_VALUE: lv_table_event:class_p <- [DW_OP_LLVM_entry_value 1] $r0
	.loc	12 701 53 is_stmt 1             @ ../GUILib/src/widgets/lv_table.c:701:53
	ldrh.w	r3, [sp, #328]
	.loc	12 701 66 is_stmt 0             @ ../GUILib/src/widgets/lv_table.c:701:66
	add.w	r4, r3, r3, lsr #15
	.loc	12 701 99                       @ ../GUILib/src/widgets/lv_table.c:701:99
	and	r3, r3, #1
	.loc	12 701 66                       @ ../GUILib/src/widgets/lv_table.c:701:66
	sxth	r4, r4
	.loc	12 701 70                       @ ../GUILib/src/widgets/lv_table.c:701:70
	add	r2, r3
	.loc	12 701 37                       @ ../GUILib/src/widgets/lv_table.c:701:37
	add.w	r2, r2, r4, lsr #1
	strh.w	r2, [sp, #108]
.Ltmp167:
.LBB2_43:                               @   in Loop: Header=BB2_23 Depth=2
	@DEBUG_VALUE: draw_main:cell <- [DW_OP_plus_uconst 76] [$sp+0]
	@DEBUG_VALUE: draw_main:col <- [DW_OP_plus_uconst 80] [$sp+0]
	@DEBUG_VALUE: ctrl <- $r5
	@DEBUG_VALUE: draw_main:state_ori <- [DW_OP_plus_uconst 24] [$sp+0]
	@DEBUG_VALUE: draw_main:cell_bottom <- [DW_OP_plus_uconst 52, DW_OP_deref_size 4, DW_OP_LLVM_convert 32 7, DW_OP_LLVM_convert 16 7, DW_OP_stack_value] $sp
	@DEBUG_VALUE: draw_main:cell_top <- [DW_OP_plus_uconst 56, DW_OP_deref_size 4, DW_OP_LLVM_convert 32 7, DW_OP_LLVM_convert 16 7, DW_OP_stack_value] $sp
	@DEBUG_VALUE: draw_main:cell_right <- [DW_OP_plus_uconst 60, DW_OP_deref_size 4, DW_OP_LLVM_convert 32 7, DW_OP_LLVM_convert 16 7, DW_OP_stack_value] $sp
	@DEBUG_VALUE: draw_main:cell_left <- [DW_OP_plus_uconst 64, DW_OP_deref_size 4, DW_OP_LLVM_convert 32 7, DW_OP_LLVM_convert 16 7, DW_OP_stack_value] $sp
	@DEBUG_VALUE: draw_main:bg_bottom <- [DW_OP_plus_uconst 88, DW_OP_deref_size 4, DW_OP_LLVM_convert 32 7, DW_OP_LLVM_convert 16 7, DW_OP_stack_value] $sp
	@DEBUG_VALUE: draw_main:obj <- [DW_OP_plus_uconst 92] [$sp+0]
	@DEBUG_VALUE: draw_main:table <- [DW_OP_plus_uconst 92] [$sp+0]
	@DEBUG_VALUE: lv_table_event:e <- [DW_OP_LLVM_entry_value 1] $r1
	@DEBUG_VALUE: lv_table_event:class_p <- [DW_OP_LLVM_entry_value 1] $r0
	.loc	12 703 67 is_stmt 1             @ ../GUILib/src/widgets/lv_table.c:703:67
	lsls	r1, r1, #30
	bpl	.LBB2_46
.Ltmp168:
@ %bb.44:                               @   in Loop: Header=BB2_23 Depth=2
	@DEBUG_VALUE: draw_main:cell <- [DW_OP_plus_uconst 76] [$sp+0]
	@DEBUG_VALUE: draw_main:col <- [DW_OP_plus_uconst 80] [$sp+0]
	@DEBUG_VALUE: ctrl <- $r5
	@DEBUG_VALUE: draw_main:state_ori <- [DW_OP_plus_uconst 24] [$sp+0]
	@DEBUG_VALUE: draw_main:cell_bottom <- [DW_OP_plus_uconst 52, DW_OP_deref_size 4, DW_OP_LLVM_convert 32 7, DW_OP_LLVM_convert 16 7, DW_OP_stack_value] $sp
	@DEBUG_VALUE: draw_main:cell_top <- [DW_OP_plus_uconst 56, DW_OP_deref_size 4, DW_OP_LLVM_convert 32 7, DW_OP_LLVM_convert 16 7, DW_OP_stack_value] $sp
	@DEBUG_VALUE: draw_main:cell_right <- [DW_OP_plus_uconst 60, DW_OP_deref_size 4, DW_OP_LLVM_convert 32 7, DW_OP_LLVM_convert 16 7, DW_OP_stack_value] $sp
	@DEBUG_VALUE: draw_main:cell_left <- [DW_OP_plus_uconst 64, DW_OP_deref_size 4, DW_OP_LLVM_convert 32 7, DW_OP_LLVM_convert 16 7, DW_OP_stack_value] $sp
	@DEBUG_VALUE: draw_main:bg_bottom <- [DW_OP_plus_uconst 88, DW_OP_deref_size 4, DW_OP_LLVM_convert 32 7, DW_OP_LLVM_convert 16 7, DW_OP_stack_value] $sp
	@DEBUG_VALUE: draw_main:obj <- [DW_OP_plus_uconst 92] [$sp+0]
	@DEBUG_VALUE: draw_main:table <- [DW_OP_plus_uconst 92] [$sp+0]
	@DEBUG_VALUE: lv_table_event:e <- [DW_OP_LLVM_entry_value 1] $r1
	@DEBUG_VALUE: lv_table_event:class_p <- [DW_OP_LLVM_entry_value 1] $r0
	.loc	12 704 50                       @ ../GUILib/src/widgets/lv_table.c:704:50
	ldr	r1, [sp, #92]                   @ 4-byte Reload
	.loc	12 704 65 is_stmt 0             @ ../GUILib/src/widgets/lv_table.c:704:65
	ldr	r2, [sp, #32]                   @ 4-byte Reload
	.loc	12 704 50                       @ ../GUILib/src/widgets/lv_table.c:704:50
	ldrsh.w	r1, [r1, #26]
	.loc	12 704 65                       @ ../GUILib/src/widgets/lv_table.c:704:65
	add	r1, r2
.Ltmp169:
	.loc	12 703 16 is_stmt 1             @ ../GUILib/src/widgets/lv_table.c:703:16
	cmp	r1, r0
	ble	.LBB2_46
.Ltmp170:
@ %bb.45:                               @   in Loop: Header=BB2_23 Depth=2
	@DEBUG_VALUE: draw_main:cell <- [DW_OP_plus_uconst 76] [$sp+0]
	@DEBUG_VALUE: draw_main:col <- [DW_OP_plus_uconst 80] [$sp+0]
	@DEBUG_VALUE: ctrl <- $r5
	@DEBUG_VALUE: draw_main:state_ori <- [DW_OP_plus_uconst 24] [$sp+0]
	@DEBUG_VALUE: draw_main:cell_bottom <- [DW_OP_plus_uconst 52, DW_OP_deref_size 4, DW_OP_LLVM_convert 32 7, DW_OP_LLVM_convert 16 7, DW_OP_stack_value] $sp
	@DEBUG_VALUE: draw_main:cell_top <- [DW_OP_plus_uconst 56, DW_OP_deref_size 4, DW_OP_LLVM_convert 32 7, DW_OP_LLVM_convert 16 7, DW_OP_stack_value] $sp
	@DEBUG_VALUE: draw_main:cell_right <- [DW_OP_plus_uconst 60, DW_OP_deref_size 4, DW_OP_LLVM_convert 32 7, DW_OP_LLVM_convert 16 7, DW_OP_stack_value] $sp
	@DEBUG_VALUE: draw_main:cell_left <- [DW_OP_plus_uconst 64, DW_OP_deref_size 4, DW_OP_LLVM_convert 32 7, DW_OP_LLVM_convert 16 7, DW_OP_stack_value] $sp
	@DEBUG_VALUE: draw_main:bg_bottom <- [DW_OP_plus_uconst 88, DW_OP_deref_size 4, DW_OP_LLVM_convert 32 7, DW_OP_LLVM_convert 16 7, DW_OP_stack_value] $sp
	@DEBUG_VALUE: draw_main:obj <- [DW_OP_plus_uconst 92] [$sp+0]
	@DEBUG_VALUE: draw_main:table <- [DW_OP_plus_uconst 92] [$sp+0]
	@DEBUG_VALUE: lv_table_event:e <- [DW_OP_LLVM_entry_value 1] $r1
	@DEBUG_VALUE: lv_table_event:class_p <- [DW_OP_LLVM_entry_value 1] $r0
	.loc	12 705 53                       @ ../GUILib/src/widgets/lv_table.c:705:53
	ldrh.w	r1, [sp, #328]
	.loc	12 705 66 is_stmt 0             @ ../GUILib/src/widgets/lv_table.c:705:66
	add.w	r2, r1, r1, lsr #15
	.loc	12 705 99                       @ ../GUILib/src/widgets/lv_table.c:705:99
	and	r1, r1, #1
	.loc	12 705 66                       @ ../GUILib/src/widgets/lv_table.c:705:66
	sxth	r2, r2
	.loc	12 705 70                       @ ../GUILib/src/widgets/lv_table.c:705:70
	add	r0, r1
	.loc	12 705 37                       @ ../GUILib/src/widgets/lv_table.c:705:37
	add.w	r0, r0, r2, lsr #1
	strh.w	r0, [sp, #110]
.Ltmp171:
.LBB2_46:                               @   in Loop: Header=BB2_23 Depth=2
	@DEBUG_VALUE: draw_main:cell <- [DW_OP_plus_uconst 76] [$sp+0]
	@DEBUG_VALUE: draw_main:col <- [DW_OP_plus_uconst 80] [$sp+0]
	@DEBUG_VALUE: ctrl <- $r5
	@DEBUG_VALUE: draw_main:state_ori <- [DW_OP_plus_uconst 24] [$sp+0]
	@DEBUG_VALUE: draw_main:cell_bottom <- [DW_OP_plus_uconst 52, DW_OP_deref_size 4, DW_OP_LLVM_convert 32 7, DW_OP_LLVM_convert 16 7, DW_OP_stack_value] $sp
	@DEBUG_VALUE: draw_main:cell_top <- [DW_OP_plus_uconst 56, DW_OP_deref_size 4, DW_OP_LLVM_convert 32 7, DW_OP_LLVM_convert 16 7, DW_OP_stack_value] $sp
	@DEBUG_VALUE: draw_main:cell_right <- [DW_OP_plus_uconst 60, DW_OP_deref_size 4, DW_OP_LLVM_convert 32 7, DW_OP_LLVM_convert 16 7, DW_OP_stack_value] $sp
	@DEBUG_VALUE: draw_main:cell_left <- [DW_OP_plus_uconst 64, DW_OP_deref_size 4, DW_OP_LLVM_convert 32 7, DW_OP_LLVM_convert 16 7, DW_OP_stack_value] $sp
	@DEBUG_VALUE: draw_main:bg_bottom <- [DW_OP_plus_uconst 88, DW_OP_deref_size 4, DW_OP_LLVM_convert 32 7, DW_OP_LLVM_convert 16 7, DW_OP_stack_value] $sp
	@DEBUG_VALUE: draw_main:obj <- [DW_OP_plus_uconst 92] [$sp+0]
	@DEBUG_VALUE: draw_main:table <- [DW_OP_plus_uconst 92] [$sp+0]
	@DEBUG_VALUE: lv_table_event:e <- [DW_OP_LLVM_entry_value 1] $r1
	@DEBUG_VALUE: lv_table_event:class_p <- [DW_OP_LLVM_entry_value 1] $r0
	@DEBUG_VALUE: cell_state <- 0
	.loc	12 709 30 is_stmt 1             @ ../GUILib/src/widgets/lv_table.c:709:30
	ldr	r0, [sp, #92]                   @ 4-byte Reload
	ldr	r4, [sp, #68]                   @ 4-byte Reload
.Ltmp172:
	@DEBUG_VALUE: draw_main:row <- $r4
	ldrh	r0, [r0, #54]
	.loc	12 709 38 is_stmt 0             @ ../GUILib/src/widgets/lv_table.c:709:38
	cmp	r4, r0
	bne	.LBB2_50
.Ltmp173:
@ %bb.47:                               @   in Loop: Header=BB2_23 Depth=2
	@DEBUG_VALUE: draw_main:cell <- [DW_OP_plus_uconst 76] [$sp+0]
	@DEBUG_VALUE: draw_main:col <- [DW_OP_plus_uconst 80] [$sp+0]
	@DEBUG_VALUE: ctrl <- $r5
	@DEBUG_VALUE: draw_main:state_ori <- [DW_OP_plus_uconst 24] [$sp+0]
	@DEBUG_VALUE: draw_main:cell_bottom <- [DW_OP_plus_uconst 52, DW_OP_deref_size 4, DW_OP_LLVM_convert 32 7, DW_OP_LLVM_convert 16 7, DW_OP_stack_value] $sp
	@DEBUG_VALUE: draw_main:cell_top <- [DW_OP_plus_uconst 56, DW_OP_deref_size 4, DW_OP_LLVM_convert 32 7, DW_OP_LLVM_convert 16 7, DW_OP_stack_value] $sp
	@DEBUG_VALUE: draw_main:cell_right <- [DW_OP_plus_uconst 60, DW_OP_deref_size 4, DW_OP_LLVM_convert 32 7, DW_OP_LLVM_convert 16 7, DW_OP_stack_value] $sp
	@DEBUG_VALUE: draw_main:cell_left <- [DW_OP_plus_uconst 64, DW_OP_deref_size 4, DW_OP_LLVM_convert 32 7, DW_OP_LLVM_convert 16 7, DW_OP_stack_value] $sp
	@DEBUG_VALUE: draw_main:bg_bottom <- [DW_OP_plus_uconst 88, DW_OP_deref_size 4, DW_OP_LLVM_convert 32 7, DW_OP_LLVM_convert 16 7, DW_OP_stack_value] $sp
	@DEBUG_VALUE: draw_main:obj <- [DW_OP_plus_uconst 92] [$sp+0]
	@DEBUG_VALUE: draw_main:table <- [DW_OP_plus_uconst 92] [$sp+0]
	@DEBUG_VALUE: cell_state <- 0
	@DEBUG_VALUE: lv_table_event:e <- [DW_OP_LLVM_entry_value 1] $r1
	@DEBUG_VALUE: lv_table_event:class_p <- [DW_OP_LLVM_entry_value 1] $r0
	.loc	12 709 55                       @ ../GUILib/src/widgets/lv_table.c:709:55
	ldr	r0, [sp, #92]                   @ 4-byte Reload
	.loc	12 709 45                       @ ../GUILib/src/widgets/lv_table.c:709:45
	ldr	r1, [sp, #80]                   @ 4-byte Reload
.Ltmp174:
	@DEBUG_VALUE: draw_main:col <- $r1
	@DEBUG_VALUE: draw_main:col <- $r1
	.loc	12 709 55                       @ ../GUILib/src/widgets/lv_table.c:709:55
	ldrh	r0, [r0, #52]
	.loc	12 709 45                       @ ../GUILib/src/widgets/lv_table.c:709:45
	uxth	r1, r1
.Ltmp175:
	.loc	12 709 16                       @ ../GUILib/src/widgets/lv_table.c:709:16
	cmp	r0, r1
	bne	.LBB2_50
.Ltmp176:
@ %bb.48:                               @   in Loop: Header=BB2_23 Depth=2
	@DEBUG_VALUE: draw_main:cell <- [DW_OP_plus_uconst 76] [$sp+0]
	@DEBUG_VALUE: ctrl <- $r5
	@DEBUG_VALUE: draw_main:state_ori <- [DW_OP_plus_uconst 24] [$sp+0]
	@DEBUG_VALUE: draw_main:cell_bottom <- [DW_OP_plus_uconst 52, DW_OP_deref_size 4, DW_OP_LLVM_convert 32 7, DW_OP_LLVM_convert 16 7, DW_OP_stack_value] $sp
	@DEBUG_VALUE: draw_main:cell_top <- [DW_OP_plus_uconst 56, DW_OP_deref_size 4, DW_OP_LLVM_convert 32 7, DW_OP_LLVM_convert 16 7, DW_OP_stack_value] $sp
	@DEBUG_VALUE: draw_main:cell_right <- [DW_OP_plus_uconst 60, DW_OP_deref_size 4, DW_OP_LLVM_convert 32 7, DW_OP_LLVM_convert 16 7, DW_OP_stack_value] $sp
	@DEBUG_VALUE: draw_main:cell_left <- [DW_OP_plus_uconst 64, DW_OP_deref_size 4, DW_OP_LLVM_convert 32 7, DW_OP_LLVM_convert 16 7, DW_OP_stack_value] $sp
	@DEBUG_VALUE: draw_main:bg_bottom <- [DW_OP_plus_uconst 88, DW_OP_deref_size 4, DW_OP_LLVM_convert 32 7, DW_OP_LLVM_convert 16 7, DW_OP_stack_value] $sp
	@DEBUG_VALUE: draw_main:obj <- [DW_OP_plus_uconst 92] [$sp+0]
	@DEBUG_VALUE: draw_main:table <- [DW_OP_plus_uconst 92] [$sp+0]
	@DEBUG_VALUE: cell_state <- 0
	@DEBUG_VALUE: lv_table_event:e <- [DW_OP_LLVM_entry_value 1] $r1
	@DEBUG_VALUE: lv_table_event:class_p <- [DW_OP_LLVM_entry_value 1] $r0
	.loc	12 710 27 is_stmt 1             @ ../GUILib/src/widgets/lv_table.c:710:27
	ldr	r0, [sp, #92]                   @ 4-byte Reload
	ldrh	r1, [r0, #32]
	.loc	12 710 54 is_stmt 0             @ ../GUILib/src/widgets/lv_table.c:710:54
	and	r2, r1, #96
.Ltmp177:
	@DEBUG_VALUE: cell_state <- undef
	.loc	12 711 20 is_stmt 1             @ ../GUILib/src/widgets/lv_table.c:711:20
	and	r0, r1, #6
	.loc	12 712 20                       @ ../GUILib/src/widgets/lv_table.c:712:20
	cmp	r2, #32
	it	eq
	addeq	r0, #32
.Ltmp178:
	@DEBUG_VALUE: cell_state <- $r0
	.loc	12 0 20 is_stmt 0               @ ../GUILib/src/widgets/lv_table.c:0:20
	lsls	r1, r1, #28
	bmi	.LBB2_51
.Ltmp179:
@ %bb.49:                               @   in Loop: Header=BB2_23 Depth=2
	@DEBUG_VALUE: draw_main:cell <- [DW_OP_plus_uconst 76] [$sp+0]
	@DEBUG_VALUE: ctrl <- $r5
	@DEBUG_VALUE: cell_state <- $r0
	@DEBUG_VALUE: draw_main:state_ori <- [DW_OP_plus_uconst 24] [$sp+0]
	@DEBUG_VALUE: draw_main:cell_bottom <- [DW_OP_plus_uconst 52, DW_OP_deref_size 4, DW_OP_LLVM_convert 32 7, DW_OP_LLVM_convert 16 7, DW_OP_stack_value] $sp
	@DEBUG_VALUE: draw_main:cell_top <- [DW_OP_plus_uconst 56, DW_OP_deref_size 4, DW_OP_LLVM_convert 32 7, DW_OP_LLVM_convert 16 7, DW_OP_stack_value] $sp
	@DEBUG_VALUE: draw_main:cell_right <- [DW_OP_plus_uconst 60, DW_OP_deref_size 4, DW_OP_LLVM_convert 32 7, DW_OP_LLVM_convert 16 7, DW_OP_stack_value] $sp
	@DEBUG_VALUE: draw_main:cell_left <- [DW_OP_plus_uconst 64, DW_OP_deref_size 4, DW_OP_LLVM_convert 32 7, DW_OP_LLVM_convert 16 7, DW_OP_stack_value] $sp
	@DEBUG_VALUE: draw_main:bg_bottom <- [DW_OP_plus_uconst 88, DW_OP_deref_size 4, DW_OP_LLVM_convert 32 7, DW_OP_LLVM_convert 16 7, DW_OP_stack_value] $sp
	@DEBUG_VALUE: draw_main:obj <- [DW_OP_plus_uconst 92] [$sp+0]
	@DEBUG_VALUE: draw_main:table <- [DW_OP_plus_uconst 92] [$sp+0]
	@DEBUG_VALUE: lv_table_event:e <- [DW_OP_LLVM_entry_value 1] $r1
	@DEBUG_VALUE: lv_table_event:class_p <- [DW_OP_LLVM_entry_value 1] $r0
	@DEBUG_VALUE: cell_state <- $r0
	.loc	12 717 16 is_stmt 1             @ ../GUILib/src/widgets/lv_table.c:717:16
	cbnz	r0, .LBB2_52
.Ltmp180:
	.p2align	2
.LBB2_50:                               @   in Loop: Header=BB2_23 Depth=2
	@DEBUG_VALUE: draw_main:cell <- [DW_OP_plus_uconst 76] [$sp+0]
	@DEBUG_VALUE: ctrl <- $r5
	@DEBUG_VALUE: draw_main:state_ori <- [DW_OP_plus_uconst 24] [$sp+0]
	@DEBUG_VALUE: draw_main:cell_bottom <- [DW_OP_plus_uconst 52, DW_OP_deref_size 4, DW_OP_LLVM_convert 32 7, DW_OP_LLVM_convert 16 7, DW_OP_stack_value] $sp
	@DEBUG_VALUE: draw_main:cell_top <- [DW_OP_plus_uconst 56, DW_OP_deref_size 4, DW_OP_LLVM_convert 32 7, DW_OP_LLVM_convert 16 7, DW_OP_stack_value] $sp
	@DEBUG_VALUE: draw_main:cell_right <- [DW_OP_plus_uconst 60, DW_OP_deref_size 4, DW_OP_LLVM_convert 32 7, DW_OP_LLVM_convert 16 7, DW_OP_stack_value] $sp
	@DEBUG_VALUE: draw_main:cell_left <- [DW_OP_plus_uconst 64, DW_OP_deref_size 4, DW_OP_LLVM_convert 32 7, DW_OP_LLVM_convert 16 7, DW_OP_stack_value] $sp
	@DEBUG_VALUE: draw_main:bg_bottom <- [DW_OP_plus_uconst 88, DW_OP_deref_size 4, DW_OP_LLVM_convert 32 7, DW_OP_LLVM_convert 16 7, DW_OP_stack_value] $sp
	@DEBUG_VALUE: draw_main:obj <- [DW_OP_plus_uconst 92] [$sp+0]
	@DEBUG_VALUE: draw_main:table <- [DW_OP_plus_uconst 92] [$sp+0]
	@DEBUG_VALUE: lv_table_event:e <- [DW_OP_LLVM_entry_value 1] $r1
	@DEBUG_VALUE: lv_table_event:class_p <- [DW_OP_LLVM_entry_value 1] $r0
	.loc	12 718 17                       @ ../GUILib/src/widgets/lv_table.c:718:17
	add	r0, sp, #248
	add	r1, sp, #300
	movs	r2, #52
	bl	lv_memcpy
.Ltmp181:
	.loc	12 719 17                       @ ../GUILib/src/widgets/lv_table.c:719:17
	add	r0, sp, #184
	add	r1, sp, #216
	movs	r2, #32
	bl	lv_memcpy
.Ltmp182:
	.loc	12 0 17 is_stmt 0               @ ../GUILib/src/widgets/lv_table.c:0:17
	b	.LBB2_53
.Ltmp183:
.LBB2_51:                               @   in Loop: Header=BB2_23 Depth=2
	@DEBUG_VALUE: draw_main:cell <- [DW_OP_plus_uconst 76] [$sp+0]
	@DEBUG_VALUE: ctrl <- $r5
	@DEBUG_VALUE: cell_state <- $r0
	@DEBUG_VALUE: draw_main:state_ori <- [DW_OP_plus_uconst 24] [$sp+0]
	@DEBUG_VALUE: draw_main:cell_bottom <- [DW_OP_plus_uconst 52, DW_OP_deref_size 4, DW_OP_LLVM_convert 32 7, DW_OP_LLVM_convert 16 7, DW_OP_stack_value] $sp
	@DEBUG_VALUE: draw_main:cell_top <- [DW_OP_plus_uconst 56, DW_OP_deref_size 4, DW_OP_LLVM_convert 32 7, DW_OP_LLVM_convert 16 7, DW_OP_stack_value] $sp
	@DEBUG_VALUE: draw_main:cell_right <- [DW_OP_plus_uconst 60, DW_OP_deref_size 4, DW_OP_LLVM_convert 32 7, DW_OP_LLVM_convert 16 7, DW_OP_stack_value] $sp
	@DEBUG_VALUE: draw_main:cell_left <- [DW_OP_plus_uconst 64, DW_OP_deref_size 4, DW_OP_LLVM_convert 32 7, DW_OP_LLVM_convert 16 7, DW_OP_stack_value] $sp
	@DEBUG_VALUE: draw_main:bg_bottom <- [DW_OP_plus_uconst 88, DW_OP_deref_size 4, DW_OP_LLVM_convert 32 7, DW_OP_LLVM_convert 16 7, DW_OP_stack_value] $sp
	@DEBUG_VALUE: draw_main:obj <- [DW_OP_plus_uconst 92] [$sp+0]
	@DEBUG_VALUE: draw_main:table <- [DW_OP_plus_uconst 92] [$sp+0]
	@DEBUG_VALUE: lv_table_event:e <- [DW_OP_LLVM_entry_value 1] $r1
	@DEBUG_VALUE: lv_table_event:class_p <- [DW_OP_LLVM_entry_value 1] $r0
	adds	r0, #8
.Ltmp184:
.LBB2_52:                               @   in Loop: Header=BB2_23 Depth=2
	@DEBUG_VALUE: draw_main:cell <- [DW_OP_plus_uconst 76] [$sp+0]
	@DEBUG_VALUE: ctrl <- $r5
	@DEBUG_VALUE: draw_main:state_ori <- [DW_OP_plus_uconst 24] [$sp+0]
	@DEBUG_VALUE: draw_main:cell_bottom <- [DW_OP_plus_uconst 52, DW_OP_deref_size 4, DW_OP_LLVM_convert 32 7, DW_OP_LLVM_convert 16 7, DW_OP_stack_value] $sp
	@DEBUG_VALUE: draw_main:cell_top <- [DW_OP_plus_uconst 56, DW_OP_deref_size 4, DW_OP_LLVM_convert 32 7, DW_OP_LLVM_convert 16 7, DW_OP_stack_value] $sp
	@DEBUG_VALUE: draw_main:cell_right <- [DW_OP_plus_uconst 60, DW_OP_deref_size 4, DW_OP_LLVM_convert 32 7, DW_OP_LLVM_convert 16 7, DW_OP_stack_value] $sp
	@DEBUG_VALUE: draw_main:cell_left <- [DW_OP_plus_uconst 64, DW_OP_deref_size 4, DW_OP_LLVM_convert 32 7, DW_OP_LLVM_convert 16 7, DW_OP_stack_value] $sp
	@DEBUG_VALUE: draw_main:bg_bottom <- [DW_OP_plus_uconst 88, DW_OP_deref_size 4, DW_OP_LLVM_convert 32 7, DW_OP_LLVM_convert 16 7, DW_OP_stack_value] $sp
	@DEBUG_VALUE: draw_main:obj <- [DW_OP_plus_uconst 92] [$sp+0]
	@DEBUG_VALUE: draw_main:table <- [DW_OP_plus_uconst 92] [$sp+0]
	@DEBUG_VALUE: lv_table_event:e <- [DW_OP_LLVM_entry_value 1] $r1
	@DEBUG_VALUE: lv_table_event:class_p <- [DW_OP_LLVM_entry_value 1] $r0
	ldr.w	r10, [sp, #92]                  @ 4-byte Reload
	add.w	r8, sp, #248
.Ltmp185:
	.loc	12 724 33 is_stmt 1             @ ../GUILib/src/widgets/lv_table.c:724:33
	ldrh.w	r1, [r10, #34]
	.loc	12 723 28                       @ ../GUILib/src/widgets/lv_table.c:723:28
	strh.w	r0, [r10, #32]
	.loc	12 724 33                       @ ../GUILib/src/widgets/lv_table.c:724:33
	orr	r0, r1, #4
	strh.w	r0, [r10, #34]
	.loc	12 725 17                       @ ../GUILib/src/widgets/lv_table.c:725:17
	mov	r0, r8
	bl	lv_draw_rect_dsc_init
.Ltmp186:
	.loc	12 0 17 is_stmt 0               @ ../GUILib/src/widgets/lv_table.c:0:17
	add	r4, sp, #184
	.loc	12 726 17 is_stmt 1             @ ../GUILib/src/widgets/lv_table.c:726:17
	mov	r0, r4
	bl	lv_draw_label_dsc_init
.Ltmp187:
	.loc	12 727 17                       @ ../GUILib/src/widgets/lv_table.c:727:17
	mov	r0, r10
	mov.w	r1, #327680
	mov	r2, r8
	bl	lv_obj_init_draw_rect_dsc
.Ltmp188:
	.loc	12 728 17                       @ ../GUILib/src/widgets/lv_table.c:728:17
	mov	r0, r10
	mov.w	r1, #327680
	mov	r2, r4
	ldr	r4, [sp, #68]                   @ 4-byte Reload
	bl	lv_obj_init_draw_label_dsc
.Ltmp189:
	.loc	12 730 33                       @ ../GUILib/src/widgets/lv_table.c:730:33
	ldrh.w	r0, [r10, #34]
	.loc	12 729 28                       @ ../GUILib/src/widgets/lv_table.c:729:28
	ldr	r1, [sp, #24]                   @ 4-byte Reload
	.loc	12 730 33                       @ ../GUILib/src/widgets/lv_table.c:730:33
	bic	r0, r0, #4
	.loc	12 729 28                       @ ../GUILib/src/widgets/lv_table.c:729:28
	strh.w	r1, [r10, #32]
	.loc	12 730 33                       @ ../GUILib/src/widgets/lv_table.c:730:33
	strh.w	r0, [r10, #34]
.Ltmp190:
.LBB2_53:                               @   in Loop: Header=BB2_23 Depth=2
	@DEBUG_VALUE: draw_main:cell <- [DW_OP_plus_uconst 76] [$sp+0]
	@DEBUG_VALUE: ctrl <- $r5
	@DEBUG_VALUE: draw_main:state_ori <- [DW_OP_plus_uconst 24] [$sp+0]
	@DEBUG_VALUE: draw_main:cell_bottom <- [DW_OP_plus_uconst 52, DW_OP_deref_size 4, DW_OP_LLVM_convert 32 7, DW_OP_LLVM_convert 16 7, DW_OP_stack_value] $sp
	@DEBUG_VALUE: draw_main:cell_top <- [DW_OP_plus_uconst 56, DW_OP_deref_size 4, DW_OP_LLVM_convert 32 7, DW_OP_LLVM_convert 16 7, DW_OP_stack_value] $sp
	@DEBUG_VALUE: draw_main:cell_right <- [DW_OP_plus_uconst 60, DW_OP_deref_size 4, DW_OP_LLVM_convert 32 7, DW_OP_LLVM_convert 16 7, DW_OP_stack_value] $sp
	@DEBUG_VALUE: draw_main:cell_left <- [DW_OP_plus_uconst 64, DW_OP_deref_size 4, DW_OP_LLVM_convert 32 7, DW_OP_LLVM_convert 16 7, DW_OP_stack_value] $sp
	@DEBUG_VALUE: draw_main:bg_bottom <- [DW_OP_plus_uconst 88, DW_OP_deref_size 4, DW_OP_LLVM_convert 32 7, DW_OP_LLVM_convert 16 7, DW_OP_stack_value] $sp
	@DEBUG_VALUE: draw_main:obj <- [DW_OP_plus_uconst 92] [$sp+0]
	@DEBUG_VALUE: draw_main:table <- [DW_OP_plus_uconst 92] [$sp+0]
	@DEBUG_VALUE: lv_table_event:e <- [DW_OP_LLVM_entry_value 1] $r1
	@DEBUG_VALUE: lv_table_event:class_p <- [DW_OP_LLVM_entry_value 1] $r0
	.loc	12 0 33 is_stmt 0               @ ../GUILib/src/widgets/lv_table.c:0:33
	ldr	r6, [sp, #92]                   @ 4-byte Reload
	.loc	12 734 53 is_stmt 1             @ ../GUILib/src/widgets/lv_table.c:734:53
	ldr	r1, [sp, #72]                   @ 4-byte Reload
	.loc	12 734 45 is_stmt 0             @ ../GUILib/src/widgets/lv_table.c:734:45
	ldrh	r0, [r6, #36]
	.loc	12 735 13 is_stmt 1             @ ../GUILib/src/widgets/lv_table.c:735:13
	add	r2, sp, #112
	.loc	12 734 53                       @ ../GUILib/src/widgets/lv_table.c:734:53
	mla	r0, r4, r0, r1
	add	r4, sp, #104
	.loc	12 734 30 is_stmt 0             @ ../GUILib/src/widgets/lv_table.c:734:30
	str	r0, [sp, #168]
	.loc	12 735 13 is_stmt 1             @ ../GUILib/src/widgets/lv_table.c:735:13
	mov	r0, r6
	movs	r1, #26
	.loc	12 733 37                       @ ../GUILib/src/widgets/lv_table.c:733:37
	str	r4, [sp, #124]
	.loc	12 735 13                       @ ../GUILib/src/widgets/lv_table.c:735:13
	bl	lv_event_send
.Ltmp191:
	.loc	12 737 13                       @ ../GUILib/src/widgets/lv_table.c:737:13
	mov	r0, r4
	add	r1, sp, #372
	add	r2, sp, #248
	bl	lv_draw_rect
.Ltmp192:
	.loc	12 739 23                       @ ../GUILib/src/widgets/lv_table.c:739:23
	ldr	r0, [r6, #40]
	.loc	12 739 16 is_stmt 0             @ ../GUILib/src/widgets/lv_table.c:739:16
	ldr	r1, [sp, #88]                   @ 4-byte Reload
	ldr.w	r0, [r0, r1, lsl #2]
.Ltmp193:
	.loc	12 739 16                       @ ../GUILib/src/widgets/lv_table.c:739:16
	cmp	r0, #0
	beq	.LBB2_58
.Ltmp194:
@ %bb.54:                               @   in Loop: Header=BB2_23 Depth=2
	@DEBUG_VALUE: draw_main:cell <- [DW_OP_plus_uconst 76] [$sp+0]
	@DEBUG_VALUE: ctrl <- $r5
	@DEBUG_VALUE: draw_main:state_ori <- [DW_OP_plus_uconst 24] [$sp+0]
	@DEBUG_VALUE: draw_main:cell_bottom <- [DW_OP_plus_uconst 52, DW_OP_deref_size 4, DW_OP_LLVM_convert 32 7, DW_OP_LLVM_convert 16 7, DW_OP_stack_value] $sp
	@DEBUG_VALUE: draw_main:cell_top <- [DW_OP_plus_uconst 56, DW_OP_deref_size 4, DW_OP_LLVM_convert 32 7, DW_OP_LLVM_convert 16 7, DW_OP_stack_value] $sp
	@DEBUG_VALUE: draw_main:cell_right <- [DW_OP_plus_uconst 60, DW_OP_deref_size 4, DW_OP_LLVM_convert 32 7, DW_OP_LLVM_convert 16 7, DW_OP_stack_value] $sp
	@DEBUG_VALUE: draw_main:cell_left <- [DW_OP_plus_uconst 64, DW_OP_deref_size 4, DW_OP_LLVM_convert 32 7, DW_OP_LLVM_convert 16 7, DW_OP_stack_value] $sp
	@DEBUG_VALUE: draw_main:bg_bottom <- [DW_OP_plus_uconst 88, DW_OP_deref_size 4, DW_OP_LLVM_convert 32 7, DW_OP_LLVM_convert 16 7, DW_OP_stack_value] $sp
	@DEBUG_VALUE: draw_main:obj <- [DW_OP_plus_uconst 92] [$sp+0]
	@DEBUG_VALUE: draw_main:table <- [DW_OP_plus_uconst 92] [$sp+0]
	@DEBUG_VALUE: lv_table_event:e <- [DW_OP_LLVM_entry_value 1] $r1
	@DEBUG_VALUE: lv_table_event:class_p <- [DW_OP_LLVM_entry_value 1] $r0
	.loc	12 740 41 is_stmt 1             @ ../GUILib/src/widgets/lv_table.c:740:41
	ldrh.w	r1, [sp, #360]
	.loc	12 740 44 is_stmt 0             @ ../GUILib/src/widgets/lv_table.c:740:44
	ldr	r2, [sp, #64]                   @ 4-byte Reload
	.loc	12 741 41 is_stmt 1             @ ../GUILib/src/widgets/lv_table.c:741:41
	ldrh.w	r6, [sp, #364]
	.loc	12 740 44                       @ ../GUILib/src/widgets/lv_table.c:740:44
	add	r1, r2
	ldr	r2, [sp, #60]                   @ 4-byte Reload
	.loc	12 740 29 is_stmt 0             @ ../GUILib/src/widgets/lv_table.c:740:29
	strh.w	r1, [sp, #352]
	.loc	12 741 44 is_stmt 1             @ ../GUILib/src/widgets/lv_table.c:741:44
	adds	r4, r1, r2
	subs	r1, r6, r2
	.loc	12 742 41                       @ ../GUILib/src/widgets/lv_table.c:742:41
	ldrh.w	r2, [sp, #362]
	.loc	12 741 29                       @ ../GUILib/src/widgets/lv_table.c:741:29
	strh.w	r1, [sp, #356]
	.loc	12 742 44                       @ ../GUILib/src/widgets/lv_table.c:742:44
	ldr	r1, [sp, #56]                   @ 4-byte Reload
.Ltmp195:
	.loc	6 125 49                        @ ../GUILib/src/hal/../misc/lv_area.h:125:49
	subs	r6, r6, r4
.Ltmp196:
	.loc	12 742 44                       @ ../GUILib/src/widgets/lv_table.c:742:44
	add	r1, r2
	.loc	12 743 41                       @ ../GUILib/src/widgets/lv_table.c:743:41
	ldrh.w	r2, [sp, #366]
	.loc	12 742 29                       @ ../GUILib/src/widgets/lv_table.c:742:29
	strh.w	r1, [sp, #354]
	.loc	12 743 44                       @ ../GUILib/src/widgets/lv_table.c:743:44
	ldr	r1, [sp, #52]                   @ 4-byte Reload
.Ltmp197:
	.loc	6 125 49                        @ ../GUILib/src/hal/../misc/lv_area.h:125:49
	adds	r6, #1
.Ltmp198:
	.loc	12 743 44                       @ ../GUILib/src/widgets/lv_table.c:743:44
	subs	r1, r2, r1
	.loc	12 743 29 is_stmt 0             @ ../GUILib/src/widgets/lv_table.c:743:29
	strh.w	r1, [sp, #358]
.Ltmp199:
	@DEBUG_VALUE: crop <- [DW_OP_LLVM_convert 1 7, DW_OP_LLVM_convert 8 7, DW_OP_stack_value] undef
	.loc	12 750 67 is_stmt 1             @ ../GUILib/src/widgets/lv_table.c:750:67
	adds	r1, r0, #1
	.loc	12 751 75                       @ ../GUILib/src/widgets/lv_table.c:751:75
	ldrsh.w	r0, [sp, #202]
	.loc	12 750 86                       @ ../GUILib/src/widgets/lv_table.c:750:86
	ldr	r2, [sp, #216]
	.loc	12 751 47                       @ ../GUILib/src/widgets/lv_table.c:751:47
	ldrsh.w	r3, [sp, #204]
	@DEBUG_VALUE: lv_area_get_width:area_p <- [DW_OP_plus_uconst 352, DW_OP_stack_value] $sp
	.loc	12 750 17                       @ ../GUILib/src/widgets/lv_table.c:750:17
	sxth	r6, r6
	.loc	12 746 34                       @ ../GUILib/src/widgets/lv_table.c:746:34
	and	r4, r5, #2
.Ltmp200:
	@DEBUG_VALUE: draw_main:txt_flags <- $r4
	.loc	12 750 17                       @ ../GUILib/src/widgets/lv_table.c:750:17
	strd	r0, r6, [sp]
	add	r0, sp, #368
	str	r4, [sp, #8]
	bl	lv_txt_get_size
.Ltmp201:
	.loc	12 755 20                       @ ../GUILib/src/widgets/lv_table.c:755:20
	cbnz	r4, .LBB2_56
.Ltmp202:
@ %bb.55:                               @   in Loop: Header=BB2_23 Depth=2
	@DEBUG_VALUE: draw_main:cell <- [DW_OP_plus_uconst 76] [$sp+0]
	@DEBUG_VALUE: ctrl <- $r5
	@DEBUG_VALUE: draw_main:txt_flags <- $r4
	@DEBUG_VALUE: draw_main:state_ori <- [DW_OP_plus_uconst 24] [$sp+0]
	@DEBUG_VALUE: draw_main:cell_bottom <- [DW_OP_plus_uconst 52, DW_OP_deref_size 4, DW_OP_LLVM_convert 32 7, DW_OP_LLVM_convert 16 7, DW_OP_stack_value] $sp
	@DEBUG_VALUE: draw_main:cell_top <- [DW_OP_plus_uconst 56, DW_OP_deref_size 4, DW_OP_LLVM_convert 32 7, DW_OP_LLVM_convert 16 7, DW_OP_stack_value] $sp
	@DEBUG_VALUE: draw_main:cell_right <- [DW_OP_plus_uconst 60, DW_OP_deref_size 4, DW_OP_LLVM_convert 32 7, DW_OP_LLVM_convert 16 7, DW_OP_stack_value] $sp
	@DEBUG_VALUE: draw_main:cell_left <- [DW_OP_plus_uconst 64, DW_OP_deref_size 4, DW_OP_LLVM_convert 32 7, DW_OP_LLVM_convert 16 7, DW_OP_stack_value] $sp
	@DEBUG_VALUE: draw_main:bg_bottom <- [DW_OP_plus_uconst 88, DW_OP_deref_size 4, DW_OP_LLVM_convert 32 7, DW_OP_LLVM_convert 16 7, DW_OP_stack_value] $sp
	@DEBUG_VALUE: draw_main:obj <- [DW_OP_plus_uconst 92] [$sp+0]
	@DEBUG_VALUE: draw_main:table <- [DW_OP_plus_uconst 92] [$sp+0]
	@DEBUG_VALUE: lv_table_event:e <- [DW_OP_LLVM_entry_value 1] $r1
	@DEBUG_VALUE: lv_table_event:class_p <- [DW_OP_LLVM_entry_value 1] $r0
	.loc	12 756 71                       @ ../GUILib/src/widgets/lv_table.c:756:71
	ldrh.w	r1, [sp, #370]
	.loc	12 756 45 is_stmt 0             @ ../GUILib/src/widgets/lv_table.c:756:45
	ldrh.w	r0, [sp, #362]
	.loc	12 756 48                       @ ../GUILib/src/widgets/lv_table.c:756:48
	ldr	r2, [sp, #28]                   @ 4-byte Reload
	.loc	12 757 73 is_stmt 1             @ ../GUILib/src/widgets/lv_table.c:757:73
	add.w	r1, r1, r1, lsr #15
	.loc	12 756 48                       @ ../GUILib/src/widgets/lv_table.c:756:48
	add	r0, r2
	.loc	12 757 73                       @ ../GUILib/src/widgets/lv_table.c:757:73
	sxth	r1, r1
	.loc	12 756 60                       @ ../GUILib/src/widgets/lv_table.c:756:60
	sub.w	r2, r0, r1, asr #1
	.loc	12 757 60                       @ ../GUILib/src/widgets/lv_table.c:757:60
	add.w	r0, r0, r1, asr #1
	.loc	12 756 33                       @ ../GUILib/src/widgets/lv_table.c:756:33
	strh.w	r2, [sp, #354]
	.loc	12 757 33                       @ ../GUILib/src/widgets/lv_table.c:757:33
	strh.w	r0, [sp, #358]
.Ltmp203:
.LBB2_56:                               @   in Loop: Header=BB2_23 Depth=2
	@DEBUG_VALUE: draw_main:cell <- [DW_OP_plus_uconst 76] [$sp+0]
	@DEBUG_VALUE: ctrl <- $r5
	@DEBUG_VALUE: draw_main:txt_flags <- $r4
	@DEBUG_VALUE: draw_main:state_ori <- [DW_OP_plus_uconst 24] [$sp+0]
	@DEBUG_VALUE: draw_main:cell_bottom <- [DW_OP_plus_uconst 52, DW_OP_deref_size 4, DW_OP_LLVM_convert 32 7, DW_OP_LLVM_convert 16 7, DW_OP_stack_value] $sp
	@DEBUG_VALUE: draw_main:cell_top <- [DW_OP_plus_uconst 56, DW_OP_deref_size 4, DW_OP_LLVM_convert 32 7, DW_OP_LLVM_convert 16 7, DW_OP_stack_value] $sp
	@DEBUG_VALUE: draw_main:cell_right <- [DW_OP_plus_uconst 60, DW_OP_deref_size 4, DW_OP_LLVM_convert 32 7, DW_OP_LLVM_convert 16 7, DW_OP_stack_value] $sp
	@DEBUG_VALUE: draw_main:cell_left <- [DW_OP_plus_uconst 64, DW_OP_deref_size 4, DW_OP_LLVM_convert 32 7, DW_OP_LLVM_convert 16 7, DW_OP_stack_value] $sp
	@DEBUG_VALUE: draw_main:bg_bottom <- [DW_OP_plus_uconst 88, DW_OP_deref_size 4, DW_OP_LLVM_convert 32 7, DW_OP_LLVM_convert 16 7, DW_OP_stack_value] $sp
	@DEBUG_VALUE: draw_main:obj <- [DW_OP_plus_uconst 92] [$sp+0]
	@DEBUG_VALUE: draw_main:table <- [DW_OP_plus_uconst 92] [$sp+0]
	@DEBUG_VALUE: lv_table_event:e <- [DW_OP_LLVM_entry_value 1] $r1
	@DEBUG_VALUE: lv_table_event:class_p <- [DW_OP_LLVM_entry_value 1] $r0
	.loc	12 762 33                       @ ../GUILib/src/widgets/lv_table.c:762:33
	add	r0, sp, #96
	add	r1, sp, #372
	add	r2, sp, #360
	bl	_lv_area_intersect
.Ltmp204:
	@DEBUG_VALUE: label_mask_ok <- [DW_OP_LLVM_convert 1 7, DW_OP_LLVM_convert 8 7, DW_OP_stack_value] undef
	.loc	12 763 20                       @ ../GUILib/src/widgets/lv_table.c:763:20
	cbz	r0, .LBB2_58
.Ltmp205:
@ %bb.57:                               @   in Loop: Header=BB2_23 Depth=2
	@DEBUG_VALUE: draw_main:cell <- [DW_OP_plus_uconst 76] [$sp+0]
	@DEBUG_VALUE: ctrl <- $r5
	@DEBUG_VALUE: draw_main:txt_flags <- $r4
	@DEBUG_VALUE: draw_main:state_ori <- [DW_OP_plus_uconst 24] [$sp+0]
	@DEBUG_VALUE: draw_main:cell_bottom <- [DW_OP_plus_uconst 52, DW_OP_deref_size 4, DW_OP_LLVM_convert 32 7, DW_OP_LLVM_convert 16 7, DW_OP_stack_value] $sp
	@DEBUG_VALUE: draw_main:cell_top <- [DW_OP_plus_uconst 56, DW_OP_deref_size 4, DW_OP_LLVM_convert 32 7, DW_OP_LLVM_convert 16 7, DW_OP_stack_value] $sp
	@DEBUG_VALUE: draw_main:cell_right <- [DW_OP_plus_uconst 60, DW_OP_deref_size 4, DW_OP_LLVM_convert 32 7, DW_OP_LLVM_convert 16 7, DW_OP_stack_value] $sp
	@DEBUG_VALUE: draw_main:cell_left <- [DW_OP_plus_uconst 64, DW_OP_deref_size 4, DW_OP_LLVM_convert 32 7, DW_OP_LLVM_convert 16 7, DW_OP_stack_value] $sp
	@DEBUG_VALUE: draw_main:bg_bottom <- [DW_OP_plus_uconst 88, DW_OP_deref_size 4, DW_OP_LLVM_convert 32 7, DW_OP_LLVM_convert 16 7, DW_OP_stack_value] $sp
	@DEBUG_VALUE: draw_main:obj <- [DW_OP_plus_uconst 92] [$sp+0]
	@DEBUG_VALUE: draw_main:table <- [DW_OP_plus_uconst 92] [$sp+0]
	@DEBUG_VALUE: lv_table_event:e <- [DW_OP_LLVM_entry_value 1] $r1
	@DEBUG_VALUE: lv_table_event:class_p <- [DW_OP_LLVM_entry_value 1] $r0
	.loc	12 764 82                       @ ../GUILib/src/widgets/lv_table.c:764:82
	ldr	r0, [sp, #92]                   @ 4-byte Reload
	.loc	12 764 75 is_stmt 0             @ ../GUILib/src/widgets/lv_table.c:764:75
	ldr	r1, [sp, #88]                   @ 4-byte Reload
	.loc	12 764 82                       @ ../GUILib/src/widgets/lv_table.c:764:82
	ldr	r0, [r0, #40]
	.loc	12 764 21                       @ ../GUILib/src/widgets/lv_table.c:764:21
	add	r2, sp, #184
	.loc	12 764 75                       @ ../GUILib/src/widgets/lv_table.c:764:75
	ldr.w	r0, [r0, r1, lsl #2]
	.loc	12 764 21                       @ ../GUILib/src/widgets/lv_table.c:764:21
	add	r1, sp, #96
	.loc	12 764 98                       @ ../GUILib/src/widgets/lv_table.c:764:98
	adds	r3, r0, #1
	.loc	12 764 21                       @ ../GUILib/src/widgets/lv_table.c:764:21
	add	r0, sp, #352
	movs	r6, #0
	str	r6, [sp]
	bl	lv_draw_label
.Ltmp206:
.LBB2_58:                               @   in Loop: Header=BB2_23 Depth=2
	@DEBUG_VALUE: draw_main:cell <- [DW_OP_plus_uconst 76] [$sp+0]
	@DEBUG_VALUE: ctrl <- $r5
	@DEBUG_VALUE: draw_main:state_ori <- [DW_OP_plus_uconst 24] [$sp+0]
	@DEBUG_VALUE: draw_main:cell_bottom <- [DW_OP_plus_uconst 52, DW_OP_deref_size 4, DW_OP_LLVM_convert 32 7, DW_OP_LLVM_convert 16 7, DW_OP_stack_value] $sp
	@DEBUG_VALUE: draw_main:cell_top <- [DW_OP_plus_uconst 56, DW_OP_deref_size 4, DW_OP_LLVM_convert 32 7, DW_OP_LLVM_convert 16 7, DW_OP_stack_value] $sp
	@DEBUG_VALUE: draw_main:cell_right <- [DW_OP_plus_uconst 60, DW_OP_deref_size 4, DW_OP_LLVM_convert 32 7, DW_OP_LLVM_convert 16 7, DW_OP_stack_value] $sp
	@DEBUG_VALUE: draw_main:cell_left <- [DW_OP_plus_uconst 64, DW_OP_deref_size 4, DW_OP_LLVM_convert 32 7, DW_OP_LLVM_convert 16 7, DW_OP_stack_value] $sp
	@DEBUG_VALUE: draw_main:bg_bottom <- [DW_OP_plus_uconst 88, DW_OP_deref_size 4, DW_OP_LLVM_convert 32 7, DW_OP_LLVM_convert 16 7, DW_OP_stack_value] $sp
	@DEBUG_VALUE: draw_main:obj <- [DW_OP_plus_uconst 92] [$sp+0]
	@DEBUG_VALUE: draw_main:table <- [DW_OP_plus_uconst 92] [$sp+0]
	@DEBUG_VALUE: lv_table_event:e <- [DW_OP_LLVM_entry_value 1] $r1
	@DEBUG_VALUE: lv_table_event:class_p <- [DW_OP_LLVM_entry_value 1] $r0
	.loc	12 0 21                         @ ../GUILib/src/widgets/lv_table.c:0:21
	ldr	r4, [sp, #92]                   @ 4-byte Reload
	.loc	12 768 13 is_stmt 1             @ ../GUILib/src/widgets/lv_table.c:768:13
	movs	r1, #27
	mov	r0, r4
	add	r2, sp, #112
	bl	lv_event_send
.Ltmp207:
	@DEBUG_VALUE: draw_main:col <- [DW_OP_LLVM_convert 32 7, DW_OP_LLVM_convert 16 7, DW_OP_stack_value] $r7
	@DEBUG_VALUE: draw_main:cell <- undef
	.loc	12 655 35                       @ ../GUILib/src/widgets/lv_table.c:655:35
	ldrh.w	r12, [r4, #36]
	ldr.w	lr, [sp, #76]                   @ 4-byte Reload
.Ltmp208:
.LBB2_59:                               @   in Loop: Header=BB2_23 Depth=2
	@DEBUG_VALUE: ctrl <- $r5
	@DEBUG_VALUE: draw_main:state_ori <- [DW_OP_plus_uconst 24] [$sp+0]
	@DEBUG_VALUE: draw_main:cell_bottom <- [DW_OP_plus_uconst 52, DW_OP_deref_size 4, DW_OP_LLVM_convert 32 7, DW_OP_LLVM_convert 16 7, DW_OP_stack_value] $sp
	@DEBUG_VALUE: draw_main:cell_top <- [DW_OP_plus_uconst 56, DW_OP_deref_size 4, DW_OP_LLVM_convert 32 7, DW_OP_LLVM_convert 16 7, DW_OP_stack_value] $sp
	@DEBUG_VALUE: draw_main:cell_right <- [DW_OP_plus_uconst 60, DW_OP_deref_size 4, DW_OP_LLVM_convert 32 7, DW_OP_LLVM_convert 16 7, DW_OP_stack_value] $sp
	@DEBUG_VALUE: draw_main:cell_left <- [DW_OP_plus_uconst 64, DW_OP_deref_size 4, DW_OP_LLVM_convert 32 7, DW_OP_LLVM_convert 16 7, DW_OP_stack_value] $sp
	@DEBUG_VALUE: draw_main:bg_bottom <- [DW_OP_plus_uconst 88, DW_OP_deref_size 4, DW_OP_LLVM_convert 32 7, DW_OP_LLVM_convert 16 7, DW_OP_stack_value] $sp
	@DEBUG_VALUE: draw_main:obj <- [DW_OP_plus_uconst 92] [$sp+0]
	@DEBUG_VALUE: draw_main:table <- [DW_OP_plus_uconst 92] [$sp+0]
	@DEBUG_VALUE: lv_table_event:e <- [DW_OP_LLVM_entry_value 1] $r1
	@DEBUG_VALUE: lv_table_event:class_p <- [DW_OP_LLVM_entry_value 1] $r0
	.loc	12 655 47 is_stmt 0             @ ../GUILib/src/widgets/lv_table.c:655:47
	adds	r6, r7, #1
.Ltmp209:
	@DEBUG_VALUE: draw_main:col <- [DW_OP_plus_uconst 1, DW_OP_stack_value] undef
	.loc	12 0 0                          @ ../GUILib/src/widgets/lv_table.c:0:0
	add.w	r0, lr, r9
.Ltmp210:
	.loc	12 655 22                       @ ../GUILib/src/widgets/lv_table.c:655:22
	uxth	r1, r6
.Ltmp211:
	@DEBUG_VALUE: draw_main:col <- undef
	.loc	12 0 22                         @ ../GUILib/src/widgets/lv_table.c:0:22
	mov	r5, r1
.Ltmp212:
	.loc	12 655 9                        @ ../GUILib/src/widgets/lv_table.c:655:9
	cmp	r1, r12
.Ltmp213:
	.loc	12 0 0                          @ ../GUILib/src/widgets/lv_table.c:0:0
	add.w	lr, r0, #1
.Ltmp214:
	@DEBUG_VALUE: draw_main:col <- undef
	@DEBUG_VALUE: draw_main:cell <- $lr
	.loc	12 655 9                        @ ../GUILib/src/widgets/lv_table.c:655:9
	blo.w	.LBB2_23
.Ltmp215:
@ %bb.60:                               @   in Loop: Header=BB2_17 Depth=1
	@DEBUG_VALUE: draw_main:state_ori <- [DW_OP_plus_uconst 24] [$sp+0]
	@DEBUG_VALUE: draw_main:cell_bottom <- [DW_OP_plus_uconst 52, DW_OP_deref_size 4, DW_OP_LLVM_convert 32 7, DW_OP_LLVM_convert 16 7, DW_OP_stack_value] $sp
	@DEBUG_VALUE: draw_main:cell_top <- [DW_OP_plus_uconst 56, DW_OP_deref_size 4, DW_OP_LLVM_convert 32 7, DW_OP_LLVM_convert 16 7, DW_OP_stack_value] $sp
	@DEBUG_VALUE: draw_main:cell_right <- [DW_OP_plus_uconst 60, DW_OP_deref_size 4, DW_OP_LLVM_convert 32 7, DW_OP_LLVM_convert 16 7, DW_OP_stack_value] $sp
	@DEBUG_VALUE: draw_main:cell_left <- [DW_OP_plus_uconst 64, DW_OP_deref_size 4, DW_OP_LLVM_convert 32 7, DW_OP_LLVM_convert 16 7, DW_OP_stack_value] $sp
	@DEBUG_VALUE: draw_main:bg_bottom <- [DW_OP_plus_uconst 88, DW_OP_deref_size 4, DW_OP_LLVM_convert 32 7, DW_OP_LLVM_convert 16 7, DW_OP_stack_value] $sp
	@DEBUG_VALUE: draw_main:obj <- [DW_OP_plus_uconst 92] [$sp+0]
	@DEBUG_VALUE: draw_main:table <- [DW_OP_plus_uconst 92] [$sp+0]
	@DEBUG_VALUE: draw_main:cell <- $lr
	@DEBUG_VALUE: lv_table_event:e <- [DW_OP_LLVM_entry_value 1] $r1
	@DEBUG_VALUE: lv_table_event:class_p <- [DW_OP_LLVM_entry_value 1] $r0
	.loc	12 644 31 is_stmt 1             @ ../GUILib/src/widgets/lv_table.c:644:31
	ldr	r0, [sp, #92]                   @ 4-byte Reload
	ldr	r6, [sp, #68]                   @ 4-byte Reload
	ldrh	r0, [r0, #38]
.Ltmp216:
.LBB2_61:                               @   in Loop: Header=BB2_17 Depth=1
	@DEBUG_VALUE: draw_main:state_ori <- [DW_OP_plus_uconst 24] [$sp+0]
	@DEBUG_VALUE: draw_main:cell_bottom <- [DW_OP_plus_uconst 52, DW_OP_deref_size 4, DW_OP_LLVM_convert 32 7, DW_OP_LLVM_convert 16 7, DW_OP_stack_value] $sp
	@DEBUG_VALUE: draw_main:cell_top <- [DW_OP_plus_uconst 56, DW_OP_deref_size 4, DW_OP_LLVM_convert 32 7, DW_OP_LLVM_convert 16 7, DW_OP_stack_value] $sp
	@DEBUG_VALUE: draw_main:cell_right <- [DW_OP_plus_uconst 60, DW_OP_deref_size 4, DW_OP_LLVM_convert 32 7, DW_OP_LLVM_convert 16 7, DW_OP_stack_value] $sp
	@DEBUG_VALUE: draw_main:cell_left <- [DW_OP_plus_uconst 64, DW_OP_deref_size 4, DW_OP_LLVM_convert 32 7, DW_OP_LLVM_convert 16 7, DW_OP_stack_value] $sp
	@DEBUG_VALUE: draw_main:bg_bottom <- [DW_OP_plus_uconst 88, DW_OP_deref_size 4, DW_OP_LLVM_convert 32 7, DW_OP_LLVM_convert 16 7, DW_OP_stack_value] $sp
	@DEBUG_VALUE: draw_main:obj <- [DW_OP_plus_uconst 92] [$sp+0]
	@DEBUG_VALUE: draw_main:table <- [DW_OP_plus_uconst 92] [$sp+0]
	@DEBUG_VALUE: draw_main:cell <- $lr
	@DEBUG_VALUE: lv_table_event:e <- [DW_OP_LLVM_entry_value 1] $r1
	@DEBUG_VALUE: lv_table_event:class_p <- [DW_OP_LLVM_entry_value 1] $r0
	@DEBUG_VALUE: draw_main:cell <- $lr
	.loc	12 644 43 is_stmt 0             @ ../GUILib/src/widgets/lv_table.c:644:43
	adds	r6, #1
.Ltmp217:
	@DEBUG_VALUE: draw_main:row <- $r6
	.loc	12 644 5                        @ ../GUILib/src/widgets/lv_table.c:644:5
	cmp	r6, r0
	blo.w	.LBB2_17
	b	.LBB2_90
.Ltmp218:
.LBB2_62:
	@DEBUG_VALUE: lv_table_event:e <- $r6
	@DEBUG_VALUE: lv_table_event:obj <- $r4
	@DEBUG_VALUE: lv_table_event:table <- $r4
	@DEBUG_VALUE: lv_table_event:class_p <- [DW_OP_LLVM_entry_value 1] $r0
	.loc	12 483 8 is_stmt 1              @ ../GUILib/src/widgets/lv_table.c:483:8
	cmp	r7, #44
	beq	.LBB2_71
.Ltmp219:
@ %bb.63:
	@DEBUG_VALUE: lv_table_event:e <- $r6
	@DEBUG_VALUE: lv_table_event:obj <- $r4
	@DEBUG_VALUE: lv_table_event:table <- $r4
	@DEBUG_VALUE: lv_table_event:class_p <- [DW_OP_LLVM_entry_value 1] $r0
	cmp	r7, #42
	bne.w	.LBB2_90
.Ltmp220:
@ %bb.64:
	@DEBUG_VALUE: lv_table_event:e <- $r6
	@DEBUG_VALUE: lv_table_event:obj <- $r4
	@DEBUG_VALUE: lv_table_event:table <- $r4
	@DEBUG_VALUE: lv_table_event:class_p <- [DW_OP_LLVM_entry_value 1] $r0
	.loc	12 484 9                        @ ../GUILib/src/widgets/lv_table.c:484:9
	mov	r0, r4
	movs	r1, #0
	add	sp, #380
	pop.w	{r4, r5, r6, r7, r8, r9, r10, r11, lr}
.Ltmp221:
	@DEBUG_VALUE: lv_table_event:e <- [DW_OP_LLVM_entry_value 1] $r1
	b	refr_size
.Ltmp222:
.LBB2_65:
	@DEBUG_VALUE: lv_table_event:e <- $r6
	@DEBUG_VALUE: lv_table_event:obj <- $r4
	@DEBUG_VALUE: lv_table_event:table <- $r4
	@DEBUG_VALUE: lv_table_event:class_p <- [DW_OP_LLVM_entry_value 1] $r0
	@DEBUG_VALUE: get_pressed_cell:obj <- $r4
	@DEBUG_VALUE: get_pressed_cell:row <- undef
	@DEBUG_VALUE: get_pressed_cell:col <- undef
	@DEBUG_VALUE: get_pressed_cell:table <- $r4
	.loc	12 865 46                       @ ../GUILib/src/widgets/lv_table.c:865:46
	bl	lv_indev_get_act
.Ltmp223:
	.loc	12 865 28 is_stmt 0             @ ../GUILib/src/widgets/lv_table.c:865:28
	bl	lv_indev_get_type
.Ltmp224:
	@DEBUG_VALUE: get_pressed_cell:type <- undef
	.loc	12 866 38 is_stmt 1             @ ../GUILib/src/widgets/lv_table.c:866:38
	orr	r0, r0, #2
	cmp	r0, #3
	bne.w	.LBB2_90
.Ltmp225:
@ %bb.66:
	@DEBUG_VALUE: lv_table_event:e <- $r6
	@DEBUG_VALUE: get_pressed_cell:table <- $r4
	@DEBUG_VALUE: get_pressed_cell:obj <- $r4
	@DEBUG_VALUE: lv_table_event:obj <- $r4
	@DEBUG_VALUE: lv_table_event:table <- $r4
	@DEBUG_VALUE: lv_table_event:class_p <- [DW_OP_LLVM_entry_value 1] $r0
	.loc	12 873 24                       @ ../GUILib/src/widgets/lv_table.c:873:24
	bl	lv_indev_get_act
.Ltmp226:
	.loc	12 0 24 is_stmt 0               @ ../GUILib/src/widgets/lv_table.c:0:24
	add	r1, sp, #112
	.loc	12 873 5                        @ ../GUILib/src/widgets/lv_table.c:873:5
	bl	lv_indev_get_point
.Ltmp227:
	.loc	12 877 26 is_stmt 1             @ ../GUILib/src/widgets/lv_table.c:877:26
	ldrh.w	r5, [sp, #112]
	.loc	12 877 30 is_stmt 0             @ ../GUILib/src/widgets/lv_table.c:877:30
	mov	r0, r4
	bl	lv_obj_get_scroll_x
.Ltmp228:
	.loc	12 877 28                       @ ../GUILib/src/widgets/lv_table.c:877:28
	add	r5, r0
.Ltmp229:
	@DEBUG_VALUE: lv_obj_get_style_base_dir:part <- 0
	@DEBUG_VALUE: lv_obj_get_style_base_dir:obj <- $r4
	@DEBUG_VALUE: x <- $r5
	.loc	20 189 26 is_stmt 1             @ ../GUILib/src/widgets/../core/lv_obj_style_gen.h:189:26
	mov	r0, r4
	movs	r1, #0
	movw	r2, #5226
	bl	lv_obj_get_style_prop
.Ltmp230:
	@DEBUG_VALUE: lv_obj_get_style_base_dir:v <- $r0
	.loc	20 190 12                       @ ../GUILib/src/widgets/../core/lv_obj_style_gen.h:190:12
	uxtb	r0, r0
.Ltmp231:
	.loc	12 879 12                       @ ../GUILib/src/widgets/lv_table.c:879:12
	cmp	r0, #1
	bne	.LBB2_80
.Ltmp232:
@ %bb.67:
	@DEBUG_VALUE: lv_table_event:e <- $r6
	@DEBUG_VALUE: x <- $r5
	@DEBUG_VALUE: get_pressed_cell:table <- $r4
	@DEBUG_VALUE: get_pressed_cell:obj <- $r4
	@DEBUG_VALUE: lv_table_event:obj <- $r4
	@DEBUG_VALUE: lv_table_event:table <- $r4
	@DEBUG_VALUE: lv_table_event:class_p <- [DW_OP_LLVM_entry_value 1] $r0
	.loc	12 880 29                       @ ../GUILib/src/widgets/lv_table.c:880:29
	ldrh	r6, [r4, #24]
.Ltmp233:
	@DEBUG_VALUE: lv_table_event:e <- [DW_OP_LLVM_entry_value 1] $r1
	@DEBUG_VALUE: lv_obj_get_style_pad_right:part <- 0
	@DEBUG_VALUE: lv_obj_get_style_pad_right:obj <- $r4
	.loc	20 111 26                       @ ../GUILib/src/widgets/../core/lv_obj_style_gen.h:111:26
	mov	r0, r4
	movs	r1, #0
	movw	r2, #6163
	bl	lv_obj_get_style_prop
.Ltmp234:
	@DEBUG_VALUE: lv_obj_get_style_pad_right:v <- $r0
	.loc	12 880 32                       @ ../GUILib/src/widgets/lv_table.c:880:32
	subs	r1, r6, r5
	.loc	12 880 80 is_stmt 0             @ ../GUILib/src/widgets/lv_table.c:880:80
	subs	r0, r1, r0
.Ltmp235:
	@DEBUG_VALUE: x <- $r0
	.loc	12 0 80                         @ ../GUILib/src/widgets/lv_table.c:0:80
	b	.LBB2_81
.Ltmp236:
.LBB2_68:
	@DEBUG_VALUE: lv_table_event:e <- $r6
	@DEBUG_VALUE: lv_table_event:obj <- $r4
	@DEBUG_VALUE: lv_table_event:table <- $r4
	@DEBUG_VALUE: lv_table_event:class_p <- [DW_OP_LLVM_entry_value 1] $r0
	.loc	12 510 9 is_stmt 1              @ ../GUILib/src/widgets/lv_table.c:510:9
	mov	r0, r4
	movw	r5, #65535
	bl	lv_obj_invalidate
.Ltmp237:
	.loc	12 511 30                       @ ../GUILib/src/widgets/lv_table.c:511:30
	bl	lv_indev_get_act
.Ltmp238:
	@DEBUG_VALUE: indev <- $r0
	.loc	12 512 33                       @ ../GUILib/src/widgets/lv_table.c:512:33
	bl	lv_indev_get_scroll_obj
.Ltmp239:
	.loc	12 513 19                       @ ../GUILib/src/widgets/lv_table.c:513:19
	ldrh	r1, [r4, #52]
	.loc	12 513 49 is_stmt 0             @ ../GUILib/src/widgets/lv_table.c:513:49
	cmp	r1, r5
.Ltmp240:
	@DEBUG_VALUE: scroll_obj <- $r0
	bne	.LBB2_93
.Ltmp241:
.LBB2_69:
	@DEBUG_VALUE: lv_table_event:e <- $r6
	@DEBUG_VALUE: lv_table_event:obj <- $r4
	@DEBUG_VALUE: lv_table_event:table <- $r4
	@DEBUG_VALUE: lv_table_event:class_p <- [DW_OP_LLVM_entry_value 1] $r0
	.loc	12 518 56 is_stmt 1             @ ../GUILib/src/widgets/lv_table.c:518:56
	bl	lv_indev_get_act
.Ltmp242:
	.loc	12 518 38 is_stmt 0             @ ../GUILib/src/widgets/lv_table.c:518:38
	bl	lv_indev_get_type
.Ltmp243:
	@DEBUG_VALUE: indev_type <- undef
	.loc	12 519 48 is_stmt 1             @ ../GUILib/src/widgets/lv_table.c:519:48
	orr	r0, r0, #2
	cmp	r0, #3
.Ltmp244:
	.loc	12 520 28                       @ ../GUILib/src/widgets/lv_table.c:520:28
	itt	eq
	strheq	r5, [r4, #52]
	.loc	12 521 28                       @ ../GUILib/src/widgets/lv_table.c:521:28
	strheq	r5, [r4, #54]
	b	.LBB2_90
.Ltmp245:
.LBB2_70:
	@DEBUG_VALUE: lv_table_event:e <- $r6
	@DEBUG_VALUE: lv_table_event:obj <- $r4
	@DEBUG_VALUE: lv_table_event:table <- $r4
	@DEBUG_VALUE: lv_table_event:class_p <- [DW_OP_LLVM_entry_value 1] $r0
	.loc	12 525 9                        @ ../GUILib/src/widgets/lv_table.c:525:9
	mov	r0, r4
	b	.LBB2_92
.Ltmp246:
.LBB2_71:
	@DEBUG_VALUE: lv_table_event:e <- $r6
	@DEBUG_VALUE: lv_table_event:obj <- $r4
	@DEBUG_VALUE: lv_table_event:table <- $r4
	@DEBUG_VALUE: lv_table_event:class_p <- [DW_OP_LLVM_entry_value 1] $r0
	.loc	12 487 26                       @ ../GUILib/src/widgets/lv_table.c:487:26
	mov	r0, r6
	movw	r5, #65535
	bl	lv_event_get_param
.Ltmp247:
	.loc	12 490 31                       @ ../GUILib/src/widgets/lv_table.c:490:31
	ldrh	r2, [r4, #36]
.Ltmp248:
	@DEBUG_VALUE: i <- 0
	@DEBUG_VALUE: w <- undef
	@DEBUG_VALUE: p <- $r0
	.loc	12 0 31 is_stmt 0               @ ../GUILib/src/widgets/lv_table.c:0:31
	movw	r1, #65535
.Ltmp249:
	.loc	12 490 9                        @ ../GUILib/src/widgets/lv_table.c:490:9
	cbz	r2, .LBB2_75
.Ltmp250:
@ %bb.72:
	@DEBUG_VALUE: lv_table_event:e <- $r6
	@DEBUG_VALUE: lv_table_event:obj <- $r4
	@DEBUG_VALUE: lv_table_event:table <- $r4
	@DEBUG_VALUE: p <- $r0
	@DEBUG_VALUE: i <- 0
	@DEBUG_VALUE: lv_table_event:class_p <- [DW_OP_LLVM_entry_value 1] $r0
	.loc	12 0 9                          @ ../GUILib/src/widgets/lv_table.c:0:9
	ldr	r1, [r4, #48]
	movs	r3, #0
	movs	r6, #0
.Ltmp251:
	@DEBUG_VALUE: lv_table_event:e <- [DW_OP_LLVM_entry_value 1] $r1
	.p2align	2
.LBB2_73:                               @ =>This Inner Loop Header: Depth=1
	@DEBUG_VALUE: lv_table_event:obj <- $r4
	@DEBUG_VALUE: lv_table_event:table <- $r4
	@DEBUG_VALUE: p <- $r0
	@DEBUG_VALUE: lv_table_event:e <- [DW_OP_LLVM_entry_value 1] $r1
	@DEBUG_VALUE: lv_table_event:class_p <- [DW_OP_LLVM_entry_value 1] $r0
	@DEBUG_VALUE: i <- $r3
	.loc	12 490 50                       @ ../GUILib/src/widgets/lv_table.c:490:50
	ldrh.w	r7, [r1, r3, lsl #1]
	.loc	12 490 41                       @ ../GUILib/src/widgets/lv_table.c:490:41
	adds	r3, #1
.Ltmp252:
	@DEBUG_VALUE: i <- $r3
	.loc	12 490 47                       @ ../GUILib/src/widgets/lv_table.c:490:47
	add	r7, r6
.Ltmp253:
	@DEBUG_VALUE: w <- [DW_OP_LLVM_convert 32 7, DW_OP_LLVM_convert 16 7, DW_OP_stack_value] undef
	.loc	12 490 9                        @ ../GUILib/src/widgets/lv_table.c:490:9
	cmp	r3, r2
.Ltmp254:
	.loc	12 490 9                        @ ../GUILib/src/widgets/lv_table.c:490:9
	sxth	r6, r7
.Ltmp255:
	@DEBUG_VALUE: w <- undef
	.loc	12 490 9                        @ ../GUILib/src/widgets/lv_table.c:490:9
	blo	.LBB2_73
.Ltmp256:
@ %bb.74:
	@DEBUG_VALUE: lv_table_event:obj <- $r4
	@DEBUG_VALUE: lv_table_event:table <- $r4
	@DEBUG_VALUE: i <- $r3
	@DEBUG_VALUE: p <- $r0
	@DEBUG_VALUE: lv_table_event:e <- [DW_OP_LLVM_entry_value 1] $r1
	@DEBUG_VALUE: lv_table_event:class_p <- [DW_OP_LLVM_entry_value 1] $r0
	.loc	12 493 31 is_stmt 1             @ ../GUILib/src/widgets/lv_table.c:493:31
	subs	r1, r7, #1
.Ltmp257:
.LBB2_75:
	@DEBUG_VALUE: lv_table_event:obj <- $r4
	@DEBUG_VALUE: lv_table_event:table <- $r4
	@DEBUG_VALUE: p <- $r0
	@DEBUG_VALUE: lv_table_event:class_p <- [DW_OP_LLVM_entry_value 1] $r0
	@DEBUG_VALUE: i <- 0
	@DEBUG_VALUE: h <- undef
	ldrh	r2, [r4, #38]
.Ltmp258:
	.loc	12 493 9 is_stmt 0              @ ../GUILib/src/widgets/lv_table.c:493:9
	cbz	r2, .LBB2_79
.Ltmp259:
@ %bb.76:
	@DEBUG_VALUE: lv_table_event:obj <- $r4
	@DEBUG_VALUE: lv_table_event:table <- $r4
	@DEBUG_VALUE: p <- $r0
	@DEBUG_VALUE: i <- 0
	@DEBUG_VALUE: lv_table_event:class_p <- [DW_OP_LLVM_entry_value 1] $r0
	.loc	12 0 9                          @ ../GUILib/src/widgets/lv_table.c:0:9
	ldr	r3, [r4, #44]
	movs	r7, #0
	movs	r5, #0
.Ltmp260:
	.p2align	2
.LBB2_77:                               @ =>This Inner Loop Header: Depth=1
	@DEBUG_VALUE: lv_table_event:obj <- $r4
	@DEBUG_VALUE: lv_table_event:table <- $r4
	@DEBUG_VALUE: p <- $r0
	@DEBUG_VALUE: lv_table_event:class_p <- [DW_OP_LLVM_entry_value 1] $r0
	@DEBUG_VALUE: i <- $r7
	.loc	12 493 50                       @ ../GUILib/src/widgets/lv_table.c:493:50
	ldrh.w	r6, [r3, r7, lsl #1]
	.loc	12 493 41                       @ ../GUILib/src/widgets/lv_table.c:493:41
	adds	r7, #1
.Ltmp261:
	@DEBUG_VALUE: i <- $r7
	.loc	12 493 47                       @ ../GUILib/src/widgets/lv_table.c:493:47
	add	r6, r5
.Ltmp262:
	@DEBUG_VALUE: h <- [DW_OP_LLVM_convert 32 7, DW_OP_LLVM_convert 16 7, DW_OP_stack_value] undef
	.loc	12 493 9                        @ ../GUILib/src/widgets/lv_table.c:493:9
	cmp	r7, r2
.Ltmp263:
	.loc	12 493 9                        @ ../GUILib/src/widgets/lv_table.c:493:9
	sxth	r5, r6
.Ltmp264:
	@DEBUG_VALUE: h <- undef
	.loc	12 493 9                        @ ../GUILib/src/widgets/lv_table.c:493:9
	blo	.LBB2_77
.Ltmp265:
@ %bb.78:
	@DEBUG_VALUE: i <- $r7
	@DEBUG_VALUE: lv_table_event:obj <- $r4
	@DEBUG_VALUE: lv_table_event:table <- $r4
	@DEBUG_VALUE: p <- $r0
	@DEBUG_VALUE: lv_table_event:class_p <- [DW_OP_LLVM_entry_value 1] $r0
	.loc	12 495 16 is_stmt 1             @ ../GUILib/src/widgets/lv_table.c:495:16
	subs	r5, r6, #1
.Ltmp266:
.LBB2_79:
	@DEBUG_VALUE: lv_table_event:obj <- $r4
	@DEBUG_VALUE: lv_table_event:table <- $r4
	@DEBUG_VALUE: p <- $r0
	@DEBUG_VALUE: lv_table_event:class_p <- [DW_OP_LLVM_entry_value 1] $r0
	.loc	12 495 14 is_stmt 0             @ ../GUILib/src/widgets/lv_table.c:495:14
	strh	r1, [r0]
	.loc	12 496 14 is_stmt 1             @ ../GUILib/src/widgets/lv_table.c:496:14
	strh	r5, [r0, #2]
	b	.LBB2_90
.Ltmp267:
.LBB2_80:
	@DEBUG_VALUE: lv_table_event:e <- $r6
	@DEBUG_VALUE: x <- $r5
	@DEBUG_VALUE: get_pressed_cell:table <- $r4
	@DEBUG_VALUE: get_pressed_cell:obj <- $r4
	@DEBUG_VALUE: lv_table_event:obj <- $r4
	@DEBUG_VALUE: lv_table_event:table <- $r4
	@DEBUG_VALUE: lv_table_event:class_p <- [DW_OP_LLVM_entry_value 1] $r0
	.loc	12 883 30                       @ ../GUILib/src/widgets/lv_table.c:883:30
	ldrh	r0, [r4, #20]
.Ltmp268:
	.loc	20 105 26                       @ ../GUILib/src/widgets/../core/lv_obj_style_gen.h:105:26
	movs	r1, #0
.Ltmp269:
	.loc	12 883 15                       @ ../GUILib/src/widgets/lv_table.c:883:15
	subs	r5, r5, r0
.Ltmp270:
	@DEBUG_VALUE: lv_obj_get_style_pad_left:part <- 0
	@DEBUG_VALUE: lv_obj_get_style_pad_left:obj <- $r4
	@DEBUG_VALUE: x <- $r5
	.loc	20 105 26                       @ ../GUILib/src/widgets/../core/lv_obj_style_gen.h:105:26
	mov	r0, r4
	movw	r2, #6162
	bl	lv_obj_get_style_prop
.Ltmp271:
	@DEBUG_VALUE: lv_obj_get_style_pad_left:v <- $r0
	.loc	12 884 15                       @ ../GUILib/src/widgets/lv_table.c:884:15
	subs	r0, r5, r0
.Ltmp272:
	@DEBUG_VALUE: x <- $r0
.LBB2_81:
	@DEBUG_VALUE: get_pressed_cell:table <- $r4
	@DEBUG_VALUE: get_pressed_cell:obj <- $r4
	@DEBUG_VALUE: lv_table_event:obj <- $r4
	@DEBUG_VALUE: lv_table_event:table <- $r4
	@DEBUG_VALUE: x <- $r0
	@DEBUG_VALUE: lv_table_event:class_p <- [DW_OP_LLVM_entry_value 1] $r0
	@DEBUG_VALUE: x <- $r0
	@DEBUG_VALUE: get_pressed_cell:tmp <- undef
	.loc	12 889 37                       @ ../GUILib/src/widgets/lv_table.c:889:37
	ldrh.w	r8, [r4, #36]
.Ltmp273:
	.loc	12 889 9 is_stmt 0              @ ../GUILib/src/widgets/lv_table.c:889:9
	cmp.w	r8, #0
	beq	.LBB2_83
.Ltmp274:
@ %bb.82:
	@DEBUG_VALUE: get_pressed_cell:table <- $r4
	@DEBUG_VALUE: get_pressed_cell:obj <- $r4
	@DEBUG_VALUE: lv_table_event:obj <- $r4
	@DEBUG_VALUE: lv_table_event:table <- $r4
	@DEBUG_VALUE: x <- $r0
	@DEBUG_VALUE: lv_table_event:class_p <- [DW_OP_LLVM_entry_value 1] $r0
	.loc	12 0 9                          @ ../GUILib/src/widgets/lv_table.c:0:9
	ldr	r3, [r4, #48]
	sxth	r0, r0
.Ltmp275:
	.loc	12 890 20 is_stmt 1             @ ../GUILib/src/widgets/lv_table.c:890:20
	ldrsh.w	r1, [r3]
.Ltmp276:
	@DEBUG_VALUE: get_pressed_cell:tmp <- [DW_OP_LLVM_convert 16 7, DW_OP_LLVM_convert 32 7, DW_OP_LLVM_convert 32 7, DW_OP_LLVM_convert 16 7, DW_OP_stack_value] $r1
	.loc	12 891 16                       @ ../GUILib/src/widgets/lv_table.c:891:16
	cmp	r1, r0
	ble	.LBB2_96
.Ltmp277:
.LBB2_83:
	@DEBUG_VALUE: get_pressed_cell:table <- $r4
	@DEBUG_VALUE: get_pressed_cell:obj <- $r4
	@DEBUG_VALUE: lv_table_event:obj <- $r4
	@DEBUG_VALUE: lv_table_event:table <- $r4
	@DEBUG_VALUE: lv_table_event:class_p <- [DW_OP_LLVM_entry_value 1] $r0
	.loc	12 0 16 is_stmt 0               @ ../GUILib/src/widgets/lv_table.c:0:16
	mov.w	r8, #0
.Ltmp278:
.LBB2_84:
	@DEBUG_VALUE: get_pressed_cell:table <- $r4
	@DEBUG_VALUE: get_pressed_cell:obj <- $r4
	@DEBUG_VALUE: lv_table_event:obj <- $r4
	@DEBUG_VALUE: lv_table_event:table <- $r4
	@DEBUG_VALUE: lv_table_event:class_p <- [DW_OP_LLVM_entry_value 1] $r0
	.loc	12 896 26 is_stmt 1             @ ../GUILib/src/widgets/lv_table.c:896:26
	ldrh.w	r7, [sp, #114]
	.loc	12 896 30 is_stmt 0             @ ../GUILib/src/widgets/lv_table.c:896:30
	mov	r0, r4
	bl	lv_obj_get_scroll_y
.Ltmp279:
	.loc	12 897 26 is_stmt 1             @ ../GUILib/src/widgets/lv_table.c:897:26
	ldrh	r6, [r4, #22]
	.loc	12 896 30                       @ ../GUILib/src/widgets/lv_table.c:896:30
	mov	r5, r0
.Ltmp280:
	@DEBUG_VALUE: y <- undef
	@DEBUG_VALUE: lv_obj_get_style_pad_top:part <- 0
	@DEBUG_VALUE: lv_obj_get_style_pad_top:obj <- $r4
	.loc	20 93 26                        @ ../GUILib/src/widgets/../core/lv_obj_style_gen.h:93:26
	mov	r0, r4
	movs	r1, #0
	movw	r2, #6160
	bl	lv_obj_get_style_prop
.Ltmp281:
	.loc	12 903 37                       @ ../GUILib/src/widgets/lv_table.c:903:37
	ldrh	r1, [r4, #38]
.Ltmp282:
	@DEBUG_VALUE: lv_obj_get_style_pad_top:v <- $r0
	@DEBUG_VALUE: lv_obj_get_style_pad_top:part <- 0
	@DEBUG_VALUE: lv_obj_get_style_pad_top:obj <- $r4
	@DEBUG_VALUE: get_pressed_cell:tmp <- undef
	.loc	12 903 9 is_stmt 0              @ ../GUILib/src/widgets/lv_table.c:903:9
	cbz	r1, .LBB2_86
.Ltmp283:
@ %bb.85:
	@DEBUG_VALUE: get_pressed_cell:table <- $r4
	@DEBUG_VALUE: get_pressed_cell:obj <- $r4
	@DEBUG_VALUE: lv_table_event:obj <- $r4
	@DEBUG_VALUE: lv_table_event:table <- $r4
	@DEBUG_VALUE: lv_table_event:class_p <- [DW_OP_LLVM_entry_value 1] $r0
	.loc	12 896 28 is_stmt 1             @ ../GUILib/src/widgets/lv_table.c:896:28
	adds	r2, r5, r7
.Ltmp284:
	@DEBUG_VALUE: y <- $r2
	.loc	12 0 28 is_stmt 0               @ ../GUILib/src/widgets/lv_table.c:0:28
	ldr	r7, [r4, #44]
	.loc	12 897 11 is_stmt 1             @ ../GUILib/src/widgets/lv_table.c:897:11
	subs	r2, r2, r6
.Ltmp285:
	@DEBUG_VALUE: y <- $r2
	.loc	12 898 11                       @ ../GUILib/src/widgets/lv_table.c:898:11
	subs	r0, r2, r0
.Ltmp286:
	@DEBUG_VALUE: y <- $r0
	.loc	12 904 20                       @ ../GUILib/src/widgets/lv_table.c:904:20
	ldrsh.w	r2, [r7]
.Ltmp287:
	@DEBUG_VALUE: get_pressed_cell:tmp <- [DW_OP_LLVM_convert 16 7, DW_OP_LLVM_convert 32 7, DW_OP_LLVM_convert 32 7, DW_OP_LLVM_convert 16 7, DW_OP_stack_value] $r2
	.loc	12 898 11                       @ ../GUILib/src/widgets/lv_table.c:898:11
	sxth	r0, r0
.Ltmp288:
	.loc	12 905 16                       @ ../GUILib/src/widgets/lv_table.c:905:16
	cmp	r2, r0
	ble	.LBB2_100
.Ltmp289:
.LBB2_86:
	@DEBUG_VALUE: get_pressed_cell:table <- $r4
	@DEBUG_VALUE: get_pressed_cell:obj <- $r4
	@DEBUG_VALUE: lv_table_event:obj <- $r4
	@DEBUG_VALUE: lv_table_event:table <- $r4
	@DEBUG_VALUE: lv_table_event:class_p <- [DW_OP_LLVM_entry_value 1] $r0
	.loc	12 0 16 is_stmt 0               @ ../GUILib/src/widgets/lv_table.c:0:16
	movs	r1, #0
.Ltmp290:
.LBB2_87:
	@DEBUG_VALUE: lv_table_event:obj <- $r4
	@DEBUG_VALUE: lv_table_event:table <- $r4
	@DEBUG_VALUE: lv_table_event:class_p <- [DW_OP_LLVM_entry_value 1] $r0
	@DEBUG_VALUE: pr_res <- undef
	.loc	12 503 43 is_stmt 1             @ ../GUILib/src/widgets/lv_table.c:503:43
	ldrh	r0, [r4, #52]
.Ltmp291:
	@DEBUG_VALUE: col <- undef
	.loc	12 503 58 is_stmt 0             @ ../GUILib/src/widgets/lv_table.c:503:58
	cmp	r0, r8
	bne	.LBB2_89
.Ltmp292:
@ %bb.88:
	@DEBUG_VALUE: lv_table_event:obj <- $r4
	@DEBUG_VALUE: lv_table_event:table <- $r4
	@DEBUG_VALUE: lv_table_event:class_p <- [DW_OP_LLVM_entry_value 1] $r0
	.loc	12 503 68                       @ ../GUILib/src/widgets/lv_table.c:503:68
	ldrh	r0, [r4, #54]
.Ltmp293:
	@DEBUG_VALUE: row <- undef
	.loc	12 503 12                       @ ../GUILib/src/widgets/lv_table.c:503:12
	cmp	r0, r1
	beq	.LBB2_90
.Ltmp294:
.LBB2_89:
	@DEBUG_VALUE: lv_table_event:obj <- $r4
	@DEBUG_VALUE: lv_table_event:table <- $r4
	@DEBUG_VALUE: lv_table_event:class_p <- [DW_OP_LLVM_entry_value 1] $r0
	@DEBUG_VALUE: col <- undef
	.loc	12 506 13 is_stmt 1             @ ../GUILib/src/widgets/lv_table.c:506:13
	mov	r0, r4
	.loc	12 504 28                       @ ../GUILib/src/widgets/lv_table.c:504:28
	strh.w	r8, [r4, #52]
.Ltmp295:
	@DEBUG_VALUE: row <- undef
	.loc	12 505 28                       @ ../GUILib/src/widgets/lv_table.c:505:28
	strh	r1, [r4, #54]
	.loc	12 506 13                       @ ../GUILib/src/widgets/lv_table.c:506:13
	bl	lv_obj_invalidate
.Ltmp296:
.LBB2_90:
	@DEBUG_VALUE: lv_table_event:class_p <- [DW_OP_LLVM_entry_value 1] $r0
	.loc	12 585 1                        @ ../GUILib/src/widgets/lv_table.c:585:1
	add	sp, #380
	pop.w	{r4, r5, r6, r7, r8, r9, r10, r11, pc}
.Ltmp297:
.LBB2_91:
	@DEBUG_VALUE: lv_table_event:e <- $r6
	@DEBUG_VALUE: lv_table_event:obj <- $r4
	@DEBUG_VALUE: lv_table_event:table <- $r4
	@DEBUG_VALUE: col <- [DW_OP_LLVM_convert 16 7, DW_OP_LLVM_convert 32 7, DW_OP_stack_value] $r1
	@DEBUG_VALUE: lv_table_event:class_p <- [DW_OP_LLVM_entry_value 1] $r0
	.loc	12 0 1 is_stmt 0                @ ../GUILib/src/widgets/lv_table.c:0:1
	movs	r1, #0
.Ltmp298:
	.loc	12 534 13 is_stmt 1             @ ../GUILib/src/widgets/lv_table.c:534:13
	mov	r0, r4
	.loc	12 532 28                       @ ../GUILib/src/widgets/lv_table.c:532:28
	str	r1, [r4, #52]
.Ltmp299:
.LBB2_92:
	@DEBUG_VALUE: lv_table_event:e <- $r6
	@DEBUG_VALUE: lv_table_event:obj <- $r4
	@DEBUG_VALUE: lv_table_event:table <- $r4
	@DEBUG_VALUE: lv_table_event:class_p <- [DW_OP_LLVM_entry_value 1] $r0
	.loc	12 0 0 is_stmt 0                @ ../GUILib/src/widgets/lv_table.c:0:0
	add	sp, #380
	pop.w	{r4, r5, r6, r7, r8, r9, r10, r11, lr}
.Ltmp300:
	@DEBUG_VALUE: lv_table_event:e <- [DW_OP_LLVM_entry_value 1] $r1
	b	lv_obj_invalidate
.Ltmp301:
.LBB2_93:
	@DEBUG_VALUE: lv_table_event:e <- $r6
	@DEBUG_VALUE: lv_table_event:obj <- $r4
	@DEBUG_VALUE: lv_table_event:table <- $r4
	@DEBUG_VALUE: scroll_obj <- $r0
	@DEBUG_VALUE: lv_table_event:class_p <- [DW_OP_LLVM_entry_value 1] $r0
	.loc	12 513 89 is_stmt 1             @ ../GUILib/src/widgets/lv_table.c:513:89
	cmp	r0, #0
	bne.w	.LBB2_69
.Ltmp302:
@ %bb.94:
	@DEBUG_VALUE: lv_table_event:e <- $r6
	@DEBUG_VALUE: lv_table_event:obj <- $r4
	@DEBUG_VALUE: lv_table_event:table <- $r4
	@DEBUG_VALUE: scroll_obj <- $r0
	@DEBUG_VALUE: lv_table_event:class_p <- [DW_OP_LLVM_entry_value 1] $r0
	.loc	12 0 0 is_stmt 0                @ ../GUILib/src/widgets/lv_table.c:0:0
	ldrh	r0, [r4, #54]
.Ltmp303:
	.loc	12 513 89                       @ ../GUILib/src/widgets/lv_table.c:513:89
	cmp	r0, r5
	beq.w	.LBB2_69
.Ltmp304:
@ %bb.95:
	@DEBUG_VALUE: lv_table_event:e <- $r6
	@DEBUG_VALUE: lv_table_event:obj <- $r4
	@DEBUG_VALUE: lv_table_event:table <- $r4
	@DEBUG_VALUE: lv_table_event:class_p <- [DW_OP_LLVM_entry_value 1] $r0
	.loc	12 514 19 is_stmt 1             @ ../GUILib/src/widgets/lv_table.c:514:19
	mov	r0, r4
	movs	r1, #28
	movs	r2, #0
	bl	lv_event_send
.Ltmp305:
	@DEBUG_VALUE: lv_table_event:res <- $r0
	.loc	12 515 16                       @ ../GUILib/src/widgets/lv_table.c:515:16
	cmp	r0, #1
	beq.w	.LBB2_69
	b	.LBB2_90
.Ltmp306:
.LBB2_96:
	@DEBUG_VALUE: get_pressed_cell:table <- $r4
	@DEBUG_VALUE: get_pressed_cell:obj <- $r4
	@DEBUG_VALUE: lv_table_event:obj <- $r4
	@DEBUG_VALUE: lv_table_event:table <- $r4
	@DEBUG_VALUE: get_pressed_cell:tmp <- [DW_OP_LLVM_convert 16 7, DW_OP_LLVM_convert 32 7, DW_OP_LLVM_convert 32 7, DW_OP_LLVM_convert 16 7, DW_OP_stack_value] $r1
	@DEBUG_VALUE: lv_table_event:class_p <- [DW_OP_LLVM_entry_value 1] $r0
	.loc	12 0 0 is_stmt 0                @ ../GUILib/src/widgets/lv_table.c:0:0
	uxth	r1, r1
.Ltmp307:
	@DEBUG_VALUE: get_pressed_cell:tmp <- [DW_OP_LLVM_convert 32 7, DW_OP_LLVM_convert 16 7, DW_OP_stack_value] $r1
	.loc	12 891 16 is_stmt 1             @ ../GUILib/src/widgets/lv_table.c:891:16
	sub.w	r2, r8, #1
	adds	r7, r3, #2
	movs	r3, #0
.Ltmp308:
	.p2align	2
.LBB2_97:                               @ =>This Inner Loop Header: Depth=1
	@DEBUG_VALUE: get_pressed_cell:table <- $r4
	@DEBUG_VALUE: get_pressed_cell:obj <- $r4
	@DEBUG_VALUE: lv_table_event:obj <- $r4
	@DEBUG_VALUE: lv_table_event:table <- $r4
	@DEBUG_VALUE: get_pressed_cell:tmp <- [DW_OP_LLVM_convert 32 7, DW_OP_LLVM_convert 16 7, DW_OP_stack_value] $r1
	@DEBUG_VALUE: lv_table_event:class_p <- [DW_OP_LLVM_entry_value 1] $r0
	@DEBUG_VALUE: get_pressed_cell:tmp <- undef
	.loc	12 889 9                        @ ../GUILib/src/widgets/lv_table.c:889:9
	cmp	r2, r3
	beq	.LBB2_84
.Ltmp309:
@ %bb.98:                               @   in Loop: Header=BB2_97 Depth=1
	@DEBUG_VALUE: get_pressed_cell:table <- $r4
	@DEBUG_VALUE: get_pressed_cell:obj <- $r4
	@DEBUG_VALUE: lv_table_event:obj <- $r4
	@DEBUG_VALUE: lv_table_event:table <- $r4
	@DEBUG_VALUE: lv_table_event:class_p <- [DW_OP_LLVM_entry_value 1] $r0
	.loc	12 890 20                       @ ../GUILib/src/widgets/lv_table.c:890:20
	ldrh.w	r6, [r7, r3, lsl #1]
	.loc	12 891 16                       @ ../GUILib/src/widgets/lv_table.c:891:16
	adds	r3, #1
	.loc	12 890 17                       @ ../GUILib/src/widgets/lv_table.c:890:17
	sxtah	r1, r6, r1
.Ltmp310:
	@DEBUG_VALUE: get_pressed_cell:tmp <- [DW_OP_LLVM_convert 32 7, DW_OP_LLVM_convert 16 7, DW_OP_stack_value] $r1
	.loc	12 891 20                       @ ../GUILib/src/widgets/lv_table.c:891:20
	sxth	r6, r1
.Ltmp311:
	.loc	12 891 16 is_stmt 0             @ ../GUILib/src/widgets/lv_table.c:891:16
	cmp	r6, r0
	ble	.LBB2_97
.Ltmp312:
@ %bb.99:
	@DEBUG_VALUE: get_pressed_cell:table <- $r4
	@DEBUG_VALUE: get_pressed_cell:obj <- $r4
	@DEBUG_VALUE: lv_table_event:obj <- $r4
	@DEBUG_VALUE: lv_table_event:table <- $r4
	@DEBUG_VALUE: get_pressed_cell:tmp <- [DW_OP_LLVM_convert 32 7, DW_OP_LLVM_convert 16 7, DW_OP_stack_value] $r1
	@DEBUG_VALUE: lv_table_event:class_p <- [DW_OP_LLVM_entry_value 1] $r0
	.loc	12 0 0                          @ ../GUILib/src/widgets/lv_table.c:0:0
	uxth.w	r8, r3
	b	.LBB2_84
.Ltmp313:
.LBB2_100:
	@DEBUG_VALUE: get_pressed_cell:table <- $r4
	@DEBUG_VALUE: get_pressed_cell:obj <- $r4
	@DEBUG_VALUE: lv_table_event:obj <- $r4
	@DEBUG_VALUE: lv_table_event:table <- $r4
	@DEBUG_VALUE: get_pressed_cell:tmp <- [DW_OP_LLVM_convert 16 7, DW_OP_LLVM_convert 32 7, DW_OP_LLVM_convert 32 7, DW_OP_LLVM_convert 16 7, DW_OP_stack_value] $r2
	@DEBUG_VALUE: lv_table_event:class_p <- [DW_OP_LLVM_entry_value 1] $r0
	uxth	r2, r2
.Ltmp314:
	@DEBUG_VALUE: get_pressed_cell:tmp <- [DW_OP_LLVM_convert 32 7, DW_OP_LLVM_convert 16 7, DW_OP_stack_value] $r2
	.loc	12 905 16 is_stmt 1             @ ../GUILib/src/widgets/lv_table.c:905:16
	subs	r3, r1, #1
	adds	r5, r7, #2
	movs	r7, #0
.Ltmp315:
	.p2align	2
.LBB2_101:                              @ =>This Inner Loop Header: Depth=1
	@DEBUG_VALUE: get_pressed_cell:table <- $r4
	@DEBUG_VALUE: get_pressed_cell:obj <- $r4
	@DEBUG_VALUE: lv_table_event:obj <- $r4
	@DEBUG_VALUE: lv_table_event:table <- $r4
	@DEBUG_VALUE: get_pressed_cell:tmp <- [DW_OP_LLVM_convert 32 7, DW_OP_LLVM_convert 16 7, DW_OP_stack_value] $r2
	@DEBUG_VALUE: lv_table_event:class_p <- [DW_OP_LLVM_entry_value 1] $r0
	@DEBUG_VALUE: get_pressed_cell:tmp <- undef
	.loc	12 903 9                        @ ../GUILib/src/widgets/lv_table.c:903:9
	cmp	r3, r7
	beq	.LBB2_87
.Ltmp316:
@ %bb.102:                              @   in Loop: Header=BB2_101 Depth=1
	@DEBUG_VALUE: get_pressed_cell:table <- $r4
	@DEBUG_VALUE: get_pressed_cell:obj <- $r4
	@DEBUG_VALUE: lv_table_event:obj <- $r4
	@DEBUG_VALUE: lv_table_event:table <- $r4
	@DEBUG_VALUE: lv_table_event:class_p <- [DW_OP_LLVM_entry_value 1] $r0
	.loc	12 904 20                       @ ../GUILib/src/widgets/lv_table.c:904:20
	ldrh.w	r6, [r5, r7, lsl #1]
	.loc	12 905 16                       @ ../GUILib/src/widgets/lv_table.c:905:16
	adds	r7, #1
	.loc	12 904 17                       @ ../GUILib/src/widgets/lv_table.c:904:17
	sxtah	r2, r6, r2
.Ltmp317:
	@DEBUG_VALUE: get_pressed_cell:tmp <- [DW_OP_LLVM_convert 32 7, DW_OP_LLVM_convert 16 7, DW_OP_stack_value] $r2
	.loc	12 905 20                       @ ../GUILib/src/widgets/lv_table.c:905:20
	sxth	r6, r2
.Ltmp318:
	.loc	12 905 16 is_stmt 0             @ ../GUILib/src/widgets/lv_table.c:905:16
	cmp	r6, r0
	ble	.LBB2_101
.Ltmp319:
@ %bb.103:
	@DEBUG_VALUE: get_pressed_cell:table <- $r4
	@DEBUG_VALUE: get_pressed_cell:obj <- $r4
	@DEBUG_VALUE: lv_table_event:obj <- $r4
	@DEBUG_VALUE: lv_table_event:table <- $r4
	@DEBUG_VALUE: get_pressed_cell:tmp <- [DW_OP_LLVM_convert 32 7, DW_OP_LLVM_convert 16 7, DW_OP_stack_value] $r2
	@DEBUG_VALUE: lv_table_event:class_p <- [DW_OP_LLVM_entry_value 1] $r0
	.loc	12 0 0                          @ ../GUILib/src/widgets/lv_table.c:0:0
	uxth	r1, r7
	b	.LBB2_87
.Ltmp320:
.LBB2_104:
	@DEBUG_VALUE: row <- $r7
	@DEBUG_VALUE: lv_table_event:obj <- $r4
	@DEBUG_VALUE: lv_table_event:table <- $r4
	@DEBUG_VALUE: col <- $r3
	@DEBUG_VALUE: lv_table_event:e <- [DW_OP_LLVM_entry_value 1] $r1
	@DEBUG_VALUE: lv_table_event:class_p <- [DW_OP_LLVM_entry_value 1] $r0
	.loc	12 544 38 is_stmt 1             @ ../GUILib/src/widgets/lv_table.c:544:38
	adds	r7, #1
.Ltmp321:
	@DEBUG_VALUE: row <- $r7
	.loc	12 0 38 is_stmt 0               @ ../GUILib/src/widgets/lv_table.c:0:38
	b	.LBB2_107
.Ltmp322:
.LBB2_105:
	@DEBUG_VALUE: row <- $r7
	@DEBUG_VALUE: lv_table_event:obj <- $r4
	@DEBUG_VALUE: lv_table_event:table <- $r4
	@DEBUG_VALUE: col <- $r3
	@DEBUG_VALUE: lv_table_event:e <- [DW_OP_LLVM_entry_value 1] $r1
	@DEBUG_VALUE: lv_table_event:class_p <- [DW_OP_LLVM_entry_value 1] $r0
	.loc	12 542 39 is_stmt 1             @ ../GUILib/src/widgets/lv_table.c:542:39
	adds	r3, #1
.Ltmp323:
	@DEBUG_VALUE: col <- $r3
	.loc	12 0 39 is_stmt 0               @ ../GUILib/src/widgets/lv_table.c:0:39
	b	.LBB2_107
.Ltmp324:
.LBB2_106:
	@DEBUG_VALUE: row <- $r7
	@DEBUG_VALUE: lv_table_event:obj <- $r4
	@DEBUG_VALUE: lv_table_event:table <- $r4
	@DEBUG_VALUE: col <- $r3
	@DEBUG_VALUE: lv_table_event:e <- [DW_OP_LLVM_entry_value 1] $r1
	@DEBUG_VALUE: lv_table_event:class_p <- [DW_OP_LLVM_entry_value 1] $r0
	.loc	12 541 33 is_stmt 1             @ ../GUILib/src/widgets/lv_table.c:541:33
	subs	r3, #1
.Ltmp325:
	@DEBUG_VALUE: col <- $r3
.LBB2_107:
	@DEBUG_VALUE: row <- $r7
	@DEBUG_VALUE: lv_table_event:obj <- $r4
	@DEBUG_VALUE: lv_table_event:table <- $r4
	@DEBUG_VALUE: col <- $r3
	@DEBUG_VALUE: lv_table_event:e <- [DW_OP_LLVM_entry_value 1] $r1
	@DEBUG_VALUE: lv_table_event:class_p <- [DW_OP_LLVM_entry_value 1] $r0
	@DEBUG_VALUE: col <- $r3
	@DEBUG_VALUE: row <- $r7
	.loc	12 547 12                       @ ../GUILib/src/widgets/lv_table.c:547:12
	cmp	r3, r6
	bge	.LBB2_111
.Ltmp326:
@ %bb.108:
	@DEBUG_VALUE: row <- $r7
	@DEBUG_VALUE: lv_table_event:obj <- $r4
	@DEBUG_VALUE: lv_table_event:table <- $r4
	@DEBUG_VALUE: col <- $r3
	@DEBUG_VALUE: lv_table_event:e <- [DW_OP_LLVM_entry_value 1] $r1
	@DEBUG_VALUE: lv_table_event:class_p <- [DW_OP_LLVM_entry_value 1] $r0
	.loc	12 556 17                       @ ../GUILib/src/widgets/lv_table.c:556:17
	cmp.w	r3, #-1
	bgt	.LBB2_114
.Ltmp327:
@ %bb.109:
	@DEBUG_VALUE: row <- $r7
	@DEBUG_VALUE: lv_table_event:obj <- $r4
	@DEBUG_VALUE: lv_table_event:table <- $r4
	@DEBUG_VALUE: col <- $r3
	@DEBUG_VALUE: lv_table_event:e <- [DW_OP_LLVM_entry_value 1] $r1
	@DEBUG_VALUE: lv_table_event:class_p <- [DW_OP_LLVM_entry_value 1] $r0
	.loc	12 557 16                       @ ../GUILib/src/widgets/lv_table.c:557:16
	cbz	r7, .LBB2_115
.Ltmp328:
@ %bb.110:
	@DEBUG_VALUE: row <- $r7
	@DEBUG_VALUE: lv_table_event:obj <- $r4
	@DEBUG_VALUE: lv_table_event:table <- $r4
	@DEBUG_VALUE: col <- $r3
	@DEBUG_VALUE: lv_table_event:e <- [DW_OP_LLVM_entry_value 1] $r1
	@DEBUG_VALUE: lv_table_event:class_p <- [DW_OP_LLVM_entry_value 1] $r0
	.loc	12 558 38                       @ ../GUILib/src/widgets/lv_table.c:558:38
	subs	r3, r6, #1
.Ltmp329:
	@DEBUG_VALUE: col <- $r3
	.loc	12 559 20                       @ ../GUILib/src/widgets/lv_table.c:559:20
	subs	r7, #1
.Ltmp330:
	@DEBUG_VALUE: row <- $r7
	.loc	12 0 20 is_stmt 0               @ ../GUILib/src/widgets/lv_table.c:0:20
	b	.LBB2_114
.Ltmp331:
.LBB2_111:
	@DEBUG_VALUE: row <- $r7
	@DEBUG_VALUE: lv_table_event:obj <- $r4
	@DEBUG_VALUE: lv_table_event:table <- $r4
	@DEBUG_VALUE: col <- $r3
	@DEBUG_VALUE: lv_table_event:e <- [DW_OP_LLVM_entry_value 1] $r1
	@DEBUG_VALUE: lv_table_event:class_p <- [DW_OP_LLVM_entry_value 1] $r0
	.loc	12 548 37 is_stmt 1             @ ../GUILib/src/widgets/lv_table.c:548:37
	sub.w	r0, r12, #1
.Ltmp332:
	.loc	12 548 16 is_stmt 0             @ ../GUILib/src/widgets/lv_table.c:548:16
	cmp	r7, r0
	bge	.LBB2_113
.Ltmp333:
@ %bb.112:
	@DEBUG_VALUE: row <- $r7
	@DEBUG_VALUE: lv_table_event:obj <- $r4
	@DEBUG_VALUE: lv_table_event:table <- $r4
	@DEBUG_VALUE: col <- $r3
	@DEBUG_VALUE: lv_table_event:e <- [DW_OP_LLVM_entry_value 1] $r1
	@DEBUG_VALUE: lv_table_event:class_p <- [DW_OP_LLVM_entry_value 1] $r0
	@DEBUG_VALUE: col <- 0
	.loc	12 550 20 is_stmt 1             @ ../GUILib/src/widgets/lv_table.c:550:20
	adds	r7, #1
.Ltmp334:
	@DEBUG_VALUE: row <- $r7
	.loc	12 0 20 is_stmt 0               @ ../GUILib/src/widgets/lv_table.c:0:20
	b	.LBB2_116
.Ltmp335:
.LBB2_113:
	@DEBUG_VALUE: row <- $r7
	@DEBUG_VALUE: lv_table_event:obj <- $r4
	@DEBUG_VALUE: lv_table_event:table <- $r4
	@DEBUG_VALUE: col <- $r3
	@DEBUG_VALUE: lv_table_event:e <- [DW_OP_LLVM_entry_value 1] $r1
	@DEBUG_VALUE: lv_table_event:class_p <- [DW_OP_LLVM_entry_value 1] $r0
	.loc	12 553 38 is_stmt 1             @ ../GUILib/src/widgets/lv_table.c:553:38
	subs	r3, r6, #1
.Ltmp336:
	@DEBUG_VALUE: col <- $r3
.LBB2_114:
	@DEBUG_VALUE: row <- $r7
	@DEBUG_VALUE: lv_table_event:obj <- $r4
	@DEBUG_VALUE: lv_table_event:table <- $r4
	@DEBUG_VALUE: col <- $r3
	@DEBUG_VALUE: lv_table_event:e <- [DW_OP_LLVM_entry_value 1] $r1
	@DEBUG_VALUE: lv_table_event:class_p <- [DW_OP_LLVM_entry_value 1] $r0
	@DEBUG_VALUE: col <- $r3
	@DEBUG_VALUE: row <- $r7
	.loc	12 0 38 is_stmt 0               @ ../GUILib/src/widgets/lv_table.c:0:38
	movs	r6, #0
.Ltmp337:
	.loc	12 566 16 is_stmt 1             @ ../GUILib/src/widgets/lv_table.c:566:16
	cmp	r7, r12
.Ltmp338:
	.loc	12 566 12 is_stmt 0             @ ../GUILib/src/widgets/lv_table.c:566:12
	bic.w	r7, r7, r7, asr #31
.Ltmp339:
	.loc	12 0 12                         @ ../GUILib/src/widgets/lv_table.c:0:12
	b	.LBB2_117
.Ltmp340:
.LBB2_115:
	@DEBUG_VALUE: row <- $r7
	@DEBUG_VALUE: lv_table_event:obj <- $r4
	@DEBUG_VALUE: lv_table_event:table <- $r4
	@DEBUG_VALUE: col <- $r3
	@DEBUG_VALUE: lv_table_event:e <- [DW_OP_LLVM_entry_value 1] $r1
	@DEBUG_VALUE: lv_table_event:class_p <- [DW_OP_LLVM_entry_value 1] $r0
	movs	r7, #0
.Ltmp341:
.LBB2_116:
	@DEBUG_VALUE: lv_table_event:obj <- $r4
	@DEBUG_VALUE: lv_table_event:table <- $r4
	@DEBUG_VALUE: lv_table_event:e <- [DW_OP_LLVM_entry_value 1] $r1
	@DEBUG_VALUE: lv_table_event:class_p <- [DW_OP_LLVM_entry_value 1] $r0
	.loc	12 566 16                       @ ../GUILib/src/widgets/lv_table.c:566:16
	movs	r6, #0
	movs	r3, #0
	cmp	r7, r12
.Ltmp342:
.LBB2_117:
	@DEBUG_VALUE: lv_table_event:obj <- $r4
	@DEBUG_VALUE: lv_table_event:table <- $r4
	@DEBUG_VALUE: lv_table_event:e <- [DW_OP_LLVM_entry_value 1] $r1
	@DEBUG_VALUE: lv_table_event:class_p <- [DW_OP_LLVM_entry_value 1] $r0
	it	lt
	movlt	r6, #1
.Ltmp343:
	.loc	12 566 12                       @ ../GUILib/src/widgets/lv_table.c:566:12
	cmp	r6, #0
	it	eq
	subeq.w	r7, r12, #1
.Ltmp344:
	@DEBUG_VALUE: row <- $r7
	.loc	12 573 34 is_stmt 1             @ ../GUILib/src/widgets/lv_table.c:573:34
	cmp	r3, r1
	it	eq
	cmpeq	r7, r2
	beq	.LBB2_90
.Ltmp345:
@ %bb.118:
	@DEBUG_VALUE: row <- $r7
	@DEBUG_VALUE: lv_table_event:obj <- $r4
	@DEBUG_VALUE: lv_table_event:table <- $r4
	@DEBUG_VALUE: lv_table_event:e <- [DW_OP_LLVM_entry_value 1] $r1
	@DEBUG_VALUE: lv_table_event:class_p <- [DW_OP_LLVM_entry_value 1] $r0
	.loc	12 576 13                       @ ../GUILib/src/widgets/lv_table.c:576:13
	mov	r0, r4
	.loc	12 574 28                       @ ../GUILib/src/widgets/lv_table.c:574:28
	strh	r3, [r4, #52]
	.loc	12 575 28                       @ ../GUILib/src/widgets/lv_table.c:575:28
	strh	r7, [r4, #54]
	.loc	12 576 13                       @ ../GUILib/src/widgets/lv_table.c:576:13
	bl	lv_obj_invalidate
.Ltmp346:
	.loc	12 578 19                       @ ../GUILib/src/widgets/lv_table.c:578:19
	mov	r0, r4
	movs	r1, #28
	movs	r2, #0
	add	sp, #380
	pop.w	{r4, r5, r6, r7, r8, r9, r10, r11, lr}
.Ltmp347:
	b	lv_event_send
.Ltmp348:
.Lfunc_end2:
	.size	lv_table_event, .Lfunc_end2-lv_table_event
	.cfi_endproc
	.file	21 "C:\\Users\\Hyacincher\\Desktop\\HyTelectrl\\Code\\Project" "../GUILib/src/hal/../draw/lv_draw_rect.h"
	.file	22 "C:\\Users\\Hyacincher\\Desktop\\HyTelectrl\\Code\\Project" "../GUILib/src/hal/../draw/lv_draw_label.h"
	.file	23 "C:\\Users\\Hyacincher\\Desktop\\HyTelectrl\\Code\\Project" "../GUILib/src/widgets/../core/lv_obj_draw.h"
	.file	24 "C:\\Users\\Hyacincher\\Desktop\\HyTelectrl\\Code\\Project" "../GUILib/src/hal/../draw/lv_draw_line.h"
	.file	25 "C:\\Users\\Hyacincher\\Desktop\\HyTelectrl\\Code\\Project" "../GUILib/src/hal/../draw/lv_draw_img.h"
	.file	26 "C:\\Users\\Hyacincher\\Desktop\\HyTelectrl\\Code\\Project" "../GUILib/src/hal/../draw/lv_draw_arc.h"
	.file	27 "C:\\Users\\Hyacincher\\Desktop\\HyTelectrl\\Code\\Project" "../GUILib/src/widgets/../core/lv_obj_pos.h"
	.cantunwind
	.fnend
                                        @ -- End function
	.section	.text.lv_table_create,"ax",%progbits
	.hidden	lv_table_create                 @ -- Begin function lv_table_create
	.globl	lv_table_create
	.p2align	1
	.type	lv_table_create,%function
	.code	16                              @ @lv_table_create
	.thumb_func
lv_table_create:
.Lfunc_begin3:
	.loc	12 65 0                         @ ../GUILib/src/widgets/lv_table.c:65:0
	.fnstart
	.cfi_startproc
@ %bb.0:
	@DEBUG_VALUE: lv_table_create:parent <- $r0
	.save	{r4, lr}
	push	{r4, lr}
	.cfi_def_cfa_offset 8
	.cfi_offset lr, -4
	.cfi_offset r4, -8
	mov	r1, r0
.Ltmp349:
	@DEBUG_VALUE: lv_table_create:parent <- $r1
	.loc	12 67 22 prologue_end           @ ../GUILib/src/widgets/lv_table.c:67:22
	movw	r0, :lower16:lv_table_class
	movt	r0, :upper16:lv_table_class
	@DEBUG_VALUE: lv_table_create:parent <- $r1
	bl	lv_obj_class_create_obj
.Ltmp350:
	mov	r4, r0
.Ltmp351:
	@DEBUG_VALUE: lv_table_create:obj <- $r4
	.loc	12 68 5                         @ ../GUILib/src/widgets/lv_table.c:68:5
	bl	lv_obj_class_init_obj
.Ltmp352:
	.loc	12 69 5                         @ ../GUILib/src/widgets/lv_table.c:69:5
	mov	r0, r4
	pop	{r4, pc}
.Ltmp353:
.Lfunc_end3:
	.size	lv_table_create, .Lfunc_end3-lv_table_create
	.cfi_endproc
	.cantunwind
	.fnend
                                        @ -- End function
	.section	.text.lv_table_set_cell_value,"ax",%progbits
	.hidden	lv_table_set_cell_value         @ -- Begin function lv_table_set_cell_value
	.globl	lv_table_set_cell_value
	.p2align	1
	.type	lv_table_set_cell_value,%function
	.code	16                              @ @lv_table_set_cell_value
	.thumb_func
lv_table_set_cell_value:
.Lfunc_begin4:
	.loc	12 77 0                         @ ../GUILib/src/widgets/lv_table.c:77:0
	.fnstart
	.cfi_startproc
@ %bb.0:
	@DEBUG_VALUE: lv_table_set_cell_value:obj <- $r0
	@DEBUG_VALUE: lv_table_set_cell_value:row <- $r1
	@DEBUG_VALUE: lv_table_set_cell_value:col <- $r2
	@DEBUG_VALUE: lv_table_set_cell_value:txt <- $r3
	@DEBUG_VALUE: lv_table_set_cell_value:txt <- $r3
	@DEBUG_VALUE: lv_table_set_cell_value:col <- $r2
	@DEBUG_VALUE: lv_table_set_cell_value:row <- $r1
	.save	{r4, r5, r6, r7, r8, r9, lr}
	push.w	{r4, r5, r6, r7, r8, r9, lr}
	.cfi_def_cfa_offset 28
	.cfi_offset lr, -4
	.cfi_offset r9, -8
	.cfi_offset r8, -12
	.cfi_offset r7, -16
	.cfi_offset r6, -20
	.cfi_offset r5, -24
	.cfi_offset r4, -28
	.pad	#4
	sub	sp, #4
	.cfi_def_cfa_offset 32
.Ltmp354:
	.loc	12 79 5 prologue_end            @ ../GUILib/src/widgets/lv_table.c:79:5
	cmp	r3, #0
	@DEBUG_VALUE: lv_table_set_cell_value:obj <- $r0
	beq	.LBB4_7
.Ltmp355:
@ %bb.1:
	@DEBUG_VALUE: lv_table_set_cell_value:txt <- $r3
	@DEBUG_VALUE: lv_table_set_cell_value:col <- $r2
	@DEBUG_VALUE: lv_table_set_cell_value:row <- $r1
	@DEBUG_VALUE: lv_table_set_cell_value:obj <- $r0
	.loc	12 0 5 is_stmt 0                @ ../GUILib/src/widgets/lv_table.c:0:5
	mov	r4, r0
.Ltmp356:
	@DEBUG_VALUE: lv_table_set_cell_value:obj <- $r4
	@DEBUG_VALUE: lv_table_set_cell_value:row <- $r8
	@DEBUG_VALUE: lv_table_set_cell_value:col <- $r7
	@DEBUG_VALUE: lv_table_set_cell_value:table <- $r4
	.loc	12 84 22 is_stmt 1              @ ../GUILib/src/widgets/lv_table.c:84:22
	ldrh	r0, [r0, #36]
	mov	r6, r3
.Ltmp357:
	@DEBUG_VALUE: lv_table_set_cell_value:txt <- $r6
	@DEBUG_VALUE: lv_table_set_cell_value:txt <- $r6
	.loc	12 0 22 is_stmt 0               @ ../GUILib/src/widgets/lv_table.c:0:22
	mov	r7, r2
.Ltmp358:
	@DEBUG_VALUE: lv_table_set_cell_value:col <- $r7
	mov	r8, r1
.Ltmp359:
	@DEBUG_VALUE: lv_table_set_cell_value:row <- $r8
	.loc	12 84 8                         @ ../GUILib/src/widgets/lv_table.c:84:8
	cmp	r0, r2
	bhi	.LBB4_3
.Ltmp360:
@ %bb.2:
	@DEBUG_VALUE: lv_table_set_cell_value:row <- $r8
	@DEBUG_VALUE: lv_table_set_cell_value:col <- $r7
	@DEBUG_VALUE: lv_table_set_cell_value:txt <- $r6
	@DEBUG_VALUE: lv_table_set_cell_value:table <- $r4
	@DEBUG_VALUE: lv_table_set_cell_value:obj <- $r4
	.loc	12 84 61                        @ ../GUILib/src/widgets/lv_table.c:84:61
	adds	r0, r7, #1
	.loc	12 84 31                        @ ../GUILib/src/widgets/lv_table.c:84:31
	uxth	r1, r0
	mov	r0, r4
	bl	lv_table_set_col_cnt
.Ltmp361:
.LBB4_3:
	@DEBUG_VALUE: lv_table_set_cell_value:row <- $r8
	@DEBUG_VALUE: lv_table_set_cell_value:col <- $r7
	@DEBUG_VALUE: lv_table_set_cell_value:txt <- $r6
	@DEBUG_VALUE: lv_table_set_cell_value:table <- $r4
	@DEBUG_VALUE: lv_table_set_cell_value:obj <- $r4
	@DEBUG_VALUE: lv_table_set_cell_value:row <- $r8
	@DEBUG_VALUE: lv_table_set_cell_value:col <- $r7
	.loc	12 85 22 is_stmt 1              @ ../GUILib/src/widgets/lv_table.c:85:22
	ldrh	r0, [r4, #38]
.Ltmp362:
	.loc	12 85 8 is_stmt 0               @ ../GUILib/src/widgets/lv_table.c:85:8
	cmp	r0, r8
	bhi	.LBB4_5
.Ltmp363:
@ %bb.4:
	@DEBUG_VALUE: lv_table_set_cell_value:row <- $r8
	@DEBUG_VALUE: lv_table_set_cell_value:col <- $r7
	@DEBUG_VALUE: lv_table_set_cell_value:txt <- $r6
	@DEBUG_VALUE: lv_table_set_cell_value:table <- $r4
	@DEBUG_VALUE: lv_table_set_cell_value:obj <- $r4
	.loc	12 85 61                        @ ../GUILib/src/widgets/lv_table.c:85:61
	add.w	r0, r8, #1
	.loc	12 85 31                        @ ../GUILib/src/widgets/lv_table.c:85:31
	uxth	r1, r0
	mov	r0, r4
	bl	lv_table_set_row_cnt
.Ltmp364:
.LBB4_5:
	@DEBUG_VALUE: lv_table_set_cell_value:row <- $r8
	@DEBUG_VALUE: lv_table_set_cell_value:col <- $r7
	@DEBUG_VALUE: lv_table_set_cell_value:txt <- $r6
	@DEBUG_VALUE: lv_table_set_cell_value:table <- $r4
	@DEBUG_VALUE: lv_table_set_cell_value:obj <- $r4
	.loc	12 87 34 is_stmt 1              @ ../GUILib/src/widgets/lv_table.c:87:34
	ldrh	r0, [r4, #36]
	.loc	12 87 42 is_stmt 0              @ ../GUILib/src/widgets/lv_table.c:87:42
	mla	r5, r0, r8, r7
.Ltmp365:
	@DEBUG_VALUE: lv_table_set_cell_value:ctrl <- 0
	@DEBUG_VALUE: lv_table_set_cell_value:cell <- $r5
	.loc	12 91 15 is_stmt 1              @ ../GUILib/src/widgets/lv_table.c:91:15
	ldr	r0, [r4, #40]
	.loc	12 91 8 is_stmt 0               @ ../GUILib/src/widgets/lv_table.c:91:8
	ldr.w	r7, [r0, r5, lsl #2]
.Ltmp366:
	.loc	12 102 69 is_stmt 1             @ ../GUILib/src/widgets/lv_table.c:102:69
	mov	r0, r6
	.loc	12 91 8                         @ ../GUILib/src/widgets/lv_table.c:91:8
	cmp	r7, #0
.Ltmp367:
	.loc	12 91 39 is_stmt 0              @ ../GUILib/src/widgets/lv_table.c:91:39
	ite	ne
	ldrbne.w	r9, [r7]
	moveq.w	r9, #0
.Ltmp368:
	@DEBUG_VALUE: lv_table_set_cell_value:ctrl <- $r9
	.loc	12 102 69 is_stmt 1             @ ../GUILib/src/widgets/lv_table.c:102:69
	bl	strlen
.Ltmp369:
	.loc	12 102 81 is_stmt 0             @ ../GUILib/src/widgets/lv_table.c:102:81
	adds	r1, r0, #2
	.loc	12 102 30                       @ ../GUILib/src/widgets/lv_table.c:102:30
	mov	r0, r7
	bl	lv_mem_realloc
.Ltmp370:
	.loc	12 102 12                       @ ../GUILib/src/widgets/lv_table.c:102:12
	ldr	r1, [r4, #40]
	.loc	12 102 28                       @ ../GUILib/src/widgets/lv_table.c:102:28
	str.w	r0, [r1, r5, lsl #2]
.Ltmp371:
	.loc	12 103 5 is_stmt 1              @ ../GUILib/src/widgets/lv_table.c:103:5
	ldr	r0, [r4, #40]
	ldr.w	r0, [r0, r5, lsl #2]
.Ltmp372:
	.loc	12 103 5 is_stmt 0              @ ../GUILib/src/widgets/lv_table.c:103:5
	cbz	r0, .LBB4_8
.Ltmp373:
@ %bb.6:
	@DEBUG_VALUE: lv_table_set_cell_value:ctrl <- $r9
	@DEBUG_VALUE: lv_table_set_cell_value:row <- $r8
	@DEBUG_VALUE: lv_table_set_cell_value:txt <- $r6
	@DEBUG_VALUE: lv_table_set_cell_value:cell <- $r5
	@DEBUG_VALUE: lv_table_set_cell_value:table <- $r4
	@DEBUG_VALUE: lv_table_set_cell_value:obj <- $r4
	.loc	12 105 35 is_stmt 1             @ ../GUILib/src/widgets/lv_table.c:105:35
	adds	r0, #1
	.loc	12 105 5 is_stmt 0              @ ../GUILib/src/widgets/lv_table.c:105:5
	mov	r1, r6
	bl	strcpy
.Ltmp374:
	.loc	12 108 12 is_stmt 1             @ ../GUILib/src/widgets/lv_table.c:108:12
	ldr	r0, [r4, #40]
	.loc	12 109 5                        @ ../GUILib/src/widgets/lv_table.c:109:5
	mov	r1, r8
	.loc	12 108 5                        @ ../GUILib/src/widgets/lv_table.c:108:5
	ldr.w	r0, [r0, r5, lsl #2]
	.loc	12 108 31 is_stmt 0             @ ../GUILib/src/widgets/lv_table.c:108:31
	strb.w	r9, [r0]
	.loc	12 109 5 is_stmt 1              @ ../GUILib/src/widgets/lv_table.c:109:5
	mov	r0, r4
	bl	refr_size
.Ltmp375:
	.loc	12 111 5                        @ ../GUILib/src/widgets/lv_table.c:111:5
	mov	r0, r4
	add	sp, #4
	pop.w	{r4, r5, r6, r7, r8, r9, lr}
.Ltmp376:
	@DEBUG_VALUE: lv_table_set_cell_value:txt <- [DW_OP_LLVM_entry_value 1] $r3
	@DEBUG_VALUE: lv_table_set_cell_value:obj <- [DW_OP_LLVM_entry_value 1] $r0
	b	lv_obj_invalidate
.Ltmp377:
	.p2align	2
.LBB4_7:                                @ =>This Inner Loop Header: Depth=1
	@DEBUG_VALUE: lv_table_set_cell_value:txt <- $r3
	@DEBUG_VALUE: lv_table_set_cell_value:col <- $r2
	@DEBUG_VALUE: lv_table_set_cell_value:row <- $r1
	@DEBUG_VALUE: lv_table_set_cell_value:obj <- $r0
	.loc	12 79 5                         @ ../GUILib/src/widgets/lv_table.c:79:5
	b	.LBB4_7
.Ltmp378:
	.p2align	2
.LBB4_8:                                @ =>This Inner Loop Header: Depth=1
	@DEBUG_VALUE: lv_table_set_cell_value:ctrl <- $r9
	@DEBUG_VALUE: lv_table_set_cell_value:row <- $r8
	@DEBUG_VALUE: lv_table_set_cell_value:txt <- $r6
	@DEBUG_VALUE: lv_table_set_cell_value:cell <- $r5
	@DEBUG_VALUE: lv_table_set_cell_value:table <- $r4
	@DEBUG_VALUE: lv_table_set_cell_value:obj <- $r4
	.loc	12 103 5                        @ ../GUILib/src/widgets/lv_table.c:103:5
	b	.LBB4_8
.Ltmp379:
.Lfunc_end4:
	.size	lv_table_set_cell_value, .Lfunc_end4-lv_table_set_cell_value
	.cfi_endproc
	.cantunwind
	.fnend
                                        @ -- End function
	.section	.text.lv_table_set_col_cnt,"ax",%progbits
	.hidden	lv_table_set_col_cnt            @ -- Begin function lv_table_set_col_cnt
	.globl	lv_table_set_col_cnt
	.p2align	1
	.type	lv_table_set_col_cnt,%function
	.code	16                              @ @lv_table_set_col_cnt
	.thumb_func
lv_table_set_col_cnt:
.Lfunc_begin5:
	.loc	12 242 0                        @ ../GUILib/src/widgets/lv_table.c:242:0
	.fnstart
	.cfi_startproc
@ %bb.0:
	@DEBUG_VALUE: lv_table_set_col_cnt:obj <- $r0
	@DEBUG_VALUE: lv_table_set_col_cnt:col_cnt <- $r1
	.save	{r4, r5, r6, r7, r8, r9, r10, lr}
	push.w	{r4, r5, r6, r7, r8, r9, r10, lr}
	.cfi_def_cfa_offset 32
	.cfi_offset lr, -4
	.cfi_offset r10, -8
	.cfi_offset r9, -12
	.cfi_offset r8, -16
	.cfi_offset r7, -20
	.cfi_offset r6, -24
	.cfi_offset r5, -28
	.cfi_offset r4, -32
.Ltmp380:
	@DEBUG_VALUE: lv_table_set_col_cnt:table <- $r0
	mov	r4, r0
.Ltmp381:
	@DEBUG_VALUE: lv_table_set_col_cnt:table <- $r4
	@DEBUG_VALUE: lv_table_set_col_cnt:col_cnt <- $r10
	@DEBUG_VALUE: lv_table_set_col_cnt:obj <- $r4
	.loc	12 246 35 prologue_end          @ ../GUILib/src/widgets/lv_table.c:246:35
	ldrh.w	r8, [r0, #36]
.Ltmp382:
	@DEBUG_VALUE: lv_table_set_col_cnt:old_col_cnt <- undef
	.loc	12 247 28                       @ ../GUILib/src/widgets/lv_table.c:247:28
	strh	r1, [r0, #36]
	.loc	12 248 42                       @ ../GUILib/src/widgets/lv_table.c:248:42
	ldr	r0, [r0, #48]
	mov	r10, r1
.Ltmp383:
	.loc	12 248 57 is_stmt 0             @ ../GUILib/src/widgets/lv_table.c:248:57
	lsls	r1, r1, #1
	.loc	12 248 20                       @ ../GUILib/src/widgets/lv_table.c:248:20
	bl	lv_mem_realloc
.Ltmp384:
	.loc	12 249 5 is_stmt 1              @ ../GUILib/src/widgets/lv_table.c:249:5
	cmp	r0, #0
.Ltmp385:
	.loc	12 248 18                       @ ../GUILib/src/widgets/lv_table.c:248:18
	str	r0, [r4, #48]
.Ltmp386:
	.loc	12 249 5                        @ ../GUILib/src/widgets/lv_table.c:249:5
	beq	.LBB5_17
.Ltmp387:
@ %bb.1:
	@DEBUG_VALUE: lv_table_set_col_cnt:obj <- $r4
	@DEBUG_VALUE: lv_table_set_col_cnt:table <- $r4
	.loc	12 253 8                        @ ../GUILib/src/widgets/lv_table.c:253:8
	cmp	r8, r10
	bls	.LBB5_4
.Ltmp388:
@ %bb.2:
	@DEBUG_VALUE: lv_table_set_col_cnt:obj <- $r4
	@DEBUG_VALUE: lv_table_set_col_cnt:table <- $r4
	.loc	12 254 54                       @ ../GUILib/src/widgets/lv_table.c:254:54
	ldrh	r0, [r4, #38]
	.loc	12 255 40                       @ ../GUILib/src/widgets/lv_table.c:255:40
	ldrh	r1, [r4, #36]
	.loc	12 254 45                       @ ../GUILib/src/widgets/lv_table.c:254:45
	mul	r2, r0, r8
.Ltmp389:
	@DEBUG_VALUE: old_cell_cnt <- $r2
	.loc	12 255 48                       @ ../GUILib/src/widgets/lv_table.c:255:48
	mul	r6, r1, r0
.Ltmp390:
	@DEBUG_VALUE: i <- $r6
	@DEBUG_VALUE: new_cell_cnt <- $r6
	.loc	12 257 35                       @ ../GUILib/src/widgets/lv_table.c:257:35
	uxth	r7, r2
.Ltmp391:
	.loc	12 257 9 is_stmt 0              @ ../GUILib/src/widgets/lv_table.c:257:9
	cmp	r6, r7
	bhs	.LBB5_4
.Ltmp392:
	.p2align	2
.LBB5_3:                                @ =>This Inner Loop Header: Depth=1
	@DEBUG_VALUE: i <- $r6
	@DEBUG_VALUE: lv_table_set_col_cnt:obj <- $r4
	@DEBUG_VALUE: lv_table_set_col_cnt:table <- $r4
	@DEBUG_VALUE: i <- $r6
	.loc	12 258 32 is_stmt 1             @ ../GUILib/src/widgets/lv_table.c:258:32
	ldr	r0, [r4, #40]
	.loc	12 258 25 is_stmt 0             @ ../GUILib/src/widgets/lv_table.c:258:25
	ldr.w	r0, [r0, r6, lsl #2]
	.loc	12 258 13                       @ ../GUILib/src/widgets/lv_table.c:258:13
	bl	lv_mem_free
.Ltmp393:
	.loc	12 257 50 is_stmt 1             @ ../GUILib/src/widgets/lv_table.c:257:50
	adds	r6, #1
.Ltmp394:
	@DEBUG_VALUE: i <- $r6
	.loc	12 257 9 is_stmt 0              @ ../GUILib/src/widgets/lv_table.c:257:9
	cmp	r7, r6
	bne	.LBB5_3
.Ltmp395:
.LBB5_4:
	@DEBUG_VALUE: lv_table_set_col_cnt:obj <- $r4
	@DEBUG_VALUE: lv_table_set_col_cnt:table <- $r4
	.loc	12 262 49 is_stmt 1             @ ../GUILib/src/widgets/lv_table.c:262:49
	ldrh	r0, [r4, #38]
	.loc	12 262 66 is_stmt 0             @ ../GUILib/src/widgets/lv_table.c:262:66
	ldrh	r1, [r4, #36]
	.loc	12 262 74                       @ ../GUILib/src/widgets/lv_table.c:262:74
	muls	r0, r1, r0
	lsls	r0, r0, #2
	.loc	12 262 29                       @ ../GUILib/src/widgets/lv_table.c:262:29
	bl	lv_mem_alloc
.Ltmp396:
	@DEBUG_VALUE: lv_table_set_col_cnt:new_cell_data <- $r0
	.loc	12 263 5 is_stmt 1              @ ../GUILib/src/widgets/lv_table.c:263:5
	cmp	r0, #0
	beq	.LBB5_18
.Ltmp397:
@ %bb.5:
	@DEBUG_VALUE: lv_table_set_col_cnt:obj <- $r4
	@DEBUG_VALUE: lv_table_set_col_cnt:table <- $r4
	@DEBUG_VALUE: lv_table_set_col_cnt:new_cell_data <- $r0
	.loc	12 0 0 is_stmt 0                @ ../GUILib/src/widgets/lv_table.c:0:0
	mov	r9, r0
.Ltmp398:
	@DEBUG_VALUE: lv_table_set_col_cnt:new_cell_data <- $r9
	@DEBUG_VALUE: lv_table_set_col_cnt:new_cell_data <- $r9
	.loc	12 265 36 is_stmt 1             @ ../GUILib/src/widgets/lv_table.c:265:36
	ldrh	r0, [r4, #36]
	.loc	12 265 53 is_stmt 0             @ ../GUILib/src/widgets/lv_table.c:265:53
	ldrh	r1, [r4, #38]
.Ltmp399:
	@DEBUG_VALUE: lv_table_set_col_cnt:new_cell_cnt <- undef
	.loc	12 266 46 is_stmt 1             @ ../GUILib/src/widgets/lv_table.c:266:46
	muls	r0, r1, r0
	lsls	r1, r0, #2
	.loc	12 266 5 is_stmt 0              @ ../GUILib/src/widgets/lv_table.c:266:5
	mov	r0, r9
	bl	lv_memset_00
.Ltmp400:
	.loc	12 269 8 is_stmt 1              @ ../GUILib/src/widgets/lv_table.c:269:8
	cmp	r8, r10
	.loc	12 279 28                       @ ../GUILib/src/widgets/lv_table.c:279:28
	mov	r0, r10
	.loc	12 269 8                        @ ../GUILib/src/widgets/lv_table.c:269:8
	bhs	.LBB5_9
.Ltmp401:
@ %bb.6:
	@DEBUG_VALUE: lv_table_set_col_cnt:new_cell_data <- $r9
	@DEBUG_VALUE: lv_table_set_col_cnt:obj <- $r4
	@DEBUG_VALUE: lv_table_set_col_cnt:table <- $r4
	.loc	12 0 8 is_stmt 0                @ ../GUILib/src/widgets/lv_table.c:0:8
	ldr	r1, [r4, #48]
.Ltmp402:
	@DEBUG_VALUE: col <- $r8
	.loc	12 271 9 is_stmt 1              @ ../GUILib/src/widgets/lv_table.c:271:9
	sub.w	r0, r10, r8
	add.w	r1, r1, r8, lsl #1
	movs	r2, #222
.Ltmp403:
	.p2align	2
.LBB5_7:                                @ =>This Inner Loop Header: Depth=1
	@DEBUG_VALUE: lv_table_set_col_cnt:new_cell_data <- $r9
	@DEBUG_VALUE: lv_table_set_col_cnt:obj <- $r4
	@DEBUG_VALUE: lv_table_set_col_cnt:table <- $r4
	@DEBUG_VALUE: col <- undef
	.loc	12 271 36 is_stmt 0             @ ../GUILib/src/widgets/lv_table.c:271:36
	subs	r0, #1
.Ltmp404:
	.loc	12 272 31 is_stmt 1             @ ../GUILib/src/widgets/lv_table.c:272:31
	strh	r2, [r1], #2
.Ltmp405:
	@DEBUG_VALUE: col <- [DW_OP_plus_uconst 1, DW_OP_stack_value] undef
	.loc	12 271 9                        @ ../GUILib/src/widgets/lv_table.c:271:9
	bne	.LBB5_7
.Ltmp406:
@ %bb.8:
	@DEBUG_VALUE: lv_table_set_col_cnt:new_cell_data <- $r9
	@DEBUG_VALUE: lv_table_set_col_cnt:obj <- $r4
	@DEBUG_VALUE: lv_table_set_col_cnt:table <- $r4
	.loc	12 279 28                       @ ../GUILib/src/widgets/lv_table.c:279:28
	mov	r0, r8
.Ltmp407:
.LBB5_9:
	@DEBUG_VALUE: lv_table_set_col_cnt:new_cell_data <- $r9
	@DEBUG_VALUE: lv_table_set_col_cnt:obj <- $r4
	@DEBUG_VALUE: lv_table_set_col_cnt:table <- $r4
	@DEBUG_VALUE: lv_table_set_col_cnt:min_col_cnt <- [DW_OP_LLVM_convert 16 7, DW_OP_LLVM_convert 32 7, DW_OP_stack_value] $r0
	@DEBUG_VALUE: lv_table_set_col_cnt:row <- 0
	.loc	12 281 31                       @ ../GUILib/src/widgets/lv_table.c:281:31
	ldrh	r3, [r4, #38]
.Ltmp408:
	.loc	12 281 5 is_stmt 0              @ ../GUILib/src/widgets/lv_table.c:281:5
	cbz	r3, .LBB5_16
.Ltmp409:
@ %bb.10:
	@DEBUG_VALUE: lv_table_set_col_cnt:new_cell_data <- $r9
	@DEBUG_VALUE: lv_table_set_col_cnt:obj <- $r4
	@DEBUG_VALUE: lv_table_set_col_cnt:table <- $r4
	@DEBUG_VALUE: lv_table_set_col_cnt:min_col_cnt <- [DW_OP_LLVM_convert 16 7, DW_OP_LLVM_convert 32 7, DW_OP_stack_value] $r0
	@DEBUG_VALUE: lv_table_set_col_cnt:row <- 0
	@DEBUG_VALUE: lv_table_set_col_cnt:min_col_cnt <- $r0
	.loc	12 0 5                          @ ../GUILib/src/widgets/lv_table.c:0:5
	movs	r1, #0
	.loc	12 281 5                        @ ../GUILib/src/widgets/lv_table.c:281:5
	sub.w	r6, r1, r0, lsl #2
.Ltmp410:
	.p2align	2
.LBB5_11:                               @ =>This Loop Header: Depth=1
                                        @     Child Loop BB5_13 Depth 2
	@DEBUG_VALUE: lv_table_set_col_cnt:new_cell_data <- $r9
	@DEBUG_VALUE: lv_table_set_col_cnt:obj <- $r4
	@DEBUG_VALUE: lv_table_set_col_cnt:table <- $r4
	@DEBUG_VALUE: lv_table_set_col_cnt:min_col_cnt <- $r0
	@DEBUG_VALUE: lv_table_set_col_cnt:row <- $r1
	@DEBUG_VALUE: lv_table_set_col_cnt:old_col_start <- undef
	@DEBUG_VALUE: lv_table_set_col_cnt:new_col_start <- undef
	@DEBUG_VALUE: lv_memcpy_small:dst <- undef
	@DEBUG_VALUE: lv_memcpy_small:src <- undef
	@DEBUG_VALUE: lv_memcpy_small:d8 <- undef
	@DEBUG_VALUE: lv_memcpy_small:s8 <- undef
	@DEBUG_VALUE: lv_memcpy_small:len <- [DW_OP_LLVM_convert 16 7, DW_OP_LLVM_convert 32 7, DW_OP_constu 2, DW_OP_shl, DW_OP_stack_value] $r0
	.loc	19 199 5 is_stmt 1              @ ../GUILib/src/widgets/../core/../misc/lv_mem.h:199:5
	cbz	r0, .LBB5_15
.Ltmp411:
@ %bb.12:                               @   in Loop: Header=BB5_11 Depth=1
	@DEBUG_VALUE: lv_table_set_col_cnt:new_cell_data <- $r9
	@DEBUG_VALUE: lv_table_set_col_cnt:obj <- $r4
	@DEBUG_VALUE: lv_table_set_col_cnt:table <- $r4
	@DEBUG_VALUE: lv_table_set_col_cnt:row <- $r1
	@DEBUG_VALUE: lv_table_set_col_cnt:min_col_cnt <- $r0
	.loc	12 285 64                       @ ../GUILib/src/widgets/lv_table.c:285:64
	ldr	r2, [r4, #40]
	.loc	12 282 29                       @ ../GUILib/src/widgets/lv_table.c:282:29
	mul	r3, r1, r8
.Ltmp412:
	@DEBUG_VALUE: lv_table_set_col_cnt:old_col_start <- $r3
	.loc	12 285 57                       @ ../GUILib/src/widgets/lv_table.c:285:57
	add.w	r3, r2, r3, lsl #2
.Ltmp413:
	@DEBUG_VALUE: lv_memcpy_small:s8 <- undef
	@DEBUG_VALUE: lv_memcpy_small:src <- undef
	.loc	12 283 29                       @ ../GUILib/src/widgets/lv_table.c:283:29
	mul	r2, r1, r10
.Ltmp414:
	@DEBUG_VALUE: lv_table_set_col_cnt:new_col_start <- $r2
	.loc	12 285 26                       @ ../GUILib/src/widgets/lv_table.c:285:26
	add.w	r7, r9, r2, lsl #2
	@DEBUG_VALUE: lv_memcpy_small:d8 <- undef
	@DEBUG_VALUE: lv_memcpy_small:dst <- undef
	mov	r2, r6
.Ltmp415:
	.p2align	2
.LBB5_13:                               @   Parent Loop BB5_11 Depth=1
                                        @ =>  This Inner Loop Header: Depth=2
	@DEBUG_VALUE: lv_table_set_col_cnt:new_cell_data <- $r9
	@DEBUG_VALUE: lv_table_set_col_cnt:obj <- $r4
	@DEBUG_VALUE: lv_table_set_col_cnt:table <- $r4
	@DEBUG_VALUE: lv_table_set_col_cnt:row <- $r1
	@DEBUG_VALUE: lv_table_set_col_cnt:min_col_cnt <- $r0
	@DEBUG_VALUE: lv_memcpy_small:d8 <- $r7
	@DEBUG_VALUE: lv_memcpy_small:s8 <- $r3
	@DEBUG_VALUE: lv_memcpy_small:len <- undef
	.loc	19 200 15                       @ ../GUILib/src/widgets/../core/../misc/lv_mem.h:200:15
	ldrb	r5, [r3], #1
.Ltmp416:
	.loc	19 199 5                        @ ../GUILib/src/widgets/../core/../misc/lv_mem.h:199:5
	adds	r2, #1
.Ltmp417:
	.loc	19 200 13                       @ ../GUILib/src/widgets/../core/../misc/lv_mem.h:200:13
	strb	r5, [r7], #1
.Ltmp418:
	@DEBUG_VALUE: lv_memcpy_small:len <- [DW_OP_constu 1, DW_OP_minus, DW_OP_stack_value] undef
	@DEBUG_VALUE: lv_memcpy_small:s8 <- $r3
	@DEBUG_VALUE: lv_memcpy_small:d8 <- $r7
	.loc	19 199 5                        @ ../GUILib/src/widgets/../core/../misc/lv_mem.h:199:5
	blo	.LBB5_13
.Ltmp419:
@ %bb.14:                               @   in Loop: Header=BB5_11 Depth=1
	@DEBUG_VALUE: lv_table_set_col_cnt:new_cell_data <- $r9
	@DEBUG_VALUE: lv_table_set_col_cnt:obj <- $r4
	@DEBUG_VALUE: lv_table_set_col_cnt:table <- $r4
	@DEBUG_VALUE: lv_table_set_col_cnt:row <- $r1
	@DEBUG_VALUE: lv_table_set_col_cnt:min_col_cnt <- $r0
	.loc	12 281 31                       @ ../GUILib/src/widgets/lv_table.c:281:31
	ldrh	r3, [r4, #38]
.Ltmp420:
.LBB5_15:                               @   in Loop: Header=BB5_11 Depth=1
	@DEBUG_VALUE: lv_table_set_col_cnt:new_cell_data <- $r9
	@DEBUG_VALUE: lv_table_set_col_cnt:obj <- $r4
	@DEBUG_VALUE: lv_table_set_col_cnt:table <- $r4
	@DEBUG_VALUE: lv_table_set_col_cnt:row <- $r1
	@DEBUG_VALUE: lv_table_set_col_cnt:min_col_cnt <- $r0
	.loc	12 281 43 is_stmt 0             @ ../GUILib/src/widgets/lv_table.c:281:43
	adds	r1, #1
.Ltmp421:
	@DEBUG_VALUE: lv_table_set_col_cnt:row <- $r1
	.loc	12 281 5                        @ ../GUILib/src/widgets/lv_table.c:281:5
	cmp	r1, r3
	blo	.LBB5_11
.Ltmp422:
.LBB5_16:
	@DEBUG_VALUE: lv_table_set_col_cnt:new_cell_data <- $r9
	@DEBUG_VALUE: lv_table_set_col_cnt:obj <- $r4
	@DEBUG_VALUE: lv_table_set_col_cnt:table <- $r4
	.loc	12 289 24 is_stmt 1             @ ../GUILib/src/widgets/lv_table.c:289:24
	ldr	r0, [r4, #40]
	.loc	12 289 5 is_stmt 0              @ ../GUILib/src/widgets/lv_table.c:289:5
	bl	lv_mem_free
.Ltmp423:
	.loc	12 293 5 is_stmt 1              @ ../GUILib/src/widgets/lv_table.c:293:5
	mov	r0, r4
	movs	r1, #0
	.loc	12 290 22                       @ ../GUILib/src/widgets/lv_table.c:290:22
	str.w	r9, [r4, #40]
	.loc	12 293 5                        @ ../GUILib/src/widgets/lv_table.c:293:5
	pop.w	{r4, r5, r6, r7, r8, r9, r10, lr}
.Ltmp424:
	b	refr_size
.Ltmp425:
	.p2align	2
.LBB5_17:                               @ =>This Inner Loop Header: Depth=1
	@DEBUG_VALUE: lv_table_set_col_cnt:obj <- $r4
	@DEBUG_VALUE: lv_table_set_col_cnt:table <- $r4
	.loc	12 249 5                        @ ../GUILib/src/widgets/lv_table.c:249:5
	b	.LBB5_17
.Ltmp426:
	.p2align	2
.LBB5_18:                               @ =>This Inner Loop Header: Depth=1
	@DEBUG_VALUE: lv_table_set_col_cnt:obj <- $r4
	@DEBUG_VALUE: lv_table_set_col_cnt:table <- $r4
	@DEBUG_VALUE: lv_table_set_col_cnt:new_cell_data <- $r0
	.loc	12 263 5                        @ ../GUILib/src/widgets/lv_table.c:263:5
	b	.LBB5_18
.Ltmp427:
.Lfunc_end5:
	.size	lv_table_set_col_cnt, .Lfunc_end5-lv_table_set_col_cnt
	.cfi_endproc
	.file	28 "D:\\Keil MDK\\ARM\\ARMCLANG\\Bin\\..\\include" "stddef.h"
	.cantunwind
	.fnend
                                        @ -- End function
	.section	.text.lv_table_set_row_cnt,"ax",%progbits
	.hidden	lv_table_set_row_cnt            @ -- Begin function lv_table_set_row_cnt
	.globl	lv_table_set_row_cnt
	.p2align	1
	.type	lv_table_set_row_cnt,%function
	.code	16                              @ @lv_table_set_row_cnt
	.thumb_func
lv_table_set_row_cnt:
.Lfunc_begin6:
	.loc	12 206 0                        @ ../GUILib/src/widgets/lv_table.c:206:0
	.fnstart
	.cfi_startproc
@ %bb.0:
	@DEBUG_VALUE: lv_table_set_row_cnt:obj <- $r0
	@DEBUG_VALUE: lv_table_set_row_cnt:row_cnt <- $r1
	.save	{r4, r5, r6, r7, r8, lr}
	push.w	{r4, r5, r6, r7, r8, lr}
	.cfi_def_cfa_offset 24
	.cfi_offset lr, -4
	.cfi_offset r8, -8
	.cfi_offset r7, -12
	.cfi_offset r6, -16
	.cfi_offset r5, -20
	.cfi_offset r4, -24
	mov	r4, r0
.Ltmp428:
	@DEBUG_VALUE: lv_table_set_row_cnt:table <- $r4
	@DEBUG_VALUE: lv_table_set_row_cnt:row_cnt <- $r5
	@DEBUG_VALUE: lv_table_set_row_cnt:obj <- $r4
	.loc	12 210 35 prologue_end          @ ../GUILib/src/widgets/lv_table.c:210:35
	ldrh.w	r8, [r0, #38]
.Ltmp429:
	@DEBUG_VALUE: lv_table_set_row_cnt:old_row_cnt <- undef
	.loc	12 211 28                       @ ../GUILib/src/widgets/lv_table.c:211:28
	strh	r1, [r0, #38]
	.loc	12 213 42                       @ ../GUILib/src/widgets/lv_table.c:213:42
	ldr	r0, [r0, #44]
	mov	r5, r1
.Ltmp430:
	.loc	12 213 64 is_stmt 0             @ ../GUILib/src/widgets/lv_table.c:213:64
	lsls	r1, r1, #1
	.loc	12 213 20                       @ ../GUILib/src/widgets/lv_table.c:213:20
	bl	lv_mem_realloc
.Ltmp431:
	.loc	12 213 18                       @ ../GUILib/src/widgets/lv_table.c:213:18
	str	r0, [r4, #44]
.Ltmp432:
	.loc	12 214 5 is_stmt 1              @ ../GUILib/src/widgets/lv_table.c:214:5
	cbz	r0, .LBB6_8
.Ltmp433:
@ %bb.1:
	@DEBUG_VALUE: lv_table_set_row_cnt:obj <- $r4
	@DEBUG_VALUE: lv_table_set_row_cnt:table <- $r4
	.loc	12 218 8                        @ ../GUILib/src/widgets/lv_table.c:218:8
	cmp	r8, r5
	bls	.LBB6_4
.Ltmp434:
@ %bb.2:
	@DEBUG_VALUE: lv_table_set_row_cnt:obj <- $r4
	@DEBUG_VALUE: lv_table_set_row_cnt:table <- $r4
	.loc	12 219 54                       @ ../GUILib/src/widgets/lv_table.c:219:54
	ldrh	r0, [r4, #36]
	.loc	12 220 57                       @ ../GUILib/src/widgets/lv_table.c:220:57
	ldrh	r1, [r4, #38]
	.loc	12 219 45                       @ ../GUILib/src/widgets/lv_table.c:219:45
	mul	r2, r0, r8
.Ltmp435:
	@DEBUG_VALUE: old_cell_cnt <- $r2
	.loc	12 220 48                       @ ../GUILib/src/widgets/lv_table.c:220:48
	mul	r7, r1, r0
.Ltmp436:
	@DEBUG_VALUE: i <- $r7
	@DEBUG_VALUE: new_cell_cnt <- $r7
	.loc	12 222 35                       @ ../GUILib/src/widgets/lv_table.c:222:35
	uxth	r6, r2
.Ltmp437:
	.loc	12 222 9 is_stmt 0              @ ../GUILib/src/widgets/lv_table.c:222:9
	cmp	r7, r6
	bhs	.LBB6_4
.Ltmp438:
	.p2align	2
.LBB6_3:                                @ =>This Inner Loop Header: Depth=1
	@DEBUG_VALUE: i <- $r7
	@DEBUG_VALUE: lv_table_set_row_cnt:obj <- $r4
	@DEBUG_VALUE: lv_table_set_row_cnt:table <- $r4
	@DEBUG_VALUE: i <- $r7
	.loc	12 223 32 is_stmt 1             @ ../GUILib/src/widgets/lv_table.c:223:32
	ldr	r0, [r4, #40]
	.loc	12 223 25 is_stmt 0             @ ../GUILib/src/widgets/lv_table.c:223:25
	ldr.w	r0, [r0, r7, lsl #2]
	.loc	12 223 13                       @ ../GUILib/src/widgets/lv_table.c:223:13
	bl	lv_mem_free
.Ltmp439:
	.loc	12 222 50 is_stmt 1             @ ../GUILib/src/widgets/lv_table.c:222:50
	adds	r7, #1
.Ltmp440:
	@DEBUG_VALUE: i <- $r7
	.loc	12 222 9 is_stmt 0              @ ../GUILib/src/widgets/lv_table.c:222:9
	cmp	r6, r7
	bne	.LBB6_3
.Ltmp441:
.LBB6_4:
	@DEBUG_VALUE: lv_table_set_row_cnt:obj <- $r4
	@DEBUG_VALUE: lv_table_set_row_cnt:table <- $r4
	.loc	12 227 64 is_stmt 1             @ ../GUILib/src/widgets/lv_table.c:227:64
	ldrh	r1, [r4, #38]
	.loc	12 227 81 is_stmt 0             @ ../GUILib/src/widgets/lv_table.c:227:81
	ldrh	r2, [r4, #36]
	.loc	12 227 46                       @ ../GUILib/src/widgets/lv_table.c:227:46
	ldr	r0, [r4, #40]
	.loc	12 227 89                       @ ../GUILib/src/widgets/lv_table.c:227:89
	muls	r1, r2, r1
	lsls	r1, r1, #2
	.loc	12 227 24                       @ ../GUILib/src/widgets/lv_table.c:227:24
	bl	lv_mem_realloc
.Ltmp442:
	.loc	12 227 22                       @ ../GUILib/src/widgets/lv_table.c:227:22
	str	r0, [r4, #40]
.Ltmp443:
	.loc	12 228 5 is_stmt 1              @ ../GUILib/src/widgets/lv_table.c:228:5
	cbz	r0, .LBB6_9
.Ltmp444:
@ %bb.5:
	@DEBUG_VALUE: lv_table_set_row_cnt:obj <- $r4
	@DEBUG_VALUE: lv_table_set_row_cnt:table <- $r4
	.loc	12 232 8                        @ ../GUILib/src/widgets/lv_table.c:232:8
	cmp	r8, r5
	bhs	.LBB6_7
.Ltmp445:
@ %bb.6:
	@DEBUG_VALUE: lv_table_set_row_cnt:obj <- $r4
	@DEBUG_VALUE: lv_table_set_row_cnt:table <- $r4
	.loc	12 233 54                       @ ../GUILib/src/widgets/lv_table.c:233:54
	ldrh	r1, [r4, #36]
	.loc	12 234 57                       @ ../GUILib/src/widgets/lv_table.c:234:57
	ldrh	r2, [r4, #38]
	.loc	12 233 45                       @ ../GUILib/src/widgets/lv_table.c:233:45
	mul	r3, r1, r8
.Ltmp446:
	@DEBUG_VALUE: old_cell_cnt <- $r3
	.loc	12 234 48                       @ ../GUILib/src/widgets/lv_table.c:234:48
	muls	r2, r1, r2
.Ltmp447:
	@DEBUG_VALUE: new_cell_cnt <- $r2
	.loc	12 235 69                       @ ../GUILib/src/widgets/lv_table.c:235:69
	mls	r1, r1, r8, r2
	.loc	12 235 23 is_stmt 0             @ ../GUILib/src/widgets/lv_table.c:235:23
	add.w	r0, r0, r3, lsl #2
	.loc	12 235 85                       @ ../GUILib/src/widgets/lv_table.c:235:85
	lsls	r1, r1, #2
	.loc	12 235 9                        @ ../GUILib/src/widgets/lv_table.c:235:9
	bl	lv_memset_00
.Ltmp448:
.LBB6_7:
	@DEBUG_VALUE: lv_table_set_row_cnt:obj <- $r4
	@DEBUG_VALUE: lv_table_set_row_cnt:table <- $r4
	.loc	12 238 5 is_stmt 1              @ ../GUILib/src/widgets/lv_table.c:238:5
	mov	r0, r4
	movs	r1, #0
	pop.w	{r4, r5, r6, r7, r8, lr}
.Ltmp449:
	b	refr_size
.Ltmp450:
	.p2align	2
.LBB6_8:                                @ =>This Inner Loop Header: Depth=1
	@DEBUG_VALUE: lv_table_set_row_cnt:obj <- $r4
	@DEBUG_VALUE: lv_table_set_row_cnt:table <- $r4
	.loc	12 214 5                        @ ../GUILib/src/widgets/lv_table.c:214:5
	b	.LBB6_8
.Ltmp451:
	.p2align	2
.LBB6_9:                                @ =>This Inner Loop Header: Depth=1
	@DEBUG_VALUE: lv_table_set_row_cnt:obj <- $r4
	@DEBUG_VALUE: lv_table_set_row_cnt:table <- $r4
	.loc	12 228 5                        @ ../GUILib/src/widgets/lv_table.c:228:5
	b	.LBB6_9
.Ltmp452:
.Lfunc_end6:
	.size	lv_table_set_row_cnt, .Lfunc_end6-lv_table_set_row_cnt
	.cfi_endproc
	.cantunwind
	.fnend
                                        @ -- End function
	.section	.text.refr_size,"ax",%progbits
	.p2align	1                               @ -- Begin function refr_size
	.type	refr_size,%function
	.code	16                              @ @refr_size
	.thumb_func
refr_size:
.Lfunc_begin7:
	.loc	12 777 0                        @ ../GUILib/src/widgets/lv_table.c:777:0
	.fnstart
	.cfi_startproc
@ %bb.0:
	@DEBUG_VALUE: refr_size:obj <- $r0
	@DEBUG_VALUE: refr_size:strat_row <- $r1
	.save	{r4, r5, r6, r7, r8, r9, r10, r11, lr}
	push.w	{r4, r5, r6, r7, r8, r9, r10, r11, lr}
	.cfi_def_cfa_offset 36
	.cfi_offset lr, -4
	.cfi_offset r11, -8
	.cfi_offset r10, -12
	.cfi_offset r9, -16
	.cfi_offset r8, -20
	.cfi_offset r7, -24
	.cfi_offset r6, -28
	.cfi_offset r5, -32
	.cfi_offset r4, -36
	.pad	#44
	sub	sp, #44
	.cfi_def_cfa_offset 80
	mov	r5, r1
.Ltmp453:
	@DEBUG_VALUE: refr_size:strat_row <- $r5
	.loc	20 105 26 prologue_end          @ ../GUILib/src/widgets/../core/lv_obj_style_gen.h:105:26
	mov.w	r1, #327680
	movw	r2, #6162
	mov	r4, r0
.Ltmp454:
	@DEBUG_VALUE: lv_obj_get_style_pad_left:part <- 327680
	@DEBUG_VALUE: lv_obj_get_style_pad_left:obj <- $r4
	@DEBUG_VALUE: refr_size:table <- $r4
	@DEBUG_VALUE: refr_size:strat_row <- $r5
	@DEBUG_VALUE: refr_size:obj <- $r4
	bl	lv_obj_get_style_prop
.Ltmp455:
	mov	r8, r0
.Ltmp456:
	@DEBUG_VALUE: lv_obj_get_style_pad_right:part <- 327680
	@DEBUG_VALUE: lv_obj_get_style_pad_right:obj <- $r4
	@DEBUG_VALUE: refr_size:cell_left <- [DW_OP_LLVM_convert 32 7, DW_OP_LLVM_convert 16 7, DW_OP_stack_value] $r8
	@DEBUG_VALUE: lv_obj_get_style_pad_left:v <- $r8
	.loc	20 111 26                       @ ../GUILib/src/widgets/../core/lv_obj_style_gen.h:111:26
	mov	r0, r4
	mov.w	r1, #327680
	movw	r2, #6163
	bl	lv_obj_get_style_prop
.Ltmp457:
	mov	r9, r0
.Ltmp458:
	@DEBUG_VALUE: lv_obj_get_style_pad_top:part <- 327680
	@DEBUG_VALUE: lv_obj_get_style_pad_top:obj <- $r4
	@DEBUG_VALUE: refr_size:cell_right <- [DW_OP_LLVM_convert 32 7, DW_OP_LLVM_convert 16 7, DW_OP_stack_value] $r9
	@DEBUG_VALUE: lv_obj_get_style_pad_right:v <- $r9
	.loc	20 93 26                        @ ../GUILib/src/widgets/../core/lv_obj_style_gen.h:93:26
	mov	r0, r4
	mov.w	r1, #327680
	movw	r2, #6160
	bl	lv_obj_get_style_prop
.Ltmp459:
	mov	r10, r0
.Ltmp460:
	@DEBUG_VALUE: lv_obj_get_style_pad_bottom:part <- 327680
	@DEBUG_VALUE: lv_obj_get_style_pad_bottom:obj <- $r4
	@DEBUG_VALUE: refr_size:cell_top <- [DW_OP_LLVM_convert 32 7, DW_OP_LLVM_convert 16 7, DW_OP_stack_value] $r10
	@DEBUG_VALUE: lv_obj_get_style_pad_top:v <- $r10
	.loc	20 99 26                        @ ../GUILib/src/widgets/../core/lv_obj_style_gen.h:99:26
	mov	r0, r4
	mov.w	r1, #327680
	movw	r2, #6161
	bl	lv_obj_get_style_prop
.Ltmp461:
	mov	r11, r0
.Ltmp462:
	@DEBUG_VALUE: lv_obj_get_style_text_letter_space:part <- 327680
	@DEBUG_VALUE: lv_obj_get_style_text_letter_space:obj <- $r4
	@DEBUG_VALUE: refr_size:cell_bottom <- [DW_OP_LLVM_convert 32 7, DW_OP_LLVM_convert 16 7, DW_OP_stack_value] $r11
	@DEBUG_VALUE: lv_obj_get_style_pad_bottom:v <- $r11
	.loc	20 339 26                       @ ../GUILib/src/widgets/../core/lv_obj_style_gen.h:339:26
	mov	r0, r4
	mov.w	r1, #327680
	movw	r2, #5210
	bl	lv_obj_get_style_prop
.Ltmp463:
	mov	r7, r0
.Ltmp464:
	@DEBUG_VALUE: lv_obj_get_style_text_line_space:part <- 327680
	@DEBUG_VALUE: lv_obj_get_style_text_line_space:obj <- $r4
	@DEBUG_VALUE: refr_size:letter_space <- [DW_OP_LLVM_convert 32 7, DW_OP_LLVM_convert 16 7, DW_OP_stack_value] $r7
	@DEBUG_VALUE: lv_obj_get_style_text_letter_space:v <- $r7
	.loc	20 345 26                       @ ../GUILib/src/widgets/../core/lv_obj_style_gen.h:345:26
	mov	r0, r4
	mov.w	r1, #327680
	movw	r2, #5211
	bl	lv_obj_get_style_prop
.Ltmp465:
	mov	r6, r0
.Ltmp466:
	@DEBUG_VALUE: lv_obj_get_style_text_font:part <- 327680
	@DEBUG_VALUE: lv_obj_get_style_text_font:obj <- $r4
	@DEBUG_VALUE: refr_size:line_space <- [DW_OP_LLVM_convert 32 7, DW_OP_LLVM_convert 16 7, DW_OP_stack_value] $r6
	@DEBUG_VALUE: lv_obj_get_style_text_line_space:v <- $r6
	.loc	20 333 26                       @ ../GUILib/src/widgets/../core/lv_obj_style_gen.h:333:26
	mov	r0, r4
	mov.w	r1, #327680
	movw	r2, #5209
	bl	lv_obj_get_style_prop
.Ltmp467:
	str	r0, [sp, #32]                   @ 4-byte Spill
.Ltmp468:
	@DEBUG_VALUE: lv_obj_get_style_min_height:part <- 327680
	@DEBUG_VALUE: lv_obj_get_style_min_height:obj <- $r4
	@DEBUG_VALUE: refr_size:font <- [DW_OP_plus_uconst 32] [$sp+0]
	@DEBUG_VALUE: lv_obj_get_style_text_font:v <- [DW_OP_plus_uconst 32] [$sp+0]
	.loc	20 27 26                        @ ../GUILib/src/widgets/../core/lv_obj_style_gen.h:27:26
	mov	r0, r4
	mov.w	r1, #327680
	movw	r2, #4101
	bl	lv_obj_get_style_prop
.Ltmp469:
	str	r0, [sp, #40]                   @ 4-byte Spill
.Ltmp470:
	@DEBUG_VALUE: lv_obj_get_style_max_height:part <- 327680
	@DEBUG_VALUE: lv_obj_get_style_max_height:obj <- $r4
	@DEBUG_VALUE: refr_size:minh <- [DW_OP_plus_uconst 40, DW_OP_deref_size 4, DW_OP_LLVM_convert 32 7, DW_OP_LLVM_convert 16 7, DW_OP_stack_value] $sp
	@DEBUG_VALUE: lv_obj_get_style_min_height:v <- [DW_OP_plus_uconst 40] [$sp+0]
	.loc	20 33 26                        @ ../GUILib/src/widgets/../core/lv_obj_style_gen.h:33:26
	mov	r0, r4
	mov.w	r1, #327680
	movw	r2, #4102
	bl	lv_obj_get_style_prop
.Ltmp471:
	.loc	12 794 35                       @ ../GUILib/src/widgets/lv_table.c:794:35
	ldrh	r1, [r4, #38]
.Ltmp472:
	.loc	20 33 26                        @ ../GUILib/src/widgets/../core/lv_obj_style_gen.h:33:26
	str	r0, [sp, #36]                   @ 4-byte Spill
.Ltmp473:
	@DEBUG_VALUE: refr_size:i <- $r5
	@DEBUG_VALUE: refr_size:maxh <- [DW_OP_plus_uconst 36, DW_OP_deref_size 4, DW_OP_LLVM_convert 32 7, DW_OP_LLVM_convert 16 7, DW_OP_stack_value] $sp
	@DEBUG_VALUE: lv_obj_get_style_max_height:v <- [DW_OP_plus_uconst 36] [$sp+0]
	@DEBUG_VALUE: lv_obj_get_style_max_height:part <- 327680
	@DEBUG_VALUE: lv_obj_get_style_max_height:obj <- $r4
	.loc	12 794 5                        @ ../GUILib/src/widgets/lv_table.c:794:5
	cmp	r1, r5
	bls	.LBB7_3
.Ltmp474:
@ %bb.1:
	@DEBUG_VALUE: lv_obj_get_style_pad_bottom:v <- $r11
	@DEBUG_VALUE: refr_size:cell_bottom <- [DW_OP_LLVM_convert 32 7, DW_OP_LLVM_convert 16 7, DW_OP_stack_value] $r11
	@DEBUG_VALUE: lv_obj_get_style_pad_top:v <- $r10
	@DEBUG_VALUE: refr_size:cell_top <- [DW_OP_LLVM_convert 32 7, DW_OP_LLVM_convert 16 7, DW_OP_stack_value] $r10
	@DEBUG_VALUE: lv_obj_get_style_pad_right:v <- $r9
	@DEBUG_VALUE: refr_size:cell_right <- [DW_OP_LLVM_convert 32 7, DW_OP_LLVM_convert 16 7, DW_OP_stack_value] $r9
	@DEBUG_VALUE: lv_obj_get_style_pad_left:v <- $r8
	@DEBUG_VALUE: refr_size:cell_left <- [DW_OP_LLVM_convert 32 7, DW_OP_LLVM_convert 16 7, DW_OP_stack_value] $r8
	@DEBUG_VALUE: lv_obj_get_style_text_letter_space:v <- $r7
	@DEBUG_VALUE: refr_size:letter_space <- [DW_OP_LLVM_convert 32 7, DW_OP_LLVM_convert 16 7, DW_OP_stack_value] $r7
	@DEBUG_VALUE: lv_obj_get_style_text_line_space:v <- $r6
	@DEBUG_VALUE: refr_size:line_space <- [DW_OP_LLVM_convert 32 7, DW_OP_LLVM_convert 16 7, DW_OP_stack_value] $r6
	@DEBUG_VALUE: refr_size:i <- $r5
	@DEBUG_VALUE: refr_size:strat_row <- $r5
	@DEBUG_VALUE: lv_obj_get_style_max_height:obj <- $r4
	@DEBUG_VALUE: lv_obj_get_style_min_height:obj <- $r4
	@DEBUG_VALUE: lv_obj_get_style_text_font:obj <- $r4
	@DEBUG_VALUE: lv_obj_get_style_text_line_space:obj <- $r4
	@DEBUG_VALUE: lv_obj_get_style_text_letter_space:obj <- $r4
	@DEBUG_VALUE: lv_obj_get_style_pad_bottom:obj <- $r4
	@DEBUG_VALUE: lv_obj_get_style_pad_top:obj <- $r4
	@DEBUG_VALUE: lv_obj_get_style_pad_right:obj <- $r4
	@DEBUG_VALUE: refr_size:obj <- $r4
	@DEBUG_VALUE: refr_size:table <- $r4
	@DEBUG_VALUE: lv_obj_get_style_pad_left:obj <- $r4
	@DEBUG_VALUE: lv_obj_get_style_max_height:v <- [DW_OP_plus_uconst 36] [$sp+0]
	@DEBUG_VALUE: refr_size:maxh <- [DW_OP_plus_uconst 36, DW_OP_deref_size 4, DW_OP_LLVM_convert 32 7, DW_OP_LLVM_convert 16 7, DW_OP_stack_value] $sp
	@DEBUG_VALUE: lv_obj_get_style_min_height:v <- [DW_OP_plus_uconst 40] [$sp+0]
	@DEBUG_VALUE: refr_size:minh <- [DW_OP_plus_uconst 40, DW_OP_deref_size 4, DW_OP_LLVM_convert 32 7, DW_OP_LLVM_convert 16 7, DW_OP_stack_value] $sp
	@DEBUG_VALUE: lv_obj_get_style_text_font:v <- [DW_OP_plus_uconst 32] [$sp+0]
	@DEBUG_VALUE: refr_size:font <- [DW_OP_plus_uconst 32] [$sp+0]
	@DEBUG_VALUE: lv_obj_get_style_max_height:part <- 327680
	@DEBUG_VALUE: lv_obj_get_style_min_height:part <- 327680
	@DEBUG_VALUE: lv_obj_get_style_text_font:part <- 327680
	@DEBUG_VALUE: lv_obj_get_style_text_line_space:part <- 327680
	@DEBUG_VALUE: lv_obj_get_style_text_letter_space:part <- 327680
	@DEBUG_VALUE: lv_obj_get_style_pad_bottom:part <- 327680
	@DEBUG_VALUE: lv_obj_get_style_pad_top:part <- 327680
	@DEBUG_VALUE: lv_obj_get_style_pad_right:part <- 327680
	@DEBUG_VALUE: lv_obj_get_style_pad_left:part <- 327680
	.loc	12 0 5 is_stmt 0                @ ../GUILib/src/widgets/lv_table.c:0:5
	ldr	r0, [sp, #36]                   @ 4-byte Reload
	sxth.w	r11, r11
.Ltmp475:
	sxth	r0, r0
	str	r0, [sp, #28]                   @ 4-byte Spill
	ldr	r0, [sp, #40]                   @ 4-byte Reload
	sxth.w	r9, r9
.Ltmp476:
	sxth	r0, r0
	str	r0, [sp, #24]                   @ 4-byte Spill
	mov	r0, r7
	sxth.w	r7, r10
.Ltmp477:
	sxth.w	r8, r8
.Ltmp478:
	sxth.w	r10, r6
.Ltmp479:
	sxth	r6, r0
.Ltmp480:
	.p2align	2
.LBB7_2:                                @ =>This Inner Loop Header: Depth=1
	@DEBUG_VALUE: refr_size:i <- $r5
	@DEBUG_VALUE: refr_size:obj <- $r4
	@DEBUG_VALUE: refr_size:table <- $r4
	@DEBUG_VALUE: refr_size:maxh <- [DW_OP_plus_uconst 36, DW_OP_deref_size 4, DW_OP_LLVM_convert 32 7, DW_OP_LLVM_convert 16 7, DW_OP_stack_value] $sp
	@DEBUG_VALUE: refr_size:minh <- [DW_OP_plus_uconst 40, DW_OP_deref_size 4, DW_OP_LLVM_convert 32 7, DW_OP_LLVM_convert 16 7, DW_OP_stack_value] $sp
	@DEBUG_VALUE: refr_size:font <- [DW_OP_plus_uconst 32] [$sp+0]
	@DEBUG_VALUE: refr_size:i <- $r5
	.loc	12 795 27 is_stmt 1             @ ../GUILib/src/widgets/lv_table.c:795:27
	strd	r10, r8, [sp]
	strd	r9, r7, [sp, #8]
	ldr	r2, [sp, #32]                   @ 4-byte Reload
	uxth	r1, r5
	mov	r0, r4
	mov	r3, r6
	str.w	r11, [sp, #16]
	bl	get_row_height
.Ltmp481:
	.loc	12 797 27                       @ ../GUILib/src/widgets/lv_table.c:797:27
	ldr	r2, [sp, #28]                   @ 4-byte Reload
	.loc	12 795 16                       @ ../GUILib/src/widgets/lv_table.c:795:16
	ldr	r1, [r4, #44]
	.loc	12 797 27                       @ ../GUILib/src/widgets/lv_table.c:797:27
	cmp	r0, r2
	ldr	r2, [sp, #36]                   @ 4-byte Reload
	it	ge
	movge	r0, r2
	ldr	r3, [sp, #24]                   @ 4-byte Reload
	sxth	r2, r0
	cmp	r2, r3
	ldr	r2, [sp, #40]                   @ 4-byte Reload
	it	lt
	movlt	r0, r2
	.loc	12 797 25 is_stmt 0             @ ../GUILib/src/widgets/lv_table.c:797:25
	strh.w	r0, [r1, r5, lsl #1]
.Ltmp482:
	.loc	12 794 35 is_stmt 1             @ ../GUILib/src/widgets/lv_table.c:794:35
	ldrh	r0, [r4, #38]
	.loc	12 794 45 is_stmt 0             @ ../GUILib/src/widgets/lv_table.c:794:45
	adds	r5, #1
.Ltmp483:
	@DEBUG_VALUE: refr_size:i <- $r5
	.loc	12 794 5                        @ ../GUILib/src/widgets/lv_table.c:794:5
	cmp	r5, r0
	blo	.LBB7_2
.Ltmp484:
.LBB7_3:
	@DEBUG_VALUE: refr_size:i <- $r5
	@DEBUG_VALUE: refr_size:obj <- $r4
	@DEBUG_VALUE: refr_size:table <- $r4
	@DEBUG_VALUE: refr_size:maxh <- [DW_OP_plus_uconst 36, DW_OP_deref_size 4, DW_OP_LLVM_convert 32 7, DW_OP_LLVM_convert 16 7, DW_OP_stack_value] $sp
	@DEBUG_VALUE: refr_size:minh <- [DW_OP_plus_uconst 40, DW_OP_deref_size 4, DW_OP_LLVM_convert 32 7, DW_OP_LLVM_convert 16 7, DW_OP_stack_value] $sp
	@DEBUG_VALUE: refr_size:font <- [DW_OP_plus_uconst 32] [$sp+0]
	.loc	12 800 5 is_stmt 1              @ ../GUILib/src/widgets/lv_table.c:800:5
	mov	r0, r4
	add	sp, #44
	pop.w	{r4, r5, r6, r7, r8, r9, r10, r11, lr}
.Ltmp485:
	b	lv_obj_refresh_self_size
.Ltmp486:
.Lfunc_end7:
	.size	refr_size, .Lfunc_end7-refr_size
	.cfi_endproc
	.cantunwind
	.fnend
                                        @ -- End function
	.section	.text.lv_table_set_cell_value_fmt,"ax",%progbits
	.hidden	lv_table_set_cell_value_fmt     @ -- Begin function lv_table_set_cell_value_fmt
	.globl	lv_table_set_cell_value_fmt
	.p2align	1
	.type	lv_table_set_cell_value_fmt,%function
	.code	16                              @ @lv_table_set_cell_value_fmt
	.thumb_func
lv_table_set_cell_value_fmt:
.Lfunc_begin8:
	.loc	12 115 0                        @ ../GUILib/src/widgets/lv_table.c:115:0
	.fnstart
	.cfi_startproc
@ %bb.0:
	@DEBUG_VALUE: lv_table_set_cell_value_fmt:obj <- $r0
	@DEBUG_VALUE: lv_table_set_cell_value_fmt:row <- $r1
	@DEBUG_VALUE: lv_table_set_cell_value_fmt:col <- $r2
	@DEBUG_VALUE: lv_table_set_cell_value_fmt:fmt <- $r3
	@DEBUG_VALUE: lv_table_set_cell_value_fmt:fmt <- $r3
	@DEBUG_VALUE: lv_table_set_cell_value_fmt:col <- $r2
	@DEBUG_VALUE: lv_table_set_cell_value_fmt:row <- $r1
	.save	{r4, r5, r6, r7, r8, r9, r10, r11, lr}
	push.w	{r4, r5, r6, r7, r8, r9, r10, r11, lr}
	.cfi_def_cfa_offset 36
	.cfi_offset lr, -4
	.cfi_offset r11, -8
	.cfi_offset r10, -12
	.cfi_offset r9, -16
	.cfi_offset r8, -20
	.cfi_offset r7, -24
	.cfi_offset r6, -28
	.cfi_offset r5, -32
	.cfi_offset r4, -36
	.pad	#28
	sub	sp, #28
	.cfi_def_cfa_offset 64
.Ltmp487:
	.loc	12 117 5 prologue_end           @ ../GUILib/src/widgets/lv_table.c:117:5
	cmp	r3, #0
	@DEBUG_VALUE: lv_table_set_cell_value_fmt:obj <- $r0
	beq.w	.LBB8_7
.Ltmp488:
@ %bb.1:
	@DEBUG_VALUE: lv_table_set_cell_value_fmt:fmt <- $r3
	@DEBUG_VALUE: lv_table_set_cell_value_fmt:col <- $r2
	@DEBUG_VALUE: lv_table_set_cell_value_fmt:row <- $r1
	@DEBUG_VALUE: lv_table_set_cell_value_fmt:obj <- $r0
	@DEBUG_VALUE: lv_table_set_cell_value_fmt:fmt <- $r3
	.loc	12 0 5 is_stmt 0                @ ../GUILib/src/widgets/lv_table.c:0:5
	mov	r5, r0
.Ltmp489:
	@DEBUG_VALUE: lv_table_set_cell_value_fmt:obj <- $r5
	@DEBUG_VALUE: lv_table_set_cell_value_fmt:row <- $r1
	@DEBUG_VALUE: lv_table_set_cell_value_fmt:table <- $r5
	.loc	12 120 22 is_stmt 1             @ ../GUILib/src/widgets/lv_table.c:120:22
	ldrh	r0, [r0, #36]
	mov	r7, r2
.Ltmp490:
	@DEBUG_VALUE: lv_table_set_cell_value_fmt:col <- $r7
	@DEBUG_VALUE: lv_table_set_cell_value_fmt:row <- $r1
	.loc	12 120 8 is_stmt 0              @ ../GUILib/src/widgets/lv_table.c:120:8
	cmp	r0, r2
	bls.w	.LBB8_6
.Ltmp491:
@ %bb.2:
	@DEBUG_VALUE: lv_table_set_cell_value_fmt:col <- $r7
	@DEBUG_VALUE: lv_table_set_cell_value_fmt:table <- $r5
	@DEBUG_VALUE: lv_table_set_cell_value_fmt:obj <- $r5
	@DEBUG_VALUE: lv_table_set_cell_value_fmt:fmt <- $r3
	@DEBUG_VALUE: lv_table_set_cell_value_fmt:row <- $r1
	.loc	12 0 8                          @ ../GUILib/src/widgets/lv_table.c:0:8
	mov	r8, r1
.Ltmp492:
	@DEBUG_VALUE: lv_table_set_cell_value_fmt:row <- $r8
	@DEBUG_VALUE: lv_table_set_cell_value_fmt:row <- $r8
	@DEBUG_VALUE: lv_table_set_cell_value_fmt:row <- $r8
	@DEBUG_VALUE: lv_table_set_cell_value_fmt:row <- $r8
	@DEBUG_VALUE: lv_table_set_cell_value_fmt:table <- $r5
	.loc	12 126 22 is_stmt 1             @ ../GUILib/src/widgets/lv_table.c:126:22
	ldrh	r1, [r5, #38]
	mov	r6, r3
.Ltmp493:
	@DEBUG_VALUE: lv_table_set_cell_value_fmt:fmt <- $r6
	@DEBUG_VALUE: lv_table_set_cell_value_fmt:fmt <- $r6
	.loc	12 126 8 is_stmt 0              @ ../GUILib/src/widgets/lv_table.c:126:8
	cmp	r1, r8
	bhi	.LBB8_4
.Ltmp494:
@ %bb.3:
	@DEBUG_VALUE: lv_table_set_cell_value_fmt:row <- $r8
	@DEBUG_VALUE: lv_table_set_cell_value_fmt:col <- $r7
	@DEBUG_VALUE: lv_table_set_cell_value_fmt:fmt <- $r6
	@DEBUG_VALUE: lv_table_set_cell_value_fmt:table <- $r5
	@DEBUG_VALUE: lv_table_set_cell_value_fmt:obj <- $r5
	.loc	12 127 39 is_stmt 1             @ ../GUILib/src/widgets/lv_table.c:127:39
	add.w	r0, r8, #1
	.loc	12 127 9 is_stmt 0              @ ../GUILib/src/widgets/lv_table.c:127:9
	uxth	r1, r0
	mov	r0, r5
	bl	lv_table_set_row_cnt
.Ltmp495:
	.loc	12 130 34 is_stmt 1             @ ../GUILib/src/widgets/lv_table.c:130:34
	ldrh	r0, [r5, #36]
.Ltmp496:
.LBB8_4:
	@DEBUG_VALUE: lv_table_set_cell_value_fmt:row <- $r8
	@DEBUG_VALUE: lv_table_set_cell_value_fmt:col <- $r7
	@DEBUG_VALUE: lv_table_set_cell_value_fmt:fmt <- $r6
	@DEBUG_VALUE: lv_table_set_cell_value_fmt:table <- $r5
	@DEBUG_VALUE: lv_table_set_cell_value_fmt:obj <- $r5
	.loc	12 130 42 is_stmt 0             @ ../GUILib/src/widgets/lv_table.c:130:42
	mla	r4, r0, r8, r7
.Ltmp497:
	@DEBUG_VALUE: lv_table_set_cell_value_fmt:ctrl <- 0
	@DEBUG_VALUE: lv_table_set_cell_value_fmt:cell <- $r4
	.loc	12 134 15 is_stmt 1             @ ../GUILib/src/widgets/lv_table.c:134:15
	ldr	r0, [r5, #40]
	add	r3, sp, #64
	.loc	12 134 8 is_stmt 0              @ ../GUILib/src/widgets/lv_table.c:134:8
	ldr.w	r0, [r0, r4, lsl #2]
.Ltmp498:
	.loc	12 141 20 is_stmt 1             @ ../GUILib/src/widgets/lv_table.c:141:20
	movs	r1, #0
	.loc	12 134 8                        @ ../GUILib/src/widgets/lv_table.c:134:8
	cmp	r0, #0
.Ltmp499:
	.loc	12 134 39 is_stmt 0             @ ../GUILib/src/widgets/lv_table.c:134:39
	ite	ne
	ldrbne.w	r9, [r0]
	moveq.w	r9, #0
.Ltmp500:
	@DEBUG_VALUE: lv_table_set_cell_value_fmt:ctrl <- $r9
	.loc	12 141 20 is_stmt 1             @ ../GUILib/src/widgets/lv_table.c:141:20
	movs	r0, #0
	mov	r2, r6
	.loc	12 138 5                        @ ../GUILib/src/widgets/lv_table.c:138:5
	strd	r3, r3, [sp, #20]
	mov.w	r10, #0
	.loc	12 141 20                       @ ../GUILib/src/widgets/lv_table.c:141:20
	bl	lv_vsnprintf
.Ltmp501:
	.loc	12 167 52                       @ ../GUILib/src/widgets/lv_table.c:167:52
	ldr	r1, [r5, #40]
	.loc	12 141 20                       @ ../GUILib/src/widgets/lv_table.c:141:20
	mov	r7, r0
.Ltmp502:
	@DEBUG_VALUE: lv_table_set_cell_value_fmt:col <- [DW_OP_LLVM_entry_value 1] $r2
	@DEBUG_VALUE: lv_table_set_cell_value_fmt:len <- $r7
	.loc	12 167 45                       @ ../GUILib/src/widgets/lv_table.c:167:45
	ldr.w	r0, [r1, r4, lsl #2]
	.loc	12 167 73 is_stmt 0             @ ../GUILib/src/widgets/lv_table.c:167:73
	adds	r1, r7, #2
	.loc	12 167 30                       @ ../GUILib/src/widgets/lv_table.c:167:30
	bl	lv_mem_realloc
.Ltmp503:
	.loc	12 167 12                       @ ../GUILib/src/widgets/lv_table.c:167:12
	ldr	r1, [r5, #40]
	.loc	12 167 28                       @ ../GUILib/src/widgets/lv_table.c:167:28
	str.w	r0, [r1, r4, lsl #2]
.Ltmp504:
	.loc	12 168 5 is_stmt 1              @ ../GUILib/src/widgets/lv_table.c:168:5
	ldr	r0, [r5, #40]
	ldr.w	r0, [r0, r4, lsl #2]
.Ltmp505:
	.loc	12 168 5 is_stmt 0              @ ../GUILib/src/widgets/lv_table.c:168:5
	cmp	r0, #0
	beq	.LBB8_8
.Ltmp506:
@ %bb.5:
	@DEBUG_VALUE: lv_table_set_cell_value_fmt:ctrl <- $r9
	@DEBUG_VALUE: lv_table_set_cell_value_fmt:row <- $r8
	@DEBUG_VALUE: lv_table_set_cell_value_fmt:len <- $r7
	@DEBUG_VALUE: lv_table_set_cell_value_fmt:fmt <- $r6
	@DEBUG_VALUE: lv_table_set_cell_value_fmt:table <- $r5
	@DEBUG_VALUE: lv_table_set_cell_value_fmt:obj <- $r5
	@DEBUG_VALUE: lv_table_set_cell_value_fmt:cell <- $r4
	@DEBUG_VALUE: lv_table_set_cell_value_fmt:col <- [DW_OP_LLVM_entry_value 1] $r2
	.loc	12 174 32 is_stmt 1             @ ../GUILib/src/widgets/lv_table.c:174:32
	adds	r1, r7, #1
	.loc	12 174 37 is_stmt 0             @ ../GUILib/src/widgets/lv_table.c:174:37
	strb.w	r10, [r0, r1]
	.loc	12 176 26 is_stmt 1             @ ../GUILib/src/widgets/lv_table.c:176:26
	ldr	r0, [r5, #40]
	.loc	12 176 5 is_stmt 0              @ ../GUILib/src/widgets/lv_table.c:176:5
	ldr	r3, [sp, #20]
	.loc	12 176 19                       @ ../GUILib/src/widgets/lv_table.c:176:19
	ldr.w	r0, [r0, r4, lsl #2]
	.loc	12 176 5                        @ ../GUILib/src/widgets/lv_table.c:176:5
	mov	r2, r6
	.loc	12 176 19                       @ ../GUILib/src/widgets/lv_table.c:176:19
	adds	r0, #1
	.loc	12 176 5                        @ ../GUILib/src/widgets/lv_table.c:176:5
	bl	lv_vsnprintf
.Ltmp507:
	.loc	12 181 12 is_stmt 1             @ ../GUILib/src/widgets/lv_table.c:181:12
	ldr	r0, [r5, #40]
.Ltmp508:
	.loc	20 105 26                       @ ../GUILib/src/widgets/../core/lv_obj_style_gen.h:105:26
	mov.w	r1, #327680
.Ltmp509:
	.loc	12 181 5                        @ ../GUILib/src/widgets/lv_table.c:181:5
	ldr.w	r0, [r0, r4, lsl #2]
.Ltmp510:
	.loc	20 105 26                       @ ../GUILib/src/widgets/../core/lv_obj_style_gen.h:105:26
	movw	r2, #6162
.Ltmp511:
	.loc	12 181 31                       @ ../GUILib/src/widgets/lv_table.c:181:31
	strb.w	r9, [r0]
.Ltmp512:
	@DEBUG_VALUE: lv_obj_get_style_pad_left:part <- 327680
	@DEBUG_VALUE: lv_obj_get_style_pad_left:obj <- $r5
	.loc	20 105 26                       @ ../GUILib/src/widgets/../core/lv_obj_style_gen.h:105:26
	mov	r0, r5
	bl	lv_obj_get_style_prop
.Ltmp513:
	mov	r4, r0
.Ltmp514:
	@DEBUG_VALUE: lv_obj_get_style_pad_right:part <- 327680
	@DEBUG_VALUE: lv_obj_get_style_pad_right:obj <- $r5
	@DEBUG_VALUE: lv_table_set_cell_value_fmt:cell_left <- undef
	@DEBUG_VALUE: lv_obj_get_style_pad_left:v <- $r4
	.loc	20 111 26                       @ ../GUILib/src/widgets/../core/lv_obj_style_gen.h:111:26
	mov	r0, r5
	mov.w	r1, #327680
	movw	r2, #6163
	bl	lv_obj_get_style_prop
.Ltmp515:
	mov	r9, r0
.Ltmp516:
	@DEBUG_VALUE: lv_obj_get_style_pad_top:part <- 327680
	@DEBUG_VALUE: lv_obj_get_style_pad_top:obj <- $r5
	@DEBUG_VALUE: lv_table_set_cell_value_fmt:cell_right <- undef
	@DEBUG_VALUE: lv_obj_get_style_pad_right:v <- $r9
	.loc	20 93 26                        @ ../GUILib/src/widgets/../core/lv_obj_style_gen.h:93:26
	mov	r0, r5
	mov.w	r1, #327680
	movw	r2, #6160
	bl	lv_obj_get_style_prop
.Ltmp517:
	mov	r10, r0
.Ltmp518:
	@DEBUG_VALUE: lv_obj_get_style_pad_bottom:part <- 327680
	@DEBUG_VALUE: lv_obj_get_style_pad_bottom:obj <- $r5
	@DEBUG_VALUE: lv_table_set_cell_value_fmt:cell_top <- undef
	@DEBUG_VALUE: lv_obj_get_style_pad_top:v <- $r10
	.loc	20 99 26                        @ ../GUILib/src/widgets/../core/lv_obj_style_gen.h:99:26
	mov	r0, r5
	mov.w	r1, #327680
	movw	r2, #6161
	bl	lv_obj_get_style_prop
.Ltmp519:
	mov	r6, r0
.Ltmp520:
	@DEBUG_VALUE: lv_table_set_cell_value_fmt:fmt <- [DW_OP_LLVM_entry_value 1] $r3
	@DEBUG_VALUE: lv_obj_get_style_text_letter_space:part <- 327680
	@DEBUG_VALUE: lv_obj_get_style_text_letter_space:obj <- $r5
	@DEBUG_VALUE: lv_table_set_cell_value_fmt:cell_bottom <- undef
	@DEBUG_VALUE: lv_obj_get_style_pad_bottom:v <- $r6
	.loc	20 339 26                       @ ../GUILib/src/widgets/../core/lv_obj_style_gen.h:339:26
	mov	r0, r5
	mov.w	r1, #327680
	movw	r2, #5210
	bl	lv_obj_get_style_prop
.Ltmp521:
	mov	r11, r0
.Ltmp522:
	@DEBUG_VALUE: lv_obj_get_style_text_line_space:part <- 327680
	@DEBUG_VALUE: lv_obj_get_style_text_line_space:obj <- $r5
	@DEBUG_VALUE: lv_table_set_cell_value_fmt:letter_space <- undef
	@DEBUG_VALUE: lv_obj_get_style_text_letter_space:v <- $r11
	.loc	20 345 26                       @ ../GUILib/src/widgets/../core/lv_obj_style_gen.h:345:26
	mov	r0, r5
	mov.w	r1, #327680
	movw	r2, #5211
	bl	lv_obj_get_style_prop
.Ltmp523:
	mov	r7, r0
.Ltmp524:
	@DEBUG_VALUE: lv_obj_get_style_text_font:part <- 327680
	@DEBUG_VALUE: lv_obj_get_style_text_font:obj <- $r5
	@DEBUG_VALUE: lv_table_set_cell_value_fmt:line_space <- undef
	@DEBUG_VALUE: lv_obj_get_style_text_line_space:v <- $r7
	.loc	20 333 26                       @ ../GUILib/src/widgets/../core/lv_obj_style_gen.h:333:26
	mov	r0, r5
	mov.w	r1, #327680
	movw	r2, #5209
	bl	lv_obj_get_style_prop
.Ltmp525:
	mov	r2, r0
.Ltmp526:
	@DEBUG_VALUE: lv_table_set_cell_value_fmt:font <- $r2
	@DEBUG_VALUE: lv_obj_get_style_text_font:v <- $r2
	.loc	12 193 20                       @ ../GUILib/src/widgets/lv_table.c:193:20
	sxth.w	r0, r10
	sxth.w	r1, r9
	sxth	r3, r4
	sxth	r7, r7
	sxth	r6, r6
	strd	r7, r3, [sp]
	strd	r1, r0, [sp, #8]
	sxth.w	r3, r11
	mov	r0, r5
	mov	r1, r8
	str	r6, [sp, #16]
	bl	get_row_height
.Ltmp527:
	mov	r6, r0
.Ltmp528:
	@DEBUG_VALUE: lv_obj_get_style_min_height:part <- 327680
	@DEBUG_VALUE: lv_obj_get_style_min_height:obj <- $r5
	@DEBUG_VALUE: lv_table_set_cell_value_fmt:h <- undef
	.loc	20 27 26                        @ ../GUILib/src/widgets/../core/lv_obj_style_gen.h:27:26
	mov	r0, r5
	mov.w	r1, #327680
	movw	r2, #4101
	bl	lv_obj_get_style_prop
.Ltmp529:
	mov	r7, r0
.Ltmp530:
	@DEBUG_VALUE: lv_obj_get_style_max_height:part <- 327680
	@DEBUG_VALUE: lv_obj_get_style_max_height:obj <- $r5
	@DEBUG_VALUE: lv_table_set_cell_value_fmt:minh <- [DW_OP_LLVM_convert 32 7, DW_OP_LLVM_convert 16 7, DW_OP_stack_value] $r7
	@DEBUG_VALUE: lv_obj_get_style_min_height:v <- $r7
	.loc	20 33 26                        @ ../GUILib/src/widgets/../core/lv_obj_style_gen.h:33:26
	mov	r0, r5
	mov.w	r1, #327680
	movw	r2, #4102
	bl	lv_obj_get_style_prop
.Ltmp531:
	@DEBUG_VALUE: lv_table_set_cell_value_fmt:maxh <- [DW_OP_LLVM_convert 32 7, DW_OP_LLVM_convert 16 7, DW_OP_stack_value] $r0
	@DEBUG_VALUE: lv_obj_get_style_max_height:v <- $r0
	.loc	12 200 25                       @ ../GUILib/src/widgets/lv_table.c:200:25
	sxth	r0, r0
.Ltmp532:
	sxth	r1, r7
	cmp	r0, r6
	it	gt
	movgt	r0, r6
	.loc	12 200 12 is_stmt 0             @ ../GUILib/src/widgets/lv_table.c:200:12
	ldr	r2, [r5, #44]
	.loc	12 200 25                       @ ../GUILib/src/widgets/lv_table.c:200:25
	cmp	r0, r1
	it	lt
	movlt	r0, r1
	.loc	12 200 23                       @ ../GUILib/src/widgets/lv_table.c:200:23
	strh.w	r0, [r2, r8, lsl #1]
	.loc	12 202 5 is_stmt 1              @ ../GUILib/src/widgets/lv_table.c:202:5
	mov	r0, r5
	bl	lv_obj_invalidate
.Ltmp533:
.LBB8_6:
	@DEBUG_VALUE: lv_table_set_cell_value_fmt:table <- $r5
	@DEBUG_VALUE: lv_table_set_cell_value_fmt:obj <- $r5
	.loc	12 203 1                        @ ../GUILib/src/widgets/lv_table.c:203:1
	add	sp, #28
	pop.w	{r4, r5, r6, r7, r8, r9, r10, r11, pc}
.Ltmp534:
	.p2align	2
.LBB8_7:                                @ =>This Inner Loop Header: Depth=1
	@DEBUG_VALUE: lv_table_set_cell_value_fmt:fmt <- $r3
	@DEBUG_VALUE: lv_table_set_cell_value_fmt:col <- $r2
	@DEBUG_VALUE: lv_table_set_cell_value_fmt:row <- $r1
	@DEBUG_VALUE: lv_table_set_cell_value_fmt:obj <- $r0
	.loc	12 117 5                        @ ../GUILib/src/widgets/lv_table.c:117:5
	b	.LBB8_7
.Ltmp535:
	.p2align	2
.LBB8_8:                                @ =>This Inner Loop Header: Depth=1
	@DEBUG_VALUE: lv_table_set_cell_value_fmt:ctrl <- $r9
	@DEBUG_VALUE: lv_table_set_cell_value_fmt:row <- $r8
	@DEBUG_VALUE: lv_table_set_cell_value_fmt:len <- $r7
	@DEBUG_VALUE: lv_table_set_cell_value_fmt:fmt <- $r6
	@DEBUG_VALUE: lv_table_set_cell_value_fmt:table <- $r5
	@DEBUG_VALUE: lv_table_set_cell_value_fmt:obj <- $r5
	@DEBUG_VALUE: lv_table_set_cell_value_fmt:cell <- $r4
	@DEBUG_VALUE: lv_table_set_cell_value_fmt:col <- [DW_OP_LLVM_entry_value 1] $r2
	.loc	12 168 5                        @ ../GUILib/src/widgets/lv_table.c:168:5
	b	.LBB8_8
.Ltmp536:
.Lfunc_end8:
	.size	lv_table_set_cell_value_fmt, .Lfunc_end8-lv_table_set_cell_value_fmt
	.cfi_endproc
	.cantunwind
	.fnend
                                        @ -- End function
	.section	.text.get_row_height,"ax",%progbits
	.p2align	1                               @ -- Begin function get_row_height
	.type	get_row_height,%function
	.code	16                              @ @get_row_height
	.thumb_func
get_row_height:
.Lfunc_begin9:
	.loc	12 806 0                        @ ../GUILib/src/widgets/lv_table.c:806:0
	.fnstart
	.cfi_startproc
@ %bb.0:
	@DEBUG_VALUE: get_row_height:obj <- $r0
	@DEBUG_VALUE: get_row_height:row_id <- $r1
	@DEBUG_VALUE: get_row_height:font <- $r2
	@DEBUG_VALUE: get_row_height:letter_space <- $r3
	.save	{r4, r5, r6, r7, r8, r9, r10, r11, lr}
	push.w	{r4, r5, r6, r7, r8, r9, r10, r11, lr}
	.cfi_def_cfa_offset 36
	.cfi_offset lr, -4
	.cfi_offset r11, -8
	.cfi_offset r10, -12
	.cfi_offset r9, -16
	.cfi_offset r8, -20
	.cfi_offset r7, -24
	.cfi_offset r6, -28
	.cfi_offset r5, -32
	.cfi_offset r4, -36
	.pad	#44
	sub	sp, #44
	.cfi_def_cfa_offset 80
	ldrd	r7, r6, [sp, #92]
.Ltmp537:
	@DEBUG_VALUE: get_row_height:table <- $r0
	@DEBUG_VALUE: get_row_height:line_space <- undef
	@DEBUG_VALUE: get_row_height:cell_left <- undef
	@DEBUG_VALUE: get_row_height:cell_right <- undef
	@DEBUG_VALUE: get_row_height:cell_top <- $r7
	@DEBUG_VALUE: get_row_height:cell_bottom <- $r6
	@DEBUG_VALUE: get_row_height:letter_space <- [DW_OP_plus_uconst 16] [$sp+0]
	@DEBUG_VALUE: get_row_height:font <- $r2
	@DEBUG_VALUE: get_row_height:row_id <- $r1
	@DEBUG_VALUE: get_row_height:obj <- $r0
	str	r3, [sp, #16]                   @ 4-byte Spill
.Ltmp538:
	.loc	12 811 42 prologue_end          @ ../GUILib/src/widgets/lv_table.c:811:42
	ldrh.w	r12, [r0, #36]
.Ltmp539:
	@DEBUG_VALUE: get_row_height:row_start <- undef
	.loc	18 120 20                       @ ../GUILib/src/widgets/../font/lv_font.h:120:20
	ldrh	r3, [r2, #8]
	str	r2, [sp, #28]                   @ 4-byte Spill
.Ltmp540:
	@DEBUG_VALUE: get_row_height:font <- [DW_OP_plus_uconst 28] [$sp+0]
	@DEBUG_VALUE: lv_font_get_line_height:font_p <- [DW_OP_plus_uconst 28] [$sp+0]
	@DEBUG_VALUE: get_row_height:font <- [DW_OP_plus_uconst 28] [$sp+0]
	.loc	12 814 54                       @ ../GUILib/src/widgets/lv_table.c:814:54
	adds	r2, r6, r7
.Ltmp541:
	.loc	12 816 5                        @ ../GUILib/src/widgets/lv_table.c:816:5
	cmp.w	r12, #0
.Ltmp542:
	.loc	12 814 65                       @ ../GUILib/src/widgets/lv_table.c:814:65
	add.w	r4, r2, r3
.Ltmp543:
	@DEBUG_VALUE: get_row_height:cell <- undef
	@DEBUG_VALUE: get_row_height:col <- 0
	@DEBUG_VALUE: get_row_height:h_max <- $r4
	.loc	12 0 65 is_stmt 0               @ ../GUILib/src/widgets/lv_table.c:0:65
	str	r2, [sp, #24]                   @ 4-byte Spill
.Ltmp544:
	.loc	12 816 5 is_stmt 1              @ ../GUILib/src/widgets/lv_table.c:816:5
	beq	.LBB9_13
.Ltmp545:
@ %bb.1:
	@DEBUG_VALUE: get_row_height:cell_top <- $r7
	@DEBUG_VALUE: get_row_height:cell_bottom <- $r6
	@DEBUG_VALUE: get_row_height:h_max <- $r4
	@DEBUG_VALUE: get_row_height:row_id <- $r1
	@DEBUG_VALUE: get_row_height:table <- $r0
	@DEBUG_VALUE: get_row_height:obj <- $r0
	@DEBUG_VALUE: get_row_height:font <- [DW_OP_plus_uconst 28] [$sp+0]
	@DEBUG_VALUE: lv_font_get_line_height:font_p <- [DW_OP_plus_uconst 28] [$sp+0]
	@DEBUG_VALUE: get_row_height:letter_space <- [DW_OP_plus_uconst 16] [$sp+0]
	@DEBUG_VALUE: get_row_height:col <- 0
	@DEBUG_VALUE: get_row_height:cell_right <- $r3
	.loc	12 0 5 is_stmt 0                @ ../GUILib/src/widgets/lv_table.c:0:5
	ldrd	r2, r3, [sp, #84]
.Ltmp546:
	@DEBUG_VALUE: get_row_height:line_space <- undef
	@DEBUG_VALUE: get_row_height:cell_left <- $r2
	@DEBUG_VALUE: get_row_height:letter_space <- [DW_OP_plus_uconst 16] [$sp+0]
	mul	r10, r12, r1
.Ltmp547:
	@DEBUG_VALUE: get_row_height:cell <- $r10
	@DEBUG_VALUE: get_row_height:row_start <- $r10
	uxth.w	r1, r10
.Ltmp548:
	@DEBUG_VALUE: get_row_height:row_id <- [DW_OP_LLVM_entry_value 1] $r1
	add	r2, r3
.Ltmp549:
	str	r2, [sp, #12]                   @ 4-byte Spill
	mov	r3, r12
	str	r1, [sp, #32]                   @ 4-byte Spill
	mov	r2, r1
	movs	r1, #0
	str	r0, [sp, #20]                   @ 4-byte Spill
.Ltmp550:
	.p2align	2
.LBB9_2:                                @ =>This Loop Header: Depth=1
                                        @     Child Loop BB9_5 Depth 2
	@DEBUG_VALUE: get_row_height:cell <- $r10
	@DEBUG_VALUE: get_row_height:h_max <- $r4
	@DEBUG_VALUE: get_row_height:font <- [DW_OP_plus_uconst 28] [$sp+0]
	@DEBUG_VALUE: get_row_height:letter_space <- [DW_OP_plus_uconst 16] [$sp+0]
	@DEBUG_VALUE: get_row_height:row_id <- [DW_OP_LLVM_entry_value 1] $r1
	@DEBUG_VALUE: get_row_height:h_max <- $r4
	@DEBUG_VALUE: get_row_height:col <- $r1
	@DEBUG_VALUE: get_row_height:cell <- $r10
	.loc	12 817 19 is_stmt 1             @ ../GUILib/src/widgets/lv_table.c:817:19
	ldr	r6, [r0, #40]
	.loc	12 817 12 is_stmt 0             @ ../GUILib/src/widgets/lv_table.c:817:12
	ldr.w	lr, [r6, r2, lsl #2]
.Ltmp551:
	.loc	12 817 12                       @ ../GUILib/src/widgets/lv_table.c:817:12
	cmp.w	lr, #0
	beq	.LBB9_12
.Ltmp552:
@ %bb.3:                                @   in Loop: Header=BB9_2 Depth=1
	@DEBUG_VALUE: get_row_height:cell <- $r10
	@DEBUG_VALUE: get_row_height:h_max <- $r4
	@DEBUG_VALUE: get_row_height:col <- $r1
	@DEBUG_VALUE: get_row_height:font <- [DW_OP_plus_uconst 28] [$sp+0]
	@DEBUG_VALUE: get_row_height:letter_space <- [DW_OP_plus_uconst 16] [$sp+0]
	@DEBUG_VALUE: get_row_height:row_id <- [DW_OP_LLVM_entry_value 1] $r1
	.loc	12 818 41 is_stmt 1             @ ../GUILib/src/widgets/lv_table.c:818:41
	ldr	r7, [r0, #48]
	.loc	12 818 34 is_stmt 0             @ ../GUILib/src/widgets/lv_table.c:818:34
	uxth	r0, r1
.Ltmp553:
	@DEBUG_VALUE: get_row_height:obj <- [DW_OP_LLVM_entry_value 1] $r0
	.loc	12 0 34                         @ ../GUILib/src/widgets/lv_table.c:0:34
	str	r4, [sp, #36]                   @ 4-byte Spill
.Ltmp554:
	@DEBUG_VALUE: get_row_height:h_max <- [DW_OP_plus_uconst 36] [$sp+0]
	@DEBUG_VALUE: get_row_height:h_max <- [DW_OP_plus_uconst 36] [$sp+0]
	.loc	12 818 34                       @ ../GUILib/src/widgets/lv_table.c:818:34
	ldrh.w	r4, [r7, r0, lsl #1]
.Ltmp555:
	@DEBUG_VALUE: col_merge <- 0
	@DEBUG_VALUE: get_row_height:txt_w <- undef
	.loc	12 820 65 is_stmt 1             @ ../GUILib/src/widgets/lv_table.c:820:65
	subs	r3, #1
.Ltmp556:
	.loc	12 820 13 is_stmt 0             @ ../GUILib/src/widgets/lv_table.c:820:13
	cmp	r3, r0
	ble	.LBB9_8
.Ltmp557:
@ %bb.4:                                @   in Loop: Header=BB9_2 Depth=1
	@DEBUG_VALUE: get_row_height:h_max <- [DW_OP_plus_uconst 36] [$sp+0]
	@DEBUG_VALUE: get_row_height:cell <- $r10
	@DEBUG_VALUE: get_row_height:col <- $r1
	@DEBUG_VALUE: get_row_height:font <- [DW_OP_plus_uconst 28] [$sp+0]
	@DEBUG_VALUE: get_row_height:letter_space <- [DW_OP_plus_uconst 16] [$sp+0]
	@DEBUG_VALUE: col_merge <- 0
	@DEBUG_VALUE: get_row_height:row_id <- [DW_OP_LLVM_entry_value 1] $r1
	.loc	12 0 13                         @ ../GUILib/src/widgets/lv_table.c:0:13
	mov.w	r11, #0
	mov	r8, r0
	mov.w	r9, #0
.Ltmp558:
	.p2align	2
.LBB9_5:                                @   Parent Loop BB9_2 Depth=1
                                        @ =>  This Inner Loop Header: Depth=2
	@DEBUG_VALUE: get_row_height:h_max <- [DW_OP_plus_uconst 36] [$sp+0]
	@DEBUG_VALUE: get_row_height:cell <- $r10
	@DEBUG_VALUE: get_row_height:col <- $r1
	@DEBUG_VALUE: get_row_height:font <- [DW_OP_plus_uconst 28] [$sp+0]
	@DEBUG_VALUE: get_row_height:letter_space <- [DW_OP_plus_uconst 16] [$sp+0]
	@DEBUG_VALUE: get_row_height:row_id <- [DW_OP_LLVM_entry_value 1] $r1
	@DEBUG_VALUE: get_row_height:txt_w <- $r4
	@DEBUG_VALUE: col_merge <- $r9
	.loc	12 822 42 is_stmt 1             @ ../GUILib/src/widgets/lv_table.c:822:42
	add.w	r5, r11, r2
	.loc	12 822 20 is_stmt 0             @ ../GUILib/src/widgets/lv_table.c:822:20
	ldr.w	r5, [r6, r5, lsl #2]
.Ltmp559:
	.loc	12 822 20                       @ ../GUILib/src/widgets/lv_table.c:822:20
	cbz	r5, .LBB9_9
.Ltmp560:
@ %bb.6:                                @   in Loop: Header=BB9_5 Depth=2
	@DEBUG_VALUE: get_row_height:h_max <- [DW_OP_plus_uconst 36] [$sp+0]
	@DEBUG_VALUE: get_row_height:cell <- $r10
	@DEBUG_VALUE: col_merge <- $r9
	@DEBUG_VALUE: get_row_height:txt_w <- $r4
	@DEBUG_VALUE: get_row_height:col <- $r1
	@DEBUG_VALUE: get_row_height:font <- [DW_OP_plus_uconst 28] [$sp+0]
	@DEBUG_VALUE: get_row_height:letter_space <- [DW_OP_plus_uconst 16] [$sp+0]
	@DEBUG_VALUE: get_row_height:row_id <- [DW_OP_LLVM_entry_value 1] $r1
	@DEBUG_VALUE: ctrl <- undef
	@DEBUG_VALUE: next_cell_data <- $r5
	.loc	12 825 47 is_stmt 1             @ ../GUILib/src/widgets/lv_table.c:825:47
	ldrb	r5, [r5]
.Ltmp561:
	@DEBUG_VALUE: ctrl <- undef
	.loc	12 826 24                       @ ../GUILib/src/widgets/lv_table.c:826:24
	lsls	r5, r5, #31
	beq	.LBB9_9
.Ltmp562:
@ %bb.7:                                @   in Loop: Header=BB9_5 Depth=2
	@DEBUG_VALUE: get_row_height:h_max <- [DW_OP_plus_uconst 36] [$sp+0]
	@DEBUG_VALUE: get_row_height:cell <- $r10
	@DEBUG_VALUE: col_merge <- $r9
	@DEBUG_VALUE: get_row_height:txt_w <- $r4
	@DEBUG_VALUE: get_row_height:col <- $r1
	@DEBUG_VALUE: get_row_height:font <- [DW_OP_plus_uconst 28] [$sp+0]
	@DEBUG_VALUE: get_row_height:letter_space <- [DW_OP_plus_uconst 16] [$sp+0]
	@DEBUG_VALUE: get_row_height:row_id <- [DW_OP_LLVM_entry_value 1] $r1
	.loc	12 827 34                       @ ../GUILib/src/widgets/lv_table.c:827:34
	add.w	r5, r7, r8, lsl #1
	ldrh	r5, [r5, #2]
.Ltmp563:
	.loc	12 820 79                       @ ../GUILib/src/widgets/lv_table.c:820:79
	add.w	r9, r9, #1
.Ltmp564:
	@DEBUG_VALUE: col_merge <- $r9
	.loc	12 820 42 is_stmt 0             @ ../GUILib/src/widgets/lv_table.c:820:42
	uxtah	r8, r0, r9
.Ltmp565:
	.loc	12 827 31 is_stmt 1             @ ../GUILib/src/widgets/lv_table.c:827:31
	add	r4, r5
.Ltmp566:
	@DEBUG_VALUE: get_row_height:txt_w <- $r4
	.loc	12 820 13                       @ ../GUILib/src/widgets/lv_table.c:820:13
	cmp	r8, r3
.Ltmp567:
	.loc	12 820 32 is_stmt 0             @ ../GUILib/src/widgets/lv_table.c:820:32
	uxth.w	r11, r9
.Ltmp568:
	.loc	12 820 13                       @ ../GUILib/src/widgets/lv_table.c:820:13
	blt	.LBB9_5
	b	.LBB9_9
.Ltmp569:
	.p2align	2
.LBB9_8:                                @   in Loop: Header=BB9_2 Depth=1
	@DEBUG_VALUE: get_row_height:h_max <- [DW_OP_plus_uconst 36] [$sp+0]
	@DEBUG_VALUE: get_row_height:cell <- $r10
	@DEBUG_VALUE: get_row_height:col <- $r1
	@DEBUG_VALUE: get_row_height:font <- [DW_OP_plus_uconst 28] [$sp+0]
	@DEBUG_VALUE: get_row_height:letter_space <- [DW_OP_plus_uconst 16] [$sp+0]
	@DEBUG_VALUE: col_merge <- 0
	@DEBUG_VALUE: get_row_height:row_id <- [DW_OP_LLVM_entry_value 1] $r1
	.loc	12 0 13                         @ ../GUILib/src/widgets/lv_table.c:0:13
	mov.w	r9, #0
.Ltmp570:
	.loc	12 820 42                       @ ../GUILib/src/widgets/lv_table.c:820:42
	mov	r8, r0
.Ltmp571:
.LBB9_9:                                @   in Loop: Header=BB9_2 Depth=1
	@DEBUG_VALUE: get_row_height:h_max <- [DW_OP_plus_uconst 36] [$sp+0]
	@DEBUG_VALUE: get_row_height:cell <- $r10
	@DEBUG_VALUE: get_row_height:col <- $r1
	@DEBUG_VALUE: get_row_height:font <- [DW_OP_plus_uconst 28] [$sp+0]
	@DEBUG_VALUE: get_row_height:letter_space <- [DW_OP_plus_uconst 16] [$sp+0]
	@DEBUG_VALUE: get_row_height:row_id <- [DW_OP_LLVM_entry_value 1] $r1
	@DEBUG_VALUE: get_row_height:txt_w <- $r4
	@DEBUG_VALUE: ctrl <- 0
	.loc	12 837 47 is_stmt 1             @ ../GUILib/src/widgets/lv_table.c:837:47
	ldrb.w	r0, [lr]
.Ltmp572:
	@DEBUG_VALUE: ctrl <- undef
	.loc	12 840 16                       @ ../GUILib/src/widgets/lv_table.c:840:16
	lsls	r0, r0, #30
	bmi	.LBB9_11
.Ltmp573:
@ %bb.10:                               @   in Loop: Header=BB9_2 Depth=1
	@DEBUG_VALUE: get_row_height:h_max <- [DW_OP_plus_uconst 36] [$sp+0]
	@DEBUG_VALUE: get_row_height:cell <- $r10
	@DEBUG_VALUE: get_row_height:txt_w <- $r4
	@DEBUG_VALUE: get_row_height:col <- $r1
	@DEBUG_VALUE: get_row_height:font <- [DW_OP_plus_uconst 28] [$sp+0]
	@DEBUG_VALUE: get_row_height:letter_space <- [DW_OP_plus_uconst 16] [$sp+0]
	@DEBUG_VALUE: get_row_height:row_id <- [DW_OP_LLVM_entry_value 1] $r1
	.loc	12 846 23                       @ ../GUILib/src/widgets/lv_table.c:846:23
	ldr	r0, [sp, #12]                   @ 4-byte Reload
	.loc	12 848 17                       @ ../GUILib/src/widgets/lv_table.c:848:17
	ldr	r2, [sp, #80]
	.loc	12 846 23                       @ ../GUILib/src/widgets/lv_table.c:846:23
	subs	r0, r4, r0
.Ltmp574:
	@DEBUG_VALUE: get_row_height:txt_w <- $r0
	.loc	12 848 17                       @ ../GUILib/src/widgets/lv_table.c:848:17
	sxth	r0, r0
.Ltmp575:
	strd	r2, r0, [sp]
	ldr	r2, [sp, #28]                   @ 4-byte Reload
	ldr	r3, [sp, #16]                   @ 4-byte Reload
	.loc	12 848 67 is_stmt 0             @ ../GUILib/src/widgets/lv_table.c:848:67
	add.w	r1, lr, #1
.Ltmp576:
	.loc	12 848 17                       @ ../GUILib/src/widgets/lv_table.c:848:17
	add	r0, sp, #40
	movs	r7, #0
	str	r7, [sp, #8]
	bl	lv_txt_get_size
.Ltmp577:
	.loc	12 851 25 is_stmt 1             @ ../GUILib/src/widgets/lv_table.c:851:25
	ldrsh.w	r0, [sp, #42]
	ldr	r1, [sp, #24]                   @ 4-byte Reload
	ldr	r4, [sp, #36]                   @ 4-byte Reload
.Ltmp578:
	@DEBUG_VALUE: get_row_height:h_max <- $r4
	@DEBUG_VALUE: get_row_height:h_max <- $r4
	add	r0, r1
	sxth	r4, r4
.Ltmp579:
	cmp	r0, r4
	it	gt
	movgt	r4, r0
.Ltmp580:
	@DEBUG_VALUE: get_row_height:h_max <- [DW_OP_LLVM_convert 32 7, DW_OP_LLVM_convert 16 7, DW_OP_stack_value] $r4
	.loc	12 0 25 is_stmt 0               @ ../GUILib/src/widgets/lv_table.c:0:25
	ldr	r0, [sp, #20]                   @ 4-byte Reload
	.loc	12 852 22 is_stmt 1             @ ../GUILib/src/widgets/lv_table.c:852:22
	add	r10, r9
.Ltmp581:
	@DEBUG_VALUE: get_row_height:cell <- $r10
	@DEBUG_VALUE: get_row_height:col <- undef
	.loc	12 816 62                       @ ../GUILib/src/widgets/lv_table.c:816:62
	ldrh.w	r12, [r0, #36]
.Ltmp582:
	.loc	12 0 0 is_stmt 0                @ ../GUILib/src/widgets/lv_table.c:0:0
	mov	r1, r8
.Ltmp583:
	@DEBUG_VALUE: get_row_height:h_max <- undef
	@DEBUG_VALUE: get_row_height:col <- $r1
	@DEBUG_VALUE: get_row_height:cell <- $r10
	b	.LBB9_12
.Ltmp584:
	.p2align	2
.LBB9_11:                               @   in Loop: Header=BB9_2 Depth=1
	@DEBUG_VALUE: get_row_height:h_max <- [DW_OP_plus_uconst 36] [$sp+0]
	@DEBUG_VALUE: get_row_height:cell <- $r10
	@DEBUG_VALUE: get_row_height:txt_w <- $r4
	@DEBUG_VALUE: get_row_height:col <- $r1
	@DEBUG_VALUE: get_row_height:font <- [DW_OP_plus_uconst 28] [$sp+0]
	@DEBUG_VALUE: get_row_height:letter_space <- [DW_OP_plus_uconst 16] [$sp+0]
	@DEBUG_VALUE: get_row_height:row_id <- [DW_OP_LLVM_entry_value 1] $r1
	@DEBUG_VALUE: lv_font_get_line_height:font_p <- [DW_OP_plus_uconst 28] [$sp+0]
	.loc	18 120 20 is_stmt 1             @ ../GUILib/src/widgets/../font/lv_font.h:120:20
	ldr	r0, [sp, #28]                   @ 4-byte Reload
.Ltmp585:
	@DEBUG_VALUE: lv_font_get_line_height:font_p <- $r0
	.loc	12 841 25                       @ ../GUILib/src/widgets/lv_table.c:841:25
	ldr	r2, [sp, #24]                   @ 4-byte Reload
.Ltmp586:
	.loc	18 120 20                       @ ../GUILib/src/widgets/../font/lv_font.h:120:20
	ldrsh.w	r0, [r0, #8]
.Ltmp587:
	@DEBUG_VALUE: lv_font_get_line_height:font_p <- [DW_OP_plus_uconst 28] [$sp+0]
	.loc	18 0 20 is_stmt 0               @ ../GUILib/src/widgets/../font/lv_font.h:0:20
	ldr	r4, [sp, #36]                   @ 4-byte Reload
.Ltmp588:
	@DEBUG_VALUE: get_row_height:h_max <- $r4
	@DEBUG_VALUE: get_row_height:h_max <- $r4
	.loc	12 841 25 is_stmt 1             @ ../GUILib/src/widgets/lv_table.c:841:25
	add	r0, r2
	sxth	r4, r4
.Ltmp589:
	cmp	r0, r4
	it	gt
	movgt	r4, r0
	ldr	r0, [sp, #20]                   @ 4-byte Reload
.Ltmp590:
	@DEBUG_VALUE: get_row_height:h_max <- undef
	@DEBUG_VALUE: get_row_height:col <- $r1
	@DEBUG_VALUE: get_row_height:cell <- $r10
.LBB9_12:                               @   in Loop: Header=BB9_2 Depth=1
	@DEBUG_VALUE: get_row_height:cell <- $r10
	@DEBUG_VALUE: get_row_height:col <- $r1
	@DEBUG_VALUE: get_row_height:font <- [DW_OP_plus_uconst 28] [$sp+0]
	@DEBUG_VALUE: get_row_height:letter_space <- [DW_OP_plus_uconst 16] [$sp+0]
	@DEBUG_VALUE: get_row_height:row_id <- [DW_OP_LLVM_entry_value 1] $r1
	@DEBUG_VALUE: get_row_height:h_max <- $r4
	@DEBUG_VALUE: get_row_height:col <- $r1
	@DEBUG_VALUE: get_row_height:cell <- $r10
	.loc	12 816 53                       @ ../GUILib/src/widgets/lv_table.c:816:53
	ldr	r3, [sp, #32]                   @ 4-byte Reload
	.loc	12 816 75 is_stmt 0             @ ../GUILib/src/widgets/lv_table.c:816:75
	add.w	r10, r10, #1
.Ltmp591:
	@DEBUG_VALUE: get_row_height:cell <- $r10
	.loc	12 816 36                       @ ../GUILib/src/widgets/lv_table.c:816:36
	uxth.w	r2, r10
	.loc	12 816 53                       @ ../GUILib/src/widgets/lv_table.c:816:53
	uxtah	r3, r3, r12
	.loc	12 816 82                       @ ../GUILib/src/widgets/lv_table.c:816:82
	adds	r1, #1
.Ltmp592:
	@DEBUG_VALUE: get_row_height:col <- $r1
	.loc	12 816 5                        @ ../GUILib/src/widgets/lv_table.c:816:5
	cmp	r3, r2
.Ltmp593:
	.loc	12 816 55                       @ ../GUILib/src/widgets/lv_table.c:816:55
	uxth.w	r3, r12
.Ltmp594:
	.loc	12 816 5                        @ ../GUILib/src/widgets/lv_table.c:816:5
	bhi	.LBB9_2
.Ltmp595:
.LBB9_13:
	@DEBUG_VALUE: get_row_height:h_max <- $r4
	@DEBUG_VALUE: get_row_height:font <- [DW_OP_plus_uconst 28] [$sp+0]
	@DEBUG_VALUE: get_row_height:letter_space <- [DW_OP_plus_uconst 16] [$sp+0]
	.loc	12 858 5 is_stmt 1              @ ../GUILib/src/widgets/lv_table.c:858:5
	sxth	r0, r4
	add	sp, #44
	pop.w	{r4, r5, r6, r7, r8, r9, r10, r11, pc}
.Ltmp596:
.Lfunc_end9:
	.size	get_row_height, .Lfunc_end9-get_row_height
	.cfi_endproc
	.cantunwind
	.fnend
                                        @ -- End function
	.section	.text.lv_table_set_col_width,"ax",%progbits
	.hidden	lv_table_set_col_width          @ -- Begin function lv_table_set_col_width
	.globl	lv_table_set_col_width
	.p2align	1
	.type	lv_table_set_col_width,%function
	.code	16                              @ @lv_table_set_col_width
	.thumb_func
lv_table_set_col_width:
.Lfunc_begin10:
	.loc	12 297 0                        @ ../GUILib/src/widgets/lv_table.c:297:0
	.fnstart
	.cfi_startproc
@ %bb.0:
	@DEBUG_VALUE: lv_table_set_col_width:obj <- $r0
	@DEBUG_VALUE: lv_table_set_col_width:col_id <- $r1
	@DEBUG_VALUE: lv_table_set_col_width:w <- $r2
	.save	{r4, r5, r6, lr}
	push	{r4, r5, r6, lr}
	.cfi_def_cfa_offset 16
	.cfi_offset lr, -4
	.cfi_offset r6, -8
	.cfi_offset r5, -12
	.cfi_offset r4, -16
.Ltmp597:
	@DEBUG_VALUE: lv_table_set_col_width:table <- $r0
	mov	r4, r0
.Ltmp598:
	@DEBUG_VALUE: lv_table_set_col_width:table <- $r4
	@DEBUG_VALUE: lv_table_set_col_width:w <- undef
	@DEBUG_VALUE: lv_table_set_col_width:obj <- $r4
	.loc	12 303 25 prologue_end          @ ../GUILib/src/widgets/lv_table.c:303:25
	ldrh	r0, [r0, #36]
	mov	r5, r1
.Ltmp599:
	@DEBUG_VALUE: lv_table_set_col_width:col_id <- $r5
	.loc	12 303 8 is_stmt 0              @ ../GUILib/src/widgets/lv_table.c:303:8
	cmp	r0, r1
	mov	r6, r2
.Ltmp600:
	@DEBUG_VALUE: lv_table_set_col_width:w <- $r6
	bhi	.LBB10_2
.Ltmp601:
@ %bb.1:
	@DEBUG_VALUE: lv_table_set_col_width:w <- $r6
	@DEBUG_VALUE: lv_table_set_col_width:col_id <- $r5
	@DEBUG_VALUE: lv_table_set_col_width:obj <- $r4
	@DEBUG_VALUE: lv_table_set_col_width:table <- $r4
	.loc	12 303 67                       @ ../GUILib/src/widgets/lv_table.c:303:67
	adds	r0, r5, #1
	.loc	12 303 34                       @ ../GUILib/src/widgets/lv_table.c:303:34
	uxth	r1, r0
	mov	r0, r4
	bl	lv_table_set_col_cnt
.Ltmp602:
.LBB10_2:
	@DEBUG_VALUE: lv_table_set_col_width:w <- $r6
	@DEBUG_VALUE: lv_table_set_col_width:col_id <- $r5
	@DEBUG_VALUE: lv_table_set_col_width:obj <- $r4
	@DEBUG_VALUE: lv_table_set_col_width:table <- $r4
	@DEBUG_VALUE: lv_table_set_col_width:table <- $r4
	.loc	12 305 12 is_stmt 1             @ ../GUILib/src/widgets/lv_table.c:305:12
	ldr	r2, [r4, #48]
	.loc	12 306 5                        @ ../GUILib/src/widgets/lv_table.c:306:5
	mov	r0, r4
	movs	r1, #0
	.loc	12 305 26                       @ ../GUILib/src/widgets/lv_table.c:305:26
	strh.w	r6, [r2, r5, lsl #1]
	.loc	12 306 5                        @ ../GUILib/src/widgets/lv_table.c:306:5
	pop.w	{r4, r5, r6, lr}
.Ltmp603:
	@DEBUG_VALUE: lv_table_set_col_width:col_id <- [DW_OP_LLVM_entry_value 1] $r1
	b	refr_size
.Ltmp604:
.Lfunc_end10:
	.size	lv_table_set_col_width, .Lfunc_end10-lv_table_set_col_width
	.cfi_endproc
	.cantunwind
	.fnend
                                        @ -- End function
	.section	.text.lv_table_add_cell_ctrl,"ax",%progbits
	.hidden	lv_table_add_cell_ctrl          @ -- Begin function lv_table_add_cell_ctrl
	.globl	lv_table_add_cell_ctrl
	.p2align	1
	.type	lv_table_add_cell_ctrl,%function
	.code	16                              @ @lv_table_add_cell_ctrl
	.thumb_func
lv_table_add_cell_ctrl:
.Lfunc_begin11:
	.loc	12 310 0                        @ ../GUILib/src/widgets/lv_table.c:310:0
	.fnstart
	.cfi_startproc
@ %bb.0:
	@DEBUG_VALUE: lv_table_add_cell_ctrl:obj <- $r0
	@DEBUG_VALUE: lv_table_add_cell_ctrl:row <- $r1
	@DEBUG_VALUE: lv_table_add_cell_ctrl:col <- $r2
	@DEBUG_VALUE: lv_table_add_cell_ctrl:ctrl <- $r3
	.save	{r4, r5, r6, r7, lr}
	push	{r4, r5, r6, r7, lr}
	.cfi_def_cfa_offset 20
	.cfi_offset lr, -4
	.cfi_offset r7, -8
	.cfi_offset r6, -12
	.cfi_offset r5, -16
	.cfi_offset r4, -20
	.pad	#4
	sub	sp, #4
	.cfi_def_cfa_offset 24
.Ltmp605:
	@DEBUG_VALUE: lv_table_add_cell_ctrl:table <- $r0
	mov	r5, r0
.Ltmp606:
	@DEBUG_VALUE: lv_table_add_cell_ctrl:table <- $r5
	@DEBUG_VALUE: lv_table_add_cell_ctrl:ctrl <- $r4
	@DEBUG_VALUE: lv_table_add_cell_ctrl:row <- undef
	@DEBUG_VALUE: lv_table_add_cell_ctrl:obj <- $r5
	.loc	12 316 22 prologue_end          @ ../GUILib/src/widgets/lv_table.c:316:22
	ldrh	r0, [r0, #36]
	mov	r4, r3
.Ltmp607:
	.loc	12 0 22 is_stmt 0               @ ../GUILib/src/widgets/lv_table.c:0:22
	mov	r6, r2
.Ltmp608:
	@DEBUG_VALUE: lv_table_add_cell_ctrl:col <- $r6
	.loc	12 316 8                        @ ../GUILib/src/widgets/lv_table.c:316:8
	cmp	r0, r2
	mov	r7, r1
.Ltmp609:
	@DEBUG_VALUE: lv_table_add_cell_ctrl:row <- $r7
	bhi	.LBB11_2
.Ltmp610:
@ %bb.1:
	@DEBUG_VALUE: lv_table_add_cell_ctrl:row <- $r7
	@DEBUG_VALUE: lv_table_add_cell_ctrl:col <- $r6
	@DEBUG_VALUE: lv_table_add_cell_ctrl:obj <- $r5
	@DEBUG_VALUE: lv_table_add_cell_ctrl:table <- $r5
	.loc	12 316 61                       @ ../GUILib/src/widgets/lv_table.c:316:61
	adds	r0, r6, #1
	.loc	12 316 31                       @ ../GUILib/src/widgets/lv_table.c:316:31
	uxth	r1, r0
	mov	r0, r5
	bl	lv_table_set_col_cnt
.Ltmp611:
.LBB11_2:
	@DEBUG_VALUE: lv_table_add_cell_ctrl:row <- $r7
	@DEBUG_VALUE: lv_table_add_cell_ctrl:col <- $r6
	@DEBUG_VALUE: lv_table_add_cell_ctrl:obj <- $r5
	@DEBUG_VALUE: lv_table_add_cell_ctrl:table <- $r5
	@DEBUG_VALUE: lv_table_add_cell_ctrl:row <- $r7
	.loc	12 317 22 is_stmt 1             @ ../GUILib/src/widgets/lv_table.c:317:22
	ldrh	r0, [r5, #38]
.Ltmp612:
	.loc	12 317 8 is_stmt 0              @ ../GUILib/src/widgets/lv_table.c:317:8
	cmp	r0, r7
	bhi	.LBB11_4
.Ltmp613:
@ %bb.3:
	@DEBUG_VALUE: lv_table_add_cell_ctrl:row <- $r7
	@DEBUG_VALUE: lv_table_add_cell_ctrl:col <- $r6
	@DEBUG_VALUE: lv_table_add_cell_ctrl:obj <- $r5
	@DEBUG_VALUE: lv_table_add_cell_ctrl:table <- $r5
	.loc	12 317 61                       @ ../GUILib/src/widgets/lv_table.c:317:61
	adds	r0, r7, #1
	.loc	12 317 31                       @ ../GUILib/src/widgets/lv_table.c:317:31
	uxth	r1, r0
	mov	r0, r5
	bl	lv_table_set_row_cnt
.Ltmp614:
.LBB11_4:
	@DEBUG_VALUE: lv_table_add_cell_ctrl:row <- $r7
	@DEBUG_VALUE: lv_table_add_cell_ctrl:col <- $r6
	@DEBUG_VALUE: lv_table_add_cell_ctrl:obj <- $r5
	@DEBUG_VALUE: lv_table_add_cell_ctrl:table <- $r5
	.loc	12 319 34 is_stmt 1             @ ../GUILib/src/widgets/lv_table.c:319:34
	ldrh	r0, [r5, #36]
	.loc	12 319 42 is_stmt 0             @ ../GUILib/src/widgets/lv_table.c:319:42
	mla	r6, r0, r7, r6
.Ltmp615:
	@DEBUG_VALUE: lv_table_add_cell_ctrl:col <- [DW_OP_LLVM_entry_value 1] $r2
	@DEBUG_VALUE: lv_table_add_cell_ctrl:cell <- $r6
	.loc	12 321 15 is_stmt 1             @ ../GUILib/src/widgets/lv_table.c:321:15
	ldr	r0, [r5, #40]
	.loc	12 321 8 is_stmt 0              @ ../GUILib/src/widgets/lv_table.c:321:8
	ldr.w	r0, [r0, r6, lsl #2]
.Ltmp616:
	.loc	12 321 8                        @ ../GUILib/src/widgets/lv_table.c:321:8
	cbnz	r0, .LBB11_7
.Ltmp617:
@ %bb.5:
	@DEBUG_VALUE: lv_table_add_cell_ctrl:row <- $r7
	@DEBUG_VALUE: lv_table_add_cell_ctrl:cell <- $r6
	@DEBUG_VALUE: lv_table_add_cell_ctrl:obj <- $r5
	@DEBUG_VALUE: lv_table_add_cell_ctrl:table <- $r5
	@DEBUG_VALUE: lv_table_add_cell_ctrl:col <- [DW_OP_LLVM_entry_value 1] $r2
	.loc	12 322 37 is_stmt 1             @ ../GUILib/src/widgets/lv_table.c:322:37
	movs	r0, #2
	bl	lv_mem_alloc
.Ltmp618:
	.loc	12 322 16 is_stmt 0             @ ../GUILib/src/widgets/lv_table.c:322:16
	ldr	r1, [r5, #40]
	.loc	12 322 35                       @ ../GUILib/src/widgets/lv_table.c:322:35
	str.w	r0, [r1, r6, lsl #2]
.Ltmp619:
	.loc	12 323 9 is_stmt 1              @ ../GUILib/src/widgets/lv_table.c:323:9
	ldr	r0, [r5, #40]
	ldr.w	r0, [r0, r6, lsl #2]
.Ltmp620:
	.loc	12 323 9 is_stmt 0              @ ../GUILib/src/widgets/lv_table.c:323:9
	cbz	r0, .LBB11_8
.Ltmp621:
@ %bb.6:
	@DEBUG_VALUE: lv_table_add_cell_ctrl:row <- $r7
	@DEBUG_VALUE: lv_table_add_cell_ctrl:cell <- $r6
	@DEBUG_VALUE: lv_table_add_cell_ctrl:obj <- $r5
	@DEBUG_VALUE: lv_table_add_cell_ctrl:table <- $r5
	@DEBUG_VALUE: lv_table_add_cell_ctrl:col <- [DW_OP_LLVM_entry_value 1] $r2
	.loc	12 0 9                          @ ../GUILib/src/widgets/lv_table.c:0:9
	movs	r1, #0
	.loc	12 326 35 is_stmt 1             @ ../GUILib/src/widgets/lv_table.c:326:35
	strb	r1, [r0]
	.loc	12 327 16                       @ ../GUILib/src/widgets/lv_table.c:327:16
	ldr	r0, [r5, #40]
	.loc	12 327 9 is_stmt 0              @ ../GUILib/src/widgets/lv_table.c:327:9
	ldr.w	r0, [r0, r6, lsl #2]
	.loc	12 327 35                       @ ../GUILib/src/widgets/lv_table.c:327:35
	strb	r1, [r0, #1]
.Ltmp622:
	.loc	12 330 12 is_stmt 1             @ ../GUILib/src/widgets/lv_table.c:330:12
	ldr	r0, [r5, #40]
	.loc	12 330 5 is_stmt 0              @ ../GUILib/src/widgets/lv_table.c:330:5
	ldr.w	r0, [r0, r6, lsl #2]
.Ltmp623:
.LBB11_7:
	@DEBUG_VALUE: lv_table_add_cell_ctrl:row <- $r7
	@DEBUG_VALUE: lv_table_add_cell_ctrl:cell <- $r6
	@DEBUG_VALUE: lv_table_add_cell_ctrl:obj <- $r5
	@DEBUG_VALUE: lv_table_add_cell_ctrl:table <- $r5
	@DEBUG_VALUE: lv_table_add_cell_ctrl:col <- [DW_OP_LLVM_entry_value 1] $r2
	.loc	12 330 31                       @ ../GUILib/src/widgets/lv_table.c:330:31
	ldrb	r1, [r0]
	orrs	r1, r4
	strb	r1, [r0]
	.loc	12 331 1 is_stmt 1              @ ../GUILib/src/widgets/lv_table.c:331:1
	add	sp, #4
	pop	{r4, r5, r6, r7, pc}
.Ltmp624:
	.p2align	2
.LBB11_8:                               @ =>This Inner Loop Header: Depth=1
	@DEBUG_VALUE: lv_table_add_cell_ctrl:row <- $r7
	@DEBUG_VALUE: lv_table_add_cell_ctrl:cell <- $r6
	@DEBUG_VALUE: lv_table_add_cell_ctrl:obj <- $r5
	@DEBUG_VALUE: lv_table_add_cell_ctrl:table <- $r5
	@DEBUG_VALUE: lv_table_add_cell_ctrl:col <- [DW_OP_LLVM_entry_value 1] $r2
	.loc	12 323 9                        @ ../GUILib/src/widgets/lv_table.c:323:9
	b	.LBB11_8
.Ltmp625:
.Lfunc_end11:
	.size	lv_table_add_cell_ctrl, .Lfunc_end11-lv_table_add_cell_ctrl
	.cfi_endproc
	.cantunwind
	.fnend
                                        @ -- End function
	.section	.text.lv_table_clear_cell_ctrl,"ax",%progbits
	.hidden	lv_table_clear_cell_ctrl        @ -- Begin function lv_table_clear_cell_ctrl
	.globl	lv_table_clear_cell_ctrl
	.p2align	1
	.type	lv_table_clear_cell_ctrl,%function
	.code	16                              @ @lv_table_clear_cell_ctrl
	.thumb_func
lv_table_clear_cell_ctrl:
.Lfunc_begin12:
	.loc	12 334 0                        @ ../GUILib/src/widgets/lv_table.c:334:0
	.fnstart
	.cfi_startproc
@ %bb.0:
	@DEBUG_VALUE: lv_table_clear_cell_ctrl:obj <- $r0
	@DEBUG_VALUE: lv_table_clear_cell_ctrl:row <- $r1
	@DEBUG_VALUE: lv_table_clear_cell_ctrl:col <- $r2
	@DEBUG_VALUE: lv_table_clear_cell_ctrl:ctrl <- $r3
	.save	{r4, r5, r6, r7, lr}
	push	{r4, r5, r6, r7, lr}
	.cfi_def_cfa_offset 20
	.cfi_offset lr, -4
	.cfi_offset r7, -8
	.cfi_offset r6, -12
	.cfi_offset r5, -16
	.cfi_offset r4, -20
	.pad	#4
	sub	sp, #4
	.cfi_def_cfa_offset 24
.Ltmp626:
	@DEBUG_VALUE: lv_table_clear_cell_ctrl:table <- $r0
	mov	r5, r0
.Ltmp627:
	@DEBUG_VALUE: lv_table_clear_cell_ctrl:table <- $r5
	@DEBUG_VALUE: lv_table_clear_cell_ctrl:ctrl <- $r4
	@DEBUG_VALUE: lv_table_clear_cell_ctrl:row <- undef
	@DEBUG_VALUE: lv_table_clear_cell_ctrl:obj <- $r5
	.loc	12 340 22 prologue_end          @ ../GUILib/src/widgets/lv_table.c:340:22
	ldrh	r0, [r0, #36]
	mov	r4, r3
.Ltmp628:
	.loc	12 0 22 is_stmt 0               @ ../GUILib/src/widgets/lv_table.c:0:22
	mov	r6, r2
.Ltmp629:
	@DEBUG_VALUE: lv_table_clear_cell_ctrl:col <- $r6
	.loc	12 340 8                        @ ../GUILib/src/widgets/lv_table.c:340:8
	cmp	r0, r2
	mov	r7, r1
.Ltmp630:
	@DEBUG_VALUE: lv_table_clear_cell_ctrl:row <- $r7
	bhi	.LBB12_2
.Ltmp631:
@ %bb.1:
	@DEBUG_VALUE: lv_table_clear_cell_ctrl:row <- $r7
	@DEBUG_VALUE: lv_table_clear_cell_ctrl:col <- $r6
	@DEBUG_VALUE: lv_table_clear_cell_ctrl:obj <- $r5
	@DEBUG_VALUE: lv_table_clear_cell_ctrl:table <- $r5
	.loc	12 340 61                       @ ../GUILib/src/widgets/lv_table.c:340:61
	adds	r0, r6, #1
	.loc	12 340 31                       @ ../GUILib/src/widgets/lv_table.c:340:31
	uxth	r1, r0
	mov	r0, r5
	bl	lv_table_set_col_cnt
.Ltmp632:
.LBB12_2:
	@DEBUG_VALUE: lv_table_clear_cell_ctrl:row <- $r7
	@DEBUG_VALUE: lv_table_clear_cell_ctrl:col <- $r6
	@DEBUG_VALUE: lv_table_clear_cell_ctrl:obj <- $r5
	@DEBUG_VALUE: lv_table_clear_cell_ctrl:table <- $r5
	@DEBUG_VALUE: lv_table_clear_cell_ctrl:row <- $r7
	.loc	12 341 22 is_stmt 1             @ ../GUILib/src/widgets/lv_table.c:341:22
	ldrh	r0, [r5, #38]
.Ltmp633:
	.loc	12 341 8 is_stmt 0              @ ../GUILib/src/widgets/lv_table.c:341:8
	cmp	r0, r7
	bhi	.LBB12_4
.Ltmp634:
@ %bb.3:
	@DEBUG_VALUE: lv_table_clear_cell_ctrl:row <- $r7
	@DEBUG_VALUE: lv_table_clear_cell_ctrl:col <- $r6
	@DEBUG_VALUE: lv_table_clear_cell_ctrl:obj <- $r5
	@DEBUG_VALUE: lv_table_clear_cell_ctrl:table <- $r5
	.loc	12 341 61                       @ ../GUILib/src/widgets/lv_table.c:341:61
	adds	r0, r7, #1
	.loc	12 341 31                       @ ../GUILib/src/widgets/lv_table.c:341:31
	uxth	r1, r0
	mov	r0, r5
	bl	lv_table_set_row_cnt
.Ltmp635:
.LBB12_4:
	@DEBUG_VALUE: lv_table_clear_cell_ctrl:row <- $r7
	@DEBUG_VALUE: lv_table_clear_cell_ctrl:col <- $r6
	@DEBUG_VALUE: lv_table_clear_cell_ctrl:obj <- $r5
	@DEBUG_VALUE: lv_table_clear_cell_ctrl:table <- $r5
	.loc	12 343 34 is_stmt 1             @ ../GUILib/src/widgets/lv_table.c:343:34
	ldrh	r0, [r5, #36]
	.loc	12 343 42 is_stmt 0             @ ../GUILib/src/widgets/lv_table.c:343:42
	mla	r6, r0, r7, r6
.Ltmp636:
	@DEBUG_VALUE: lv_table_clear_cell_ctrl:col <- [DW_OP_LLVM_entry_value 1] $r2
	@DEBUG_VALUE: lv_table_clear_cell_ctrl:cell <- $r6
	.loc	12 345 15 is_stmt 1             @ ../GUILib/src/widgets/lv_table.c:345:15
	ldr	r0, [r5, #40]
	.loc	12 345 8 is_stmt 0              @ ../GUILib/src/widgets/lv_table.c:345:8
	ldr.w	r0, [r0, r6, lsl #2]
.Ltmp637:
	.loc	12 345 8                        @ ../GUILib/src/widgets/lv_table.c:345:8
	cbnz	r0, .LBB12_7
.Ltmp638:
@ %bb.5:
	@DEBUG_VALUE: lv_table_clear_cell_ctrl:row <- $r7
	@DEBUG_VALUE: lv_table_clear_cell_ctrl:cell <- $r6
	@DEBUG_VALUE: lv_table_clear_cell_ctrl:obj <- $r5
	@DEBUG_VALUE: lv_table_clear_cell_ctrl:table <- $r5
	@DEBUG_VALUE: lv_table_clear_cell_ctrl:col <- [DW_OP_LLVM_entry_value 1] $r2
	.loc	12 346 37 is_stmt 1             @ ../GUILib/src/widgets/lv_table.c:346:37
	movs	r0, #2
	bl	lv_mem_alloc
.Ltmp639:
	.loc	12 346 16 is_stmt 0             @ ../GUILib/src/widgets/lv_table.c:346:16
	ldr	r1, [r5, #40]
	.loc	12 346 35                       @ ../GUILib/src/widgets/lv_table.c:346:35
	str.w	r0, [r1, r6, lsl #2]
.Ltmp640:
	.loc	12 347 9 is_stmt 1              @ ../GUILib/src/widgets/lv_table.c:347:9
	ldr	r0, [r5, #40]
	ldr.w	r0, [r0, r6, lsl #2]
.Ltmp641:
	.loc	12 347 9 is_stmt 0              @ ../GUILib/src/widgets/lv_table.c:347:9
	cbz	r0, .LBB12_8
.Ltmp642:
@ %bb.6:
	@DEBUG_VALUE: lv_table_clear_cell_ctrl:row <- $r7
	@DEBUG_VALUE: lv_table_clear_cell_ctrl:cell <- $r6
	@DEBUG_VALUE: lv_table_clear_cell_ctrl:obj <- $r5
	@DEBUG_VALUE: lv_table_clear_cell_ctrl:table <- $r5
	@DEBUG_VALUE: lv_table_clear_cell_ctrl:col <- [DW_OP_LLVM_entry_value 1] $r2
	.loc	12 0 9                          @ ../GUILib/src/widgets/lv_table.c:0:9
	movs	r1, #0
	.loc	12 350 35 is_stmt 1             @ ../GUILib/src/widgets/lv_table.c:350:35
	strb	r1, [r0]
	.loc	12 351 16                       @ ../GUILib/src/widgets/lv_table.c:351:16
	ldr	r0, [r5, #40]
	.loc	12 351 9 is_stmt 0              @ ../GUILib/src/widgets/lv_table.c:351:9
	ldr.w	r0, [r0, r6, lsl #2]
	.loc	12 351 35                       @ ../GUILib/src/widgets/lv_table.c:351:35
	strb	r1, [r0, #1]
.Ltmp643:
	.loc	12 354 12 is_stmt 1             @ ../GUILib/src/widgets/lv_table.c:354:12
	ldr	r0, [r5, #40]
	.loc	12 354 5 is_stmt 0              @ ../GUILib/src/widgets/lv_table.c:354:5
	ldr.w	r0, [r0, r6, lsl #2]
.Ltmp644:
.LBB12_7:
	@DEBUG_VALUE: lv_table_clear_cell_ctrl:row <- $r7
	@DEBUG_VALUE: lv_table_clear_cell_ctrl:cell <- $r6
	@DEBUG_VALUE: lv_table_clear_cell_ctrl:obj <- $r5
	@DEBUG_VALUE: lv_table_clear_cell_ctrl:table <- $r5
	@DEBUG_VALUE: lv_table_clear_cell_ctrl:col <- [DW_OP_LLVM_entry_value 1] $r2
	.loc	12 354 31                       @ ../GUILib/src/widgets/lv_table.c:354:31
	ldrb	r1, [r0]
	bics	r1, r4
	strb	r1, [r0]
