	.text
	.syntax unified
	.eabi_attribute	67, "2.09"	@ Tag_conformance
	.cpu	cortex-m4
	.eabi_attribute	6, 13	@ Tag_CPU_arch
	.eabi_attribute	7, 77	@ Tag_CPU_arch_profile
	.eabi_attribute	8, 0	@ Tag_ARM_ISA_use
	.eabi_attribute	9, 2	@ Tag_THUMB_ISA_use
	.fpu	fpv4-sp-d16
	.eabi_attribute	27, 1	@ Tag_ABI_HardFP_use
	.eabi_attribute	36, 1	@ Tag_FP_HP_extension
	.eabi_attribute	34, 1	@ Tag_CPU_unaligned_access
	.eabi_attribute	17, 1	@ Tag_ABI_PCS_GOT_use
	.eabi_attribute	20, 2	@ Tag_ABI_FP_denormal
	.eabi_attribute	21, 0	@ Tag_ABI_FP_exceptions
	.eabi_attribute	23, 1	@ Tag_ABI_FP_number_model
	.eabi_attribute	24, 1	@ Tag_ABI_align_needed
	.eabi_attribute	25, 1	@ Tag_ABI_align_preserved
	.eabi_attribute	28, 1	@ Tag_ABI_VFP_args
	.eabi_attribute	38, 1	@ Tag_ABI_FP_16bit_format
	.eabi_attribute	18, 2	@ Tag_ABI_PCS_wchar_t
	.eabi_attribute	26, 1	@ Tag_ABI_enum_size
	.eabi_attribute	14, 0	@ Tag_ABI_PCS_R9_use
	.file	"Mymath.c"
	.file	1 "C:\\Users\\Hyacincher\\Desktop\\HyTelectrl\\Code\\Project" "../User/includes.h"
	.section	.text.MyFP32Min,"ax",%progbits
	.hidden	MyFP32Min                       @ -- Begin function MyFP32Min
	.globl	MyFP32Min
	.p2align	1
	.type	MyFP32Min,%function
	.code	16                              @ @MyFP32Min
	.thumb_func
MyFP32Min:
.Lfunc_begin0:
	.file	2 "C:\\Users\\Hyacincher\\Desktop\\HyTelectrl\\Code\\Project" "../User/Mymath.c"
	.loc	2 3 0                           @ ../User/Mymath.c:3:0
	.fnstart
	.cfi_sections .debug_frame
	.cfi_startproc
@ %bb.0:
	@DEBUG_VALUE: MyFP32Min:x <- $s0
	@DEBUG_VALUE: MyFP32Min:x <- $s0
	@DEBUG_VALUE: MyFP32Min:y <- $s1
	@DEBUG_VALUE: MyFP32Min:y <- $s1
	.loc	2 4 9 prologue_end              @ ../User/Mymath.c:4:9
	vcmp.f32	s0, s1
	vmrs	APSR_nzcv, fpscr
	it	lt
	vmovlt.f32	s1, s0
.Ltmp0:
	@DEBUG_VALUE: MyFP32Min:y <- [DW_OP_LLVM_entry_value 1] $s1
	.loc	2 4 2 is_stmt 0                 @ ../User/Mymath.c:4:2
	vmov.f32	s0, s1
.Ltmp1:
	@DEBUG_VALUE: MyFP32Min:x <- [DW_OP_LLVM_entry_value 1] $s0
	bx	lr
.Ltmp2:
.Lfunc_end0:
	.size	MyFP32Min, .Lfunc_end0-MyFP32Min
	.cfi_endproc
	.cantunwind
	.fnend
                                        @ -- End function
	.section	.text.MyFP32Max,"ax",%progbits
	.hidden	MyFP32Max                       @ -- Begin function MyFP32Max
	.globl	MyFP32Max
	.p2align	1
	.type	MyFP32Max,%function
	.code	16                              @ @MyFP32Max
	.thumb_func
MyFP32Max:
.Lfunc_begin1:
	.loc	2 7 0 is_stmt 1                 @ ../User/Mymath.c:7:0
	.fnstart
	.cfi_startproc
@ %bb.0:
	@DEBUG_VALUE: MyFP32Max:x <- $s0
	@DEBUG_VALUE: MyFP32Max:x <- $s0
	@DEBUG_VALUE: MyFP32Max:y <- $s1
	@DEBUG_VALUE: MyFP32Max:y <- $s1
	.loc	2 8 9 prologue_end              @ ../User/Mymath.c:8:9
	vcmp.f32	s0, s1
	vmrs	APSR_nzcv, fpscr
	it	gt
	vmovgt.f32	s1, s0
.Ltmp3:
	@DEBUG_VALUE: MyFP32Max:y <- [DW_OP_LLVM_entry_value 1] $s1
	.loc	2 8 2 is_stmt 0                 @ ../User/Mymath.c:8:2
	vmov.f32	s0, s1
.Ltmp4:
	@DEBUG_VALUE: MyFP32Max:x <- [DW_OP_LLVM_entry_value 1] $s0
	bx	lr
.Ltmp5:
.Lfunc_end1:
	.size	MyFP32Max, .Lfunc_end1-MyFP32Max
	.cfi_endproc
	.cantunwind
	.fnend
                                        @ -- End function
	.section	.text.MyFP32Abs,"ax",%progbits
	.hidden	MyFP32Abs                       @ -- Begin function MyFP32Abs
	.globl	MyFP32Abs
	.p2align	1
	.type	MyFP32Abs,%function
	.code	16                              @ @MyFP32Abs
	.thumb_func
MyFP32Abs:
.Lfunc_begin2:
	.loc	2 12 0 is_stmt 1                @ ../User/Mymath.c:12:0
	.fnstart
	.cfi_startproc
@ %bb.0:
	@DEBUG_VALUE: MyFP32Abs:x <- $s0
	@DEBUG_VALUE: MyFP32Abs:x <- $s0
	.loc	2 13 12 prologue_end            @ ../User/Mymath.c:13:12
	vabs.f32	s0, s0
.Ltmp6:
	@DEBUG_VALUE: MyFP32Abs:x <- [DW_OP_LLVM_entry_value 1] $s0
	.loc	2 13 5 is_stmt 0                @ ../User/Mymath.c:13:5
	bx	lr
.Ltmp7:
.Lfunc_end2:
	.size	MyFP32Abs, .Lfunc_end2-MyFP32Abs
	.cfi_endproc
	.cantunwind
	.fnend
                                        @ -- End function
	.section	.text.MyINT16UAbs,"ax",%progbits
	.hidden	MyINT16UAbs                     @ -- Begin function MyINT16UAbs
	.globl	MyINT16UAbs
	.p2align	1
	.type	MyINT16UAbs,%function
	.code	16                              @ @MyINT16UAbs
	.thumb_func
MyINT16UAbs:
.Lfunc_begin3:
	.loc	2 17 0 is_stmt 1                @ ../User/Mymath.c:17:0
	.fnstart
	.cfi_startproc
@ %bb.0:
	@DEBUG_VALUE: MyINT16UAbs:x <- $r0
	@DEBUG_VALUE: MyINT16UAbs:x <- $r0
	@DEBUG_VALUE: MyINT16UAbs:y <- $r1
	@DEBUG_VALUE: MyINT16UAbs:y <- $r1
	.loc	2 18 12 prologue_end            @ ../User/Mymath.c:18:12
	subs	r2, r1, r0
	it	lo
	sublo	r2, r0, r1
	.loc	2 18 5 is_stmt 0                @ ../User/Mymath.c:18:5
	uxth	r0, r2
.Ltmp8:
	@DEBUG_VALUE: MyINT16UAbs:x <- [DW_OP_LLVM_entry_value 1] $r0
	bx	lr
.Ltmp9:
.Lfunc_end3:
	.size	MyINT16UAbs, .Lfunc_end3-MyINT16UAbs
	.cfi_endproc
	.cantunwind
	.fnend
                                        @ -- End function
	.section	.text.MyINT32SAbs,"ax",%progbits
	.hidden	MyINT32SAbs                     @ -- Begin function MyINT32SAbs
	.globl	MyINT32SAbs
	.p2align	1
	.type	MyINT32SAbs,%function
	.code	16                              @ @MyINT32SAbs
	.thumb_func
MyINT32SAbs:
.Lfunc_begin4:
	.loc	2 22 0 is_stmt 1                @ ../User/Mymath.c:22:0
	.fnstart
	.cfi_startproc
@ %bb.0:
	@DEBUG_VALUE: MyINT32SAbs:X <- $r0
	@DEBUG_VALUE: MyINT32SAbs:X <- $r0
	.loc	2 23 12 prologue_end            @ ../User/Mymath.c:23:12
	cmp	r0, #0
	.loc	2 23 5 is_stmt 0                @ ../User/Mymath.c:23:5
	it	pl
	bxpl	lr
.Ltmp10:
.LBB4_1:
	@DEBUG_VALUE: MyINT32SAbs:X <- $r0
	.loc	2 23 12                         @ ../User/Mymath.c:23:12
	rsbs	r0, r0, #0
.Ltmp11:
	@DEBUG_VALUE: MyINT32SAbs:X <- [DW_OP_LLVM_entry_value 1] $r0
	.loc	2 23 5                          @ ../User/Mymath.c:23:5
	bx	lr
.Ltmp12:
.Lfunc_end4:
	.size	MyINT32SAbs, .Lfunc_end4-MyINT32SAbs
	.cfi_endproc
	.cantunwind
	.fnend
                                        @ -- End function
	.section	.text.Myatan2,"ax",%progbits
	.hidden	Myatan2                         @ -- Begin function Myatan2
	.globl	Myatan2
	.p2align	3
	.type	Myatan2,%function
	.code	16                              @ @Myatan2
	.thumb_func
Myatan2:
.Lfunc_begin5:
	.loc	2 27 0 is_stmt 1                @ ../User/Mymath.c:27:0
	.fnstart
	.cfi_startproc
@ %bb.0:
	@DEBUG_VALUE: Myatan2:Y <- $d0
	@DEBUG_VALUE: Myatan2:X <- $d1
	.save	{r4, r5, r6, r7, r8, r9, lr}
	push.w	{r4, r5, r6, r7, r8, r9, lr}
	.cfi_def_cfa_offset 28
	.cfi_offset lr, -4
	.cfi_offset r9, -8
	.cfi_offset r8, -12
	.cfi_offset r7, -16
	.cfi_offset r6, -20
	.cfi_offset r5, -24
	.cfi_offset r4, -28
	.pad	#4
	sub	sp, #4
	.cfi_def_cfa_offset 32
	.vsave	{d8, d9}
	vpush	{d8, d9}
	.cfi_def_cfa_offset 48
	.cfi_offset d9, -40
	.cfi_offset d8, -48
	vldr	d8, .LCPI5_0
.Ltmp13:
	.loc	2 30 8 prologue_end             @ ../User/Mymath.c:30:8
	vmov	r7, r6, d1
	vmov	r5, r4, d8
	vmov.f32	s18, s0
	mov	r0, r7
	mov	r1, r6
	mov	r2, r5
	mov	r3, r4
	vmov.f32	s19, s1
	@DEBUG_VALUE: Myatan2:X <- $d1
.Ltmp14:
	@DEBUG_VALUE: Myatan2:Y <- $d9
	bl	__aeabi_dcmple
.Ltmp15:
	@DEBUG_VALUE: Myatan2:X <- [DW_OP_LLVM_entry_value 1] $d1
	cbnz	r0, .LBB5_2
.Ltmp16:
@ %bb.1:
	@DEBUG_VALUE: Myatan2:Y <- $d9
	@DEBUG_VALUE: Myatan2:X <- [DW_OP_LLVM_entry_value 1] $d1
	.loc	2 32 24                         @ ../User/Mymath.c:32:24
	vmov	r0, r1, d9
	mov	r2, r7
	mov	r3, r6
	bl	__aeabi_ddiv
.Ltmp17:
	vmov	d0, r0, r1
	.loc	2 32 18 is_stmt 0               @ ../User/Mymath.c:32:18
	vpop	{d8, d9}
.Ltmp18:
	add	sp, #4
	pop.w	{r4, r5, r6, r7, r8, r9, lr}
.Ltmp19:
	b	__hardfp_atan
.Ltmp20:
.LBB5_2:
	@DEBUG_VALUE: Myatan2:Y <- $d9
	@DEBUG_VALUE: Myatan2:X <- [DW_OP_LLVM_entry_value 1] $d1
	.loc	2 34 13 is_stmt 1               @ ../User/Mymath.c:34:13
	mov	r0, r7
	mov	r1, r6
	mov	r2, r5
	mov	r3, r4
	bl	__aeabi_dcmpeq
.Ltmp21:
	cbz	r0, .LBB5_5
.Ltmp22:
@ %bb.3:
	@DEBUG_VALUE: Myatan2:Y <- $d9
	@DEBUG_VALUE: Myatan2:X <- [DW_OP_LLVM_entry_value 1] $d1
	.loc	2 36 12                         @ ../User/Mymath.c:36:12
	vmov	r7, r6, d9
	mov	r0, r7
	mov	r1, r6
	mov	r2, r5
	mov	r3, r4
	bl	__aeabi_dcmpgt
.Ltmp23:
	cbz	r0, .LBB5_6
.Ltmp24:
@ %bb.4:
	@DEBUG_VALUE: Myatan2:Y <- $d9
	@DEBUG_VALUE: Myatan2:X <- [DW_OP_LLVM_entry_value 1] $d1
	.loc	2 0 12 is_stmt 0                @ ../User/Mymath.c:0:12
	vldr	d8, .LCPI5_3
	b	.LBB5_8
.Ltmp25:
.LBB5_5:
	@DEBUG_VALUE: Myatan2:Y <- $d9
	@DEBUG_VALUE: Myatan2:X <- [DW_OP_LLVM_entry_value 1] $d1
	vmov	r8, r9, d9
	mov	r0, r8
	mov	r1, r9
	mov	r2, r7
	mov	r3, r6
	bl	__aeabi_ddiv
.Ltmp26:
	vmov	d0, r0, r1
	bl	__hardfp_atan
.Ltmp27:
	vmov.f32	s16, s0
.Ltmp28:
	.loc	2 51 12 is_stmt 1               @ ../User/Mymath.c:51:12
	mov	r0, r8
	mov	r1, r9
	mov	r2, r5
	mov	r3, r4
.Ltmp29:
	.loc	2 0 0 is_stmt 0                 @ ../User/Mymath.c:0:0
	vmov.f32	s17, s1
.Ltmp30:
	.loc	2 51 12                         @ ../User/Mymath.c:51:12
	bl	__aeabi_dcmplt
.Ltmp31:
	cmp	r0, #0
	ite	ne
	vldrne	d0, .LCPI5_2
	vldreq	d0, .LCPI5_1
.Ltmp32:
	.loc	2 0 0                           @ ../User/Mymath.c:0:0
	vmov	r0, r1, d8
	vmov	r2, r3, d0
	bl	__aeabi_dadd
.Ltmp33:
	vmov	d8, r0, r1
.Ltmp34:
	@DEBUG_VALUE: Myatan2:Result <- $d8
	b	.LBB5_8
.Ltmp35:
.LBB5_6:
	@DEBUG_VALUE: Myatan2:Y <- $d9
	@DEBUG_VALUE: Myatan2:X <- [DW_OP_LLVM_entry_value 1] $d1
	.loc	2 40 17 is_stmt 1               @ ../User/Mymath.c:40:17
	mov	r0, r7
	mov	r1, r6
	mov	r2, r5
	mov	r3, r4
	bl	__aeabi_dcmplt
.Ltmp36:
	cbz	r0, .LBB5_8
.Ltmp37:
@ %bb.7:
	@DEBUG_VALUE: Myatan2:Y <- $d9
	@DEBUG_VALUE: Myatan2:X <- [DW_OP_LLVM_entry_value 1] $d1
	.loc	2 0 17 is_stmt 0                @ ../User/Mymath.c:0:17
	vldr	d8, .LCPI5_4
.Ltmp38:
.LBB5_8:
	@DEBUG_VALUE: Myatan2:Y <- $d9
	@DEBUG_VALUE: Myatan2:X <- [DW_OP_LLVM_entry_value 1] $d1
	@DEBUG_VALUE: Myatan2:Result <- $d8
	.loc	2 61 5 is_stmt 1                @ ../User/Mymath.c:61:5
	vmov.f32	s0, s16
	vmov.f32	s1, s17
	vpop	{d8, d9}
.Ltmp39:
	add	sp, #4
	pop.w	{r4, r5, r6, r7, r8, r9, pc}
.Ltmp40:
	.p2align	3
@ %bb.9:
	.loc	2 0 5 is_stmt 0                 @ ../User/Mymath.c:0:5
.LCPI5_0:
	.long	0                               @ double 0
	.long	0
.LCPI5_1:
	.long	1413551940                      @ double 3.1415926535000001
	.long	1074340347
.LCPI5_2:
	.long	1413551940                      @ double -3.1415926535000001
	.long	3221823995
.LCPI5_3:
	.long	1413551940                      @ double 1.57079632675
	.long	1073291771
.LCPI5_4:
	.long	1413551940                      @ double -1.57079632675
	.long	3220775419
.Lfunc_end5:
	.size	Myatan2, .Lfunc_end5-Myatan2
	.cfi_endproc
	.cantunwind
	.fnend
                                        @ -- End function
	.section	.text.Convolution,"ax",%progbits
	.hidden	Convolution                     @ -- Begin function Convolution
	.globl	Convolution
	.p2align	2
	.type	Convolution,%function
	.code	16                              @ @Convolution
	.thumb_func
Convolution:
.Lfunc_begin6:
	.loc	2 76 0 is_stmt 1                @ ../User/Mymath.c:76:0
	.fnstart
	.cfi_startproc
@ %bb.0:
	@DEBUG_VALUE: Convolution:input1 <- $r0
	@DEBUG_VALUE: Convolution:input2 <- $r1
	@DEBUG_VALUE: Convolution:output <- $r2
	@DEBUG_VALUE: Convolution:mm <- $r3
	.save	{r4, r5, r6, r7, r8, r9, r10, r11, lr}
	push.w	{r4, r5, r6, r7, r8, r9, r10, r11, lr}
	.cfi_def_cfa_offset 36
	.cfi_offset lr, -4
	.cfi_offset r11, -8
	.cfi_offset r10, -12
	.cfi_offset r9, -16
	.cfi_offset r8, -20
	.cfi_offset r7, -24
	.cfi_offset r6, -28
	.cfi_offset r5, -32
	.cfi_offset r4, -36
	.pad	#12
	sub	sp, #12
	.cfi_def_cfa_offset 48
	ldr	r4, [sp, #48]
	mov	r11, r0
.Ltmp41:
	@DEBUG_VALUE: Convolution:input1 <- $r11
	@DEBUG_VALUE: Convolution:nn <- $r4
	@DEBUG_VALUE: Convolution:mm <- $r9
	@DEBUG_VALUE: Convolution:output <- $r5
	@DEBUG_VALUE: Convolution:input2 <- $r10
	@DEBUG_VALUE: Convolution:input1 <- $r11
	.loc	2 78 46 prologue_end            @ ../User/Mymath.c:78:46
	adds	r0, r3, r4
	.loc	2 78 51 is_stmt 0               @ ../User/Mymath.c:78:51
	subs	r6, r0, #1
	.loc	2 78 40                         @ ../User/Mymath.c:78:40
	lsls	r0, r6, #2
	mov	r9, r3
.Ltmp42:
	.loc	2 0 40                          @ ../User/Mymath.c:0:40
	mov	r5, r2
.Ltmp43:
	mov	r10, r1
.Ltmp44:
	.loc	2 78 20                         @ ../User/Mymath.c:78:20
	bl	malloc
.Ltmp45:
	.loc	2 80 2 is_stmt 1                @ ../User/Mymath.c:80:2
	cmp	r6, #1
.Ltmp46:
	@DEBUG_VALUE: i <- 0
	@DEBUG_VALUE: Convolution:xx <- $r0
	blt.w	.LBB6_15
.Ltmp47:
@ %bb.1:
	@DEBUG_VALUE: Convolution:input1 <- $r11
	@DEBUG_VALUE: Convolution:nn <- $r4
	@DEBUG_VALUE: Convolution:xx <- $r0
	@DEBUG_VALUE: i <- 0
	.loc	2 0 2 is_stmt 0                 @ ../User/Mymath.c:0:2
	vmov	s0, r9
	vcvt.f32.u32	s4, s0
	vmov	s0, r4
	vcvt.f32.u32	s0, s0
	vcmp.f32	s4, s0
	vmov.f32	s2, s0
	str	r5, [sp]                        @ 4-byte Spill
	vmrs	APSR_nzcv, fpscr
	it	lt
	vmovlt.f32	s2, s4
	it	gt
	vmovgt.f32	s0, s4
	vldr	s4, .LCPI6_0
	movs	r3, #0
	mov.w	lr, #0
.Ltmp48:
	.loc	2 80 2                          @ ../User/Mymath.c:80:2
	strd	r6, r0, [sp, #4]                @ 8-byte Folded Spill
.Ltmp49:
	.p2align	2
.LBB6_2:                                @ =>This Loop Header: Depth=1
                                        @     Child Loop BB6_4 Depth 2
	@DEBUG_VALUE: Convolution:input1 <- $r11
	@DEBUG_VALUE: Convolution:nn <- $r4
	@DEBUG_VALUE: i <- $lr
	.loc	2 84 3 is_stmt 1                @ ../User/Mymath.c:84:3
	vcmp.f32	s2, #0
	vmrs	APSR_nzcv, fpscr
.Ltmp50:
	.loc	2 82 9                          @ ../User/Mymath.c:82:9
	mov.w	r1, #0
	str.w	r1, [r0, r3, lsl #2]
	@DEBUG_VALUE: j <- 0
	ble	.LBB6_11
.Ltmp51:
@ %bb.3:                                @   in Loop: Header=BB6_2 Depth=1
	@DEBUG_VALUE: Convolution:input1 <- $r11
	@DEBUG_VALUE: Convolution:nn <- $r4
	@DEBUG_VALUE: i <- $lr
	@DEBUG_VALUE: j <- 0
	.loc	2 0 9 is_stmt 0                 @ ../User/Mymath.c:0:9
	ldr	r0, [sp, #8]                    @ 4-byte Reload
	movs	r7, #0
	add.w	r12, r0, r3, lsl #2
	vmov.f32	s6, s4
	movs	r6, #0
.Ltmp52:
	.p2align	2
.LBB6_4:                                @   Parent Loop BB6_2 Depth=1
                                        @ =>  This Inner Loop Header: Depth=2
	@DEBUG_VALUE: Convolution:input1 <- $r11
	@DEBUG_VALUE: Convolution:nn <- $r4
	@DEBUG_VALUE: i <- $lr
	@DEBUG_VALUE: j <- $r6
	subs	r2, r3, r7
	vmov	s8, r2
	vcvt.f32.s32	s8, s8
	cmp.w	r2, #-1
	mov.w	r1, #0
	vcmp.f32	s0, s8
	it	gt
	movgt	r1, #1
	vmrs	APSR_nzcv, fpscr
	mov.w	r5, #0
	it	gt
	movgt	r5, #1
.Ltmp53:
	.loc	2 87 17 is_stmt 1               @ ../User/Mymath.c:87:17
	cmp	r9, r4
.Ltmp54:
	.loc	2 0 0 is_stmt 0                 @ ../User/Mymath.c:0:0
	and.w	r8, r1, r5
	bls	.LBB6_7
.Ltmp55:
@ %bb.5:                                @   in Loop: Header=BB6_4 Depth=2
	@DEBUG_VALUE: Convolution:input1 <- $r11
	@DEBUG_VALUE: j <- $r6
	@DEBUG_VALUE: Convolution:nn <- $r4
	@DEBUG_VALUE: i <- $lr
	.loc	2 97 20 is_stmt 1               @ ../User/Mymath.c:97:20
	cmp.w	r8, #0
	beq	.LBB6_10
.Ltmp56:
@ %bb.6:                                @   in Loop: Header=BB6_4 Depth=2
	@DEBUG_VALUE: Convolution:input1 <- $r11
	@DEBUG_VALUE: j <- $r6
	@DEBUG_VALUE: Convolution:nn <- $r4
	@DEBUG_VALUE: i <- $lr
	.loc	2 99 15                         @ ../User/Mymath.c:99:15
	add.w	r1, r10, r7, lsl #2
	vldr	s8, [r1]
	.loc	2 99 27 is_stmt 0               @ ../User/Mymath.c:99:27
	add.w	r1, r11, r2, lsl #2
	b	.LBB6_9
.Ltmp57:
	.p2align	2
.LBB6_7:                                @   in Loop: Header=BB6_4 Depth=2
	@DEBUG_VALUE: Convolution:input1 <- $r11
	@DEBUG_VALUE: j <- $r6
	@DEBUG_VALUE: Convolution:nn <- $r4
	@DEBUG_VALUE: i <- $lr
	.loc	2 89 20 is_stmt 1               @ ../User/Mymath.c:89:20
	cmp.w	r8, #0
	beq	.LBB6_10
.Ltmp58:
@ %bb.8:                                @   in Loop: Header=BB6_4 Depth=2
	@DEBUG_VALUE: Convolution:input1 <- $r11
	@DEBUG_VALUE: j <- $r6
	@DEBUG_VALUE: Convolution:nn <- $r4
	@DEBUG_VALUE: i <- $lr
	.loc	2 91 15                         @ ../User/Mymath.c:91:15
	add.w	r1, r11, r7, lsl #2
	vldr	s8, [r1]
	.loc	2 91 27 is_stmt 0               @ ../User/Mymath.c:91:27
	add.w	r1, r10, r2, lsl #2
.Ltmp59:
.LBB6_9:                                @   in Loop: Header=BB6_4 Depth=2
	@DEBUG_VALUE: Convolution:input1 <- $r11
	@DEBUG_VALUE: j <- $r6
	@DEBUG_VALUE: Convolution:nn <- $r4
	@DEBUG_VALUE: i <- $lr
	.loc	2 0 0                           @ ../User/Mymath.c:0:0
	vldr	s10, [r1]
	vmul.f32	s8, s8, s10
	vadd.f32	s6, s6, s8
	vstr	s6, [r12]
.Ltmp60:
.LBB6_10:                               @   in Loop: Header=BB6_4 Depth=2
	@DEBUG_VALUE: Convolution:input1 <- $r11
	@DEBUG_VALUE: j <- $r6
	@DEBUG_VALUE: Convolution:nn <- $r4
	@DEBUG_VALUE: i <- $lr
	.loc	2 84 46 is_stmt 1               @ ../User/Mymath.c:84:46
	adds	r6, #1
.Ltmp61:
	@DEBUG_VALUE: j <- $r6
	uxth	r7, r6
	.loc	2 84 22 is_stmt 0               @ ../User/Mymath.c:84:22
	vmov	s8, r7
	vcvt.f32.u32	s8, s8
.Ltmp62:
	.loc	2 84 3                          @ ../User/Mymath.c:84:3
	vcmp.f32	s2, s8
	vmrs	APSR_nzcv, fpscr
	bgt	.LBB6_4
.Ltmp63:
.LBB6_11:                               @   in Loop: Header=BB6_2 Depth=1
	@DEBUG_VALUE: Convolution:input1 <- $r11
	@DEBUG_VALUE: Convolution:nn <- $r4
	@DEBUG_VALUE: i <- $lr
	.loc	2 80 39 is_stmt 1               @ ../User/Mymath.c:80:39
	add.w	lr, lr, #1
.Ltmp64:
	@DEBUG_VALUE: i <- $lr
	.loc	2 0 39 is_stmt 0                @ ../User/Mymath.c:0:39
	ldr	r6, [sp, #4]                    @ 4-byte Reload
	.loc	2 80 21                         @ ../User/Mymath.c:80:21
	uxth.w	r3, lr
	ldr	r0, [sp, #8]                    @ 4-byte Reload
.Ltmp65:
	.loc	2 80 2                          @ ../User/Mymath.c:80:2
	cmp	r6, r3
	bgt	.LBB6_2
.Ltmp66:
@ %bb.12:
	@DEBUG_VALUE: Convolution:input1 <- $r11
	@DEBUG_VALUE: Convolution:nn <- $r4
	@DEBUG_VALUE: i <- 0
	.loc	2 0 2                           @ ../User/Mymath.c:0:2
	ldr	r7, [sp]                        @ 4-byte Reload
.Ltmp67:
	.loc	2 104 2 is_stmt 1               @ ../User/Mymath.c:104:2
	cmp	r6, #1
	blt	.LBB6_15
.Ltmp68:
@ %bb.13:
	@DEBUG_VALUE: Convolution:input1 <- $r11
	@DEBUG_VALUE: Convolution:nn <- $r4
	@DEBUG_VALUE: i <- 0
	.loc	2 0 2 is_stmt 0                 @ ../User/Mymath.c:0:2
	movs	r1, #0
	movs	r2, #0
.Ltmp69:
	.p2align	2
.LBB6_14:                               @ =>This Inner Loop Header: Depth=1
	@DEBUG_VALUE: Convolution:input1 <- $r11
	@DEBUG_VALUE: Convolution:nn <- $r4
	@DEBUG_VALUE: i <- $r2
	.loc	2 106 15 is_stmt 1              @ ../User/Mymath.c:106:15
	ldr.w	r3, [r0, r1, lsl #2]
.Ltmp70:
	.loc	2 104 35                        @ ../User/Mymath.c:104:35
	adds	r2, #1
.Ltmp71:
	@DEBUG_VALUE: i <- $r2
	.loc	2 106 13                        @ ../User/Mymath.c:106:13
	str.w	r3, [r7, r1, lsl #2]
.Ltmp72:
	.loc	2 104 21                        @ ../User/Mymath.c:104:21
	uxth	r1, r2
.Ltmp73:
	.loc	2 104 2 is_stmt 0               @ ../User/Mymath.c:104:2
	cmp	r6, r1
	bgt	.LBB6_14
.Ltmp74:
.LBB6_15:
	@DEBUG_VALUE: Convolution:input1 <- $r11
	@DEBUG_VALUE: Convolution:nn <- $r4
	.loc	2 108 2 is_stmt 1               @ ../User/Mymath.c:108:2
	add	sp, #12
	pop.w	{r4, r5, r6, r7, r8, r9, r10, r11, lr}
.Ltmp75:
	b	free
.Ltmp76:
	.p2align	2
@ %bb.16:
	.loc	2 0 2 is_stmt 0                 @ ../User/Mymath.c:0:2
.LCPI6_0:
	.long	0x00000000                      @ float 0
.Lfunc_end6:
	.size	Convolution, .Lfunc_end6-Convolution
	.cfi_endproc
	.cantunwind
	.fnend
                                        @ -- End function
	.section	.text.GetDigit,"ax",%progbits
	.hidden	GetDigit                        @ -- Begin function GetDigit
	.globl	GetDigit
	.p2align	1
	.type	GetDigit,%function
	.code	16                              @ @GetDigit
	.thumb_func
GetDigit:
.Lfunc_begin7:
	.loc	2 116 0 is_stmt 1               @ ../User/Mymath.c:116:0
	.fnstart
	.cfi_startproc
@ %bb.0:
	@DEBUG_VALUE: GetDigit:Number <- $r0
	@DEBUG_VALUE: GetDigit:Number <- $r0
	@DEBUG_VALUE: GetDigit:Digit <- $r1
	@DEBUG_VALUE: GetDigit:Digit <- $r1
	.loc	2 119 31 prologue_end           @ ../User/Mymath.c:119:31
	udiv	r0, r0, r1
.Ltmp77:
	@DEBUG_VALUE: GetDigit:Number <- [DW_OP_LLVM_entry_value 1] $r0
	.loc	2 0 31 is_stmt 0                @ ../User/Mymath.c:0:31
	movw	r1, #52429
.Ltmp78:
	@DEBUG_VALUE: GetDigit:Digit <- [DW_OP_LLVM_entry_value 1] $r1
	movt	r1, #52428
	.loc	2 119 41                        @ ../User/Mymath.c:119:41
	umull	r1, r2, r0, r1
	lsrs	r1, r2, #3
	add.w	r1, r1, r1, lsl #2
	sub.w	r0, r0, r1, lsl #1
.Ltmp79:
	@DEBUG_VALUE: GetDigit:Result <- undef
	.loc	2 121 5 is_stmt 1               @ ../User/Mymath.c:121:5
	bx	lr
.Ltmp80:
.Lfunc_end7:
	.size	GetDigit, .Lfunc_end7-GetDigit
	.cfi_endproc
	.cantunwind
	.fnend
                                        @ -- End function
	.section	.text.SetDigit,"ax",%progbits
	.hidden	SetDigit                        @ -- Begin function SetDigit
	.globl	SetDigit
	.p2align	1
	.type	SetDigit,%function
	.code	16                              @ @SetDigit
	.thumb_func
SetDigit:
.Lfunc_begin8:
	.loc	2 128 0                         @ ../User/Mymath.c:128:0
	.fnstart
	.cfi_startproc
@ %bb.0:
	@DEBUG_VALUE: SetDigit:Number <- $r0
	@DEBUG_VALUE: SetDigit:Number <- $r0
	@DEBUG_VALUE: SetDigit:Digit <- $r1
	@DEBUG_VALUE: SetDigit:Value <- $r2
	.save	{r4, lr}
	push	{r4, lr}
	.cfi_def_cfa_offset 8
	.cfi_offset lr, -4
	.cfi_offset r4, -8
.Ltmp81:
	.loc	2 131 24 prologue_end           @ ../User/Mymath.c:131:24
	ldr.w	r12, [r0]
.Ltmp82:
	@DEBUG_VALUE: SetDigit:Result <- [DW_OP_LLVM_convert 32 7, DW_OP_LLVM_convert 16 7, DW_OP_stack_value] undef
	@DEBUG_VALUE: SetDigit:Digit <- $r1
	.loc	2 0 24 is_stmt 0                @ ../User/Mymath.c:0:24
	movw	r3, #52429
	.loc	2 131 32                        @ ../User/Mymath.c:131:32
	udiv	lr, r12, r1
	movt	r3, #52428
	.loc	2 131 42                        @ ../User/Mymath.c:131:42
	umull	r3, r4, lr, r3
	@DEBUG_VALUE: SetDigit:Value <- $r2
	lsrs	r3, r4, #3
	add.w	r3, r3, r3, lsl #2
.Ltmp83:
	@DEBUG_VALUE: SetDigit:Result <- undef
	.loc	2 0 42                          @ ../User/Mymath.c:0:42
	rsb	r3, lr, r3, lsl #1
	add	r2, r3
.Ltmp84:
	@DEBUG_VALUE: SetDigit:Value <- [DW_OP_LLVM_entry_value 1] $r2
	.loc	2 139 13 is_stmt 1              @ ../User/Mymath.c:139:13
	mla	r1, r2, r1, r12
.Ltmp85:
	@DEBUG_VALUE: SetDigit:Digit <- [DW_OP_LLVM_entry_value 1] $r1
	str	r1, [r0]
	.loc	2 140 1                         @ ../User/Mymath.c:140:1
	pop	{r4, pc}
.Ltmp86:
.Lfunc_end8:
	.size	SetDigit, .Lfunc_end8-SetDigit
	.cfi_endproc
	.cantunwind
	.fnend
                                        @ -- End function
	.section	.text.BubbleSortINT16,"ax",%progbits
	.hidden	BubbleSortINT16                 @ -- Begin function BubbleSortINT16
	.globl	BubbleSortINT16
	.p2align	1
	.type	BubbleSortINT16,%function
	.code	16                              @ @BubbleSortINT16
	.thumb_func
BubbleSortINT16:
.Lfunc_begin9:
	.loc	2 143 0                         @ ../User/Mymath.c:143:0
	.fnstart
	.cfi_startproc
@ %bb.0:
	@DEBUG_VALUE: BubbleSortINT16:p <- $r0
	@DEBUG_VALUE: BubbleSortINT16:Length <- $r1
	@DEBUG_VALUE: BubbleSortINT16:Length <- $r1
	.save	{r4, r5, r6, lr}
	push	{r4, r5, r6, lr}
	.cfi_def_cfa_offset 16
	.cfi_offset lr, -4
	.cfi_offset r6, -8
	.cfi_offset r5, -12
	.cfi_offset r4, -16
.Ltmp87:
	.loc	2 147 5 prologue_end            @ ../User/Mymath.c:147:5
	cmp	r1, #2
.Ltmp88:
	@DEBUG_VALUE: BubbleSortINT16:Temp <- 0
	@DEBUG_VALUE: BubbleSortINT16:jj <- 0
	@DEBUG_VALUE: BubbleSortINT16:ii <- 0
	@DEBUG_VALUE: BubbleSortINT16:p <- $r0
	.loc	2 159 1                         @ ../User/Mymath.c:159:1
	it	lo
	poplo	{r4, r5, r6, pc}
.Ltmp89:
.LBB9_1:
	@DEBUG_VALUE: BubbleSortINT16:Length <- $r1
	@DEBUG_VALUE: BubbleSortINT16:p <- $r0
	@DEBUG_VALUE: BubbleSortINT16:ii <- 0
	@DEBUG_VALUE: BubbleSortINT16:jj <- 0
	@DEBUG_VALUE: BubbleSortINT16:Temp <- 0
	.loc	2 0 1 is_stmt 0                 @ ../User/Mymath.c:0:1
	sub.w	r12, r1, #1
	movs	r1, #0
.Ltmp90:
	@DEBUG_VALUE: BubbleSortINT16:Length <- [DW_OP_LLVM_entry_value 1] $r1
	mov.w	lr, #0
.Ltmp91:
	.p2align	2
.LBB9_2:                                @ =>This Loop Header: Depth=1
                                        @     Child Loop BB9_4 Depth 2
	@DEBUG_VALUE: BubbleSortINT16:p <- $r0
	@DEBUG_VALUE: BubbleSortINT16:Length <- [DW_OP_LLVM_entry_value 1] $r1
	@DEBUG_VALUE: BubbleSortINT16:ii <- $lr
	@DEBUG_VALUE: BubbleSortINT16:jj <- 0
	.loc	2 149 39 is_stmt 1              @ ../User/Mymath.c:149:39
	sub.w	r3, r12, r1
.Ltmp92:
	.loc	2 149 9 is_stmt 0               @ ../User/Mymath.c:149:9
	cmp	r3, #1
	blt	.LBB9_5
.Ltmp93:
@ %bb.3:                                @   in Loop: Header=BB9_2 Depth=1
	@DEBUG_VALUE: BubbleSortINT16:p <- $r0
	@DEBUG_VALUE: BubbleSortINT16:ii <- $lr
	@DEBUG_VALUE: BubbleSortINT16:Length <- [DW_OP_LLVM_entry_value 1] $r1
	@DEBUG_VALUE: BubbleSortINT16:jj <- 0
	.loc	2 0 9                           @ ../User/Mymath.c:0:9
	movs	r2, #0
	movs	r1, #0
.Ltmp94:
	.p2align	2
.LBB9_4:                                @   Parent Loop BB9_2 Depth=1
                                        @ =>  This Inner Loop Header: Depth=2
	@DEBUG_VALUE: BubbleSortINT16:p <- $r0
	@DEBUG_VALUE: BubbleSortINT16:ii <- $lr
	@DEBUG_VALUE: BubbleSortINT16:Length <- [DW_OP_LLVM_entry_value 1] $r1
	@DEBUG_VALUE: BubbleSortINT16:jj <- $r1
	.loc	2 151 31 is_stmt 1              @ ../User/Mymath.c:151:31
	adds	r5, r2, #1
	.loc	2 151 17 is_stmt 0              @ ../User/Mymath.c:151:17
	ldrh.w	r4, [r0, r2, lsl #1]
	.loc	2 151 25                        @ ../User/Mymath.c:151:25
	ldrh.w	r6, [r0, r5, lsl #1]
.Ltmp95:
	.loc	2 149 48 is_stmt 1              @ ../User/Mymath.c:149:48
	adds	r1, #1
.Ltmp96:
	@DEBUG_VALUE: BubbleSortINT16:jj <- $r1
	.loc	2 151 17                        @ ../User/Mymath.c:151:17
	cmp	r4, r6
.Ltmp97:
	@DEBUG_VALUE: BubbleSortINT16:Temp <- $r4
	.loc	2 154 23                        @ ../User/Mymath.c:154:23
	itt	hi
	strhhi.w	r6, [r0, r2, lsl #1]
	.loc	2 155 27                        @ ../User/Mymath.c:155:27
	strhhi.w	r4, [r0, r5, lsl #1]
.Ltmp98:
	.loc	2 149 23                        @ ../User/Mymath.c:149:23
	uxth	r2, r1
.Ltmp99:
	.loc	2 149 9 is_stmt 0               @ ../User/Mymath.c:149:9
	cmp	r3, r2
	bgt	.LBB9_4
.Ltmp100:
.LBB9_5:                                @   in Loop: Header=BB9_2 Depth=1
	@DEBUG_VALUE: BubbleSortINT16:p <- $r0
	@DEBUG_VALUE: BubbleSortINT16:ii <- $lr
	@DEBUG_VALUE: BubbleSortINT16:Length <- [DW_OP_LLVM_entry_value 1] $r1
	.loc	2 147 38 is_stmt 1              @ ../User/Mymath.c:147:38
	add.w	lr, lr, #1
.Ltmp101:
	@DEBUG_VALUE: BubbleSortINT16:ii <- $lr
	.loc	2 147 18 is_stmt 0              @ ../User/Mymath.c:147:18
	uxth.w	r1, lr
.Ltmp102:
	.loc	2 147 5                         @ ../User/Mymath.c:147:5
	cmp	r12, r1
	bgt	.LBB9_2
.Ltmp103:
@ %bb.6:
	@DEBUG_VALUE: BubbleSortINT16:p <- $r0
	@DEBUG_VALUE: BubbleSortINT16:ii <- $lr
	@DEBUG_VALUE: BubbleSortINT16:Length <- [DW_OP_LLVM_entry_value 1] $r1
	.loc	2 159 1 is_stmt 1               @ ../User/Mymath.c:159:1
	pop	{r4, r5, r6, pc}
.Ltmp104:
.Lfunc_end9:
	.size	BubbleSortINT16, .Lfunc_end9-BubbleSortINT16
	.cfi_endproc
	.cantunwind
	.fnend
                                        @ -- End function
	.section	.text.BubbleSortFP32,"ax",%progbits
	.hidden	BubbleSortFP32                  @ -- Begin function BubbleSortFP32
	.globl	BubbleSortFP32
	.p2align	1
	.type	BubbleSortFP32,%function
	.code	16                              @ @BubbleSortFP32
	.thumb_func
BubbleSortFP32:
.Lfunc_begin10:
	.loc	2 162 0                         @ ../User/Mymath.c:162:0
	.fnstart
	.cfi_startproc
@ %bb.0:
	@DEBUG_VALUE: BubbleSortFP32:p <- $r0
	@DEBUG_VALUE: BubbleSortFP32:Length <- $r1
	@DEBUG_VALUE: BubbleSortFP32:Length <- $r1
	.save	{r4, lr}
	push	{r4, lr}
	.cfi_def_cfa_offset 8
	.cfi_offset lr, -4
	.cfi_offset r4, -8
.Ltmp105:
	.loc	2 166 5 prologue_end            @ ../User/Mymath.c:166:5
	cmp	r1, #2
.Ltmp106:
	@DEBUG_VALUE: BubbleSortFP32:Temp <- 0.000000e+00
	@DEBUG_VALUE: BubbleSortFP32:jj <- 0
	@DEBUG_VALUE: BubbleSortFP32:ii <- 0
	@DEBUG_VALUE: BubbleSortFP32:p <- $r0
	.loc	2 178 1                         @ ../User/Mymath.c:178:1
	it	lo
	poplo	{r4, pc}
.Ltmp107:
.LBB10_1:
	@DEBUG_VALUE: BubbleSortFP32:Length <- $r1
	@DEBUG_VALUE: BubbleSortFP32:p <- $r0
	@DEBUG_VALUE: BubbleSortFP32:ii <- 0
	@DEBUG_VALUE: BubbleSortFP32:jj <- 0
	@DEBUG_VALUE: BubbleSortFP32:Temp <- 0.000000e+00
	.loc	2 0 1 is_stmt 0                 @ ../User/Mymath.c:0:1
	sub.w	r12, r1, #1
	movs	r1, #0
.Ltmp108:
	@DEBUG_VALUE: BubbleSortFP32:Length <- [DW_OP_LLVM_entry_value 1] $r1
	mov.w	lr, #0
.Ltmp109:
	.p2align	2
.LBB10_2:                               @ =>This Loop Header: Depth=1
                                        @     Child Loop BB10_4 Depth 2
	@DEBUG_VALUE: BubbleSortFP32:p <- $r0
	@DEBUG_VALUE: BubbleSortFP32:Length <- [DW_OP_LLVM_entry_value 1] $r1
	@DEBUG_VALUE: BubbleSortFP32:ii <- $lr
	@DEBUG_VALUE: BubbleSortFP32:jj <- 0
	.loc	2 168 39 is_stmt 1              @ ../User/Mymath.c:168:39
	sub.w	r3, r12, r1
.Ltmp110:
	.loc	2 168 9 is_stmt 0               @ ../User/Mymath.c:168:9
	cmp	r3, #1
	blt	.LBB10_5
.Ltmp111:
@ %bb.3:                                @   in Loop: Header=BB10_2 Depth=1
	@DEBUG_VALUE: BubbleSortFP32:p <- $r0
	@DEBUG_VALUE: BubbleSortFP32:ii <- $lr
	@DEBUG_VALUE: BubbleSortFP32:Length <- [DW_OP_LLVM_entry_value 1] $r1
	@DEBUG_VALUE: BubbleSortFP32:jj <- 0
	.loc	2 0 9                           @ ../User/Mymath.c:0:9
	movs	r2, #0
	movs	r1, #0
.Ltmp112:
	.p2align	2
.LBB10_4:                               @   Parent Loop BB10_2 Depth=1
                                        @ =>  This Inner Loop Header: Depth=2
	@DEBUG_VALUE: BubbleSortFP32:p <- $r0
	@DEBUG_VALUE: BubbleSortFP32:ii <- $lr
	@DEBUG_VALUE: BubbleSortFP32:Length <- [DW_OP_LLVM_entry_value 1] $r1
	@DEBUG_VALUE: BubbleSortFP32:jj <- $r1
	.loc	2 170 17 is_stmt 1              @ ../User/Mymath.c:170:17
	add.w	r2, r0, r2, lsl #2
	vldr	s0, [r2]
	.loc	2 170 25 is_stmt 0              @ ../User/Mymath.c:170:25
	vldr	s2, [r2, #4]
.Ltmp113:
	.loc	2 168 48 is_stmt 1              @ ../User/Mymath.c:168:48
	adds	r1, #1
.Ltmp114:
	@DEBUG_VALUE: BubbleSortFP32:jj <- $r1
	.loc	2 170 17                        @ ../User/Mymath.c:170:17
	vcmp.f32	s0, s2
	vmrs	APSR_nzcv, fpscr
.Ltmp115:
	.loc	2 0 0 is_stmt 0                 @ ../User/Mymath.c:0:0
	ittt	gt
	addgt	r4, r2, #4
.Ltmp116:
	@DEBUG_VALUE: BubbleSortFP32:Temp <- $s0
	.loc	2 173 23 is_stmt 1              @ ../User/Mymath.c:173:23
	vstrgt	s2, [r2]
	.loc	2 174 27                        @ ../User/Mymath.c:174:27
	vstrgt	s0, [r4]
.Ltmp117:
	.loc	2 168 23                        @ ../User/Mymath.c:168:23
	uxth	r2, r1
.Ltmp118:
	.loc	2 168 9 is_stmt 0               @ ../User/Mymath.c:168:9
	cmp	r3, r2
	bgt	.LBB10_4
.Ltmp119:
.LBB10_5:                               @   in Loop: Header=BB10_2 Depth=1
	@DEBUG_VALUE: BubbleSortFP32:p <- $r0
	@DEBUG_VALUE: BubbleSortFP32:ii <- $lr
	@DEBUG_VALUE: BubbleSortFP32:Length <- [DW_OP_LLVM_entry_value 1] $r1
	.loc	2 166 38 is_stmt 1              @ ../User/Mymath.c:166:38
	add.w	lr, lr, #1
.Ltmp120:
	@DEBUG_VALUE: BubbleSortFP32:ii <- $lr
	.loc	2 166 18 is_stmt 0              @ ../User/Mymath.c:166:18
	uxth.w	r1, lr
.Ltmp121:
	.loc	2 166 5                         @ ../User/Mymath.c:166:5
	cmp	r12, r1
	bgt	.LBB10_2
.Ltmp122:
@ %bb.6:
	@DEBUG_VALUE: BubbleSortFP32:p <- $r0
	@DEBUG_VALUE: BubbleSortFP32:ii <- $lr
	@DEBUG_VALUE: BubbleSortFP32:Length <- [DW_OP_LLVM_entry_value 1] $r1
	.loc	2 178 1 is_stmt 1               @ ../User/Mymath.c:178:1
	pop	{r4, pc}
.Ltmp123:
.Lfunc_end10:
	.size	BubbleSortFP32, .Lfunc_end10-BubbleSortFP32
	.cfi_endproc
	.cantunwind
	.fnend
                                        @ -- End function
	.section	.text.MyPow,"ax",%progbits
	.hidden	MyPow                           @ -- Begin function MyPow
	.globl	MyPow
	.p2align	1
	.type	MyPow,%function
	.code	16                              @ @MyPow
	.thumb_func
MyPow:
.Lfunc_begin11:
	.loc	2 182 0                         @ ../User/Mymath.c:182:0
	.fnstart
	.cfi_startproc
@ %bb.0:
	@DEBUG_VALUE: MyPow:X <- $r0
	@DEBUG_VALUE: MyPow:Y <- $r1
	@DEBUG_VALUE: MyPow:Y <- $r1
	@DEBUG_VALUE: MyPow:Result <- $r0
	@DEBUG_VALUE: MyPow:Result <- $r0
	@DEBUG_VALUE: MyPow:X <- $r0
	.loc	2 187 8 prologue_end            @ ../User/Mymath.c:187:8
	cbz	r1, .LBB11_4
.Ltmp124:
@ %bb.1:
	@DEBUG_VALUE: MyPow:Y <- $r1
	@DEBUG_VALUE: MyPow:Result <- $r0
	@DEBUG_VALUE: MyPow:X <- $r0
	@DEBUG_VALUE: MyPow:Result <- $r0
	@DEBUG_VALUE: MyPow:ii <- 0
	.loc	2 192 25                        @ ../User/Mymath.c:192:25
	subs.w	r12, r1, #1
.Ltmp125:
	.loc	2 192 5 is_stmt 0               @ ../User/Mymath.c:192:5
	beq	.LBB11_5
.Ltmp126:
@ %bb.2:
	@DEBUG_VALUE: MyPow:Y <- $r1
	@DEBUG_VALUE: MyPow:Result <- $r0
	@DEBUG_VALUE: MyPow:X <- $r0
	@DEBUG_VALUE: MyPow:ii <- 0
	.loc	2 0 5                           @ ../User/Mymath.c:0:5
	movs	r3, #0
	mov	r1, r0
.Ltmp127:
	@DEBUG_VALUE: MyPow:Y <- [DW_OP_LLVM_entry_value 1] $r1
	.p2align	2
.LBB11_3:                               @ =>This Inner Loop Header: Depth=1
	@DEBUG_VALUE: MyPow:X <- $r0
	@DEBUG_VALUE: MyPow:Y <- [DW_OP_LLVM_entry_value 1] $r1
	@DEBUG_VALUE: MyPow:Result <- $r1
	@DEBUG_VALUE: MyPow:ii <- $r3
	.loc	2 192 33                        @ ../User/Mymath.c:192:33
	adds	r3, #1
.Ltmp128:
	@DEBUG_VALUE: MyPow:ii <- $r3
	.loc	2 192 18                        @ ../User/Mymath.c:192:18
	uxth	r2, r3
.Ltmp129:
	.loc	2 192 5                         @ ../User/Mymath.c:192:5
	cmp	r12, r2
.Ltmp130:
	.loc	2 194 16 is_stmt 1              @ ../User/Mymath.c:194:16
	mul	r1, r0, r1
.Ltmp131:
	@DEBUG_VALUE: MyPow:Result <- $r1
	.loc	2 192 5                         @ ../User/Mymath.c:192:5
	bhi	.LBB11_3
	b	.LBB11_6
.Ltmp132:
.LBB11_4:
	@DEBUG_VALUE: MyPow:Y <- $r1
	@DEBUG_VALUE: MyPow:Result <- $r0
	@DEBUG_VALUE: MyPow:X <- $r0
	.loc	2 0 5 is_stmt 0                 @ ../User/Mymath.c:0:5
	movs	r1, #1
.Ltmp133:
	@DEBUG_VALUE: MyPow:Y <- [DW_OP_LLVM_entry_value 1] $r1
	b	.LBB11_6
.Ltmp134:
.LBB11_5:
	@DEBUG_VALUE: MyPow:Y <- $r1
	@DEBUG_VALUE: MyPow:Result <- $r0
	@DEBUG_VALUE: MyPow:X <- $r0
	@DEBUG_VALUE: MyPow:ii <- 0
	mov	r1, r0
.Ltmp135:
	@DEBUG_VALUE: MyPow:Y <- [DW_OP_LLVM_entry_value 1] $r1
.LBB11_6:
	@DEBUG_VALUE: MyPow:X <- $r0
	@DEBUG_VALUE: MyPow:Y <- [DW_OP_LLVM_entry_value 1] $r1
	.loc	2 198 1 is_stmt 1               @ ../User/Mymath.c:198:1
	mov	r0, r1
.Ltmp136:
	@DEBUG_VALUE: MyPow:X <- [DW_OP_LLVM_entry_value 1] $r0
	bx	lr
.Ltmp137:
.Lfunc_end11:
	.size	MyPow, .Lfunc_end11-MyPow
	.cfi_endproc
	.cantunwind
	.fnend
                                        @ -- End function
	.section	.text.KeepDecimals,"ax",%progbits
	.hidden	KeepDecimals                    @ -- Begin function KeepDecimals
	.globl	KeepDecimals
	.p2align	1
	.type	KeepDecimals,%function
	.code	16                              @ @KeepDecimals
	.thumb_func
KeepDecimals:
.Lfunc_begin12:
	.loc	2 207 0                         @ ../User/Mymath.c:207:0
	.fnstart
	.cfi_startproc
@ %bb.0:
	@DEBUG_VALUE: KeepDecimals:Keep <- $r0
	@DEBUG_VALUE: KeepDecimals:Keep <- $r0
	@DEBUG_VALUE: KeepDecimals:Data <- $s0
	@DEBUG_VALUE: MyPow:Y <- [DW_OP_LLVM_convert 8 7, DW_OP_LLVM_convert 32 7, DW_OP_plus_uconst 1, DW_OP_stack_value] $r0
	@DEBUG_VALUE: MyPow:Y <- [DW_OP_LLVM_convert 8 7, DW_OP_LLVM_convert 32 7, DW_OP_plus_uconst 1, DW_OP_stack_value] $r0
	@DEBUG_VALUE: MyPow:X <- 10
	@DEBUG_VALUE: KeepDecimals:Neg <- undef
	@DEBUG_VALUE: MyPow:Result <- 10
	@DEBUG_VALUE: MyPow:ii <- 0
	@DEBUG_VALUE: KeepDecimals:Data <- $s0
	.loc	2 192 5 prologue_end            @ ../User/Mymath.c:192:5
	cbz	r0, .LBB12_4
.Ltmp138:
@ %bb.1:
	@DEBUG_VALUE: KeepDecimals:Data <- $s0
	@DEBUG_VALUE: MyPow:Y <- [DW_OP_LLVM_convert 8 7, DW_OP_LLVM_convert 32 7, DW_OP_plus_uconst 1, DW_OP_stack_value] $r0
	@DEBUG_VALUE: KeepDecimals:Keep <- $r0
	@DEBUG_VALUE: MyPow:ii <- 0
	@DEBUG_VALUE: MyPow:Result <- 10
	@DEBUG_VALUE: MyPow:X <- 10
	.loc	2 0 5 is_stmt 0                 @ ../User/Mymath.c:0:5
	movs	r2, #10
	movs	r1, #0
.Ltmp139:
	.p2align	2
.LBB12_2:                               @ =>This Inner Loop Header: Depth=1
	@DEBUG_VALUE: KeepDecimals:Data <- $s0
	@DEBUG_VALUE: MyPow:Y <- [DW_OP_LLVM_convert 8 7, DW_OP_LLVM_convert 32 7, DW_OP_plus_uconst 1, DW_OP_stack_value] $r0
	@DEBUG_VALUE: KeepDecimals:Keep <- $r0
	@DEBUG_VALUE: MyPow:X <- 10
	@DEBUG_VALUE: MyPow:Result <- $r2
	@DEBUG_VALUE: MyPow:ii <- $r1
	.loc	2 192 33                        @ ../User/Mymath.c:192:33
	adds	r1, #1
.Ltmp140:
	@DEBUG_VALUE: MyPow:ii <- $r1
	.loc	2 194 16 is_stmt 1              @ ../User/Mymath.c:194:16
	add.w	r2, r2, r2, lsl #2
.Ltmp141:
	.loc	2 192 33                        @ ../User/Mymath.c:192:33
	uxth	r3, r1
.Ltmp142:
	.loc	2 192 5 is_stmt 0               @ ../User/Mymath.c:192:5
	cmp	r3, r0
.Ltmp143:
	.loc	2 194 16 is_stmt 1              @ ../User/Mymath.c:194:16
	lsl.w	r2, r2, #1
.Ltmp144:
	@DEBUG_VALUE: MyPow:Result <- $r2
	.loc	2 192 5                         @ ../User/Mymath.c:192:5
	blo	.LBB12_2
.Ltmp145:
@ %bb.3:
	@DEBUG_VALUE: KeepDecimals:Data <- $s0
	@DEBUG_VALUE: KeepDecimals:Keep <- $r0
	.loc	2 0 5 is_stmt 0                 @ ../User/Mymath.c:0:5
	movw	r0, #52429
.Ltmp146:
	@DEBUG_VALUE: KeepDecimals:Keep <- [DW_OP_LLVM_entry_value 1] $r0
	movt	r0, #52428
.Ltmp147:
	.loc	2 212 11 is_stmt 1              @ ../User/Mymath.c:212:11
	umull	r0, r1, r2, r0
	lsrs	r0, r1, #3
	vmov	s2, r0
	vcvt.f32.u32	s2, s2
	b	.LBB12_5
.Ltmp148:
.LBB12_4:
	@DEBUG_VALUE: KeepDecimals:Data <- $s0
	@DEBUG_VALUE: MyPow:Y <- [DW_OP_LLVM_convert 8 7, DW_OP_LLVM_convert 32 7, DW_OP_plus_uconst 1, DW_OP_stack_value] $r0
	@DEBUG_VALUE: KeepDecimals:Keep <- $r0
	@DEBUG_VALUE: MyPow:ii <- 0
	@DEBUG_VALUE: MyPow:Result <- 10
	@DEBUG_VALUE: MyPow:X <- 10
	.loc	2 0 11 is_stmt 0                @ ../User/Mymath.c:0:11
	vmov.f32	s2, #1.000000e+00
.Ltmp149:
.LBB12_5:
	@DEBUG_VALUE: KeepDecimals:Data <- $s0
	@DEBUG_VALUE: KeepDecimals:Data <- $s0
	@DEBUG_VALUE: KeepDecimals:Shift <- undef
	.loc	2 220 10 is_stmt 1              @ ../User/Mymath.c:220:10
	vmul.f32	s4, s2, s0
.Ltmp150:
	@DEBUG_VALUE: KeepDecimals:Data <- $s4
	.loc	2 222 14                        @ ../User/Mymath.c:222:14
	vcvt.u32.f32	s4, s4
.Ltmp151:
	vcvt.f32.u32	s4, s4
.Ltmp152:
	@DEBUG_VALUE: KeepDecimals:Result <- $s4
	.loc	2 224 6                         @ ../User/Mymath.c:224:6
	vcmp.f32	s0, #0
	vneg.f32	s6, s4
	vmrs	APSR_nzcv, fpscr
	it	lt
	vmovlt.f32	s4, s6
.Ltmp153:
	.loc	2 0 0 is_stmt 0                 @ ../User/Mymath.c:0:0
	vdiv.f32	s0, s4, s2
.Ltmp154:
	.loc	2 232 1 is_stmt 1               @ ../User/Mymath.c:232:1
	bx	lr
.Ltmp155:
.Lfunc_end12:
	.size	KeepDecimals, .Lfunc_end12-KeepDecimals
	.cfi_endproc
	.cantunwind
	.fnend
                                        @ -- End function
	.section	.text.MySinApprox,"ax",%progbits
	.hidden	MySinApprox                     @ -- Begin function MySinApprox
	.globl	MySinApprox
	.p2align	3
	.type	MySinApprox,%function
	.code	16                              @ @MySinApprox
	.thumb_func
MySinApprox:
.Lfunc_begin13:
	.loc	2 235 0                         @ ../User/Mymath.c:235:0
	.fnstart
	.cfi_startproc
@ %bb.0:
	@DEBUG_VALUE: MySinApprox:x <- $s0
	.save	{r4, r5, r6, r7, r8, lr}
	push.w	{r4, r5, r6, r7, r8, lr}
	.cfi_def_cfa_offset 24
	.cfi_offset lr, -4
	.cfi_offset r8, -8
	.cfi_offset r7, -12
	.cfi_offset r6, -16
	.cfi_offset r5, -20
	.cfi_offset r4, -24
	.vsave	{d8, d9}
	vpush	{d8, d9}
	.cfi_def_cfa_offset 40
	.cfi_offset d9, -32
	.cfi_offset d8, -40
	vmov.f32	s16, s0
.Ltmp156:
	@DEBUG_VALUE: MySinApprox:x <- $s16
	.loc	2 236 19 prologue_end           @ ../User/Mymath.c:236:19
	vcvt.s32.f32	s0, s0
	vmov	r0, s0
.Ltmp157:
	@DEBUG_VALUE: MySinApprox:xint <- $r0
	.loc	2 237 20                        @ ../User/Mymath.c:237:20
	adds	r0, #32
.Ltmp158:
	cmp	r0, #64
	bls	.LBB13_2
.Ltmp159:
@ %bb.1:
	@DEBUG_VALUE: MySinApprox:x <- $s16
	.loc	2 0 20 is_stmt 0                @ ../User/Mymath.c:0:20
	vldr	s0, .LCPI13_0
	b	.LBB13_14
.Ltmp160:
.LBB13_2:
	@DEBUG_VALUE: MySinApprox:x <- $s16
	@DEBUG_VALUE: MySinApprox:x <- $s16
	.loc	2 238 12 is_stmt 1              @ ../User/Mymath.c:238:12
	vmov	r0, s16
	bl	__aeabi_f2d
.Ltmp161:
	.loc	2 0 12 is_stmt 0                @ ../User/Mymath.c:0:12
	vldr	d0, .LCPI13_1
	.loc	2 238 12                        @ ../User/Mymath.c:238:12
	vmov	d9, r0, r1
	.loc	2 238 5                         @ ../User/Mymath.c:238:5
	vmov	r8, r5, d0
	mov	r2, r8
	mov	r3, r5
	bl	__aeabi_dcmple
.Ltmp162:
	cbnz	r0, .LBB13_6
.Ltmp163:
@ %bb.3:
	@DEBUG_VALUE: MySinApprox:x <- $s16
	.loc	2 0 5                           @ ../User/Mymath.c:0:5
	vldr	d0, .LCPI13_2
	vmov	r6, r7, d0
.Ltmp164:
	.p2align	2
.LBB13_4:                               @ =>This Inner Loop Header: Depth=1
	.loc	2 238 23                        @ ../User/Mymath.c:238:23
	vmov	r0, r1, d9
	mov	r2, r6
	mov	r3, r7
	bl	__aeabi_dadd
.Ltmp165:
	bl	__aeabi_d2f
.Ltmp166:
	mov	r4, r0
.Ltmp167:
	@DEBUG_VALUE: MySinApprox:x <- $r4
	.loc	2 238 12                        @ ../User/Mymath.c:238:12
	bl	__aeabi_f2d
.Ltmp168:
	.loc	2 238 5                         @ ../User/Mymath.c:238:5
	mov	r2, r8
	mov	r3, r5
	.loc	2 238 12                        @ ../User/Mymath.c:238:12
	vmov	d9, r0, r1
	.loc	2 238 5                         @ ../User/Mymath.c:238:5
	bl	__aeabi_dcmpgt
.Ltmp169:
	cmp	r0, #0
	bne	.LBB13_4
.Ltmp170:
@ %bb.5:
	@DEBUG_VALUE: MySinApprox:x <- $r4
	.loc	2 0 5                           @ ../User/Mymath.c:0:5
	vmov	s16, r4
.Ltmp171:
	@DEBUG_VALUE: MySinApprox:x <- $s16
	@DEBUG_VALUE: MySinApprox:x <- $s16
.LBB13_6:
	@DEBUG_VALUE: MySinApprox:x <- $s16
	@DEBUG_VALUE: MySinApprox:x <- $s16
	vldr	d0, .LCPI13_3
	.loc	2 239 5 is_stmt 1               @ ../User/Mymath.c:239:5
	vmov	r0, r1, d9
	vmov	r8, r5, d0
	mov	r2, r8
	mov	r3, r5
	bl	__aeabi_dcmpge
.Ltmp172:
	cbnz	r0, .LBB13_10
.Ltmp173:
@ %bb.7:
	@DEBUG_VALUE: MySinApprox:x <- $s16
	.loc	2 0 5 is_stmt 0                 @ ../User/Mymath.c:0:5
	vldr	d0, .LCPI13_4
	vmov	r6, r7, d0
.Ltmp174:
	.p2align	2
.LBB13_8:                               @ =>This Inner Loop Header: Depth=1
	.loc	2 239 23                        @ ../User/Mymath.c:239:23
	vmov	r0, r1, d9
	mov	r2, r6
	mov	r3, r7
	bl	__aeabi_dadd
.Ltmp175:
	bl	__aeabi_d2f
.Ltmp176:
	mov	r4, r0
.Ltmp177:
	@DEBUG_VALUE: MySinApprox:x <- $r4
	.loc	2 239 12                        @ ../User/Mymath.c:239:12
	bl	__aeabi_f2d
.Ltmp178:
	.loc	2 239 5                         @ ../User/Mymath.c:239:5
	mov	r2, r8
	mov	r3, r5
	.loc	2 239 12                        @ ../User/Mymath.c:239:12
	vmov	d9, r0, r1
	.loc	2 239 5                         @ ../User/Mymath.c:239:5
	bl	__aeabi_dcmplt
.Ltmp179:
	cmp	r0, #0
	bne	.LBB13_8
.Ltmp180:
@ %bb.9:
	@DEBUG_VALUE: MySinApprox:x <- $r4
	.loc	2 0 5                           @ ../User/Mymath.c:0:5
	vmov	s16, r4
.Ltmp181:
	@DEBUG_VALUE: MySinApprox:x <- $s16
	@DEBUG_VALUE: MySinApprox:x <- $s16
.LBB13_10:
	@DEBUG_VALUE: MySinApprox:x <- $s16
	vldr	d0, .LCPI13_5
	.loc	2 240 9 is_stmt 1               @ ../User/Mymath.c:240:9
	vmov	r5, r4, d9
	vmov	r7, r6, d0
	mov	r0, r5
	mov	r1, r4
	mov	r2, r7
	mov	r3, r6
	bl	__aeabi_dcmple
.Ltmp182:
	cbz	r0, .LBB13_12
.Ltmp183:
@ %bb.11:
	@DEBUG_VALUE: MySinApprox:x <- $s16
	.loc	2 0 9 is_stmt 0                 @ ../User/Mymath.c:0:9
	vldr	d0, .LCPI13_6
.Ltmp184:
	.loc	2 241 14 is_stmt 1              @ ../User/Mymath.c:241:14
	mov	r0, r5
	vmov	r7, r6, d0
	mov	r1, r4
	mov	r2, r7
	mov	r3, r6
	bl	__aeabi_dcmpge
.Ltmp185:
	cbnz	r0, .LBB13_13
.Ltmp186:
.LBB13_12:
	@DEBUG_VALUE: MySinApprox:x <- $s16
	.loc	2 0 0 is_stmt 0                 @ ../User/Mymath.c:0:0
	mov	r0, r7
	mov	r1, r6
	mov	r2, r5
	mov	r3, r4
	bl	__aeabi_dsub
.Ltmp187:
	mov	r2, r7
	mov	r3, r6
	bl	__aeabi_dadd
.Ltmp188:
	bl	__aeabi_d2f
.Ltmp189:
	vmov	s16, r0
.Ltmp190:
	@DEBUG_VALUE: MySinApprox:x <- $s16
.LBB13_13:
	@DEBUG_VALUE: MySinApprox:x <- $s16
	@DEBUG_VALUE: MySinApprox:x <- $s16
	vldr	s4, .LCPI13_7
	.loc	2 242 17 is_stmt 1              @ ../User/Mymath.c:242:17
	vmul.f32	s0, s16, s16
.Ltmp191:
	@DEBUG_VALUE: MySinApprox:x2 <- $s0
	.loc	2 0 17 is_stmt 0                @ ../User/Mymath.c:0:17
	vldr	s6, .LCPI13_8
	.loc	2 243 86 is_stmt 1              @ ../User/Mymath.c:243:86
	vmul.f32	s4, s0, s4
	.loc	2 243 81 is_stmt 0              @ ../User/Mymath.c:243:81
	vadd.f32	s4, s4, s6
	vldr	s6, .LCPI13_9
	.loc	2 243 65                        @ ../User/Mymath.c:243:65
	vmul.f32	s4, s0, s4
	.loc	2 243 60                        @ ../User/Mymath.c:243:60
	vadd.f32	s4, s4, s6
	vldr	s6, .LCPI13_10
	.loc	2 243 18                        @ ../User/Mymath.c:243:18
	vmul.f32	s2, s16, s0
	.loc	2 243 44                        @ ../User/Mymath.c:243:44
	vmul.f32	s0, s0, s4
.Ltmp192:
	.loc	2 243 39                        @ ../User/Mymath.c:243:39
	vadd.f32	s0, s0, s6
	.loc	2 243 23                        @ ../User/Mymath.c:243:23
	vmul.f32	s0, s2, s0
	.loc	2 243 14                        @ ../User/Mymath.c:243:14
	vadd.f32	s0, s16, s0
.Ltmp193:
.LBB13_14:
	@DEBUG_VALUE: MySinApprox:x <- $s16
	.loc	2 244 1 is_stmt 1               @ ../User/Mymath.c:244:1
	vpop	{d8, d9}
.Ltmp194:
	pop.w	{r4, r5, r6, r7, r8, pc}
.Ltmp195:
	.p2align	3
@ %bb.15:
	.loc	2 0 1 is_stmt 0                 @ ../User/Mymath.c:0:1
.LCPI13_1:
	.long	1413551940                      @ double 3.1415926535000001
	.long	1074340347
.LCPI13_2:
	.long	1413551940                      @ double -6.2831853070000001
	.long	3222872571
.LCPI13_3:
	.long	1413551940                      @ double -3.1415926535000001
	.long	3221823995
.LCPI13_4:
	.long	1413551940                      @ double 6.2831853070000001
	.long	1075388923
.LCPI13_5:
	.long	1413551940                      @ double 1.57079632675
	.long	1073291771
.LCPI13_6:
	.long	1413551940                      @ double -1.57079632675
	.long	3220775419
.LCPI13_0:
	.long	0x00000000                      @ float 0
.LCPI13_7:
	.long	0x362e7c9a                      @ float 2.60005481E-6
.LCPI13_8:
	.long	0xb94faffa                      @ float -1.98066147E-4
.LCPI13_9:
	.long	0x3c088735                      @ float 0.00833301712
.LCPI13_10:
	.long	0xbe2aaaa4                      @ float -0.166666567
.Lfunc_end13:
	.size	MySinApprox, .Lfunc_end13-MySinApprox
	.cfi_endproc
	.cantunwind
	.fnend
                                        @ -- End function
	.section	.text.MyCosApprox,"ax",%progbits
	.hidden	MyCosApprox                     @ -- Begin function MyCosApprox
	.globl	MyCosApprox
	.p2align	3
	.type	MyCosApprox,%function
	.code	16                              @ @MyCosApprox
	.thumb_func
MyCosApprox:
.Lfunc_begin14:
	.loc	2 247 0 is_stmt 1               @ ../User/Mymath.c:247:0
	.fnstart
	.cfi_startproc
@ %bb.0:
	@DEBUG_VALUE: MyCosApprox:x <- $s0
	@DEBUG_VALUE: MyCosApprox:x <- $s0
	.save	{r7, lr}
	push	{r7, lr}
	.cfi_def_cfa_offset 8
	.cfi_offset lr, -4
	.cfi_offset r7, -8
.Ltmp196:
	.loc	2 248 24 prologue_end           @ ../User/Mymath.c:248:24
	vmov	r0, s0
	bl	__aeabi_f2d
.Ltmp197:
	@DEBUG_VALUE: MyCosApprox:x <- [DW_OP_LLVM_entry_value 1] $s0
	.loc	2 0 24 is_stmt 0                @ ../User/Mymath.c:0:24
	vldr	d0, .LCPI14_0
	.loc	2 248 26                        @ ../User/Mymath.c:248:26
	vmov	r2, r3, d0
	bl	__aeabi_dadd
.Ltmp198:
	.loc	2 248 24                        @ ../User/Mymath.c:248:24
	bl	__aeabi_d2f
.Ltmp199:
	vmov	s0, r0
	.loc	2 248 12                        @ ../User/Mymath.c:248:12
	pop.w	{r7, lr}
.Ltmp200:
	b	MySinApprox
.Ltmp201:
	.p2align	3
@ %bb.1:
	.loc	2 0 12                          @ ../User/Mymath.c:0:12
.LCPI14_0:
	.long	1413551940                      @ double 1.57079632675
	.long	1073291771
.Lfunc_end14:
	.size	MyCosApprox, .Lfunc_end14-MyCosApprox
	.cfi_endproc
	.cantunwind
	.fnend
                                        @ -- End function
	.section	.text.MyAtan2Approx,"ax",%progbits
	.hidden	MyAtan2Approx                   @ -- Begin function MyAtan2Approx
	.globl	MyAtan2Approx
	.p2align	3
	.type	MyAtan2Approx,%function
	.code	16                              @ @MyAtan2Approx
	.thumb_func
MyAtan2Approx:
.Lfunc_begin15:
	.loc	2 252 0 is_stmt 1               @ ../User/Mymath.c:252:0
	.fnstart
	.cfi_startproc
@ %bb.0:
	@DEBUG_VALUE: MyAtan2Approx:y <- $s0
	@DEBUG_VALUE: MyAtan2Approx:x <- $s1
	.save	{r7, lr}
	push	{r7, lr}
	.cfi_def_cfa_offset 8
	.cfi_offset lr, -4
	.cfi_offset r7, -8
	.vsave	{d8, d9}
	vpush	{d8, d9}
	.cfi_def_cfa_offset 24
	.cfi_offset d9, -16
	.cfi_offset d8, -24
.Ltmp202:
	.loc	2 262 12 prologue_end           @ ../User/Mymath.c:262:12
	vabs.f32	s2, s1
.Ltmp203:
	@DEBUG_VALUE: MyAtan2Approx:absX <- $s2
	.loc	2 263 12                        @ ../User/Mymath.c:263:12
	vabs.f32	s4, s0
.Ltmp204:
	@DEBUG_VALUE: MyFP32Max:x <- $s2
	@DEBUG_VALUE: MyFP32Max:y <- $s4
	@DEBUG_VALUE: MyAtan2Approx:absY <- $s4
	.loc	2 0 12 is_stmt 0                @ ../User/Mymath.c:0:12
	vmov.f32	s16, s0
.Ltmp205:
	@DEBUG_VALUE: MyAtan2Approx:y <- $s16
	@DEBUG_VALUE: MyAtan2Approx:x <- $s18
	@DEBUG_VALUE: MyAtan2Approx:y <- $s16
	.loc	2 8 9 is_stmt 1                 @ ../User/Mymath.c:8:9
	vcmp.f32	s2, s4
	vmov.f32	s0, s4
	vmrs	APSR_nzcv, fpscr
	it	gt
	vmovgt.f32	s0, s2
.Ltmp206:
	@DEBUG_VALUE: MyAtan2Approx:res <- $s0
	.loc	2 265 9                         @ ../User/Mymath.c:265:9
	vcmp.f32	s0, #0
	vmov.f32	s18, s1
.Ltmp207:
	vmrs	APSR_nzcv, fpscr
	beq	.LBB15_2
.Ltmp208:
@ %bb.1:
	@DEBUG_VALUE: MyAtan2Approx:y <- $s16
	@DEBUG_VALUE: MyAtan2Approx:absY <- $s4
	@DEBUG_VALUE: MyAtan2Approx:absX <- $s2
	@DEBUG_VALUE: MyAtan2Approx:res <- $s0
	@DEBUG_VALUE: MyFP32Min:x <- $s2
	@DEBUG_VALUE: MyFP32Min:y <- $s4
	.loc	2 4 9                           @ ../User/Mymath.c:4:9
	vcmp.f32	s2, s4
	vmov.f32	s6, s4
	vmrs	APSR_nzcv, fpscr
	it	lt
	vmovlt.f32	s6, s2
.Ltmp209:
	.loc	2 265 42                        @ ../User/Mymath.c:265:42
	vdiv.f32	s0, s6, s0
.Ltmp210:
	@DEBUG_VALUE: MyAtan2Approx:res <- $s0
	.loc	2 0 42 is_stmt 0                @ ../User/Mymath.c:0:42
	b	.LBB15_3
.Ltmp211:
.LBB15_2:
	@DEBUG_VALUE: MyAtan2Approx:y <- $s16
	@DEBUG_VALUE: MyAtan2Approx:absY <- $s4
	@DEBUG_VALUE: MyFP32Max:y <- $s4
	@DEBUG_VALUE: MyFP32Max:x <- $s2
	@DEBUG_VALUE: MyAtan2Approx:absX <- $s2
	@DEBUG_VALUE: MyAtan2Approx:res <- $s0
	vldr	s0, .LCPI15_0
.Ltmp212:
.LBB15_3:
	@DEBUG_VALUE: MyAtan2Approx:y <- $s16
	@DEBUG_VALUE: MyAtan2Approx:absY <- $s4
	@DEBUG_VALUE: MyAtan2Approx:absX <- $s2
	@DEBUG_VALUE: MyAtan2Approx:res <- $s0
	vldr	s6, .LCPI15_1
	vldr	s8, .LCPI15_2
	.loc	2 267 30 is_stmt 1              @ ../User/Mymath.c:267:30
	vmul.f32	s6, s0, s6
	.loc	2 267 36 is_stmt 0              @ ../User/Mymath.c:267:36
	vadd.f32	s6, s6, s8
	vldr	s8, .LCPI15_3
	.loc	2 267 53                        @ ../User/Mymath.c:267:53
	vmul.f32	s6, s0, s6
	.loc	2 267 59                        @ ../User/Mymath.c:267:59
	vadd.f32	s6, s6, s8
	vldr	s8, .LCPI15_4
	.loc	2 267 76                        @ ../User/Mymath.c:267:76
	vmul.f32	s6, s0, s6
	.loc	2 267 82                        @ ../User/Mymath.c:267:82
	vadd.f32	s6, s6, s8
	vldr	s8, .LCPI15_5
	.loc	2 267 99                        @ ../User/Mymath.c:267:99
	vmul.f32	s6, s0, s6
	.loc	2 267 11                        @ ../User/Mymath.c:267:11
	vadd.f32	s6, s6, s8
	vldr	s8, .LCPI15_6
	vldr	s10, .LCPI15_7
	.loc	2 267 140                       @ ../User/Mymath.c:267:140
	vmul.f32	s8, s0, s8
	.loc	2 267 146                       @ ../User/Mymath.c:267:146
	vadd.f32	s8, s8, s10
	.loc	2 267 163                       @ ../User/Mymath.c:267:163
	vmul.f32	s0, s0, s8
.Ltmp213:
	.loc	2 0 163                         @ ../User/Mymath.c:0:163
	vmov.f32	s8, #1.000000e+00
	.loc	2 267 169                       @ ../User/Mymath.c:267:169
	vadd.f32	s0, s0, s8
	.loc	2 267 122                       @ ../User/Mymath.c:267:122
	vdiv.f32	s0, s6, s0
.Ltmp214:
	@DEBUG_VALUE: MyAtan2Approx:res <- $s0
	.loc	2 268 9 is_stmt 1               @ ../User/Mymath.c:268:9
	vcmp.f32	s4, s2
	vmrs	APSR_nzcv, fpscr
	ble	.LBB15_5
.Ltmp215:
@ %bb.4:
	@DEBUG_VALUE: MyAtan2Approx:y <- $s16
	@DEBUG_VALUE: MyAtan2Approx:absY <- $s4
	@DEBUG_VALUE: MyAtan2Approx:absX <- $s2
	@DEBUG_VALUE: MyAtan2Approx:res <- $s0
	.loc	2 268 42 is_stmt 0              @ ../User/Mymath.c:268:42
	vmov	r0, s0
	bl	__aeabi_f2d
.Ltmp216:
	.loc	2 0 42                          @ ../User/Mymath.c:0:42
	vldr	d0, .LCPI15_8
	.loc	2 268 42                        @ ../User/Mymath.c:268:42
	mov	r2, r0
	mov	r3, r1
	.loc	2 268 40                        @ ../User/Mymath.c:268:40
	vmov	r0, r1, d0
	bl	__aeabi_dsub
.Ltmp217:
	.loc	2 268 28                        @ ../User/Mymath.c:268:28
	bl	__aeabi_d2f
.Ltmp218:
	vmov	s0, r0
.Ltmp219:
	@DEBUG_VALUE: MyAtan2Approx:res <- $s0
.LBB15_5:
	@DEBUG_VALUE: MyAtan2Approx:y <- $s16
	@DEBUG_VALUE: MyAtan2Approx:res <- $s0
	@DEBUG_VALUE: MyAtan2Approx:res <- $s0
	.loc	2 269 9 is_stmt 1               @ ../User/Mymath.c:269:9
	vcmp.f32	s18, #0
	vmrs	APSR_nzcv, fpscr
	bge	.LBB15_7
.Ltmp220:
@ %bb.6:
	@DEBUG_VALUE: MyAtan2Approx:y <- $s16
	@DEBUG_VALUE: MyAtan2Approx:res <- $s0
	.loc	2 269 27 is_stmt 0              @ ../User/Mymath.c:269:27
	vmov	r0, s0
	bl	__aeabi_f2d
.Ltmp221:
	.loc	2 0 27                          @ ../User/Mymath.c:0:27
	vldr	d0, .LCPI15_9
	.loc	2 269 27                        @ ../User/Mymath.c:269:27
	mov	r2, r0
	mov	r3, r1
	.loc	2 269 25                        @ ../User/Mymath.c:269:25
	vmov	r0, r1, d0
	bl	__aeabi_dsub
.Ltmp222:
	.loc	2 269 22                        @ ../User/Mymath.c:269:22
	bl	__aeabi_d2f
.Ltmp223:
	vmov	s0, r0
.Ltmp224:
	@DEBUG_VALUE: MyAtan2Approx:res <- $s0
.LBB15_7:
	@DEBUG_VALUE: MyAtan2Approx:y <- $s16
	@DEBUG_VALUE: MyAtan2Approx:res <- $s0
	@DEBUG_VALUE: MyAtan2Approx:res <- $s0
	.loc	2 270 9 is_stmt 1               @ ../User/Mymath.c:270:9
	vcmp.f32	s16, #0
	vneg.f32	s2, s0
	vmrs	APSR_nzcv, fpscr
	it	lt
	vmovlt.f32	s0, s2
.Ltmp225:
	@DEBUG_VALUE: MyAtan2Approx:res <- $s0
	.loc	2 271 5                         @ ../User/Mymath.c:271:5
	vpop	{d8, d9}
.Ltmp226:
	pop	{r7, pc}
.Ltmp227:
	.p2align	3
@ %bb.8:
	.loc	2 0 5 is_stmt 0                 @ ../User/Mymath.c:0:5
.LCPI15_8:
	.long	1413551940                      @ double 1.57079632675
	.long	1073291771
.LCPI15_9:
	.long	1413551940                      @ double 3.1415926535000001
	.long	1074340347
.LCPI15_0:
	.long	0x00000000                      @ float 0
.LCPI15_1:
	.long	0xbd4e0939                      @ float -0.0503017642
.LCPI15_2:
	.long	0x3e9eb5e3                      @ float 0.309981436
.LCPI15_3:
	.long	0x3e16fa88                      @ float 0.147440076
.LCPI15_4:
	.long	0x3f7ffe45                      @ float 0.999973595
.LCPI15_5:
	.long	0x34a8dfa7                      @ float 3.1455167E-7
.LCPI15_6:
	.long	0x3f24fb99                      @ float 0.644464075
.LCPI15_7:
	.long	0x3e16a269                      @ float 0.147103921
.Lfunc_end15:
	.size	MyAtan2Approx, .Lfunc_end15-MyAtan2Approx
	.cfi_endproc
	.cantunwind
	.fnend
                                        @ -- End function
	.section	.text.MyAcosApprox,"ax",%progbits
	.hidden	MyAcosApprox                    @ -- Begin function MyAcosApprox
	.globl	MyAcosApprox
	.p2align	3
	.type	MyAcosApprox,%function
	.code	16                              @ @MyAcosApprox
	.thumb_func
MyAcosApprox:
.Lfunc_begin16:
	.loc	2 279 0 is_stmt 1               @ ../User/Mymath.c:279:0
	.fnstart
	.cfi_startproc
@ %bb.0:
	@DEBUG_VALUE: MyAcosApprox:x <- $s0
	.save	{r7, lr}
	push	{r7, lr}
	.cfi_def_cfa_offset 8
	.cfi_offset lr, -4
	.cfi_offset r7, -8
	.vsave	{d8, d9}
	vpush	{d8, d9}
	.cfi_def_cfa_offset 24
	.cfi_offset d9, -16
	.cfi_offset d8, -24
	vmov.f32	s16, s0
.Ltmp228:
	@DEBUG_VALUE: MyAcosApprox:x <- $s16
	.loc	2 280 15 prologue_end           @ ../User/Mymath.c:280:15
	vabs.f32	s18, s0
.Ltmp229:
	@DEBUG_VALUE: MyAcosApprox:xa <- $s18
	.loc	2 0 15 is_stmt 0                @ ../User/Mymath.c:0:15
	vmov.f32	s0, #1.000000e+00
	.loc	2 281 30 is_stmt 1              @ ../User/Mymath.c:281:30
	vsub.f32	s2, s0, s18
	.loc	2 281 19 is_stmt 0              @ ../User/Mymath.c:281:19
	vsqrt.f32	s0, s2
	.loc	2 281 104                       @ ../User/Mymath.c:281:104
	vcmp.f32	s0, s0
	vmrs	APSR_nzcv, fpscr
	bvs	.LBB16_4
.Ltmp230:
.LBB16_1:
	@DEBUG_VALUE: MyAcosApprox:xa <- $s18
	@DEBUG_VALUE: MyAcosApprox:x <- $s16
	.loc	2 0 104                         @ ../User/Mymath.c:0:104
	vldr	s2, .LCPI16_0
	vldr	s4, .LCPI16_1
	.loc	2 281 104                       @ ../User/Mymath.c:281:104
	vmul.f32	s2, s18, s2
	.loc	2 281 89                        @ ../User/Mymath.c:281:89
	vadd.f32	s2, s2, s4
	vldr	s4, .LCPI16_2
	.loc	2 281 75                        @ ../User/Mymath.c:281:75
	vmul.f32	s2, s18, s2
	.loc	2 281 70                        @ ../User/Mymath.c:281:70
	vadd.f32	s2, s2, s4
	vldr	s4, .LCPI16_3
	.loc	2 281 55                        @ ../User/Mymath.c:281:55
	vmul.f32	s2, s18, s2
	.loc	2 281 50                        @ ../User/Mymath.c:281:50
	vadd.f32	s2, s2, s4
	.loc	2 282 9 is_stmt 1               @ ../User/Mymath.c:282:9
	vcmp.f32	s16, #0
	vmrs	APSR_nzcv, fpscr
	.loc	2 281 36                        @ ../User/Mymath.c:281:36
	vmul.f32	s0, s2, s0
.Ltmp231:
	@DEBUG_VALUE: MyAcosApprox:result <- $s0
	.loc	2 282 9                         @ ../User/Mymath.c:282:9
	bge	.LBB16_3
.Ltmp232:
@ %bb.2:
	@DEBUG_VALUE: MyAcosApprox:xa <- $s18
	@DEBUG_VALUE: MyAcosApprox:x <- $s16
	@DEBUG_VALUE: MyAcosApprox:result <- $s0
	.loc	2 283 21                        @ ../User/Mymath.c:283:21
	vmov	r0, s0
	bl	__aeabi_f2d
.Ltmp233:
	.loc	2 0 21 is_stmt 0                @ ../User/Mymath.c:0:21
	vldr	d0, .LCPI16_4
	.loc	2 283 21                        @ ../User/Mymath.c:283:21
	mov	r2, r0
	mov	r3, r1
	.loc	2 283 19                        @ ../User/Mymath.c:283:19
	vmov	r0, r1, d0
	bl	__aeabi_dsub
.Ltmp234:
	.loc	2 283 16                        @ ../User/Mymath.c:283:16
	bl	__aeabi_d2f
.Ltmp235:
	vmov	s0, r0
.Ltmp236:
.LBB16_3:
	@DEBUG_VALUE: MyAcosApprox:xa <- $s18
	@DEBUG_VALUE: MyAcosApprox:x <- $s16
	.loc	2 286 1 is_stmt 1               @ ../User/Mymath.c:286:1
	vpop	{d8, d9}
.Ltmp237:
	@DEBUG_VALUE: MyAcosApprox:x <- [DW_OP_LLVM_entry_value 1] $s0
	pop	{r7, pc}
.Ltmp238:
.LBB16_4:
	@DEBUG_VALUE: MyAcosApprox:xa <- $s18
	@DEBUG_VALUE: MyAcosApprox:x <- $s16
	.loc	2 281 104                       @ ../User/Mymath.c:281:104
	vmov.f32	s0, s2
	bl	__hardfp_sqrtf
.Ltmp239:
	.loc	2 0 104 is_stmt 0               @ ../User/Mymath.c:0:104
	b	.LBB16_1
.Ltmp240:
	.p2align	3
@ %bb.5:
.LCPI16_4:
	.long	1413551940                      @ double 3.1415926535000001
	.long	1074340347
.LCPI16_0:
	.long	0xbc996e30                      @ float -0.0187292993
.LCPI16_1:
	.long	0x3d981627                      @ float 0.0742610022
.LCPI16_2:
	.long	0xbe593484                      @ float -0.212114394
.LCPI16_3:
	.long	0x3fc90da4                      @ float 1.57072878
.Lfunc_end16:
	.size	MyAcosApprox, .Lfunc_end16-MyAcosApprox
	.cfi_endproc
	.cantunwind
	.fnend
                                        @ -- End function
	.section	.text.MyConstrainF,"ax",%progbits
	.hidden	MyConstrainF                    @ -- Begin function MyConstrainF
	.globl	MyConstrainF
	.p2align	1
	.type	MyConstrainF,%function
	.code	16                              @ @MyConstrainF
	.thumb_func
MyConstrainF:
.Lfunc_begin17:
	.loc	2 291 0 is_stmt 1               @ ../User/Mymath.c:291:0
	.fnstart
	.cfi_startproc
@ %bb.0:
	@DEBUG_VALUE: MyConstrainF:Value <- $s0
	@DEBUG_VALUE: MyConstrainF:Value <- $s0
	@DEBUG_VALUE: MyConstrainF:Min <- $s1
	@DEBUG_VALUE: MyConstrainF:Min <- $s1
	@DEBUG_VALUE: MyConstrainF:Max <- $s2
	.loc	2 292 8 prologue_end            @ ../User/Mymath.c:292:8
	vcmp.f32	s0, s1
	vmrs	APSR_nzcv, fpscr
	@DEBUG_VALUE: MyConstrainF:Max <- $s2
	blt	.LBB17_2
.Ltmp241:
@ %bb.1:
	@DEBUG_VALUE: MyConstrainF:Max <- $s2
	@DEBUG_VALUE: MyConstrainF:Min <- $s1
	@DEBUG_VALUE: MyConstrainF:Value <- $s0
	.loc	2 296 13                        @ ../User/Mymath.c:296:13
	vcmp.f32	s0, s2
.Ltmp242:
	.loc	2 0 0 is_stmt 0                 @ ../User/Mymath.c:0:0
	vmov.f32	s1, s2
.Ltmp243:
	@DEBUG_VALUE: MyConstrainF:Min <- [DW_OP_LLVM_entry_value 1] $s1
	.loc	2 296 13                        @ ../User/Mymath.c:296:13
	vmrs	APSR_nzcv, fpscr
.Ltmp244:
	.loc	2 0 0                           @ ../User/Mymath.c:0:0
	it	le
	vmovle.f32	s1, s0
.Ltmp245:
.LBB17_2:
	@DEBUG_VALUE: MyConstrainF:Max <- $s2
	@DEBUG_VALUE: MyConstrainF:Value <- $s0
	.loc	2 302 1 is_stmt 1               @ ../User/Mymath.c:302:1
	vmov.f32	s0, s1
.Ltmp246:
	@DEBUG_VALUE: MyConstrainF:Value <- [DW_OP_LLVM_entry_value 1] $s0
	bx	lr
.Ltmp247:
.Lfunc_end17:
	.size	MyConstrainF, .Lfunc_end17-MyConstrainF
	.cfi_endproc
	.cantunwind
	.fnend
                                        @ -- End function
	.section	.text.MyConstrainINT32S,"ax",%progbits
	.hidden	MyConstrainINT32S               @ -- Begin function MyConstrainINT32S
	.globl	MyConstrainINT32S
	.p2align	1
	.type	MyConstrainINT32S,%function
	.code	16                              @ @MyConstrainINT32S
	.thumb_func
MyConstrainINT32S:
.Lfunc_begin18:
	.loc	2 305 0                         @ ../User/Mymath.c:305:0
	.fnstart
	.cfi_startproc
@ %bb.0:
	@DEBUG_VALUE: MyConstrainINT32S:Value <- $r0
	@DEBUG_VALUE: MyConstrainINT32S:Value <- $r0
	@DEBUG_VALUE: MyConstrainINT32S:Min <- $r1
	@DEBUG_VALUE: MyConstrainINT32S:Min <- $r1
	@DEBUG_VALUE: MyConstrainINT32S:Max <- $r2
	.loc	2 306 8 prologue_end            @ ../User/Mymath.c:306:8
	cmp	r0, r1
	@DEBUG_VALUE: MyConstrainINT32S:Max <- $r2
	.loc	2 316 1                         @ ../User/Mymath.c:316:1
	itt	lt
	movlt	r0, r1
.Ltmp248:
	@DEBUG_VALUE: MyConstrainINT32S:Value <- [DW_OP_LLVM_entry_value 1] $r0
	bxlt	lr
.Ltmp249:
.LBB18_1:
	@DEBUG_VALUE: MyConstrainINT32S:Max <- $r2
	@DEBUG_VALUE: MyConstrainINT32S:Min <- $r1
	@DEBUG_VALUE: MyConstrainINT32S:Value <- [DW_OP_LLVM_entry_value 1] $r0
	.loc	2 310 13                        @ ../User/Mymath.c:310:13
	cmp	r0, r2
	it	gt
	movgt	r0, r2
	bx	lr
.Ltmp250:
.Lfunc_end18:
	.size	MyConstrainINT32S, .Lfunc_end18-MyConstrainINT32S
	.cfi_endproc
	.cantunwind
	.fnend
                                        @ -- End function
	.section	.text.MyConstrainINT16U,"ax",%progbits
	.hidden	MyConstrainINT16U               @ -- Begin function MyConstrainINT16U
	.globl	MyConstrainINT16U
	.p2align	1
	.type	MyConstrainINT16U,%function
	.code	16                              @ @MyConstrainINT16U
	.thumb_func
MyConstrainINT16U:
.Lfunc_begin19:
	.loc	2 319 0                         @ ../User/Mymath.c:319:0
	.fnstart
	.cfi_startproc
@ %bb.0:
	@DEBUG_VALUE: MyConstrainINT16U:Value <- $r0
	@DEBUG_VALUE: MyConstrainINT16U:Value <- $r0
	@DEBUG_VALUE: MyConstrainINT16U:Min <- $r1
	@DEBUG_VALUE: MyConstrainINT16U:Min <- $r1
	@DEBUG_VALUE: MyConstrainINT16U:Max <- $r2
	@DEBUG_VALUE: MyConstrainINT16U:Max <- undef
	.loc	2 320 8 prologue_end            @ ../User/Mymath.c:320:8
	cmp	r0, r1
.Ltmp251:
	@DEBUG_VALUE: MyConstrainINT16U:Max <- $r2
	.loc	2 330 1                         @ ../User/Mymath.c:330:1
	itt	lo
	movlo	r0, r1
.Ltmp252:
	@DEBUG_VALUE: MyConstrainINT16U:Value <- [DW_OP_LLVM_entry_value 1] $r0
	bxlo	lr
.Ltmp253:
.LBB19_1:
	@DEBUG_VALUE: MyConstrainINT16U:Max <- $r2
	@DEBUG_VALUE: MyConstrainINT16U:Min <- $r1
	@DEBUG_VALUE: MyConstrainINT16U:Value <- [DW_OP_LLVM_entry_value 1] $r0
	.loc	2 324 13                        @ ../User/Mymath.c:324:13
	cmp	r0, r2
	it	hi
	movhi	r0, r2
	bx	lr
.Ltmp254:
.Lfunc_end19:
	.size	MyConstrainINT16U, .Lfunc_end19-MyConstrainINT16U
	.cfi_endproc
	.cantunwind
	.fnend
                                        @ -- End function
	.section	.text.INT8UToINT16U,"ax",%progbits
	.hidden	INT8UToINT16U                   @ -- Begin function INT8UToINT16U
	.globl	INT8UToINT16U
	.p2align	1
	.type	INT8UToINT16U,%function
	.code	16                              @ @INT8UToINT16U
	.thumb_func
INT8UToINT16U:
.Lfunc_begin20:
	.loc	2 333 0                         @ ../User/Mymath.c:333:0
	.fnstart
	.cfi_startproc
@ %bb.0:
	@DEBUG_VALUE: INT8UToINT16U:Byte <- $r0
	@DEBUG_VALUE: INT8UToINT16U:Byte <- $r0
	@DEBUG_VALUE: INT8UToINT16U:Data <- [DW_OP_LLVM_convert 8 7, DW_OP_LLVM_convert 16 7, DW_OP_constu 8, DW_OP_shl, DW_OP_stack_value] undef
	.loc	2 337 10 prologue_end           @ ../User/Mymath.c:337:10
	ldrh	r0, [r0]
.Ltmp255:
	@DEBUG_VALUE: INT8UToINT16U:Byte <- [DW_OP_LLVM_entry_value 1] $r0
	rev	r0, r0
	lsrs	r0, r0, #16
.Ltmp256:
	@DEBUG_VALUE: INT8UToINT16U:Data <- $r0
	.loc	2 339 5                         @ ../User/Mymath.c:339:5
	bx	lr
.Ltmp257:
.Lfunc_end20:
	.size	INT8UToINT16U, .Lfunc_end20-INT8UToINT16U
	.cfi_endproc
	.cantunwind
	.fnend
                                        @ -- End function
	.section	.text.QuickMedian3_INT32S,"ax",%progbits
	.hidden	QuickMedian3_INT32S             @ -- Begin function QuickMedian3_INT32S
	.globl	QuickMedian3_INT32S
	.p2align	1
	.type	QuickMedian3_INT32S,%function
	.code	16                              @ @QuickMedian3_INT32S
	.thumb_func
QuickMedian3_INT32S:
.Lfunc_begin21:
	.loc	2 349 0                         @ ../User/Mymath.c:349:0
	.fnstart
	.cfi_startproc
@ %bb.0:
	@DEBUG_VALUE: QuickMedian3_INT32S:v <- $r0
	@DEBUG_VALUE: QuickMedian3_INT32S:v <- $r0
	@DEBUG_VALUE: QuickMedian3_INT32S:p <- [DW_OP_LLVM_fragment 0 32] undef
	@DEBUG_VALUE: QuickMedian3_INT32S:p <- [DW_OP_LLVM_fragment 32 32] undef
	@DEBUG_VALUE: QuickMedian3_INT32S:p <- [DW_OP_LLVM_fragment 64 32] undef
	.loc	2 351 5 prologue_end            @ ../User/Mymath.c:351:5
	ldrd	r2, r1, [r0]
	ldr	r0, [r0, #8]
.Ltmp258:
	@DEBUG_VALUE: QuickMedian3_INT32S:v <- [DW_OP_LLVM_entry_value 1] $r0
	.loc	2 353 5                         @ ../User/Mymath.c:353:5
	mov	r3, r2
	cmp	r2, r1
	itt	gt
	movgt	r3, r1
.Ltmp259:
	@DEBUG_VALUE: QuickMedian3_INT32S:p <- [DW_OP_LLVM_fragment 0 32] $r3
	movgt	r1, r2
.Ltmp260:
	@DEBUG_VALUE: QuickMedian3_INT32S:p <- [DW_OP_LLVM_fragment 32 32] $r1
	.loc	2 353 35 is_stmt 0              @ ../User/Mymath.c:353:35
	cmp	r1, r0
	it	gt
	movgt	r1, r0
.Ltmp261:
	@DEBUG_VALUE: QuickMedian3_INT32S:p <- [DW_OP_LLVM_fragment 32 32] $r1
	.loc	2 353 65                        @ ../User/Mymath.c:353:65
	cmp	r3, r1
	it	gt
	movgt	r1, r3
.Ltmp262:
	@DEBUG_VALUE: QuickMedian3_INT32S:p <- [DW_OP_LLVM_fragment 32 32] $r1
	.loc	2 354 5 is_stmt 1               @ ../User/Mymath.c:354:5
	mov	r0, r1
	bx	lr
.Ltmp263:
.Lfunc_end21:
	.size	QuickMedian3_INT32S, .Lfunc_end21-QuickMedian3_INT32S
	.cfi_endproc
	.cantunwind
	.fnend
                                        @ -- End function
	.section	.text.MyApplyDeadBand,"ax",%progbits
	.hidden	MyApplyDeadBand                 @ -- Begin function MyApplyDeadBand
	.globl	MyApplyDeadBand
	.p2align	1
	.type	MyApplyDeadBand,%function
	.code	16                              @ @MyApplyDeadBand
	.thumb_func
MyApplyDeadBand:
.Lfunc_begin22:
	.loc	2 358 0                         @ ../User/Mymath.c:358:0
	.fnstart
	.cfi_startproc
@ %bb.0:
	@DEBUG_VALUE: MyApplyDeadBand:Val <- $r0
	@DEBUG_VALUE: MyApplyDeadBand:Val <- $r0
	@DEBUG_VALUE: MyApplyDeadBand:Mid <- $r1
	@DEBUG_VALUE: MyApplyDeadBand:Mid <- $r1
	@DEBUG_VALUE: MyApplyDeadBand:DeadBand <- $r2
	@DEBUG_VALUE: MyApplyDeadBand:DeadBand <- $r2
	@DEBUG_VALUE: MyINT32SAbs:X <- $r0
	@DEBUG_VALUE: MyINT32SAbs:X <- $r0
	.loc	2 23 12 prologue_end            @ ../User/Mymath.c:23:12
	cmp	r0, #0
	mov	r12, r0
	bpl	.LBB22_2
.Ltmp264:
@ %bb.1:
	@DEBUG_VALUE: MyApplyDeadBand:DeadBand <- $r2
	@DEBUG_VALUE: MyApplyDeadBand:Mid <- $r1
	@DEBUG_VALUE: MyINT32SAbs:X <- $r0
	@DEBUG_VALUE: MyApplyDeadBand:Val <- $r0
	rsb.w	r12, r0, #0
.Ltmp265:
.LBB22_2:
	@DEBUG_VALUE: MyApplyDeadBand:DeadBand <- $r2
	@DEBUG_VALUE: MyApplyDeadBand:Mid <- $r1
	@DEBUG_VALUE: MyApplyDeadBand:Val <- $r0
	@DEBUG_VALUE: MyINT32SAbs:X <- $r1
	.loc	2 23 12 is_stmt 0               @ ../User/Mymath.c:23:12
	cmp	r1, #0
	mov	r3, r1
	bpl	.LBB22_4
.Ltmp266:
@ %bb.3:
	@DEBUG_VALUE: MyApplyDeadBand:DeadBand <- $r2
	@DEBUG_VALUE: MyINT32SAbs:X <- $r1
	@DEBUG_VALUE: MyApplyDeadBand:Mid <- $r1
	@DEBUG_VALUE: MyApplyDeadBand:Val <- $r0
	rsbs	r3, r1, #0
.Ltmp267:
.LBB22_4:
	@DEBUG_VALUE: MyApplyDeadBand:DeadBand <- $r2
	@DEBUG_VALUE: MyApplyDeadBand:Mid <- $r1
	@DEBUG_VALUE: MyApplyDeadBand:Val <- $r0
	.loc	2 361 39 is_stmt 1              @ ../User/Mymath.c:361:39
	subs.w	r3, r12, r3
.Ltmp268:
	@DEBUG_VALUE: MyINT32SAbs:X <- $r3
	.loc	2 23 12                         @ ../User/Mymath.c:23:12
	it	mi
	rsbmi	r3, r3, #0
.Ltmp269:
	.loc	2 361 9                         @ ../User/Mymath.c:361:9
	cmp	r3, r2
	it	gt
	movgt	r1, r0
.Ltmp270:
	@DEBUG_VALUE: MyApplyDeadBand:Mid <- [DW_OP_LLVM_entry_value 1] $r1
	@DEBUG_VALUE: MyApplyDeadBand:Result <- $r1
	.loc	2 370 5                         @ ../User/Mymath.c:370:5
	mov	r0, r1
.Ltmp271:
	@DEBUG_VALUE: MyApplyDeadBand:Val <- [DW_OP_LLVM_entry_value 1] $r0
	bx	lr
.Ltmp272:
.Lfunc_end22:
	.size	MyApplyDeadBand, .Lfunc_end22-MyApplyDeadBand
	.cfi_endproc
	.cantunwind
	.fnend
                                        @ -- End function
	.section	".note.GNU-stack","",%progbits
	.eabi_attribute	30, 3	@ Tag_ABI_optimization_goals
	.ARM_attribute	16, 1	@ Tag_AV_eba