	.text
	.syntax unified
	.eabi_attribute	67, "2.09"	@ Tag_conformance
	.cpu	cortex-m4
	.eabi_attribute	6, 13	@ Tag_CPU_arch
	.eabi_attribute	7, 77	@ Tag_CPU_arch_profile
	.eabi_attribute	8, 0	@ Tag_ARM_ISA_use
	.eabi_attribute	9, 2	@ Tag_THUMB_ISA_use
	.fpu	fpv4-sp-d16
	.eabi_attribute	27, 1	@ Tag_ABI_HardFP_use
	.eabi_attribute	36, 1	@ Tag_FP_HP_extension
	.eabi_attribute	34, 1	@ Tag_CPU_unaligned_access
	.eabi_attribute	17, 1	@ Tag_ABI_PCS_GOT_use
	.eabi_attribute	20, 2	@ Tag_ABI_FP_denormal
	.eabi_attribute	21, 0	@ Tag_ABI_FP_exceptions
	.eabi_attribute	23, 1	@ Tag_ABI_FP_number_model
	.eabi_attribute	24, 1	@ Tag_ABI_align_needed
	.eabi_attribute	25, 1	@ Tag_ABI_align_preserved
	.eabi_attribute	28, 1	@ Tag_ABI_VFP_args
	.eabi_attribute	38, 1	@ Tag_ABI_FP_16bit_format
	.eabi_attribute	18, 2	@ Tag_ABI_PCS_wchar_t
	.eabi_attribute	26, 1	@ Tag_ABI_enum_size
	.eabi_attribute	14, 0	@ Tag_ABI_PCS_R9_use
	.file	"NRF24L01.c"
	.file	1 "C:\\Users\\Hyacincher\\Desktop\\HyTelectrl\\Code\\Project" "../User\\includes.h"
	.file	2 "C:\\Users\\Hyacincher\\Desktop\\HyTelectrl\\Code\\Project" "../Driver/NRF24L01.h"
	.file	3 "C:\\Users\\Hyacincher\\Desktop\\HyTelectrl\\Code\\Project" "../Driver/NRF24L01.c"
	.file	4 "C:\\Users\\Hyacincher\\Desktop\\HyTelectrl\\Code\\Project" "../Library/STM32F4xx_HAL_Driver/Inc/stm32f4xx_hal_def.h"
	.file	5 "C:\\Users\\Hyacincher\\Desktop\\HyTelectrl\\Code\\Project" "../Library/STM32F4xx_HAL_Driver/Inc\\stm32f4xx_hal_dma.h"
	.file	6 "C:\\Users\\Hyacincher\\Desktop\\HyTelectrl\\Code\\Project" "../Library/STM32F4xx_HAL_Driver/Inc\\stm32f4xx_hal_spi.h"
	.file	7 "D:\\Keil MDK\\ARM\\ARMCLANG\\Bin\\..\\include" "stdint.h"
	.file	8 "C:\\Users\\Hyacincher\\Desktop\\HyTelectrl\\Code\\Project" "../Library/CMSIS/stm32f429xx.h"
	.section	.text.NRFInit,"ax",%progbits
	.hidden	NRFInit                         @ -- Begin function NRFInit
	.globl	NRFInit
	.p2align	1
	.type	NRFInit,%function
	.code	16                              @ @NRFInit
	.thumb_func
NRFInit:
.Lfunc_begin0:
	.loc	3 156 0                         @ ../Driver/NRF24L01.c:156:0
	.fnstart
	.cfi_sections .debug_frame
	.cfi_startproc
@ %bb.0:
	.save	{r4, r5, r6, lr}
	push	{r4, r5, r6, lr}
	.cfi_def_cfa_offset 16
	.cfi_offset lr, -4
	.cfi_offset r6, -8
	.cfi_offset r5, -12
	.cfi_offset r4, -16
	.pad	#16
	sub	sp, #16
	.cfi_def_cfa_offset 32
.Ltmp0:
	.loc	3 157 5 prologue_end            @ ../Driver/NRF24L01.c:157:5
	movw	r5, :lower16:g_NRFCtrlMsg
	movt	r5, :upper16:g_NRFCtrlMsg
	mov	r0, r5
	movs	r1, #81
	bl	__aeabi_memclr4
.Ltmp1:
	.loc	3 0 5 is_stmt 0                 @ ../Driver/NRF24L01.c:0:5
	movw	r6, #3092
	movt	r6, #16386
.Ltmp2:
	.loc	3 70 5 is_stmt 1                @ ../Driver/NRF24L01.c:70:5
	ldr	r0, [r6]
	bic	r0, r0, #8192
	str	r0, [r6]
	.loc	3 71 5                          @ ../Driver/NRF24L01.c:71:5
	movs	r0, #1
	bl	HAL_Delay
.Ltmp3:
	.loc	3 73 5                          @ ../Driver/NRF24L01.c:73:5
	movs	r0, #32
	movs	r1, #13
	bl	NRFWriteReg
.Ltmp4:
	.loc	3 75 5                          @ ../Driver/NRF24L01.c:75:5
	ldr	r0, [r6]
	orr	r0, r0, #8192
	str	r0, [r6]
	.loc	3 77 5                          @ ../Driver/NRF24L01.c:77:5
	movs	r0, #20
	bl	HAL_Delay
.Ltmp5:
	.loc	3 122 5                         @ ../Driver/NRF24L01.c:122:5
	ldr	r0, [r6]
	bic	r0, r0, #8192
	str	r0, [r6]
	.loc	3 123 5                         @ ../Driver/NRF24L01.c:123:5
	movs	r0, #1
	bl	HAL_Delay
.Ltmp6:
	.loc	3 125 4                         @ ../Driver/NRF24L01.c:125:4
	movw	r4, :lower16:TXAddress
	movt	r4, :upper16:TXAddress
	movs	r0, #48
	mov	r1, r4
	movs	r2, #5
	bl	NRFWriteContinul
.Ltmp7:
	.loc	3 126 4                         @ ../Driver/NRF24L01.c:126:4
	movw	r1, :lower16:RXAddress
	movt	r1, :upper16:RXAddress
	movs	r0, #42
	movs	r2, #5
	bl	NRFWriteContinul
.Ltmp8:
	.loc	3 127 5                         @ ../Driver/NRF24L01.c:127:5
	adds	r1, r5, #1
	movs	r0, #160
	movs	r2, #32
	bl	NRFWriteContinul
.Ltmp9:
	.loc	3 129 4                         @ ../Driver/NRF24L01.c:129:4
	movs	r0, #33
	movs	r1, #1
	bl	NRFWriteReg
.Ltmp10:
	.loc	3 130 4                         @ ../Driver/NRF24L01.c:130:4
	movs	r0, #34
	movs	r1, #1
	bl	NRFWriteReg
.Ltmp11:
	.loc	3 131 4                         @ ../Driver/NRF24L01.c:131:4
	movs	r0, #36
	movs	r1, #10
	bl	NRFWriteReg
.Ltmp12:
	.loc	3 132 4                         @ ../Driver/NRF24L01.c:132:4
	movs	r0, #37
	movs	r1, #12
	bl	NRFWriteReg
.Ltmp13:
	.loc	3 133 4                         @ ../Driver/NRF24L01.c:133:4
	movs	r0, #38
	movs	r1, #15
	bl	NRFWriteReg
.Ltmp14:
	.loc	3 134 4                         @ ../Driver/NRF24L01.c:134:4
	movs	r0, #32
	movs	r1, #14
	bl	NRFWriteReg
.Ltmp15:
	.loc	3 135 5                         @ ../Driver/NRF24L01.c:135:5
	ldr	r0, [r6]
	orr	r0, r0, #8192
	str	r0, [r6]
	.loc	3 136 5                         @ ../Driver/NRF24L01.c:136:5
	movs	r0, #1
	bl	HAL_Delay
.Ltmp16:
	.loc	3 0 5 is_stmt 0                 @ ../Driver/NRF24L01.c:0:5
	add.w	r5, sp, #6
	.loc	3 138 5 is_stmt 1               @ ../Driver/NRF24L01.c:138:5
	movs	r0, #16
	mov	r1, r5
	movs	r2, #5
	bl	NRFReadContinul
.Ltmp17:
	.loc	3 0 5 is_stmt 0                 @ ../Driver/NRF24L01.c:0:5
	movs	r0, #0
.Ltmp18:
	@DEBUG_VALUE: NRFTxMode:ii <- 0
	.p2align	2
.LBB0_1:                                @ =>This Inner Loop Header: Depth=1
	@DEBUG_VALUE: NRFTxMode:ii <- $r0
	.loc	3 142 12 is_stmt 1              @ ../Driver/NRF24L01.c:142:12
	ldrb	r1, [r5, r0]
	.loc	3 142 24 is_stmt 0              @ ../Driver/NRF24L01.c:142:24
	ldrb	r2, [r4, r0]
.Ltmp19:
	.loc	3 142 12                        @ ../Driver/NRF24L01.c:142:12
	cmp	r1, r2
	bne	.LBB0_3
.Ltmp20:
@ %bb.2:                                @   in Loop: Header=BB0_1 Depth=1
	@DEBUG_VALUE: NRFTxMode:ii <- $r0
	.loc	3 140 29 is_stmt 1              @ ../Driver/NRF24L01.c:140:29
	adds	r0, #1
.Ltmp21:
	@DEBUG_VALUE: NRFTxMode:ii <- $r0
	.loc	3 140 2 is_stmt 0               @ ../Driver/NRF24L01.c:140:2
	cmp	r0, #5
	bne	.LBB0_1
	b	.LBB0_4
.Ltmp22:
.LBB0_3:
	@DEBUG_VALUE: NRFTxMode:ii <- $r0
	.loc	3 142 12 is_stmt 1              @ ../Driver/NRF24L01.c:142:12
	uxth	r0, r0
.Ltmp23:
	.loc	3 159 8                         @ ../Driver/NRF24L01.c:159:8
	cmp	r0, #5
	.loc	3 166 1                         @ ../Driver/NRF24L01.c:166:1
	itt	ne
	addne	sp, #16
	popne	{r4, r5, r6, pc}
.LBB0_4:
	.loc	3 165 5                         @ ../Driver/NRF24L01.c:165:5
	movs	r0, #100
	add	sp, #16
	pop.w	{r4, r5, r6, lr}
.Ltmp24:
	b	HAL_Delay
.Ltmp25:
.Lfunc_end0:
	.size	NRFInit, .Lfunc_end0-NRFInit
	.cfi_endproc
	.file	9 "C:\\Users\\Hyacincher\\Desktop\\HyTelectrl\\Code\\Project" "../Library/STM32F4xx_HAL_Driver/Inc\\stm32f4xx_hal.h"
	.cantunwind
	.fnend
                                        @ -- End function
	.section	.text.NRFTransmitData,"ax",%progbits
	.hidden	NRFTransmitData                 @ -- Begin function NRFTransmitData
	.globl	NRFTransmitData
	.p2align	1
	.type	NRFTransmitData,%function
	.code	16                              @ @NRFTransmitData
	.thumb_func
NRFTransmitData:
.Lfunc_begin1:
	.loc	3 169 0                         @ ../Driver/NRF24L01.c:169:0
	.fnstart
	.cfi_startproc
@ %bb.0:
	.save	{r4, lr}
	push	{r4, lr}
	.cfi_def_cfa_offset 8
	.cfi_offset lr, -4
	.cfi_offset r4, -8
	movw	r4, #3092
	movt	r4, #16386
.Ltmp26:
	.loc	3 172 5 prologue_end            @ ../Driver/NRF24L01.c:172:5
	ldr	r0, [r4]
	.loc	3 173 5                         @ ../Driver/NRF24L01.c:173:5
	movs	r2, #32
	.loc	3 172 5                         @ ../Driver/NRF24L01.c:172:5
	bic	r0, r0, #8192
	str	r0, [r4]
	.loc	3 173 5                         @ ../Driver/NRF24L01.c:173:5
	movw	r0, :lower16:g_NRFCtrlMsg
	movt	r0, :upper16:g_NRFCtrlMsg
	adds	r1, r0, #1
	movs	r0, #160
	bl	NRFWriteContinul
.Ltmp27:
	.loc	3 174 5                         @ ../Driver/NRF24L01.c:174:5
	ldr	r0, [r4]
	orr	r0, r0, #8192
	str	r0, [r4]
	.loc	3 176 14                        @ ../Driver/NRF24L01.c:176:14
	bl	NRFReadReg
.Ltmp28:
	mov	r4, r0
.Ltmp29:
	@DEBUG_VALUE: NRFTransmitData:Status <- $r4
	.loc	3 177 5                         @ ../Driver/NRF24L01.c:177:5
	movs	r0, #39
	mov	r1, r4
	bl	NRFWriteReg
.Ltmp30:
	.loc	3 179 8                         @ ../Driver/NRF24L01.c:179:8
	lsls	r0, r4, #27
.Ltmp31:
	.loc	3 183 13                        @ ../Driver/NRF24L01.c:183:13
	it	pl
	poppl	{r4, pc}
.Ltmp32:
.LBB1_1:
	.loc	3 181 9                         @ ../Driver/NRF24L01.c:181:9
	movs	r0, #39
	movs	r1, #255
	pop.w	{r4, lr}
.Ltmp33:
	b	NRFWriteReg
.Ltmp34:
.Lfunc_end1:
	.size	NRFTransmitData, .Lfunc_end1-NRFTransmitData
	.cfi_endproc
	.cantunwind
	.fnend
                                        @ -- End function
	.section	.text.NRFWriteContinul,"ax",%progbits
	.p2align	1                               @ -- Begin function NRFWriteContinul
	.type	NRFWriteContinul,%function
	.code	16                              @ @NRFWriteContinul
	.thumb_func
NRFWriteContinul:
.Lfunc_begin2:
	.loc	3 57 0                          @ ../Driver/NRF24L01.c:57:0
	.fnstart
	.cfi_startproc
@ %bb.0:
	@DEBUG_VALUE: NRFWriteContinul:Reg <- $r0
	@DEBUG_VALUE: NRFWriteContinul:pTxBuff <- $r1
	@DEBUG_VALUE: NRFWriteContinul:Len <- $r2
	.save	{r4, r5, r6, r7, lr}
	push	{r4, r5, r6, r7, lr}
	.cfi_def_cfa_offset 20
	.cfi_offset lr, -4
	.cfi_offset r7, -8
	.cfi_offset r6, -12
	.cfi_offset r5, -16
	.cfi_offset r4, -20
	.pad	#4
	sub	sp, #4
	.cfi_def_cfa_offset 24
	movw	r7, #1044
.Ltmp35:
	.loc	3 60 14 prologue_end            @ ../Driver/NRF24L01.c:60:14
	strb.w	r0, [sp, #3]
	movt	r7, #16386
	.loc	3 62 5                          @ ../Driver/NRF24L01.c:62:5
	ldr	r0, [r7]
.Ltmp36:
	@DEBUG_VALUE: NRFWriteContinul:Reg <- [DW_OP_LLVM_entry_value 1] $r0
	.loc	3 63 5                          @ ../Driver/NRF24L01.c:63:5
	movw	r6, :lower16:hspi2
	.loc	3 62 5                          @ ../Driver/NRF24L01.c:62:5
	bic	r0, r0, #4096
	.loc	3 63 5                          @ ../Driver/NRF24L01.c:63:5
	movt	r6, :upper16:hspi2
	mov	r4, r2
.Ltmp37:
	@DEBUG_VALUE: NRFWriteContinul:Len <- $r4
	@DEBUG_VALUE: NRFWriteContinul:Transmit <- undef
	@DEBUG_VALUE: NRFWriteContinul:Len <- $r4
	@DEBUG_VALUE: NRFWriteContinul:Reg <- $r0
	.loc	3 0 5 is_stmt 0                 @ ../Driver/NRF24L01.c:0:5
	mov	r5, r1
.Ltmp38:
	@DEBUG_VALUE: NRFWriteContinul:pTxBuff <- $r5
	@DEBUG_VALUE: NRFWriteContinul:pTxBuff <- $r5
	.loc	3 62 5 is_stmt 1                @ ../Driver/NRF24L01.c:62:5
	str	r0, [r7]
.Ltmp39:
	@DEBUG_VALUE: NRFWriteContinul:Transmit <- [DW_OP_plus_uconst 3, DW_OP_deref] $sp
	.loc	3 0 5 is_stmt 0                 @ ../Driver/NRF24L01.c:0:5
	add.w	r1, sp, #3
	.loc	3 63 5 is_stmt 1                @ ../Driver/NRF24L01.c:63:5
	mov	r0, r6
.Ltmp40:
	@DEBUG_VALUE: NRFWriteContinul:Reg <- [DW_OP_LLVM_entry_value 1] $r0
	movs	r2, #1
	mov.w	r3, #1000
	bl	HAL_SPI_Transmit
.Ltmp41:
	.loc	3 64 5                          @ ../Driver/NRF24L01.c:64:5
	mov	r0, r6
	mov	r1, r5
.Ltmp42:
	@DEBUG_VALUE: NRFWriteContinul:pTxBuff <- $r1
	mov	r2, r4
.Ltmp43:
	@DEBUG_VALUE: NRFWriteContinul:Len <- $r2
	mov.w	r3, #1000
	bl	HAL_SPI_Transmit
.Ltmp44:
	@DEBUG_VALUE: NRFWriteContinul:pTxBuff <- [DW_OP_LLVM_entry_value 1] $r1
	.loc	3 65 5                          @ ../Driver/NRF24L01.c:65:5
	ldr	r0, [r7]
	orr	r0, r0, #4096
	str	r0, [r7]
	.loc	3 66 1                          @ ../Driver/NRF24L01.c:66:1
	add	sp, #4
	pop	{r4, r5, r6, r7, pc}
.Ltmp45:
.Lfunc_end2:
	.size	NRFWriteContinul, .Lfunc_end2-NRFWriteContinul
	.cfi_endproc
	.cantunwind
	.fnend
                                        @ -- End function
	.section	.text.NRFReadReg,"ax",%progbits
	.p2align	1                               @ -- Begin function NRFReadReg
	.type	NRFReadReg,%function
	.code	16                              @ @NRFReadReg
	.thumb_func
NRFReadReg:
.Lfunc_begin3:
	.loc	3 26 0                          @ ../Driver/NRF24L01.c:26:0
	.fnstart
	.cfi_startproc
@ %bb.0:
	.save	{r4, lr}
	push	{r4, lr}
	.cfi_def_cfa_offset 8
	.cfi_offset lr, -4
	.cfi_offset r4, -8
	.pad	#8
	sub	sp, #8
	.cfi_def_cfa_offset 16
	movw	r0, #65287
.Ltmp46:
	@DEBUG_VALUE: NRFReadReg:Transmit <- -249
	@DEBUG_VALUE: NRFReadReg:Reg <- 7
	.loc	3 27 11 prologue_end            @ ../Driver/NRF24L01.c:27:11
	strh.w	r0, [sp, #6]
	movs	r0, #0
	movw	r4, #1044
	.loc	3 28 11                         @ ../Driver/NRF24L01.c:28:11
	strh.w	r0, [sp, #4]
	movt	r4, #16386
	.loc	3 33 5                          @ ../Driver/NRF24L01.c:33:5
	ldr	r0, [r4]
	mov.w	r12, #1000
	bic	r0, r0, #4096
	str	r0, [r4]
.Ltmp47:
	@DEBUG_VALUE: NRFReadReg:Transmit <- [DW_OP_plus_uconst 6, DW_OP_deref] $sp
	.loc	3 34 5                          @ ../Driver/NRF24L01.c:34:5
	movw	r0, :lower16:hspi2
	movt	r0, :upper16:hspi2
	add.w	r1, sp, #6
	add	r2, sp, #4
	movs	r3, #2
	str.w	r12, [sp]
	bl	HAL_SPI_TransmitReceive
.Ltmp48:
	.loc	3 35 5                          @ ../Driver/NRF24L01.c:35:5
	ldr	r0, [r4]
	orr	r0, r0, #4096
	str	r0, [r4]
	.loc	3 37 12                         @ ../Driver/NRF24L01.c:37:12
	ldrb.w	r0, [sp, #5]
	.loc	3 37 5 is_stmt 0                @ ../Driver/NRF24L01.c:37:5
	add	sp, #8
	pop	{r4, pc}
.Ltmp49:
.Lfunc_end3:
	.size	NRFReadReg, .Lfunc_end3-NRFReadReg
	.cfi_endproc
	.cantunwind
	.fnend
                                        @ -- End function
	.section	.text.NRFWriteReg,"ax",%progbits
	.p2align	1                               @ -- Begin function NRFWriteReg
	.type	NRFWriteReg,%function
	.code	16                              @ @NRFWriteReg
	.thumb_func
NRFWriteReg:
.Lfunc_begin4:
	.loc	3 18 0 is_stmt 1                @ ../Driver/NRF24L01.c:18:0
	.fnstart
	.cfi_startproc
@ %bb.0:
	@DEBUG_VALUE: NRFWriteReg:Reg <- $r0
	@DEBUG_VALUE: NRFWriteReg:Reg <- $r0
	@DEBUG_VALUE: NRFWriteReg:Data <- $r1
	@DEBUG_VALUE: NRFWriteReg:Data <- $r1
	.save	{r4, r5, r7, lr}
	push	{r4, r5, r7, lr}
	.cfi_def_cfa_offset 16
	.cfi_offset lr, -4
	.cfi_offset r7, -8
	.cfi_offset r5, -12
	.cfi_offset r4, -16
	.pad	#8
	sub	sp, #8
	.cfi_def_cfa_offset 24
	movw	r5, #1044
	strb.w	r0, [sp, #7]
	strb.w	r1, [sp, #6]
	movt	r5, #16386
.Ltmp50:
	.loc	3 19 5 prologue_end             @ ../Driver/NRF24L01.c:19:5
	ldr	r0, [r5]
.Ltmp51:
	@DEBUG_VALUE: NRFWriteReg:Reg <- [DW_OP_LLVM_entry_value 1] $r0
	.loc	3 20 5                          @ ../Driver/NRF24L01.c:20:5
	movw	r4, :lower16:hspi2
	.loc	3 19 5                          @ ../Driver/NRF24L01.c:19:5
	bic	r0, r0, #4096
	.loc	3 20 5                          @ ../Driver/NRF24L01.c:20:5
	movt	r4, :upper16:hspi2
	.loc	3 19 5                          @ ../Driver/NRF24L01.c:19:5
	str	r0, [r5]
.Ltmp52:
	@DEBUG_VALUE: NRFWriteReg:Reg <- [DW_OP_plus_uconst 7, DW_OP_deref] $sp
	.loc	3 0 5 is_stmt 0                 @ ../Driver/NRF24L01.c:0:5
	add.w	r1, sp, #7
.Ltmp53:
	@DEBUG_VALUE: NRFWriteReg:Data <- [DW_OP_LLVM_entry_value 1] $r1
	.loc	3 20 5 is_stmt 1                @ ../Driver/NRF24L01.c:20:5
	mov	r0, r4
	movs	r2, #1
	mov.w	r3, #1000
	bl	HAL_SPI_Transmit
.Ltmp54:
	@DEBUG_VALUE: NRFWriteReg:Data <- [DW_OP_plus_uconst 6, DW_OP_deref] $sp
	.loc	3 0 5 is_stmt 0                 @ ../Driver/NRF24L01.c:0:5
	add.w	r1, sp, #6
	.loc	3 21 5 is_stmt 1                @ ../Driver/NRF24L01.c:21:5
	mov	r0, r4
	movs	r2, #1
	mov.w	r3, #1000
	bl	HAL_SPI_Transmit
.Ltmp55:
	.loc	3 22 5                          @ ../Driver/NRF24L01.c:22:5
	ldr	r0, [r5]
	orr	r0, r0, #4096
	str	r0, [r5]
	.loc	3 23 1                          @ ../Driver/NRF24L01.c:23:1
	add	sp, #8
	pop	{r4, r5, r7, pc}
.Ltmp56:
.Lfunc_end4:
	.size	NRFWriteReg, .Lfunc_end4-NRFWriteReg
	.cfi_endproc
	.cantunwind
	.fnend
                                        @ -- End function
	.section	.text.NRFReceiveData,"ax",%progbits
	.hidden	NRFReceiveData                  @ -- Begin function NRFReceiveData
	.globl	NRFReceiveData
	.p2align	1
	.type	NRFReceiveData,%function
	.code	16                              @ @NRFReceiveData
	.thumb_func
NRFReceiveData:
.Lfunc_begin5:
	.loc	3 190 0                         @ ../Driver/NRF24L01.c:190:0
	.fnstart
	.cfi_startproc
@ %bb.0:
	.save	{r4, lr}
	push	{r4, lr}
	.cfi_def_cfa_offset 8
	.cfi_offset lr, -4
	.cfi_offset r4, -8
.Ltmp57:
	.loc	3 193 14 prologue_end           @ ../Driver/NRF24L01.c:193:14
	bl	NRFReadReg
.Ltmp58:
	mov	r4, r0
.Ltmp59:
	@DEBUG_VALUE: NRFReceiveData:Status <- $r4
	.loc	3 194 5                         @ ../Driver/NRF24L01.c:194:5
	movs	r0, #39
	mov	r1, r4
	bl	NRFWriteReg
.Ltmp60:
	.loc	3 196 8                         @ ../Driver/NRF24L01.c:196:8
	lsls	r0, r4, #25
	.loc	3 203 1                         @ ../Driver/NRF24L01.c:203:1
	it	pl
	poppl	{r4, pc}
.Ltmp61:
.LBB5_1:
	.loc	3 198 9                         @ ../Driver/NRF24L01.c:198:9
	movw	r4, :lower16:g_NRFCtrlMsg
	movt	r4, :upper16:g_NRFCtrlMsg
	add.w	r1, r4, #41
	movs	r0, #97
	movs	r2, #32
	bl	NRFReadContinul
.Ltmp62:
	.loc	3 199 9                         @ ../Driver/NRF24L01.c:199:9
	movs	r0, #226
	movs	r1, #255
	bl	NRFWriteReg
.Ltmp63:
	.loc	3 200 35                        @ ../Driver/NRF24L01.c:200:35
	ldrb	r0, [r4]
	orr	r0, r0, #1
	strb	r0, [r4]
.Ltmp64:
	.loc	3 203 1                         @ ../Driver/NRF24L01.c:203:1
	pop	{r4, pc}
.Ltmp65:
.Lfunc_end5:
	.size	NRFReceiveData, .Lfunc_end5-NRFReceiveData
	.cfi_endproc
	.cantunwind
	.fnend
                                        @ -- End function
	.section	.text.NRFReadContinul,"ax",%progbits
	.p2align	1                               @ -- Begin function NRFReadContinul
	.type	NRFReadContinul,%function
	.code	16                              @ @NRFReadContinul
	.thumb_func
NRFReadContinul:
.Lfunc_begin6:
	.loc	3 41 0                          @ ../Driver/NRF24L01.c:41:0
	.fnstart
	.cfi_startproc
@ %bb.0:
	@DEBUG_VALUE: NRFReadContinul:Reg <- $r0
	@DEBUG_VALUE: NRFReadContinul:pRxBuff <- $r1
	@DEBUG_VALUE: NRFReadContinul:Len <- $r2
	.save	{r4, r5, r6, r7, r8, r9, r10, r11, lr}
	push.w	{r4, r5, r6, r7, r8, r9, r10, r11, lr}
	.cfi_def_cfa_offset 36
	.cfi_offset lr, -4
	.cfi_offset r11, -8
	.cfi_offset r10, -12
	.cfi_offset r9, -16
	.cfi_offset r8, -20
	.cfi_offset r7, -24
	.cfi_offset r6, -28
	.cfi_offset r5, -32
	.cfi_offset r4, -36
	.pad	#12
	sub	sp, #12
	.cfi_def_cfa_offset 48
	movw	r9, #1044
	movt	r9, #16386
.Ltmp66:
	@DEBUG_VALUE: NRFReadContinul:Transmit <- undef
	@DEBUG_VALUE: NRFReadContinul:Len <- $r4
	@DEBUG_VALUE: NRFReadContinul:Reg <- $r0
	.loc	3 45 14 prologue_end            @ ../Driver/NRF24L01.c:45:14
	strb.w	r0, [sp, #9]
	.loc	3 47 5                          @ ../Driver/NRF24L01.c:47:5
	ldr.w	r0, [r9]
.Ltmp67:
	@DEBUG_VALUE: NRFReadContinul:Reg <- [DW_OP_LLVM_entry_value 1] $r0
	.loc	3 0 5 is_stmt 0                 @ ../Driver/NRF24L01.c:0:5
	mov	r4, r2
.Ltmp68:
	.loc	3 47 5                          @ ../Driver/NRF24L01.c:47:5
	bic	r0, r0, #4096
	str.w	r0, [r9]
.Ltmp69:
	@DEBUG_VALUE: NRFReadContinul:Transmit <- [DW_OP_plus_uconst 9, DW_OP_deref] $sp
	.loc	3 48 5 is_stmt 1                @ ../Driver/NRF24L01.c:48:5
	movw	r0, :lower16:hspi2
	mov	r5, r1
.Ltmp70:
	@DEBUG_VALUE: NRFReadContinul:pRxBuff <- $r5
	@DEBUG_VALUE: NRFReadContinul:pRxBuff <- $r5
	movt	r0, :upper16:hspi2
	add.w	r1, sp, #9
	movs	r2, #1
	mov.w	r3, #1000
	mov.w	r10, #1000
	bl	HAL_SPI_Transmit
.Ltmp71:
	@DEBUG_VALUE: NRFReadContinul:ii <- 0
	.loc	3 49 5                          @ ../Driver/NRF24L01.c:49:5
	cbz	r4, .LBB6_3
.Ltmp72:
@ %bb.1:
	@DEBUG_VALUE: NRFReadContinul:pRxBuff <- $r5
	@DEBUG_VALUE: NRFReadContinul:Transmit <- [DW_OP_plus_uconst 9, DW_OP_deref] $sp
	@DEBUG_VALUE: NRFReadContinul:ii <- 0
	@DEBUG_VALUE: NRFReadContinul:Reg <- [DW_OP_LLVM_entry_value 1] $r0
	.loc	3 0 5 is_stmt 0                 @ ../Driver/NRF24L01.c:0:5
	movw	r8, :lower16:hspi2
	mov.w	r11, #255
	movt	r8, :upper16:hspi2
	add.w	r7, sp, #11
	add.w	r6, sp, #10
.Ltmp73:
	.p2align	2
.LBB6_2:                                @ =>This Inner Loop Header: Depth=1
	@DEBUG_VALUE: NRFReadContinul:Transmit <- [DW_OP_plus_uconst 9, DW_OP_deref] $sp
	@DEBUG_VALUE: NRFReadContinul:Reg <- [DW_OP_LLVM_entry_value 1] $r0
	@DEBUG_VALUE: NRFReadContinul:ii <- undef
	@DEBUG_VALUE: NRFWriteRead:Data <- -1
	.loc	3 12 5 is_stmt 1                @ ../Driver/NRF24L01.c:12:5
	mov	r0, r8
	mov	r1, r7
	mov	r2, r6
	movs	r3, #1
	strb.w	r11, [sp, #11]
.Ltmp74:
	@DEBUG_VALUE: NRFWriteRead:Receive <- [DW_OP_plus_uconst 10, DW_OP_deref] $sp
	@DEBUG_VALUE: NRFWriteRead:Data <- [DW_OP_plus_uconst 11, DW_OP_deref] $sp
	str.w	r10, [sp]
	bl	HAL_SPI_TransmitReceive
.Ltmp75:
	.loc	3 14 12                         @ ../Driver/NRF24L01.c:14:12
	ldrb.w	r0, [sp, #10]
.Ltmp76:
	@DEBUG_VALUE: NRFWriteRead:Receive <- $r0
	.loc	3 49 21                         @ ../Driver/NRF24L01.c:49:21
	subs	r4, #1
.Ltmp77:
	.loc	3 51 21                         @ ../Driver/NRF24L01.c:51:21
	strb	r0, [r5], #1
.Ltmp78:
	@DEBUG_VALUE: NRFReadContinul:pRxBuff <- [DW_OP_LLVM_entry_value 1] $r1
	@DEBUG_VALUE: NRFReadContinul:ii <- [DW_OP_plus_uconst 1, DW_OP_stack_value] undef
	.loc	3 49 5                          @ ../Driver/NRF24L01.c:49:5
	bne	.LBB6_2
.Ltmp79:
.LBB6_3:
	@DEBUG_VALUE: NRFReadContinul:Transmit <- [DW_OP_plus_uconst 9, DW_OP_deref] $sp
	@DEBUG_VALUE: NRFReadContinul:Reg <- [DW_OP_LLVM_entry_value 1] $r0
	.loc	3 53 5                          @ ../Driver/NRF24L01.c:53:5
	ldr.w	r0, [r9]
	orr	r0, r0, #4096
	str.w	r0, [r9]
	.loc	3 54 1                          @ ../Driver/NRF24L01.c:54:1
	add	sp, #12
	pop.w	{r4, r5, r6, r7, r8, r9, r10, r11, pc}
.Ltmp80:
.Lfunc_end6:
	.size	NRFReadContinul, .Lfunc_end6-NRFReadContinul
	.cfi_endproc
	.cantunwind
	.fnend
                                        @ -- End function
	.section	.text.GetRemoteCtrlMsg,"ax",%progbits
	.hidden	GetRemoteCtrlMsg                @ -- Begin function GetRemoteCtrlMsg
	.globl	GetRemoteCtrlMsg
	.p2align	1
	.type	GetRemoteCtrlMsg,%function
	.code	16                              @ @GetRemoteCtrlMsg
	.thumb_func
GetRemoteCtrlMsg:
.Lfunc_begin7:
	.loc	3 214 0                         @ ../Driver/NRF24L01.c:214:0
	.fnstart
	.cfi_startproc
@ %bb.0:
	@DEBUG_VALUE: GetRemoteCtrlMsg:Channel <- $r0
	@DEBUG_VALUE: GetRemoteCtrlMsg:Channel <- $r0
	@DEBUG_VALUE: GetRemoteCtrlMsg:Data <- 0
	.loc	3 217 12 prologue_end           @ ../Driver/NRF24L01.c:217:12
	movw	r1, :lower16:g_NRFCtrlMsg
	movt	r1, :upper16:g_NRFCtrlMsg
	add	r0, r1
.Ltmp81:
	@DEBUG_VALUE: GetRemoteCtrlMsg:Channel <- [DW_OP_LLVM_entry_value 1] $r0
	@DEBUG_VALUE: GetRemoteCtrlMsg:Data <- [DW_OP_LLVM_convert 8 7, DW_OP_LLVM_convert 16 7, DW_OP_stack_value] undef
	.loc	3 218 10                        @ ../Driver/NRF24L01.c:218:10
	ldrh.w	r0, [r0, #41]
.Ltmp82:
	@DEBUG_VALUE: GetRemoteCtrlMsg:Data <- undef
	.loc	3 220 5                         @ ../Driver/NRF24L01.c:220:5
	bx	lr
.Ltmp83:
.Lfunc_end7:
	.size	GetRemoteCtrlMsg, .Lfunc_end7-GetRemoteCtrlMsg
	.cfi_endproc
	.cantunwind
	.fnend
                                        @ -- End function
	.hidden	g_NRFCtrlMsg                    @ @g_NRFCtrlMsg
	.type	g_NRFCtrlMsg,%object
	.section	.bss.g_NRFCtrlMsg,"aw",%nobits
	.globl	g_NRFCtrlMsg
	.p2align	2
g_NRFCtrlMsg:
	.zero	81
	.size	g_NRFCtrlMsg, 81

	.type	TXAddress,%object               @ @TXAddress
	.section	.rodata.TXAddress,"a",%progbits
TXAddress:
	.ascii	"%%%%R"
	.size	TXAddress, 5

	.type	RXAddress,%object               @ @RXAddress
	.section	.rodata.RXAddress,"a",%progbits
RXAddress:
	.ascii	"%%%%R"
	.size	RXAddress, 5

	.section	".note.GNU-stack","",%progbits
	.eabi_attribute	30, 3	@ Tag_ABI_optimization_goals
	.ARM_attribute	16, 1	@ Tag_AV_eba