	.text
	.syntax unified
	.eabi_attribute	67, "2.09"	@ Tag_conformance
	.cpu	cortex-m4
	.eabi_attribute	6, 13	@ Tag_CPU_arch
	.eabi_attribute	7, 77	@ Tag_CPU_arch_profile
	.eabi_attribute	8, 0	@ Tag_ARM_ISA_use
	.eabi_attribute	9, 2	@ Tag_THUMB_ISA_use
	.fpu	fpv4-sp-d16
	.eabi_attribute	27, 1	@ Tag_ABI_HardFP_use
	.eabi_attribute	36, 1	@ Tag_FP_HP_extension
	.eabi_attribute	34, 1	@ Tag_CPU_unaligned_access
	.eabi_attribute	17, 1	@ Tag_ABI_PCS_GOT_use
	.eabi_attribute	20, 2	@ Tag_ABI_FP_denormal
	.eabi_attribute	21, 0	@ Tag_ABI_FP_exceptions
	.eabi_attribute	23, 1	@ Tag_ABI_FP_number_model
	.eabi_attribute	24, 1	@ Tag_ABI_align_needed
	.eabi_attribute	25, 1	@ Tag_ABI_align_preserved
	.eabi_attribute	28, 1	@ Tag_ABI_VFP_args
	.eabi_attribute	38, 1	@ Tag_ABI_FP_16bit_format
	.eabi_attribute	18, 2	@ Tag_ABI_PCS_wchar_t
	.eabi_attribute	26, 1	@ Tag_ABI_enum_size
	.eabi_attribute	14, 0	@ Tag_ABI_PCS_R9_use
	.file	"qrcodegen.c"
	.file	1 "D:\\Keil MDK\\ARM\\ARMCLANG\\Bin\\..\\include" "stdint.h"
	.file	2 "C:\\Users\\Hyacincher\\Desktop\\HyTelectrl\\Code\\Project" "../GUILib/src/extra/libs/qrcode/qrcodegen.c"
	.file	3 "C:\\Users\\Hyacincher\\Desktop\\HyTelectrl\\Code\\Project" "../GUILib/src/extra/libs/qrcode/qrcodegen.h"
	.file	4 "D:\\Keil MDK\\ARM\\ARMCLANG\\Bin\\..\\include" "stdlib.h"
	.section	.text.qrcodegen_encodeText,"ax",%progbits
	.hidden	qrcodegen_encodeText            @ -- Begin function qrcodegen_encodeText
	.globl	qrcodegen_encodeText
	.p2align	1
	.type	qrcodegen_encodeText,%function
	.code	16                              @ @qrcodegen_encodeText
	.thumb_func
qrcodegen_encodeText:
.Lfunc_begin0:
	.loc	2 129 0                         @ ../GUILib/src/extra/libs/qrcode/qrcodegen.c:129:0
	.fnstart
	.cfi_sections .debug_frame
	.cfi_startproc
@ %bb.0:
	@DEBUG_VALUE: qrcodegen_encodeText:text <- $r0
	@DEBUG_VALUE: qrcodegen_encodeText:tempBuffer <- $r1
	@DEBUG_VALUE: qrcodegen_encodeText:qrcode <- $r2
	@DEBUG_VALUE: qrcodegen_encodeText:ecl <- $r3
	.save	{r4, r5, r6, r7, r8, r9, r10, r11, lr}
	push.w	{r4, r5, r6, r7, r8, r9, r10, r11, lr}
	.cfi_def_cfa_offset 36
	.cfi_offset lr, -4
	.cfi_offset r11, -8
	.cfi_offset r10, -12
	.cfi_offset r9, -16
	.cfi_offset r8, -20
	.cfi_offset r7, -24
	.cfi_offset r6, -28
	.cfi_offset r5, -32
	.cfi_offset r4, -36
	.pad	#60
	sub	sp, #60
	.cfi_def_cfa_offset 96
	ldr	r4, [sp, #108]
	ldrd	r8, r9, [sp, #100]
	mov	r11, r3
.Ltmp0:
	@DEBUG_VALUE: qrcodegen_encodeText:ecl <- $r11
	mov	r10, r2
.Ltmp1:
	@DEBUG_VALUE: qrcodegen_encodeText:qrcode <- $r10
	mov	r7, r1
.Ltmp2:
	@DEBUG_VALUE: qrcodegen_encodeText:tempBuffer <- $r7
	mov	r6, r0
.Ltmp3:
	@DEBUG_VALUE: qrcodegen_encodeText:mask <- $r9
	@DEBUG_VALUE: qrcodegen_encodeText:boostEcl <- [DW_OP_LLVM_convert 1 7, DW_OP_LLVM_convert 8 7, DW_OP_stack_value] $r4
	@DEBUG_VALUE: qrcodegen_encodeText:maxVersion <- [DW_OP_plus_uconst 100] [$sp+0]
	@DEBUG_VALUE: qrcodegen_encodeText:minVersion <- [DW_OP_plus_uconst 96] [$sp+0]
	@DEBUG_VALUE: qrcodegen_encodeText:ecl <- $r11
	@DEBUG_VALUE: qrcodegen_encodeText:qrcode <- $r10
	@DEBUG_VALUE: qrcodegen_encodeText:tempBuffer <- $r7
	@DEBUG_VALUE: qrcodegen_encodeText:text <- $r6
	.loc	2 131 19 prologue_end           @ ../GUILib/src/extra/libs/qrcode/qrcodegen.c:131:19
	bl	strlen
.Ltmp4:
	@DEBUG_VALUE: qrcodegen_encodeText:textLen <- $r0
	.loc	2 132 6                         @ ../GUILib/src/extra/libs/qrcode/qrcodegen.c:132:6
	cbz	r0, .LBB0_5
.Ltmp5:
@ %bb.1:
	@DEBUG_VALUE: qrcodegen_encodeText:ecl <- $r11
	@DEBUG_VALUE: qrcodegen_encodeText:qrcode <- $r10
	@DEBUG_VALUE: qrcodegen_encodeText:mask <- $r9
	@DEBUG_VALUE: qrcodegen_encodeText:tempBuffer <- $r7
	@DEBUG_VALUE: qrcodegen_encodeText:text <- $r6
	@DEBUG_VALUE: qrcodegen_encodeText:boostEcl <- [DW_OP_LLVM_convert 1 7, DW_OP_LLVM_convert 8 7, DW_OP_stack_value] $r4
	@DEBUG_VALUE: qrcodegen_encodeText:textLen <- $r0
	@DEBUG_VALUE: qrcodegen_encodeText:minVersion <- [DW_OP_plus_uconst 96] [$sp+0]
	@DEBUG_VALUE: qrcodegen_encodeText:maxVersion <- [DW_OP_plus_uconst 100] [$sp+0]
	.loc	2 0 6 is_stmt 0                 @ ../GUILib/src/extra/libs/qrcode/qrcodegen.c:0:6
	mov	r5, r0
.Ltmp6:
	@DEBUG_VALUE: qrcodegen_encodeText:textLen <- $r5
	@DEBUG_VALUE: qrcodegen_encodeText:textLen <- $r5
	movs	r0, #17
	.loc	2 134 18 is_stmt 1              @ ../GUILib/src/extra/libs/qrcode/qrcodegen.c:134:18
	add.w	r0, r0, r8, lsl #2
	muls	r0, r0, r0
	adds	r0, #7
	movs	r1, #1
	str.w	r10, [sp, #24]                  @ 4-byte Spill
.Ltmp7:
	@DEBUG_VALUE: qrcodegen_encodeText:qrcode <- [DW_OP_plus_uconst 24] [$sp+0]
	add.w	r10, r1, r0, lsr #3
.Ltmp8:
	@DEBUG_VALUE: qrcodegen_encodeText:bufLen <- $r10
	.loc	2 137 6                         @ ../GUILib/src/extra/libs/qrcode/qrcodegen.c:137:6
	mov	r0, r6
	bl	qrcodegen_isNumeric
.Ltmp9:
	.loc	2 137 6 is_stmt 0               @ ../GUILib/src/extra/libs/qrcode/qrcodegen.c:137:6
	cbz	r0, .LBB0_6
.Ltmp10:
@ %bb.2:
	@DEBUG_VALUE: qrcodegen_encodeText:qrcode <- [DW_OP_plus_uconst 24] [$sp+0]
	@DEBUG_VALUE: qrcodegen_encodeText:ecl <- $r11
	@DEBUG_VALUE: qrcodegen_encodeText:bufLen <- $r10
	@DEBUG_VALUE: qrcodegen_encodeText:mask <- $r9
	@DEBUG_VALUE: qrcodegen_encodeText:tempBuffer <- $r7
	@DEBUG_VALUE: qrcodegen_encodeText:text <- $r6
	@DEBUG_VALUE: qrcodegen_encodeText:textLen <- $r5
	@DEBUG_VALUE: qrcodegen_encodeText:boostEcl <- [DW_OP_LLVM_convert 1 7, DW_OP_LLVM_convert 8 7, DW_OP_stack_value] $r4
	@DEBUG_VALUE: qrcodegen_encodeText:minVersion <- [DW_OP_plus_uconst 96] [$sp+0]
	@DEBUG_VALUE: qrcodegen_encodeText:maxVersion <- [DW_OP_plus_uconst 100] [$sp+0]
	.loc	2 0 6                           @ ../GUILib/src/extra/libs/qrcode/qrcodegen.c:0:6
	movs	r0, #0
.Ltmp11:
	@DEBUG_VALUE: calcSegmentBitLength:numChars <- $r5
	@DEBUG_VALUE: calcSegmentBitLength:mode <- 1
	@DEBUG_VALUE: qrcodegen_calcSegmentBufferSize:numChars <- $r5
	@DEBUG_VALUE: qrcodegen_calcSegmentBufferSize:mode <- 1
	.loc	2 838 6 is_stmt 1               @ ../GUILib/src/extra/libs/qrcode/qrcodegen.c:838:6
	cmp.w	r0, r5, lsr #15
	bne	.LBB0_4
.Ltmp12:
@ %bb.3:
	@DEBUG_VALUE: qrcodegen_encodeText:qrcode <- [DW_OP_plus_uconst 24] [$sp+0]
	@DEBUG_VALUE: qrcodegen_encodeText:ecl <- $r11
	@DEBUG_VALUE: qrcodegen_encodeText:bufLen <- $r10
	@DEBUG_VALUE: qrcodegen_encodeText:mask <- $r9
	@DEBUG_VALUE: qrcodegen_encodeText:tempBuffer <- $r7
	@DEBUG_VALUE: qrcodegen_encodeText:text <- $r6
	@DEBUG_VALUE: qrcodegen_calcSegmentBufferSize:numChars <- $r5
	@DEBUG_VALUE: calcSegmentBitLength:numChars <- $r5
	@DEBUG_VALUE: qrcodegen_encodeText:textLen <- $r5
	@DEBUG_VALUE: qrcodegen_encodeText:boostEcl <- [DW_OP_LLVM_convert 1 7, DW_OP_LLVM_convert 8 7, DW_OP_stack_value] $r4
	@DEBUG_VALUE: qrcodegen_encodeText:minVersion <- [DW_OP_plus_uconst 96] [$sp+0]
	@DEBUG_VALUE: qrcodegen_encodeText:maxVersion <- [DW_OP_plus_uconst 100] [$sp+0]
	@DEBUG_VALUE: qrcodegen_calcSegmentBufferSize:mode <- 1
	@DEBUG_VALUE: calcSegmentBitLength:mode <- 1
	@DEBUG_VALUE: calcSegmentBitLength:result <- $r5
	.loc	2 842 20                        @ ../GUILib/src/extra/libs/qrcode/qrcodegen.c:842:20
	add.w	r1, r5, r5, lsl #2
	movs	r2, #2
	.loc	2 842 25 is_stmt 0              @ ../GUILib/src/extra/libs/qrcode/qrcodegen.c:842:25
	add.w	r1, r2, r1, lsl #1
	movw	r2, #21846
	movt	r2, #21845
	.loc	2 842 30                        @ ../GUILib/src/extra/libs/qrcode/qrcodegen.c:842:30
	smmul	r1, r1, r2
	add.w	r1, r1, r1, lsr #31
.Ltmp13:
	@DEBUG_VALUE: calcSegmentBitLength:result <- $r1
	.loc	2 0 30                          @ ../GUILib/src/extra/libs/qrcode/qrcodegen.c:0:30
	cmp.w	r0, r1, lsr #15
	beq	.LBB0_15
.Ltmp14:
.LBB0_4:
	@DEBUG_VALUE: qrcodegen_encodeText:qrcode <- [DW_OP_plus_uconst 24] [$sp+0]
	@DEBUG_VALUE: qrcodegen_encodeText:ecl <- $r11
	@DEBUG_VALUE: qrcodegen_encodeText:bufLen <- $r10
	@DEBUG_VALUE: qrcodegen_encodeText:mask <- $r9
	@DEBUG_VALUE: qrcodegen_encodeText:tempBuffer <- $r7
	@DEBUG_VALUE: qrcodegen_encodeText:text <- $r6
	@DEBUG_VALUE: qrcodegen_calcSegmentBufferSize:numChars <- $r5
	@DEBUG_VALUE: calcSegmentBitLength:numChars <- $r5
	@DEBUG_VALUE: qrcodegen_encodeText:textLen <- $r5
	@DEBUG_VALUE: qrcodegen_encodeText:boostEcl <- [DW_OP_LLVM_convert 1 7, DW_OP_LLVM_convert 8 7, DW_OP_stack_value] $r4
	@DEBUG_VALUE: qrcodegen_encodeText:minVersion <- [DW_OP_plus_uconst 96] [$sp+0]
	@DEBUG_VALUE: qrcodegen_encodeText:maxVersion <- [DW_OP_plus_uconst 100] [$sp+0]
	@DEBUG_VALUE: qrcodegen_calcSegmentBufferSize:mode <- 1
	@DEBUG_VALUE: calcSegmentBitLength:mode <- 1
	mov.w	r0, #-1
	b	.LBB0_16
.Ltmp15:
.LBB0_5:
	@DEBUG_VALUE: qrcodegen_encodeText:ecl <- $r11
	@DEBUG_VALUE: qrcodegen_encodeText:qrcode <- $r10
	@DEBUG_VALUE: qrcodegen_encodeText:mask <- $r9
	@DEBUG_VALUE: qrcodegen_encodeText:tempBuffer <- $r7
	@DEBUG_VALUE: qrcodegen_encodeText:text <- $r6
	@DEBUG_VALUE: qrcodegen_encodeText:boostEcl <- [DW_OP_LLVM_convert 1 7, DW_OP_LLVM_convert 8 7, DW_OP_stack_value] $r4
	@DEBUG_VALUE: qrcodegen_encodeText:textLen <- $r0
	@DEBUG_VALUE: qrcodegen_encodeText:minVersion <- [DW_OP_plus_uconst 96] [$sp+0]
	@DEBUG_VALUE: qrcodegen_encodeText:maxVersion <- [DW_OP_plus_uconst 100] [$sp+0]
	.loc	2 133 10 is_stmt 1              @ ../GUILib/src/extra/libs/qrcode/qrcodegen.c:133:10
	movs	r0, #0
.Ltmp16:
	movs	r1, #0
	strd	r8, r9, [sp]
	strd	r4, r7, [sp, #8]
	b	.LBB0_24
.Ltmp17:
.LBB0_6:
	@DEBUG_VALUE: qrcodegen_encodeText:qrcode <- [DW_OP_plus_uconst 24] [$sp+0]
	@DEBUG_VALUE: qrcodegen_encodeText:ecl <- $r11
	@DEBUG_VALUE: qrcodegen_encodeText:bufLen <- $r10
	@DEBUG_VALUE: qrcodegen_encodeText:mask <- $r9
	@DEBUG_VALUE: qrcodegen_encodeText:tempBuffer <- $r7
	@DEBUG_VALUE: qrcodegen_encodeText:text <- $r6
	@DEBUG_VALUE: qrcodegen_encodeText:textLen <- $r5
	@DEBUG_VALUE: qrcodegen_encodeText:boostEcl <- [DW_OP_LLVM_convert 1 7, DW_OP_LLVM_convert 8 7, DW_OP_stack_value] $r4
	@DEBUG_VALUE: qrcodegen_encodeText:minVersion <- [DW_OP_plus_uconst 96] [$sp+0]
	@DEBUG_VALUE: qrcodegen_encodeText:maxVersion <- [DW_OP_plus_uconst 100] [$sp+0]
	.loc	2 141 13                        @ ../GUILib/src/extra/libs/qrcode/qrcodegen.c:141:13
	mov	r0, r6
	bl	qrcodegen_isAlphanumeric
.Ltmp18:
	.loc	2 141 13 is_stmt 0              @ ../GUILib/src/extra/libs/qrcode/qrcodegen.c:141:13
	cbz	r0, .LBB0_10
.Ltmp19:
@ %bb.7:
	@DEBUG_VALUE: qrcodegen_encodeText:qrcode <- [DW_OP_plus_uconst 24] [$sp+0]
	@DEBUG_VALUE: qrcodegen_encodeText:ecl <- $r11
	@DEBUG_VALUE: qrcodegen_encodeText:bufLen <- $r10
	@DEBUG_VALUE: qrcodegen_encodeText:mask <- $r9
	@DEBUG_VALUE: qrcodegen_encodeText:tempBuffer <- $r7
	@DEBUG_VALUE: qrcodegen_encodeText:text <- $r6
	@DEBUG_VALUE: qrcodegen_encodeText:textLen <- $r5
	@DEBUG_VALUE: qrcodegen_encodeText:boostEcl <- [DW_OP_LLVM_convert 1 7, DW_OP_LLVM_convert 8 7, DW_OP_stack_value] $r4
	@DEBUG_VALUE: qrcodegen_encodeText:minVersion <- [DW_OP_plus_uconst 96] [$sp+0]
	@DEBUG_VALUE: qrcodegen_encodeText:maxVersion <- [DW_OP_plus_uconst 100] [$sp+0]
	.loc	2 0 13                          @ ../GUILib/src/extra/libs/qrcode/qrcodegen.c:0:13
	movs	r0, #0
.Ltmp20:
	@DEBUG_VALUE: calcSegmentBitLength:numChars <- $r5
	@DEBUG_VALUE: calcSegmentBitLength:mode <- 2
	@DEBUG_VALUE: qrcodegen_calcSegmentBufferSize:numChars <- $r5
	@DEBUG_VALUE: qrcodegen_calcSegmentBufferSize:mode <- 2
	.loc	2 838 6 is_stmt 1               @ ../GUILib/src/extra/libs/qrcode/qrcodegen.c:838:6
	cmp.w	r0, r5, lsr #15
	bne	.LBB0_9
.Ltmp21:
@ %bb.8:
	@DEBUG_VALUE: qrcodegen_encodeText:qrcode <- [DW_OP_plus_uconst 24] [$sp+0]
	@DEBUG_VALUE: qrcodegen_encodeText:ecl <- $r11
	@DEBUG_VALUE: qrcodegen_encodeText:bufLen <- $r10
	@DEBUG_VALUE: qrcodegen_encodeText:mask <- $r9
	@DEBUG_VALUE: qrcodegen_encodeText:tempBuffer <- $r7
	@DEBUG_VALUE: qrcodegen_encodeText:text <- $r6
	@DEBUG_VALUE: qrcodegen_calcSegmentBufferSize:numChars <- $r5
	@DEBUG_VALUE: calcSegmentBitLength:numChars <- $r5
	@DEBUG_VALUE: qrcodegen_encodeText:textLen <- $r5
	@DEBUG_VALUE: qrcodegen_encodeText:boostEcl <- [DW_OP_LLVM_convert 1 7, DW_OP_LLVM_convert 8 7, DW_OP_stack_value] $r4
	@DEBUG_VALUE: qrcodegen_encodeText:minVersion <- [DW_OP_plus_uconst 96] [$sp+0]
	@DEBUG_VALUE: qrcodegen_encodeText:maxVersion <- [DW_OP_plus_uconst 100] [$sp+0]
	@DEBUG_VALUE: qrcodegen_calcSegmentBufferSize:mode <- 2
	@DEBUG_VALUE: calcSegmentBitLength:mode <- 2
	@DEBUG_VALUE: calcSegmentBitLength:result <- $r5
	.loc	2 0 6 is_stmt 0                 @ ../GUILib/src/extra/libs/qrcode/qrcodegen.c:0:6
	movs	r1, #11
.Ltmp22:
	.loc	2 844 20 is_stmt 1              @ ../GUILib/src/extra/libs/qrcode/qrcodegen.c:844:20
	muls	r1, r5, r1
	.loc	2 844 25 is_stmt 0              @ ../GUILib/src/extra/libs/qrcode/qrcodegen.c:844:25
	adds	r1, #1
	.loc	2 844 30                        @ ../GUILib/src/extra/libs/qrcode/qrcodegen.c:844:30
	add.w	r1, r1, r1, lsr #31
	asrs	r1, r1, #1
.Ltmp23:
	@DEBUG_VALUE: calcSegmentBitLength:result <- $r1
	.loc	2 0 30                          @ ../GUILib/src/extra/libs/qrcode/qrcodegen.c:0:30
	cmp.w	r0, r1, lsr #15
	beq	.LBB0_18
.Ltmp24:
.LBB0_9:
	@DEBUG_VALUE: qrcodegen_encodeText:qrcode <- [DW_OP_plus_uconst 24] [$sp+0]
	@DEBUG_VALUE: qrcodegen_encodeText:ecl <- $r11
	@DEBUG_VALUE: qrcodegen_encodeText:bufLen <- $r10
	@DEBUG_VALUE: qrcodegen_encodeText:mask <- $r9
	@DEBUG_VALUE: qrcodegen_encodeText:tempBuffer <- $r7
	@DEBUG_VALUE: qrcodegen_encodeText:text <- $r6
	@DEBUG_VALUE: qrcodegen_calcSegmentBufferSize:numChars <- $r5
	@DEBUG_VALUE: calcSegmentBitLength:numChars <- $r5
	@DEBUG_VALUE: qrcodegen_encodeText:textLen <- $r5
	@DEBUG_VALUE: qrcodegen_encodeText:boostEcl <- [DW_OP_LLVM_convert 1 7, DW_OP_LLVM_convert 8 7, DW_OP_stack_value] $r4
	@DEBUG_VALUE: qrcodegen_encodeText:minVersion <- [DW_OP_plus_uconst 96] [$sp+0]
	@DEBUG_VALUE: qrcodegen_encodeText:maxVersion <- [DW_OP_plus_uconst 100] [$sp+0]
	@DEBUG_VALUE: qrcodegen_calcSegmentBufferSize:mode <- 2
	@DEBUG_VALUE: calcSegmentBitLength:mode <- 2
	mov.w	r0, #-1
	b	.LBB0_19
.Ltmp25:
.LBB0_10:
	@DEBUG_VALUE: qrcodegen_encodeText:qrcode <- [DW_OP_plus_uconst 24] [$sp+0]
	@DEBUG_VALUE: qrcodegen_encodeText:ecl <- $r11
	@DEBUG_VALUE: qrcodegen_encodeText:bufLen <- $r10
	@DEBUG_VALUE: qrcodegen_encodeText:mask <- $r9
	@DEBUG_VALUE: qrcodegen_encodeText:tempBuffer <- $r7
	@DEBUG_VALUE: qrcodegen_encodeText:text <- $r6
	@DEBUG_VALUE: qrcodegen_encodeText:textLen <- $r5
	@DEBUG_VALUE: qrcodegen_encodeText:boostEcl <- [DW_OP_LLVM_convert 1 7, DW_OP_LLVM_convert 8 7, DW_OP_stack_value] $r4
	@DEBUG_VALUE: qrcodegen_encodeText:minVersion <- [DW_OP_plus_uconst 96] [$sp+0]
	@DEBUG_VALUE: qrcodegen_encodeText:maxVersion <- [DW_OP_plus_uconst 100] [$sp+0]
	.loc	2 146 7 is_stmt 1               @ ../GUILib/src/extra/libs/qrcode/qrcodegen.c:146:7
	cmp	r5, r10
	ldr.w	r10, [sp, #24]                  @ 4-byte Reload
.Ltmp26:
	@DEBUG_VALUE: qrcodegen_encodeText:qrcode <- $r10
	bhi	.LBB0_20
.Ltmp27:
@ %bb.11:
	@DEBUG_VALUE: qrcodegen_encodeText:ecl <- $r11
	@DEBUG_VALUE: qrcodegen_encodeText:qrcode <- $r10
	@DEBUG_VALUE: qrcodegen_encodeText:mask <- $r9
	@DEBUG_VALUE: qrcodegen_encodeText:tempBuffer <- $r7
	@DEBUG_VALUE: qrcodegen_encodeText:text <- $r6
	@DEBUG_VALUE: qrcodegen_encodeText:textLen <- $r5
	@DEBUG_VALUE: qrcodegen_encodeText:boostEcl <- [DW_OP_LLVM_convert 1 7, DW_OP_LLVM_convert 8 7, DW_OP_stack_value] $r4
	@DEBUG_VALUE: qrcodegen_encodeText:minVersion <- [DW_OP_plus_uconst 96] [$sp+0]
	@DEBUG_VALUE: qrcodegen_encodeText:maxVersion <- [DW_OP_plus_uconst 100] [$sp+0]
	.loc	2 0 7 is_stmt 0                 @ ../GUILib/src/extra/libs/qrcode/qrcodegen.c:0:7
	movs	r0, #0
.Ltmp28:
	.p2align	2
.LBB0_12:                               @ =>This Inner Loop Header: Depth=1
	@DEBUG_VALUE: qrcodegen_encodeText:ecl <- $r11
	@DEBUG_VALUE: qrcodegen_encodeText:qrcode <- $r10
	@DEBUG_VALUE: qrcodegen_encodeText:mask <- $r9
	@DEBUG_VALUE: qrcodegen_encodeText:tempBuffer <- $r7
	@DEBUG_VALUE: qrcodegen_encodeText:text <- $r6
	@DEBUG_VALUE: qrcodegen_encodeText:textLen <- $r5
	@DEBUG_VALUE: qrcodegen_encodeText:boostEcl <- [DW_OP_LLVM_convert 1 7, DW_OP_LLVM_convert 8 7, DW_OP_stack_value] $r4
	@DEBUG_VALUE: qrcodegen_encodeText:minVersion <- [DW_OP_plus_uconst 96] [$sp+0]
	@DEBUG_VALUE: qrcodegen_encodeText:maxVersion <- [DW_OP_plus_uconst 100] [$sp+0]
	@DEBUG_VALUE: i <- $r0
	.loc	2 149 29 is_stmt 1              @ ../GUILib/src/extra/libs/qrcode/qrcodegen.c:149:29
	ldrb	r1, [r6, r0]
	.loc	2 149 18 is_stmt 0              @ ../GUILib/src/extra/libs/qrcode/qrcodegen.c:149:18
	strb	r1, [r7, r0]
	.loc	2 148 36 is_stmt 1              @ ../GUILib/src/extra/libs/qrcode/qrcodegen.c:148:36
	adds	r0, #1
.Ltmp29:
	@DEBUG_VALUE: i <- $r0
	.loc	2 148 3 is_stmt 0               @ ../GUILib/src/extra/libs/qrcode/qrcodegen.c:148:3
	cmp	r5, r0
	bne	.LBB0_12
.Ltmp30:
@ %bb.13:
	@DEBUG_VALUE: qrcodegen_encodeText:ecl <- $r11
	@DEBUG_VALUE: qrcodegen_encodeText:qrcode <- $r10
	@DEBUG_VALUE: qrcodegen_encodeText:mask <- $r9
	@DEBUG_VALUE: qrcodegen_encodeText:tempBuffer <- $r7
	@DEBUG_VALUE: qrcodegen_encodeText:text <- $r6
	@DEBUG_VALUE: qrcodegen_encodeText:textLen <- $r5
	@DEBUG_VALUE: qrcodegen_encodeText:boostEcl <- [DW_OP_LLVM_convert 1 7, DW_OP_LLVM_convert 8 7, DW_OP_stack_value] $r4
	@DEBUG_VALUE: qrcodegen_encodeText:minVersion <- [DW_OP_plus_uconst 96] [$sp+0]
	@DEBUG_VALUE: qrcodegen_encodeText:maxVersion <- [DW_OP_plus_uconst 100] [$sp+0]
	.loc	2 0 3                           @ ../GUILib/src/extra/libs/qrcode/qrcodegen.c:0:3
	movs	r1, #0
.Ltmp31:
	@DEBUG_VALUE: calcSegmentBitLength:result <- [DW_OP_constu 3, DW_OP_shl, DW_OP_stack_value] $r5
	@DEBUG_VALUE: calcSegmentBitLength:numChars <- $r5
	@DEBUG_VALUE: calcSegmentBitLength:mode <- 4
	movs	r0, #4
.Ltmp32:
	.loc	2 838 6 is_stmt 1               @ ../GUILib/src/extra/libs/qrcode/qrcodegen.c:838:6
	cmp.w	r1, r5, lsr #12
.Ltmp33:
	.loc	2 150 12                        @ ../GUILib/src/extra/libs/qrcode/qrcodegen.c:150:12
	strb.w	r0, [sp, #44]
	@DEBUG_VALUE: calcSegmentBitLength:mode <- 4
	@DEBUG_VALUE: calcSegmentBitLength:numChars <- $r5
	@DEBUG_VALUE: calcSegmentBitLength:result <- [DW_OP_constu 3, DW_OP_shl, DW_OP_stack_value] $r5
.Ltmp34:
	.loc	2 838 6                         @ ../GUILib/src/extra/libs/qrcode/qrcodegen.c:838:6
	bne	.LBB0_20
.Ltmp35:
@ %bb.14:
	@DEBUG_VALUE: qrcodegen_encodeText:ecl <- $r11
	@DEBUG_VALUE: qrcodegen_encodeText:qrcode <- $r10
	@DEBUG_VALUE: qrcodegen_encodeText:mask <- $r9
	@DEBUG_VALUE: qrcodegen_encodeText:tempBuffer <- $r7
	@DEBUG_VALUE: qrcodegen_encodeText:text <- $r6
	@DEBUG_VALUE: qrcodegen_encodeText:textLen <- $r5
	@DEBUG_VALUE: qrcodegen_encodeText:boostEcl <- [DW_OP_LLVM_convert 1 7, DW_OP_LLVM_convert 8 7, DW_OP_stack_value] $r4
	@DEBUG_VALUE: qrcodegen_encodeText:minVersion <- [DW_OP_plus_uconst 96] [$sp+0]
	@DEBUG_VALUE: qrcodegen_encodeText:maxVersion <- [DW_OP_plus_uconst 100] [$sp+0]
	.loc	2 0 6 is_stmt 0                 @ ../GUILib/src/extra/libs/qrcode/qrcodegen.c:0:6
	lsls	r0, r5, #3
	@DEBUG_VALUE: calcSegmentBitLength:result <- $r0
	.loc	2 151 17 is_stmt 1              @ ../GUILib/src/extra/libs/qrcode/qrcodegen.c:151:17
	str	r0, [sp, #56]
	.loc	2 154 16                        @ ../GUILib/src/extra/libs/qrcode/qrcodegen.c:154:16
	strd	r5, r7, [sp, #48]
	b	.LBB0_23
.Ltmp36:
.LBB0_15:
	@DEBUG_VALUE: qrcodegen_encodeText:qrcode <- [DW_OP_plus_uconst 24] [$sp+0]
	@DEBUG_VALUE: qrcodegen_encodeText:ecl <- $r11
	@DEBUG_VALUE: qrcodegen_encodeText:bufLen <- $r10
	@DEBUG_VALUE: qrcodegen_encodeText:mask <- $r9
	@DEBUG_VALUE: qrcodegen_encodeText:tempBuffer <- $r7
	@DEBUG_VALUE: qrcodegen_encodeText:text <- $r6
	@DEBUG_VALUE: qrcodegen_calcSegmentBufferSize:numChars <- $r5
	@DEBUG_VALUE: qrcodegen_encodeText:textLen <- $r5
	@DEBUG_VALUE: qrcodegen_encodeText:boostEcl <- [DW_OP_LLVM_convert 1 7, DW_OP_LLVM_convert 8 7, DW_OP_stack_value] $r4
	@DEBUG_VALUE: qrcodegen_encodeText:minVersion <- [DW_OP_plus_uconst 96] [$sp+0]
	@DEBUG_VALUE: qrcodegen_encodeText:maxVersion <- [DW_OP_plus_uconst 100] [$sp+0]
	@DEBUG_VALUE: qrcodegen_calcSegmentBufferSize:mode <- 1
	@DEBUG_VALUE: qrcodegen_calcSegmentBufferSize:temp <- $r1
	.loc	2 821 6                         @ ../GUILib/src/extra/libs/qrcode/qrcodegen.c:821:6
	adds	r0, r1, #7
	lsrs	r0, r0, #3
.Ltmp37:
.LBB0_16:
	@DEBUG_VALUE: qrcodegen_encodeText:qrcode <- [DW_OP_plus_uconst 24] [$sp+0]
	@DEBUG_VALUE: qrcodegen_encodeText:ecl <- $r11
	@DEBUG_VALUE: qrcodegen_encodeText:bufLen <- $r10
	@DEBUG_VALUE: qrcodegen_encodeText:mask <- $r9
	@DEBUG_VALUE: qrcodegen_encodeText:tempBuffer <- $r7
	@DEBUG_VALUE: qrcodegen_encodeText:text <- $r6
	@DEBUG_VALUE: qrcodegen_encodeText:textLen <- $r5
	@DEBUG_VALUE: qrcodegen_encodeText:boostEcl <- [DW_OP_LLVM_convert 1 7, DW_OP_LLVM_convert 8 7, DW_OP_stack_value] $r4
	@DEBUG_VALUE: qrcodegen_encodeText:minVersion <- [DW_OP_plus_uconst 96] [$sp+0]
	@DEBUG_VALUE: qrcodegen_encodeText:maxVersion <- [DW_OP_plus_uconst 100] [$sp+0]
	.loc	2 138 7                         @ ../GUILib/src/extra/libs/qrcode/qrcodegen.c:138:7
	cmp	r0, r10
	ldr.w	r10, [sp, #24]                  @ 4-byte Reload
.Ltmp38:
	@DEBUG_VALUE: qrcodegen_encodeText:qrcode <- $r10
	bhi	.LBB0_20
.Ltmp39:
@ %bb.17:
	@DEBUG_VALUE: qrcodegen_encodeText:ecl <- $r11
	@DEBUG_VALUE: qrcodegen_encodeText:qrcode <- $r10
	@DEBUG_VALUE: qrcodegen_encodeText:mask <- $r9
	@DEBUG_VALUE: qrcodegen_encodeText:tempBuffer <- $r7
	@DEBUG_VALUE: qrcodegen_encodeText:text <- $r6
	@DEBUG_VALUE: qrcodegen_encodeText:textLen <- $r5
	@DEBUG_VALUE: qrcodegen_encodeText:boostEcl <- [DW_OP_LLVM_convert 1 7, DW_OP_LLVM_convert 8 7, DW_OP_stack_value] $r4
	@DEBUG_VALUE: qrcodegen_encodeText:minVersion <- [DW_OP_plus_uconst 96] [$sp+0]
	@DEBUG_VALUE: qrcodegen_encodeText:maxVersion <- [DW_OP_plus_uconst 100] [$sp+0]
	.loc	2 0 7 is_stmt 0                 @ ../GUILib/src/extra/libs/qrcode/qrcodegen.c:0:7
	add	r0, sp, #28
	.loc	2 140 9 is_stmt 1               @ ../GUILib/src/extra/libs/qrcode/qrcodegen.c:140:9
	mov	r1, r6
	mov	r2, r7
	bl	qrcodegen_makeNumeric
.Ltmp40:
	.loc	2 0 9 is_stmt 0                 @ ../GUILib/src/extra/libs/qrcode/qrcodegen.c:0:9
	b	.LBB0_22
.Ltmp41:
.LBB0_18:
	@DEBUG_VALUE: qrcodegen_encodeText:qrcode <- [DW_OP_plus_uconst 24] [$sp+0]
	@DEBUG_VALUE: qrcodegen_encodeText:ecl <- $r11
	@DEBUG_VALUE: qrcodegen_encodeText:bufLen <- $r10
	@DEBUG_VALUE: qrcodegen_encodeText:mask <- $r9
	@DEBUG_VALUE: qrcodegen_encodeText:tempBuffer <- $r7
	@DEBUG_VALUE: qrcodegen_encodeText:text <- $r6
	@DEBUG_VALUE: qrcodegen_calcSegmentBufferSize:numChars <- $r5
	@DEBUG_VALUE: qrcodegen_encodeText:textLen <- $r5
	@DEBUG_VALUE: qrcodegen_encodeText:boostEcl <- [DW_OP_LLVM_convert 1 7, DW_OP_LLVM_convert 8 7, DW_OP_stack_value] $r4
	@DEBUG_VALUE: qrcodegen_encodeText:minVersion <- [DW_OP_plus_uconst 96] [$sp+0]
	@DEBUG_VALUE: qrcodegen_encodeText:maxVersion <- [DW_OP_plus_uconst 100] [$sp+0]
	@DEBUG_VALUE: qrcodegen_calcSegmentBufferSize:mode <- 2
	@DEBUG_VALUE: qrcodegen_calcSegmentBufferSize:temp <- $r1
	.loc	2 821 6 is_stmt 1               @ ../GUILib/src/extra/libs/qrcode/qrcodegen.c:821:6
	adds	r0, r1, #7
	lsrs	r0, r0, #3
.Ltmp42:
.LBB0_19:
	@DEBUG_VALUE: qrcodegen_encodeText:qrcode <- [DW_OP_plus_uconst 24] [$sp+0]
	@DEBUG_VALUE: qrcodegen_encodeText:ecl <- $r11
	@DEBUG_VALUE: qrcodegen_encodeText:bufLen <- $r10
	@DEBUG_VALUE: qrcodegen_encodeText:mask <- $r9
	@DEBUG_VALUE: qrcodegen_encodeText:tempBuffer <- $r7
	@DEBUG_VALUE: qrcodegen_encodeText:text <- $r6
	@DEBUG_VALUE: qrcodegen_encodeText:textLen <- $r5
	@DEBUG_VALUE: qrcodegen_encodeText:boostEcl <- [DW_OP_LLVM_convert 1 7, DW_OP_LLVM_convert 8 7, DW_OP_stack_value] $r4
	@DEBUG_VALUE: qrcodegen_encodeText:minVersion <- [DW_OP_plus_uconst 96] [$sp+0]
	@DEBUG_VALUE: qrcodegen_encodeText:maxVersion <- [DW_OP_plus_uconst 100] [$sp+0]
	.loc	2 142 7                         @ ../GUILib/src/extra/libs/qrcode/qrcodegen.c:142:7
	cmp	r0, r10
	ldr.w	r10, [sp, #24]                  @ 4-byte Reload
.Ltmp43:
	@DEBUG_VALUE: qrcodegen_encodeText:qrcode <- $r10
	bls	.LBB0_21
.Ltmp44:
.LBB0_20:
	@DEBUG_VALUE: qrcodegen_encodeText:ecl <- $r11
	@DEBUG_VALUE: qrcodegen_encodeText:qrcode <- $r10
	@DEBUG_VALUE: qrcodegen_encodeText:mask <- $r9
	@DEBUG_VALUE: qrcodegen_encodeText:tempBuffer <- $r7
	@DEBUG_VALUE: qrcodegen_encodeText:text <- $r6
	@DEBUG_VALUE: qrcodegen_encodeText:textLen <- $r5
	@DEBUG_VALUE: qrcodegen_encodeText:boostEcl <- [DW_OP_LLVM_convert 1 7, DW_OP_LLVM_convert 8 7, DW_OP_stack_value] $r4
	@DEBUG_VALUE: qrcodegen_encodeText:minVersion <- [DW_OP_plus_uconst 96] [$sp+0]
	@DEBUG_VALUE: qrcodegen_encodeText:maxVersion <- [DW_OP_plus_uconst 100] [$sp+0]
	@DEBUG_LABEL: qrcodegen_encodeText:fail
	.loc	2 0 7 is_stmt 0                 @ ../GUILib/src/extra/libs/qrcode/qrcodegen.c:0:7
	movs	r0, #0
	.loc	2 160 12 is_stmt 1              @ ../GUILib/src/extra/libs/qrcode/qrcodegen.c:160:12
	strb.w	r0, [r10]
	b	.LBB0_25
.Ltmp45:
.LBB0_21:
	@DEBUG_VALUE: qrcodegen_encodeText:ecl <- $r11
	@DEBUG_VALUE: qrcodegen_encodeText:qrcode <- $r10
	@DEBUG_VALUE: qrcodegen_encodeText:mask <- $r9
	@DEBUG_VALUE: qrcodegen_encodeText:tempBuffer <- $r7
	@DEBUG_VALUE: qrcodegen_encodeText:text <- $r6
	@DEBUG_VALUE: qrcodegen_encodeText:textLen <- $r5
	@DEBUG_VALUE: qrcodegen_encodeText:boostEcl <- [DW_OP_LLVM_convert 1 7, DW_OP_LLVM_convert 8 7, DW_OP_stack_value] $r4
	@DEBUG_VALUE: qrcodegen_encodeText:minVersion <- [DW_OP_plus_uconst 96] [$sp+0]
	@DEBUG_VALUE: qrcodegen_encodeText:maxVersion <- [DW_OP_plus_uconst 100] [$sp+0]
	.loc	2 0 12 is_stmt 0                @ ../GUILib/src/extra/libs/qrcode/qrcodegen.c:0:12
	add	r0, sp, #28
.Ltmp46:
	.loc	2 144 9 is_stmt 1               @ ../GUILib/src/extra/libs/qrcode/qrcodegen.c:144:9
	mov	r1, r6
	mov	r2, r7
	bl	qrcodegen_makeAlphanumeric
.Ltmp47:
.LBB0_22:
	@DEBUG_VALUE: qrcodegen_encodeText:ecl <- $r11
	@DEBUG_VALUE: qrcodegen_encodeText:qrcode <- $r10
	@DEBUG_VALUE: qrcodegen_encodeText:mask <- $r9
	@DEBUG_VALUE: qrcodegen_encodeText:tempBuffer <- $r7
	@DEBUG_VALUE: qrcodegen_encodeText:text <- $r6
	@DEBUG_VALUE: qrcodegen_encodeText:textLen <- $r5
	@DEBUG_VALUE: qrcodegen_encodeText:boostEcl <- [DW_OP_LLVM_convert 1 7, DW_OP_LLVM_convert 8 7, DW_OP_stack_value] $r4
	@DEBUG_VALUE: qrcodegen_encodeText:minVersion <- [DW_OP_plus_uconst 96] [$sp+0]
	@DEBUG_VALUE: qrcodegen_encodeText:maxVersion <- [DW_OP_plus_uconst 100] [$sp+0]
	.loc	2 0 0 is_stmt 0                 @ ../GUILib/src/extra/libs/qrcode/qrcodegen.c:0:0
	ldr	r0, [sp, #28]
	ldr	r1, [sp, #32]
	ldr	r2, [sp, #36]
	ldr	r3, [sp, #40]
	str	r0, [sp, #44]
	str	r1, [sp, #48]
	str	r2, [sp, #52]
	str	r3, [sp, #56]
.Ltmp48:
.LBB0_23:
	@DEBUG_VALUE: qrcodegen_encodeText:ecl <- $r11
	@DEBUG_VALUE: qrcodegen_encodeText:qrcode <- $r10
	@DEBUG_VALUE: qrcodegen_encodeText:mask <- $r9
	@DEBUG_VALUE: qrcodegen_encodeText:tempBuffer <- $r7
	@DEBUG_VALUE: qrcodegen_encodeText:text <- $r6
	@DEBUG_VALUE: qrcodegen_encodeText:textLen <- $r5
	@DEBUG_VALUE: qrcodegen_encodeText:boostEcl <- [DW_OP_LLVM_convert 1 7, DW_OP_LLVM_convert 8 7, DW_OP_stack_value] $r4
	@DEBUG_VALUE: qrcodegen_encodeText:minVersion <- [DW_OP_plus_uconst 96] [$sp+0]
	@DEBUG_VALUE: qrcodegen_encodeText:maxVersion <- [DW_OP_plus_uconst 100] [$sp+0]
	.loc	2 157 9 is_stmt 1               @ ../GUILib/src/extra/libs/qrcode/qrcodegen.c:157:9
	ldr	r0, [sp, #104]
	add	r1, sp, #4
	str.w	r8, [sp]
	stm	r1!, {r0, r4, r7}
	add	r0, sp, #44
	movs	r1, #1
.Ltmp49:
.LBB0_24:
	@DEBUG_VALUE: qrcodegen_encodeText:ecl <- $r11
	@DEBUG_VALUE: qrcodegen_encodeText:qrcode <- $r10
	@DEBUG_VALUE: qrcodegen_encodeText:mask <- $r9
	@DEBUG_VALUE: qrcodegen_encodeText:tempBuffer <- $r7
	@DEBUG_VALUE: qrcodegen_encodeText:text <- $r6
	@DEBUG_VALUE: qrcodegen_encodeText:boostEcl <- [DW_OP_LLVM_convert 1 7, DW_OP_LLVM_convert 8 7, DW_OP_stack_value] $r4
	@DEBUG_VALUE: qrcodegen_encodeText:minVersion <- [DW_OP_plus_uconst 96] [$sp+0]
	@DEBUG_VALUE: qrcodegen_encodeText:maxVersion <- [DW_OP_plus_uconst 100] [$sp+0]
	.loc	2 0 0 is_stmt 0                 @ ../GUILib/src/extra/libs/qrcode/qrcodegen.c:0:0
	ldr	r3, [sp, #96]
	mov	r2, r11
	str.w	r10, [sp, #16]
	bl	qrcodegen_encodeSegmentsAdvanced
.Ltmp50:
.LBB0_25:
	@DEBUG_VALUE: qrcodegen_encodeText:ecl <- $r11
	@DEBUG_VALUE: qrcodegen_encodeText:qrcode <- $r10
	@DEBUG_VALUE: qrcodegen_encodeText:mask <- $r9
	@DEBUG_VALUE: qrcodegen_encodeText:tempBuffer <- $r7
	@DEBUG_VALUE: qrcodegen_encodeText:text <- $r6
	@DEBUG_VALUE: qrcodegen_encodeText:boostEcl <- [DW_OP_LLVM_convert 1 7, DW_OP_LLVM_convert 8 7, DW_OP_stack_value] $r4
	@DEBUG_VALUE: qrcodegen_encodeText:minVersion <- [DW_OP_plus_uconst 96] [$sp+0]
	@DEBUG_VALUE: qrcodegen_encodeText:maxVersion <- [DW_OP_plus_uconst 100] [$sp+0]
	.loc	2 162 1 is_stmt 1               @ ../GUILib/src/extra/libs/qrcode/qrcodegen.c:162:1
	add	sp, #60
	pop.w	{r4, r5, r6, r7, r8, r9, r10, r11, pc}
.Ltmp51:
.Lfunc_end0:
	.size	qrcodegen_encodeText, .Lfunc_end0-qrcodegen_encodeText
	.cfi_endproc
	.cantunwind
	.fnend
                                        @ -- End function
	.section	.text.qrcodegen_encodeSegmentsAdvanced,"ax",%progbits
	.hidden	qrcodegen_encodeSegmentsAdvanced @ -- Begin function qrcodegen_encodeSegmentsAdvanced
	.globl	qrcodegen_encodeSegmentsAdvanced
	.p2align	2
	.type	qrcodegen_encodeSegmentsAdvanced,%function
	.code	16                              @ @qrcodegen_encodeSegmentsAdvanced
	.thumb_func
qrcodegen_encodeSegmentsAdvanced:
.Lfunc_begin1:
	.loc	2 204 0                         @ ../GUILib/src/extra/libs/qrcode/qrcodegen.c:204:0
	.fnstart
	.cfi_startproc
@ %bb.0:
	@DEBUG_VALUE: qrcodegen_encodeSegmentsAdvanced:segs <- $r0
	@DEBUG_VALUE: qrcodegen_encodeSegmentsAdvanced:len <- $r1
	@DEBUG_VALUE: qrcodegen_encodeSegmentsAdvanced:ecl <- $r2
	@DEBUG_VALUE: qrcodegen_encodeSegmentsAdvanced:minVersion <- $r3
	.save	{r4, r5, r6, r7, r8, r9, r10, r11, lr}
	push.w	{r4, r5, r6, r7, r8, r9, r10, r11, lr}
	.cfi_def_cfa_offset 36
	.cfi_offset lr, -4
	.cfi_offset r11, -8
	.cfi_offset r10, -12
	.cfi_offset r9, -16
	.cfi_offset r8, -20
	.cfi_offset r7, -24
	.cfi_offset r6, -28
	.cfi_offset r5, -32
	.cfi_offset r4, -36
	.pad	#92
	sub	sp, #92
	.cfi_def_cfa_offset 128
	mov	r5, r1
.Ltmp52:
	@DEBUG_VALUE: qrcodegen_encodeSegmentsAdvanced:len <- $r5
	@DEBUG_VALUE: qrcodegen_encodeSegmentsAdvanced:len <- $r5
	str	r2, [sp, #52]                   @ 4-byte Spill
.Ltmp53:
	@DEBUG_VALUE: qrcodegen_encodeSegmentsAdvanced:ecl <- [DW_OP_plus_uconst 52] [$sp+0]
	@DEBUG_VALUE: qrcodegen_encodeSegmentsAdvanced:boostEcl <- [DW_OP_LLVM_convert 1 7, DW_OP_LLVM_convert 8 7, DW_OP_stack_value] undef
	str	r0, [sp, #36]                   @ 4-byte Spill
.Ltmp54:
	@DEBUG_VALUE: qrcodegen_encodeSegmentsAdvanced:segs <- [DW_OP_plus_uconst 36] [$sp+0]
	@DEBUG_VALUE: qrcodegen_encodeSegmentsAdvanced:qrcode <- [DW_OP_plus_uconst 144] [$sp+0]
	@DEBUG_VALUE: qrcodegen_encodeSegmentsAdvanced:tempBuffer <- [DW_OP_plus_uconst 140] [$sp+0]
	@DEBUG_VALUE: qrcodegen_encodeSegmentsAdvanced:mask <- [DW_OP_plus_uconst 132] [$sp+0]
	@DEBUG_VALUE: qrcodegen_encodeSegmentsAdvanced:maxVersion <- [DW_OP_plus_uconst 128] [$sp+0]
	@DEBUG_VALUE: qrcodegen_encodeSegmentsAdvanced:minVersion <- $r3
	@DEBUG_VALUE: qrcodegen_encodeSegmentsAdvanced:ecl <- [DW_OP_plus_uconst 52] [$sp+0]
	@DEBUG_VALUE: qrcodegen_encodeSegmentsAdvanced:segs <- [DW_OP_plus_uconst 36] [$sp+0]
	.loc	2 205 2 prologue_end            @ ../GUILib/src/extra/libs/qrcode/qrcodegen.c:205:2
	cbnz	r0, .LBB1_2
.Ltmp55:
@ %bb.1:
	@DEBUG_VALUE: qrcodegen_encodeSegmentsAdvanced:len <- $r5
	@DEBUG_VALUE: qrcodegen_encodeSegmentsAdvanced:minVersion <- $r3
	@DEBUG_VALUE: qrcodegen_encodeSegmentsAdvanced:segs <- [DW_OP_plus_uconst 36] [$sp+0]
	@DEBUG_VALUE: qrcodegen_encodeSegmentsAdvanced:ecl <- [DW_OP_plus_uconst 52] [$sp+0]
	@DEBUG_VALUE: qrcodegen_encodeSegmentsAdvanced:maxVersion <- [DW_OP_plus_uconst 128] [$sp+0]
	@DEBUG_VALUE: qrcodegen_encodeSegmentsAdvanced:mask <- [DW_OP_plus_uconst 132] [$sp+0]
	@DEBUG_VALUE: qrcodegen_encodeSegmentsAdvanced:tempBuffer <- [DW_OP_plus_uconst 140] [$sp+0]
	@DEBUG_VALUE: qrcodegen_encodeSegmentsAdvanced:qrcode <- [DW_OP_plus_uconst 144] [$sp+0]
	cmp	r5, #0
	bne.w	.LBB1_200
.Ltmp56:
.LBB1_2:
	@DEBUG_VALUE: qrcodegen_encodeSegmentsAdvanced:len <- $r5
	@DEBUG_VALUE: qrcodegen_encodeSegmentsAdvanced:minVersion <- $r3
	@DEBUG_VALUE: qrcodegen_encodeSegmentsAdvanced:segs <- [DW_OP_plus_uconst 36] [$sp+0]
	@DEBUG_VALUE: qrcodegen_encodeSegmentsAdvanced:ecl <- [DW_OP_plus_uconst 52] [$sp+0]
	@DEBUG_VALUE: qrcodegen_encodeSegmentsAdvanced:maxVersion <- [DW_OP_plus_uconst 128] [$sp+0]
	@DEBUG_VALUE: qrcodegen_encodeSegmentsAdvanced:mask <- [DW_OP_plus_uconst 132] [$sp+0]
	@DEBUG_VALUE: qrcodegen_encodeSegmentsAdvanced:tempBuffer <- [DW_OP_plus_uconst 140] [$sp+0]
	@DEBUG_VALUE: qrcodegen_encodeSegmentsAdvanced:qrcode <- [DW_OP_plus_uconst 144] [$sp+0]
	@DEBUG_VALUE: qrcodegen_encodeSegmentsAdvanced:ecl <- [DW_OP_plus_uconst 52] [$sp+0]
	@DEBUG_VALUE: qrcodegen_encodeSegmentsAdvanced:boostEcl <- [DW_OP_LLVM_convert 1 7, DW_OP_LLVM_convert 8 7, DW_OP_stack_value] undef
	.loc	2 206 2                         @ ../GUILib/src/extra/libs/qrcode/qrcodegen.c:206:2
	cmp	r3, #1
	blt.w	.LBB1_199
.Ltmp57:
@ %bb.3:
	@DEBUG_VALUE: qrcodegen_encodeSegmentsAdvanced:len <- $r5
	@DEBUG_VALUE: qrcodegen_encodeSegmentsAdvanced:minVersion <- $r3
	@DEBUG_VALUE: qrcodegen_encodeSegmentsAdvanced:segs <- [DW_OP_plus_uconst 36] [$sp+0]
	@DEBUG_VALUE: qrcodegen_encodeSegmentsAdvanced:ecl <- [DW_OP_plus_uconst 52] [$sp+0]
	@DEBUG_VALUE: qrcodegen_encodeSegmentsAdvanced:maxVersion <- [DW_OP_plus_uconst 128] [$sp+0]
	@DEBUG_VALUE: qrcodegen_encodeSegmentsAdvanced:mask <- [DW_OP_plus_uconst 132] [$sp+0]
	@DEBUG_VALUE: qrcodegen_encodeSegmentsAdvanced:tempBuffer <- [DW_OP_plus_uconst 140] [$sp+0]
	@DEBUG_VALUE: qrcodegen_encodeSegmentsAdvanced:qrcode <- [DW_OP_plus_uconst 144] [$sp+0]
	@DEBUG_VALUE: qrcodegen_encodeSegmentsAdvanced:boostEcl <- [DW_OP_LLVM_convert 1 7, DW_OP_LLVM_convert 8 7, DW_OP_stack_value] undef
	.loc	2 0 2 is_stmt 0                 @ ../GUILib/src/extra/libs/qrcode/qrcodegen.c:0:2
	ldr	r0, [sp, #128]
	@DEBUG_VALUE: qrcodegen_encodeSegmentsAdvanced:ecl <- [DW_OP_plus_uconst 52] [$sp+0]
	.loc	2 206 2                         @ ../GUILib/src/extra/libs/qrcode/qrcodegen.c:206:2
	cmp	r3, r0
	bgt.w	.LBB1_199
.Ltmp58:
@ %bb.4:
	@DEBUG_VALUE: qrcodegen_encodeSegmentsAdvanced:len <- $r5
	@DEBUG_VALUE: qrcodegen_encodeSegmentsAdvanced:minVersion <- $r3
	@DEBUG_VALUE: qrcodegen_encodeSegmentsAdvanced:segs <- [DW_OP_plus_uconst 36] [$sp+0]
	@DEBUG_VALUE: qrcodegen_encodeSegmentsAdvanced:ecl <- [DW_OP_plus_uconst 52] [$sp+0]
	@DEBUG_VALUE: qrcodegen_encodeSegmentsAdvanced:maxVersion <- [DW_OP_plus_uconst 128] [$sp+0]
	@DEBUG_VALUE: qrcodegen_encodeSegmentsAdvanced:mask <- [DW_OP_plus_uconst 132] [$sp+0]
	@DEBUG_VALUE: qrcodegen_encodeSegmentsAdvanced:tempBuffer <- [DW_OP_plus_uconst 140] [$sp+0]
	@DEBUG_VALUE: qrcodegen_encodeSegmentsAdvanced:qrcode <- [DW_OP_plus_uconst 144] [$sp+0]
	@DEBUG_VALUE: qrcodegen_encodeSegmentsAdvanced:ecl <- [DW_OP_plus_uconst 52] [$sp+0]
	@DEBUG_VALUE: qrcodegen_encodeSegmentsAdvanced:boostEcl <- [DW_OP_LLVM_convert 1 7, DW_OP_LLVM_convert 8 7, DW_OP_stack_value] undef
	cmp	r0, #41
	bge.w	.LBB1_199
.Ltmp59:
@ %bb.5:
	@DEBUG_VALUE: qrcodegen_encodeSegmentsAdvanced:len <- $r5
	@DEBUG_VALUE: qrcodegen_encodeSegmentsAdvanced:minVersion <- $r3
	@DEBUG_VALUE: qrcodegen_encodeSegmentsAdvanced:segs <- [DW_OP_plus_uconst 36] [$sp+0]
	@DEBUG_VALUE: qrcodegen_encodeSegmentsAdvanced:ecl <- [DW_OP_plus_uconst 52] [$sp+0]
	@DEBUG_VALUE: qrcodegen_encodeSegmentsAdvanced:maxVersion <- [DW_OP_plus_uconst 128] [$sp+0]
	@DEBUG_VALUE: qrcodegen_encodeSegmentsAdvanced:mask <- [DW_OP_plus_uconst 132] [$sp+0]
	@DEBUG_VALUE: qrcodegen_encodeSegmentsAdvanced:tempBuffer <- [DW_OP_plus_uconst 140] [$sp+0]
	@DEBUG_VALUE: qrcodegen_encodeSegmentsAdvanced:qrcode <- [DW_OP_plus_uconst 144] [$sp+0]
	@DEBUG_VALUE: qrcodegen_encodeSegmentsAdvanced:ecl <- [DW_OP_plus_uconst 52] [$sp+0]
	@DEBUG_VALUE: qrcodegen_encodeSegmentsAdvanced:boostEcl <- [DW_OP_LLVM_convert 1 7, DW_OP_LLVM_convert 8 7, DW_OP_stack_value] undef
	.loc	2 207 2 is_stmt 1               @ ../GUILib/src/extra/libs/qrcode/qrcodegen.c:207:2
	ldr	r0, [sp, #52]                   @ 4-byte Reload
.Ltmp60:
	@DEBUG_VALUE: qrcodegen_encodeSegmentsAdvanced:ecl <- $r0
	cmp	r0, #3
.Ltmp61:
	@DEBUG_VALUE: qrcodegen_encodeSegmentsAdvanced:ecl <- [DW_OP_plus_uconst 52] [$sp+0]
	bhi.w	.LBB1_201
.Ltmp62:
@ %bb.6:
	@DEBUG_VALUE: qrcodegen_encodeSegmentsAdvanced:len <- $r5
	@DEBUG_VALUE: qrcodegen_encodeSegmentsAdvanced:minVersion <- $r3
	@DEBUG_VALUE: qrcodegen_encodeSegmentsAdvanced:segs <- [DW_OP_plus_uconst 36] [$sp+0]
	@DEBUG_VALUE: qrcodegen_encodeSegmentsAdvanced:ecl <- [DW_OP_plus_uconst 52] [$sp+0]
	@DEBUG_VALUE: qrcodegen_encodeSegmentsAdvanced:maxVersion <- [DW_OP_plus_uconst 128] [$sp+0]
	@DEBUG_VALUE: qrcodegen_encodeSegmentsAdvanced:mask <- [DW_OP_plus_uconst 132] [$sp+0]
	@DEBUG_VALUE: qrcodegen_encodeSegmentsAdvanced:tempBuffer <- [DW_OP_plus_uconst 140] [$sp+0]
	@DEBUG_VALUE: qrcodegen_encodeSegmentsAdvanced:qrcode <- [DW_OP_plus_uconst 144] [$sp+0]
	@DEBUG_VALUE: qrcodegen_encodeSegmentsAdvanced:boostEcl <- [DW_OP_LLVM_convert 1 7, DW_OP_LLVM_convert 8 7, DW_OP_stack_value] undef
	.loc	2 0 2 is_stmt 0                 @ ../GUILib/src/extra/libs/qrcode/qrcodegen.c:0:2
	ldr	r0, [sp, #132]
	@DEBUG_VALUE: qrcodegen_encodeSegmentsAdvanced:ecl <- [DW_OP_plus_uconst 52] [$sp+0]
	.loc	2 207 2                         @ ../GUILib/src/extra/libs/qrcode/qrcodegen.c:207:2
	adds	r0, #1
	cmp	r0, #8
	bhi.w	.LBB1_201
.Ltmp63:
@ %bb.7:
	@DEBUG_VALUE: qrcodegen_encodeSegmentsAdvanced:len <- $r5
	@DEBUG_VALUE: qrcodegen_encodeSegmentsAdvanced:minVersion <- $r3
	@DEBUG_VALUE: qrcodegen_encodeSegmentsAdvanced:segs <- [DW_OP_plus_uconst 36] [$sp+0]
	@DEBUG_VALUE: qrcodegen_encodeSegmentsAdvanced:ecl <- [DW_OP_plus_uconst 52] [$sp+0]
	@DEBUG_VALUE: qrcodegen_encodeSegmentsAdvanced:maxVersion <- [DW_OP_plus_uconst 128] [$sp+0]
	@DEBUG_VALUE: qrcodegen_encodeSegmentsAdvanced:mask <- [DW_OP_plus_uconst 132] [$sp+0]
	@DEBUG_VALUE: qrcodegen_encodeSegmentsAdvanced:tempBuffer <- [DW_OP_plus_uconst 140] [$sp+0]
	@DEBUG_VALUE: qrcodegen_encodeSegmentsAdvanced:qrcode <- [DW_OP_plus_uconst 144] [$sp+0]
	.loc	2 0 2                           @ ../GUILib/src/extra/libs/qrcode/qrcodegen.c:0:2
	str	r0, [sp]                        @ 4-byte Spill
.Ltmp64:
	.loc	2 211 2 is_stmt 1               @ ../GUILib/src/extra/libs/qrcode/qrcodegen.c:211:2
	ldr	r0, [sp, #36]                   @ 4-byte Reload
	ldr.w	r11, [sp, #144]
.Ltmp65:
	@DEBUG_VALUE: qrcodegen_encodeSegmentsAdvanced:boostEcl <- [DW_OP_LLVM_convert 1 7, DW_OP_LLVM_convert 8 7, DW_OP_stack_value] undef
	@DEBUG_VALUE: qrcodegen_encodeSegmentsAdvanced:ecl <- [DW_OP_plus_uconst 52] [$sp+0]
	adds	r0, #12
	movs	r7, #1
	str	r0, [sp, #40]                   @ 4-byte Spill
	mov	r0, r5
	str	r5, [sp, #48]                   @ 4-byte Spill
.Ltmp66:
	.p2align	2
.LBB1_8:                                @ =>This Loop Header: Depth=1
                                        @     Child Loop BB1_10 Depth 2
	@DEBUG_VALUE: qrcodegen_encodeSegmentsAdvanced:segs <- [DW_OP_plus_uconst 36] [$sp+0]
	@DEBUG_VALUE: qrcodegen_encodeSegmentsAdvanced:ecl <- [DW_OP_plus_uconst 52] [$sp+0]
	@DEBUG_VALUE: qrcodegen_encodeSegmentsAdvanced:maxVersion <- [DW_OP_plus_uconst 128] [$sp+0]
	@DEBUG_VALUE: qrcodegen_encodeSegmentsAdvanced:mask <- [DW_OP_plus_uconst 132] [$sp+0]
	@DEBUG_VALUE: qrcodegen_encodeSegmentsAdvanced:tempBuffer <- [DW_OP_plus_uconst 140] [$sp+0]
	@DEBUG_VALUE: qrcodegen_encodeSegmentsAdvanced:qrcode <- [DW_OP_plus_uconst 144] [$sp+0]
	@DEBUG_VALUE: qrcodegen_encodeSegmentsAdvanced:version <- $r3
	.loc	2 212 26                        @ ../GUILib/src/extra/libs/qrcode/qrcodegen.c:212:26
	ldr	r1, [sp, #52]                   @ 4-byte Reload
	mov	r0, r3
	str	r3, [sp, #44]                   @ 4-byte Spill
.Ltmp67:
	@DEBUG_VALUE: qrcodegen_encodeSegmentsAdvanced:version <- [DW_OP_plus_uconst 44] [$sp+0]
	@DEBUG_VALUE: qrcodegen_encodeSegmentsAdvanced:minVersion <- [DW_OP_plus_uconst 44] [$sp+0]
	@DEBUG_VALUE: qrcodegen_encodeSegmentsAdvanced:version <- [DW_OP_plus_uconst 44] [$sp+0]
	bl	getNumDataCodewords
.Ltmp68:
	mov	r9, r0
.Ltmp69:
	@DEBUG_VALUE: i <- 0
	@DEBUG_VALUE: getTotalBits:result <- 0
	@DEBUG_VALUE: getTotalBits:version <- [DW_OP_plus_uconst 44] [$sp+0]
	@DEBUG_VALUE: getTotalBits:len <- [DW_OP_plus_uconst 48] [$sp+0]
	@DEBUG_VALUE: getTotalBits:segs <- [DW_OP_plus_uconst 36] [$sp+0]
	@DEBUG_VALUE: dataCapacityBits <- [DW_OP_constu 8, DW_OP_mul, DW_OP_stack_value] $r9
	.loc	2 0 26 is_stmt 0                @ ../GUILib/src/extra/libs/qrcode/qrcodegen.c:0:26
	mov.w	r6, #0
.Ltmp70:
	.loc	2 978 2 is_stmt 1               @ ../GUILib/src/extra/libs/qrcode/qrcodegen.c:978:2
	cbz	r5, .LBB1_17
.Ltmp71:
@ %bb.9:                                @   in Loop: Header=BB1_8 Depth=1
	@DEBUG_VALUE: dataCapacityBits <- [DW_OP_constu 8, DW_OP_mul, DW_OP_stack_value] $r9
	@DEBUG_VALUE: getTotalBits:segs <- [DW_OP_plus_uconst 36] [$sp+0]
	@DEBUG_VALUE: getTotalBits:len <- [DW_OP_plus_uconst 48] [$sp+0]
	@DEBUG_VALUE: getTotalBits:version <- [DW_OP_plus_uconst 44] [$sp+0]
	@DEBUG_VALUE: qrcodegen_encodeSegmentsAdvanced:version <- [DW_OP_plus_uconst 44] [$sp+0]
	@DEBUG_VALUE: qrcodegen_encodeSegmentsAdvanced:segs <- [DW_OP_plus_uconst 36] [$sp+0]
	@DEBUG_VALUE: qrcodegen_encodeSegmentsAdvanced:ecl <- [DW_OP_plus_uconst 52] [$sp+0]
	@DEBUG_VALUE: qrcodegen_encodeSegmentsAdvanced:maxVersion <- [DW_OP_plus_uconst 128] [$sp+0]
	@DEBUG_VALUE: qrcodegen_encodeSegmentsAdvanced:mask <- [DW_OP_plus_uconst 132] [$sp+0]
	@DEBUG_VALUE: qrcodegen_encodeSegmentsAdvanced:tempBuffer <- [DW_OP_plus_uconst 140] [$sp+0]
	@DEBUG_VALUE: qrcodegen_encodeSegmentsAdvanced:qrcode <- [DW_OP_plus_uconst 144] [$sp+0]
	@DEBUG_VALUE: getTotalBits:result <- 0
	@DEBUG_VALUE: i <- 0
	.loc	2 0 2 is_stmt 0                 @ ../GUILib/src/extra/libs/qrcode/qrcodegen.c:0:2
	ldr	r4, [sp, #40]                   @ 4-byte Reload
	mov	r10, r5
.Ltmp72:
	@DEBUG_VALUE: qrcodegen_encodeSegmentsAdvanced:len <- $r10
	.p2align	2
.LBB1_10:                               @   Parent Loop BB1_8 Depth=1
                                        @ =>  This Inner Loop Header: Depth=2
	@DEBUG_VALUE: dataCapacityBits <- [DW_OP_constu 8, DW_OP_mul, DW_OP_stack_value] $r9
	@DEBUG_VALUE: getTotalBits:segs <- [DW_OP_plus_uconst 36] [$sp+0]
	@DEBUG_VALUE: getTotalBits:len <- [DW_OP_plus_uconst 48] [$sp+0]
	@DEBUG_VALUE: getTotalBits:version <- [DW_OP_plus_uconst 44] [$sp+0]
	@DEBUG_VALUE: qrcodegen_encodeSegmentsAdvanced:version <- [DW_OP_plus_uconst 44] [$sp+0]
	@DEBUG_VALUE: qrcodegen_encodeSegmentsAdvanced:segs <- [DW_OP_plus_uconst 36] [$sp+0]
	@DEBUG_VALUE: qrcodegen_encodeSegmentsAdvanced:ecl <- [DW_OP_plus_uconst 52] [$sp+0]
	@DEBUG_VALUE: qrcodegen_encodeSegmentsAdvanced:maxVersion <- [DW_OP_plus_uconst 128] [$sp+0]
	@DEBUG_VALUE: qrcodegen_encodeSegmentsAdvanced:mask <- [DW_OP_plus_uconst 132] [$sp+0]
	@DEBUG_VALUE: qrcodegen_encodeSegmentsAdvanced:tempBuffer <- [DW_OP_plus_uconst 140] [$sp+0]
	@DEBUG_VALUE: qrcodegen_encodeSegmentsAdvanced:qrcode <- [DW_OP_plus_uconst 144] [$sp+0]
	@DEBUG_VALUE: getTotalBits:result <- $r6
	@DEBUG_VALUE: i <- undef
	.loc	2 979 27 is_stmt 1              @ ../GUILib/src/extra/libs/qrcode/qrcodegen.c:979:27
	ldr	r5, [r4, #-8]
.Ltmp73:
	@DEBUG_VALUE: bitLength <- undef
	@DEBUG_VALUE: numChars <- $r5
	.loc	2 981 3                         @ ../GUILib/src/extra/libs/qrcode/qrcodegen.c:981:3
	cmp.w	r5, #32768
	bhs.w	.LBB1_195
.Ltmp74:
@ %bb.11:                               @   in Loop: Header=BB1_10 Depth=2
	@DEBUG_VALUE: dataCapacityBits <- [DW_OP_constu 8, DW_OP_mul, DW_OP_stack_value] $r9
	@DEBUG_VALUE: getTotalBits:result <- $r6
	@DEBUG_VALUE: numChars <- $r5
	@DEBUG_VALUE: getTotalBits:segs <- [DW_OP_plus_uconst 36] [$sp+0]
	@DEBUG_VALUE: getTotalBits:len <- [DW_OP_plus_uconst 48] [$sp+0]
	@DEBUG_VALUE: getTotalBits:version <- [DW_OP_plus_uconst 44] [$sp+0]
	@DEBUG_VALUE: qrcodegen_encodeSegmentsAdvanced:version <- [DW_OP_plus_uconst 44] [$sp+0]
	@DEBUG_VALUE: qrcodegen_encodeSegmentsAdvanced:segs <- [DW_OP_plus_uconst 36] [$sp+0]
	@DEBUG_VALUE: qrcodegen_encodeSegmentsAdvanced:ecl <- [DW_OP_plus_uconst 52] [$sp+0]
	@DEBUG_VALUE: qrcodegen_encodeSegmentsAdvanced:maxVersion <- [DW_OP_plus_uconst 128] [$sp+0]
	@DEBUG_VALUE: qrcodegen_encodeSegmentsAdvanced:mask <- [DW_OP_plus_uconst 132] [$sp+0]
	@DEBUG_VALUE: qrcodegen_encodeSegmentsAdvanced:tempBuffer <- [DW_OP_plus_uconst 140] [$sp+0]
	@DEBUG_VALUE: qrcodegen_encodeSegmentsAdvanced:qrcode <- [DW_OP_plus_uconst 144] [$sp+0]
	.loc	2 0 0 is_stmt 0                 @ ../GUILib/src/extra/libs/qrcode/qrcodegen.c:0:0
	ldr.w	r8, [r4]
.Ltmp75:
	@DEBUG_VALUE: bitLength <- $r8
	.loc	2 982 3 is_stmt 1               @ ../GUILib/src/extra/libs/qrcode/qrcodegen.c:982:3
	cmp.w	r8, #32768
	bhs.w	.LBB1_196
.Ltmp76:
@ %bb.12:                               @   in Loop: Header=BB1_10 Depth=2
	@DEBUG_VALUE: dataCapacityBits <- [DW_OP_constu 8, DW_OP_mul, DW_OP_stack_value] $r9
	@DEBUG_VALUE: bitLength <- $r8
	@DEBUG_VALUE: getTotalBits:result <- $r6
	@DEBUG_VALUE: numChars <- $r5
	@DEBUG_VALUE: getTotalBits:segs <- [DW_OP_plus_uconst 36] [$sp+0]
	@DEBUG_VALUE: getTotalBits:len <- [DW_OP_plus_uconst 48] [$sp+0]
	@DEBUG_VALUE: getTotalBits:version <- [DW_OP_plus_uconst 44] [$sp+0]
	@DEBUG_VALUE: qrcodegen_encodeSegmentsAdvanced:version <- [DW_OP_plus_uconst 44] [$sp+0]
	@DEBUG_VALUE: qrcodegen_encodeSegmentsAdvanced:segs <- [DW_OP_plus_uconst 36] [$sp+0]
	@DEBUG_VALUE: qrcodegen_encodeSegmentsAdvanced:ecl <- [DW_OP_plus_uconst 52] [$sp+0]
	@DEBUG_VALUE: qrcodegen_encodeSegmentsAdvanced:maxVersion <- [DW_OP_plus_uconst 128] [$sp+0]
	@DEBUG_VALUE: qrcodegen_encodeSegmentsAdvanced:mask <- [DW_OP_plus_uconst 132] [$sp+0]
	@DEBUG_VALUE: qrcodegen_encodeSegmentsAdvanced:tempBuffer <- [DW_OP_plus_uconst 140] [$sp+0]
	@DEBUG_VALUE: qrcodegen_encodeSegmentsAdvanced:qrcode <- [DW_OP_plus_uconst 144] [$sp+0]
	.loc	2 983 41                        @ ../GUILib/src/extra/libs/qrcode/qrcodegen.c:983:41
	ldrb	r0, [r4, #-12]
	.loc	2 983 16 is_stmt 0              @ ../GUILib/src/extra/libs/qrcode/qrcodegen.c:983:16
	ldr	r1, [sp, #44]                   @ 4-byte Reload
.Ltmp77:
	@DEBUG_VALUE: qrcodegen_encodeSegmentsAdvanced:minVersion <- $r1
	bl	numCharCountBits
.Ltmp78:
	@DEBUG_VALUE: qrcodegen_encodeSegmentsAdvanced:minVersion <- [DW_OP_LLVM_entry_value 1] $r3
	@DEBUG_VALUE: ccbits <- $r0
	.loc	2 984 3 is_stmt 1               @ ../GUILib/src/extra/libs/qrcode/qrcodegen.c:984:3
	cmp	r0, #17
	bhs.w	.LBB1_197
.Ltmp79:
@ %bb.13:                               @   in Loop: Header=BB1_10 Depth=2
	@DEBUG_VALUE: dataCapacityBits <- [DW_OP_constu 8, DW_OP_mul, DW_OP_stack_value] $r9
	@DEBUG_VALUE: bitLength <- $r8
	@DEBUG_VALUE: getTotalBits:result <- $r6
	@DEBUG_VALUE: numChars <- $r5
	@DEBUG_VALUE: ccbits <- $r0
	@DEBUG_VALUE: getTotalBits:segs <- [DW_OP_plus_uconst 36] [$sp+0]
	@DEBUG_VALUE: getTotalBits:len <- [DW_OP_plus_uconst 48] [$sp+0]
	@DEBUG_VALUE: getTotalBits:version <- [DW_OP_plus_uconst 44] [$sp+0]
	@DEBUG_VALUE: qrcodegen_encodeSegmentsAdvanced:version <- [DW_OP_plus_uconst 44] [$sp+0]
	@DEBUG_VALUE: qrcodegen_encodeSegmentsAdvanced:segs <- [DW_OP_plus_uconst 36] [$sp+0]
	@DEBUG_VALUE: qrcodegen_encodeSegmentsAdvanced:ecl <- [DW_OP_plus_uconst 52] [$sp+0]
	@DEBUG_VALUE: qrcodegen_encodeSegmentsAdvanced:maxVersion <- [DW_OP_plus_uconst 128] [$sp+0]
	@DEBUG_VALUE: qrcodegen_encodeSegmentsAdvanced:mask <- [DW_OP_plus_uconst 132] [$sp+0]
	@DEBUG_VALUE: qrcodegen_encodeSegmentsAdvanced:tempBuffer <- [DW_OP_plus_uconst 140] [$sp+0]
	@DEBUG_VALUE: qrcodegen_encodeSegmentsAdvanced:qrcode <- [DW_OP_plus_uconst 144] [$sp+0]
	.loc	2 985 23                        @ ../GUILib/src/extra/libs/qrcode/qrcodegen.c:985:23
	lsl.w	r1, r7, r0
.Ltmp80:
	.loc	2 985 7 is_stmt 0               @ ../GUILib/src/extra/libs/qrcode/qrcodegen.c:985:7
	cmp	r5, r1
	bge	.LBB1_18
.Ltmp81:
@ %bb.14:                               @   in Loop: Header=BB1_10 Depth=2
	@DEBUG_VALUE: dataCapacityBits <- [DW_OP_constu 8, DW_OP_mul, DW_OP_stack_value] $r9
	@DEBUG_VALUE: bitLength <- $r8
	@DEBUG_VALUE: getTotalBits:result <- $r6
	@DEBUG_VALUE: numChars <- $r5
	@DEBUG_VALUE: ccbits <- $r0
	@DEBUG_VALUE: getTotalBits:segs <- [DW_OP_plus_uconst 36] [$sp+0]
	@DEBUG_VALUE: getTotalBits:len <- [DW_OP_plus_uconst 48] [$sp+0]
	@DEBUG_VALUE: getTotalBits:version <- [DW_OP_plus_uconst 44] [$sp+0]
	@DEBUG_VALUE: qrcodegen_encodeSegmentsAdvanced:version <- [DW_OP_plus_uconst 44] [$sp+0]
	@DEBUG_VALUE: qrcodegen_encodeSegmentsAdvanced:segs <- [DW_OP_plus_uconst 36] [$sp+0]
	@DEBUG_VALUE: qrcodegen_encodeSegmentsAdvanced:ecl <- [DW_OP_plus_uconst 52] [$sp+0]
	@DEBUG_VALUE: qrcodegen_encodeSegmentsAdvanced:maxVersion <- [DW_OP_plus_uconst 128] [$sp+0]
	@DEBUG_VALUE: qrcodegen_encodeSegmentsAdvanced:mask <- [DW_OP_plus_uconst 132] [$sp+0]
	@DEBUG_VALUE: qrcodegen_encodeSegmentsAdvanced:tempBuffer <- [DW_OP_plus_uconst 140] [$sp+0]
	@DEBUG_VALUE: qrcodegen_encodeSegmentsAdvanced:qrcode <- [DW_OP_plus_uconst 144] [$sp+0]
	.loc	2 987 16 is_stmt 1              @ ../GUILib/src/extra/libs/qrcode/qrcodegen.c:987:16
	add.w	r1, r6, r8
	.loc	2 987 25 is_stmt 0              @ ../GUILib/src/extra/libs/qrcode/qrcodegen.c:987:25
	add	r0, r1
.Ltmp82:
	.loc	2 987 10                        @ ../GUILib/src/extra/libs/qrcode/qrcodegen.c:987:10
	adds	r6, r0, #4
.Ltmp83:
	@DEBUG_VALUE: i <- [DW_OP_plus_uconst 1, DW_OP_stack_value] undef
	@DEBUG_VALUE: getTotalBits:result <- $r6
	.loc	2 0 10                          @ ../GUILib/src/extra/libs/qrcode/qrcodegen.c:0:10
	cmp.w	r6, #32768
	bge	.LBB1_18
.Ltmp84:
@ %bb.15:                               @   in Loop: Header=BB1_10 Depth=2
	@DEBUG_VALUE: dataCapacityBits <- [DW_OP_constu 8, DW_OP_mul, DW_OP_stack_value] $r9
	@DEBUG_VALUE: getTotalBits:result <- $r6
	@DEBUG_VALUE: getTotalBits:segs <- [DW_OP_plus_uconst 36] [$sp+0]
	@DEBUG_VALUE: getTotalBits:len <- [DW_OP_plus_uconst 48] [$sp+0]
	@DEBUG_VALUE: getTotalBits:version <- [DW_OP_plus_uconst 44] [$sp+0]
	@DEBUG_VALUE: qrcodegen_encodeSegmentsAdvanced:version <- [DW_OP_plus_uconst 44] [$sp+0]
	@DEBUG_VALUE: qrcodegen_encodeSegmentsAdvanced:segs <- [DW_OP_plus_uconst 36] [$sp+0]
	@DEBUG_VALUE: qrcodegen_encodeSegmentsAdvanced:ecl <- [DW_OP_plus_uconst 52] [$sp+0]
	@DEBUG_VALUE: qrcodegen_encodeSegmentsAdvanced:maxVersion <- [DW_OP_plus_uconst 128] [$sp+0]
	@DEBUG_VALUE: qrcodegen_encodeSegmentsAdvanced:mask <- [DW_OP_plus_uconst 132] [$sp+0]
	@DEBUG_VALUE: qrcodegen_encodeSegmentsAdvanced:tempBuffer <- [DW_OP_plus_uconst 140] [$sp+0]
	@DEBUG_VALUE: qrcodegen_encodeSegmentsAdvanced:qrcode <- [DW_OP_plus_uconst 144] [$sp+0]
	@DEBUG_VALUE: getTotalBits:result <- $r6
	@DEBUG_VALUE: i <- [DW_OP_plus_uconst 1, DW_OP_stack_value] undef
	.loc	2 978 23 is_stmt 1              @ ../GUILib/src/extra/libs/qrcode/qrcodegen.c:978:23
	subs.w	r10, r10, #1
.Ltmp85:
	@DEBUG_VALUE: qrcodegen_encodeSegmentsAdvanced:len <- [DW_OP_LLVM_entry_value 1] $r1
	add.w	r4, r4, #16
.Ltmp86:
	.loc	2 978 2 is_stmt 0               @ ../GUILib/src/extra/libs/qrcode/qrcodegen.c:978:2
	bne	.LBB1_10
.Ltmp87:
@ %bb.16:                               @   in Loop: Header=BB1_8 Depth=1
	@DEBUG_VALUE: dataCapacityBits <- [DW_OP_constu 8, DW_OP_mul, DW_OP_stack_value] $r9
	@DEBUG_VALUE: getTotalBits:result <- $r6
	@DEBUG_VALUE: getTotalBits:segs <- [DW_OP_plus_uconst 36] [$sp+0]
	@DEBUG_VALUE: getTotalBits:len <- [DW_OP_plus_uconst 48] [$sp+0]
	@DEBUG_VALUE: getTotalBits:version <- [DW_OP_plus_uconst 44] [$sp+0]
	@DEBUG_VALUE: qrcodegen_encodeSegmentsAdvanced:version <- [DW_OP_plus_uconst 44] [$sp+0]
	@DEBUG_VALUE: qrcodegen_encodeSegmentsAdvanced:segs <- [DW_OP_plus_uconst 36] [$sp+0]
	@DEBUG_VALUE: qrcodegen_encodeSegmentsAdvanced:ecl <- [DW_OP_plus_uconst 52] [$sp+0]
	@DEBUG_VALUE: qrcodegen_encodeSegmentsAdvanced:maxVersion <- [DW_OP_plus_uconst 128] [$sp+0]
	@DEBUG_VALUE: qrcodegen_encodeSegmentsAdvanced:mask <- [DW_OP_plus_uconst 132] [$sp+0]
	@DEBUG_VALUE: qrcodegen_encodeSegmentsAdvanced:tempBuffer <- [DW_OP_plus_uconst 140] [$sp+0]
	@DEBUG_VALUE: qrcodegen_encodeSegmentsAdvanced:qrcode <- [DW_OP_plus_uconst 144] [$sp+0]
	@DEBUG_VALUE: getTotalBits:result <- $r6
	.loc	2 991 2 is_stmt 1               @ ../GUILib/src/extra/libs/qrcode/qrcodegen.c:991:2
	cmp.w	r6, #32768
	bhs.w	.LBB1_198
.Ltmp88:
.LBB1_17:                               @   in Loop: Header=BB1_8 Depth=1
	@DEBUG_VALUE: dataCapacityBits <- [DW_OP_constu 8, DW_OP_mul, DW_OP_stack_value] $r9
	@DEBUG_VALUE: qrcodegen_encodeSegmentsAdvanced:version <- [DW_OP_plus_uconst 44] [$sp+0]
	@DEBUG_VALUE: qrcodegen_encodeSegmentsAdvanced:segs <- [DW_OP_plus_uconst 36] [$sp+0]
	@DEBUG_VALUE: qrcodegen_encodeSegmentsAdvanced:ecl <- [DW_OP_plus_uconst 52] [$sp+0]
	@DEBUG_VALUE: qrcodegen_encodeSegmentsAdvanced:maxVersion <- [DW_OP_plus_uconst 128] [$sp+0]
	@DEBUG_VALUE: qrcodegen_encodeSegmentsAdvanced:mask <- [DW_OP_plus_uconst 132] [$sp+0]
	@DEBUG_VALUE: qrcodegen_encodeSegmentsAdvanced:tempBuffer <- [DW_OP_plus_uconst 140] [$sp+0]
	@DEBUG_VALUE: qrcodegen_encodeSegmentsAdvanced:qrcode <- [DW_OP_plus_uconst 144] [$sp+0]
	@DEBUG_VALUE: dataCapacityBits <- undef
	@DEBUG_VALUE: qrcodegen_encodeSegmentsAdvanced:dataUsedBits <- $r6
	.loc	2 214 26                        @ ../GUILib/src/extra/libs/qrcode/qrcodegen.c:214:26
	cmp.w	r6, r9, lsl #3
	ble	.LBB1_21
.Ltmp89:
.LBB1_18:                               @   in Loop: Header=BB1_8 Depth=1
	@DEBUG_VALUE: qrcodegen_encodeSegmentsAdvanced:version <- [DW_OP_plus_uconst 44] [$sp+0]
	@DEBUG_VALUE: qrcodegen_encodeSegmentsAdvanced:segs <- [DW_OP_plus_uconst 36] [$sp+0]
	@DEBUG_VALUE: qrcodegen_encodeSegmentsAdvanced:ecl <- [DW_OP_plus_uconst 52] [$sp+0]
	@DEBUG_VALUE: qrcodegen_encodeSegmentsAdvanced:maxVersion <- [DW_OP_plus_uconst 128] [$sp+0]
	@DEBUG_VALUE: qrcodegen_encodeSegmentsAdvanced:mask <- [DW_OP_plus_uconst 132] [$sp+0]
	@DEBUG_VALUE: qrcodegen_encodeSegmentsAdvanced:tempBuffer <- [DW_OP_plus_uconst 140] [$sp+0]
	@DEBUG_VALUE: qrcodegen_encodeSegmentsAdvanced:qrcode <- [DW_OP_plus_uconst 144] [$sp+0]
	.loc	2 0 26 is_stmt 0                @ ../GUILib/src/extra/libs/qrcode/qrcodegen.c:0:26
	ldr	r3, [sp, #44]                   @ 4-byte Reload
	.loc	2 216 7 is_stmt 1               @ ../GUILib/src/extra/libs/qrcode/qrcodegen.c:216:7
	ldr	r0, [sp, #128]
	cmp	r3, r0
	beq	.LBB1_20
.Ltmp90:
@ %bb.19:                               @   in Loop: Header=BB1_8 Depth=1
	@DEBUG_VALUE: qrcodegen_encodeSegmentsAdvanced:version <- [DW_OP_plus_uconst 44] [$sp+0]
	@DEBUG_VALUE: qrcodegen_encodeSegmentsAdvanced:segs <- [DW_OP_plus_uconst 36] [$sp+0]
	@DEBUG_VALUE: qrcodegen_encodeSegmentsAdvanced:ecl <- [DW_OP_plus_uconst 52] [$sp+0]
	@DEBUG_VALUE: qrcodegen_encodeSegmentsAdvanced:maxVersion <- [DW_OP_plus_uconst 128] [$sp+0]
	@DEBUG_VALUE: qrcodegen_encodeSegmentsAdvanced:mask <- [DW_OP_plus_uconst 132] [$sp+0]
	@DEBUG_VALUE: qrcodegen_encodeSegmentsAdvanced:tempBuffer <- [DW_OP_plus_uconst 140] [$sp+0]
	@DEBUG_VALUE: qrcodegen_encodeSegmentsAdvanced:qrcode <- [DW_OP_plus_uconst 144] [$sp+0]
	.loc	2 0 7 is_stmt 0                 @ ../GUILib/src/extra/libs/qrcode/qrcodegen.c:0:7
	ldr	r5, [sp, #48]                   @ 4-byte Reload
	.loc	2 211 38 is_stmt 1              @ ../GUILib/src/extra/libs/qrcode/qrcodegen.c:211:38
	adds	r3, #1
.Ltmp91:
	@DEBUG_VALUE: qrcodegen_encodeSegmentsAdvanced:version <- $r3
	.loc	2 0 38 is_stmt 0                @ ../GUILib/src/extra/libs/qrcode/qrcodegen.c:0:38
	b	.LBB1_8
.Ltmp92:
.LBB1_20:
	@DEBUG_VALUE: qrcodegen_encodeSegmentsAdvanced:version <- [DW_OP_plus_uconst 44] [$sp+0]
	@DEBUG_VALUE: qrcodegen_encodeSegmentsAdvanced:segs <- [DW_OP_plus_uconst 36] [$sp+0]
	@DEBUG_VALUE: qrcodegen_encodeSegmentsAdvanced:ecl <- [DW_OP_plus_uconst 52] [$sp+0]
	@DEBUG_VALUE: qrcodegen_encodeSegmentsAdvanced:maxVersion <- [DW_OP_plus_uconst 128] [$sp+0]
	@DEBUG_VALUE: qrcodegen_encodeSegmentsAdvanced:mask <- [DW_OP_plus_uconst 132] [$sp+0]
	@DEBUG_VALUE: qrcodegen_encodeSegmentsAdvanced:tempBuffer <- [DW_OP_plus_uconst 140] [$sp+0]
	@DEBUG_VALUE: qrcodegen_encodeSegmentsAdvanced:qrcode <- [DW_OP_plus_uconst 144] [$sp+0]
	movs	r0, #0
.Ltmp93:
	.loc	2 217 14 is_stmt 1              @ ../GUILib/src/extra/libs/qrcode/qrcodegen.c:217:14
	strb.w	r0, [r11]
	b.w	.LBB1_194
.Ltmp94:
.LBB1_21:
	@DEBUG_VALUE: qrcodegen_encodeSegmentsAdvanced:dataUsedBits <- $r6
	@DEBUG_VALUE: qrcodegen_encodeSegmentsAdvanced:version <- [DW_OP_plus_uconst 44] [$sp+0]
	@DEBUG_VALUE: qrcodegen_encodeSegmentsAdvanced:segs <- [DW_OP_plus_uconst 36] [$sp+0]
	@DEBUG_VALUE: qrcodegen_encodeSegmentsAdvanced:ecl <- [DW_OP_plus_uconst 52] [$sp+0]
	@DEBUG_VALUE: qrcodegen_encodeSegmentsAdvanced:maxVersion <- [DW_OP_plus_uconst 128] [$sp+0]
	@DEBUG_VALUE: qrcodegen_encodeSegmentsAdvanced:mask <- [DW_OP_plus_uconst 132] [$sp+0]
	@DEBUG_VALUE: qrcodegen_encodeSegmentsAdvanced:tempBuffer <- [DW_OP_plus_uconst 140] [$sp+0]
	@DEBUG_VALUE: qrcodegen_encodeSegmentsAdvanced:qrcode <- [DW_OP_plus_uconst 144] [$sp+0]
	.loc	2 0 14 is_stmt 0                @ ../GUILib/src/extra/libs/qrcode/qrcodegen.c:0:14
	ldrd	r7, r8, [sp, #44]               @ 8-byte Folded Reload
	ldr	r5, [sp, #136]
	movs	r4, #1
.Ltmp95:
	.p2align	2
.LBB1_22:                               @ =>This Inner Loop Header: Depth=1
	@DEBUG_VALUE: qrcodegen_encodeSegmentsAdvanced:dataUsedBits <- $r6
	@DEBUG_VALUE: qrcodegen_encodeSegmentsAdvanced:version <- [DW_OP_plus_uconst 44] [$sp+0]
	@DEBUG_VALUE: qrcodegen_encodeSegmentsAdvanced:segs <- [DW_OP_plus_uconst 36] [$sp+0]
	@DEBUG_VALUE: qrcodegen_encodeSegmentsAdvanced:ecl <- [DW_OP_plus_uconst 52] [$sp+0]
	@DEBUG_VALUE: qrcodegen_encodeSegmentsAdvanced:maxVersion <- [DW_OP_plus_uconst 128] [$sp+0]
	@DEBUG_VALUE: qrcodegen_encodeSegmentsAdvanced:mask <- [DW_OP_plus_uconst 132] [$sp+0]
	@DEBUG_VALUE: qrcodegen_encodeSegmentsAdvanced:tempBuffer <- [DW_OP_plus_uconst 140] [$sp+0]
	@DEBUG_VALUE: qrcodegen_encodeSegmentsAdvanced:qrcode <- [DW_OP_plus_uconst 144] [$sp+0]
	@DEBUG_VALUE: qrcodegen_encodeSegmentsAdvanced:ecl <- [DW_OP_plus_uconst 52] [$sp+0]
	@DEBUG_VALUE: i <- $r4
	cbz	r5, .LBB1_24
.Ltmp96:
@ %bb.23:                               @   in Loop: Header=BB1_22 Depth=1
	@DEBUG_VALUE: qrcodegen_encodeSegmentsAdvanced:dataUsedBits <- $r6
	@DEBUG_VALUE: i <- $r4
	@DEBUG_VALUE: qrcodegen_encodeSegmentsAdvanced:version <- [DW_OP_plus_uconst 44] [$sp+0]
	@DEBUG_VALUE: qrcodegen_encodeSegmentsAdvanced:segs <- [DW_OP_plus_uconst 36] [$sp+0]
	@DEBUG_VALUE: qrcodegen_encodeSegmentsAdvanced:ecl <- [DW_OP_plus_uconst 52] [$sp+0]
	@DEBUG_VALUE: qrcodegen_encodeSegmentsAdvanced:maxVersion <- [DW_OP_plus_uconst 128] [$sp+0]
	@DEBUG_VALUE: qrcodegen_encodeSegmentsAdvanced:mask <- [DW_OP_plus_uconst 132] [$sp+0]
	@DEBUG_VALUE: qrcodegen_encodeSegmentsAdvanced:tempBuffer <- [DW_OP_plus_uconst 140] [$sp+0]
	@DEBUG_VALUE: qrcodegen_encodeSegmentsAdvanced:qrcode <- [DW_OP_plus_uconst 144] [$sp+0]
	.loc	2 225 35 is_stmt 1              @ ../GUILib/src/extra/libs/qrcode/qrcodegen.c:225:35
	uxtb	r1, r4
	mov	r0, r7
	bl	getNumDataCodewords
.Ltmp97:
	.loc	2 225 7 is_stmt 0               @ ../GUILib/src/extra/libs/qrcode/qrcodegen.c:225:7
	cmp.w	r6, r0, lsl #3
	ldr	r0, [sp, #52]                   @ 4-byte Reload
	it	le
	movle	r0, r4
	str	r0, [sp, #52]                   @ 4-byte Spill
.Ltmp98:
.LBB1_24:                               @   in Loop: Header=BB1_22 Depth=1
	@DEBUG_VALUE: qrcodegen_encodeSegmentsAdvanced:dataUsedBits <- $r6
	@DEBUG_VALUE: i <- $r4
	@DEBUG_VALUE: qrcodegen_encodeSegmentsAdvanced:version <- [DW_OP_plus_uconst 44] [$sp+0]
	@DEBUG_VALUE: qrcodegen_encodeSegmentsAdvanced:segs <- [DW_OP_plus_uconst 36] [$sp+0]
	@DEBUG_VALUE: qrcodegen_encodeSegmentsAdvanced:ecl <- [DW_OP_plus_uconst 52] [$sp+0]
	@DEBUG_VALUE: qrcodegen_encodeSegmentsAdvanced:maxVersion <- [DW_OP_plus_uconst 128] [$sp+0]
	@DEBUG_VALUE: qrcodegen_encodeSegmentsAdvanced:mask <- [DW_OP_plus_uconst 132] [$sp+0]
	@DEBUG_VALUE: qrcodegen_encodeSegmentsAdvanced:tempBuffer <- [DW_OP_plus_uconst 140] [$sp+0]
	@DEBUG_VALUE: qrcodegen_encodeSegmentsAdvanced:qrcode <- [DW_OP_plus_uconst 144] [$sp+0]
	@DEBUG_VALUE: qrcodegen_encodeSegmentsAdvanced:ecl <- [DW_OP_plus_uconst 52] [$sp+0]
	.loc	2 224 73 is_stmt 1              @ ../GUILib/src/extra/libs/qrcode/qrcodegen.c:224:73
	adds	r4, #1
.Ltmp99:
	@DEBUG_VALUE: i <- $r4
	.loc	2 224 2 is_stmt 0               @ ../GUILib/src/extra/libs/qrcode/qrcodegen.c:224:2
	cmp	r4, #4
	bne	.LBB1_22
.Ltmp100:
@ %bb.25:
	@DEBUG_VALUE: qrcodegen_encodeSegmentsAdvanced:dataUsedBits <- $r6
	@DEBUG_VALUE: qrcodegen_encodeSegmentsAdvanced:version <- [DW_OP_plus_uconst 44] [$sp+0]
	@DEBUG_VALUE: qrcodegen_encodeSegmentsAdvanced:segs <- [DW_OP_plus_uconst 36] [$sp+0]
	@DEBUG_VALUE: qrcodegen_encodeSegmentsAdvanced:ecl <- [DW_OP_plus_uconst 52] [$sp+0]
	@DEBUG_VALUE: qrcodegen_encodeSegmentsAdvanced:maxVersion <- [DW_OP_plus_uconst 128] [$sp+0]
	@DEBUG_VALUE: qrcodegen_encodeSegmentsAdvanced:mask <- [DW_OP_plus_uconst 132] [$sp+0]
	@DEBUG_VALUE: qrcodegen_encodeSegmentsAdvanced:tempBuffer <- [DW_OP_plus_uconst 140] [$sp+0]
	@DEBUG_VALUE: qrcodegen_encodeSegmentsAdvanced:qrcode <- [DW_OP_plus_uconst 144] [$sp+0]
	.loc	2 0 2                           @ ../GUILib/src/extra/libs/qrcode/qrcodegen.c:0:2
	movs	r0, #17
	.loc	2 230 20 is_stmt 1              @ ../GUILib/src/extra/libs/qrcode/qrcodegen.c:230:20
	add.w	r0, r0, r7, lsl #2
	muls	r0, r0, r0
	adds	r0, #7
	movs	r1, #1
	add.w	r1, r1, r0, lsr #3
	.loc	2 230 2 is_stmt 0               @ ../GUILib/src/extra/libs/qrcode/qrcodegen.c:230:2
	mov	r0, r11
	bl	__aeabi_memclr
.Ltmp101:
	.loc	2 0 2                           @ ../GUILib/src/extra/libs/qrcode/qrcodegen.c:0:2
	movs	r0, #0
.Ltmp102:
	@DEBUG_VALUE: qrcodegen_encodeSegmentsAdvanced:bitLen <- 0
	.loc	2 232 2 is_stmt 1               @ ../GUILib/src/extra/libs/qrcode/qrcodegen.c:232:2
	cmp.w	r8, #0
.Ltmp103:
	.loc	2 231 6                         @ ../GUILib/src/extra/libs/qrcode/qrcodegen.c:231:6
	str	r0, [sp, #56]
.Ltmp104:
	@DEBUG_VALUE: i <- 0
	.loc	2 232 2                         @ ../GUILib/src/extra/libs/qrcode/qrcodegen.c:232:2
	beq	.LBB1_32
.Ltmp105:
@ %bb.26:
	@DEBUG_VALUE: qrcodegen_encodeSegmentsAdvanced:dataUsedBits <- $r6
	@DEBUG_VALUE: qrcodegen_encodeSegmentsAdvanced:version <- [DW_OP_plus_uconst 44] [$sp+0]
	@DEBUG_VALUE: qrcodegen_encodeSegmentsAdvanced:segs <- [DW_OP_plus_uconst 36] [$sp+0]
	@DEBUG_VALUE: qrcodegen_encodeSegmentsAdvanced:ecl <- [DW_OP_plus_uconst 52] [$sp+0]
	@DEBUG_VALUE: qrcodegen_encodeSegmentsAdvanced:maxVersion <- [DW_OP_plus_uconst 128] [$sp+0]
	@DEBUG_VALUE: qrcodegen_encodeSegmentsAdvanced:mask <- [DW_OP_plus_uconst 132] [$sp+0]
	@DEBUG_VALUE: qrcodegen_encodeSegmentsAdvanced:tempBuffer <- [DW_OP_plus_uconst 140] [$sp+0]
	@DEBUG_VALUE: qrcodegen_encodeSegmentsAdvanced:qrcode <- [DW_OP_plus_uconst 144] [$sp+0]
	@DEBUG_VALUE: i <- 0
	@DEBUG_VALUE: qrcodegen_encodeSegmentsAdvanced:bitLen <- 0
	.loc	2 0 2 is_stmt 0                 @ ../GUILib/src/extra/libs/qrcode/qrcodegen.c:0:2
	mov.w	r9, #0
	add.w	r10, sp, #56
	mov.w	r8, #7
.Ltmp106:
	.p2align	2
.LBB1_27:                               @ =>This Loop Header: Depth=1
                                        @     Child Loop BB1_29 Depth 2
	@DEBUG_VALUE: qrcodegen_encodeSegmentsAdvanced:dataUsedBits <- $r6
	@DEBUG_VALUE: qrcodegen_encodeSegmentsAdvanced:version <- [DW_OP_plus_uconst 44] [$sp+0]
	@DEBUG_VALUE: qrcodegen_encodeSegmentsAdvanced:segs <- [DW_OP_plus_uconst 36] [$sp+0]
	@DEBUG_VALUE: qrcodegen_encodeSegmentsAdvanced:ecl <- [DW_OP_plus_uconst 52] [$sp+0]
	@DEBUG_VALUE: qrcodegen_encodeSegmentsAdvanced:maxVersion <- [DW_OP_plus_uconst 128] [$sp+0]
	@DEBUG_VALUE: qrcodegen_encodeSegmentsAdvanced:mask <- [DW_OP_plus_uconst 132] [$sp+0]
	@DEBUG_VALUE: qrcodegen_encodeSegmentsAdvanced:tempBuffer <- [DW_OP_plus_uconst 140] [$sp+0]
	@DEBUG_VALUE: qrcodegen_encodeSegmentsAdvanced:qrcode <- [DW_OP_plus_uconst 144] [$sp+0]
	@DEBUG_VALUE: i <- $r9
	@DEBUG_VALUE: seg <- undef
	ldr	r7, [sp, #36]                   @ 4-byte Reload
.Ltmp107:
	.loc	2 234 32 is_stmt 1              @ ../GUILib/src/extra/libs/qrcode/qrcodegen.c:234:32
	lsl.w	r5, r9, #4
	ldrb	r0, [r7, r5]
.Ltmp108:
	@DEBUG_VALUE: qrcodegen_encodeSegmentsAdvanced:bitLen <- [DW_OP_plus_uconst 56, DW_OP_deref] $sp
	.loc	2 234 3 is_stmt 0               @ ../GUILib/src/extra/libs/qrcode/qrcodegen.c:234:3
	movs	r1, #4
	mov	r2, r11
	mov	r3, r10
	.loc	2 234 32                        @ ../GUILib/src/extra/libs/qrcode/qrcodegen.c:234:32
	add.w	r4, r7, r9, lsl #4
	.loc	2 234 3                         @ ../GUILib/src/extra/libs/qrcode/qrcodegen.c:234:3
	bl	appendBitsToBuffer
.Ltmp109:
	.loc	2 235 27 is_stmt 1              @ ../GUILib/src/extra/libs/qrcode/qrcodegen.c:235:27
	ldr	r0, [r4, #4]
	.loc	2 235 37 is_stmt 0              @ ../GUILib/src/extra/libs/qrcode/qrcodegen.c:235:37
	ldr	r1, [sp, #44]                   @ 4-byte Reload
	.loc	2 235 59                        @ ../GUILib/src/extra/libs/qrcode/qrcodegen.c:235:59
	str	r0, [sp, #40]                   @ 4-byte Spill
	ldrb	r0, [r7, r5]
	.loc	2 235 37                        @ ../GUILib/src/extra/libs/qrcode/qrcodegen.c:235:37
	bl	numCharCountBits
.Ltmp110:
	mov	r1, r0
	.loc	2 235 3                         @ ../GUILib/src/extra/libs/qrcode/qrcodegen.c:235:3
	ldr	r0, [sp, #40]                   @ 4-byte Reload
	mov	r2, r11
	mov	r3, r10
	bl	appendBitsToBuffer
.Ltmp111:
	@DEBUG_VALUE: j <- 0
	.loc	2 236 28 is_stmt 1              @ ../GUILib/src/extra/libs/qrcode/qrcodegen.c:236:28
	mov	r7, r4
	ldr	r0, [r7, #12]!
.Ltmp112:
	.loc	2 236 3 is_stmt 0               @ ../GUILib/src/extra/libs/qrcode/qrcodegen.c:236:3
	cmp	r0, #1
	blt	.LBB1_30
.Ltmp113:
@ %bb.28:                               @   in Loop: Header=BB1_27 Depth=1
	@DEBUG_VALUE: i <- $r9
	@DEBUG_VALUE: qrcodegen_encodeSegmentsAdvanced:dataUsedBits <- $r6
	@DEBUG_VALUE: qrcodegen_encodeSegmentsAdvanced:bitLen <- [DW_OP_plus_uconst 56, DW_OP_deref] $sp
	@DEBUG_VALUE: qrcodegen_encodeSegmentsAdvanced:version <- [DW_OP_plus_uconst 44] [$sp+0]
	@DEBUG_VALUE: qrcodegen_encodeSegmentsAdvanced:segs <- [DW_OP_plus_uconst 36] [$sp+0]
	@DEBUG_VALUE: qrcodegen_encodeSegmentsAdvanced:ecl <- [DW_OP_plus_uconst 52] [$sp+0]
	@DEBUG_VALUE: qrcodegen_encodeSegmentsAdvanced:maxVersion <- [DW_OP_plus_uconst 128] [$sp+0]
	@DEBUG_VALUE: qrcodegen_encodeSegmentsAdvanced:mask <- [DW_OP_plus_uconst 132] [$sp+0]
	@DEBUG_VALUE: qrcodegen_encodeSegmentsAdvanced:tempBuffer <- [DW_OP_plus_uconst 140] [$sp+0]
	@DEBUG_VALUE: qrcodegen_encodeSegmentsAdvanced:qrcode <- [DW_OP_plus_uconst 144] [$sp+0]
	@DEBUG_VALUE: j <- 0
	.loc	2 0 3                           @ ../GUILib/src/extra/libs/qrcode/qrcodegen.c:0:3
	adds	r4, #8
	movs	r5, #0
.Ltmp114:
	.p2align	2
.LBB1_29:                               @   Parent Loop BB1_27 Depth=1
                                        @ =>  This Inner Loop Header: Depth=2
	@DEBUG_VALUE: i <- $r9
	@DEBUG_VALUE: qrcodegen_encodeSegmentsAdvanced:dataUsedBits <- $r6
	@DEBUG_VALUE: qrcodegen_encodeSegmentsAdvanced:bitLen <- [DW_OP_plus_uconst 56, DW_OP_deref] $sp
	@DEBUG_VALUE: qrcodegen_encodeSegmentsAdvanced:version <- [DW_OP_plus_uconst 44] [$sp+0]
	@DEBUG_VALUE: qrcodegen_encodeSegmentsAdvanced:segs <- [DW_OP_plus_uconst 36] [$sp+0]
	@DEBUG_VALUE: qrcodegen_encodeSegmentsAdvanced:ecl <- [DW_OP_plus_uconst 52] [$sp+0]
	@DEBUG_VALUE: qrcodegen_encodeSegmentsAdvanced:maxVersion <- [DW_OP_plus_uconst 128] [$sp+0]
	@DEBUG_VALUE: qrcodegen_encodeSegmentsAdvanced:mask <- [DW_OP_plus_uconst 132] [$sp+0]
	@DEBUG_VALUE: qrcodegen_encodeSegmentsAdvanced:tempBuffer <- [DW_OP_plus_uconst 140] [$sp+0]
	@DEBUG_VALUE: qrcodegen_encodeSegmentsAdvanced:qrcode <- [DW_OP_plus_uconst 144] [$sp+0]
	@DEBUG_VALUE: j <- $r5
	.loc	2 237 29 is_stmt 1              @ ../GUILib/src/extra/libs/qrcode/qrcodegen.c:237:29
	ldr	r0, [r4]
	.loc	2 237 36 is_stmt 0              @ ../GUILib/src/extra/libs/qrcode/qrcodegen.c:237:36
	lsrs	r1, r5, #3
	.loc	2 237 24                        @ ../GUILib/src/extra/libs/qrcode/qrcodegen.c:237:24
	ldrb	r0, [r0, r1]
	.loc	2 237 48                        @ ../GUILib/src/extra/libs/qrcode/qrcodegen.c:237:48
	bic.w	r1, r8, r5
	.loc	2 237 42                        @ ../GUILib/src/extra/libs/qrcode/qrcodegen.c:237:42
	lsrs	r0, r1
	.loc	2 237 60                        @ ../GUILib/src/extra/libs/qrcode/qrcodegen.c:237:60
	and	r0, r0, #1
	@DEBUG_VALUE: qrcodegen_encodeSegmentsAdvanced:bitLen <- [DW_OP_plus_uconst 56, DW_OP_deref] $sp
	.loc	2 237 4                         @ ../GUILib/src/extra/libs/qrcode/qrcodegen.c:237:4
	movs	r1, #1
	mov	r2, r11
	mov	r3, r10
	bl	appendBitsToBuffer
.Ltmp115:
	.loc	2 236 28 is_stmt 1              @ ../GUILib/src/extra/libs/qrcode/qrcodegen.c:236:28
	ldr	r0, [r7]
	.loc	2 236 40 is_stmt 0              @ ../GUILib/src/extra/libs/qrcode/qrcodegen.c:236:40
	adds	r5, #1
.Ltmp116:
	@DEBUG_VALUE: j <- $r5
	.loc	2 236 3                         @ ../GUILib/src/extra/libs/qrcode/qrcodegen.c:236:3
	cmp	r5, r0
	blt	.LBB1_29
.Ltmp117:
.LBB1_30:                               @   in Loop: Header=BB1_27 Depth=1
	@DEBUG_VALUE: i <- $r9
	@DEBUG_VALUE: qrcodegen_encodeSegmentsAdvanced:dataUsedBits <- $r6
	@DEBUG_VALUE: qrcodegen_encodeSegmentsAdvanced:bitLen <- [DW_OP_plus_uconst 56, DW_OP_deref] $sp
	@DEBUG_VALUE: qrcodegen_encodeSegmentsAdvanced:version <- [DW_OP_plus_uconst 44] [$sp+0]
	@DEBUG_VALUE: qrcodegen_encodeSegmentsAdvanced:segs <- [DW_OP_plus_uconst 36] [$sp+0]
	@DEBUG_VALUE: qrcodegen_encodeSegmentsAdvanced:ecl <- [DW_OP_plus_uconst 52] [$sp+0]
	@DEBUG_VALUE: qrcodegen_encodeSegmentsAdvanced:maxVersion <- [DW_OP_plus_uconst 128] [$sp+0]
	@DEBUG_VALUE: qrcodegen_encodeSegmentsAdvanced:mask <- [DW_OP_plus_uconst 132] [$sp+0]
	@DEBUG_VALUE: qrcodegen_encodeSegmentsAdvanced:tempBuffer <- [DW_OP_plus_uconst 140] [$sp+0]
	@DEBUG_VALUE: qrcodegen_encodeSegmentsAdvanced:qrcode <- [DW_OP_plus_uconst 144] [$sp+0]
	.loc	2 232 2 is_stmt 1               @ ../GUILib/src/extra/libs/qrcode/qrcodegen.c:232:2
	ldr	r0, [sp, #48]                   @ 4-byte Reload
.Ltmp118:
	.loc	2 232 31 is_stmt 0              @ ../GUILib/src/extra/libs/qrcode/qrcodegen.c:232:31
	add.w	r9, r9, #1
.Ltmp119:
	@DEBUG_VALUE: i <- $r9
	.loc	2 232 2                         @ ../GUILib/src/extra/libs/qrcode/qrcodegen.c:232:2
	cmp	r9, r0
	bne	.LBB1_27
.Ltmp120:
@ %bb.31:
	@DEBUG_VALUE: qrcodegen_encodeSegmentsAdvanced:dataUsedBits <- $r6
	@DEBUG_VALUE: qrcodegen_encodeSegmentsAdvanced:bitLen <- [DW_OP_plus_uconst 56, DW_OP_deref] $sp
	@DEBUG_VALUE: qrcodegen_encodeSegmentsAdvanced:version <- [DW_OP_plus_uconst 44] [$sp+0]
	@DEBUG_VALUE: qrcodegen_encodeSegmentsAdvanced:segs <- [DW_OP_plus_uconst 36] [$sp+0]
	@DEBUG_VALUE: qrcodegen_encodeSegmentsAdvanced:ecl <- [DW_OP_plus_uconst 52] [$sp+0]
	@DEBUG_VALUE: qrcodegen_encodeSegmentsAdvanced:maxVersion <- [DW_OP_plus_uconst 128] [$sp+0]
	@DEBUG_VALUE: qrcodegen_encodeSegmentsAdvanced:mask <- [DW_OP_plus_uconst 132] [$sp+0]
	@DEBUG_VALUE: qrcodegen_encodeSegmentsAdvanced:tempBuffer <- [DW_OP_plus_uconst 140] [$sp+0]
	@DEBUG_VALUE: qrcodegen_encodeSegmentsAdvanced:qrcode <- [DW_OP_plus_uconst 144] [$sp+0]
	.loc	2 239 2 is_stmt 1               @ ../GUILib/src/extra/libs/qrcode/qrcodegen.c:239:2
	ldr	r0, [sp, #56]
	ldr	r7, [sp, #44]                   @ 4-byte Reload
.Ltmp121:
.LBB1_32:
	@DEBUG_VALUE: qrcodegen_encodeSegmentsAdvanced:dataUsedBits <- $r6
	@DEBUG_VALUE: qrcodegen_encodeSegmentsAdvanced:version <- [DW_OP_plus_uconst 44] [$sp+0]
	@DEBUG_VALUE: qrcodegen_encodeSegmentsAdvanced:segs <- [DW_OP_plus_uconst 36] [$sp+0]
	@DEBUG_VALUE: qrcodegen_encodeSegmentsAdvanced:ecl <- [DW_OP_plus_uconst 52] [$sp+0]
	@DEBUG_VALUE: qrcodegen_encodeSegmentsAdvanced:maxVersion <- [DW_OP_plus_uconst 128] [$sp+0]
	@DEBUG_VALUE: qrcodegen_encodeSegmentsAdvanced:mask <- [DW_OP_plus_uconst 132] [$sp+0]
	@DEBUG_VALUE: qrcodegen_encodeSegmentsAdvanced:tempBuffer <- [DW_OP_plus_uconst 140] [$sp+0]
	@DEBUG_VALUE: qrcodegen_encodeSegmentsAdvanced:qrcode <- [DW_OP_plus_uconst 144] [$sp+0]
	@DEBUG_VALUE: qrcodegen_encodeSegmentsAdvanced:bitLen <- $r0
	cmp	r0, r6
	bne.w	.LBB1_202
.Ltmp122:
@ %bb.33:
	@DEBUG_VALUE: qrcodegen_encodeSegmentsAdvanced:dataUsedBits <- $r6
	@DEBUG_VALUE: qrcodegen_encodeSegmentsAdvanced:bitLen <- $r0
	@DEBUG_VALUE: qrcodegen_encodeSegmentsAdvanced:version <- [DW_OP_plus_uconst 44] [$sp+0]
	@DEBUG_VALUE: qrcodegen_encodeSegmentsAdvanced:segs <- [DW_OP_plus_uconst 36] [$sp+0]
	@DEBUG_VALUE: qrcodegen_encodeSegmentsAdvanced:ecl <- [DW_OP_plus_uconst 52] [$sp+0]
	@DEBUG_VALUE: qrcodegen_encodeSegmentsAdvanced:maxVersion <- [DW_OP_plus_uconst 128] [$sp+0]
	@DEBUG_VALUE: qrcodegen_encodeSegmentsAdvanced:mask <- [DW_OP_plus_uconst 132] [$sp+0]
	@DEBUG_VALUE: qrcodegen_encodeSegmentsAdvanced:tempBuffer <- [DW_OP_plus_uconst 140] [$sp+0]
	@DEBUG_VALUE: qrcodegen_encodeSegmentsAdvanced:qrcode <- [DW_OP_plus_uconst 144] [$sp+0]
	.loc	2 242 25                        @ ../GUILib/src/extra/libs/qrcode/qrcodegen.c:242:25
	ldr	r0, [sp, #52]                   @ 4-byte Reload
.Ltmp123:
	uxtb.w	r9, r0
	mov	r0, r7
	mov	r1, r9
	bl	getNumDataCodewords
.Ltmp124:
	@DEBUG_VALUE: qrcodegen_encodeSegmentsAdvanced:dataCapacityBits <- undef
	@DEBUG_VALUE: qrcodegen_encodeSegmentsAdvanced:bitLen <- undef
	.loc	2 243 2                         @ ../GUILib/src/extra/libs/qrcode/qrcodegen.c:243:2
	cmp.w	r6, r0, lsl #3
	bgt.w	.LBB1_203
.Ltmp125:
@ %bb.34:
	@DEBUG_VALUE: qrcodegen_encodeSegmentsAdvanced:dataUsedBits <- $r6
	@DEBUG_VALUE: qrcodegen_encodeSegmentsAdvanced:version <- [DW_OP_plus_uconst 44] [$sp+0]
	@DEBUG_VALUE: qrcodegen_encodeSegmentsAdvanced:segs <- [DW_OP_plus_uconst 36] [$sp+0]
	@DEBUG_VALUE: qrcodegen_encodeSegmentsAdvanced:ecl <- [DW_OP_plus_uconst 52] [$sp+0]
	@DEBUG_VALUE: qrcodegen_encodeSegmentsAdvanced:maxVersion <- [DW_OP_plus_uconst 128] [$sp+0]
	@DEBUG_VALUE: qrcodegen_encodeSegmentsAdvanced:mask <- [DW_OP_plus_uconst 132] [$sp+0]
	@DEBUG_VALUE: qrcodegen_encodeSegmentsAdvanced:tempBuffer <- [DW_OP_plus_uconst 140] [$sp+0]
	@DEBUG_VALUE: qrcodegen_encodeSegmentsAdvanced:qrcode <- [DW_OP_plus_uconst 144] [$sp+0]
	.loc	2 0 0 is_stmt 0                 @ ../GUILib/src/extra/libs/qrcode/qrcodegen.c:0:0
	lsls	r4, r0, #3
.Ltmp126:
	@DEBUG_VALUE: qrcodegen_encodeSegmentsAdvanced:dataCapacityBits <- $r4
	add	r5, sp, #56
	.loc	2 244 40 is_stmt 1              @ ../GUILib/src/extra/libs/qrcode/qrcodegen.c:244:40
	subs	r1, r4, r6
.Ltmp127:
	@DEBUG_VALUE: qrcodegen_encodeSegmentsAdvanced:terminatorBits <- $r1
	.loc	2 247 2                         @ ../GUILib/src/extra/libs/qrcode/qrcodegen.c:247:2
	movs	r0, #0
	mov	r2, r11
	mov	r3, r5
	.loc	2 245 6                         @ ../GUILib/src/extra/libs/qrcode/qrcodegen.c:245:6
	cmp	r1, #4
	it	ge
	movge	r1, #4
.Ltmp128:
	@DEBUG_VALUE: qrcodegen_encodeSegmentsAdvanced:terminatorBits <- $r1
	@DEBUG_VALUE: qrcodegen_encodeSegmentsAdvanced:bitLen <- [DW_OP_plus_uconst 56, DW_OP_deref] $sp
	.loc	2 247 2                         @ ../GUILib/src/extra/libs/qrcode/qrcodegen.c:247:2
	bl	appendBitsToBuffer
.Ltmp129:
	.loc	2 248 29                        @ ../GUILib/src/extra/libs/qrcode/qrcodegen.c:248:29
	ldr	r0, [sp, #56]
.Ltmp130:
	@DEBUG_VALUE: qrcodegen_encodeSegmentsAdvanced:bitLen <- $r0
	.loc	2 248 2 is_stmt 0               @ ../GUILib/src/extra/libs/qrcode/qrcodegen.c:248:2
	mov	r2, r11
	.loc	2 248 36                        @ ../GUILib/src/extra/libs/qrcode/qrcodegen.c:248:36
	asrs	r1, r0, #31
	add.w	r1, r0, r1, lsr #29
	bic	r1, r1, #7
	.loc	2 248 41                        @ ../GUILib/src/extra/libs/qrcode/qrcodegen.c:248:41
	subs	r0, r1, r0
.Ltmp131:
	adds	r0, #8
	sxtb	r1, r0
	ubfx	r1, r1, #12, #3
	add	r1, r0
	and	r1, r1, #248
	subs	r0, r0, r1
	uxtb	r1, r0
.Ltmp132:
	@DEBUG_VALUE: qrcodegen_encodeSegmentsAdvanced:bitLen <- [DW_OP_plus_uconst 56, DW_OP_deref] $sp
	.loc	2 248 2                         @ ../GUILib/src/extra/libs/qrcode/qrcodegen.c:248:2
	movs	r0, #0
	mov	r3, r5
	bl	appendBitsToBuffer
.Ltmp133:
	.loc	2 249 2 is_stmt 1               @ ../GUILib/src/extra/libs/qrcode/qrcodegen.c:249:2
	ldr	r0, [sp, #56]
.Ltmp134:
	@DEBUG_VALUE: qrcodegen_encodeSegmentsAdvanced:bitLen <- $r0
	lsls	r1, r0, #29
	bne.w	.LBB1_204
.Ltmp135:
@ %bb.35:
	@DEBUG_VALUE: qrcodegen_encodeSegmentsAdvanced:dataUsedBits <- $r6
	@DEBUG_VALUE: qrcodegen_encodeSegmentsAdvanced:dataCapacityBits <- $r4
	@DEBUG_VALUE: qrcodegen_encodeSegmentsAdvanced:bitLen <- $r0
	@DEBUG_VALUE: qrcodegen_encodeSegmentsAdvanced:version <- [DW_OP_plus_uconst 44] [$sp+0]
	@DEBUG_VALUE: qrcodegen_encodeSegmentsAdvanced:segs <- [DW_OP_plus_uconst 36] [$sp+0]
	@DEBUG_VALUE: qrcodegen_encodeSegmentsAdvanced:ecl <- [DW_OP_plus_uconst 52] [$sp+0]
	@DEBUG_VALUE: qrcodegen_encodeSegmentsAdvanced:maxVersion <- [DW_OP_plus_uconst 128] [$sp+0]
	@DEBUG_VALUE: qrcodegen_encodeSegmentsAdvanced:mask <- [DW_OP_plus_uconst 132] [$sp+0]
	@DEBUG_VALUE: qrcodegen_encodeSegmentsAdvanced:tempBuffer <- [DW_OP_plus_uconst 140] [$sp+0]
	@DEBUG_VALUE: qrcodegen_encodeSegmentsAdvanced:qrcode <- [DW_OP_plus_uconst 144] [$sp+0]
	@DEBUG_VALUE: qrcodegen_encodeSegmentsAdvanced:bitLen <- $r0
	@DEBUG_VALUE: padByte <- undef
	.loc	2 252 2                         @ ../GUILib/src/extra/libs/qrcode/qrcodegen.c:252:2
	cmp	r0, r4
	bge	.LBB1_38
.Ltmp136:
@ %bb.36:
	@DEBUG_VALUE: qrcodegen_encodeSegmentsAdvanced:dataUsedBits <- $r6
	@DEBUG_VALUE: qrcodegen_encodeSegmentsAdvanced:dataCapacityBits <- $r4
	@DEBUG_VALUE: qrcodegen_encodeSegmentsAdvanced:bitLen <- $r0
	@DEBUG_VALUE: qrcodegen_encodeSegmentsAdvanced:version <- [DW_OP_plus_uconst 44] [$sp+0]
	@DEBUG_VALUE: qrcodegen_encodeSegmentsAdvanced:segs <- [DW_OP_plus_uconst 36] [$sp+0]
	@DEBUG_VALUE: qrcodegen_encodeSegmentsAdvanced:ecl <- [DW_OP_plus_uconst 52] [$sp+0]
	@DEBUG_VALUE: qrcodegen_encodeSegmentsAdvanced:maxVersion <- [DW_OP_plus_uconst 128] [$sp+0]
	@DEBUG_VALUE: qrcodegen_encodeSegmentsAdvanced:mask <- [DW_OP_plus_uconst 132] [$sp+0]
	@DEBUG_VALUE: qrcodegen_encodeSegmentsAdvanced:tempBuffer <- [DW_OP_plus_uconst 140] [$sp+0]
	@DEBUG_VALUE: qrcodegen_encodeSegmentsAdvanced:qrcode <- [DW_OP_plus_uconst 144] [$sp+0]
	.loc	2 0 2 is_stmt 0                 @ ../GUILib/src/extra/libs/qrcode/qrcodegen.c:0:2
	movs	r5, #236
	add	r6, sp, #56
.Ltmp137:
	.p2align	2
.LBB1_37:                               @ =>This Inner Loop Header: Depth=1
	@DEBUG_VALUE: qrcodegen_encodeSegmentsAdvanced:dataCapacityBits <- $r4
	@DEBUG_VALUE: qrcodegen_encodeSegmentsAdvanced:bitLen <- $r0
	@DEBUG_VALUE: qrcodegen_encodeSegmentsAdvanced:version <- [DW_OP_plus_uconst 44] [$sp+0]
	@DEBUG_VALUE: qrcodegen_encodeSegmentsAdvanced:segs <- [DW_OP_plus_uconst 36] [$sp+0]
	@DEBUG_VALUE: qrcodegen_encodeSegmentsAdvanced:ecl <- [DW_OP_plus_uconst 52] [$sp+0]
	@DEBUG_VALUE: qrcodegen_encodeSegmentsAdvanced:maxVersion <- [DW_OP_plus_uconst 128] [$sp+0]
	@DEBUG_VALUE: qrcodegen_encodeSegmentsAdvanced:mask <- [DW_OP_plus_uconst 132] [$sp+0]
	@DEBUG_VALUE: qrcodegen_encodeSegmentsAdvanced:tempBuffer <- [DW_OP_plus_uconst 140] [$sp+0]
	@DEBUG_VALUE: qrcodegen_encodeSegmentsAdvanced:qrcode <- [DW_OP_plus_uconst 144] [$sp+0]
	@DEBUG_VALUE: qrcodegen_encodeSegmentsAdvanced:bitLen <- [DW_OP_plus_uconst 56, DW_OP_deref] $sp
	.loc	2 253 3 is_stmt 1               @ ../GUILib/src/extra/libs/qrcode/qrcodegen.c:253:3
	mov	r0, r5
	movs	r1, #8
	mov	r2, r11
	mov	r3, r6
	bl	appendBitsToBuffer
.Ltmp138:
	.loc	2 252 31                        @ ../GUILib/src/extra/libs/qrcode/qrcodegen.c:252:31
	ldr	r0, [sp, #56]
.Ltmp139:
	@DEBUG_VALUE: qrcodegen_encodeSegmentsAdvanced:bitLen <- $r0
	.loc	2 252 66 is_stmt 0              @ ../GUILib/src/extra/libs/qrcode/qrcodegen.c:252:66
	eor	r5, r5, #253
.Ltmp140:
	@DEBUG_VALUE: padByte <- undef
	.loc	2 252 2                         @ ../GUILib/src/extra/libs/qrcode/qrcodegen.c:252:2
	cmp	r0, r4
	blt	.LBB1_37
.Ltmp141:
.LBB1_38:
	@DEBUG_VALUE: qrcodegen_encodeSegmentsAdvanced:dataCapacityBits <- $r4
	@DEBUG_VALUE: qrcodegen_encodeSegmentsAdvanced:bitLen <- $r0
	@DEBUG_VALUE: qrcodegen_encodeSegmentsAdvanced:version <- [DW_OP_plus_uconst 44] [$sp+0]
	@DEBUG_VALUE: qrcodegen_encodeSegmentsAdvanced:segs <- [DW_OP_plus_uconst 36] [$sp+0]
	@DEBUG_VALUE: qrcodegen_encodeSegmentsAdvanced:ecl <- [DW_OP_plus_uconst 52] [$sp+0]
	@DEBUG_VALUE: qrcodegen_encodeSegmentsAdvanced:maxVersion <- [DW_OP_plus_uconst 128] [$sp+0]
	@DEBUG_VALUE: qrcodegen_encodeSegmentsAdvanced:mask <- [DW_OP_plus_uconst 132] [$sp+0]
	@DEBUG_VALUE: qrcodegen_encodeSegmentsAdvanced:tempBuffer <- [DW_OP_plus_uconst 140] [$sp+0]
	@DEBUG_VALUE: qrcodegen_encodeSegmentsAdvanced:qrcode <- [DW_OP_plus_uconst 144] [$sp+0]
	@DEBUG_VALUE: addEccAndInterleave:data <- $r11
	@DEBUG_VALUE: addEccAndInterleave:version <- [DW_OP_plus_uconst 44] [$sp+0]
	@DEBUG_VALUE: addEccAndInterleave:ecl <- undef
	@DEBUG_VALUE: addEccAndInterleave:result <- undef
	.loc	2 293 2 is_stmt 1               @ ../GUILib/src/extra/libs/qrcode/qrcodegen.c:293:2
	subs	r0, r7, #1
.Ltmp142:
	cmp	r0, #39
	bhi.w	.LBB1_205
.Ltmp143:
@ %bb.39:
	@DEBUG_VALUE: addEccAndInterleave:data <- $r11
	@DEBUG_VALUE: qrcodegen_encodeSegmentsAdvanced:dataCapacityBits <- $r4
	@DEBUG_VALUE: addEccAndInterleave:version <- [DW_OP_plus_uconst 44] [$sp+0]
	@DEBUG_VALUE: qrcodegen_encodeSegmentsAdvanced:version <- [DW_OP_plus_uconst 44] [$sp+0]
	@DEBUG_VALUE: qrcodegen_encodeSegmentsAdvanced:segs <- [DW_OP_plus_uconst 36] [$sp+0]
	@DEBUG_VALUE: qrcodegen_encodeSegmentsAdvanced:ecl <- [DW_OP_plus_uconst 52] [$sp+0]
	@DEBUG_VALUE: qrcodegen_encodeSegmentsAdvanced:maxVersion <- [DW_OP_plus_uconst 128] [$sp+0]
	@DEBUG_VALUE: qrcodegen_encodeSegmentsAdvanced:mask <- [DW_OP_plus_uconst 132] [$sp+0]
	@DEBUG_VALUE: qrcodegen_encodeSegmentsAdvanced:tempBuffer <- [DW_OP_plus_uconst 140] [$sp+0]
	@DEBUG_VALUE: qrcodegen_encodeSegmentsAdvanced:qrcode <- [DW_OP_plus_uconst 144] [$sp+0]
	cmp.w	r9, #4
	bhs.w	.LBB1_205
.Ltmp144:
@ %bb.40:
	@DEBUG_VALUE: addEccAndInterleave:data <- $r11
	@DEBUG_VALUE: qrcodegen_encodeSegmentsAdvanced:dataCapacityBits <- $r4
	@DEBUG_VALUE: addEccAndInterleave:version <- [DW_OP_plus_uconst 44] [$sp+0]
	@DEBUG_VALUE: qrcodegen_encodeSegmentsAdvanced:version <- [DW_OP_plus_uconst 44] [$sp+0]
	@DEBUG_VALUE: qrcodegen_encodeSegmentsAdvanced:segs <- [DW_OP_plus_uconst 36] [$sp+0]
	@DEBUG_VALUE: qrcodegen_encodeSegmentsAdvanced:ecl <- [DW_OP_plus_uconst 52] [$sp+0]
	@DEBUG_VALUE: qrcodegen_encodeSegmentsAdvanced:maxVersion <- [DW_OP_plus_uconst 128] [$sp+0]
	@DEBUG_VALUE: qrcodegen_encodeSegmentsAdvanced:mask <- [DW_OP_plus_uconst 132] [$sp+0]
	@DEBUG_VALUE: qrcodegen_encodeSegmentsAdvanced:tempBuffer <- [DW_OP_plus_uconst 140] [$sp+0]
	@DEBUG_VALUE: qrcodegen_encodeSegmentsAdvanced:qrcode <- [DW_OP_plus_uconst 144] [$sp+0]
	.loc	2 295 20                        @ ../GUILib/src/extra/libs/qrcode/qrcodegen.c:295:20
	movw	r0, :lower16:ECC_CODEWORDS_PER_BLOCK
	movs	r4, #41
.Ltmp145:
	@DEBUG_VALUE: addEccAndInterleave:numBlocks <- undef
	movt	r0, :upper16:ECC_CODEWORDS_PER_BLOCK
	smlabb	r0, r9, r4, r0
	ldrsb.w	r8, [r0, r7]
.Ltmp146:
	@DEBUG_VALUE: addEccAndInterleave:blockEccLen <- $r8
	.loc	2 296 21                        @ ../GUILib/src/extra/libs/qrcode/qrcodegen.c:296:21
	mov	r0, r7
	bl	getNumRawDataModules
.Ltmp147:
	mov	r5, r0
.Ltmp148:
	@DEBUG_VALUE: addEccAndInterleave:rawCodewords <- undef
	.loc	2 297 16                        @ ../GUILib/src/extra/libs/qrcode/qrcodegen.c:297:16
	mov	r0, r7
	mov	r1, r9
	bl	getNumDataCodewords
.Ltmp149:
	.loc	2 355 2                         @ ../GUILib/src/extra/libs/qrcode/qrcodegen.c:355:2
	sub.w	r6, r8, #1
	cmp	r6, #30
.Ltmp150:
	.loc	2 297 16                        @ ../GUILib/src/extra/libs/qrcode/qrcodegen.c:297:16
	str	r0, [sp, #52]                   @ 4-byte Spill
.Ltmp151:
	@DEBUG_VALUE: calcReedSolomonGenerator:degree <- $r8
	@DEBUG_VALUE: calcReedSolomonGenerator:result <- undef
	@DEBUG_VALUE: addEccAndInterleave:shortBlockDataLen <- undef
	@DEBUG_VALUE: addEccAndInterleave:numShortBlocks <- undef
	@DEBUG_VALUE: addEccAndInterleave:dataLen <- [DW_OP_plus_uconst 52] [$sp+0]
	.loc	2 355 2                         @ ../GUILib/src/extra/libs/qrcode/qrcodegen.c:355:2
	bhs.w	.LBB1_206
.Ltmp152:
@ %bb.41:
	@DEBUG_VALUE: addEccAndInterleave:data <- $r11
	@DEBUG_VALUE: calcReedSolomonGenerator:degree <- $r8
	@DEBUG_VALUE: addEccAndInterleave:blockEccLen <- $r8
	@DEBUG_VALUE: addEccAndInterleave:dataLen <- [DW_OP_plus_uconst 52] [$sp+0]
	@DEBUG_VALUE: addEccAndInterleave:version <- [DW_OP_plus_uconst 44] [$sp+0]
	@DEBUG_VALUE: qrcodegen_encodeSegmentsAdvanced:version <- [DW_OP_plus_uconst 44] [$sp+0]
	@DEBUG_VALUE: qrcodegen_encodeSegmentsAdvanced:segs <- [DW_OP_plus_uconst 36] [$sp+0]
	@DEBUG_VALUE: qrcodegen_encodeSegmentsAdvanced:ecl <- [DW_OP_plus_uconst 52] [$sp+0]
	@DEBUG_VALUE: qrcodegen_encodeSegmentsAdvanced:maxVersion <- [DW_OP_plus_uconst 128] [$sp+0]
	@DEBUG_VALUE: qrcodegen_encodeSegmentsAdvanced:mask <- [DW_OP_plus_uconst 132] [$sp+0]
	@DEBUG_VALUE: qrcodegen_encodeSegmentsAdvanced:tempBuffer <- [DW_OP_plus_uconst 140] [$sp+0]
	@DEBUG_VALUE: qrcodegen_encodeSegmentsAdvanced:qrcode <- [DW_OP_plus_uconst 144] [$sp+0]
	.loc	2 0 2 is_stmt 0                 @ ../GUILib/src/extra/libs/qrcode/qrcodegen.c:0:2
	movw	r0, :lower16:NUM_ERROR_CORRECTION_BLOCKS
	movt	r0, :upper16:NUM_ERROR_CORRECTION_BLOCKS
	smlabb	r0, r9, r4, r0
	ldrsb	r2, [r0, r7]
.Ltmp153:
	@DEBUG_VALUE: addEccAndInterleave:numBlocks <- $r2
	asrs	r0, r5, #31
	add.w	r0, r5, r0, lsr #29
	asrs	r0, r0, #3
.Ltmp154:
	@DEBUG_VALUE: addEccAndInterleave:rawCodewords <- $r0
	sdiv	r10, r0, r2
	add	r4, sp, #60
	mul	r1, r10, r2
	subs	r0, r1, r0
.Ltmp155:
	add	r0, r2
.Ltmp156:
	@DEBUG_VALUE: addEccAndInterleave:numShortBlocks <- $r0
	str	r0, [sp, #12]                   @ 4-byte Spill
.Ltmp157:
	@DEBUG_VALUE: addEccAndInterleave:numShortBlocks <- [DW_OP_plus_uconst 12] [$sp+0]
	@DEBUG_VALUE: addEccAndInterleave:numShortBlocks <- [DW_OP_plus_uconst 12] [$sp+0]
	sub.w	r0, r10, r8
.Ltmp158:
	@DEBUG_VALUE: addEccAndInterleave:shortBlockDataLen <- $r0
	.loc	2 356 2 is_stmt 1               @ ../GUILib/src/extra/libs/qrcode/qrcodegen.c:356:2
	str	r0, [sp, #20]                   @ 4-byte Spill
.Ltmp159:
	@DEBUG_VALUE: addEccAndInterleave:shortBlockDataLen <- [DW_OP_plus_uconst 20] [$sp+0]
	@DEBUG_VALUE: addEccAndInterleave:shortBlockDataLen <- [DW_OP_plus_uconst 20] [$sp+0]
	mov	r0, r4
	mov	r1, r8
	str.w	r9, [sp, #4]                    @ 4-byte Spill
	str	r2, [sp, #16]                   @ 4-byte Spill
.Ltmp160:
	@DEBUG_VALUE: addEccAndInterleave:numBlocks <- [DW_OP_plus_uconst 16] [$sp+0]
	@DEBUG_VALUE: addEccAndInterleave:numBlocks <- [DW_OP_plus_uconst 16] [$sp+0]
	bl	__aeabi_memclr4
.Ltmp161:
	.loc	2 0 2 is_stmt 0                 @ ../GUILib/src/extra/libs/qrcode/qrcodegen.c:0:2
	mov.w	lr, #1
	mov.w	r12, #0
	@DEBUG_VALUE: i <- 0
.Ltmp162:
	@DEBUG_VALUE: calcReedSolomonGenerator:root <- 1
	movs	r2, #29
	str	r6, [sp, #40]                   @ 4-byte Spill
	.loc	2 357 21 is_stmt 1              @ ../GUILib/src/extra/libs/qrcode/qrcodegen.c:357:21
	strb.w	lr, [r4, r6]
.Ltmp163:
	.p2align	2
.LBB1_42:                               @ =>This Loop Header: Depth=1
                                        @     Child Loop BB1_43 Depth 2
                                        @       Child Loop BB1_44 Depth 3
	@DEBUG_VALUE: addEccAndInterleave:data <- $r11
	@DEBUG_VALUE: calcReedSolomonGenerator:degree <- $r8
	@DEBUG_VALUE: addEccAndInterleave:blockEccLen <- $r8
	@DEBUG_VALUE: addEccAndInterleave:numBlocks <- [DW_OP_plus_uconst 16] [$sp+0]
	@DEBUG_VALUE: addEccAndInterleave:shortBlockDataLen <- [DW_OP_plus_uconst 20] [$sp+0]
	@DEBUG_VALUE: addEccAndInterleave:numShortBlocks <- [DW_OP_plus_uconst 12] [$sp+0]
	@DEBUG_VALUE: addEccAndInterleave:dataLen <- [DW_OP_plus_uconst 52] [$sp+0]
	@DEBUG_VALUE: addEccAndInterleave:version <- [DW_OP_plus_uconst 44] [$sp+0]
	@DEBUG_VALUE: qrcodegen_encodeSegmentsAdvanced:version <- [DW_OP_plus_uconst 44] [$sp+0]
	@DEBUG_VALUE: qrcodegen_encodeSegmentsAdvanced:segs <- [DW_OP_plus_uconst 36] [$sp+0]
	@DEBUG_VALUE: qrcodegen_encodeSegmentsAdvanced:ecl <- [DW_OP_plus_uconst 52] [$sp+0]
	@DEBUG_VALUE: qrcodegen_encodeSegmentsAdvanced:maxVersion <- [DW_OP_plus_uconst 128] [$sp+0]
	@DEBUG_VALUE: qrcodegen_encodeSegmentsAdvanced:mask <- [DW_OP_plus_uconst 132] [$sp+0]
	@DEBUG_VALUE: qrcodegen_encodeSegmentsAdvanced:tempBuffer <- [DW_OP_plus_uconst 140] [$sp+0]
	@DEBUG_VALUE: qrcodegen_encodeSegmentsAdvanced:qrcode <- [DW_OP_plus_uconst 144] [$sp+0]
	@DEBUG_VALUE: calcReedSolomonGenerator:root <- $lr
	.loc	2 0 21 is_stmt 0                @ ../GUILib/src/extra/libs/qrcode/qrcodegen.c:0:21
	uxtb.w	r3, lr
	movs	r0, #0
	@DEBUG_VALUE: j <- 0
	@DEBUG_VALUE: i <- $r12
.Ltmp164:
	.p2align	2
.LBB1_43:                               @   Parent Loop BB1_42 Depth=1
                                        @ =>  This Loop Header: Depth=2
                                        @       Child Loop BB1_44 Depth 3
	@DEBUG_VALUE: i <- $r12
	@DEBUG_VALUE: addEccAndInterleave:data <- $r11
	@DEBUG_VALUE: calcReedSolomonGenerator:degree <- $r8
	@DEBUG_VALUE: addEccAndInterleave:blockEccLen <- $r8
	@DEBUG_VALUE: addEccAndInterleave:numBlocks <- [DW_OP_plus_uconst 16] [$sp+0]
	@DEBUG_VALUE: addEccAndInterleave:shortBlockDataLen <- [DW_OP_plus_uconst 20] [$sp+0]
	@DEBUG_VALUE: addEccAndInterleave:numShortBlocks <- [DW_OP_plus_uconst 12] [$sp+0]
	@DEBUG_VALUE: addEccAndInterleave:dataLen <- [DW_OP_plus_uconst 52] [$sp+0]
	@DEBUG_VALUE: addEccAndInterleave:version <- [DW_OP_plus_uconst 44] [$sp+0]
	@DEBUG_VALUE: qrcodegen_encodeSegmentsAdvanced:version <- [DW_OP_plus_uconst 44] [$sp+0]
	@DEBUG_VALUE: qrcodegen_encodeSegmentsAdvanced:segs <- [DW_OP_plus_uconst 36] [$sp+0]
	@DEBUG_VALUE: qrcodegen_encodeSegmentsAdvanced:ecl <- [DW_OP_plus_uconst 52] [$sp+0]
	@DEBUG_VALUE: qrcodegen_encodeSegmentsAdvanced:maxVersion <- [DW_OP_plus_uconst 128] [$sp+0]
	@DEBUG_VALUE: qrcodegen_encodeSegmentsAdvanced:mask <- [DW_OP_plus_uconst 132] [$sp+0]
	@DEBUG_VALUE: qrcodegen_encodeSegmentsAdvanced:tempBuffer <- [DW_OP_plus_uconst 140] [$sp+0]
	@DEBUG_VALUE: qrcodegen_encodeSegmentsAdvanced:qrcode <- [DW_OP_plus_uconst 144] [$sp+0]
	@DEBUG_VALUE: calcReedSolomonGenerator:root <- $lr
	mov	r7, r0
.Ltmp165:
	.loc	2 366 36 is_stmt 1              @ ../GUILib/src/extra/libs/qrcode/qrcodegen.c:366:36
	add	r0, sp, #60
.Ltmp166:
	@DEBUG_VALUE: j <- $r7
	ldrb	r4, [r0, r7]
	movs	r1, #0
	movs	r0, #7
	@DEBUG_VALUE: i <- 7
	@DEBUG_VALUE: finiteFieldMultiply:z <- 0
	@DEBUG_VALUE: finiteFieldMultiply:y <- $lr
	@DEBUG_VALUE: finiteFieldMultiply:x <- undef
.Ltmp167:
	.p2align	2
.LBB1_44:                               @   Parent Loop BB1_42 Depth=1
                                        @     Parent Loop BB1_43 Depth=2
                                        @ =>    This Inner Loop Header: Depth=3
	@DEBUG_VALUE: i <- $r12
	@DEBUG_VALUE: addEccAndInterleave:data <- $r11
	@DEBUG_VALUE: calcReedSolomonGenerator:degree <- $r8
	@DEBUG_VALUE: addEccAndInterleave:blockEccLen <- $r8
	@DEBUG_VALUE: j <- $r7
	@DEBUG_VALUE: addEccAndInterleave:numBlocks <- [DW_OP_plus_uconst 16] [$sp+0]
	@DEBUG_VALUE: addEccAndInterleave:shortBlockDataLen <- [DW_OP_plus_uconst 20] [$sp+0]
	@DEBUG_VALUE: addEccAndInterleave:numShortBlocks <- [DW_OP_plus_uconst 12] [$sp+0]
	@DEBUG_VALUE: addEccAndInterleave:dataLen <- [DW_OP_plus_uconst 52] [$sp+0]
	@DEBUG_VALUE: addEccAndInterleave:version <- [DW_OP_plus_uconst 44] [$sp+0]
	@DEBUG_VALUE: qrcodegen_encodeSegmentsAdvanced:version <- [DW_OP_plus_uconst 44] [$sp+0]
	@DEBUG_VALUE: qrcodegen_encodeSegmentsAdvanced:segs <- [DW_OP_plus_uconst 36] [$sp+0]
	@DEBUG_VALUE: qrcodegen_encodeSegmentsAdvanced:ecl <- [DW_OP_plus_uconst 52] [$sp+0]
	@DEBUG_VALUE: qrcodegen_encodeSegmentsAdvanced:maxVersion <- [DW_OP_plus_uconst 128] [$sp+0]
	@DEBUG_VALUE: qrcodegen_encodeSegmentsAdvanced:mask <- [DW_OP_plus_uconst 132] [$sp+0]
	@DEBUG_VALUE: qrcodegen_encodeSegmentsAdvanced:tempBuffer <- [DW_OP_plus_uconst 140] [$sp+0]
	@DEBUG_VALUE: qrcodegen_encodeSegmentsAdvanced:qrcode <- [DW_OP_plus_uconst 144] [$sp+0]
	@DEBUG_VALUE: finiteFieldMultiply:y <- $lr
	@DEBUG_VALUE: calcReedSolomonGenerator:root <- $lr
	@DEBUG_VALUE: finiteFieldMultiply:z <- $r1
	@DEBUG_VALUE: i <- $r0
	.loc	2 401 10                        @ ../GUILib/src/extra/libs/qrcode/qrcodegen.c:401:10
	sxtb	r5, r1
	.loc	2 401 28 is_stmt 0              @ ../GUILib/src/extra/libs/qrcode/qrcodegen.c:401:28
	and.w	r5, r2, r5, lsr #7
	.loc	2 401 16                        @ ../GUILib/src/extra/libs/qrcode/qrcodegen.c:401:16
	eor.w	r1, r5, r1, lsl #1
.Ltmp168:
	@DEBUG_VALUE: finiteFieldMultiply:z <- $r1
	.loc	2 402 12 is_stmt 1              @ ../GUILib/src/extra/libs/qrcode/qrcodegen.c:402:12
	lsr.w	r5, r3, r0
	.loc	2 402 5 is_stmt 0               @ ../GUILib/src/extra/libs/qrcode/qrcodegen.c:402:5
	and	r5, r5, #1
	muls	r5, r4, r5
.Ltmp169:
	.loc	2 400 27 is_stmt 1              @ ../GUILib/src/extra/libs/qrcode/qrcodegen.c:400:27
	subs	r0, #1
.Ltmp170:
	@DEBUG_VALUE: i <- $r0
	.loc	2 400 2 is_stmt 0               @ ../GUILib/src/extra/libs/qrcode/qrcodegen.c:400:2
	adds	r6, r0, #1
.Ltmp171:
	.loc	2 402 5 is_stmt 1               @ ../GUILib/src/extra/libs/qrcode/qrcodegen.c:402:5
	eor.w	r1, r1, r5
.Ltmp172:
	@DEBUG_VALUE: finiteFieldMultiply:z <- $r1
	.loc	2 0 5 is_stmt 0                 @ ../GUILib/src/extra/libs/qrcode/qrcodegen.c:0:5
	bne	.LBB1_44
.Ltmp173:
@ %bb.45:                               @   in Loop: Header=BB1_43 Depth=2
	@DEBUG_VALUE: i <- $r12
	@DEBUG_VALUE: addEccAndInterleave:data <- $r11
	@DEBUG_VALUE: calcReedSolomonGenerator:degree <- $r8
	@DEBUG_VALUE: addEccAndInterleave:blockEccLen <- $r8
	@DEBUG_VALUE: j <- $r7
	@DEBUG_VALUE: addEccAndInterleave:numBlocks <- [DW_OP_plus_uconst 16] [$sp+0]
	@DEBUG_VALUE: addEccAndInterleave:shortBlockDataLen <- [DW_OP_plus_uconst 20] [$sp+0]
	@DEBUG_VALUE: addEccAndInterleave:numShortBlocks <- [DW_OP_plus_uconst 12] [$sp+0]
	@DEBUG_VALUE: addEccAndInterleave:dataLen <- [DW_OP_plus_uconst 52] [$sp+0]
	@DEBUG_VALUE: addEccAndInterleave:version <- [DW_OP_plus_uconst 44] [$sp+0]
	@DEBUG_VALUE: qrcodegen_encodeSegmentsAdvanced:version <- [DW_OP_plus_uconst 44] [$sp+0]
	@DEBUG_VALUE: qrcodegen_encodeSegmentsAdvanced:segs <- [DW_OP_plus_uconst 36] [$sp+0]
	@DEBUG_VALUE: qrcodegen_encodeSegmentsAdvanced:ecl <- [DW_OP_plus_uconst 52] [$sp+0]
	@DEBUG_VALUE: qrcodegen_encodeSegmentsAdvanced:maxVersion <- [DW_OP_plus_uconst 128] [$sp+0]
	@DEBUG_VALUE: qrcodegen_encodeSegmentsAdvanced:mask <- [DW_OP_plus_uconst 132] [$sp+0]
	@DEBUG_VALUE: qrcodegen_encodeSegmentsAdvanced:tempBuffer <- [DW_OP_plus_uconst 140] [$sp+0]
	@DEBUG_VALUE: qrcodegen_encodeSegmentsAdvanced:qrcode <- [DW_OP_plus_uconst 144] [$sp+0]
	@DEBUG_VALUE: calcReedSolomonGenerator:root <- $lr
	.loc	2 367 10 is_stmt 1              @ ../GUILib/src/extra/libs/qrcode/qrcodegen.c:367:10
	adds	r0, r7, #1
.Ltmp174:
	.loc	2 367 8 is_stmt 0               @ ../GUILib/src/extra/libs/qrcode/qrcodegen.c:367:8
	cmp	r0, r8
	.loc	2 366 14 is_stmt 1              @ ../GUILib/src/extra/libs/qrcode/qrcodegen.c:366:14
	add	r4, sp, #60
	strb	r1, [r4, r7]
	bge	.LBB1_47
.Ltmp175:
@ %bb.46:                               @   in Loop: Header=BB1_43 Depth=2
	@DEBUG_VALUE: i <- $r12
	@DEBUG_VALUE: addEccAndInterleave:data <- $r11
	@DEBUG_VALUE: calcReedSolomonGenerator:degree <- $r8
	@DEBUG_VALUE: addEccAndInterleave:blockEccLen <- $r8
	@DEBUG_VALUE: j <- $r7
	@DEBUG_VALUE: addEccAndInterleave:numBlocks <- [DW_OP_plus_uconst 16] [$sp+0]
	@DEBUG_VALUE: addEccAndInterleave:shortBlockDataLen <- [DW_OP_plus_uconst 20] [$sp+0]
	@DEBUG_VALUE: addEccAndInterleave:numShortBlocks <- [DW_OP_plus_uconst 12] [$sp+0]
	@DEBUG_VALUE: addEccAndInterleave:dataLen <- [DW_OP_plus_uconst 52] [$sp+0]
	@DEBUG_VALUE: addEccAndInterleave:version <- [DW_OP_plus_uconst 44] [$sp+0]
	@DEBUG_VALUE: qrcodegen_encodeSegmentsAdvanced:version <- [DW_OP_plus_uconst 44] [$sp+0]
	@DEBUG_VALUE: qrcodegen_encodeSegmentsAdvanced:segs <- [DW_OP_plus_uconst 36] [$sp+0]
	@DEBUG_VALUE: qrcodegen_encodeSegmentsAdvanced:ecl <- [DW_OP_plus_uconst 52] [$sp+0]
	@DEBUG_VALUE: qrcodegen_encodeSegmentsAdvanced:maxVersion <- [DW_OP_plus_uconst 128] [$sp+0]
	@DEBUG_VALUE: qrcodegen_encodeSegmentsAdvanced:mask <- [DW_OP_plus_uconst 132] [$sp+0]
	@DEBUG_VALUE: qrcodegen_encodeSegmentsAdvanced:tempBuffer <- [DW_OP_plus_uconst 140] [$sp+0]
	@DEBUG_VALUE: qrcodegen_encodeSegmentsAdvanced:qrcode <- [DW_OP_plus_uconst 144] [$sp+0]
	@DEBUG_VALUE: calcReedSolomonGenerator:root <- $lr
	.loc	2 0 14 is_stmt 0                @ ../GUILib/src/extra/libs/qrcode/qrcodegen.c:0:14
	add	r5, sp, #60
.Ltmp176:
	.loc	2 368 18 is_stmt 1              @ ../GUILib/src/extra/libs/qrcode/qrcodegen.c:368:18
	ldrb	r4, [r5, r0]
	.loc	2 368 15 is_stmt 0              @ ../GUILib/src/extra/libs/qrcode/qrcodegen.c:368:15
	eors	r1, r4
	strb	r1, [r5, r7]
.Ltmp177:
.LBB1_47:                               @   in Loop: Header=BB1_43 Depth=2
	@DEBUG_VALUE: i <- $r12
	@DEBUG_VALUE: addEccAndInterleave:data <- $r11
	@DEBUG_VALUE: calcReedSolomonGenerator:degree <- $r8
	@DEBUG_VALUE: addEccAndInterleave:blockEccLen <- $r8
	@DEBUG_VALUE: j <- $r7
	@DEBUG_VALUE: addEccAndInterleave:numBlocks <- [DW_OP_plus_uconst 16] [$sp+0]
	@DEBUG_VALUE: addEccAndInterleave:shortBlockDataLen <- [DW_OP_plus_uconst 20] [$sp+0]
	@DEBUG_VALUE: addEccAndInterleave:numShortBlocks <- [DW_OP_plus_uconst 12] [$sp+0]
	@DEBUG_VALUE: addEccAndInterleave:dataLen <- [DW_OP_plus_uconst 52] [$sp+0]
	@DEBUG_VALUE: addEccAndInterleave:version <- [DW_OP_plus_uconst 44] [$sp+0]
	@DEBUG_VALUE: qrcodegen_encodeSegmentsAdvanced:version <- [DW_OP_plus_uconst 44] [$sp+0]
	@DEBUG_VALUE: qrcodegen_encodeSegmentsAdvanced:segs <- [DW_OP_plus_uconst 36] [$sp+0]
	@DEBUG_VALUE: qrcodegen_encodeSegmentsAdvanced:ecl <- [DW_OP_plus_uconst 52] [$sp+0]
	@DEBUG_VALUE: qrcodegen_encodeSegmentsAdvanced:maxVersion <- [DW_OP_plus_uconst 128] [$sp+0]
	@DEBUG_VALUE: qrcodegen_encodeSegmentsAdvanced:mask <- [DW_OP_plus_uconst 132] [$sp+0]
	@DEBUG_VALUE: qrcodegen_encodeSegmentsAdvanced:tempBuffer <- [DW_OP_plus_uconst 140] [$sp+0]
	@DEBUG_VALUE: qrcodegen_encodeSegmentsAdvanced:qrcode <- [DW_OP_plus_uconst 144] [$sp+0]
	@DEBUG_VALUE: calcReedSolomonGenerator:root <- $lr
	@DEBUG_VALUE: j <- $r0
	.loc	2 365 3 is_stmt 1               @ ../GUILib/src/extra/libs/qrcode/qrcodegen.c:365:3
	cmp	r0, r8
	bne	.LBB1_43
.Ltmp178:
@ %bb.48:                               @   in Loop: Header=BB1_42 Depth=1
	@DEBUG_VALUE: i <- $r12
	@DEBUG_VALUE: addEccAndInterleave:data <- $r11
	@DEBUG_VALUE: calcReedSolomonGenerator:degree <- $r8
	@DEBUG_VALUE: addEccAndInterleave:blockEccLen <- $r8
	@DEBUG_VALUE: addEccAndInterleave:numBlocks <- [DW_OP_plus_uconst 16] [$sp+0]
	@DEBUG_VALUE: addEccAndInterleave:shortBlockDataLen <- [DW_OP_plus_uconst 20] [$sp+0]
	@DEBUG_VALUE: addEccAndInterleave:numShortBlocks <- [DW_OP_plus_uconst 12] [$sp+0]
	@DEBUG_VALUE: addEccAndInterleave:dataLen <- [DW_OP_plus_uconst 52] [$sp+0]
	@DEBUG_VALUE: addEccAndInterleave:version <- [DW_OP_plus_uconst 44] [$sp+0]
	@DEBUG_VALUE: qrcodegen_encodeSegmentsAdvanced:version <- [DW_OP_plus_uconst 44] [$sp+0]
	@DEBUG_VALUE: qrcodegen_encodeSegmentsAdvanced:segs <- [DW_OP_plus_uconst 36] [$sp+0]
	@DEBUG_VALUE: qrcodegen_encodeSegmentsAdvanced:ecl <- [DW_OP_plus_uconst 52] [$sp+0]
	@DEBUG_VALUE: qrcodegen_encodeSegmentsAdvanced:maxVersion <- [DW_OP_plus_uconst 128] [$sp+0]
	@DEBUG_VALUE: qrcodegen_encodeSegmentsAdvanced:mask <- [DW_OP_plus_uconst 132] [$sp+0]
	@DEBUG_VALUE: qrcodegen_encodeSegmentsAdvanced:tempBuffer <- [DW_OP_plus_uconst 140] [$sp+0]
	@DEBUG_VALUE: qrcodegen_encodeSegmentsAdvanced:qrcode <- [DW_OP_plus_uconst 144] [$sp+0]
	@DEBUG_VALUE: calcReedSolomonGenerator:root <- $lr
	@DEBUG_VALUE: i <- 0
	@DEBUG_VALUE: finiteFieldMultiply:z <- $lr
	.loc	2 401 10                        @ ../GUILib/src/extra/libs/qrcode/qrcodegen.c:401:10
	sxtb.w	r0, lr
	.loc	2 401 28 is_stmt 0              @ ../GUILib/src/extra/libs/qrcode/qrcodegen.c:401:28
	and.w	r0, r2, r0, lsr #7
.Ltmp179:
	.loc	2 363 31 is_stmt 1              @ ../GUILib/src/extra/libs/qrcode/qrcodegen.c:363:31
	add.w	r12, r12, #1
.Ltmp180:
	@DEBUG_VALUE: i <- $r12
	.loc	2 363 2 is_stmt 0               @ ../GUILib/src/extra/libs/qrcode/qrcodegen.c:363:2
	cmp	r12, r8
.Ltmp181:
	.loc	2 401 16 is_stmt 1              @ ../GUILib/src/extra/libs/qrcode/qrcodegen.c:401:16
	eor.w	lr, r0, lr, lsl #1
.Ltmp182:
	@DEBUG_VALUE: finiteFieldMultiply:z <- $lr
	@DEBUG_VALUE: i <- -1
	@DEBUG_VALUE: i <- 0
	@DEBUG_VALUE: calcReedSolomonGenerator:root <- $lr
	.loc	2 363 2                         @ ../GUILib/src/extra/libs/qrcode/qrcodegen.c:363:2
	bne	.LBB1_42
.Ltmp183:
@ %bb.49:
	@DEBUG_VALUE: addEccAndInterleave:data <- $r11
	@DEBUG_VALUE: addEccAndInterleave:blockEccLen <- $r8
	@DEBUG_VALUE: addEccAndInterleave:numBlocks <- [DW_OP_plus_uconst 16] [$sp+0]
	@DEBUG_VALUE: addEccAndInterleave:shortBlockDataLen <- [DW_OP_plus_uconst 20] [$sp+0]
	@DEBUG_VALUE: addEccAndInterleave:numShortBlocks <- [DW_OP_plus_uconst 12] [$sp+0]
	@DEBUG_VALUE: addEccAndInterleave:dataLen <- [DW_OP_plus_uconst 52] [$sp+0]
	@DEBUG_VALUE: addEccAndInterleave:version <- [DW_OP_plus_uconst 44] [$sp+0]
	@DEBUG_VALUE: qrcodegen_encodeSegmentsAdvanced:version <- [DW_OP_plus_uconst 44] [$sp+0]
	@DEBUG_VALUE: qrcodegen_encodeSegmentsAdvanced:segs <- [DW_OP_plus_uconst 36] [$sp+0]
	@DEBUG_VALUE: qrcodegen_encodeSegmentsAdvanced:ecl <- [DW_OP_plus_uconst 52] [$sp+0]
	@DEBUG_VALUE: qrcodegen_encodeSegmentsAdvanced:maxVersion <- [DW_OP_plus_uconst 128] [$sp+0]
	@DEBUG_VALUE: qrcodegen_encodeSegmentsAdvanced:mask <- [DW_OP_plus_uconst 132] [$sp+0]
	@DEBUG_VALUE: qrcodegen_encodeSegmentsAdvanced:tempBuffer <- [DW_OP_plus_uconst 140] [$sp+0]
	@DEBUG_VALUE: qrcodegen_encodeSegmentsAdvanced:qrcode <- [DW_OP_plus_uconst 144] [$sp+0]
	@DEBUG_VALUE: addEccAndInterleave:dat <- $r11
	@DEBUG_VALUE: i <- 0
	.loc	2 0 2 is_stmt 0                 @ ../GUILib/src/extra/libs/qrcode/qrcodegen.c:0:2
	ldr	r4, [sp, #16]                   @ 4-byte Reload
	ldr	r0, [sp, #140]
	ldr.w	r9, [sp, #12]                   @ 4-byte Reload
.Ltmp184:
	.loc	2 306 2 is_stmt 1               @ ../GUILib/src/extra/libs/qrcode/qrcodegen.c:306:2
	cmp	r4, #1
	blt.w	.LBB1_63
.Ltmp185:
@ %bb.50:
	@DEBUG_VALUE: addEccAndInterleave:dat <- $r11
	@DEBUG_VALUE: addEccAndInterleave:data <- $r11
	@DEBUG_VALUE: addEccAndInterleave:blockEccLen <- $r8
	@DEBUG_VALUE: addEccAndInterleave:numBlocks <- [DW_OP_plus_uconst 16] [$sp+0]
	@DEBUG_VALUE: addEccAndInterleave:shortBlockDataLen <- [DW_OP_plus_uconst 20] [$sp+0]
	@DEBUG_VALUE: addEccAndInterleave:numShortBlocks <- [DW_OP_plus_uconst 12] [$sp+0]
	@DEBUG_VALUE: addEccAndInterleave:dataLen <- [DW_OP_plus_uconst 52] [$sp+0]
	@DEBUG_VALUE: addEccAndInterleave:version <- [DW_OP_plus_uconst 44] [$sp+0]
	@DEBUG_VALUE: qrcodegen_encodeSegmentsAdvanced:version <- [DW_OP_plus_uconst 44] [$sp+0]
	@DEBUG_VALUE: qrcodegen_encodeSegmentsAdvanced:segs <- [DW_OP_plus_uconst 36] [$sp+0]
	@DEBUG_VALUE: qrcodegen_encodeSegmentsAdvanced:ecl <- [DW_OP_plus_uconst 52] [$sp+0]
	@DEBUG_VALUE: qrcodegen_encodeSegmentsAdvanced:maxVersion <- [DW_OP_plus_uconst 128] [$sp+0]
	@DEBUG_VALUE: qrcodegen_encodeSegmentsAdvanced:mask <- [DW_OP_plus_uconst 132] [$sp+0]
	@DEBUG_VALUE: qrcodegen_encodeSegmentsAdvanced:tempBuffer <- [DW_OP_plus_uconst 140] [$sp+0]
	@DEBUG_VALUE: qrcodegen_encodeSegmentsAdvanced:qrcode <- [DW_OP_plus_uconst 144] [$sp+0]
	@DEBUG_VALUE: i <- 0
	.loc	2 0 2 is_stmt 0                 @ ../GUILib/src/extra/libs/qrcode/qrcodegen.c:0:2
	ldr	r2, [sp, #52]                   @ 4-byte Reload
	str.w	r11, [sp, #52]                  @ 4-byte Spill
	add.w	r7, r11, r2
	adds	r1, r7, #1
	.loc	2 306 2                         @ ../GUILib/src/extra/libs/qrcode/qrcodegen.c:306:2
	str	r1, [sp, #36]                   @ 4-byte Spill
	sub.w	r1, r8, r10
	add.w	r12, r0, r2
	movs	r0, #0
	mov.w	r10, #29
	str	r1, [sp, #8]                    @ 4-byte Spill
.Ltmp186:
	.p2align	2
.LBB1_51:                               @ =>This Loop Header: Depth=1
                                        @     Child Loop BB1_53 Depth 2
                                        @       Child Loop BB1_54 Depth 3
                                        @         Child Loop BB1_55 Depth 4
                                        @     Child Loop BB1_59 Depth 2
                                        @     Child Loop BB1_61 Depth 2
	@DEBUG_VALUE: addEccAndInterleave:data <- $r11
	@DEBUG_VALUE: addEccAndInterleave:blockEccLen <- $r8
	@DEBUG_VALUE: addEccAndInterleave:numBlocks <- [DW_OP_plus_uconst 16] [$sp+0]
	@DEBUG_VALUE: addEccAndInterleave:shortBlockDataLen <- [DW_OP_plus_uconst 20] [$sp+0]
	@DEBUG_VALUE: addEccAndInterleave:numShortBlocks <- [DW_OP_plus_uconst 12] [$sp+0]
	@DEBUG_VALUE: addEccAndInterleave:dataLen <- [DW_OP_plus_uconst 52] [$sp+0]
	@DEBUG_VALUE: addEccAndInterleave:version <- [DW_OP_plus_uconst 44] [$sp+0]
	@DEBUG_VALUE: qrcodegen_encodeSegmentsAdvanced:version <- [DW_OP_plus_uconst 44] [$sp+0]
	@DEBUG_VALUE: qrcodegen_encodeSegmentsAdvanced:segs <- [DW_OP_plus_uconst 36] [$sp+0]
	@DEBUG_VALUE: qrcodegen_encodeSegmentsAdvanced:ecl <- [DW_OP_plus_uconst 52] [$sp+0]
	@DEBUG_VALUE: qrcodegen_encodeSegmentsAdvanced:maxVersion <- [DW_OP_plus_uconst 128] [$sp+0]
	@DEBUG_VALUE: qrcodegen_encodeSegmentsAdvanced:mask <- [DW_OP_plus_uconst 132] [$sp+0]
	@DEBUG_VALUE: qrcodegen_encodeSegmentsAdvanced:tempBuffer <- [DW_OP_plus_uconst 140] [$sp+0]
	@DEBUG_VALUE: qrcodegen_encodeSegmentsAdvanced:qrcode <- [DW_OP_plus_uconst 144] [$sp+0]
	@DEBUG_VALUE: addEccAndInterleave:dat <- [DW_OP_plus_uconst 52] [$sp+0]
	@DEBUG_VALUE: i <- $r0
	.loc	2 307 39 is_stmt 1              @ ../GUILib/src/extra/libs/qrcode/qrcodegen.c:307:39
	movs	r5, #0
	strd	r0, r12, [sp, #28]              @ 8-byte Folded Spill
.Ltmp187:
	@DEBUG_VALUE: i <- [DW_OP_plus_uconst 28] [$sp+0]
	cmp	r0, r9
	it	ge
	movge	r5, #1
	.loc	2 307 34 is_stmt 0              @ ../GUILib/src/extra/libs/qrcode/qrcodegen.c:307:34
	ldr	r0, [sp, #20]                   @ 4-byte Reload
.Ltmp188:
	.loc	2 382 2 is_stmt 1               @ ../GUILib/src/extra/libs/qrcode/qrcodegen.c:382:2
	mov	r1, r8
.Ltmp189:
	.loc	2 307 34                        @ ../GUILib/src/extra/libs/qrcode/qrcodegen.c:307:34
	adds	r6, r0, r5
.Ltmp190:
	@DEBUG_VALUE: calcReedSolomonRemainder:result <- $r7
	@DEBUG_VALUE: calcReedSolomonRemainder:degree <- $r8
	@DEBUG_VALUE: calcReedSolomonRemainder:data <- [DW_OP_plus_uconst 52] [$sp+0]
	@DEBUG_VALUE: ecc <- $r7
	@DEBUG_VALUE: calcReedSolomonRemainder:dataLen <- $r6
	@DEBUG_VALUE: datLen <- $r6
	.loc	2 382 2                         @ ../GUILib/src/extra/libs/qrcode/qrcodegen.c:382:2
	mov	r0, r7
	bl	__aeabi_memclr
.Ltmp191:
	.loc	2 0 2 is_stmt 0                 @ ../GUILib/src/extra/libs/qrcode/qrcodegen.c:0:2
	ldr.w	r12, [sp, #32]                  @ 4-byte Reload
.Ltmp192:
	.loc	2 383 2 is_stmt 1               @ ../GUILib/src/extra/libs/qrcode/qrcodegen.c:383:2
	cmp	r6, #1
.Ltmp193:
	@DEBUG_VALUE: calcReedSolomonRemainder:generator <- [DW_OP_plus_uconst 60, DW_OP_stack_value] $sp
	.loc	2 0 2 is_stmt 0                 @ ../GUILib/src/extra/libs/qrcode/qrcodegen.c:0:2
	mov	r0, r6
.Ltmp194:
	@DEBUG_VALUE: calcReedSolomonRemainder:dataLen <- $r0
	@DEBUG_VALUE: datLen <- $r0
	.loc	2 383 2                         @ ../GUILib/src/extra/libs/qrcode/qrcodegen.c:383:2
	str	r6, [sp, #48]                   @ 4-byte Spill
.Ltmp195:
	@DEBUG_VALUE: i <- 0
	@DEBUG_VALUE: calcReedSolomonRemainder:dataLen <- [DW_OP_plus_uconst 48] [$sp+0]
	@DEBUG_VALUE: datLen <- [DW_OP_plus_uconst 48] [$sp+0]
	.loc	2 0 2                           @ ../GUILib/src/extra/libs/qrcode/qrcodegen.c:0:2
	blt	.LBB1_60
.Ltmp196:
@ %bb.52:                               @   in Loop: Header=BB1_51 Depth=1
	@DEBUG_VALUE: addEccAndInterleave:data <- $r11
	@DEBUG_VALUE: calcReedSolomonRemainder:degree <- $r8
	@DEBUG_VALUE: addEccAndInterleave:blockEccLen <- $r8
	@DEBUG_VALUE: ecc <- $r7
	@DEBUG_VALUE: calcReedSolomonRemainder:result <- $r7
	@DEBUG_VALUE: datLen <- [DW_OP_plus_uconst 48] [$sp+0]
	@DEBUG_VALUE: calcReedSolomonRemainder:dataLen <- [DW_OP_plus_uconst 48] [$sp+0]
	@DEBUG_VALUE: calcReedSolomonRemainder:generator <- [DW_OP_plus_uconst 60, DW_OP_stack_value] $sp
	@DEBUG_VALUE: calcReedSolomonRemainder:data <- [DW_OP_plus_uconst 52] [$sp+0]
	@DEBUG_VALUE: i <- [DW_OP_plus_uconst 28] [$sp+0]
	@DEBUG_VALUE: addEccAndInterleave:dat <- [DW_OP_plus_uconst 52] [$sp+0]
	@DEBUG_VALUE: addEccAndInterleave:numBlocks <- [DW_OP_plus_uconst 16] [$sp+0]
	@DEBUG_VALUE: addEccAndInterleave:shortBlockDataLen <- [DW_OP_plus_uconst 20] [$sp+0]
	@DEBUG_VALUE: addEccAndInterleave:numShortBlocks <- [DW_OP_plus_uconst 12] [$sp+0]
	@DEBUG_VALUE: addEccAndInterleave:dataLen <- [DW_OP_plus_uconst 52] [$sp+0]
	@DEBUG_VALUE: addEccAndInterleave:version <- [DW_OP_plus_uconst 44] [$sp+0]
	@DEBUG_VALUE: qrcodegen_encodeSegmentsAdvanced:version <- [DW_OP_plus_uconst 44] [$sp+0]
	@DEBUG_VALUE: qrcodegen_encodeSegmentsAdvanced:segs <- [DW_OP_plus_uconst 36] [$sp+0]
	@DEBUG_VALUE: qrcodegen_encodeSegmentsAdvanced:ecl <- [DW_OP_plus_uconst 52] [$sp+0]
	@DEBUG_VALUE: qrcodegen_encodeSegmentsAdvanced:maxVersion <- [DW_OP_plus_uconst 128] [$sp+0]
	@DEBUG_VALUE: qrcodegen_encodeSegmentsAdvanced:mask <- [DW_OP_plus_uconst 132] [$sp+0]
	@DEBUG_VALUE: qrcodegen_encodeSegmentsAdvanced:tempBuffer <- [DW_OP_plus_uconst 140] [$sp+0]
	@DEBUG_VALUE: qrcodegen_encodeSegmentsAdvanced:qrcode <- [DW_OP_plus_uconst 144] [$sp+0]
	@DEBUG_VALUE: i <- 0
	mov.w	r9, #0
	mov	r1, r5
	str	r5, [sp, #24]                   @ 4-byte Spill
.Ltmp197:
	.p2align	2
.LBB1_53:                               @   Parent Loop BB1_51 Depth=1
                                        @ =>  This Loop Header: Depth=2
                                        @       Child Loop BB1_54 Depth 3
                                        @         Child Loop BB1_55 Depth 4
	@DEBUG_VALUE: addEccAndInterleave:data <- $r11
	@DEBUG_VALUE: calcReedSolomonRemainder:degree <- $r8
	@DEBUG_VALUE: addEccAndInterleave:blockEccLen <- $r8
	@DEBUG_VALUE: ecc <- $r7
	@DEBUG_VALUE: calcReedSolomonRemainder:result <- $r7
	@DEBUG_VALUE: datLen <- [DW_OP_plus_uconst 48] [$sp+0]
	@DEBUG_VALUE: calcReedSolomonRemainder:dataLen <- [DW_OP_plus_uconst 48] [$sp+0]
	@DEBUG_VALUE: calcReedSolomonRemainder:generator <- [DW_OP_plus_uconst 60, DW_OP_stack_value] $sp
	@DEBUG_VALUE: calcReedSolomonRemainder:data <- [DW_OP_plus_uconst 52] [$sp+0]
	@DEBUG_VALUE: i <- [DW_OP_plus_uconst 28] [$sp+0]
	@DEBUG_VALUE: addEccAndInterleave:dat <- [DW_OP_plus_uconst 52] [$sp+0]
	@DEBUG_VALUE: addEccAndInterleave:numBlocks <- [DW_OP_plus_uconst 16] [$sp+0]
	@DEBUG_VALUE: addEccAndInterleave:shortBlockDataLen <- [DW_OP_plus_uconst 20] [$sp+0]
	@DEBUG_VALUE: addEccAndInterleave:numShortBlocks <- [DW_OP_plus_uconst 12] [$sp+0]
	@DEBUG_VALUE: addEccAndInterleave:dataLen <- [DW_OP_plus_uconst 52] [$sp+0]
	@DEBUG_VALUE: addEccAndInterleave:version <- [DW_OP_plus_uconst 44] [$sp+0]
	@DEBUG_VALUE: qrcodegen_encodeSegmentsAdvanced:version <- [DW_OP_plus_uconst 44] [$sp+0]
	@DEBUG_VALUE: qrcodegen_encodeSegmentsAdvanced:segs <- [DW_OP_plus_uconst 36] [$sp+0]
	@DEBUG_VALUE: qrcodegen_encodeSegmentsAdvanced:ecl <- [DW_OP_plus_uconst 52] [$sp+0]
	@DEBUG_VALUE: qrcodegen_encodeSegmentsAdvanced:maxVersion <- [DW_OP_plus_uconst 128] [$sp+0]
	@DEBUG_VALUE: qrcodegen_encodeSegmentsAdvanced:mask <- [DW_OP_plus_uconst 132] [$sp+0]
	@DEBUG_VALUE: qrcodegen_encodeSegmentsAdvanced:tempBuffer <- [DW_OP_plus_uconst 140] [$sp+0]
	@DEBUG_VALUE: qrcodegen_encodeSegmentsAdvanced:qrcode <- [DW_OP_plus_uconst 144] [$sp+0]
	@DEBUG_VALUE: i <- $r9
	.loc	2 384 20 is_stmt 1              @ ../GUILib/src/extra/libs/qrcode/qrcodegen.c:384:20
	ldr	r0, [sp, #52]                   @ 4-byte Reload
	.loc	2 385 3                         @ ../GUILib/src/extra/libs/qrcode/qrcodegen.c:385:3
	ldrd	r1, r5, [sp, #36]               @ 8-byte Folded Reload
	.loc	2 384 20                        @ ../GUILib/src/extra/libs/qrcode/qrcodegen.c:384:20
	ldrb.w	r4, [r0, r9]
	.loc	2 384 30 is_stmt 0              @ ../GUILib/src/extra/libs/qrcode/qrcodegen.c:384:30
	ldrb	r6, [r7]
.Ltmp198:
	@DEBUG_VALUE: factor <- undef
	.loc	2 385 3 is_stmt 1               @ ../GUILib/src/extra/libs/qrcode/qrcodegen.c:385:3
	mov	r0, r7
	mov	r2, r5
	bl	__aeabi_memmove
.Ltmp199:
	.loc	2 386 22                        @ ../GUILib/src/extra/libs/qrcode/qrcodegen.c:386:22
	movs	r0, #0
	strb	r0, [r7, r5]
	.loc	2 384 28                        @ ../GUILib/src/extra/libs/qrcode/qrcodegen.c:384:28
	eor.w	r0, r6, r4
.Ltmp200:
	@DEBUG_VALUE: factor <- $r0
	.loc	2 0 28 is_stmt 0                @ ../GUILib/src/extra/libs/qrcode/qrcodegen.c:0:28
	movs	r1, #0
	add.w	r12, sp, #60
	@DEBUG_VALUE: j <- 0
.Ltmp201:
	.p2align	2
.LBB1_54:                               @   Parent Loop BB1_51 Depth=1
                                        @     Parent Loop BB1_53 Depth=2
                                        @ =>    This Loop Header: Depth=3
                                        @         Child Loop BB1_55 Depth 4
	@DEBUG_VALUE: addEccAndInterleave:data <- $r11
	@DEBUG_VALUE: i <- $r9
	@DEBUG_VALUE: calcReedSolomonRemainder:degree <- $r8
	@DEBUG_VALUE: addEccAndInterleave:blockEccLen <- $r8
	@DEBUG_VALUE: ecc <- $r7
	@DEBUG_VALUE: calcReedSolomonRemainder:result <- $r7
	@DEBUG_VALUE: factor <- $r0
	@DEBUG_VALUE: datLen <- [DW_OP_plus_uconst 48] [$sp+0]
	@DEBUG_VALUE: calcReedSolomonRemainder:dataLen <- [DW_OP_plus_uconst 48] [$sp+0]
	@DEBUG_VALUE: calcReedSolomonRemainder:generator <- [DW_OP_plus_uconst 60, DW_OP_stack_value] $sp
	@DEBUG_VALUE: calcReedSolomonRemainder:data <- [DW_OP_plus_uconst 52] [$sp+0]
	@DEBUG_VALUE: i <- [DW_OP_plus_uconst 28] [$sp+0]
	@DEBUG_VALUE: addEccAndInterleave:dat <- [DW_OP_plus_uconst 52] [$sp+0]
	@DEBUG_VALUE: addEccAndInterleave:numBlocks <- [DW_OP_plus_uconst 16] [$sp+0]
	@DEBUG_VALUE: addEccAndInterleave:shortBlockDataLen <- [DW_OP_plus_uconst 20] [$sp+0]
	@DEBUG_VALUE: addEccAndInterleave:numShortBlocks <- [DW_OP_plus_uconst 12] [$sp+0]
	@DEBUG_VALUE: addEccAndInterleave:dataLen <- [DW_OP_plus_uconst 52] [$sp+0]
	@DEBUG_VALUE: addEccAndInterleave:version <- [DW_OP_plus_uconst 44] [$sp+0]
	@DEBUG_VALUE: qrcodegen_encodeSegmentsAdvanced:version <- [DW_OP_plus_uconst 44] [$sp+0]
	@DEBUG_VALUE: qrcodegen_encodeSegmentsAdvanced:segs <- [DW_OP_plus_uconst 36] [$sp+0]
	@DEBUG_VALUE: qrcodegen_encodeSegmentsAdvanced:ecl <- [DW_OP_plus_uconst 52] [$sp+0]
	@DEBUG_VALUE: qrcodegen_encodeSegmentsAdvanced:maxVersion <- [DW_OP_plus_uconst 128] [$sp+0]
	@DEBUG_VALUE: qrcodegen_encodeSegmentsAdvanced:mask <- [DW_OP_plus_uconst 132] [$sp+0]
	@DEBUG_VALUE: qrcodegen_encodeSegmentsAdvanced:tempBuffer <- [DW_OP_plus_uconst 140] [$sp+0]
	@DEBUG_VALUE: qrcodegen_encodeSegmentsAdvanced:qrcode <- [DW_OP_plus_uconst 144] [$sp+0]
	@DEBUG_VALUE: j <- $r1
	.loc	2 388 37 is_stmt 1              @ ../GUILib/src/extra/libs/qrcode/qrcodegen.c:388:37
	ldrb.w	r2, [r12, r1]
	movs	r4, #0
	movs	r3, #7
	@DEBUG_VALUE: i <- 7
	@DEBUG_VALUE: finiteFieldMultiply:z <- 0
	@DEBUG_VALUE: finiteFieldMultiply:y <- undef
	@DEBUG_VALUE: finiteFieldMultiply:x <- undef
.Ltmp202:
	.p2align	2
.LBB1_55:                               @   Parent Loop BB1_51 Depth=1
                                        @     Parent Loop BB1_53 Depth=2
                                        @       Parent Loop BB1_54 Depth=3
                                        @ =>      This Inner Loop Header: Depth=4
	@DEBUG_VALUE: addEccAndInterleave:data <- $r11
	@DEBUG_VALUE: i <- $r9
	@DEBUG_VALUE: calcReedSolomonRemainder:degree <- $r8
	@DEBUG_VALUE: addEccAndInterleave:blockEccLen <- $r8
	@DEBUG_VALUE: ecc <- $r7
	@DEBUG_VALUE: calcReedSolomonRemainder:result <- $r7
	@DEBUG_VALUE: j <- $r1
	@DEBUG_VALUE: factor <- $r0
	@DEBUG_VALUE: datLen <- [DW_OP_plus_uconst 48] [$sp+0]
	@DEBUG_VALUE: calcReedSolomonRemainder:dataLen <- [DW_OP_plus_uconst 48] [$sp+0]
	@DEBUG_VALUE: calcReedSolomonRemainder:generator <- [DW_OP_plus_uconst 60, DW_OP_stack_value] $sp
	@DEBUG_VALUE: calcReedSolomonRemainder:data <- [DW_OP_plus_uconst 52] [$sp+0]
	@DEBUG_VALUE: i <- [DW_OP_plus_uconst 28] [$sp+0]
	@DEBUG_VALUE: addEccAndInterleave:dat <- [DW_OP_plus_uconst 52] [$sp+0]
	@DEBUG_VALUE: addEccAndInterleave:numBlocks <- [DW_OP_plus_uconst 16] [$sp+0]
	@DEBUG_VALUE: addEccAndInterleave:shortBlockDataLen <- [DW_OP_plus_uconst 20] [$sp+0]
	@DEBUG_VALUE: addEccAndInterleave:numShortBlocks <- [DW_OP_plus_uconst 12] [$sp+0]
	@DEBUG_VALUE: addEccAndInterleave:dataLen <- [DW_OP_plus_uconst 52] [$sp+0]
	@DEBUG_VALUE: addEccAndInterleave:version <- [DW_OP_plus_uconst 44] [$sp+0]
	@DEBUG_VALUE: qrcodegen_encodeSegmentsAdvanced:version <- [DW_OP_plus_uconst 44] [$sp+0]
	@DEBUG_VALUE: qrcodegen_encodeSegmentsAdvanced:segs <- [DW_OP_plus_uconst 36] [$sp+0]
	@DEBUG_VALUE: qrcodegen_encodeSegmentsAdvanced:ecl <- [DW_OP_plus_uconst 52] [$sp+0]
	@DEBUG_VALUE: qrcodegen_encodeSegmentsAdvanced:maxVersion <- [DW_OP_plus_uconst 128] [$sp+0]
	@DEBUG_VALUE: qrcodegen_encodeSegmentsAdvanced:mask <- [DW_OP_plus_uconst 132] [$sp+0]
	@DEBUG_VALUE: qrcodegen_encodeSegmentsAdvanced:tempBuffer <- [DW_OP_plus_uconst 140] [$sp+0]
	@DEBUG_VALUE: qrcodegen_encodeSegmentsAdvanced:qrcode <- [DW_OP_plus_uconst 144] [$sp+0]
	@DEBUG_VALUE: finiteFieldMultiply:z <- $r4
	@DEBUG_VALUE: i <- $r3
	.loc	2 401 10                        @ ../GUILib/src/extra/libs/qrcode/qrcodegen.c:401:10
	sxtb	r6, r4
	.loc	2 401 28 is_stmt 0              @ ../GUILib/src/extra/libs/qrcode/qrcodegen.c:401:28
	and.w	r6, r10, r6, lsr #7
	.loc	2 401 16                        @ ../GUILib/src/extra/libs/qrcode/qrcodegen.c:401:16
	eor.w	r6, r6, r4, lsl #1
.Ltmp203:
	@DEBUG_VALUE: finiteFieldMultiply:z <- $r6
	.loc	2 402 12 is_stmt 1              @ ../GUILib/src/extra/libs/qrcode/qrcodegen.c:402:12
	lsr.w	r4, r0, r3
	.loc	2 402 5 is_stmt 0               @ ../GUILib/src/extra/libs/qrcode/qrcodegen.c:402:5
	and	r4, r4, #1
	muls	r4, r2, r4
.Ltmp204:
	.loc	2 400 27 is_stmt 1              @ ../GUILib/src/extra/libs/qrcode/qrcodegen.c:400:27
	subs	r3, #1
.Ltmp205:
	@DEBUG_VALUE: i <- $r3
	.loc	2 400 2 is_stmt 0               @ ../GUILib/src/extra/libs/qrcode/qrcodegen.c:400:2
	adds	r5, r3, #1
.Ltmp206:
	.loc	2 402 5 is_stmt 1               @ ../GUILib/src/extra/libs/qrcode/qrcodegen.c:402:5
	eor.w	r4, r4, r6
.Ltmp207:
	@DEBUG_VALUE: finiteFieldMultiply:z <- $r4
	.loc	2 0 5 is_stmt 0                 @ ../GUILib/src/extra/libs/qrcode/qrcodegen.c:0:5
	bne	.LBB1_55
.Ltmp208:
@ %bb.56:                               @   in Loop: Header=BB1_54 Depth=3
	@DEBUG_VALUE: addEccAndInterleave:data <- $r11
	@DEBUG_VALUE: i <- $r9
	@DEBUG_VALUE: calcReedSolomonRemainder:degree <- $r8
	@DEBUG_VALUE: addEccAndInterleave:blockEccLen <- $r8
	@DEBUG_VALUE: ecc <- $r7
	@DEBUG_VALUE: calcReedSolomonRemainder:result <- $r7
	@DEBUG_VALUE: j <- $r1
	@DEBUG_VALUE: factor <- $r0
	@DEBUG_VALUE: datLen <- [DW_OP_plus_uconst 48] [$sp+0]
	@DEBUG_VALUE: calcReedSolomonRemainder:dataLen <- [DW_OP_plus_uconst 48] [$sp+0]
	@DEBUG_VALUE: calcReedSolomonRemainder:generator <- [DW_OP_plus_uconst 60, DW_OP_stack_value] $sp
	@DEBUG_VALUE: calcReedSolomonRemainder:data <- [DW_OP_plus_uconst 52] [$sp+0]
	@DEBUG_VALUE: i <- [DW_OP_plus_uconst 28] [$sp+0]
	@DEBUG_VALUE: addEccAndInterleave:dat <- [DW_OP_plus_uconst 52] [$sp+0]
	@DEBUG_VALUE: addEccAndInterleave:numBlocks <- [DW_OP_plus_uconst 16] [$sp+0]
	@DEBUG_VALUE: addEccAndInterleave:shortBlockDataLen <- [DW_OP_plus_uconst 20] [$sp+0]
	@DEBUG_VALUE: addEccAndInterleave:numShortBlocks <- [DW_OP_plus_uconst 12] [$sp+0]
	@DEBUG_VALUE: addEccAndInterleave:dataLen <- [DW_OP_plus_uconst 52] [$sp+0]
	@DEBUG_VALUE: addEccAndInterleave:version <- [DW_OP_plus_uconst 44] [$sp+0]
	@DEBUG_VALUE: qrcodegen_encodeSegmentsAdvanced:version <- [DW_OP_plus_uconst 44] [$sp+0]
	@DEBUG_VALUE: qrcodegen_encodeSegmentsAdvanced:segs <- [DW_OP_plus_uconst 36] [$sp+0]
	@DEBUG_VALUE: qrcodegen_encodeSegmentsAdvanced:ecl <- [DW_OP_plus_uconst 52] [$sp+0]
	@DEBUG_VALUE: qrcodegen_encodeSegmentsAdvanced:maxVersion <- [DW_OP_plus_uconst 128] [$sp+0]
	@DEBUG_VALUE: qrcodegen_encodeSegmentsAdvanced:mask <- [DW_OP_plus_uconst 132] [$sp+0]
	@DEBUG_VALUE: qrcodegen_encodeSegmentsAdvanced:tempBuffer <- [DW_OP_plus_uconst 140] [$sp+0]
	@DEBUG_VALUE: qrcodegen_encodeSegmentsAdvanced:qrcode <- [DW_OP_plus_uconst 144] [$sp+0]
	.loc	2 388 14 is_stmt 1              @ ../GUILib/src/extra/libs/qrcode/qrcodegen.c:388:14
	ldrb	r2, [r7, r1]
	eors	r2, r4
	strb	r2, [r7, r1]
	.loc	2 387 32                        @ ../GUILib/src/extra/libs/qrcode/qrcodegen.c:387:32
	adds	r1, #1
.Ltmp209:
	@DEBUG_VALUE: j <- $r1
	.loc	2 387 3 is_stmt 0               @ ../GUILib/src/extra/libs/qrcode/qrcodegen.c:387:3
	cmp	r1, r8
	bne	.LBB1_54
.Ltmp210:
@ %bb.57:                               @   in Loop: Header=BB1_53 Depth=2
	@DEBUG_VALUE: addEccAndInterleave:data <- $r11
	@DEBUG_VALUE: i <- $r9
	@DEBUG_VALUE: calcReedSolomonRemainder:degree <- $r8
	@DEBUG_VALUE: addEccAndInterleave:blockEccLen <- $r8
	@DEBUG_VALUE: ecc <- $r7
	@DEBUG_VALUE: calcReedSolomonRemainder:result <- $r7
	@DEBUG_VALUE: datLen <- [DW_OP_plus_uconst 48] [$sp+0]
	@DEBUG_VALUE: calcReedSolomonRemainder:dataLen <- [DW_OP_plus_uconst 48] [$sp+0]
	@DEBUG_VALUE: calcReedSolomonRemainder:generator <- [DW_OP_plus_uconst 60, DW_OP_stack_value] $sp
	@DEBUG_VALUE: calcReedSolomonRemainder:data <- [DW_OP_plus_uconst 52] [$sp+0]
	@DEBUG_VALUE: i <- [DW_OP_plus_uconst 28] [$sp+0]
	@DEBUG_VALUE: addEccAndInterleave:dat <- [DW_OP_plus_uconst 52] [$sp+0]
	@DEBUG_VALUE: addEccAndInterleave:numBlocks <- [DW_OP_plus_uconst 16] [$sp+0]
	@DEBUG_VALUE: addEccAndInterleave:shortBlockDataLen <- [DW_OP_plus_uconst 20] [$sp+0]
	@DEBUG_VALUE: addEccAndInterleave:numShortBlocks <- [DW_OP_plus_uconst 12] [$sp+0]
	@DEBUG_VALUE: addEccAndInterleave:dataLen <- [DW_OP_plus_uconst 52] [$sp+0]
	@DEBUG_VALUE: addEccAndInterleave:version <- [DW_OP_plus_uconst 44] [$sp+0]
	@DEBUG_VALUE: qrcodegen_encodeSegmentsAdvanced:version <- [DW_OP_plus_uconst 44] [$sp+0]
	@DEBUG_VALUE: qrcodegen_encodeSegmentsAdvanced:segs <- [DW_OP_plus_uconst 36] [$sp+0]
	@DEBUG_VALUE: qrcodegen_encodeSegmentsAdvanced:ecl <- [DW_OP_plus_uconst 52] [$sp+0]
	@DEBUG_VALUE: qrcodegen_encodeSegmentsAdvanced:maxVersion <- [DW_OP_plus_uconst 128] [$sp+0]
	@DEBUG_VALUE: qrcodegen_encodeSegmentsAdvanced:mask <- [DW_OP_plus_uconst 132] [$sp+0]
	@DEBUG_VALUE: qrcodegen_encodeSegmentsAdvanced:tempBuffer <- [DW_OP_plus_uconst 140] [$sp+0]
	@DEBUG_VALUE: qrcodegen_encodeSegmentsAdvanced:qrcode <- [DW_OP_plus_uconst 144] [$sp+0]
	.loc	2 383 2 is_stmt 1               @ ../GUILib/src/extra/libs/qrcode/qrcodegen.c:383:2
	ldr	r0, [sp, #48]                   @ 4-byte Reload
.Ltmp211:
	.loc	2 383 32 is_stmt 0              @ ../GUILib/src/extra/libs/qrcode/qrcodegen.c:383:32
	add.w	r9, r9, #1
.Ltmp212:
	@DEBUG_VALUE: i <- $r9
	.loc	2 383 2                         @ ../GUILib/src/extra/libs/qrcode/qrcodegen.c:383:2
	cmp	r9, r0
	bne	.LBB1_53
.Ltmp213:
@ %bb.58:                               @   in Loop: Header=BB1_51 Depth=1
	@DEBUG_VALUE: addEccAndInterleave:data <- $r11
	@DEBUG_VALUE: i <- $r9
	@DEBUG_VALUE: calcReedSolomonRemainder:degree <- $r8
	@DEBUG_VALUE: addEccAndInterleave:blockEccLen <- $r8
	@DEBUG_VALUE: ecc <- $r7
	@DEBUG_VALUE: calcReedSolomonRemainder:result <- $r7
	@DEBUG_VALUE: datLen <- [DW_OP_plus_uconst 48] [$sp+0]
	@DEBUG_VALUE: calcReedSolomonRemainder:dataLen <- [DW_OP_plus_uconst 48] [$sp+0]
	@DEBUG_VALUE: calcReedSolomonRemainder:generator <- [DW_OP_plus_uconst 60, DW_OP_stack_value] $sp
	@DEBUG_VALUE: calcReedSolomonRemainder:data <- [DW_OP_plus_uconst 52] [$sp+0]
	@DEBUG_VALUE: i <- [DW_OP_plus_uconst 28] [$sp+0]
	@DEBUG_VALUE: addEccAndInterleave:dat <- [DW_OP_plus_uconst 52] [$sp+0]
	@DEBUG_VALUE: addEccAndInterleave:numBlocks <- [DW_OP_plus_uconst 16] [$sp+0]
	@DEBUG_VALUE: addEccAndInterleave:shortBlockDataLen <- [DW_OP_plus_uconst 20] [$sp+0]
	@DEBUG_VALUE: addEccAndInterleave:numShortBlocks <- [DW_OP_plus_uconst 12] [$sp+0]
	@DEBUG_VALUE: addEccAndInterleave:dataLen <- [DW_OP_plus_uconst 52] [$sp+0]
	@DEBUG_VALUE: addEccAndInterleave:version <- [DW_OP_plus_uconst 44] [$sp+0]
	@DEBUG_VALUE: qrcodegen_encodeSegmentsAdvanced:version <- [DW_OP_plus_uconst 44] [$sp+0]
	@DEBUG_VALUE: qrcodegen_encodeSegmentsAdvanced:segs <- [DW_OP_plus_uconst 36] [$sp+0]
	@DEBUG_VALUE: qrcodegen_encodeSegmentsAdvanced:ecl <- [DW_OP_plus_uconst 52] [$sp+0]
	@DEBUG_VALUE: qrcodegen_encodeSegmentsAdvanced:maxVersion <- [DW_OP_plus_uconst 128] [$sp+0]
	@DEBUG_VALUE: qrcodegen_encodeSegmentsAdvanced:mask <- [DW_OP_plus_uconst 132] [$sp+0]
	@DEBUG_VALUE: qrcodegen_encodeSegmentsAdvanced:tempBuffer <- [DW_OP_plus_uconst 140] [$sp+0]
	@DEBUG_VALUE: qrcodegen_encodeSegmentsAdvanced:qrcode <- [DW_OP_plus_uconst 144] [$sp+0]
	.loc	2 0 2                           @ ../GUILib/src/extra/libs/qrcode/qrcodegen.c:0:2
	ldr	r0, [sp, #52]                   @ 4-byte Reload
	ldr	r6, [sp, #140]
	ldr	r4, [sp, #16]                   @ 4-byte Reload
	ldrd	r1, r9, [sp, #8]                @ 8-byte Folded Reload
	ldr.w	r12, [sp, #32]                  @ 4-byte Reload
	ldrd	r5, r2, [sp, #24]               @ 8-byte Folded Reload
.Ltmp214:
	.p2align	2
.LBB1_59:                               @   Parent Loop BB1_51 Depth=1
                                        @ =>  This Inner Loop Header: Depth=2
	@DEBUG_VALUE: addEccAndInterleave:data <- $r11
	@DEBUG_VALUE: addEccAndInterleave:blockEccLen <- $r8
	@DEBUG_VALUE: ecc <- $r7
	@DEBUG_VALUE: datLen <- [DW_OP_plus_uconst 48] [$sp+0]
	@DEBUG_VALUE: i <- [DW_OP_plus_uconst 28] [$sp+0]
	@DEBUG_VALUE: addEccAndInterleave:dat <- [DW_OP_plus_uconst 52] [$sp+0]
	@DEBUG_VALUE: addEccAndInterleave:numBlocks <- [DW_OP_plus_uconst 16] [$sp+0]
	@DEBUG_VALUE: addEccAndInterleave:shortBlockDataLen <- [DW_OP_plus_uconst 20] [$sp+0]
	@DEBUG_VALUE: addEccAndInterleave:numShortBlocks <- [DW_OP_plus_uconst 12] [$sp+0]
	@DEBUG_VALUE: addEccAndInterleave:dataLen <- [DW_OP_plus_uconst 52] [$sp+0]
	@DEBUG_VALUE: addEccAndInterleave:version <- [DW_OP_plus_uconst 44] [$sp+0]
	@DEBUG_VALUE: qrcodegen_encodeSegmentsAdvanced:version <- [DW_OP_plus_uconst 44] [$sp+0]
	@DEBUG_VALUE: qrcodegen_encodeSegmentsAdvanced:segs <- [DW_OP_plus_uconst 36] [$sp+0]
	@DEBUG_VALUE: qrcodegen_encodeSegmentsAdvanced:ecl <- [DW_OP_plus_uconst 52] [$sp+0]
	@DEBUG_VALUE: qrcodegen_encodeSegmentsAdvanced:maxVersion <- [DW_OP_plus_uconst 128] [$sp+0]
	@DEBUG_VALUE: qrcodegen_encodeSegmentsAdvanced:mask <- [DW_OP_plus_uconst 132] [$sp+0]
	@DEBUG_VALUE: qrcodegen_encodeSegmentsAdvanced:tempBuffer <- [DW_OP_plus_uconst 140] [$sp+0]
	@DEBUG_VALUE: qrcodegen_encodeSegmentsAdvanced:qrcode <- [DW_OP_plus_uconst 144] [$sp+0]
	@DEBUG_VALUE: k <- $r2
	@DEBUG_VALUE: j <- undef
	.loc	2 313 16 is_stmt 1              @ ../GUILib/src/extra/libs/qrcode/qrcodegen.c:313:16
	ldrb	r3, [r0], #1
	.loc	2 311 8                         @ ../GUILib/src/extra/libs/qrcode/qrcodegen.c:311:8
	cmp	r1, #0
	it	eq
	subeq.w	r2, r2, r9
.Ltmp215:
	@DEBUG_VALUE: k <- $r2
	.loc	2 310 28                        @ ../GUILib/src/extra/libs/qrcode/qrcodegen.c:310:28
	adds	r1, #1
.Ltmp216:
	.loc	2 313 14                        @ ../GUILib/src/extra/libs/qrcode/qrcodegen.c:313:14
	strb	r3, [r6, r2]
.Ltmp217:
	@DEBUG_VALUE: j <- [DW_OP_plus_uconst 1, DW_OP_stack_value] undef
	.loc	2 310 3                         @ ../GUILib/src/extra/libs/qrcode/qrcodegen.c:310:3
	cmp	r5, r1
.Ltmp218:
	.loc	2 310 45 is_stmt 0              @ ../GUILib/src/extra/libs/qrcode/qrcodegen.c:310:45
	add	r2, r4
.Ltmp219:
	@DEBUG_VALUE: k <- $r2
	.loc	2 0 45                          @ ../GUILib/src/extra/libs/qrcode/qrcodegen.c:0:45
	bne	.LBB1_59
.Ltmp220:
.LBB1_60:                               @   in Loop: Header=BB1_51 Depth=1
	@DEBUG_VALUE: addEccAndInterleave:data <- $r11
	@DEBUG_VALUE: addEccAndInterleave:blockEccLen <- $r8
	@DEBUG_VALUE: ecc <- $r7
	@DEBUG_VALUE: datLen <- [DW_OP_plus_uconst 48] [$sp+0]
	@DEBUG_VALUE: i <- [DW_OP_plus_uconst 28] [$sp+0]
	@DEBUG_VALUE: addEccAndInterleave:dat <- [DW_OP_plus_uconst 52] [$sp+0]
	@DEBUG_VALUE: addEccAndInterleave:numBlocks <- [DW_OP_plus_uconst 16] [$sp+0]
	@DEBUG_VALUE: addEccAndInterleave:shortBlockDataLen <- [DW_OP_plus_uconst 20] [$sp+0]
	@DEBUG_VALUE: addEccAndInterleave:numShortBlocks <- [DW_OP_plus_uconst 12] [$sp+0]
	@DEBUG_VALUE: addEccAndInterleave:dataLen <- [DW_OP_plus_uconst 52] [$sp+0]
	@DEBUG_VALUE: addEccAndInterleave:version <- [DW_OP_plus_uconst 44] [$sp+0]
	@DEBUG_VALUE: qrcodegen_encodeSegmentsAdvanced:version <- [DW_OP_plus_uconst 44] [$sp+0]
	@DEBUG_VALUE: qrcodegen_encodeSegmentsAdvanced:segs <- [DW_OP_plus_uconst 36] [$sp+0]
	@DEBUG_VALUE: qrcodegen_encodeSegmentsAdvanced:ecl <- [DW_OP_plus_uconst 52] [$sp+0]
	@DEBUG_VALUE: qrcodegen_encodeSegmentsAdvanced:maxVersion <- [DW_OP_plus_uconst 128] [$sp+0]
	@DEBUG_VALUE: qrcodegen_encodeSegmentsAdvanced:mask <- [DW_OP_plus_uconst 132] [$sp+0]
	@DEBUG_VALUE: qrcodegen_encodeSegmentsAdvanced:tempBuffer <- [DW_OP_plus_uconst 140] [$sp+0]
	@DEBUG_VALUE: qrcodegen_encodeSegmentsAdvanced:qrcode <- [DW_OP_plus_uconst 144] [$sp+0]
	@DEBUG_VALUE: k <- undef
	@DEBUG_VALUE: j <- 0
	.loc	2 315 3 is_stmt 1               @ ../GUILib/src/extra/libs/qrcode/qrcodegen.c:315:3
	cmp.w	r8, #1
	mov	r0, r7
	mov	r1, r8
	mov	r2, r12
	blt	.LBB1_62
.Ltmp221:
	.p2align	2
.LBB1_61:                               @   Parent Loop BB1_51 Depth=1
                                        @ =>  This Inner Loop Header: Depth=2
	@DEBUG_VALUE: addEccAndInterleave:data <- $r11
	@DEBUG_VALUE: addEccAndInterleave:blockEccLen <- $r8
	@DEBUG_VALUE: ecc <- $r7
	@DEBUG_VALUE: datLen <- [DW_OP_plus_uconst 48] [$sp+0]
	@DEBUG_VALUE: i <- [DW_OP_plus_uconst 28] [$sp+0]
	@DEBUG_VALUE: addEccAndInterleave:dat <- [DW_OP_plus_uconst 52] [$sp+0]
	@DEBUG_VALUE: addEccAndInterleave:numBlocks <- [DW_OP_plus_uconst 16] [$sp+0]
	@DEBUG_VALUE: addEccAndInterleave:shortBlockDataLen <- [DW_OP_plus_uconst 20] [$sp+0]
	@DEBUG_VALUE: addEccAndInterleave:numShortBlocks <- [DW_OP_plus_uconst 12] [$sp+0]
	@DEBUG_VALUE: addEccAndInterleave:dataLen <- [DW_OP_plus_uconst 52] [$sp+0]
	@DEBUG_VALUE: addEccAndInterleave:version <- [DW_OP_plus_uconst 44] [$sp+0]
	@DEBUG_VALUE: qrcodegen_encodeSegmentsAdvanced:version <- [DW_OP_plus_uconst 44] [$sp+0]
	@DEBUG_VALUE: qrcodegen_encodeSegmentsAdvanced:segs <- [DW_OP_plus_uconst 36] [$sp+0]
	@DEBUG_VALUE: qrcodegen_encodeSegmentsAdvanced:ecl <- [DW_OP_plus_uconst 52] [$sp+0]
	@DEBUG_VALUE: qrcodegen_encodeSegmentsAdvanced:maxVersion <- [DW_OP_plus_uconst 128] [$sp+0]
	@DEBUG_VALUE: qrcodegen_encodeSegmentsAdvanced:mask <- [DW_OP_plus_uconst 132] [$sp+0]
	@DEBUG_VALUE: qrcodegen_encodeSegmentsAdvanced:tempBuffer <- [DW_OP_plus_uconst 140] [$sp+0]
	@DEBUG_VALUE: qrcodegen_encodeSegmentsAdvanced:qrcode <- [DW_OP_plus_uconst 144] [$sp+0]
	@DEBUG_VALUE: k <- undef
	@DEBUG_VALUE: j <- undef
	.loc	2 316 16                        @ ../GUILib/src/extra/libs/qrcode/qrcodegen.c:316:16
	ldrb	r3, [r0], #1
	.loc	2 315 38                        @ ../GUILib/src/extra/libs/qrcode/qrcodegen.c:315:38
	subs	r1, #1
	.loc	2 316 14                        @ ../GUILib/src/extra/libs/qrcode/qrcodegen.c:316:14
	strb	r3, [r2]
.Ltmp222:
	@DEBUG_VALUE: j <- [DW_OP_plus_uconst 1, DW_OP_stack_value] undef
	@DEBUG_VALUE: k <- undef
	.loc	2 315 38                        @ ../GUILib/src/extra/libs/qrcode/qrcodegen.c:315:38
	add	r2, r4
.Ltmp223:
	.loc	2 315 3 is_stmt 0               @ ../GUILib/src/extra/libs/qrcode/qrcodegen.c:315:3
	bne	.LBB1_61
.Ltmp224:
.LBB1_62:                               @   in Loop: Header=BB1_51 Depth=1
	@DEBUG_VALUE: addEccAndInterleave:data <- $r11
	@DEBUG_VALUE: addEccAndInterleave:blockEccLen <- $r8
	@DEBUG_VALUE: ecc <- $r7
	@DEBUG_VALUE: datLen <- [DW_OP_plus_uconst 48] [$sp+0]
	@DEBUG_VALUE: i <- [DW_OP_plus_uconst 28] [$sp+0]
	@DEBUG_VALUE: addEccAndInterleave:dat <- [DW_OP_plus_uconst 52] [$sp+0]
	@DEBUG_VALUE: addEccAndInterleave:numBlocks <- [DW_OP_plus_uconst 16] [$sp+0]
	@DEBUG_VALUE: addEccAndInterleave:shortBlockDataLen <- [DW_OP_plus_uconst 20] [$sp+0]
	@DEBUG_VALUE: addEccAndInterleave:numShortBlocks <- [DW_OP_plus_uconst 12] [$sp+0]
	@DEBUG_VALUE: addEccAndInterleave:dataLen <- [DW_OP_plus_uconst 52] [$sp+0]
	@DEBUG_VALUE: addEccAndInterleave:version <- [DW_OP_plus_uconst 44] [$sp+0]
	@DEBUG_VALUE: qrcodegen_encodeSegmentsAdvanced:version <- [DW_OP_plus_uconst 44] [$sp+0]
	@DEBUG_VALUE: qrcodegen_encodeSegmentsAdvanced:segs <- [DW_OP_plus_uconst 36] [$sp+0]
	@DEBUG_VALUE: qrcodegen_encodeSegmentsAdvanced:ecl <- [DW_OP_plus_uconst 52] [$sp+0]
	@DEBUG_VALUE: qrcodegen_encodeSegmentsAdvanced:maxVersion <- [DW_OP_plus_uconst 128] [$sp+0]
	@DEBUG_VALUE: qrcodegen_encodeSegmentsAdvanced:mask <- [DW_OP_plus_uconst 132] [$sp+0]
	@DEBUG_VALUE: qrcodegen_encodeSegmentsAdvanced:tempBuffer <- [DW_OP_plus_uconst 140] [$sp+0]
	@DEBUG_VALUE: qrcodegen_encodeSegmentsAdvanced:qrcode <- [DW_OP_plus_uconst 144] [$sp+0]
	.loc	2 317 7 is_stmt 1               @ ../GUILib/src/extra/libs/qrcode/qrcodegen.c:317:7
	ldrd	r1, r0, [sp, #48]               @ 8-byte Folded Reload
.Ltmp225:
	.loc	2 306 2                         @ ../GUILib/src/extra/libs/qrcode/qrcodegen.c:306:2
	add.w	r12, r12, #1
.Ltmp226:
	.loc	2 317 7                         @ ../GUILib/src/extra/libs/qrcode/qrcodegen.c:317:7
	add	r0, r1
.Ltmp227:
	@DEBUG_VALUE: addEccAndInterleave:dat <- $r0
	.loc	2 0 7 is_stmt 0                 @ ../GUILib/src/extra/libs/qrcode/qrcodegen.c:0:7
	str	r0, [sp, #52]                   @ 4-byte Spill
.Ltmp228:
	@DEBUG_VALUE: addEccAndInterleave:dat <- [DW_OP_plus_uconst 52] [$sp+0]
	@DEBUG_VALUE: addEccAndInterleave:dat <- [DW_OP_plus_uconst 52] [$sp+0]
	ldr	r0, [sp, #28]                   @ 4-byte Reload
.Ltmp229:
	.loc	2 306 34 is_stmt 1              @ ../GUILib/src/extra/libs/qrcode/qrcodegen.c:306:34
	adds	r0, #1
.Ltmp230:
	@DEBUG_VALUE: i <- $r0
	.loc	2 306 2 is_stmt 0               @ ../GUILib/src/extra/libs/qrcode/qrcodegen.c:306:2
	cmp	r0, r4
	bne	.LBB1_51
.Ltmp231:
.LBB1_63:
	@DEBUG_VALUE: qrcodegen_encodeSegmentsAdvanced:version <- [DW_OP_plus_uconst 44] [$sp+0]
	@DEBUG_VALUE: qrcodegen_encodeSegmentsAdvanced:segs <- [DW_OP_plus_uconst 36] [$sp+0]
	@DEBUG_VALUE: qrcodegen_encodeSegmentsAdvanced:ecl <- [DW_OP_plus_uconst 52] [$sp+0]
	@DEBUG_VALUE: qrcodegen_encodeSegmentsAdvanced:maxVersion <- [DW_OP_plus_uconst 128] [$sp+0]
	@DEBUG_VALUE: qrcodegen_encodeSegmentsAdvanced:mask <- [DW_OP_plus_uconst 132] [$sp+0]
	@DEBUG_VALUE: qrcodegen_encodeSegmentsAdvanced:tempBuffer <- [DW_OP_plus_uconst 140] [$sp+0]
	@DEBUG_VALUE: qrcodegen_encodeSegmentsAdvanced:qrcode <- [DW_OP_plus_uconst 144] [$sp+0]
	.loc	2 0 2                           @ ../GUILib/src/extra/libs/qrcode/qrcodegen.c:0:2
	ldr	r4, [sp, #44]                   @ 4-byte Reload
	.loc	2 257 2 is_stmt 1               @ ../GUILib/src/extra/libs/qrcode/qrcodegen.c:257:2
	mov	r1, r11
	mov	r0, r4
	bl	initializeFunctionModules
.Ltmp232:
	.loc	2 258 28                        @ ../GUILib/src/extra/libs/qrcode/qrcodegen.c:258:28
	mov	r0, r4
	bl	getNumRawDataModules
.Ltmp233:
	.loc	2 258 58 is_stmt 0              @ ../GUILib/src/extra/libs/qrcode/qrcodegen.c:258:58
	asrs	r1, r0, #31
	add.w	r0, r0, r1, lsr #29
	bic	r5, r0, #7
.Ltmp234:
	@DEBUG_VALUE: drawCodewords:dataLen <- undef
	@DEBUG_VALUE: drawCodewords:qrcode <- $r11
	@DEBUG_VALUE: drawCodewords:data <- undef
	.loc	2 573 15 is_stmt 1              @ ../GUILib/src/extra/libs/qrcode/qrcodegen.c:573:15
	mov	r0, r11
	bl	qrcodegen_getSize
.Ltmp235:
	@DEBUG_VALUE: right <- undef
	@DEBUG_VALUE: drawCodewords:i <- 0
	@DEBUG_VALUE: drawCodewords:qrsize <- $r0
	.loc	2 576 2                         @ ../GUILib/src/extra/libs/qrcode/qrcodegen.c:576:2
	cmp	r0, #2
	blt	.LBB1_73
.Ltmp236:
@ %bb.64:
	@DEBUG_VALUE: drawCodewords:qrcode <- $r11
	@DEBUG_VALUE: drawCodewords:qrsize <- $r0
	@DEBUG_VALUE: qrcodegen_encodeSegmentsAdvanced:version <- [DW_OP_plus_uconst 44] [$sp+0]
	@DEBUG_VALUE: qrcodegen_encodeSegmentsAdvanced:segs <- [DW_OP_plus_uconst 36] [$sp+0]
	@DEBUG_VALUE: qrcodegen_encodeSegmentsAdvanced:ecl <- [DW_OP_plus_uconst 52] [$sp+0]
	@DEBUG_VALUE: qrcodegen_encodeSegmentsAdvanced:maxVersion <- [DW_OP_plus_uconst 128] [$sp+0]
	@DEBUG_VALUE: qrcodegen_encodeSegmentsAdvanced:mask <- [DW_OP_plus_uconst 132] [$sp+0]
	@DEBUG_VALUE: qrcodegen_encodeSegmentsAdvanced:tempBuffer <- [DW_OP_plus_uconst 140] [$sp+0]
	@DEBUG_VALUE: qrcodegen_encodeSegmentsAdvanced:qrcode <- [DW_OP_plus_uconst 144] [$sp+0]
	@DEBUG_VALUE: drawCodewords:i <- 0
	.loc	2 0 2 is_stmt 0                 @ ../GUILib/src/extra/libs/qrcode/qrcodegen.c:0:2
	sub.w	r9, r0, #1
.Ltmp237:
	@DEBUG_VALUE: right <- $r9
	movs	r4, #0
	str.w	r9, [sp, #40]                   @ 4-byte Spill
.Ltmp238:
	@DEBUG_VALUE: right <- [DW_OP_plus_uconst 40] [$sp+0]
	.loc	2 576 2                         @ ../GUILib/src/extra/libs/qrcode/qrcodegen.c:576:2
	str	r0, [sp, #48]                   @ 4-byte Spill
.Ltmp239:
	@DEBUG_VALUE: drawCodewords:qrsize <- [DW_OP_plus_uconst 48] [$sp+0]
	.p2align	2
.LBB1_65:                               @ =>This Loop Header: Depth=1
                                        @     Child Loop BB1_66 Depth 2
                                        @       Child Loop BB1_67 Depth 3
	@DEBUG_VALUE: drawCodewords:qrcode <- $r11
	@DEBUG_VALUE: qrcodegen_encodeSegmentsAdvanced:version <- [DW_OP_plus_uconst 44] [$sp+0]
	@DEBUG_VALUE: qrcodegen_encodeSegmentsAdvanced:segs <- [DW_OP_plus_uconst 36] [$sp+0]
	@DEBUG_VALUE: qrcodegen_encodeSegmentsAdvanced:ecl <- [DW_OP_plus_uconst 52] [$sp+0]
	@DEBUG_VALUE: qrcodegen_encodeSegmentsAdvanced:maxVersion <- [DW_OP_plus_uconst 128] [$sp+0]
	@DEBUG_VALUE: qrcodegen_encodeSegmentsAdvanced:mask <- [DW_OP_plus_uconst 132] [$sp+0]
	@DEBUG_VALUE: qrcodegen_encodeSegmentsAdvanced:tempBuffer <- [DW_OP_plus_uconst 140] [$sp+0]
	@DEBUG_VALUE: qrcodegen_encodeSegmentsAdvanced:qrcode <- [DW_OP_plus_uconst 144] [$sp+0]
	@DEBUG_VALUE: drawCodewords:i <- $r4
	@DEBUG_VALUE: right <- $r9
	.loc	2 577 7 is_stmt 1               @ ../GUILib/src/extra/libs/qrcode/qrcodegen.c:577:7
	cmp.w	r9, #6
	it	eq
	moveq.w	r9, #5
.Ltmp240:
	@DEBUG_VALUE: vert <- 0
	@DEBUG_VALUE: right <- $r9
	.loc	2 0 7 is_stmt 0                 @ ../GUILib/src/extra/libs/qrcode/qrcodegen.c:0:7
	add.w	r1, r9, #1
	and	r1, r1, #2
	mov.w	r8, #0
	str	r1, [sp, #52]                   @ 4-byte Spill
.Ltmp241:
	.p2align	2
.LBB1_66:                               @   Parent Loop BB1_65 Depth=1
                                        @ =>  This Loop Header: Depth=2
                                        @       Child Loop BB1_67 Depth 3
	@DEBUG_VALUE: drawCodewords:qrcode <- $r11
	@DEBUG_VALUE: right <- $r9
	@DEBUG_VALUE: drawCodewords:i <- $r4
	@DEBUG_VALUE: qrcodegen_encodeSegmentsAdvanced:version <- [DW_OP_plus_uconst 44] [$sp+0]
	@DEBUG_VALUE: qrcodegen_encodeSegmentsAdvanced:segs <- [DW_OP_plus_uconst 36] [$sp+0]
	@DEBUG_VALUE: qrcodegen_encodeSegmentsAdvanced:ecl <- [DW_OP_plus_uconst 52] [$sp+0]
	@DEBUG_VALUE: qrcodegen_encodeSegmentsAdvanced:maxVersion <- [DW_OP_plus_uconst 128] [$sp+0]
	@DEBUG_VALUE: qrcodegen_encodeSegmentsAdvanced:mask <- [DW_OP_plus_uconst 132] [$sp+0]
	@DEBUG_VALUE: qrcodegen_encodeSegmentsAdvanced:tempBuffer <- [DW_OP_plus_uconst 140] [$sp+0]
	@DEBUG_VALUE: qrcodegen_encodeSegmentsAdvanced:qrcode <- [DW_OP_plus_uconst 144] [$sp+0]
	@DEBUG_VALUE: drawCodewords:i <- $r4
	ldr	r0, [sp, #52]                   @ 4-byte Reload
	mov	r6, r8
	cmp	r0, #0
	ldr	r0, [sp, #40]                   @ 4-byte Reload
	it	eq
	subeq	r6, r0, r6
	movs	r0, #0
	mov.w	r10, #1
	@DEBUG_VALUE: j <- 0
	@DEBUG_VALUE: vert <- $r8
.Ltmp242:
	.p2align	2
.LBB1_67:                               @   Parent Loop BB1_65 Depth=1
                                        @     Parent Loop BB1_66 Depth=2
                                        @ =>    This Inner Loop Header: Depth=3
	@DEBUG_VALUE: drawCodewords:qrcode <- $r11
	@DEBUG_VALUE: right <- $r9
	@DEBUG_VALUE: vert <- $r8
	@DEBUG_VALUE: drawCodewords:i <- $r4
	@DEBUG_VALUE: qrcodegen_encodeSegmentsAdvanced:version <- [DW_OP_plus_uconst 44] [$sp+0]
	@DEBUG_VALUE: qrcodegen_encodeSegmentsAdvanced:segs <- [DW_OP_plus_uconst 36] [$sp+0]
	@DEBUG_VALUE: qrcodegen_encodeSegmentsAdvanced:ecl <- [DW_OP_plus_uconst 52] [$sp+0]
	@DEBUG_VALUE: qrcodegen_encodeSegmentsAdvanced:maxVersion <- [DW_OP_plus_uconst 128] [$sp+0]
	@DEBUG_VALUE: qrcodegen_encodeSegmentsAdvanced:mask <- [DW_OP_plus_uconst 132] [$sp+0]
	@DEBUG_VALUE: qrcodegen_encodeSegmentsAdvanced:tempBuffer <- [DW_OP_plus_uconst 140] [$sp+0]
	@DEBUG_VALUE: qrcodegen_encodeSegmentsAdvanced:qrcode <- [DW_OP_plus_uconst 144] [$sp+0]
	@DEBUG_VALUE: drawCodewords:i <- $r4
	@DEBUG_VALUE: j <- undef
	.loc	2 581 19 is_stmt 1              @ ../GUILib/src/extra/libs/qrcode/qrcodegen.c:581:19
	add.w	r7, r0, r9
.Ltmp243:
	@DEBUG_VALUE: y <- $r6
	@DEBUG_VALUE: upward <- [DW_OP_LLVM_convert 1 7, DW_OP_LLVM_convert 8 7, DW_OP_stack_value] undef
	@DEBUG_VALUE: x <- $r7
	.loc	2 584 10                        @ ../GUILib/src/extra/libs/qrcode/qrcodegen.c:584:10
	mov	r0, r11
	mov	r1, r7
	mov	r2, r6
	bl	getModule
.Ltmp244:
	.loc	2 584 34 is_stmt 0              @ ../GUILib/src/extra/libs/qrcode/qrcodegen.c:584:34
	cmp	r4, r5
	bge	.LBB1_70
.Ltmp245:
@ %bb.68:                               @   in Loop: Header=BB1_67 Depth=3
	@DEBUG_VALUE: drawCodewords:qrcode <- $r11
	@DEBUG_VALUE: right <- $r9
	@DEBUG_VALUE: vert <- $r8
	@DEBUG_VALUE: x <- $r7
	@DEBUG_VALUE: y <- $r6
	@DEBUG_VALUE: drawCodewords:i <- $r4
	@DEBUG_VALUE: qrcodegen_encodeSegmentsAdvanced:version <- [DW_OP_plus_uconst 44] [$sp+0]
	@DEBUG_VALUE: qrcodegen_encodeSegmentsAdvanced:segs <- [DW_OP_plus_uconst 36] [$sp+0]
	@DEBUG_VALUE: qrcodegen_encodeSegmentsAdvanced:ecl <- [DW_OP_plus_uconst 52] [$sp+0]
	@DEBUG_VALUE: qrcodegen_encodeSegmentsAdvanced:maxVersion <- [DW_OP_plus_uconst 128] [$sp+0]
	@DEBUG_VALUE: qrcodegen_encodeSegmentsAdvanced:mask <- [DW_OP_plus_uconst 132] [$sp+0]
	@DEBUG_VALUE: qrcodegen_encodeSegmentsAdvanced:tempBuffer <- [DW_OP_plus_uconst 140] [$sp+0]
	@DEBUG_VALUE: qrcodegen_encodeSegmentsAdvanced:qrcode <- [DW_OP_plus_uconst 144] [$sp+0]
	.loc	2 0 34                          @ ../GUILib/src/extra/libs/qrcode/qrcodegen.c:0:34
	cbnz	r0, .LBB1_70
.Ltmp246:
@ %bb.69:                               @   in Loop: Header=BB1_67 Depth=3
	@DEBUG_VALUE: drawCodewords:qrcode <- $r11
	@DEBUG_VALUE: right <- $r9
	@DEBUG_VALUE: vert <- $r8
	@DEBUG_VALUE: x <- $r7
	@DEBUG_VALUE: y <- $r6
	@DEBUG_VALUE: drawCodewords:i <- $r4
	@DEBUG_VALUE: qrcodegen_encodeSegmentsAdvanced:version <- [DW_OP_plus_uconst 44] [$sp+0]
	@DEBUG_VALUE: qrcodegen_encodeSegmentsAdvanced:segs <- [DW_OP_plus_uconst 36] [$sp+0]
	@DEBUG_VALUE: qrcodegen_encodeSegmentsAdvanced:ecl <- [DW_OP_plus_uconst 52] [$sp+0]
	@DEBUG_VALUE: qrcodegen_encodeSegmentsAdvanced:maxVersion <- [DW_OP_plus_uconst 128] [$sp+0]
	@DEBUG_VALUE: qrcodegen_encodeSegmentsAdvanced:mask <- [DW_OP_plus_uconst 132] [$sp+0]
	@DEBUG_VALUE: qrcodegen_encodeSegmentsAdvanced:tempBuffer <- [DW_OP_plus_uconst 140] [$sp+0]
	@DEBUG_VALUE: qrcodegen_encodeSegmentsAdvanced:qrcode <- [DW_OP_plus_uconst 144] [$sp+0]
	.loc	2 585 26 is_stmt 1              @ ../GUILib/src/extra/libs/qrcode/qrcodegen.c:585:26
	ldr	r1, [sp, #140]
	.loc	2 585 33 is_stmt 0              @ ../GUILib/src/extra/libs/qrcode/qrcodegen.c:585:33
	asrs	r0, r4, #3
	.loc	2 585 26                        @ ../GUILib/src/extra/libs/qrcode/qrcodegen.c:585:26
	ldrb	r0, [r1, r0]
	.loc	2 585 42                        @ ../GUILib/src/extra/libs/qrcode/qrcodegen.c:585:42
	movs	r1, #7
	bics	r1, r4
.Ltmp247:
	@DEBUG_VALUE: getBit:x <- $r0
	@DEBUG_VALUE: getBit:i <- $r1
	.loc	2 789 24 is_stmt 1              @ ../GUILib/src/extra/libs/qrcode/qrcodegen.c:789:24
	lsrs	r0, r1
.Ltmp248:
	and	r3, r0, #1
.Ltmp249:
	@DEBUG_VALUE: black <- [DW_OP_LLVM_convert 1 7, DW_OP_LLVM_convert 8 7, DW_OP_stack_value] undef
	.loc	2 586 6                         @ ../GUILib/src/extra/libs/qrcode/qrcodegen.c:586:6
	mov	r0, r11
	mov	r1, r7
.Ltmp250:
	mov	r2, r6
	bl	setModule
.Ltmp251:
	.loc	2 587 7                         @ ../GUILib/src/extra/libs/qrcode/qrcodegen.c:587:7
	adds	r4, #1
.Ltmp252:
	@DEBUG_VALUE: drawCodewords:i <- $r4
.LBB1_70:                               @   in Loop: Header=BB1_67 Depth=3
	@DEBUG_VALUE: drawCodewords:qrcode <- $r11
	@DEBUG_VALUE: right <- $r9
	@DEBUG_VALUE: vert <- $r8
	@DEBUG_VALUE: drawCodewords:i <- $r4
	@DEBUG_VALUE: qrcodegen_encodeSegmentsAdvanced:version <- [DW_OP_plus_uconst 44] [$sp+0]
	@DEBUG_VALUE: qrcodegen_encodeSegmentsAdvanced:segs <- [DW_OP_plus_uconst 36] [$sp+0]
	@DEBUG_VALUE: qrcodegen_encodeSegmentsAdvanced:ecl <- [DW_OP_plus_uconst 52] [$sp+0]
	@DEBUG_VALUE: qrcodegen_encodeSegmentsAdvanced:maxVersion <- [DW_OP_plus_uconst 128] [$sp+0]
	@DEBUG_VALUE: qrcodegen_encodeSegmentsAdvanced:mask <- [DW_OP_plus_uconst 132] [$sp+0]
	@DEBUG_VALUE: qrcodegen_encodeSegmentsAdvanced:tempBuffer <- [DW_OP_plus_uconst 140] [$sp+0]
	@DEBUG_VALUE: qrcodegen_encodeSegmentsAdvanced:qrcode <- [DW_OP_plus_uconst 144] [$sp+0]
	.loc	2 0 7 is_stmt 0                 @ ../GUILib/src/extra/libs/qrcode/qrcodegen.c:0:7
	mov.w	r0, #-1
.Ltmp253:
	@DEBUG_VALUE: j <- undef
	@DEBUG_VALUE: drawCodewords:i <- $r4
	.loc	2 580 4 is_stmt 1               @ ../GUILib/src/extra/libs/qrcode/qrcodegen.c:580:4
	lsls.w	r1, r10, #31
	mov.w	r10, #0
	bne	.LBB1_67
.Ltmp254:
@ %bb.71:                               @   in Loop: Header=BB1_66 Depth=2
	@DEBUG_VALUE: drawCodewords:qrcode <- $r11
	@DEBUG_VALUE: right <- $r9
	@DEBUG_VALUE: vert <- $r8
	@DEBUG_VALUE: drawCodewords:i <- $r4
	@DEBUG_VALUE: qrcodegen_encodeSegmentsAdvanced:version <- [DW_OP_plus_uconst 44] [$sp+0]
	@DEBUG_VALUE: qrcodegen_encodeSegmentsAdvanced:segs <- [DW_OP_plus_uconst 36] [$sp+0]
	@DEBUG_VALUE: qrcodegen_encodeSegmentsAdvanced:ecl <- [DW_OP_plus_uconst 52] [$sp+0]
	@DEBUG_VALUE: qrcodegen_encodeSegmentsAdvanced:maxVersion <- [DW_OP_plus_uconst 128] [$sp+0]
	@DEBUG_VALUE: qrcodegen_encodeSegmentsAdvanced:mask <- [DW_OP_plus_uconst 132] [$sp+0]
	@DEBUG_VALUE: qrcodegen_encodeSegmentsAdvanced:tempBuffer <- [DW_OP_plus_uconst 140] [$sp+0]
	@DEBUG_VALUE: qrcodegen_encodeSegmentsAdvanced:qrcode <- [DW_OP_plus_uconst 144] [$sp+0]
	.loc	2 0 4 is_stmt 0                 @ ../GUILib/src/extra/libs/qrcode/qrcodegen.c:0:4
	ldr	r0, [sp, #48]                   @ 4-byte Reload
.Ltmp255:
	@DEBUG_VALUE: drawCodewords:qrsize <- $r0
	.loc	2 579 41 is_stmt 1              @ ../GUILib/src/extra/libs/qrcode/qrcodegen.c:579:41
	add.w	r8, r8, #1
.Ltmp256:
	@DEBUG_VALUE: vert <- $r8
	@DEBUG_VALUE: drawCodewords:i <- $r4
	.loc	2 579 3 is_stmt 0               @ ../GUILib/src/extra/libs/qrcode/qrcodegen.c:579:3
	cmp	r8, r0
	bne	.LBB1_66
.Ltmp257:
@ %bb.72:                               @   in Loop: Header=BB1_65 Depth=1
	@DEBUG_VALUE: drawCodewords:qrcode <- $r11
	@DEBUG_VALUE: right <- $r9
	@DEBUG_VALUE: drawCodewords:i <- $r4
	@DEBUG_VALUE: qrcodegen_encodeSegmentsAdvanced:version <- [DW_OP_plus_uconst 44] [$sp+0]
	@DEBUG_VALUE: qrcodegen_encodeSegmentsAdvanced:segs <- [DW_OP_plus_uconst 36] [$sp+0]
	@DEBUG_VALUE: qrcodegen_encodeSegmentsAdvanced:ecl <- [DW_OP_plus_uconst 52] [$sp+0]
	@DEBUG_VALUE: qrcodegen_encodeSegmentsAdvanced:maxVersion <- [DW_OP_plus_uconst 128] [$sp+0]
	@DEBUG_VALUE: qrcodegen_encodeSegmentsAdvanced:mask <- [DW_OP_plus_uconst 132] [$sp+0]
	@DEBUG_VALUE: qrcodegen_encodeSegmentsAdvanced:tempBuffer <- [DW_OP_plus_uconst 140] [$sp+0]
	@DEBUG_VALUE: qrcodegen_encodeSegmentsAdvanced:qrcode <- [DW_OP_plus_uconst 144] [$sp+0]
	.loc	2 576 49 is_stmt 1              @ ../GUILib/src/extra/libs/qrcode/qrcodegen.c:576:49
	subs.w	r9, r9, #2
.Ltmp258:
	@DEBUG_VALUE: right <- $r9
	@DEBUG_VALUE: drawCodewords:i <- $r4
	.loc	2 0 49 is_stmt 0                @ ../GUILib/src/extra/libs/qrcode/qrcodegen.c:0:49
	bgt	.LBB1_65
	b	.LBB1_74
.Ltmp259:
.LBB1_73:
	@DEBUG_VALUE: drawCodewords:qrcode <- $r11
	@DEBUG_VALUE: drawCodewords:qrsize <- $r0
	@DEBUG_VALUE: qrcodegen_encodeSegmentsAdvanced:version <- [DW_OP_plus_uconst 44] [$sp+0]
	@DEBUG_VALUE: qrcodegen_encodeSegmentsAdvanced:segs <- [DW_OP_plus_uconst 36] [$sp+0]
	@DEBUG_VALUE: qrcodegen_encodeSegmentsAdvanced:ecl <- [DW_OP_plus_uconst 52] [$sp+0]
	@DEBUG_VALUE: qrcodegen_encodeSegmentsAdvanced:maxVersion <- [DW_OP_plus_uconst 128] [$sp+0]
	@DEBUG_VALUE: qrcodegen_encodeSegmentsAdvanced:mask <- [DW_OP_plus_uconst 132] [$sp+0]
	@DEBUG_VALUE: qrcodegen_encodeSegmentsAdvanced:tempBuffer <- [DW_OP_plus_uconst 140] [$sp+0]
	@DEBUG_VALUE: qrcodegen_encodeSegmentsAdvanced:qrcode <- [DW_OP_plus_uconst 144] [$sp+0]
	@DEBUG_VALUE: drawCodewords:i <- 0
	movs	r4, #0
.Ltmp260:
.LBB1_74:
	@DEBUG_VALUE: drawCodewords:qrcode <- $r11
	@DEBUG_VALUE: qrcodegen_encodeSegmentsAdvanced:version <- [DW_OP_plus_uconst 44] [$sp+0]
	@DEBUG_VALUE: qrcodegen_encodeSegmentsAdvanced:segs <- [DW_OP_plus_uconst 36] [$sp+0]
	@DEBUG_VALUE: qrcodegen_encodeSegmentsAdvanced:ecl <- [DW_OP_plus_uconst 52] [$sp+0]
	@DEBUG_VALUE: qrcodegen_encodeSegmentsAdvanced:maxVersion <- [DW_OP_plus_uconst 128] [$sp+0]
	@DEBUG_VALUE: qrcodegen_encodeSegmentsAdvanced:mask <- [DW_OP_plus_uconst 132] [$sp+0]
	@DEBUG_VALUE: qrcodegen_encodeSegmentsAdvanced:tempBuffer <- [DW_OP_plus_uconst 140] [$sp+0]
	@DEBUG_VALUE: qrcodegen_encodeSegmentsAdvanced:qrcode <- [DW_OP_plus_uconst 144] [$sp+0]
	.loc	2 594 2 is_stmt 1               @ ../GUILib/src/extra/libs/qrcode/qrcodegen.c:594:2
	cmp	r4, r5
	bne.w	.LBB1_207
.Ltmp261:
@ %bb.75:
	@DEBUG_VALUE: qrcodegen_encodeSegmentsAdvanced:version <- [DW_OP_plus_uconst 44] [$sp+0]
	@DEBUG_VALUE: qrcodegen_encodeSegmentsAdvanced:segs <- [DW_OP_plus_uconst 36] [$sp+0]
	@DEBUG_VALUE: qrcodegen_encodeSegmentsAdvanced:ecl <- [DW_OP_plus_uconst 52] [$sp+0]
	@DEBUG_VALUE: qrcodegen_encodeSegmentsAdvanced:maxVersion <- [DW_OP_plus_uconst 128] [$sp+0]
	@DEBUG_VALUE: qrcodegen_encodeSegmentsAdvanced:mask <- [DW_OP_plus_uconst 132] [$sp+0]
	@DEBUG_VALUE: qrcodegen_encodeSegmentsAdvanced:tempBuffer <- [DW_OP_plus_uconst 140] [$sp+0]
	@DEBUG_VALUE: qrcodegen_encodeSegmentsAdvanced:qrcode <- [DW_OP_plus_uconst 144] [$sp+0]
	@DEBUG_VALUE: drawWhiteFunctionModules:qrcode <- $r11
	@DEBUG_VALUE: drawWhiteFunctionModules:version <- [DW_OP_plus_uconst 44] [$sp+0]
	.loc	2 452 15                        @ ../GUILib/src/extra/libs/qrcode/qrcodegen.c:452:15
	mov	r0, r11
	bl	qrcodegen_getSize
.Ltmp262:
	mov	r8, r0
.Ltmp263:
	@DEBUG_VALUE: i <- 7
	@DEBUG_VALUE: drawWhiteFunctionModules:qrsize <- $r8
	.loc	2 453 2                         @ ../GUILib/src/extra/libs/qrcode/qrcodegen.c:453:2
	cmp	r0, #15
	blt	.LBB1_78
.Ltmp264:
@ %bb.76:
	@DEBUG_VALUE: drawWhiteFunctionModules:qrcode <- $r11
	@DEBUG_VALUE: drawWhiteFunctionModules:qrsize <- $r8
	@DEBUG_VALUE: drawWhiteFunctionModules:version <- [DW_OP_plus_uconst 44] [$sp+0]
	@DEBUG_VALUE: qrcodegen_encodeSegmentsAdvanced:version <- [DW_OP_plus_uconst 44] [$sp+0]
	@DEBUG_VALUE: qrcodegen_encodeSegmentsAdvanced:segs <- [DW_OP_plus_uconst 36] [$sp+0]
	@DEBUG_VALUE: qrcodegen_encodeSegmentsAdvanced:ecl <- [DW_OP_plus_uconst 52] [$sp+0]
	@DEBUG_VALUE: qrcodegen_encodeSegmentsAdvanced:maxVersion <- [DW_OP_plus_uconst 128] [$sp+0]
	@DEBUG_VALUE: qrcodegen_encodeSegmentsAdvanced:mask <- [DW_OP_plus_uconst 132] [$sp+0]
	@DEBUG_VALUE: qrcodegen_encodeSegmentsAdvanced:tempBuffer <- [DW_OP_plus_uconst 140] [$sp+0]
	@DEBUG_VALUE: qrcodegen_encodeSegmentsAdvanced:qrcode <- [DW_OP_plus_uconst 144] [$sp+0]
	@DEBUG_VALUE: i <- 7
	.loc	2 0 2 is_stmt 0                 @ ../GUILib/src/extra/libs/qrcode/qrcodegen.c:0:2
	sub.w	r4, r8, #7
	movs	r5, #7
.Ltmp265:
	.p2align	2
.LBB1_77:                               @ =>This Inner Loop Header: Depth=1
	@DEBUG_VALUE: drawWhiteFunctionModules:qrcode <- $r11
	@DEBUG_VALUE: drawWhiteFunctionModules:qrsize <- $r8
	@DEBUG_VALUE: drawWhiteFunctionModules:version <- [DW_OP_plus_uconst 44] [$sp+0]
	@DEBUG_VALUE: qrcodegen_encodeSegmentsAdvanced:version <- [DW_OP_plus_uconst 44] [$sp+0]
	@DEBUG_VALUE: qrcodegen_encodeSegmentsAdvanced:segs <- [DW_OP_plus_uconst 36] [$sp+0]
	@DEBUG_VALUE: qrcodegen_encodeSegmentsAdvanced:ecl <- [DW_OP_plus_uconst 52] [$sp+0]
	@DEBUG_VALUE: qrcodegen_encodeSegmentsAdvanced:maxVersion <- [DW_OP_plus_uconst 128] [$sp+0]
	@DEBUG_VALUE: qrcodegen_encodeSegmentsAdvanced:mask <- [DW_OP_plus_uconst 132] [$sp+0]
	@DEBUG_VALUE: qrcodegen_encodeSegmentsAdvanced:tempBuffer <- [DW_OP_plus_uconst 140] [$sp+0]
	@DEBUG_VALUE: qrcodegen_encodeSegmentsAdvanced:qrcode <- [DW_OP_plus_uconst 144] [$sp+0]
	@DEBUG_VALUE: i <- $r5
	.loc	2 454 3 is_stmt 1               @ ../GUILib/src/extra/libs/qrcode/qrcodegen.c:454:3
	mov	r0, r11
	movs	r1, #6
	mov	r2, r5
	movs	r3, #0
	bl	setModule
.Ltmp266:
	.loc	2 455 3                         @ ../GUILib/src/extra/libs/qrcode/qrcodegen.c:455:3
	mov	r0, r11
	mov	r1, r5
	movs	r2, #6
	movs	r3, #0
	bl	setModule
.Ltmp267:
	.loc	2 453 36                        @ ../GUILib/src/extra/libs/qrcode/qrcodegen.c:453:36
	adds	r5, #2
.Ltmp268:
	@DEBUG_VALUE: i <- $r5
	.loc	2 453 2 is_stmt 0               @ ../GUILib/src/extra/libs/qrcode/qrcodegen.c:453:2
	cmp	r5, r4
	blt	.LBB1_77
.Ltmp269:
.LBB1_78:
	@DEBUG_VALUE: drawWhiteFunctionModules:qrcode <- $r11
	@DEBUG_VALUE: drawWhiteFunctionModules:qrsize <- $r8
	@DEBUG_VALUE: drawWhiteFunctionModules:version <- [DW_OP_plus_uconst 44] [$sp+0]
	@DEBUG_VALUE: qrcodegen_encodeSegmentsAdvanced:version <- [DW_OP_plus_uconst 44] [$sp+0]
	@DEBUG_VALUE: qrcodegen_encodeSegmentsAdvanced:segs <- [DW_OP_plus_uconst 36] [$sp+0]
	@DEBUG_VALUE: qrcodegen_encodeSegmentsAdvanced:ecl <- [DW_OP_plus_uconst 52] [$sp+0]
	@DEBUG_VALUE: qrcodegen_encodeSegmentsAdvanced:maxVersion <- [DW_OP_plus_uconst 128] [$sp+0]
	@DEBUG_VALUE: qrcodegen_encodeSegmentsAdvanced:mask <- [DW_OP_plus_uconst 132] [$sp+0]
	@DEBUG_VALUE: qrcodegen_encodeSegmentsAdvanced:tempBuffer <- [DW_OP_plus_uconst 140] [$sp+0]
	@DEBUG_VALUE: qrcodegen_encodeSegmentsAdvanced:qrcode <- [DW_OP_plus_uconst 144] [$sp+0]
	.loc	2 0 2                           @ ../GUILib/src/extra/libs/qrcode/qrcodegen.c:0:2
	sub.w	r0, r8, #4
	mvn	r10, #3
	@DEBUG_VALUE: dy <- -4
	str	r0, [sp, #52]                   @ 4-byte Spill
.Ltmp270:
	.p2align	2
.LBB1_79:                               @ =>This Loop Header: Depth=1
                                        @     Child Loop BB1_80 Depth 2
	@DEBUG_VALUE: drawWhiteFunctionModules:qrcode <- $r11
	@DEBUG_VALUE: drawWhiteFunctionModules:qrsize <- $r8
	@DEBUG_VALUE: drawWhiteFunctionModules:version <- [DW_OP_plus_uconst 44] [$sp+0]
	@DEBUG_VALUE: qrcodegen_encodeSegmentsAdvanced:version <- [DW_OP_plus_uconst 44] [$sp+0]
	@DEBUG_VALUE: qrcodegen_encodeSegmentsAdvanced:segs <- [DW_OP_plus_uconst 36] [$sp+0]
	@DEBUG_VALUE: qrcodegen_encodeSegmentsAdvanced:ecl <- [DW_OP_plus_uconst 52] [$sp+0]
	@DEBUG_VALUE: qrcodegen_encodeSegmentsAdvanced:maxVersion <- [DW_OP_plus_uconst 128] [$sp+0]
	@DEBUG_VALUE: qrcodegen_encodeSegmentsAdvanced:mask <- [DW_OP_plus_uconst 132] [$sp+0]
	@DEBUG_VALUE: qrcodegen_encodeSegmentsAdvanced:tempBuffer <- [DW_OP_plus_uconst 140] [$sp+0]
	@DEBUG_VALUE: qrcodegen_encodeSegmentsAdvanced:qrcode <- [DW_OP_plus_uconst 144] [$sp+0]
	@DEBUG_VALUE: dy <- $r10
	@DEBUG_VALUE: dx <- -4
	mov	r7, r10
	cmp.w	r10, #0
	it	mi
	rsbmi.w	r7, r10, #0
	ldr	r0, [sp, #52]                   @ 4-byte Reload
	add.w	r5, r10, #3
	add.w	r4, r10, r0
	mvn	r9, #3
.Ltmp271:
	.p2align	2
.LBB1_80:                               @   Parent Loop BB1_79 Depth=1
                                        @ =>  This Inner Loop Header: Depth=2
	@DEBUG_VALUE: drawWhiteFunctionModules:qrcode <- $r11
	@DEBUG_VALUE: dy <- $r10
	@DEBUG_VALUE: drawWhiteFunctionModules:qrsize <- $r8
	@DEBUG_VALUE: drawWhiteFunctionModules:version <- [DW_OP_plus_uconst 44] [$sp+0]
	@DEBUG_VALUE: qrcodegen_encodeSegmentsAdvanced:version <- [DW_OP_plus_uconst 44] [$sp+0]
	@DEBUG_VALUE: qrcodegen_encodeSegmentsAdvanced:segs <- [DW_OP_plus_uconst 36] [$sp+0]
	@DEBUG_VALUE: qrcodegen_encodeSegmentsAdvanced:ecl <- [DW_OP_plus_uconst 52] [$sp+0]
	@DEBUG_VALUE: qrcodegen_encodeSegmentsAdvanced:maxVersion <- [DW_OP_plus_uconst 128] [$sp+0]
	@DEBUG_VALUE: qrcodegen_encodeSegmentsAdvanced:mask <- [DW_OP_plus_uconst 132] [$sp+0]
	@DEBUG_VALUE: qrcodegen_encodeSegmentsAdvanced:tempBuffer <- [DW_OP_plus_uconst 140] [$sp+0]
	@DEBUG_VALUE: qrcodegen_encodeSegmentsAdvanced:qrcode <- [DW_OP_plus_uconst 144] [$sp+0]
	@DEBUG_VALUE: dx <- $r9
	.loc	2 461 15 is_stmt 1              @ ../GUILib/src/extra/libs/qrcode/qrcodegen.c:461:15
	cmp.w	r9, #0
	mov	r0, r9
	it	mi
	rsbmi.w	r0, r9, #0
.Ltmp272:
	@DEBUG_VALUE: dist <- $r0
	.loc	2 462 8                         @ ../GUILib/src/extra/libs/qrcode/qrcodegen.c:462:8
	cmp	r7, r0
	it	hi
	movhi	r0, r7
.Ltmp273:
	@DEBUG_VALUE: dist <- $r0
	.loc	2 464 18                        @ ../GUILib/src/extra/libs/qrcode/qrcodegen.c:464:18
	cmp	r0, #4
	beq	.LBB1_82
.Ltmp274:
@ %bb.81:                               @   in Loop: Header=BB1_80 Depth=2
	@DEBUG_VALUE: drawWhiteFunctionModules:qrcode <- $r11
	@DEBUG_VALUE: dy <- $r10
	@DEBUG_VALUE: dx <- $r9
	@DEBUG_VALUE: drawWhiteFunctionModules:qrsize <- $r8
	@DEBUG_VALUE: dist <- $r0
	@DEBUG_VALUE: drawWhiteFunctionModules:version <- [DW_OP_plus_uconst 44] [$sp+0]
	@DEBUG_VALUE: qrcodegen_encodeSegmentsAdvanced:version <- [DW_OP_plus_uconst 44] [$sp+0]
	@DEBUG_VALUE: qrcodegen_encodeSegmentsAdvanced:segs <- [DW_OP_plus_uconst 36] [$sp+0]
	@DEBUG_VALUE: qrcodegen_encodeSegmentsAdvanced:ecl <- [DW_OP_plus_uconst 52] [$sp+0]
	@DEBUG_VALUE: qrcodegen_encodeSegmentsAdvanced:maxVersion <- [DW_OP_plus_uconst 128] [$sp+0]
	@DEBUG_VALUE: qrcodegen_encodeSegmentsAdvanced:mask <- [DW_OP_plus_uconst 132] [$sp+0]
	@DEBUG_VALUE: qrcodegen_encodeSegmentsAdvanced:tempBuffer <- [DW_OP_plus_uconst 140] [$sp+0]
	@DEBUG_VALUE: qrcodegen_encodeSegmentsAdvanced:qrcode <- [DW_OP_plus_uconst 144] [$sp+0]
	cmp	r0, #2
	bne	.LBB1_94
.Ltmp275:
.LBB1_82:                               @   in Loop: Header=BB1_80 Depth=2
	@DEBUG_VALUE: drawWhiteFunctionModules:qrcode <- $r11
	@DEBUG_VALUE: dy <- $r10
	@DEBUG_VALUE: dx <- $r9
	@DEBUG_VALUE: drawWhiteFunctionModules:qrsize <- $r8
	@DEBUG_VALUE: dist <- $r0
	@DEBUG_VALUE: drawWhiteFunctionModules:version <- [DW_OP_plus_uconst 44] [$sp+0]
	@DEBUG_VALUE: qrcodegen_encodeSegmentsAdvanced:version <- [DW_OP_plus_uconst 44] [$sp+0]
	@DEBUG_VALUE: qrcodegen_encodeSegmentsAdvanced:segs <- [DW_OP_plus_uconst 36] [$sp+0]
	@DEBUG_VALUE: qrcodegen_encodeSegmentsAdvanced:ecl <- [DW_OP_plus_uconst 52] [$sp+0]
	@DEBUG_VALUE: qrcodegen_encodeSegmentsAdvanced:maxVersion <- [DW_OP_plus_uconst 128] [$sp+0]
	@DEBUG_VALUE: qrcodegen_encodeSegmentsAdvanced:mask <- [DW_OP_plus_uconst 132] [$sp+0]
	@DEBUG_VALUE: qrcodegen_encodeSegmentsAdvanced:tempBuffer <- [DW_OP_plus_uconst 140] [$sp+0]
	@DEBUG_VALUE: qrcodegen_encodeSegmentsAdvanced:qrcode <- [DW_OP_plus_uconst 144] [$sp+0]
	@DEBUG_VALUE: setModuleBounded:qrcode <- $r11
	@DEBUG_VALUE: setModuleBounded:x <- [DW_OP_plus_uconst 3, DW_OP_stack_value] $r9
	@DEBUG_VALUE: setModuleBounded:y <- $r5
	@DEBUG_VALUE: setModuleBounded:isBlack <- 0
	.loc	2 781 15                        @ ../GUILib/src/extra/libs/qrcode/qrcodegen.c:781:15
	ldrb.w	r0, [r11]
.Ltmp276:
	@DEBUG_VALUE: setModuleBounded:qrsize <- $r0
	.loc	2 782 13                        @ ../GUILib/src/extra/libs/qrcode/qrcodegen.c:782:13
	cmn.w	r9, #3
.Ltmp277:
	.loc	2 781 15                        @ ../GUILib/src/extra/libs/qrcode/qrcodegen.c:781:15
	add.w	r6, r9, #3
	blt	.LBB1_86
.Ltmp278:
@ %bb.83:                               @   in Loop: Header=BB1_80 Depth=2
	@DEBUG_VALUE: setModuleBounded:qrcode <- $r11
	@DEBUG_VALUE: drawWhiteFunctionModules:qrcode <- $r11
	@DEBUG_VALUE: dy <- $r10
	@DEBUG_VALUE: setModuleBounded:x <- [DW_OP_plus_uconst 3, DW_OP_stack_value] $r9
	@DEBUG_VALUE: dx <- $r9
	@DEBUG_VALUE: drawWhiteFunctionModules:qrsize <- $r8
	@DEBUG_VALUE: setModuleBounded:y <- $r5
	@DEBUG_VALUE: setModuleBounded:qrsize <- $r0
	@DEBUG_VALUE: drawWhiteFunctionModules:version <- [DW_OP_plus_uconst 44] [$sp+0]
	@DEBUG_VALUE: qrcodegen_encodeSegmentsAdvanced:version <- [DW_OP_plus_uconst 44] [$sp+0]
	@DEBUG_VALUE: qrcodegen_encodeSegmentsAdvanced:segs <- [DW_OP_plus_uconst 36] [$sp+0]
	@DEBUG_VALUE: qrcodegen_encodeSegmentsAdvanced:ecl <- [DW_OP_plus_uconst 52] [$sp+0]
	@DEBUG_VALUE: qrcodegen_encodeSegmentsAdvanced:maxVersion <- [DW_OP_plus_uconst 128] [$sp+0]
	@DEBUG_VALUE: qrcodegen_encodeSegmentsAdvanced:mask <- [DW_OP_plus_uconst 132] [$sp+0]
	@DEBUG_VALUE: qrcodegen_encodeSegmentsAdvanced:tempBuffer <- [DW_OP_plus_uconst 140] [$sp+0]
	@DEBUG_VALUE: qrcodegen_encodeSegmentsAdvanced:qrcode <- [DW_OP_plus_uconst 144] [$sp+0]
	@DEBUG_VALUE: setModuleBounded:isBlack <- 0
	.loc	2 782 27                        @ ../GUILib/src/extra/libs/qrcode/qrcodegen.c:782:27
	cmp	r5, r0
	bhs	.LBB1_86
.Ltmp279:
@ %bb.84:                               @   in Loop: Header=BB1_80 Depth=2
	@DEBUG_VALUE: setModuleBounded:qrcode <- $r11
	@DEBUG_VALUE: drawWhiteFunctionModules:qrcode <- $r11
	@DEBUG_VALUE: dy <- $r10
	@DEBUG_VALUE: setModuleBounded:x <- [DW_OP_plus_uconst 3, DW_OP_stack_value] $r9
	@DEBUG_VALUE: dx <- $r9
	@DEBUG_VALUE: drawWhiteFunctionModules:qrsize <- $r8
	@DEBUG_VALUE: setModuleBounded:y <- $r5
	@DEBUG_VALUE: setModuleBounded:qrsize <- $r0
	@DEBUG_VALUE: drawWhiteFunctionModules:version <- [DW_OP_plus_uconst 44] [$sp+0]
	@DEBUG_VALUE: qrcodegen_encodeSegmentsAdvanced:version <- [DW_OP_plus_uconst 44] [$sp+0]
	@DEBUG_VALUE: qrcodegen_encodeSegmentsAdvanced:segs <- [DW_OP_plus_uconst 36] [$sp+0]
	@DEBUG_VALUE: qrcodegen_encodeSegmentsAdvanced:ecl <- [DW_OP_plus_uconst 52] [$sp+0]
	@DEBUG_VALUE: qrcodegen_encodeSegmentsAdvanced:maxVersion <- [DW_OP_plus_uconst 128] [$sp+0]
	@DEBUG_VALUE: qrcodegen_encodeSegmentsAdvanced:mask <- [DW_OP_plus_uconst 132] [$sp+0]
	@DEBUG_VALUE: qrcodegen_encodeSegmentsAdvanced:tempBuffer <- [DW_OP_plus_uconst 140] [$sp+0]
	@DEBUG_VALUE: qrcodegen_encodeSegmentsAdvanced:qrcode <- [DW_OP_plus_uconst 144] [$sp+0]
	@DEBUG_VALUE: setModuleBounded:isBlack <- 0
	cmp	r6, r0
	bge	.LBB1_86
.Ltmp280:
@ %bb.85:                               @   in Loop: Header=BB1_80 Depth=2
	@DEBUG_VALUE: setModuleBounded:qrcode <- $r11
	@DEBUG_VALUE: drawWhiteFunctionModules:qrcode <- $r11
	@DEBUG_VALUE: dy <- $r10
	@DEBUG_VALUE: setModuleBounded:x <- [DW_OP_plus_uconst 3, DW_OP_stack_value] $r9
	@DEBUG_VALUE: dx <- $r9
	@DEBUG_VALUE: drawWhiteFunctionModules:qrsize <- $r8
	@DEBUG_VALUE: setModuleBounded:y <- $r5
	@DEBUG_VALUE: setModuleBounded:qrsize <- $r0
	@DEBUG_VALUE: drawWhiteFunctionModules:version <- [DW_OP_plus_uconst 44] [$sp+0]
	@DEBUG_VALUE: qrcodegen_encodeSegmentsAdvanced:version <- [DW_OP_plus_uconst 44] [$sp+0]
	@DEBUG_VALUE: qrcodegen_encodeSegmentsAdvanced:segs <- [DW_OP_plus_uconst 36] [$sp+0]
	@DEBUG_VALUE: qrcodegen_encodeSegmentsAdvanced:ecl <- [DW_OP_plus_uconst 52] [$sp+0]
	@DEBUG_VALUE: qrcodegen_encodeSegmentsAdvanced:maxVersion <- [DW_OP_plus_uconst 128] [$sp+0]
	@DEBUG_VALUE: qrcodegen_encodeSegmentsAdvanced:mask <- [DW_OP_plus_uconst 132] [$sp+0]
	@DEBUG_VALUE: qrcodegen_encodeSegmentsAdvanced:tempBuffer <- [DW_OP_plus_uconst 140] [$sp+0]
	@DEBUG_VALUE: qrcodegen_encodeSegmentsAdvanced:qrcode <- [DW_OP_plus_uconst 144] [$sp+0]
	@DEBUG_VALUE: setModuleBounded:isBlack <- 0
	.loc	2 783 3                         @ ../GUILib/src/extra/libs/qrcode/qrcodegen.c:783:3
	mov	r0, r11
.Ltmp281:
	mov	r1, r6
	mov	r2, r5
	movs	r3, #0
	bl	setModule
.Ltmp282:
	.loc	2 781 15                        @ ../GUILib/src/extra/libs/qrcode/qrcodegen.c:781:15
	ldrb.w	r0, [r11]
.Ltmp283:
.LBB1_86:                               @   in Loop: Header=BB1_80 Depth=2
	@DEBUG_VALUE: drawWhiteFunctionModules:qrcode <- $r11
	@DEBUG_VALUE: dy <- $r10
	@DEBUG_VALUE: dx <- $r9
	@DEBUG_VALUE: drawWhiteFunctionModules:qrsize <- $r8
	@DEBUG_VALUE: drawWhiteFunctionModules:version <- [DW_OP_plus_uconst 44] [$sp+0]
	@DEBUG_VALUE: qrcodegen_encodeSegmentsAdvanced:version <- [DW_OP_plus_uconst 44] [$sp+0]
	@DEBUG_VALUE: qrcodegen_encodeSegmentsAdvanced:segs <- [DW_OP_plus_uconst 36] [$sp+0]
	@DEBUG_VALUE: qrcodegen_encodeSegmentsAdvanced:ecl <- [DW_OP_plus_uconst 52] [$sp+0]
	@DEBUG_VALUE: qrcodegen_encodeSegmentsAdvanced:maxVersion <- [DW_OP_plus_uconst 128] [$sp+0]
	@DEBUG_VALUE: qrcodegen_encodeSegmentsAdvanced:mask <- [DW_OP_plus_uconst 132] [$sp+0]
	@DEBUG_VALUE: qrcodegen_encodeSegmentsAdvanced:tempBuffer <- [DW_OP_plus_uconst 140] [$sp+0]
	@DEBUG_VALUE: qrcodegen_encodeSegmentsAdvanced:qrcode <- [DW_OP_plus_uconst 144] [$sp+0]
	@DEBUG_VALUE: setModuleBounded:qrcode <- $r11
	@DEBUG_VALUE: setModuleBounded:x <- undef
	@DEBUG_VALUE: setModuleBounded:y <- $r5
	@DEBUG_VALUE: setModuleBounded:isBlack <- 0
	@DEBUG_VALUE: setModuleBounded:qrsize <- $r0
	.loc	2 782 8                         @ ../GUILib/src/extra/libs/qrcode/qrcodegen.c:782:8
	add.w	r1, r8, r9
	subs	r1, #4
	bmi	.LBB1_90
.Ltmp284:
@ %bb.87:                               @   in Loop: Header=BB1_80 Depth=2
	@DEBUG_VALUE: setModuleBounded:qrcode <- $r11
	@DEBUG_VALUE: drawWhiteFunctionModules:qrcode <- $r11
	@DEBUG_VALUE: dy <- $r10
	@DEBUG_VALUE: dx <- $r9
	@DEBUG_VALUE: drawWhiteFunctionModules:qrsize <- $r8
	@DEBUG_VALUE: setModuleBounded:y <- $r5
	@DEBUG_VALUE: setModuleBounded:qrsize <- $r0
	@DEBUG_VALUE: drawWhiteFunctionModules:version <- [DW_OP_plus_uconst 44] [$sp+0]
	@DEBUG_VALUE: qrcodegen_encodeSegmentsAdvanced:version <- [DW_OP_plus_uconst 44] [$sp+0]
	@DEBUG_VALUE: qrcodegen_encodeSegmentsAdvanced:segs <- [DW_OP_plus_uconst 36] [$sp+0]
	@DEBUG_VALUE: qrcodegen_encodeSegmentsAdvanced:ecl <- [DW_OP_plus_uconst 52] [$sp+0]
	@DEBUG_VALUE: qrcodegen_encodeSegmentsAdvanced:maxVersion <- [DW_OP_plus_uconst 128] [$sp+0]
	@DEBUG_VALUE: qrcodegen_encodeSegmentsAdvanced:mask <- [DW_OP_plus_uconst 132] [$sp+0]
	@DEBUG_VALUE: qrcodegen_encodeSegmentsAdvanced:tempBuffer <- [DW_OP_plus_uconst 140] [$sp+0]
	@DEBUG_VALUE: qrcodegen_encodeSegmentsAdvanced:qrcode <- [DW_OP_plus_uconst 144] [$sp+0]
	@DEBUG_VALUE: setModuleBounded:isBlack <- 0
	.loc	2 782 27 is_stmt 0              @ ../GUILib/src/extra/libs/qrcode/qrcodegen.c:782:27
	cmp	r5, r0
	bhs	.LBB1_90
.Ltmp285:
@ %bb.88:                               @   in Loop: Header=BB1_80 Depth=2
	@DEBUG_VALUE: setModuleBounded:qrcode <- $r11
	@DEBUG_VALUE: drawWhiteFunctionModules:qrcode <- $r11
	@DEBUG_VALUE: dy <- $r10
	@DEBUG_VALUE: dx <- $r9
	@DEBUG_VALUE: drawWhiteFunctionModules:qrsize <- $r8
	@DEBUG_VALUE: setModuleBounded:y <- $r5
	@DEBUG_VALUE: setModuleBounded:qrsize <- $r0
	@DEBUG_VALUE: drawWhiteFunctionModules:version <- [DW_OP_plus_uconst 44] [$sp+0]
	@DEBUG_VALUE: qrcodegen_encodeSegmentsAdvanced:version <- [DW_OP_plus_uconst 44] [$sp+0]
	@DEBUG_VALUE: qrcodegen_encodeSegmentsAdvanced:segs <- [DW_OP_plus_uconst 36] [$sp+0]
	@DEBUG_VALUE: qrcodegen_encodeSegmentsAdvanced:ecl <- [DW_OP_plus_uconst 52] [$sp+0]
	@DEBUG_VALUE: qrcodegen_encodeSegmentsAdvanced:maxVersion <- [DW_OP_plus_uconst 128] [$sp+0]
	@DEBUG_VALUE: qrcodegen_encodeSegmentsAdvanced:mask <- [DW_OP_plus_uconst 132] [$sp+0]
	@DEBUG_VALUE: qrcodegen_encodeSegmentsAdvanced:tempBuffer <- [DW_OP_plus_uconst 140] [$sp+0]
	@DEBUG_VALUE: qrcodegen_encodeSegmentsAdvanced:qrcode <- [DW_OP_plus_uconst 144] [$sp+0]
	@DEBUG_VALUE: setModuleBounded:isBlack <- 0
	cmp	r1, r0
	bge	.LBB1_90
.Ltmp286:
@ %bb.89:                               @   in Loop: Header=BB1_80 Depth=2
	@DEBUG_VALUE: setModuleBounded:qrcode <- $r11
	@DEBUG_VALUE: drawWhiteFunctionModules:qrcode <- $r11
	@DEBUG_VALUE: dy <- $r10
	@DEBUG_VALUE: dx <- $r9
	@DEBUG_VALUE: drawWhiteFunctionModules:qrsize <- $r8
	@DEBUG_VALUE: setModuleBounded:y <- $r5
	@DEBUG_VALUE: setModuleBounded:qrsize <- $r0
	@DEBUG_VALUE: drawWhiteFunctionModules:version <- [DW_OP_plus_uconst 44] [$sp+0]
	@DEBUG_VALUE: qrcodegen_encodeSegmentsAdvanced:version <- [DW_OP_plus_uconst 44] [$sp+0]
	@DEBUG_VALUE: qrcodegen_encodeSegmentsAdvanced:segs <- [DW_OP_plus_uconst 36] [$sp+0]
	@DEBUG_VALUE: qrcodegen_encodeSegmentsAdvanced:ecl <- [DW_OP_plus_uconst 52] [$sp+0]
	@DEBUG_VALUE: qrcodegen_encodeSegmentsAdvanced:maxVersion <- [DW_OP_plus_uconst 128] [$sp+0]
	@DEBUG_VALUE: qrcodegen_encodeSegmentsAdvanced:mask <- [DW_OP_plus_uconst 132] [$sp+0]
	@DEBUG_VALUE: qrcodegen_encodeSegmentsAdvanced:tempBuffer <- [DW_OP_plus_uconst 140] [$sp+0]
	@DEBUG_VALUE: qrcodegen_encodeSegmentsAdvanced:qrcode <- [DW_OP_plus_uconst 144] [$sp+0]
	@DEBUG_VALUE: setModuleBounded:isBlack <- 0
	.loc	2 783 3 is_stmt 1               @ ../GUILib/src/extra/libs/qrcode/qrcodegen.c:783:3
	mov	r0, r11
.Ltmp287:
	mov	r2, r5
	movs	r3, #0
	bl	setModule
.Ltmp288:
	.loc	2 781 15                        @ ../GUILib/src/extra/libs/qrcode/qrcodegen.c:781:15
	ldrb.w	r0, [r11]
.Ltmp289:
.LBB1_90:                               @   in Loop: Header=BB1_80 Depth=2
	@DEBUG_VALUE: drawWhiteFunctionModules:qrcode <- $r11
	@DEBUG_VALUE: dy <- $r10
	@DEBUG_VALUE: dx <- $r9
	@DEBUG_VALUE: drawWhiteFunctionModules:qrsize <- $r8
	@DEBUG_VALUE: drawWhiteFunctionModules:version <- [DW_OP_plus_uconst 44] [$sp+0]
	@DEBUG_VALUE: qrcodegen_encodeSegmentsAdvanced:version <- [DW_OP_plus_uconst 44] [$sp+0]
	@DEBUG_VALUE: qrcodegen_encodeSegmentsAdvanced:segs <- [DW_OP_plus_uconst 36] [$sp+0]
	@DEBUG_VALUE: qrcodegen_encodeSegmentsAdvanced:ecl <- [DW_OP_plus_uconst 52] [$sp+0]
	@DEBUG_VALUE: qrcodegen_encodeSegmentsAdvanced:maxVersion <- [DW_OP_plus_uconst 128] [$sp+0]
	@DEBUG_VALUE: qrcodegen_encodeSegmentsAdvanced:mask <- [DW_OP_plus_uconst 132] [$sp+0]
	@DEBUG_VALUE: qrcodegen_encodeSegmentsAdvanced:tempBuffer <- [DW_OP_plus_uconst 140] [$sp+0]
	@DEBUG_VALUE: qrcodegen_encodeSegmentsAdvanced:qrcode <- [DW_OP_plus_uconst 144] [$sp+0]
	@DEBUG_VALUE: setModuleBounded:qrcode <- $r11
	@DEBUG_VALUE: setModuleBounded:x <- [DW_OP_plus_uconst 3, DW_OP_stack_value] $r9
	@DEBUG_VALUE: setModuleBounded:y <- $r4
	@DEBUG_VALUE: setModuleBounded:isBlack <- 0
	@DEBUG_VALUE: setModuleBounded:qrsize <- $r0
	.loc	2 782 13                        @ ../GUILib/src/extra/libs/qrcode/qrcodegen.c:782:13
	cmn.w	r9, #3
	blt	.LBB1_94
.Ltmp290:
@ %bb.91:                               @   in Loop: Header=BB1_80 Depth=2
	@DEBUG_VALUE: setModuleBounded:qrcode <- $r11
	@DEBUG_VALUE: drawWhiteFunctionModules:qrcode <- $r11
	@DEBUG_VALUE: dy <- $r10
	@DEBUG_VALUE: setModuleBounded:x <- [DW_OP_plus_uconst 3, DW_OP_stack_value] $r9
	@DEBUG_VALUE: dx <- $r9
	@DEBUG_VALUE: drawWhiteFunctionModules:qrsize <- $r8
	@DEBUG_VALUE: setModuleBounded:y <- $r4
	@DEBUG_VALUE: setModuleBounded:qrsize <- $r0
	@DEBUG_VALUE: drawWhiteFunctionModules:version <- [DW_OP_plus_uconst 44] [$sp+0]
	@DEBUG_VALUE: qrcodegen_encodeSegmentsAdvanced:version <- [DW_OP_plus_uconst 44] [$sp+0]
	@DEBUG_VALUE: qrcodegen_encodeSegmentsAdvanced:segs <- [DW_OP_plus_uconst 36] [$sp+0]
	@DEBUG_VALUE: qrcodegen_encodeSegmentsAdvanced:ecl <- [DW_OP_plus_uconst 52] [$sp+0]
	@DEBUG_VALUE: qrcodegen_encodeSegmentsAdvanced:maxVersion <- [DW_OP_plus_uconst 128] [$sp+0]
	@DEBUG_VALUE: qrcodegen_encodeSegmentsAdvanced:mask <- [DW_OP_plus_uconst 132] [$sp+0]
	@DEBUG_VALUE: qrcodegen_encodeSegmentsAdvanced:tempBuffer <- [DW_OP_plus_uconst 140] [$sp+0]
	@DEBUG_VALUE: qrcodegen_encodeSegmentsAdvanced:qrcode <- [DW_OP_plus_uconst 144] [$sp+0]
	@DEBUG_VALUE: setModuleBounded:isBlack <- 0
	.loc	2 782 27 is_stmt 0              @ ../GUILib/src/extra/libs/qrcode/qrcodegen.c:782:27
	cmp	r4, r0
	bhs	.LBB1_94
.Ltmp291:
@ %bb.92:                               @   in Loop: Header=BB1_80 Depth=2
	@DEBUG_VALUE: setModuleBounded:qrcode <- $r11
	@DEBUG_VALUE: drawWhiteFunctionModules:qrcode <- $r11
	@DEBUG_VALUE: dy <- $r10
	@DEBUG_VALUE: setModuleBounded:x <- [DW_OP_plus_uconst 3, DW_OP_stack_value] $r9
	@DEBUG_VALUE: dx <- $r9
	@DEBUG_VALUE: drawWhiteFunctionModules:qrsize <- $r8
	@DEBUG_VALUE: setModuleBounded:y <- $r4
	@DEBUG_VALUE: setModuleBounded:qrsize <- $r0
	@DEBUG_VALUE: drawWhiteFunctionModules:version <- [DW_OP_plus_uconst 44] [$sp+0]
	@DEBUG_VALUE: qrcodegen_encodeSegmentsAdvanced:version <- [DW_OP_plus_uconst 44] [$sp+0]
	@DEBUG_VALUE: qrcodegen_encodeSegmentsAdvanced:segs <- [DW_OP_plus_uconst 36] [$sp+0]
	@DEBUG_VALUE: qrcodegen_encodeSegmentsAdvanced:ecl <- [DW_OP_plus_uconst 52] [$sp+0]
	@DEBUG_VALUE: qrcodegen_encodeSegmentsAdvanced:maxVersion <- [DW_OP_plus_uconst 128] [$sp+0]
	@DEBUG_VALUE: qrcodegen_encodeSegmentsAdvanced:mask <- [DW_OP_plus_uconst 132] [$sp+0]
	@DEBUG_VALUE: qrcodegen_encodeSegmentsAdvanced:tempBuffer <- [DW_OP_plus_uconst 140] [$sp+0]
	@DEBUG_VALUE: qrcodegen_encodeSegmentsAdvanced:qrcode <- [DW_OP_plus_uconst 144] [$sp+0]
	@DEBUG_VALUE: setModuleBounded:isBlack <- 0
	cmp	r6, r0
	bge	.LBB1_94
.Ltmp292:
@ %bb.93:                               @   in Loop: Header=BB1_80 Depth=2
	@DEBUG_VALUE: setModuleBounded:qrcode <- $r11
	@DEBUG_VALUE: drawWhiteFunctionModules:qrcode <- $r11
	@DEBUG_VALUE: dy <- $r10
	@DEBUG_VALUE: setModuleBounded:x <- [DW_OP_plus_uconst 3, DW_OP_stack_value] $r9
	@DEBUG_VALUE: dx <- $r9
	@DEBUG_VALUE: drawWhiteFunctionModules:qrsize <- $r8
	@DEBUG_VALUE: setModuleBounded:y <- $r4
	@DEBUG_VALUE: setModuleBounded:qrsize <- $r0
	@DEBUG_VALUE: drawWhiteFunctionModules:version <- [DW_OP_plus_uconst 44] [$sp+0]
	@DEBUG_VALUE: qrcodegen_encodeSegmentsAdvanced:version <- [DW_OP_plus_uconst 44] [$sp+0]
	@DEBUG_VALUE: qrcodegen_encodeSegmentsAdvanced:segs <- [DW_OP_plus_uconst 36] [$sp+0]
	@DEBUG_VALUE: qrcodegen_encodeSegmentsAdvanced:ecl <- [DW_OP_plus_uconst 52] [$sp+0]
	@DEBUG_VALUE: qrcodegen_encodeSegmentsAdvanced:maxVersion <- [DW_OP_plus_uconst 128] [$sp+0]
	@DEBUG_VALUE: qrcodegen_encodeSegmentsAdvanced:mask <- [DW_OP_plus_uconst 132] [$sp+0]
	@DEBUG_VALUE: qrcodegen_encodeSegmentsAdvanced:tempBuffer <- [DW_OP_plus_uconst 140] [$sp+0]
	@DEBUG_VALUE: qrcodegen_encodeSegmentsAdvanced:qrcode <- [DW_OP_plus_uconst 144] [$sp+0]
	@DEBUG_VALUE: setModuleBounded:isBlack <- 0
	.loc	2 783 3 is_stmt 1               @ ../GUILib/src/extra/libs/qrcode/qrcodegen.c:783:3
	mov	r0, r11
.Ltmp293:
	mov	r1, r6
	mov	r2, r4
	movs	r3, #0
	bl	setModule
.Ltmp294:
	.p2align	2
.LBB1_94:                               @   in Loop: Header=BB1_80 Depth=2
	@DEBUG_VALUE: drawWhiteFunctionModules:qrcode <- $r11
	@DEBUG_VALUE: dy <- $r10
	@DEBUG_VALUE: dx <- $r9
	@DEBUG_VALUE: drawWhiteFunctionModules:qrsize <- $r8
	@DEBUG_VALUE: drawWhiteFunctionModules:version <- [DW_OP_plus_uconst 44] [$sp+0]
	@DEBUG_VALUE: qrcodegen_encodeSegmentsAdvanced:version <- [DW_OP_plus_uconst 44] [$sp+0]
	@DEBUG_VALUE: qrcodegen_encodeSegmentsAdvanced:segs <- [DW_OP_plus_uconst 36] [$sp+0]
	@DEBUG_VALUE: qrcodegen_encodeSegmentsAdvanced:ecl <- [DW_OP_plus_uconst 52] [$sp+0]
	@DEBUG_VALUE: qrcodegen_encodeSegmentsAdvanced:maxVersion <- [DW_OP_plus_uconst 128] [$sp+0]
	@DEBUG_VALUE: qrcodegen_encodeSegmentsAdvanced:mask <- [DW_OP_plus_uconst 132] [$sp+0]
	@DEBUG_VALUE: qrcodegen_encodeSegmentsAdvanced:tempBuffer <- [DW_OP_plus_uconst 140] [$sp+0]
	@DEBUG_VALUE: qrcodegen_encodeSegmentsAdvanced:qrcode <- [DW_OP_plus_uconst 144] [$sp+0]
	.loc	2 460 32                        @ ../GUILib/src/extra/libs/qrcode/qrcodegen.c:460:32
	add.w	r9, r9, #1
.Ltmp295:
	@DEBUG_VALUE: dx <- $r9
	.loc	2 460 3 is_stmt 0               @ ../GUILib/src/extra/libs/qrcode/qrcodegen.c:460:3
	cmp.w	r9, #5
	bne	.LBB1_80
.Ltmp296:
@ %bb.95:                               @   in Loop: Header=BB1_79 Depth=1
	@DEBUG_VALUE: drawWhiteFunctionModules:qrcode <- $r11
	@DEBUG_VALUE: dy <- $r10
	@DEBUG_VALUE: drawWhiteFunctionModules:qrsize <- $r8
	@DEBUG_VALUE: drawWhiteFunctionModules:version <- [DW_OP_plus_uconst 44] [$sp+0]
	@DEBUG_VALUE: qrcodegen_encodeSegmentsAdvanced:version <- [DW_OP_plus_uconst 44] [$sp+0]
	@DEBUG_VALUE: qrcodegen_encodeSegmentsAdvanced:segs <- [DW_OP_plus_uconst 36] [$sp+0]
	@DEBUG_VALUE: qrcodegen_encodeSegmentsAdvanced:ecl <- [DW_OP_plus_uconst 52] [$sp+0]
	@DEBUG_VALUE: qrcodegen_encodeSegmentsAdvanced:maxVersion <- [DW_OP_plus_uconst 128] [$sp+0]
	@DEBUG_VALUE: qrcodegen_encodeSegmentsAdvanced:mask <- [DW_OP_plus_uconst 132] [$sp+0]
	@DEBUG_VALUE: qrcodegen_encodeSegmentsAdvanced:tempBuffer <- [DW_OP_plus_uconst 140] [$sp+0]
	@DEBUG_VALUE: qrcodegen_encodeSegmentsAdvanced:qrcode <- [DW_OP_plus_uconst 144] [$sp+0]
	.loc	2 459 31 is_stmt 1              @ ../GUILib/src/extra/libs/qrcode/qrcodegen.c:459:31
	add.w	r10, r10, #1
.Ltmp297:
	@DEBUG_VALUE: dy <- $r10
	.loc	2 459 2 is_stmt 0               @ ../GUILib/src/extra/libs/qrcode/qrcodegen.c:459:2
	cmp.w	r10, #5
	bne	.LBB1_79
.Ltmp298:
@ %bb.96:
	@DEBUG_VALUE: drawWhiteFunctionModules:qrcode <- $r11
	@DEBUG_VALUE: drawWhiteFunctionModules:qrsize <- $r8
	@DEBUG_VALUE: drawWhiteFunctionModules:version <- [DW_OP_plus_uconst 44] [$sp+0]
	@DEBUG_VALUE: qrcodegen_encodeSegmentsAdvanced:version <- [DW_OP_plus_uconst 44] [$sp+0]
	@DEBUG_VALUE: qrcodegen_encodeSegmentsAdvanced:segs <- [DW_OP_plus_uconst 36] [$sp+0]
	@DEBUG_VALUE: qrcodegen_encodeSegmentsAdvanced:ecl <- [DW_OP_plus_uconst 52] [$sp+0]
	@DEBUG_VALUE: qrcodegen_encodeSegmentsAdvanced:maxVersion <- [DW_OP_plus_uconst 128] [$sp+0]
	@DEBUG_VALUE: qrcodegen_encodeSegmentsAdvanced:mask <- [DW_OP_plus_uconst 132] [$sp+0]
	@DEBUG_VALUE: qrcodegen_encodeSegmentsAdvanced:tempBuffer <- [DW_OP_plus_uconst 140] [$sp+0]
	@DEBUG_VALUE: qrcodegen_encodeSegmentsAdvanced:qrcode <- [DW_OP_plus_uconst 144] [$sp+0]
	.loc	2 474 17 is_stmt 1              @ ../GUILib/src/extra/libs/qrcode/qrcodegen.c:474:17
	ldr	r0, [sp, #44]                   @ 4-byte Reload
	add	r1, sp, #60
	str.w	r8, [sp, #40]                   @ 4-byte Spill
.Ltmp299:
	@DEBUG_VALUE: drawWhiteFunctionModules:qrsize <- [DW_OP_plus_uconst 40] [$sp+0]
	bl	getAlignmentPatternPositions
.Ltmp300:
	@DEBUG_VALUE: drawWhiteFunctionModules:numAlign <- $r0
	.loc	2 475 2                         @ ../GUILib/src/extra/libs/qrcode/qrcodegen.c:475:2
	cmp	r0, #1
	mov	r1, r0
.Ltmp301:
	@DEBUG_VALUE: drawWhiteFunctionModules:numAlign <- $r1
	str	r0, [sp, #48]                   @ 4-byte Spill
.Ltmp302:
	@DEBUG_VALUE: i <- 0
	@DEBUG_VALUE: drawWhiteFunctionModules:numAlign <- [DW_OP_plus_uconst 48] [$sp+0]
	blt	.LBB1_108
.Ltmp303:
@ %bb.97:
	@DEBUG_VALUE: drawWhiteFunctionModules:qrsize <- [DW_OP_plus_uconst 40] [$sp+0]
	@DEBUG_VALUE: drawWhiteFunctionModules:qrcode <- $r11
	@DEBUG_VALUE: drawWhiteFunctionModules:numAlign <- [DW_OP_plus_uconst 48] [$sp+0]
	@DEBUG_VALUE: drawWhiteFunctionModules:version <- [DW_OP_plus_uconst 44] [$sp+0]
	@DEBUG_VALUE: qrcodegen_encodeSegmentsAdvanced:version <- [DW_OP_plus_uconst 44] [$sp+0]
	@DEBUG_VALUE: qrcodegen_encodeSegmentsAdvanced:segs <- [DW_OP_plus_uconst 36] [$sp+0]
	@DEBUG_VALUE: qrcodegen_encodeSegmentsAdvanced:ecl <- [DW_OP_plus_uconst 52] [$sp+0]
	@DEBUG_VALUE: qrcodegen_encodeSegmentsAdvanced:maxVersion <- [DW_OP_plus_uconst 128] [$sp+0]
	@DEBUG_VALUE: qrcodegen_encodeSegmentsAdvanced:mask <- [DW_OP_plus_uconst 132] [$sp+0]
	@DEBUG_VALUE: qrcodegen_encodeSegmentsAdvanced:tempBuffer <- [DW_OP_plus_uconst 140] [$sp+0]
	@DEBUG_VALUE: qrcodegen_encodeSegmentsAdvanced:qrcode <- [DW_OP_plus_uconst 144] [$sp+0]
	@DEBUG_VALUE: i <- 0
	.loc	2 0 2 is_stmt 0                 @ ../GUILib/src/extra/libs/qrcode/qrcodegen.c:0:2
	ldr	r0, [sp, #48]                   @ 4-byte Reload
	movs	r5, #0
	subs	r0, #1
	str	r0, [sp, #52]                   @ 4-byte Spill
.Ltmp304:
	.p2align	2
.LBB1_98:                               @ =>This Loop Header: Depth=1
                                        @     Child Loop BB1_99 Depth 2
                                        @       Child Loop BB1_103 Depth 3
                                        @         Child Loop BB1_104 Depth 4
	@DEBUG_VALUE: drawWhiteFunctionModules:qrsize <- [DW_OP_plus_uconst 40] [$sp+0]
	@DEBUG_VALUE: drawWhiteFunctionModules:qrcode <- $r11
	@DEBUG_VALUE: drawWhiteFunctionModules:numAlign <- [DW_OP_plus_uconst 48] [$sp+0]
	@DEBUG_VALUE: drawWhiteFunctionModules:version <- [DW_OP_plus_uconst 44] [$sp+0]
	@DEBUG_VALUE: qrcodegen_encodeSegmentsAdvanced:version <- [DW_OP_plus_uconst 44] [$sp+0]
	@DEBUG_VALUE: qrcodegen_encodeSegmentsAdvanced:segs <- [DW_OP_plus_uconst 36] [$sp+0]
	@DEBUG_VALUE: qrcodegen_encodeSegmentsAdvanced:ecl <- [DW_OP_plus_uconst 52] [$sp+0]
	@DEBUG_VALUE: qrcodegen_encodeSegmentsAdvanced:maxVersion <- [DW_OP_plus_uconst 128] [$sp+0]
	@DEBUG_VALUE: qrcodegen_encodeSegmentsAdvanced:mask <- [DW_OP_plus_uconst 132] [$sp+0]
	@DEBUG_VALUE: qrcodegen_encodeSegmentsAdvanced:tempBuffer <- [DW_OP_plus_uconst 140] [$sp+0]
	@DEBUG_VALUE: qrcodegen_encodeSegmentsAdvanced:qrcode <- [DW_OP_plus_uconst 144] [$sp+0]
	movs	r7, #0
	@DEBUG_VALUE: j <- 0
.Ltmp305:
	@DEBUG_VALUE: i <- $r5
	.p2align	2
.LBB1_99:                               @   Parent Loop BB1_98 Depth=1
                                        @ =>  This Loop Header: Depth=2
                                        @       Child Loop BB1_103 Depth 3
                                        @         Child Loop BB1_104 Depth 4
	@DEBUG_VALUE: drawWhiteFunctionModules:qrsize <- [DW_OP_plus_uconst 40] [$sp+0]
	@DEBUG_VALUE: drawWhiteFunctionModules:qrcode <- $r11
	@DEBUG_VALUE: i <- $r5
	@DEBUG_VALUE: drawWhiteFunctionModules:numAlign <- [DW_OP_plus_uconst 48] [$sp+0]
	@DEBUG_VALUE: drawWhiteFunctionModules:version <- [DW_OP_plus_uconst 44] [$sp+0]
	@DEBUG_VALUE: qrcodegen_encodeSegmentsAdvanced:version <- [DW_OP_plus_uconst 44] [$sp+0]
	@DEBUG_VALUE: qrcodegen_encodeSegmentsAdvanced:segs <- [DW_OP_plus_uconst 36] [$sp+0]
	@DEBUG_VALUE: qrcodegen_encodeSegmentsAdvanced:ecl <- [DW_OP_plus_uconst 52] [$sp+0]
	@DEBUG_VALUE: qrcodegen_encodeSegmentsAdvanced:maxVersion <- [DW_OP_plus_uconst 128] [$sp+0]
	@DEBUG_VALUE: qrcodegen_encodeSegmentsAdvanced:mask <- [DW_OP_plus_uconst 132] [$sp+0]
	@DEBUG_VALUE: qrcodegen_encodeSegmentsAdvanced:tempBuffer <- [DW_OP_plus_uconst 140] [$sp+0]
	@DEBUG_VALUE: qrcodegen_encodeSegmentsAdvanced:qrcode <- [DW_OP_plus_uconst 144] [$sp+0]
	@DEBUG_VALUE: j <- $r7
	.loc	2 477 16 is_stmt 1              @ ../GUILib/src/extra/libs/qrcode/qrcodegen.c:477:16
	orrs.w	r0, r7, r5
	beq	.LBB1_106
.Ltmp306:
@ %bb.100:                              @   in Loop: Header=BB1_99 Depth=2
	@DEBUG_VALUE: drawWhiteFunctionModules:qrsize <- [DW_OP_plus_uconst 40] [$sp+0]
	@DEBUG_VALUE: drawWhiteFunctionModules:qrcode <- $r11
	@DEBUG_VALUE: j <- $r7
	@DEBUG_VALUE: i <- $r5
	@DEBUG_VALUE: drawWhiteFunctionModules:numAlign <- [DW_OP_plus_uconst 48] [$sp+0]
	@DEBUG_VALUE: drawWhiteFunctionModules:version <- [DW_OP_plus_uconst 44] [$sp+0]
	@DEBUG_VALUE: qrcodegen_encodeSegmentsAdvanced:version <- [DW_OP_plus_uconst 44] [$sp+0]
	@DEBUG_VALUE: qrcodegen_encodeSegmentsAdvanced:segs <- [DW_OP_plus_uconst 36] [$sp+0]
	@DEBUG_VALUE: qrcodegen_encodeSegmentsAdvanced:ecl <- [DW_OP_plus_uconst 52] [$sp+0]
	@DEBUG_VALUE: qrcodegen_encodeSegmentsAdvanced:maxVersion <- [DW_OP_plus_uconst 128] [$sp+0]
	@DEBUG_VALUE: qrcodegen_encodeSegmentsAdvanced:mask <- [DW_OP_plus_uconst 132] [$sp+0]
	@DEBUG_VALUE: qrcodegen_encodeSegmentsAdvanced:tempBuffer <- [DW_OP_plus_uconst 140] [$sp+0]
	@DEBUG_VALUE: qrcodegen_encodeSegmentsAdvanced:qrcode <- [DW_OP_plus_uconst 144] [$sp+0]
	.loc	2 0 16 is_stmt 0                @ ../GUILib/src/extra/libs/qrcode/qrcodegen.c:0:16
	ldr	r0, [sp, #52]                   @ 4-byte Reload
	eors	r0, r7
	.loc	2 477 38                        @ ../GUILib/src/extra/libs/qrcode/qrcodegen.c:477:38
	orrs	r0, r5
	beq	.LBB1_106
.Ltmp307:
@ %bb.101:                              @   in Loop: Header=BB1_99 Depth=2
	@DEBUG_VALUE: drawWhiteFunctionModules:qrsize <- [DW_OP_plus_uconst 40] [$sp+0]
	@DEBUG_VALUE: drawWhiteFunctionModules:qrcode <- $r11
	@DEBUG_VALUE: j <- $r7
	@DEBUG_VALUE: i <- $r5
	@DEBUG_VALUE: drawWhiteFunctionModules:numAlign <- [DW_OP_plus_uconst 48] [$sp+0]
	@DEBUG_VALUE: drawWhiteFunctionModules:version <- [DW_OP_plus_uconst 44] [$sp+0]
	@DEBUG_VALUE: qrcodegen_encodeSegmentsAdvanced:version <- [DW_OP_plus_uconst 44] [$sp+0]
	@DEBUG_VALUE: qrcodegen_encodeSegmentsAdvanced:segs <- [DW_OP_plus_uconst 36] [$sp+0]
	@DEBUG_VALUE: qrcodegen_encodeSegmentsAdvanced:ecl <- [DW_OP_plus_uconst 52] [$sp+0]
	@DEBUG_VALUE: qrcodegen_encodeSegmentsAdvanced:maxVersion <- [DW_OP_plus_uconst 128] [$sp+0]
	@DEBUG_VALUE: qrcodegen_encodeSegmentsAdvanced:mask <- [DW_OP_plus_uconst 132] [$sp+0]
	@DEBUG_VALUE: qrcodegen_encodeSegmentsAdvanced:tempBuffer <- [DW_OP_plus_uconst 140] [$sp+0]
	@DEBUG_VALUE: qrcodegen_encodeSegmentsAdvanced:qrcode <- [DW_OP_plus_uconst 144] [$sp+0]
	.loc	2 0 38                          @ ../GUILib/src/extra/libs/qrcode/qrcodegen.c:0:38
	ldr	r0, [sp, #52]                   @ 4-byte Reload
	eors	r0, r5
	orrs	r0, r7
	clz	r0, r0
	lsrs	r0, r0, #5
	bne	.LBB1_106
.Ltmp308:
@ %bb.102:                              @   in Loop: Header=BB1_99 Depth=2
	@DEBUG_VALUE: drawWhiteFunctionModules:qrsize <- [DW_OP_plus_uconst 40] [$sp+0]
	@DEBUG_VALUE: drawWhiteFunctionModules:qrcode <- $r11
	@DEBUG_VALUE: j <- $r7
	@DEBUG_VALUE: i <- $r5
	@DEBUG_VALUE: drawWhiteFunctionModules:numAlign <- [DW_OP_plus_uconst 48] [$sp+0]
	@DEBUG_VALUE: drawWhiteFunctionModules:version <- [DW_OP_plus_uconst 44] [$sp+0]
	@DEBUG_VALUE: qrcodegen_encodeSegmentsAdvanced:version <- [DW_OP_plus_uconst 44] [$sp+0]
	@DEBUG_VALUE: qrcodegen_encodeSegmentsAdvanced:segs <- [DW_OP_plus_uconst 36] [$sp+0]
	@DEBUG_VALUE: qrcodegen_encodeSegmentsAdvanced:ecl <- [DW_OP_plus_uconst 52] [$sp+0]
	@DEBUG_VALUE: qrcodegen_encodeSegmentsAdvanced:maxVersion <- [DW_OP_plus_uconst 128] [$sp+0]
	@DEBUG_VALUE: qrcodegen_encodeSegmentsAdvanced:mask <- [DW_OP_plus_uconst 132] [$sp+0]
	@DEBUG_VALUE: qrcodegen_encodeSegmentsAdvanced:tempBuffer <- [DW_OP_plus_uconst 140] [$sp+0]
	@DEBUG_VALUE: qrcodegen_encodeSegmentsAdvanced:qrcode <- [DW_OP_plus_uconst 144] [$sp+0]
	@DEBUG_VALUE: dy <- -1
	add	r0, sp, #60
	ldrb.w	r9, [r0, r5]
	ldrb.w	r8, [r0, r7]
	mov.w	r10, #-1
.Ltmp309:
	.p2align	2
.LBB1_103:                              @   Parent Loop BB1_98 Depth=1
                                        @     Parent Loop BB1_99 Depth=2
                                        @ =>    This Loop Header: Depth=3
                                        @         Child Loop BB1_104 Depth 4
	@DEBUG_VALUE: drawWhiteFunctionModules:qrsize <- [DW_OP_plus_uconst 40] [$sp+0]
	@DEBUG_VALUE: drawWhiteFunctionModules:qrcode <- $r11
	@DEBUG_VALUE: j <- $r7
	@DEBUG_VALUE: i <- $r5
	@DEBUG_VALUE: drawWhiteFunctionModules:numAlign <- [DW_OP_plus_uconst 48] [$sp+0]
	@DEBUG_VALUE: drawWhiteFunctionModules:version <- [DW_OP_plus_uconst 44] [$sp+0]
	@DEBUG_VALUE: qrcodegen_encodeSegmentsAdvanced:version <- [DW_OP_plus_uconst 44] [$sp+0]
	@DEBUG_VALUE: qrcodegen_encodeSegmentsAdvanced:segs <- [DW_OP_plus_uconst 36] [$sp+0]
	@DEBUG_VALUE: qrcodegen_encodeSegmentsAdvanced:ecl <- [DW_OP_plus_uconst 52] [$sp+0]
	@DEBUG_VALUE: qrcodegen_encodeSegmentsAdvanced:maxVersion <- [DW_OP_plus_uconst 128] [$sp+0]
	@DEBUG_VALUE: qrcodegen_encodeSegmentsAdvanced:mask <- [DW_OP_plus_uconst 132] [$sp+0]
	@DEBUG_VALUE: qrcodegen_encodeSegmentsAdvanced:tempBuffer <- [DW_OP_plus_uconst 140] [$sp+0]
	@DEBUG_VALUE: qrcodegen_encodeSegmentsAdvanced:qrcode <- [DW_OP_plus_uconst 144] [$sp+0]
	add.w	r6, r10, r8
	mov.w	r4, #-1
	@DEBUG_VALUE: dx <- -1
	@DEBUG_VALUE: dy <- $r10
.Ltmp310:
	.p2align	2
.LBB1_104:                              @   Parent Loop BB1_98 Depth=1
                                        @     Parent Loop BB1_99 Depth=2
                                        @       Parent Loop BB1_103 Depth=3
                                        @ =>      This Inner Loop Header: Depth=4
	@DEBUG_VALUE: drawWhiteFunctionModules:qrsize <- [DW_OP_plus_uconst 40] [$sp+0]
	@DEBUG_VALUE: drawWhiteFunctionModules:qrcode <- $r11
	@DEBUG_VALUE: dy <- $r10
	@DEBUG_VALUE: j <- $r7
	@DEBUG_VALUE: i <- $r5
	@DEBUG_VALUE: drawWhiteFunctionModules:numAlign <- [DW_OP_plus_uconst 48] [$sp+0]
	@DEBUG_VALUE: drawWhiteFunctionModules:version <- [DW_OP_plus_uconst 44] [$sp+0]
	@DEBUG_VALUE: qrcodegen_encodeSegmentsAdvanced:version <- [DW_OP_plus_uconst 44] [$sp+0]
	@DEBUG_VALUE: qrcodegen_encodeSegmentsAdvanced:segs <- [DW_OP_plus_uconst 36] [$sp+0]
	@DEBUG_VALUE: qrcodegen_encodeSegmentsAdvanced:ecl <- [DW_OP_plus_uconst 52] [$sp+0]
	@DEBUG_VALUE: qrcodegen_encodeSegmentsAdvanced:maxVersion <- [DW_OP_plus_uconst 128] [$sp+0]
	@DEBUG_VALUE: qrcodegen_encodeSegmentsAdvanced:mask <- [DW_OP_plus_uconst 132] [$sp+0]
	@DEBUG_VALUE: qrcodegen_encodeSegmentsAdvanced:tempBuffer <- [DW_OP_plus_uconst 140] [$sp+0]
	@DEBUG_VALUE: qrcodegen_encodeSegmentsAdvanced:qrcode <- [DW_OP_plus_uconst 144] [$sp+0]
	@DEBUG_VALUE: dx <- $r4
	.loc	2 481 74 is_stmt 1              @ ../GUILib/src/extra/libs/qrcode/qrcodegen.c:481:74
	orr.w	r0, r4, r10
	clz	r0, r0
	add.w	r1, r9, r4
	lsrs	r3, r0, #5
	.loc	2 481 6 is_stmt 0               @ ../GUILib/src/extra/libs/qrcode/qrcodegen.c:481:6
	mov	r0, r11
	mov	r2, r6
	bl	setModule
.Ltmp311:
	.loc	2 480 34 is_stmt 1              @ ../GUILib/src/extra/libs/qrcode/qrcodegen.c:480:34
	adds	r4, #1
.Ltmp312:
	@DEBUG_VALUE: dx <- $r4
	.loc	2 480 5 is_stmt 0               @ ../GUILib/src/extra/libs/qrcode/qrcodegen.c:480:5
	cmp	r4, #2
	bne	.LBB1_104
.Ltmp313:
@ %bb.105:                              @   in Loop: Header=BB1_103 Depth=3
	@DEBUG_VALUE: drawWhiteFunctionModules:qrsize <- [DW_OP_plus_uconst 40] [$sp+0]
	@DEBUG_VALUE: drawWhiteFunctionModules:qrcode <- $r11
	@DEBUG_VALUE: dy <- $r10
	@DEBUG_VALUE: j <- $r7
	@DEBUG_VALUE: i <- $r5
	@DEBUG_VALUE: drawWhiteFunctionModules:numAlign <- [DW_OP_plus_uconst 48] [$sp+0]
	@DEBUG_VALUE: drawWhiteFunctionModules:version <- [DW_OP_plus_uconst 44] [$sp+0]
	@DEBUG_VALUE: qrcodegen_encodeSegmentsAdvanced:version <- [DW_OP_plus_uconst 44] [$sp+0]
	@DEBUG_VALUE: qrcodegen_encodeSegmentsAdvanced:segs <- [DW_OP_plus_uconst 36] [$sp+0]
	@DEBUG_VALUE: qrcodegen_encodeSegmentsAdvanced:ecl <- [DW_OP_plus_uconst 52] [$sp+0]
	@DEBUG_VALUE: qrcodegen_encodeSegmentsAdvanced:maxVersion <- [DW_OP_plus_uconst 128] [$sp+0]
	@DEBUG_VALUE: qrcodegen_encodeSegmentsAdvanced:mask <- [DW_OP_plus_uconst 132] [$sp+0]
	@DEBUG_VALUE: qrcodegen_encodeSegmentsAdvanced:tempBuffer <- [DW_OP_plus_uconst 140] [$sp+0]
	@DEBUG_VALUE: qrcodegen_encodeSegmentsAdvanced:qrcode <- [DW_OP_plus_uconst 144] [$sp+0]
	.loc	2 479 33 is_stmt 1              @ ../GUILib/src/extra/libs/qrcode/qrcodegen.c:479:33
	add.w	r10, r10, #1
.Ltmp314:
	@DEBUG_VALUE: dy <- $r10
	.loc	2 479 4 is_stmt 0               @ ../GUILib/src/extra/libs/qrcode/qrcodegen.c:479:4
	cmp.w	r10, #2
	bne	.LBB1_103
.Ltmp315:
.LBB1_106:                              @   in Loop: Header=BB1_99 Depth=2
	@DEBUG_VALUE: drawWhiteFunctionModules:qrsize <- [DW_OP_plus_uconst 40] [$sp+0]
	@DEBUG_VALUE: drawWhiteFunctionModules:qrcode <- $r11
	@DEBUG_VALUE: j <- $r7
	@DEBUG_VALUE: i <- $r5
	@DEBUG_VALUE: drawWhiteFunctionModules:numAlign <- [DW_OP_plus_uconst 48] [$sp+0]
	@DEBUG_VALUE: drawWhiteFunctionModules:version <- [DW_OP_plus_uconst 44] [$sp+0]
	@DEBUG_VALUE: qrcodegen_encodeSegmentsAdvanced:version <- [DW_OP_plus_uconst 44] [$sp+0]
	@DEBUG_VALUE: qrcodegen_encodeSegmentsAdvanced:segs <- [DW_OP_plus_uconst 36] [$sp+0]
	@DEBUG_VALUE: qrcodegen_encodeSegmentsAdvanced:ecl <- [DW_OP_plus_uconst 52] [$sp+0]
	@DEBUG_VALUE: qrcodegen_encodeSegmentsAdvanced:maxVersion <- [DW_OP_plus_uconst 128] [$sp+0]
	@DEBUG_VALUE: qrcodegen_encodeSegmentsAdvanced:mask <- [DW_OP_plus_uconst 132] [$sp+0]
	@DEBUG_VALUE: qrcodegen_encodeSegmentsAdvanced:tempBuffer <- [DW_OP_plus_uconst 140] [$sp+0]
	@DEBUG_VALUE: qrcodegen_encodeSegmentsAdvanced:qrcode <- [DW_OP_plus_uconst 144] [$sp+0]
	.loc	2 476 3 is_stmt 1               @ ../GUILib/src/extra/libs/qrcode/qrcodegen.c:476:3
	ldr	r0, [sp, #48]                   @ 4-byte Reload
.Ltmp316:
	.loc	2 476 34 is_stmt 0              @ ../GUILib/src/extra/libs/qrcode/qrcodegen.c:476:34
	adds	r7, #1
.Ltmp317:
	@DEBUG_VALUE: j <- $r7
	.loc	2 476 3                         @ ../GUILib/src/extra/libs/qrcode/qrcodegen.c:476:3
	cmp	r7, r0
	bne	.LBB1_99
.Ltmp318:
@ %bb.107:                              @   in Loop: Header=BB1_98 Depth=1
	@DEBUG_VALUE: drawWhiteFunctionModules:qrsize <- [DW_OP_plus_uconst 40] [$sp+0]
	@DEBUG_VALUE: drawWhiteFunctionModules:qrcode <- $r11
	@DEBUG_VALUE: i <- $r5
	@DEBUG_VALUE: drawWhiteFunctionModules:numAlign <- [DW_OP_plus_uconst 48] [$sp+0]
	@DEBUG_VALUE: drawWhiteFunctionModules:version <- [DW_OP_plus_uconst 44] [$sp+0]
	@DEBUG_VALUE: qrcodegen_encodeSegmentsAdvanced:version <- [DW_OP_plus_uconst 44] [$sp+0]
	@DEBUG_VALUE: qrcodegen_encodeSegmentsAdvanced:segs <- [DW_OP_plus_uconst 36] [$sp+0]
	@DEBUG_VALUE: qrcodegen_encodeSegmentsAdvanced:ecl <- [DW_OP_plus_uconst 52] [$sp+0]
	@DEBUG_VALUE: qrcodegen_encodeSegmentsAdvanced:maxVersion <- [DW_OP_plus_uconst 128] [$sp+0]
	@DEBUG_VALUE: qrcodegen_encodeSegmentsAdvanced:mask <- [DW_OP_plus_uconst 132] [$sp+0]
	@DEBUG_VALUE: qrcodegen_encodeSegmentsAdvanced:tempBuffer <- [DW_OP_plus_uconst 140] [$sp+0]
	@DEBUG_VALUE: qrcodegen_encodeSegmentsAdvanced:qrcode <- [DW_OP_plus_uconst 144] [$sp+0]
	.loc	2 475 2 is_stmt 1               @ ../GUILib/src/extra/libs/qrcode/qrcodegen.c:475:2
	ldr	r0, [sp, #48]                   @ 4-byte Reload
.Ltmp319:
	.loc	2 475 33 is_stmt 0              @ ../GUILib/src/extra/libs/qrcode/qrcodegen.c:475:33
	adds	r5, #1
.Ltmp320:
	@DEBUG_VALUE: i <- $r5
	.loc	2 475 2                         @ ../GUILib/src/extra/libs/qrcode/qrcodegen.c:475:2
	cmp	r5, r0
	bne	.LBB1_98
.Ltmp321:
.LBB1_108:
	@DEBUG_VALUE: drawWhiteFunctionModules:qrsize <- [DW_OP_plus_uconst 40] [$sp+0]
	@DEBUG_VALUE: drawWhiteFunctionModules:qrcode <- $r11
	@DEBUG_VALUE: drawWhiteFunctionModules:numAlign <- [DW_OP_plus_uconst 48] [$sp+0]
	@DEBUG_VALUE: drawWhiteFunctionModules:version <- [DW_OP_plus_uconst 44] [$sp+0]
	@DEBUG_VALUE: qrcodegen_encodeSegmentsAdvanced:version <- [DW_OP_plus_uconst 44] [$sp+0]
	@DEBUG_VALUE: qrcodegen_encodeSegmentsAdvanced:segs <- [DW_OP_plus_uconst 36] [$sp+0]
	@DEBUG_VALUE: qrcodegen_encodeSegmentsAdvanced:ecl <- [DW_OP_plus_uconst 52] [$sp+0]
	@DEBUG_VALUE: qrcodegen_encodeSegmentsAdvanced:maxVersion <- [DW_OP_plus_uconst 128] [$sp+0]
	@DEBUG_VALUE: qrcodegen_encodeSegmentsAdvanced:mask <- [DW_OP_plus_uconst 132] [$sp+0]
	@DEBUG_VALUE: qrcodegen_encodeSegmentsAdvanced:tempBuffer <- [DW_OP_plus_uconst 140] [$sp+0]
	@DEBUG_VALUE: qrcodegen_encodeSegmentsAdvanced:qrcode <- [DW_OP_plus_uconst 144] [$sp+0]
	.loc	2 487 6 is_stmt 1               @ ../GUILib/src/extra/libs/qrcode/qrcodegen.c:487:6
	ldr	r0, [sp, #44]                   @ 4-byte Reload
	ldr.w	r10, [sp, #132]
	cmp	r0, #7
	blt	.LBB1_116
.Ltmp322:
@ %bb.109:
	@DEBUG_VALUE: drawWhiteFunctionModules:qrsize <- [DW_OP_plus_uconst 40] [$sp+0]
	@DEBUG_VALUE: drawWhiteFunctionModules:qrcode <- $r11
	@DEBUG_VALUE: drawWhiteFunctionModules:numAlign <- [DW_OP_plus_uconst 48] [$sp+0]
	@DEBUG_VALUE: drawWhiteFunctionModules:version <- [DW_OP_plus_uconst 44] [$sp+0]
	@DEBUG_VALUE: qrcodegen_encodeSegmentsAdvanced:version <- [DW_OP_plus_uconst 44] [$sp+0]
	@DEBUG_VALUE: qrcodegen_encodeSegmentsAdvanced:segs <- [DW_OP_plus_uconst 36] [$sp+0]
	@DEBUG_VALUE: qrcodegen_encodeSegmentsAdvanced:ecl <- [DW_OP_plus_uconst 52] [$sp+0]
	@DEBUG_VALUE: qrcodegen_encodeSegmentsAdvanced:maxVersion <- [DW_OP_plus_uconst 128] [$sp+0]
	@DEBUG_VALUE: qrcodegen_encodeSegmentsAdvanced:mask <- [DW_OP_plus_uconst 132] [$sp+0]
	@DEBUG_VALUE: qrcodegen_encodeSegmentsAdvanced:tempBuffer <- [DW_OP_plus_uconst 140] [$sp+0]
	@DEBUG_VALUE: qrcodegen_encodeSegmentsAdvanced:qrcode <- [DW_OP_plus_uconst 144] [$sp+0]
	.loc	2 0 6 is_stmt 0                 @ ../GUILib/src/extra/libs/qrcode/qrcodegen.c:0:6
	ldr	r7, [sp, #44]                   @ 4-byte Reload
	movs	r0, #12
	movw	r1, #7973
	mov	r2, r7
.Ltmp323:
	.p2align	2
.LBB1_110:                              @ =>This Inner Loop Header: Depth=1
	@DEBUG_VALUE: drawWhiteFunctionModules:qrsize <- [DW_OP_plus_uconst 40] [$sp+0]
	@DEBUG_VALUE: drawWhiteFunctionModules:qrcode <- $r11
	@DEBUG_VALUE: drawWhiteFunctionModules:numAlign <- [DW_OP_plus_uconst 48] [$sp+0]
	@DEBUG_VALUE: drawWhiteFunctionModules:version <- [DW_OP_plus_uconst 44] [$sp+0]
	@DEBUG_VALUE: qrcodegen_encodeSegmentsAdvanced:version <- [DW_OP_plus_uconst 44] [$sp+0]
	@DEBUG_VALUE: qrcodegen_encodeSegmentsAdvanced:segs <- [DW_OP_plus_uconst 36] [$sp+0]
	@DEBUG_VALUE: qrcodegen_encodeSegmentsAdvanced:ecl <- [DW_OP_plus_uconst 52] [$sp+0]
	@DEBUG_VALUE: qrcodegen_encodeSegmentsAdvanced:maxVersion <- [DW_OP_plus_uconst 128] [$sp+0]
	@DEBUG_VALUE: qrcodegen_encodeSegmentsAdvanced:mask <- [DW_OP_plus_uconst 132] [$sp+0]
	@DEBUG_VALUE: qrcodegen_encodeSegmentsAdvanced:tempBuffer <- [DW_OP_plus_uconst 140] [$sp+0]
	@DEBUG_VALUE: qrcodegen_encodeSegmentsAdvanced:qrcode <- [DW_OP_plus_uconst 144] [$sp+0]
	@DEBUG_VALUE: i <- undef
	@DEBUG_VALUE: rem <- $r2
	.loc	2 491 29 is_stmt 1              @ ../GUILib/src/extra/libs/qrcode/qrcodegen.c:491:29
	asrs	r3, r2, #11
	.loc	2 491 36 is_stmt 0              @ ../GUILib/src/extra/libs/qrcode/qrcodegen.c:491:36
	muls	r3, r1, r3
	.loc	2 490 21 is_stmt 1              @ ../GUILib/src/extra/libs/qrcode/qrcodegen.c:490:21
	subs	r0, #1
	.loc	2 491 21                        @ ../GUILib/src/extra/libs/qrcode/qrcodegen.c:491:21
	eor.w	r2, r3, r2, lsl #1
.Ltmp324:
	@DEBUG_VALUE: rem <- $r2
	@DEBUG_VALUE: i <- [DW_OP_plus_uconst 1, DW_OP_stack_value] undef
	.loc	2 490 3                         @ ../GUILib/src/extra/libs/qrcode/qrcodegen.c:490:3
	bne	.LBB1_110
.Ltmp325:
@ %bb.111:
	@DEBUG_VALUE: drawWhiteFunctionModules:qrsize <- [DW_OP_plus_uconst 40] [$sp+0]
	@DEBUG_VALUE: drawWhiteFunctionModules:qrcode <- $r11
	@DEBUG_VALUE: rem <- $r2
	@DEBUG_VALUE: drawWhiteFunctionModules:numAlign <- [DW_OP_plus_uconst 48] [$sp+0]
	@DEBUG_VALUE: drawWhiteFunctionModules:version <- [DW_OP_plus_uconst 44] [$sp+0]
	@DEBUG_VALUE: qrcodegen_encodeSegmentsAdvanced:version <- [DW_OP_plus_uconst 44] [$sp+0]
	@DEBUG_VALUE: qrcodegen_encodeSegmentsAdvanced:segs <- [DW_OP_plus_uconst 36] [$sp+0]
	@DEBUG_VALUE: qrcodegen_encodeSegmentsAdvanced:ecl <- [DW_OP_plus_uconst 52] [$sp+0]
	@DEBUG_VALUE: qrcodegen_encodeSegmentsAdvanced:maxVersion <- [DW_OP_plus_uconst 128] [$sp+0]
	@DEBUG_VALUE: qrcodegen_encodeSegmentsAdvanced:mask <- [DW_OP_plus_uconst 132] [$sp+0]
	@DEBUG_VALUE: qrcodegen_encodeSegmentsAdvanced:tempBuffer <- [DW_OP_plus_uconst 140] [$sp+0]
	@DEBUG_VALUE: qrcodegen_encodeSegmentsAdvanced:qrcode <- [DW_OP_plus_uconst 144] [$sp+0]
	.loc	2 492 35                        @ ../GUILib/src/extra/libs/qrcode/qrcodegen.c:492:35
	orr.w	r4, r2, r7, lsl #12
.Ltmp326:
	@DEBUG_VALUE: bits <- $r4
	.loc	2 0 35 is_stmt 0                @ ../GUILib/src/extra/libs/qrcode/qrcodegen.c:0:35
	movs	r0, #0
	.loc	2 493 3 is_stmt 1               @ ../GUILib/src/extra/libs/qrcode/qrcodegen.c:493:3
	cmp.w	r0, r4, lsr #18
	ldr	r0, [sp, #40]                   @ 4-byte Reload
.Ltmp327:
	@DEBUG_VALUE: drawWhiteFunctionModules:qrsize <- $r0
	bne.w	.LBB1_209
.Ltmp328:
@ %bb.112:
	@DEBUG_VALUE: drawWhiteFunctionModules:qrcode <- $r11
	@DEBUG_VALUE: bits <- $r4
	@DEBUG_VALUE: rem <- $r2
	@DEBUG_VALUE: drawWhiteFunctionModules:qrsize <- $r0
	@DEBUG_VALUE: drawWhiteFunctionModules:numAlign <- [DW_OP_plus_uconst 48] [$sp+0]
	@DEBUG_VALUE: drawWhiteFunctionModules:version <- [DW_OP_plus_uconst 44] [$sp+0]
	@DEBUG_VALUE: qrcodegen_encodeSegmentsAdvanced:version <- [DW_OP_plus_uconst 44] [$sp+0]
	@DEBUG_VALUE: qrcodegen_encodeSegmentsAdvanced:segs <- [DW_OP_plus_uconst 36] [$sp+0]
	@DEBUG_VALUE: qrcodegen_encodeSegmentsAdvanced:ecl <- [DW_OP_plus_uconst 52] [$sp+0]
	@DEBUG_VALUE: qrcodegen_encodeSegmentsAdvanced:maxVersion <- [DW_OP_plus_uconst 128] [$sp+0]
	@DEBUG_VALUE: qrcodegen_encodeSegmentsAdvanced:mask <- [DW_OP_plus_uconst 132] [$sp+0]
	@DEBUG_VALUE: qrcodegen_encodeSegmentsAdvanced:tempBuffer <- [DW_OP_plus_uconst 140] [$sp+0]
	@DEBUG_VALUE: qrcodegen_encodeSegmentsAdvanced:qrcode <- [DW_OP_plus_uconst 144] [$sp+0]
	@DEBUG_VALUE: bits <- $r4
	@DEBUG_VALUE: i <- 0
	.loc	2 496 3                         @ ../GUILib/src/extra/libs/qrcode/qrcodegen.c:496:3
	sub.w	r8, r0, #11
	mov.w	r9, #0
.Ltmp329:
	.p2align	2
.LBB1_113:                              @ =>This Loop Header: Depth=1
                                        @     Child Loop BB1_114 Depth 2
	@DEBUG_VALUE: drawWhiteFunctionModules:qrcode <- $r11
	@DEBUG_VALUE: bits <- $r4
	@DEBUG_VALUE: drawWhiteFunctionModules:numAlign <- [DW_OP_plus_uconst 48] [$sp+0]
	@DEBUG_VALUE: drawWhiteFunctionModules:version <- [DW_OP_plus_uconst 44] [$sp+0]
	@DEBUG_VALUE: qrcodegen_encodeSegmentsAdvanced:version <- [DW_OP_plus_uconst 44] [$sp+0]
	@DEBUG_VALUE: qrcodegen_encodeSegmentsAdvanced:segs <- [DW_OP_plus_uconst 36] [$sp+0]
	@DEBUG_VALUE: qrcodegen_encodeSegmentsAdvanced:ecl <- [DW_OP_plus_uconst 52] [$sp+0]
	@DEBUG_VALUE: qrcodegen_encodeSegmentsAdvanced:maxVersion <- [DW_OP_plus_uconst 128] [$sp+0]
	@DEBUG_VALUE: qrcodegen_encodeSegmentsAdvanced:mask <- [DW_OP_plus_uconst 132] [$sp+0]
	@DEBUG_VALUE: qrcodegen_encodeSegmentsAdvanced:tempBuffer <- [DW_OP_plus_uconst 140] [$sp+0]
	@DEBUG_VALUE: qrcodegen_encodeSegmentsAdvanced:qrcode <- [DW_OP_plus_uconst 144] [$sp+0]
	.loc	2 0 3 is_stmt 0                 @ ../GUILib/src/extra/libs/qrcode/qrcodegen.c:0:3
	movs	r6, #0
	@DEBUG_VALUE: j <- 0
.Ltmp330:
	@DEBUG_VALUE: i <- $r9
	@DEBUG_VALUE: bits <- $r4
	.p2align	2
.LBB1_114:                              @   Parent Loop BB1_113 Depth=1
                                        @ =>  This Inner Loop Header: Depth=2
	@DEBUG_VALUE: drawWhiteFunctionModules:qrcode <- $r11
	@DEBUG_VALUE: i <- $r9
	@DEBUG_VALUE: bits <- $r4
	@DEBUG_VALUE: drawWhiteFunctionModules:numAlign <- [DW_OP_plus_uconst 48] [$sp+0]
	@DEBUG_VALUE: drawWhiteFunctionModules:version <- [DW_OP_plus_uconst 44] [$sp+0]
	@DEBUG_VALUE: qrcodegen_encodeSegmentsAdvanced:version <- [DW_OP_plus_uconst 44] [$sp+0]
	@DEBUG_VALUE: qrcodegen_encodeSegmentsAdvanced:segs <- [DW_OP_plus_uconst 36] [$sp+0]
	@DEBUG_VALUE: qrcodegen_encodeSegmentsAdvanced:ecl <- [DW_OP_plus_uconst 52] [$sp+0]
	@DEBUG_VALUE: qrcodegen_encodeSegmentsAdvanced:maxVersion <- [DW_OP_plus_uconst 128] [$sp+0]
	@DEBUG_VALUE: qrcodegen_encodeSegmentsAdvanced:mask <- [DW_OP_plus_uconst 132] [$sp+0]
	@DEBUG_VALUE: qrcodegen_encodeSegmentsAdvanced:tempBuffer <- [DW_OP_plus_uconst 140] [$sp+0]
	@DEBUG_VALUE: qrcodegen_encodeSegmentsAdvanced:qrcode <- [DW_OP_plus_uconst 144] [$sp+0]
	@DEBUG_VALUE: bits <- $r4
	@DEBUG_VALUE: j <- $r6
	@DEBUG_VALUE: k <- undef
	.loc	2 499 35 is_stmt 1              @ ../GUILib/src/extra/libs/qrcode/qrcodegen.c:499:35
	add.w	r7, r8, r6
	and	r5, r4, #1
	.loc	2 499 5 is_stmt 0               @ ../GUILib/src/extra/libs/qrcode/qrcodegen.c:499:5
	mov	r0, r11
	mov	r1, r7
	mov	r2, r9
	mov	r3, r5
	bl	setModule
.Ltmp331:
	.loc	2 500 5 is_stmt 1               @ ../GUILib/src/extra/libs/qrcode/qrcodegen.c:500:5
	mov	r0, r11
	mov	r1, r9
	mov	r2, r7
	mov	r3, r5
	bl	setModule
.Ltmp332:
	.loc	2 497 28                        @ ../GUILib/src/extra/libs/qrcode/qrcodegen.c:497:28
	adds	r6, #1
.Ltmp333:
	@DEBUG_VALUE: j <- $r6
	.loc	2 497 4 is_stmt 0               @ ../GUILib/src/extra/libs/qrcode/qrcodegen.c:497:4
	cmp	r6, #3
.Ltmp334:
	.loc	2 501 10 is_stmt 1              @ ../GUILib/src/extra/libs/qrcode/qrcodegen.c:501:10
	asr.w	r4, r4, #1
.Ltmp335:
	@DEBUG_VALUE: bits <- $r4
	.loc	2 497 4                         @ ../GUILib/src/extra/libs/qrcode/qrcodegen.c:497:4
	bne	.LBB1_114
.Ltmp336:
@ %bb.115:                              @   in Loop: Header=BB1_113 Depth=1
	@DEBUG_VALUE: drawWhiteFunctionModules:qrcode <- $r11
	@DEBUG_VALUE: i <- $r9
	@DEBUG_VALUE: bits <- $r4
	@DEBUG_VALUE: drawWhiteFunctionModules:numAlign <- [DW_OP_plus_uconst 48] [$sp+0]
	@DEBUG_VALUE: drawWhiteFunctionModules:version <- [DW_OP_plus_uconst 44] [$sp+0]
	@DEBUG_VALUE: qrcodegen_encodeSegmentsAdvanced:version <- [DW_OP_plus_uconst 44] [$sp+0]
	@DEBUG_VALUE: qrcodegen_encodeSegmentsAdvanced:segs <- [DW_OP_plus_uconst 36] [$sp+0]
	@DEBUG_VALUE: qrcodegen_encodeSegmentsAdvanced:ecl <- [DW_OP_plus_uconst 52] [$sp+0]
	@DEBUG_VALUE: qrcodegen_encodeSegmentsAdvanced:maxVersion <- [DW_OP_plus_uconst 128] [$sp+0]
	@DEBUG_VALUE: qrcodegen_encodeSegmentsAdvanced:mask <- [DW_OP_plus_uconst 132] [$sp+0]
	@DEBUG_VALUE: qrcodegen_encodeSegmentsAdvanced:tempBuffer <- [DW_OP_plus_uconst 140] [$sp+0]
	@DEBUG_VALUE: qrcodegen_encodeSegmentsAdvanced:qrcode <- [DW_OP_plus_uconst 144] [$sp+0]
	.loc	2 496 27                        @ ../GUILib/src/extra/libs/qrcode/qrcodegen.c:496:27
	add.w	r9, r9, #1
.Ltmp337:
	@DEBUG_VALUE: i <- $r9
	@DEBUG_VALUE: bits <- $r4
	.loc	2 496 3 is_stmt 0               @ ../GUILib/src/extra/libs/qrcode/qrcodegen.c:496:3
	cmp.w	r9, #6
	bne	.LBB1_113
.Ltmp338:
.LBB1_116:
	@DEBUG_VALUE: qrcodegen_encodeSegmentsAdvanced:version <- [DW_OP_plus_uconst 44] [$sp+0]
	@DEBUG_VALUE: qrcodegen_encodeSegmentsAdvanced:segs <- [DW_OP_plus_uconst 36] [$sp+0]
	@DEBUG_VALUE: qrcodegen_encodeSegmentsAdvanced:ecl <- [DW_OP_plus_uconst 52] [$sp+0]
	@DEBUG_VALUE: qrcodegen_encodeSegmentsAdvanced:maxVersion <- [DW_OP_plus_uconst 128] [$sp+0]
	@DEBUG_VALUE: qrcodegen_encodeSegmentsAdvanced:mask <- [DW_OP_plus_uconst 132] [$sp+0]
	@DEBUG_VALUE: qrcodegen_encodeSegmentsAdvanced:tempBuffer <- [DW_OP_plus_uconst 140] [$sp+0]
	@DEBUG_VALUE: qrcodegen_encodeSegmentsAdvanced:qrcode <- [DW_OP_plus_uconst 144] [$sp+0]
	.loc	2 0 3                           @ ../GUILib/src/extra/libs/qrcode/qrcodegen.c:0:3
	ldr	r6, [sp, #140]
	.loc	2 260 2 is_stmt 1               @ ../GUILib/src/extra/libs/qrcode/qrcodegen.c:260:2
	ldr	r0, [sp, #44]                   @ 4-byte Reload
	mov	r1, r6
	bl	initializeFunctionModules
.Ltmp339:
	.loc	2 263 6                         @ ../GUILib/src/extra/libs/qrcode/qrcodegen.c:263:6
	ldr	r0, [sp]                        @ 4-byte Reload
	ldr	r7, [sp, #4]                    @ 4-byte Reload
	cmp	r0, #0
	bne.w	.LBB1_192
.Ltmp340:
@ %bb.117:
	@DEBUG_VALUE: qrcodegen_encodeSegmentsAdvanced:version <- [DW_OP_plus_uconst 44] [$sp+0]
	@DEBUG_VALUE: qrcodegen_encodeSegmentsAdvanced:segs <- [DW_OP_plus_uconst 36] [$sp+0]
	@DEBUG_VALUE: qrcodegen_encodeSegmentsAdvanced:ecl <- [DW_OP_plus_uconst 52] [$sp+0]
	@DEBUG_VALUE: qrcodegen_encodeSegmentsAdvanced:maxVersion <- [DW_OP_plus_uconst 128] [$sp+0]
	@DEBUG_VALUE: qrcodegen_encodeSegmentsAdvanced:mask <- [DW_OP_plus_uconst 132] [$sp+0]
	@DEBUG_VALUE: qrcodegen_encodeSegmentsAdvanced:tempBuffer <- [DW_OP_plus_uconst 140] [$sp+0]
	@DEBUG_VALUE: qrcodegen_encodeSegmentsAdvanced:qrcode <- [DW_OP_plus_uconst 144] [$sp+0]
	@DEBUG_VALUE: qrcodegen_encodeSegmentsAdvanced:mask <- -1
	.loc	2 0 6 is_stmt 0                 @ ../GUILib/src/extra/libs/qrcode/qrcodegen.c:0:6
	add	r0, sp, #60
	adds	r0, #1
	str	r0, [sp, #52]                   @ 4-byte Spill
	mov.w	r10, #-1
	mvn	r4, #-2147483648
	movs	r0, #0
	@DEBUG_VALUE: minPenalty <- 2147483647
	@DEBUG_VALUE: i <- 0
.Ltmp341:
	.p2align	2
.LBB1_118:                              @ =>This Loop Header: Depth=1
                                        @     Child Loop BB1_120 Depth 2
                                        @       Child Loop BB1_121 Depth 3
                                        @     Child Loop BB1_148 Depth 2
                                        @       Child Loop BB1_149 Depth 3
                                        @     Child Loop BB1_177 Depth 2
                                        @       Child Loop BB1_178 Depth 3
                                        @     Child Loop BB1_184 Depth 2
                                        @       Child Loop BB1_185 Depth 3
	@DEBUG_VALUE: qrcodegen_encodeSegmentsAdvanced:version <- [DW_OP_plus_uconst 44] [$sp+0]
	@DEBUG_VALUE: qrcodegen_encodeSegmentsAdvanced:segs <- [DW_OP_plus_uconst 36] [$sp+0]
	@DEBUG_VALUE: qrcodegen_encodeSegmentsAdvanced:ecl <- [DW_OP_plus_uconst 52] [$sp+0]
	@DEBUG_VALUE: qrcodegen_encodeSegmentsAdvanced:maxVersion <- [DW_OP_plus_uconst 128] [$sp+0]
	@DEBUG_VALUE: qrcodegen_encodeSegmentsAdvanced:tempBuffer <- [DW_OP_plus_uconst 140] [$sp+0]
	@DEBUG_VALUE: qrcodegen_encodeSegmentsAdvanced:qrcode <- [DW_OP_plus_uconst 144] [$sp+0]
	@DEBUG_VALUE: qrcodegen_encodeSegmentsAdvanced:mask <- $r10
	@DEBUG_VALUE: i <- $r0
	@DEBUG_VALUE: minPenalty <- $r4
	@DEBUG_VALUE: msk <- undef
	@DEBUG_VALUE: minPenalty <- [DW_OP_plus_uconst 44] [$sp+0]
	strd	r0, r4, [sp, #40]               @ 8-byte Folded Spill
.Ltmp342:
	@DEBUG_VALUE: i <- [DW_OP_plus_uconst 40] [$sp+0]
	.loc	2 267 4 is_stmt 1               @ ../GUILib/src/extra/libs/qrcode/qrcodegen.c:267:4
	sxtb	r4, r0
	mov	r0, r6
	mov	r1, r11
	mov	r2, r4
	bl	applyMask
.Ltmp343:
	.loc	2 268 4                         @ ../GUILib/src/extra/libs/qrcode/qrcodegen.c:268:4
	mov	r0, r7
	mov	r1, r4
	mov	r2, r11
	str	r4, [sp, #36]                   @ 4-byte Spill
	bl	drawFormatBits
.Ltmp344:
	@DEBUG_VALUE: getPenaltyScore:qrcode <- $r11
	.loc	2 632 15                        @ ../GUILib/src/extra/libs/qrcode/qrcodegen.c:632:15
	mov	r0, r11
	bl	qrcodegen_getSize
.Ltmp345:
	mov	r9, r0
.Ltmp346:
	@DEBUG_VALUE: y <- 0
	@DEBUG_VALUE: getPenaltyScore:result <- 0
	@DEBUG_VALUE: getPenaltyScore:qrsize <- $r9
	.loc	2 636 2                         @ ../GUILib/src/extra/libs/qrcode/qrcodegen.c:636:2
	cmp	r0, #1
	blt.w	.LBB1_188
.Ltmp347:
@ %bb.119:                              @   in Loop: Header=BB1_118 Depth=1
	@DEBUG_VALUE: getPenaltyScore:qrcode <- $r11
	@DEBUG_VALUE: qrcodegen_encodeSegmentsAdvanced:mask <- $r10
	@DEBUG_VALUE: getPenaltyScore:qrsize <- $r9
	@DEBUG_VALUE: i <- [DW_OP_plus_uconst 40] [$sp+0]
	@DEBUG_VALUE: minPenalty <- [DW_OP_plus_uconst 44] [$sp+0]
	@DEBUG_VALUE: qrcodegen_encodeSegmentsAdvanced:version <- [DW_OP_plus_uconst 44] [$sp+0]
	@DEBUG_VALUE: qrcodegen_encodeSegmentsAdvanced:segs <- [DW_OP_plus_uconst 36] [$sp+0]
	@DEBUG_VALUE: qrcodegen_encodeSegmentsAdvanced:ecl <- [DW_OP_plus_uconst 52] [$sp+0]
	@DEBUG_VALUE: qrcodegen_encodeSegmentsAdvanced:maxVersion <- [DW_OP_plus_uconst 128] [$sp+0]
	@DEBUG_VALUE: qrcodegen_encodeSegmentsAdvanced:tempBuffer <- [DW_OP_plus_uconst 140] [$sp+0]
	@DEBUG_VALUE: qrcodegen_encodeSegmentsAdvanced:qrcode <- [DW_OP_plus_uconst 144] [$sp+0]
	@DEBUG_VALUE: getPenaltyScore:result <- 0
	@DEBUG_VALUE: y <- 0
	.loc	2 0 2 is_stmt 0                 @ ../GUILib/src/extra/libs/qrcode/qrcodegen.c:0:2
	str.w	r10, [sp, #32]                  @ 4-byte Spill
.Ltmp348:
	@DEBUG_VALUE: qrcodegen_encodeSegmentsAdvanced:mask <- [DW_OP_plus_uconst 32] [$sp+0]
	mov.w	r8, #0
	movs	r4, #0
	mov.w	r10, #0
.Ltmp349:
	.p2align	2
.LBB1_120:                              @   Parent Loop BB1_118 Depth=1
                                        @ =>  This Loop Header: Depth=2
                                        @       Child Loop BB1_121 Depth 3
	@DEBUG_VALUE: qrcodegen_encodeSegmentsAdvanced:mask <- [DW_OP_plus_uconst 32] [$sp+0]
	@DEBUG_VALUE: getPenaltyScore:qrcode <- $r11
	@DEBUG_VALUE: getPenaltyScore:qrsize <- $r9
	@DEBUG_VALUE: i <- [DW_OP_plus_uconst 40] [$sp+0]
	@DEBUG_VALUE: minPenalty <- [DW_OP_plus_uconst 44] [$sp+0]
	@DEBUG_VALUE: qrcodegen_encodeSegmentsAdvanced:version <- [DW_OP_plus_uconst 44] [$sp+0]
	@DEBUG_VALUE: qrcodegen_encodeSegmentsAdvanced:segs <- [DW_OP_plus_uconst 36] [$sp+0]
	@DEBUG_VALUE: qrcodegen_encodeSegmentsAdvanced:ecl <- [DW_OP_plus_uconst 52] [$sp+0]
	@DEBUG_VALUE: qrcodegen_encodeSegmentsAdvanced:maxVersion <- [DW_OP_plus_uconst 128] [$sp+0]
	@DEBUG_VALUE: qrcodegen_encodeSegmentsAdvanced:tempBuffer <- [DW_OP_plus_uconst 140] [$sp+0]
	@DEBUG_VALUE: qrcodegen_encodeSegmentsAdvanced:qrcode <- [DW_OP_plus_uconst 144] [$sp+0]
	@DEBUG_VALUE: getPenaltyScore:result <- $r4
	@DEBUG_VALUE: y <- $r10
	movs	r7, #0
	movs	r5, #0
	movs	r6, #0
	@DEBUG_VALUE: x <- 0
.Ltmp350:
	.loc	2 637 17 is_stmt 1              @ ../GUILib/src/extra/libs/qrcode/qrcodegen.c:637:17
	str.w	r8, [sp, #63]
	str.w	r8, [sp, #60]
.Ltmp351:
	@DEBUG_VALUE: color <- undef
	@DEBUG_VALUE: runX <- 0
	.p2align	2
.LBB1_121:                              @   Parent Loop BB1_118 Depth=1
                                        @     Parent Loop BB1_120 Depth=2
                                        @ =>    This Inner Loop Header: Depth=3
	@DEBUG_VALUE: qrcodegen_encodeSegmentsAdvanced:mask <- [DW_OP_plus_uconst 32] [$sp+0]
	@DEBUG_VALUE: getPenaltyScore:qrcode <- $r11
	@DEBUG_VALUE: y <- $r10
	@DEBUG_VALUE: getPenaltyScore:qrsize <- $r9
	@DEBUG_VALUE: getPenaltyScore:result <- $r4
	@DEBUG_VALUE: i <- [DW_OP_plus_uconst 40] [$sp+0]
	@DEBUG_VALUE: minPenalty <- [DW_OP_plus_uconst 44] [$sp+0]
	@DEBUG_VALUE: qrcodegen_encodeSegmentsAdvanced:version <- [DW_OP_plus_uconst 44] [$sp+0]
	@DEBUG_VALUE: qrcodegen_encodeSegmentsAdvanced:segs <- [DW_OP_plus_uconst 36] [$sp+0]
	@DEBUG_VALUE: qrcodegen_encodeSegmentsAdvanced:ecl <- [DW_OP_plus_uconst 52] [$sp+0]
	@DEBUG_VALUE: qrcodegen_encodeSegmentsAdvanced:maxVersion <- [DW_OP_plus_uconst 128] [$sp+0]
	@DEBUG_VALUE: qrcodegen_encodeSegmentsAdvanced:tempBuffer <- [DW_OP_plus_uconst 140] [$sp+0]
	@DEBUG_VALUE: qrcodegen_encodeSegmentsAdvanced:qrcode <- [DW_OP_plus_uconst 144] [$sp+0]
	@DEBUG_VALUE: getPenaltyScore:result <- $r4
	@DEBUG_VALUE: runX <- $r5
	@DEBUG_VALUE: x <- $r7
	.loc	2 641 8                         @ ../GUILib/src/extra/libs/qrcode/qrcodegen.c:641:8
	mov	r0, r11
	mov	r1, r7
	mov	r2, r10
	bl	getModule
.Ltmp352:
	.loc	2 641 32 is_stmt 0              @ ../GUILib/src/extra/libs/qrcode/qrcodegen.c:641:32
	eors	r0, r6
.Ltmp353:
	.loc	2 641 8                         @ ../GUILib/src/extra/libs/qrcode/qrcodegen.c:641:8
	lsls	r0, r0, #31
	beq	.LBB1_124
.Ltmp354:
@ %bb.122:                              @   in Loop: Header=BB1_121 Depth=3
	@DEBUG_VALUE: qrcodegen_encodeSegmentsAdvanced:mask <- [DW_OP_plus_uconst 32] [$sp+0]
	@DEBUG_VALUE: getPenaltyScore:qrcode <- $r11
	@DEBUG_VALUE: y <- $r10
	@DEBUG_VALUE: getPenaltyScore:qrsize <- $r9
	@DEBUG_VALUE: x <- $r7
	@DEBUG_VALUE: runX <- $r5
	@DEBUG_VALUE: getPenaltyScore:result <- $r4
	@DEBUG_VALUE: i <- [DW_OP_plus_uconst 40] [$sp+0]
	@DEBUG_VALUE: minPenalty <- [DW_OP_plus_uconst 44] [$sp+0]
	@DEBUG_VALUE: qrcodegen_encodeSegmentsAdvanced:version <- [DW_OP_plus_uconst 44] [$sp+0]
	@DEBUG_VALUE: qrcodegen_encodeSegmentsAdvanced:segs <- [DW_OP_plus_uconst 36] [$sp+0]
	@DEBUG_VALUE: qrcodegen_encodeSegmentsAdvanced:ecl <- [DW_OP_plus_uconst 52] [$sp+0]
	@DEBUG_VALUE: qrcodegen_encodeSegmentsAdvanced:maxVersion <- [DW_OP_plus_uconst 128] [$sp+0]
	@DEBUG_VALUE: qrcodegen_encodeSegmentsAdvanced:tempBuffer <- [DW_OP_plus_uconst 140] [$sp+0]
	@DEBUG_VALUE: qrcodegen_encodeSegmentsAdvanced:qrcode <- [DW_OP_plus_uconst 144] [$sp+0]
	@DEBUG_VALUE: addRunToHistory:run <- $r5
	@DEBUG_VALUE: addRunToHistory:history <- undef
	.loc	2 718 2 is_stmt 1               @ ../GUILib/src/extra/libs/qrcode/qrcodegen.c:718:2
	ldrh.w	r0, [sp, #64]
	ldr	r2, [sp, #52]                   @ 4-byte Reload
	ldr	r1, [sp, #60]
	strh	r0, [r2, #4]
.Ltmp355:
	.loc	2 649 16                        @ ../GUILib/src/extra/libs/qrcode/qrcodegen.c:649:16
	lsls	r0, r6, #31
.Ltmp356:
	.loc	2 718 2                         @ ../GUILib/src/extra/libs/qrcode/qrcodegen.c:718:2
	str	r1, [r2]
	.loc	2 719 13                        @ ../GUILib/src/extra/libs/qrcode/qrcodegen.c:719:13
	strb.w	r5, [sp, #60]
.Ltmp357:
	@DEBUG_VALUE: addRunToHistory:run <- $r5
	.loc	2 649 16                        @ ../GUILib/src/extra/libs/qrcode/qrcodegen.c:649:16
	beq	.LBB1_126
.Ltmp358:
.LBB1_123:                              @   in Loop: Header=BB1_121 Depth=3
	@DEBUG_VALUE: qrcodegen_encodeSegmentsAdvanced:mask <- [DW_OP_plus_uconst 32] [$sp+0]
	@DEBUG_VALUE: getPenaltyScore:qrcode <- $r11
	@DEBUG_VALUE: y <- $r10
	@DEBUG_VALUE: getPenaltyScore:qrsize <- $r9
	@DEBUG_VALUE: x <- $r7
	@DEBUG_VALUE: runX <- $r5
	@DEBUG_VALUE: i <- [DW_OP_plus_uconst 40] [$sp+0]
	@DEBUG_VALUE: minPenalty <- [DW_OP_plus_uconst 44] [$sp+0]
	@DEBUG_VALUE: qrcodegen_encodeSegmentsAdvanced:version <- [DW_OP_plus_uconst 44] [$sp+0]
	@DEBUG_VALUE: qrcodegen_encodeSegmentsAdvanced:segs <- [DW_OP_plus_uconst 36] [$sp+0]
	@DEBUG_VALUE: qrcodegen_encodeSegmentsAdvanced:ecl <- [DW_OP_plus_uconst 52] [$sp+0]
	@DEBUG_VALUE: qrcodegen_encodeSegmentsAdvanced:maxVersion <- [DW_OP_plus_uconst 128] [$sp+0]
	@DEBUG_VALUE: qrcodegen_encodeSegmentsAdvanced:tempBuffer <- [DW_OP_plus_uconst 140] [$sp+0]
	@DEBUG_VALUE: qrcodegen_encodeSegmentsAdvanced:qrcode <- [DW_OP_plus_uconst 144] [$sp+0]
	@DEBUG_VALUE: getPenaltyScore:result <- $r4
	.loc	2 651 13                        @ ../GUILib/src/extra/libs/qrcode/qrcodegen.c:651:13
	mov	r0, r11
	mov	r1, r7
	mov	r2, r10
	bl	getModule
.Ltmp359:
	mov	r6, r0
	movs	r5, #1
.Ltmp360:
	@DEBUG_VALUE: color <- [DW_OP_LLVM_convert 1 7, DW_OP_LLVM_convert 8 7, DW_OP_stack_value] undef
	@DEBUG_VALUE: runX <- 1
	.loc	2 0 13 is_stmt 0                @ ../GUILib/src/extra/libs/qrcode/qrcodegen.c:0:13
	b	.LBB1_134
.Ltmp361:
	.p2align	2
.LBB1_124:                              @   in Loop: Header=BB1_121 Depth=3
	@DEBUG_VALUE: qrcodegen_encodeSegmentsAdvanced:mask <- [DW_OP_plus_uconst 32] [$sp+0]
	@DEBUG_VALUE: getPenaltyScore:qrcode <- $r11
	@DEBUG_VALUE: y <- $r10
	@DEBUG_VALUE: getPenaltyScore:qrsize <- $r9
	@DEBUG_VALUE: x <- $r7
	@DEBUG_VALUE: runX <- $r5
	@DEBUG_VALUE: getPenaltyScore:result <- $r4
	@DEBUG_VALUE: i <- [DW_OP_plus_uconst 40] [$sp+0]
	@DEBUG_VALUE: minPenalty <- [DW_OP_plus_uconst 44] [$sp+0]
	@DEBUG_VALUE: qrcodegen_encodeSegmentsAdvanced:version <- [DW_OP_plus_uconst 44] [$sp+0]
	@DEBUG_VALUE: qrcodegen_encodeSegmentsAdvanced:segs <- [DW_OP_plus_uconst 36] [$sp+0]
	@DEBUG_VALUE: qrcodegen_encodeSegmentsAdvanced:ecl <- [DW_OP_plus_uconst 52] [$sp+0]
	@DEBUG_VALUE: qrcodegen_encodeSegmentsAdvanced:maxVersion <- [DW_OP_plus_uconst 128] [$sp+0]
	@DEBUG_VALUE: qrcodegen_encodeSegmentsAdvanced:tempBuffer <- [DW_OP_plus_uconst 140] [$sp+0]
	@DEBUG_VALUE: qrcodegen_encodeSegmentsAdvanced:qrcode <- [DW_OP_plus_uconst 144] [$sp+0]
	.loc	2 642 9 is_stmt 1               @ ../GUILib/src/extra/libs/qrcode/qrcodegen.c:642:9
	adds	r5, #1
.Ltmp362:
	@DEBUG_VALUE: runX <- $r5
	uxtb	r0, r5
	.loc	2 643 9                         @ ../GUILib/src/extra/libs/qrcode/qrcodegen.c:643:9
	cmp	r0, #5
	beq	.LBB1_133
.Ltmp363:
@ %bb.125:                              @   in Loop: Header=BB1_121 Depth=3
	@DEBUG_VALUE: qrcodegen_encodeSegmentsAdvanced:mask <- [DW_OP_plus_uconst 32] [$sp+0]
	@DEBUG_VALUE: getPenaltyScore:qrcode <- $r11
	@DEBUG_VALUE: y <- $r10
	@DEBUG_VALUE: getPenaltyScore:qrsize <- $r9
	@DEBUG_VALUE: x <- $r7
	@DEBUG_VALUE: runX <- $r5
	@DEBUG_VALUE: getPenaltyScore:result <- $r4
	@DEBUG_VALUE: i <- [DW_OP_plus_uconst 40] [$sp+0]
	@DEBUG_VALUE: minPenalty <- [DW_OP_plus_uconst 44] [$sp+0]
	@DEBUG_VALUE: qrcodegen_encodeSegmentsAdvanced:version <- [DW_OP_plus_uconst 44] [$sp+0]
	@DEBUG_VALUE: qrcodegen_encodeSegmentsAdvanced:segs <- [DW_OP_plus_uconst 36] [$sp+0]
	@DEBUG_VALUE: qrcodegen_encodeSegmentsAdvanced:ecl <- [DW_OP_plus_uconst 52] [$sp+0]
	@DEBUG_VALUE: qrcodegen_encodeSegmentsAdvanced:maxVersion <- [DW_OP_plus_uconst 128] [$sp+0]
	@DEBUG_VALUE: qrcodegen_encodeSegmentsAdvanced:tempBuffer <- [DW_OP_plus_uconst 140] [$sp+0]
	@DEBUG_VALUE: qrcodegen_encodeSegmentsAdvanced:qrcode <- [DW_OP_plus_uconst 144] [$sp+0]
	.loc	2 645 14                        @ ../GUILib/src/extra/libs/qrcode/qrcodegen.c:645:14
	it	hi
	addhi	r4, #1
.Ltmp364:
	.loc	2 0 14 is_stmt 0                @ ../GUILib/src/extra/libs/qrcode/qrcodegen.c:0:14
	b	.LBB1_134
.Ltmp365:
	.p2align	2
.LBB1_126:                              @   in Loop: Header=BB1_121 Depth=3
	@DEBUG_VALUE: qrcodegen_encodeSegmentsAdvanced:mask <- [DW_OP_plus_uconst 32] [$sp+0]
	@DEBUG_VALUE: getPenaltyScore:qrcode <- $r11
	@DEBUG_VALUE: y <- $r10
	@DEBUG_VALUE: getPenaltyScore:qrsize <- $r9
	@DEBUG_VALUE: x <- $r7
	@DEBUG_VALUE: runX <- $r5
	@DEBUG_VALUE: getPenaltyScore:result <- $r4
	@DEBUG_VALUE: i <- [DW_OP_plus_uconst 40] [$sp+0]
	@DEBUG_VALUE: minPenalty <- [DW_OP_plus_uconst 44] [$sp+0]
	@DEBUG_VALUE: qrcodegen_encodeSegmentsAdvanced:version <- [DW_OP_plus_uconst 44] [$sp+0]
	@DEBUG_VALUE: qrcodegen_encodeSegmentsAdvanced:segs <- [DW_OP_plus_uconst 36] [$sp+0]
	@DEBUG_VALUE: qrcodegen_encodeSegmentsAdvanced:ecl <- [DW_OP_plus_uconst 52] [$sp+0]
	@DEBUG_VALUE: qrcodegen_encodeSegmentsAdvanced:maxVersion <- [DW_OP_plus_uconst 128] [$sp+0]
	@DEBUG_VALUE: qrcodegen_encodeSegmentsAdvanced:tempBuffer <- [DW_OP_plus_uconst 140] [$sp+0]
	@DEBUG_VALUE: qrcodegen_encodeSegmentsAdvanced:qrcode <- [DW_OP_plus_uconst 144] [$sp+0]
	@DEBUG_VALUE: hasFinderLikePattern:runHistory <- undef
	.loc	2 727 20 is_stmt 1              @ ../GUILib/src/extra/libs/qrcode/qrcodegen.c:727:20
	ldrb.w	r0, [sp, #61]
.Ltmp366:
	@DEBUG_VALUE: hasFinderLikePattern:n <- $r0
	.loc	2 730 15                        @ ../GUILib/src/extra/libs/qrcode/qrcodegen.c:730:15
	cmp	r0, #0
	beq	.LBB1_123
.Ltmp367:
@ %bb.127:                              @   in Loop: Header=BB1_121 Depth=3
	@DEBUG_VALUE: qrcodegen_encodeSegmentsAdvanced:mask <- [DW_OP_plus_uconst 32] [$sp+0]
	@DEBUG_VALUE: getPenaltyScore:qrcode <- $r11
	@DEBUG_VALUE: y <- $r10
	@DEBUG_VALUE: getPenaltyScore:qrsize <- $r9
	@DEBUG_VALUE: x <- $r7
	@DEBUG_VALUE: runX <- $r5
	@DEBUG_VALUE: getPenaltyScore:result <- $r4
	@DEBUG_VALUE: hasFinderLikePattern:n <- $r0
	@DEBUG_VALUE: i <- [DW_OP_plus_uconst 40] [$sp+0]
	@DEBUG_VALUE: minPenalty <- [DW_OP_plus_uconst 44] [$sp+0]
	@DEBUG_VALUE: qrcodegen_encodeSegmentsAdvanced:version <- [DW_OP_plus_uconst 44] [$sp+0]
	@DEBUG_VALUE: qrcodegen_encodeSegmentsAdvanced:segs <- [DW_OP_plus_uconst 36] [$sp+0]
	@DEBUG_VALUE: qrcodegen_encodeSegmentsAdvanced:ecl <- [DW_OP_plus_uconst 52] [$sp+0]
	@DEBUG_VALUE: qrcodegen_encodeSegmentsAdvanced:maxVersion <- [DW_OP_plus_uconst 128] [$sp+0]
	@DEBUG_VALUE: qrcodegen_encodeSegmentsAdvanced:tempBuffer <- [DW_OP_plus_uconst 140] [$sp+0]
	@DEBUG_VALUE: qrcodegen_encodeSegmentsAdvanced:qrcode <- [DW_OP_plus_uconst 144] [$sp+0]
	.loc	2 0 15 is_stmt 0                @ ../GUILib/src/extra/libs/qrcode/qrcodegen.c:0:15
	ldrb.w	r1, [sp, #62]
	.loc	2 730 15                        @ ../GUILib/src/extra/libs/qrcode/qrcodegen.c:730:15
	cmp	r1, r0
	bne	.LBB1_123
.Ltmp368:
@ %bb.128:                              @   in Loop: Header=BB1_121 Depth=3
	@DEBUG_VALUE: qrcodegen_encodeSegmentsAdvanced:mask <- [DW_OP_plus_uconst 32] [$sp+0]
	@DEBUG_VALUE: getPenaltyScore:qrcode <- $r11
	@DEBUG_VALUE: y <- $r10
	@DEBUG_VALUE: getPenaltyScore:qrsize <- $r9
	@DEBUG_VALUE: x <- $r7
	@DEBUG_VALUE: runX <- $r5
	@DEBUG_VALUE: getPenaltyScore:result <- $r4
	@DEBUG_VALUE: hasFinderLikePattern:n <- $r0
	@DEBUG_VALUE: i <- [DW_OP_plus_uconst 40] [$sp+0]
	@DEBUG_VALUE: minPenalty <- [DW_OP_plus_uconst 44] [$sp+0]
	@DEBUG_VALUE: qrcodegen_encodeSegmentsAdvanced:version <- [DW_OP_plus_uconst 44] [$sp+0]
	@DEBUG_VALUE: qrcodegen_encodeSegmentsAdvanced:segs <- [DW_OP_plus_uconst 36] [$sp+0]
	@DEBUG_VALUE: qrcodegen_encodeSegmentsAdvanced:ecl <- [DW_OP_plus_uconst 52] [$sp+0]
	@DEBUG_VALUE: qrcodegen_encodeSegmentsAdvanced:maxVersion <- [DW_OP_plus_uconst 128] [$sp+0]
	@DEBUG_VALUE: qrcodegen_encodeSegmentsAdvanced:tempBuffer <- [DW_OP_plus_uconst 140] [$sp+0]
	@DEBUG_VALUE: qrcodegen_encodeSegmentsAdvanced:qrcode <- [DW_OP_plus_uconst 144] [$sp+0]
	.loc	2 0 15                          @ ../GUILib/src/extra/libs/qrcode/qrcodegen.c:0:15
	ldrb.w	r1, [sp, #64]
	.loc	2 730 15                        @ ../GUILib/src/extra/libs/qrcode/qrcodegen.c:730:15
	cmp	r1, r0
	bne	.LBB1_123
.Ltmp369:
@ %bb.129:                              @   in Loop: Header=BB1_121 Depth=3
	@DEBUG_VALUE: qrcodegen_encodeSegmentsAdvanced:mask <- [DW_OP_plus_uconst 32] [$sp+0]
	@DEBUG_VALUE: getPenaltyScore:qrcode <- $r11
	@DEBUG_VALUE: y <- $r10
	@DEBUG_VALUE: getPenaltyScore:qrsize <- $r9
	@DEBUG_VALUE: x <- $r7
	@DEBUG_VALUE: runX <- $r5
	@DEBUG_VALUE: getPenaltyScore:result <- $r4
	@DEBUG_VALUE: hasFinderLikePattern:n <- $r0
	@DEBUG_VALUE: i <- [DW_OP_plus_uconst 40] [$sp+0]
	@DEBUG_VALUE: minPenalty <- [DW_OP_plus_uconst 44] [$sp+0]
	@DEBUG_VALUE: qrcodegen_encodeSegmentsAdvanced:version <- [DW_OP_plus_uconst 44] [$sp+0]
	@DEBUG_VALUE: qrcodegen_encodeSegmentsAdvanced:segs <- [DW_OP_plus_uconst 36] [$sp+0]
	@DEBUG_VALUE: qrcodegen_encodeSegmentsAdvanced:ecl <- [DW_OP_plus_uconst 52] [$sp+0]
	@DEBUG_VALUE: qrcodegen_encodeSegmentsAdvanced:maxVersion <- [DW_OP_plus_uconst 128] [$sp+0]
	@DEBUG_VALUE: qrcodegen_encodeSegmentsAdvanced:tempBuffer <- [DW_OP_plus_uconst 140] [$sp+0]
	@DEBUG_VALUE: qrcodegen_encodeSegmentsAdvanced:qrcode <- [DW_OP_plus_uconst 144] [$sp+0]
	.loc	2 0 15                          @ ../GUILib/src/extra/libs/qrcode/qrcodegen.c:0:15
	ldrb.w	r1, [sp, #65]
	.loc	2 730 15                        @ ../GUILib/src/extra/libs/qrcode/qrcodegen.c:730:15
	cmp	r1, r0
	bne	.LBB1_123
.Ltmp370:
@ %bb.130:                              @   in Loop: Header=BB1_121 Depth=3
	@DEBUG_VALUE: qrcodegen_encodeSegmentsAdvanced:mask <- [DW_OP_plus_uconst 32] [$sp+0]
	@DEBUG_VALUE: getPenaltyScore:qrcode <- $r11
	@DEBUG_VALUE: y <- $r10
	@DEBUG_VALUE: getPenaltyScore:qrsize <- $r9
	@DEBUG_VALUE: x <- $r7
	@DEBUG_VALUE: runX <- $r5
	@DEBUG_VALUE: getPenaltyScore:result <- $r4
	@DEBUG_VALUE: hasFinderLikePattern:n <- $r0
	@DEBUG_VALUE: i <- [DW_OP_plus_uconst 40] [$sp+0]
	@DEBUG_VALUE: minPenalty <- [DW_OP_plus_uconst 44] [$sp+0]
	@DEBUG_VALUE: qrcodegen_encodeSegmentsAdvanced:version <- [DW_OP_plus_uconst 44] [$sp+0]
	@DEBUG_VALUE: qrcodegen_encodeSegmentsAdvanced:segs <- [DW_OP_plus_uconst 36] [$sp+0]
	@DEBUG_VALUE: qrcodegen_encodeSegmentsAdvanced:ecl <- [DW_OP_plus_uconst 52] [$sp+0]
	@DEBUG_VALUE: qrcodegen_encodeSegmentsAdvanced:maxVersion <- [DW_OP_plus_uconst 128] [$sp+0]
	@DEBUG_VALUE: qrcodegen_encodeSegmentsAdvanced:tempBuffer <- [DW_OP_plus_uconst 140] [$sp+0]
	@DEBUG_VALUE: qrcodegen_encodeSegmentsAdvanced:qrcode <- [DW_OP_plus_uconst 144] [$sp+0]
	.loc	2 731 6 is_stmt 1               @ ../GUILib/src/extra/libs/qrcode/qrcodegen.c:731:6
	ldrb.w	r1, [sp, #63]
	.loc	2 731 25 is_stmt 0              @ ../GUILib/src/extra/libs/qrcode/qrcodegen.c:731:25
	add.w	r2, r0, r0, lsl #1
	.loc	2 731 29                        @ ../GUILib/src/extra/libs/qrcode/qrcodegen.c:731:29
	cmp	r2, r1
	bne	.LBB1_123
.Ltmp371:
@ %bb.131:                              @   in Loop: Header=BB1_121 Depth=3
	@DEBUG_VALUE: qrcodegen_encodeSegmentsAdvanced:mask <- [DW_OP_plus_uconst 32] [$sp+0]
	@DEBUG_VALUE: getPenaltyScore:qrcode <- $r11
	@DEBUG_VALUE: y <- $r10
	@DEBUG_VALUE: getPenaltyScore:qrsize <- $r9
	@DEBUG_VALUE: x <- $r7
	@DEBUG_VALUE: runX <- $r5
	@DEBUG_VALUE: getPenaltyScore:result <- $r4
	@DEBUG_VALUE: hasFinderLikePattern:n <- $r0
	@DEBUG_VALUE: i <- [DW_OP_plus_uconst 40] [$sp+0]
	@DEBUG_VALUE: minPenalty <- [DW_OP_plus_uconst 44] [$sp+0]
	@DEBUG_VALUE: qrcodegen_encodeSegmentsAdvanced:version <- [DW_OP_plus_uconst 44] [$sp+0]
	@DEBUG_VALUE: qrcodegen_encodeSegmentsAdvanced:segs <- [DW_OP_plus_uconst 36] [$sp+0]
	@DEBUG_VALUE: qrcodegen_encodeSegmentsAdvanced:ecl <- [DW_OP_plus_uconst 52] [$sp+0]
	@DEBUG_VALUE: qrcodegen_encodeSegmentsAdvanced:maxVersion <- [DW_OP_plus_uconst 128] [$sp+0]
	@DEBUG_VALUE: qrcodegen_encodeSegmentsAdvanced:tempBuffer <- [DW_OP_plus_uconst 140] [$sp+0]
	@DEBUG_VALUE: qrcodegen_encodeSegmentsAdvanced:qrcode <- [DW_OP_plus_uconst 144] [$sp+0]
	.loc	2 731 33                        @ ../GUILib/src/extra/libs/qrcode/qrcodegen.c:731:33
	uxtb	r1, r5
	.loc	2 731 56                        @ ../GUILib/src/extra/libs/qrcode/qrcodegen.c:731:56
	cmp.w	r1, r0, lsl #2
	bhs	.LBB1_135
.Ltmp372:
@ %bb.132:                              @   in Loop: Header=BB1_121 Depth=3
	@DEBUG_VALUE: qrcodegen_encodeSegmentsAdvanced:mask <- [DW_OP_plus_uconst 32] [$sp+0]
	@DEBUG_VALUE: getPenaltyScore:qrcode <- $r11
	@DEBUG_VALUE: y <- $r10
	@DEBUG_VALUE: getPenaltyScore:qrsize <- $r9
	@DEBUG_VALUE: x <- $r7
	@DEBUG_VALUE: runX <- $r5
	@DEBUG_VALUE: getPenaltyScore:result <- $r4
	@DEBUG_VALUE: hasFinderLikePattern:n <- $r0
	@DEBUG_VALUE: i <- [DW_OP_plus_uconst 40] [$sp+0]
	@DEBUG_VALUE: minPenalty <- [DW_OP_plus_uconst 44] [$sp+0]
	@DEBUG_VALUE: qrcodegen_encodeSegmentsAdvanced:version <- [DW_OP_plus_uconst 44] [$sp+0]
	@DEBUG_VALUE: qrcodegen_encodeSegmentsAdvanced:segs <- [DW_OP_plus_uconst 36] [$sp+0]
	@DEBUG_VALUE: qrcodegen_encodeSegmentsAdvanced:ecl <- [DW_OP_plus_uconst 52] [$sp+0]
	@DEBUG_VALUE: qrcodegen_encodeSegmentsAdvanced:maxVersion <- [DW_OP_plus_uconst 128] [$sp+0]
	@DEBUG_VALUE: qrcodegen_encodeSegmentsAdvanced:tempBuffer <- [DW_OP_plus_uconst 140] [$sp+0]
	@DEBUG_VALUE: qrcodegen_encodeSegmentsAdvanced:qrcode <- [DW_OP_plus_uconst 144] [$sp+0]
	.loc	2 731 59                        @ ../GUILib/src/extra/libs/qrcode/qrcodegen.c:731:59
	ldrb.w	r1, [sp, #66]
	.loc	2 0 0                           @ ../GUILib/src/extra/libs/qrcode/qrcodegen.c:0:0
	lsls	r0, r0, #2
.Ltmp373:
	.loc	2 649 9 is_stmt 1               @ ../GUILib/src/extra/libs/qrcode/qrcodegen.c:649:9
	cmp	r0, r1
	it	ls
	addls	r4, #40
.Ltmp374:
	.loc	2 0 9 is_stmt 0                 @ ../GUILib/src/extra/libs/qrcode/qrcodegen.c:0:9
	b	.LBB1_123
.Ltmp375:
.LBB1_133:                              @   in Loop: Header=BB1_121 Depth=3
	@DEBUG_VALUE: qrcodegen_encodeSegmentsAdvanced:mask <- [DW_OP_plus_uconst 32] [$sp+0]
	@DEBUG_VALUE: getPenaltyScore:qrcode <- $r11
	@DEBUG_VALUE: y <- $r10
	@DEBUG_VALUE: getPenaltyScore:qrsize <- $r9
	@DEBUG_VALUE: x <- $r7
	@DEBUG_VALUE: runX <- $r5
	@DEBUG_VALUE: getPenaltyScore:result <- $r4
	@DEBUG_VALUE: i <- [DW_OP_plus_uconst 40] [$sp+0]
	@DEBUG_VALUE: minPenalty <- [DW_OP_plus_uconst 44] [$sp+0]
	@DEBUG_VALUE: qrcodegen_encodeSegmentsAdvanced:version <- [DW_OP_plus_uconst 44] [$sp+0]
	@DEBUG_VALUE: qrcodegen_encodeSegmentsAdvanced:segs <- [DW_OP_plus_uconst 36] [$sp+0]
	@DEBUG_VALUE: qrcodegen_encodeSegmentsAdvanced:ecl <- [DW_OP_plus_uconst 52] [$sp+0]
	@DEBUG_VALUE: qrcodegen_encodeSegmentsAdvanced:maxVersion <- [DW_OP_plus_uconst 128] [$sp+0]
	@DEBUG_VALUE: qrcodegen_encodeSegmentsAdvanced:tempBuffer <- [DW_OP_plus_uconst 140] [$sp+0]
	@DEBUG_VALUE: qrcodegen_encodeSegmentsAdvanced:qrcode <- [DW_OP_plus_uconst 144] [$sp+0]
	.loc	2 644 13 is_stmt 1              @ ../GUILib/src/extra/libs/qrcode/qrcodegen.c:644:13
	adds	r4, #3
.Ltmp376:
	@DEBUG_VALUE: getPenaltyScore:result <- $r4
	.loc	2 0 13 is_stmt 0                @ ../GUILib/src/extra/libs/qrcode/qrcodegen.c:0:13
	movs	r5, #5
.Ltmp377:
	.p2align	2
.LBB1_134:                              @   in Loop: Header=BB1_121 Depth=3
	@DEBUG_VALUE: qrcodegen_encodeSegmentsAdvanced:mask <- [DW_OP_plus_uconst 32] [$sp+0]
	@DEBUG_VALUE: getPenaltyScore:qrcode <- $r11
	@DEBUG_VALUE: y <- $r10
	@DEBUG_VALUE: getPenaltyScore:qrsize <- $r9
	@DEBUG_VALUE: x <- $r7
	@DEBUG_VALUE: i <- [DW_OP_plus_uconst 40] [$sp+0]
	@DEBUG_VALUE: minPenalty <- [DW_OP_plus_uconst 44] [$sp+0]
	@DEBUG_VALUE: qrcodegen_encodeSegmentsAdvanced:version <- [DW_OP_plus_uconst 44] [$sp+0]
	@DEBUG_VALUE: qrcodegen_encodeSegmentsAdvanced:segs <- [DW_OP_plus_uconst 36] [$sp+0]
	@DEBUG_VALUE: qrcodegen_encodeSegmentsAdvanced:ecl <- [DW_OP_plus_uconst 52] [$sp+0]
	@DEBUG_VALUE: qrcodegen_encodeSegmentsAdvanced:maxVersion <- [DW_OP_plus_uconst 128] [$sp+0]
	@DEBUG_VALUE: qrcodegen_encodeSegmentsAdvanced:tempBuffer <- [DW_OP_plus_uconst 140] [$sp+0]
	@DEBUG_VALUE: qrcodegen_encodeSegmentsAdvanced:qrcode <- [DW_OP_plus_uconst 144] [$sp+0]
	@DEBUG_VALUE: getPenaltyScore:result <- $r4
	@DEBUG_VALUE: runX <- $r5
	@DEBUG_VALUE: color <- undef
	.loc	2 640 32 is_stmt 1              @ ../GUILib/src/extra/libs/qrcode/qrcodegen.c:640:32
	adds	r7, #1
.Ltmp378:
	@DEBUG_VALUE: x <- $r7
	.loc	2 640 3 is_stmt 0               @ ../GUILib/src/extra/libs/qrcode/qrcodegen.c:640:3
	cmp	r9, r7
	bne	.LBB1_121
	b	.LBB1_136
.Ltmp379:
.LBB1_135:                              @   in Loop: Header=BB1_121 Depth=3
	@DEBUG_VALUE: qrcodegen_encodeSegmentsAdvanced:mask <- [DW_OP_plus_uconst 32] [$sp+0]
	@DEBUG_VALUE: getPenaltyScore:qrcode <- $r11
	@DEBUG_VALUE: y <- $r10
	@DEBUG_VALUE: getPenaltyScore:qrsize <- $r9
	@DEBUG_VALUE: x <- $r7
	@DEBUG_VALUE: runX <- $r5
	@DEBUG_VALUE: getPenaltyScore:result <- $r4
	@DEBUG_VALUE: hasFinderLikePattern:n <- $r0
	@DEBUG_VALUE: i <- [DW_OP_plus_uconst 40] [$sp+0]
	@DEBUG_VALUE: minPenalty <- [DW_OP_plus_uconst 44] [$sp+0]
	@DEBUG_VALUE: qrcodegen_encodeSegmentsAdvanced:version <- [DW_OP_plus_uconst 44] [$sp+0]
	@DEBUG_VALUE: qrcodegen_encodeSegmentsAdvanced:segs <- [DW_OP_plus_uconst 36] [$sp+0]
	@DEBUG_VALUE: qrcodegen_encodeSegmentsAdvanced:ecl <- [DW_OP_plus_uconst 52] [$sp+0]
	@DEBUG_VALUE: qrcodegen_encodeSegmentsAdvanced:maxVersion <- [DW_OP_plus_uconst 128] [$sp+0]
	@DEBUG_VALUE: qrcodegen_encodeSegmentsAdvanced:tempBuffer <- [DW_OP_plus_uconst 140] [$sp+0]
	@DEBUG_VALUE: qrcodegen_encodeSegmentsAdvanced:qrcode <- [DW_OP_plus_uconst 144] [$sp+0]
	.loc	2 0 3                           @ ../GUILib/src/extra/libs/qrcode/qrcodegen.c:0:3
	adds	r4, #40
.Ltmp380:
	b	.LBB1_123
.Ltmp381:
	.p2align	2
.LBB1_136:                              @   in Loop: Header=BB1_120 Depth=2
	@DEBUG_VALUE: qrcodegen_encodeSegmentsAdvanced:mask <- [DW_OP_plus_uconst 32] [$sp+0]
	@DEBUG_VALUE: getPenaltyScore:qrcode <- $r11
	@DEBUG_VALUE: y <- $r10
	@DEBUG_VALUE: getPenaltyScore:qrsize <- $r9
	@DEBUG_VALUE: runX <- $r5
	@DEBUG_VALUE: getPenaltyScore:result <- $r4
	@DEBUG_VALUE: i <- [DW_OP_plus_uconst 40] [$sp+0]
	@DEBUG_VALUE: minPenalty <- [DW_OP_plus_uconst 44] [$sp+0]
	@DEBUG_VALUE: qrcodegen_encodeSegmentsAdvanced:version <- [DW_OP_plus_uconst 44] [$sp+0]
	@DEBUG_VALUE: qrcodegen_encodeSegmentsAdvanced:segs <- [DW_OP_plus_uconst 36] [$sp+0]
	@DEBUG_VALUE: qrcodegen_encodeSegmentsAdvanced:ecl <- [DW_OP_plus_uconst 52] [$sp+0]
	@DEBUG_VALUE: qrcodegen_encodeSegmentsAdvanced:maxVersion <- [DW_OP_plus_uconst 128] [$sp+0]
	@DEBUG_VALUE: qrcodegen_encodeSegmentsAdvanced:tempBuffer <- [DW_OP_plus_uconst 140] [$sp+0]
	@DEBUG_VALUE: qrcodegen_encodeSegmentsAdvanced:qrcode <- [DW_OP_plus_uconst 144] [$sp+0]
	@DEBUG_VALUE: addRunToHistory:run <- $r5
	@DEBUG_VALUE: addRunToHistory:history <- undef
	.loc	2 718 2 is_stmt 1               @ ../GUILib/src/extra/libs/qrcode/qrcodegen.c:718:2
	ldrh.w	r0, [sp, #64]
	ldr	r2, [sp, #52]                   @ 4-byte Reload
	ldr	r1, [sp, #60]
	strh	r0, [r2, #4]
.Ltmp382:
	.loc	2 656 7                         @ ../GUILib/src/extra/libs/qrcode/qrcodegen.c:656:7
	lsls	r0, r6, #31
.Ltmp383:
	.loc	2 718 2                         @ ../GUILib/src/extra/libs/qrcode/qrcodegen.c:718:2
	str	r1, [r2]
	.loc	2 719 13                        @ ../GUILib/src/extra/libs/qrcode/qrcodegen.c:719:13
	strb.w	r5, [sp, #60]
.Ltmp384:
	@DEBUG_VALUE: addRunToHistory:run <- $r5
	.loc	2 656 7                         @ ../GUILib/src/extra/libs/qrcode/qrcodegen.c:656:7
	beq	.LBB1_138
.Ltmp385:
@ %bb.137:                              @   in Loop: Header=BB1_120 Depth=2
	@DEBUG_VALUE: qrcodegen_encodeSegmentsAdvanced:mask <- [DW_OP_plus_uconst 32] [$sp+0]
	@DEBUG_VALUE: getPenaltyScore:qrcode <- $r11
	@DEBUG_VALUE: y <- $r10
	@DEBUG_VALUE: getPenaltyScore:qrsize <- $r9
	@DEBUG_VALUE: runX <- $r5
	@DEBUG_VALUE: getPenaltyScore:result <- $r4
	@DEBUG_VALUE: i <- [DW_OP_plus_uconst 40] [$sp+0]
	@DEBUG_VALUE: minPenalty <- [DW_OP_plus_uconst 44] [$sp+0]
	@DEBUG_VALUE: qrcodegen_encodeSegmentsAdvanced:version <- [DW_OP_plus_uconst 44] [$sp+0]
	@DEBUG_VALUE: qrcodegen_encodeSegmentsAdvanced:segs <- [DW_OP_plus_uconst 36] [$sp+0]
	@DEBUG_VALUE: qrcodegen_encodeSegmentsAdvanced:ecl <- [DW_OP_plus_uconst 52] [$sp+0]
	@DEBUG_VALUE: qrcodegen_encodeSegmentsAdvanced:maxVersion <- [DW_OP_plus_uconst 128] [$sp+0]
	@DEBUG_VALUE: qrcodegen_encodeSegmentsAdvanced:tempBuffer <- [DW_OP_plus_uconst 140] [$sp+0]
	@DEBUG_VALUE: qrcodegen_encodeSegmentsAdvanced:qrcode <- [DW_OP_plus_uconst 144] [$sp+0]
	@DEBUG_VALUE: addRunToHistory:run <- 0
	@DEBUG_VALUE: addRunToHistory:history <- undef
	.loc	2 718 2                         @ ../GUILib/src/extra/libs/qrcode/qrcodegen.c:718:2
	ldrh.w	r0, [sp, #64]
	ldr	r1, [sp, #60]
	ldr	r2, [sp, #52]                   @ 4-byte Reload
	movs	r5, #0
.Ltmp386:
	strh	r0, [r2, #4]
	str	r1, [r2]
.Ltmp387:
.LBB1_138:                              @   in Loop: Header=BB1_120 Depth=2
	@DEBUG_VALUE: qrcodegen_encodeSegmentsAdvanced:mask <- [DW_OP_plus_uconst 32] [$sp+0]
	@DEBUG_VALUE: getPenaltyScore:qrcode <- $r11
	@DEBUG_VALUE: y <- $r10
	@DEBUG_VALUE: getPenaltyScore:qrsize <- $r9
	@DEBUG_VALUE: getPenaltyScore:result <- $r4
	@DEBUG_VALUE: i <- [DW_OP_plus_uconst 40] [$sp+0]
	@DEBUG_VALUE: minPenalty <- [DW_OP_plus_uconst 44] [$sp+0]
	@DEBUG_VALUE: qrcodegen_encodeSegmentsAdvanced:version <- [DW_OP_plus_uconst 44] [$sp+0]
	@DEBUG_VALUE: qrcodegen_encodeSegmentsAdvanced:segs <- [DW_OP_plus_uconst 36] [$sp+0]
	@DEBUG_VALUE: qrcodegen_encodeSegmentsAdvanced:ecl <- [DW_OP_plus_uconst 52] [$sp+0]
	@DEBUG_VALUE: qrcodegen_encodeSegmentsAdvanced:maxVersion <- [DW_OP_plus_uconst 128] [$sp+0]
	@DEBUG_VALUE: qrcodegen_encodeSegmentsAdvanced:tempBuffer <- [DW_OP_plus_uconst 140] [$sp+0]
	@DEBUG_VALUE: qrcodegen_encodeSegmentsAdvanced:qrcode <- [DW_OP_plus_uconst 144] [$sp+0]
	@DEBUG_VALUE: hasFinderLikePattern:runHistory <- undef
	.loc	2 727 20                        @ ../GUILib/src/extra/libs/qrcode/qrcodegen.c:727:20
	ldrb.w	r0, [sp, #61]
.Ltmp388:
	@DEBUG_VALUE: hasFinderLikePattern:n <- $r0
	.loc	2 730 15                        @ ../GUILib/src/extra/libs/qrcode/qrcodegen.c:730:15
	cbz	r0, .LBB1_146
.Ltmp389:
@ %bb.139:                              @   in Loop: Header=BB1_120 Depth=2
	@DEBUG_VALUE: qrcodegen_encodeSegmentsAdvanced:mask <- [DW_OP_plus_uconst 32] [$sp+0]
	@DEBUG_VALUE: getPenaltyScore:qrcode <- $r11
	@DEBUG_VALUE: y <- $r10
	@DEBUG_VALUE: getPenaltyScore:qrsize <- $r9
	@DEBUG_VALUE: getPenaltyScore:result <- $r4
	@DEBUG_VALUE: hasFinderLikePattern:n <- $r0
	@DEBUG_VALUE: i <- [DW_OP_plus_uconst 40] [$sp+0]
	@DEBUG_VALUE: minPenalty <- [DW_OP_plus_uconst 44] [$sp+0]
	@DEBUG_VALUE: qrcodegen_encodeSegmentsAdvanced:version <- [DW_OP_plus_uconst 44] [$sp+0]
	@DEBUG_VALUE: qrcodegen_encodeSegmentsAdvanced:segs <- [DW_OP_plus_uconst 36] [$sp+0]
	@DEBUG_VALUE: qrcodegen_encodeSegmentsAdvanced:ecl <- [DW_OP_plus_uconst 52] [$sp+0]
	@DEBUG_VALUE: qrcodegen_encodeSegmentsAdvanced:maxVersion <- [DW_OP_plus_uconst 128] [$sp+0]
	@DEBUG_VALUE: qrcodegen_encodeSegmentsAdvanced:tempBuffer <- [DW_OP_plus_uconst 140] [$sp+0]
	@DEBUG_VALUE: qrcodegen_encodeSegmentsAdvanced:qrcode <- [DW_OP_plus_uconst 144] [$sp+0]
	.loc	2 0 15 is_stmt 0                @ ../GUILib/src/extra/libs/qrcode/qrcodegen.c:0:15
	ldrb.w	r1, [sp, #62]
	.loc	2 730 15                        @ ../GUILib/src/extra/libs/qrcode/qrcodegen.c:730:15
	cmp	r1, r0
	bne	.LBB1_146
.Ltmp390:
@ %bb.140:                              @   in Loop: Header=BB1_120 Depth=2
	@DEBUG_VALUE: qrcodegen_encodeSegmentsAdvanced:mask <- [DW_OP_plus_uconst 32] [$sp+0]
	@DEBUG_VALUE: getPenaltyScore:qrcode <- $r11
	@DEBUG_VALUE: y <- $r10
	@DEBUG_VALUE: getPenaltyScore:qrsize <- $r9
	@DEBUG_VALUE: getPenaltyScore:result <- $r4
	@DEBUG_VALUE: hasFinderLikePattern:n <- $r0
	@DEBUG_VALUE: i <- [DW_OP_plus_uconst 40] [$sp+0]
	@DEBUG_VALUE: minPenalty <- [DW_OP_plus_uconst 44] [$sp+0]
	@DEBUG_VALUE: qrcodegen_encodeSegmentsAdvanced:version <- [DW_OP_plus_uconst 44] [$sp+0]
	@DEBUG_VALUE: qrcodegen_encodeSegmentsAdvanced:segs <- [DW_OP_plus_uconst 36] [$sp+0]
	@DEBUG_VALUE: qrcodegen_encodeSegmentsAdvanced:ecl <- [DW_OP_plus_uconst 52] [$sp+0]
	@DEBUG_VALUE: qrcodegen_encodeSegmentsAdvanced:maxVersion <- [DW_OP_plus_uconst 128] [$sp+0]
	@DEBUG_VALUE: qrcodegen_encodeSegmentsAdvanced:tempBuffer <- [DW_OP_plus_uconst 140] [$sp+0]
	@DEBUG_VALUE: qrcodegen_encodeSegmentsAdvanced:qrcode <- [DW_OP_plus_uconst 144] [$sp+0]
	.loc	2 0 15                          @ ../GUILib/src/extra/libs/qrcode/qrcodegen.c:0:15
	ldrb.w	r1, [sp, #64]
	.loc	2 730 15                        @ ../GUILib/src/extra/libs/qrcode/qrcodegen.c:730:15
	cmp	r1, r0
	bne	.LBB1_146
.Ltmp391:
@ %bb.141:                              @   in Loop: Header=BB1_120 Depth=2
	@DEBUG_VALUE: qrcodegen_encodeSegmentsAdvanced:mask <- [DW_OP_plus_uconst 32] [$sp+0]
	@DEBUG_VALUE: getPenaltyScore:qrcode <- $r11
	@DEBUG_VALUE: y <- $r10
	@DEBUG_VALUE: getPenaltyScore:qrsize <- $r9
	@DEBUG_VALUE: getPenaltyScore:result <- $r4
	@DEBUG_VALUE: hasFinderLikePattern:n <- $r0
	@DEBUG_VALUE: i <- [DW_OP_plus_uconst 40] [$sp+0]
	@DEBUG_VALUE: minPenalty <- [DW_OP_plus_uconst 44] [$sp+0]
	@DEBUG_VALUE: qrcodegen_encodeSegmentsAdvanced:version <- [DW_OP_plus_uconst 44] [$sp+0]
	@DEBUG_VALUE: qrcodegen_encodeSegmentsAdvanced:segs <- [DW_OP_plus_uconst 36] [$sp+0]
	@DEBUG_VALUE: qrcodegen_encodeSegmentsAdvanced:ecl <- [DW_OP_plus_uconst 52] [$sp+0]
	@DEBUG_VALUE: qrcodegen_encodeSegmentsAdvanced:maxVersion <- [DW_OP_plus_uconst 128] [$sp+0]
	@DEBUG_VALUE: qrcodegen_encodeSegmentsAdvanced:tempBuffer <- [DW_OP_plus_uconst 140] [$sp+0]
	@DEBUG_VALUE: qrcodegen_encodeSegmentsAdvanced:qrcode <- [DW_OP_plus_uconst 144] [$sp+0]
	.loc	2 0 15                          @ ../GUILib/src/extra/libs/qrcode/qrcodegen.c:0:15
	ldrb.w	r1, [sp, #65]
	.loc	2 730 15                        @ ../GUILib/src/extra/libs/qrcode/qrcodegen.c:730:15
	cmp	r1, r0
	bne	.LBB1_146
.Ltmp392:
@ %bb.142:                              @   in Loop: Header=BB1_120 Depth=2
	@DEBUG_VALUE: qrcodegen_encodeSegmentsAdvanced:mask <- [DW_OP_plus_uconst 32] [$sp+0]
	@DEBUG_VALUE: getPenaltyScore:qrcode <- $r11
	@DEBUG_VALUE: y <- $r10
	@DEBUG_VALUE: getPenaltyScore:qrsize <- $r9
	@DEBUG_VALUE: getPenaltyScore:result <- $r4
	@DEBUG_VALUE: hasFinderLikePattern:n <- $r0
	@DEBUG_VALUE: i <- [DW_OP_plus_uconst 40] [$sp+0]
	@DEBUG_VALUE: minPenalty <- [DW_OP_plus_uconst 44] [$sp+0]
	@DEBUG_VALUE: qrcodegen_encodeSegmentsAdvanced:version <- [DW_OP_plus_uconst 44] [$sp+0]
	@DEBUG_VALUE: qrcodegen_encodeSegmentsAdvanced:segs <- [DW_OP_plus_uconst 36] [$sp+0]
	@DEBUG_VALUE: qrcodegen_encodeSegmentsAdvanced:ecl <- [DW_OP_plus_uconst 52] [$sp+0]
	@DEBUG_VALUE: qrcodegen_encodeSegmentsAdvanced:maxVersion <- [DW_OP_plus_uconst 128] [$sp+0]
	@DEBUG_VALUE: qrcodegen_encodeSegmentsAdvanced:tempBuffer <- [DW_OP_plus_uconst 140] [$sp+0]
	@DEBUG_VALUE: qrcodegen_encodeSegmentsAdvanced:qrcode <- [DW_OP_plus_uconst 144] [$sp+0]
	.loc	2 731 6 is_stmt 1               @ ../GUILib/src/extra/libs/qrcode/qrcodegen.c:731:6
	ldrb.w	r1, [sp, #63]
	.loc	2 731 25 is_stmt 0              @ ../GUILib/src/extra/libs/qrcode/qrcodegen.c:731:25
	add.w	r2, r0, r0, lsl #1
	.loc	2 731 29                        @ ../GUILib/src/extra/libs/qrcode/qrcodegen.c:731:29
	cmp	r2, r1
	bne	.LBB1_146
.Ltmp393:
@ %bb.143:                              @   in Loop: Header=BB1_120 Depth=2
	@DEBUG_VALUE: qrcodegen_encodeSegmentsAdvanced:mask <- [DW_OP_plus_uconst 32] [$sp+0]
	@DEBUG_VALUE: getPenaltyScore:qrcode <- $r11
	@DEBUG_VALUE: y <- $r10
	@DEBUG_VALUE: getPenaltyScore:qrsize <- $r9
	@DEBUG_VALUE: getPenaltyScore:result <- $r4
	@DEBUG_VALUE: hasFinderLikePattern:n <- $r0
	@DEBUG_VALUE: i <- [DW_OP_plus_uconst 40] [$sp+0]
	@DEBUG_VALUE: minPenalty <- [DW_OP_plus_uconst 44] [$sp+0]
	@DEBUG_VALUE: qrcodegen_encodeSegmentsAdvanced:version <- [DW_OP_plus_uconst 44] [$sp+0]
	@DEBUG_VALUE: qrcodegen_encodeSegmentsAdvanced:segs <- [DW_OP_plus_uconst 36] [$sp+0]
	@DEBUG_VALUE: qrcodegen_encodeSegmentsAdvanced:ecl <- [DW_OP_plus_uconst 52] [$sp+0]
	@DEBUG_VALUE: qrcodegen_encodeSegmentsAdvanced:maxVersion <- [DW_OP_plus_uconst 128] [$sp+0]
	@DEBUG_VALUE: qrcodegen_encodeSegmentsAdvanced:tempBuffer <- [DW_OP_plus_uconst 140] [$sp+0]
	@DEBUG_VALUE: qrcodegen_encodeSegmentsAdvanced:qrcode <- [DW_OP_plus_uconst 144] [$sp+0]
	.loc	2 731 33                        @ ../GUILib/src/extra/libs/qrcode/qrcodegen.c:731:33
	uxtb	r1, r5
	.loc	2 731 56                        @ ../GUILib/src/extra/libs/qrcode/qrcodegen.c:731:56
	cmp.w	r1, r0, lsl #2
	bhs	.LBB1_145
.Ltmp394:
@ %bb.144:                              @   in Loop: Header=BB1_120 Depth=2
	@DEBUG_VALUE: qrcodegen_encodeSegmentsAdvanced:mask <- [DW_OP_plus_uconst 32] [$sp+0]
	@DEBUG_VALUE: getPenaltyScore:qrcode <- $r11
	@DEBUG_VALUE: y <- $r10
	@DEBUG_VALUE: getPenaltyScore:qrsize <- $r9
	@DEBUG_VALUE: getPenaltyScore:result <- $r4
	@DEBUG_VALUE: hasFinderLikePattern:n <- $r0
	@DEBUG_VALUE: i <- [DW_OP_plus_uconst 40] [$sp+0]
	@DEBUG_VALUE: minPenalty <- [DW_OP_plus_uconst 44] [$sp+0]
	@DEBUG_VALUE: qrcodegen_encodeSegmentsAdvanced:version <- [DW_OP_plus_uconst 44] [$sp+0]
	@DEBUG_VALUE: qrcodegen_encodeSegmentsAdvanced:segs <- [DW_OP_plus_uconst 36] [$sp+0]
	@DEBUG_VALUE: qrcodegen_encodeSegmentsAdvanced:ecl <- [DW_OP_plus_uconst 52] [$sp+0]
	@DEBUG_VALUE: qrcodegen_encodeSegmentsAdvanced:maxVersion <- [DW_OP_plus_uconst 128] [$sp+0]
	@DEBUG_VALUE: qrcodegen_encodeSegmentsAdvanced:tempBuffer <- [DW_OP_plus_uconst 140] [$sp+0]
	@DEBUG_VALUE: qrcodegen_encodeSegmentsAdvanced:qrcode <- [DW_OP_plus_uconst 144] [$sp+0]
	.loc	2 731 59                        @ ../GUILib/src/extra/libs/qrcode/qrcodegen.c:731:59
	ldrb.w	r1, [sp, #66]
	.loc	2 0 0                           @ ../GUILib/src/extra/libs/qrcode/qrcodegen.c:0:0
	lsls	r0, r0, #2
.Ltmp395:
	.loc	2 658 7 is_stmt 1               @ ../GUILib/src/extra/libs/qrcode/qrcodegen.c:658:7
	cmp	r0, r1
	it	ls
	addls	r4, #40
.Ltmp396:
	.loc	2 0 7 is_stmt 0                 @ ../GUILib/src/extra/libs/qrcode/qrcodegen.c:0:7
	b	.LBB1_146
.Ltmp397:
.LBB1_145:                              @   in Loop: Header=BB1_120 Depth=2
	@DEBUG_VALUE: qrcodegen_encodeSegmentsAdvanced:mask <- [DW_OP_plus_uconst 32] [$sp+0]
	@DEBUG_VALUE: getPenaltyScore:qrcode <- $r11
	@DEBUG_VALUE: y <- $r10
	@DEBUG_VALUE: getPenaltyScore:qrsize <- $r9
	@DEBUG_VALUE: getPenaltyScore:result <- $r4
	@DEBUG_VALUE: hasFinderLikePattern:n <- $r0
	@DEBUG_VALUE: i <- [DW_OP_plus_uconst 40] [$sp+0]
	@DEBUG_VALUE: minPenalty <- [DW_OP_plus_uconst 44] [$sp+0]
	@DEBUG_VALUE: qrcodegen_encodeSegmentsAdvanced:version <- [DW_OP_plus_uconst 44] [$sp+0]
	@DEBUG_VALUE: qrcodegen_encodeSegmentsAdvanced:segs <- [DW_OP_plus_uconst 36] [$sp+0]
	@DEBUG_VALUE: qrcodegen_encodeSegmentsAdvanced:ecl <- [DW_OP_plus_uconst 52] [$sp+0]
	@DEBUG_VALUE: qrcodegen_encodeSegmentsAdvanced:maxVersion <- [DW_OP_plus_uconst 128] [$sp+0]
	@DEBUG_VALUE: qrcodegen_encodeSegmentsAdvanced:tempBuffer <- [DW_OP_plus_uconst 140] [$sp+0]
	@DEBUG_VALUE: qrcodegen_encodeSegmentsAdvanced:qrcode <- [DW_OP_plus_uconst 144] [$sp+0]
	adds	r4, #40
.Ltmp398:
	.p2align	2
.LBB1_146:                              @   in Loop: Header=BB1_120 Depth=2
	@DEBUG_VALUE: qrcodegen_encodeSegmentsAdvanced:mask <- [DW_OP_plus_uconst 32] [$sp+0]
	@DEBUG_VALUE: getPenaltyScore:qrcode <- $r11
	@DEBUG_VALUE: y <- $r10
	@DEBUG_VALUE: getPenaltyScore:qrsize <- $r9
	@DEBUG_VALUE: i <- [DW_OP_plus_uconst 40] [$sp+0]
	@DEBUG_VALUE: minPenalty <- [DW_OP_plus_uconst 44] [$sp+0]
	@DEBUG_VALUE: qrcodegen_encodeSegmentsAdvanced:version <- [DW_OP_plus_uconst 44] [$sp+0]
	@DEBUG_VALUE: qrcodegen_encodeSegmentsAdvanced:segs <- [DW_OP_plus_uconst 36] [$sp+0]
	@DEBUG_VALUE: qrcodegen_encodeSegmentsAdvanced:ecl <- [DW_OP_plus_uconst 52] [$sp+0]
	@DEBUG_VALUE: qrcodegen_encodeSegmentsAdvanced:maxVersion <- [DW_OP_plus_uconst 128] [$sp+0]
	@DEBUG_VALUE: qrcodegen_encodeSegmentsAdvanced:tempBuffer <- [DW_OP_plus_uconst 140] [$sp+0]
	@DEBUG_VALUE: qrcodegen_encodeSegmentsAdvanced:qrcode <- [DW_OP_plus_uconst 144] [$sp+0]
	@DEBUG_VALUE: getPenaltyScore:result <- $r4
	.loc	2 636 31 is_stmt 1              @ ../GUILib/src/extra/libs/qrcode/qrcodegen.c:636:31
	add.w	r10, r10, #1
.Ltmp399:
	@DEBUG_VALUE: y <- $r10
	.loc	2 636 2 is_stmt 0               @ ../GUILib/src/extra/libs/qrcode/qrcodegen.c:636:2
	cmp	r10, r9
	bne.w	.LBB1_120
.Ltmp400:
@ %bb.147:                              @   in Loop: Header=BB1_118 Depth=1
	@DEBUG_VALUE: qrcodegen_encodeSegmentsAdvanced:mask <- [DW_OP_plus_uconst 32] [$sp+0]
	@DEBUG_VALUE: getPenaltyScore:qrcode <- $r11
	@DEBUG_VALUE: y <- $r10
	@DEBUG_VALUE: getPenaltyScore:qrsize <- $r9
	@DEBUG_VALUE: getPenaltyScore:result <- $r4
	@DEBUG_VALUE: i <- [DW_OP_plus_uconst 40] [$sp+0]
	@DEBUG_VALUE: minPenalty <- [DW_OP_plus_uconst 44] [$sp+0]
	@DEBUG_VALUE: qrcodegen_encodeSegmentsAdvanced:version <- [DW_OP_plus_uconst 44] [$sp+0]
	@DEBUG_VALUE: qrcodegen_encodeSegmentsAdvanced:segs <- [DW_OP_plus_uconst 36] [$sp+0]
	@DEBUG_VALUE: qrcodegen_encodeSegmentsAdvanced:ecl <- [DW_OP_plus_uconst 52] [$sp+0]
	@DEBUG_VALUE: qrcodegen_encodeSegmentsAdvanced:maxVersion <- [DW_OP_plus_uconst 128] [$sp+0]
	@DEBUG_VALUE: qrcodegen_encodeSegmentsAdvanced:tempBuffer <- [DW_OP_plus_uconst 140] [$sp+0]
	@DEBUG_VALUE: qrcodegen_encodeSegmentsAdvanced:qrcode <- [DW_OP_plus_uconst 144] [$sp+0]
	.loc	2 0 2                           @ ../GUILib/src/extra/libs/qrcode/qrcodegen.c:0:2
	mov.w	r8, #0
	mov.w	r10, #0
.Ltmp401:
	.p2align	2
.LBB1_148:                              @   Parent Loop BB1_118 Depth=1
                                        @ =>  This Loop Header: Depth=2
                                        @       Child Loop BB1_149 Depth 3
	@DEBUG_VALUE: qrcodegen_encodeSegmentsAdvanced:mask <- [DW_OP_plus_uconst 32] [$sp+0]
	@DEBUG_VALUE: getPenaltyScore:qrcode <- $r11
	@DEBUG_VALUE: getPenaltyScore:qrsize <- $r9
	@DEBUG_VALUE: getPenaltyScore:result <- $r4
	@DEBUG_VALUE: i <- [DW_OP_plus_uconst 40] [$sp+0]
	@DEBUG_VALUE: minPenalty <- [DW_OP_plus_uconst 44] [$sp+0]
	@DEBUG_VALUE: qrcodegen_encodeSegmentsAdvanced:version <- [DW_OP_plus_uconst 44] [$sp+0]
	@DEBUG_VALUE: qrcodegen_encodeSegmentsAdvanced:segs <- [DW_OP_plus_uconst 36] [$sp+0]
	@DEBUG_VALUE: qrcodegen_encodeSegmentsAdvanced:ecl <- [DW_OP_plus_uconst 52] [$sp+0]
	@DEBUG_VALUE: qrcodegen_encodeSegmentsAdvanced:maxVersion <- [DW_OP_plus_uconst 128] [$sp+0]
	@DEBUG_VALUE: qrcodegen_encodeSegmentsAdvanced:tempBuffer <- [DW_OP_plus_uconst 140] [$sp+0]
	@DEBUG_VALUE: qrcodegen_encodeSegmentsAdvanced:qrcode <- [DW_OP_plus_uconst 144] [$sp+0]
	@DEBUG_VALUE: getPenaltyScore:result <- $r4
	@DEBUG_VALUE: x <- $r10
	movs	r7, #0
	movs	r5, #0
	movs	r6, #0
	@DEBUG_VALUE: y <- 0
.Ltmp402:
	.loc	2 663 17 is_stmt 1              @ ../GUILib/src/extra/libs/qrcode/qrcodegen.c:663:17
	str.w	r8, [sp, #63]
	str.w	r8, [sp, #60]
.Ltmp403:
	@DEBUG_VALUE: color <- undef
	@DEBUG_VALUE: runY <- 0
	.p2align	2
.LBB1_149:                              @   Parent Loop BB1_118 Depth=1
                                        @     Parent Loop BB1_148 Depth=2
                                        @ =>    This Inner Loop Header: Depth=3
	@DEBUG_VALUE: qrcodegen_encodeSegmentsAdvanced:mask <- [DW_OP_plus_uconst 32] [$sp+0]
	@DEBUG_VALUE: getPenaltyScore:qrcode <- $r11
	@DEBUG_VALUE: x <- $r10
	@DEBUG_VALUE: getPenaltyScore:qrsize <- $r9
	@DEBUG_VALUE: getPenaltyScore:result <- $r4
	@DEBUG_VALUE: i <- [DW_OP_plus_uconst 40] [$sp+0]
