	.text
	.syntax unified
	.eabi_attribute	67, "2.09"	@ Tag_conformance
	.cpu	cortex-m4
	.eabi_attribute	6, 13	@ Tag_CPU_arch
	.eabi_attribute	7, 77	@ Tag_CPU_arch_profile
	.eabi_attribute	8, 0	@ Tag_ARM_ISA_use
	.eabi_attribute	9, 2	@ Tag_THUMB_ISA_use
	.fpu	fpv4-sp-d16
	.eabi_attribute	27, 1	@ Tag_ABI_HardFP_use
	.eabi_attribute	36, 1	@ Tag_FP_HP_extension
	.eabi_attribute	34, 1	@ Tag_CPU_unaligned_access
	.eabi_attribute	17, 1	@ Tag_ABI_PCS_GOT_use
	.eabi_attribute	20, 2	@ Tag_ABI_FP_denormal
	.eabi_attribute	21, 0	@ Tag_ABI_FP_exceptions
	.eabi_attribute	23, 1	@ Tag_ABI_FP_number_model
	.eabi_attribute	24, 1	@ Tag_ABI_align_needed
	.eabi_attribute	25, 1	@ Tag_ABI_align_preserved
	.eabi_attribute	28, 1	@ Tag_ABI_VFP_args
	.eabi_attribute	38, 1	@ Tag_ABI_FP_16bit_format
	.eabi_attribute	18, 2	@ Tag_ABI_PCS_wchar_t
	.eabi_attribute	26, 1	@ Tag_ABI_enum_size
	.eabi_attribute	14, 0	@ Tag_ABI_PCS_R9_use
	.file	"sdram.c"
	.file	1 "D:\\Keil MDK\\ARM\\ARMCLANG\\Bin\\..\\include" "stdint.h"
	.file	2 "C:\\Users\\Hyacincher\\Desktop\\HyTelectrl\\Code\\Project" "../Library/CMSIS/stm32f429xx.h"
	.file	3 "C:\\Users\\Hyacincher\\Desktop\\HyTelectrl\\Code\\Project" "../Library/STM32F4xx_HAL_Driver/Inc\\stm32f4xx_hal_sdram.h"
	.file	4 "C:\\Users\\Hyacincher\\Desktop\\HyTelectrl\\Code\\Project" "../Library/STM32F4xx_HAL_Driver/Inc/stm32f4xx_ll_fmc.h"
	.file	5 "C:\\Users\\Hyacincher\\Desktop\\HyTelectrl\\Code\\Project" "../Library/STM32F4xx_HAL_Driver/Inc/stm32f4xx_hal_def.h"
	.file	6 "C:\\Users\\Hyacincher\\Desktop\\HyTelectrl\\Code\\Project" "../Library/STM32F4xx_HAL_Driver/Inc\\stm32f4xx_hal_dma.h"
	.file	7 "C:\\Users\\Hyacincher\\Desktop\\HyTelectrl\\Code\\Project" "../Driver/sdram.c"
	.file	8 "C:\\Users\\Hyacincher\\Desktop\\HyTelectrl\\Code\\Project" "../User\\includes.h"
	.section	.text.SDRAM_Init,"ax",%progbits
	.hidden	SDRAM_Init                      @ -- Begin function SDRAM_Init
	.globl	SDRAM_Init
	.p2align	2
	.type	SDRAM_Init,%function
	.code	16                              @ @SDRAM_Init
	.thumb_func
SDRAM_Init:
.Lfunc_begin0:
	.loc	7 7 0                           @ ../Driver/sdram.c:7:0
	.fnstart
	.cfi_sections .debug_frame
	.cfi_startproc
@ %bb.0:
	.save	{r7, lr}
	push	{r7, lr}
	.cfi_def_cfa_offset 8
	.cfi_offset lr, -4
	.cfi_offset r7, -8
	.pad	#32
	sub	sp, #32
	.cfi_def_cfa_offset 40
.Ltmp0:
	.loc	7 10 27 prologue_end            @ ../Driver/sdram.c:10:27
	movw	r0, :lower16:SDRAM_Handler
	movt	r0, :upper16:SDRAM_Handler
	str	r0, [sp]                        @ 4-byte Spill
	movw	r1, #320
	movt	r1, #40960
	str	r1, [r0]
	movs	r1, #0
	.loc	7 11 30                         @ ../Driver/sdram.c:11:30
	str	r1, [r0, #4]
	movs	r2, #1
	.loc	7 12 40                         @ ../Driver/sdram.c:12:40
	str	r2, [r0, #8]
	movs	r2, #8
	.loc	7 13 37                         @ ../Driver/sdram.c:13:37
	str	r2, [r0, #12]
	movs	r3, #16
	.loc	7 14 39                         @ ../Driver/sdram.c:14:39
	str	r3, [r0, #16]
	movs	r3, #64
	.loc	7 15 42                         @ ../Driver/sdram.c:15:42
	str	r3, [r0, #20]
	mov.w	r3, #384
	.loc	7 16 34                         @ ../Driver/sdram.c:16:34
	str	r3, [r0, #24]
	.loc	7 17 39                         @ ../Driver/sdram.c:17:39
	str	r1, [r0, #28]
	mov.w	r1, #2048
	.loc	7 18 37                         @ ../Driver/sdram.c:18:37
	str	r1, [r0, #32]
	mov.w	r1, #4096
	.loc	7 19 33                         @ ../Driver/sdram.c:19:33
	str	r1, [r0, #36]
	mov.w	r1, #8192
	.loc	7 20 37                         @ ../Driver/sdram.c:20:37
	str	r1, [r0, #40]
	movs	r1, #2
	.loc	7 22 35                         @ ../Driver/sdram.c:22:35
	str	r1, [sp, #4]
	.loc	7 23 38                         @ ../Driver/sdram.c:23:38
	str	r2, [sp, #8]
	movs	r2, #6
	.loc	7 24 33                         @ ../Driver/sdram.c:24:33
	str	r2, [sp, #12]
	.loc	7 25 31                         @ ../Driver/sdram.c:25:31
	str	r2, [sp, #16]
	.loc	7 26 35                         @ ../Driver/sdram.c:26:35
	str	r1, [sp, #20]
	.loc	7 27 25                         @ ../Driver/sdram.c:27:25
	str	r1, [sp, #24]
	.loc	7 28 26                         @ ../Driver/sdram.c:28:26
	str	r1, [sp, #28]
	add	r1, sp, #4
	.loc	7 29 5                          @ ../Driver/sdram.c:29:5
	bl	HAL_SDRAM_Init
                                        @ kill: def $r1 killed $r0
	.loc	7 31 5                          @ ../Driver/sdram.c:31:5
	ldr	r0, [sp]                        @ 4-byte Reload
	bl	SDRAM_Initialization_Sequence
	.loc	7 33 1                          @ ../Driver/sdram.c:33:1
	add	sp, #32
	pop	{r7, pc}
.Ltmp1:
.Lfunc_end0:
	.size	SDRAM_Init, .Lfunc_end0-SDRAM_Init
	.cfi_endproc
	.cantunwind
	.fnend
                                        @ -- End function
	.section	.text.SDRAM_Initialization_Sequence,"ax",%progbits
	.hidden	SDRAM_Initialization_Sequence   @ -- Begin function SDRAM_Initialization_Sequence
	.globl	SDRAM_Initialization_Sequence
	.p2align	2
	.type	SDRAM_Initialization_Sequence,%function
	.code	16                              @ @SDRAM_Initialization_Sequence
	.thumb_func
SDRAM_Initialization_Sequence:
.Lfunc_begin1:
	.loc	7 36 0                          @ ../Driver/sdram.c:36:0
	.fnstart
	.cfi_startproc
@ %bb.0:
	.save	{r7, lr}
	push	{r7, lr}
	.cfi_def_cfa_offset 8
	.cfi_offset lr, -4
	.cfi_offset r7, -8
	.pad	#24
	sub	sp, #24
	.cfi_def_cfa_offset 32
	str	r0, [sp, #20]
	movs	r3, #0
.Ltmp2:
	.loc	7 37 12 prologue_end            @ ../Driver/sdram.c:37:12
	str	r3, [sp, #12]                   @ 4-byte Spill
	str	r3, [sp, #16]
	movs	r2, #1
	.loc	7 39 5                          @ ../Driver/sdram.c:39:5
	str	r2, [sp, #8]                    @ 4-byte Spill
	mov	r0, r3
	mov	r1, r2
	bl	SDRAM_Send_Cmd
	movs	r0, #2
	.loc	7 40 5                          @ ../Driver/sdram.c:40:5
	str	r0, [sp, #4]                    @ 4-byte Spill
	bl	HAL_Delay
	ldr	r1, [sp, #4]                    @ 4-byte Reload
	ldr	r3, [sp, #12]                   @ 4-byte Reload
	ldr	r2, [sp, #8]                    @ 4-byte Reload
	.loc	7 41 5                          @ ../Driver/sdram.c:41:5
	mov	r0, r3
	bl	SDRAM_Send_Cmd
	ldr	r3, [sp, #12]                   @ 4-byte Reload
	movs	r1, #3
	movs	r2, #8
	.loc	7 42 5                          @ ../Driver/sdram.c:42:5
	mov	r0, r3
	bl	SDRAM_Send_Cmd
	ldr	r2, [sp, #8]                    @ 4-byte Reload
                                        @ kill: def $r1 killed $r0
	ldr	r0, [sp, #12]                   @ 4-byte Reload
	mov.w	r1, #560
	.loc	7 46 8                          @ ../Driver/sdram.c:46:8
	str	r1, [sp, #16]
	.loc	7 51 48                         @ ../Driver/sdram.c:51:48
	ldrh.w	r3, [sp, #16]
	movs	r1, #4
	.loc	7 51 5 is_stmt 0                @ ../Driver/sdram.c:51:5
	bl	SDRAM_Send_Cmd
	.loc	7 57 2 is_stmt 1                @ ../Driver/sdram.c:57:2
	movw	r0, :lower16:SDRAM_Handler
	movt	r0, :upper16:SDRAM_Handler
	movw	r1, #683
	bl	HAL_SDRAM_ProgramRefreshRate
	.loc	7 59 1                          @ ../Driver/sdram.c:59:1
	add	sp, #24
	pop	{r7, pc}
.Ltmp3:
.Lfunc_end1:
	.size	SDRAM_Initialization_Sequence, .Lfunc_end1-SDRAM_Initialization_Sequence
	.cfi_endproc
	.cantunwind
	.fnend
                                        @ -- End function
	.section	.text.SDRAM_Send_Cmd,"ax",%progbits
	.hidden	SDRAM_Send_Cmd                  @ -- Begin function SDRAM_Send_Cmd
	.globl	SDRAM_Send_Cmd
	.p2align	2
	.type	SDRAM_Send_Cmd,%function
	.code	16                              @ @SDRAM_Send_Cmd
	.thumb_func
SDRAM_Send_Cmd:
.Lfunc_begin2:
	.loc	7 103 0                         @ ../Driver/sdram.c:103:0
	.fnstart
	.cfi_startproc
@ %bb.0:
	.save	{r7, lr}
	push	{r7, lr}
	.cfi_def_cfa_offset 8
	.cfi_offset lr, -4
	.cfi_offset r7, -8
	.pad	#32
	sub	sp, #32
	.cfi_def_cfa_offset 40
                                        @ kill: def $r12 killed $r3
                                        @ kill: def $r12 killed $r2
                                        @ kill: def $r12 killed $r1
                                        @ kill: def $r12 killed $r0
	strb.w	r0, [sp, #30]
	strb.w	r1, [sp, #29]
	strb.w	r2, [sp, #28]
	strh.w	r3, [sp, #26]
	movs	r0, #0
.Ltmp4:
	.loc	7 104 12 prologue_end           @ ../Driver/sdram.c:104:12
	str	r0, [sp, #20]
.Ltmp5:
	.loc	7 107 8                         @ ../Driver/sdram.c:107:8
	ldrb.w	r0, [sp, #30]
.Ltmp6:
	.loc	7 107 8 is_stmt 0               @ ../Driver/sdram.c:107:8
	cbnz	r0, .LBB2_2
	b	.LBB2_1
.LBB2_1:
	.loc	7 0 8                           @ ../Driver/sdram.c:0:8
	movs	r0, #16
.Ltmp7:
	.loc	7 107 29                        @ ../Driver/sdram.c:107:29
	str	r0, [sp, #20]
	.loc	7 107 18                        @ ../Driver/sdram.c:107:18
	b	.LBB2_5
.LBB2_2:
.Ltmp8:
	.loc	7 108 13 is_stmt 1              @ ../Driver/sdram.c:108:13
	ldrb.w	r0, [sp, #30]
.Ltmp9:
	.loc	7 108 13 is_stmt 0              @ ../Driver/sdram.c:108:13
	cmp	r0, #1
	bne	.LBB2_4
	b	.LBB2_3
.LBB2_3:
	.loc	7 0 13                          @ ../Driver/sdram.c:0:13
	movs	r0, #8
.Ltmp10:
	.loc	7 108 34                        @ ../Driver/sdram.c:108:34
	str	r0, [sp, #20]
	.loc	7 108 23                        @ ../Driver/sdram.c:108:23
	b	.LBB2_4
.Ltmp11:
.LBB2_4:
	.loc	7 0 23                          @ ../Driver/sdram.c:0:23
	b	.LBB2_5
.LBB2_5:
	.loc	7 109 25 is_stmt 1              @ ../Driver/sdram.c:109:25
	ldrb.w	r0, [sp, #29]
	.loc	7 109 24 is_stmt 0              @ ../Driver/sdram.c:109:24
	str	r0, [sp, #4]
	.loc	7 110 27 is_stmt 1              @ ../Driver/sdram.c:110:27
	ldr	r0, [sp, #20]
	.loc	7 110 26 is_stmt 0              @ ../Driver/sdram.c:110:26
	str	r0, [sp, #8]
	.loc	7 111 31 is_stmt 1              @ ../Driver/sdram.c:111:31
	ldrb.w	r0, [sp, #28]
	.loc	7 111 30 is_stmt 0              @ ../Driver/sdram.c:111:30
	str	r0, [sp, #12]
	.loc	7 112 36 is_stmt 1              @ ../Driver/sdram.c:112:36
	ldrh.w	r0, [sp, #26]
	.loc	7 112 35 is_stmt 0              @ ../Driver/sdram.c:112:35
	str	r0, [sp, #16]
.Ltmp12:
	.loc	7 113 8 is_stmt 1               @ ../Driver/sdram.c:113:8
	movw	r0, :lower16:SDRAM_Handler
	movt	r0, :upper16:SDRAM_Handler
	add	r1, sp, #4
	mov.w	r2, #4096
	bl	HAL_SDRAM_SendCommand
.Ltmp13:
	.loc	7 113 8 is_stmt 0               @ ../Driver/sdram.c:113:8
	cbnz	r0, .LBB2_7
	b	.LBB2_6
.LBB2_6:
	.loc	7 0 8                           @ ../Driver/sdram.c:0:8
	movs	r0, #0
.Ltmp14:
	.loc	7 115 9 is_stmt 1               @ ../Driver/sdram.c:115:9
	strb.w	r0, [sp, #31]
	b	.LBB2_8
.Ltmp15:
.LBB2_7:
	.loc	7 0 9 is_stmt 0                 @ ../Driver/sdram.c:0:9
	movs	r0, #1
	.loc	7 117 10 is_stmt 1              @ ../Driver/sdram.c:117:10
	strb.w	r0, [sp, #31]
	b	.LBB2_8
.Ltmp16:
.LBB2_8:
	.loc	7 118 1                         @ ../Driver/sdram.c:118:1
	ldrb.w	r0, [sp, #31]
	add	sp, #32
	pop	{r7, pc}
.Ltmp17:
.Lfunc_end2:
	.size	SDRAM_Send_Cmd, .Lfunc_end2-SDRAM_Send_Cmd
	.cfi_endproc
	.cantunwind
	.fnend
                                        @ -- End function
	.section	.text.HAL_SDRAM_MspInit,"ax",%progbits
	.hidden	HAL_SDRAM_MspInit               @ -- Begin function HAL_SDRAM_MspInit
	.globl	HAL_SDRAM_MspInit
	.p2align	2
	.type	HAL_SDRAM_MspInit,%function
	.code	16                              @ @HAL_SDRAM_MspInit
	.thumb_func
HAL_SDRAM_MspInit:
.Lfunc_begin3:
	.loc	7 65 0                          @ ../Driver/sdram.c:65:0
	.fnstart
	.cfi_startproc
@ %bb.0:
	.save	{r7, lr}
	push	{r7, lr}
	.cfi_def_cfa_offset 8
	.cfi_offset lr, -4
	.cfi_offset r7, -8
	.pad	#56
	sub	sp, #56
	.cfi_def_cfa_offset 64
	str	r0, [sp, #52]
.Ltmp18:
	.loc	7 68 5 prologue_end             @ ../Driver/sdram.c:68:5
	b	.LBB3_1
.LBB3_1:
	.loc	7 0 5 is_stmt 0                 @ ../Driver/sdram.c:0:5
	movs	r0, #0
.Ltmp19:
	.loc	7 68 5                          @ ../Driver/sdram.c:68:5
	str	r0, [sp, #28]
	movw	r0, #14392
	movt	r0, #16386
	ldr	r1, [r0]
	orr	r1, r1, #1
	str	r1, [r0]
	ldr	r0, [r0]
	and	r0, r0, #1
	str	r0, [sp, #28]
	ldr	r0, [sp, #28]
	b	.LBB3_2
.Ltmp20:
.LBB3_2:
	.loc	7 69 5 is_stmt 1                @ ../Driver/sdram.c:69:5
	b	.LBB3_3
.LBB3_3:
	.loc	7 0 5 is_stmt 0                 @ ../Driver/sdram.c:0:5
	movs	r0, #0
.Ltmp21:
	.loc	7 69 5                          @ ../Driver/sdram.c:69:5
	str	r0, [sp, #24]
	movw	r0, #14384
	movt	r0, #16386
	ldr	r1, [r0]
	orr	r1, r1, #4
	str	r1, [r0]
	ldr	r0, [r0]
	and	r0, r0, #4
	str	r0, [sp, #24]
	ldr	r0, [sp, #24]
	b	.LBB3_4
.Ltmp22:
.LBB3_4:
	.loc	7 70 5 is_stmt 1                @ ../Driver/sdram.c:70:5
	b	.LBB3_5
.LBB3_5:
	.loc	7 0 5 is_stmt 0                 @ ../Driver/sdram.c:0:5
	movs	r0, #0
.Ltmp23:
	.loc	7 70 5                          @ ../Driver/sdram.c:70:5
	str	r0, [sp, #20]
	movw	r0, #14384
	movt	r0, #16386
	ldr	r1, [r0]
	orr	r1, r1, #8
	str	r1, [r0]
	ldr	r0, [r0]
	and	r0, r0, #8
	str	r0, [sp, #20]
	ldr	r0, [sp, #20]
	b	.LBB3_6
.Ltmp24:
.LBB3_6:
	.loc	7 71 5 is_stmt 1                @ ../Driver/sdram.c:71:5
	b	.LBB3_7
.LBB3_7:
	.loc	7 0 5 is_stmt 0                 @ ../Driver/sdram.c:0:5
	movs	r0, #0
.Ltmp25:
	.loc	7 71 5                          @ ../Driver/sdram.c:71:5
	str	r0, [sp, #16]
	movw	r0, #14384
	movt	r0, #16386
	ldr	r1, [r0]
	orr	r1, r1, #16
	str	r1, [r0]
	ldr	r0, [r0]
	and	r0, r0, #16
	str	r0, [sp, #16]
	ldr	r0, [sp, #16]
	b	.LBB3_8
.Ltmp26:
.LBB3_8:
	.loc	7 72 5 is_stmt 1                @ ../Driver/sdram.c:72:5
	b	.LBB3_9
.LBB3_9:
	.loc	7 0 5 is_stmt 0                 @ ../Driver/sdram.c:0:5
	movs	r0, #0
.Ltmp27:
	.loc	7 72 5                          @ ../Driver/sdram.c:72:5
	str	r0, [sp, #12]
	movw	r0, #14384
	movt	r0, #16386
	ldr	r1, [r0]
	orr	r1, r1, #32
	str	r1, [r0]
	ldr	r0, [r0]
	and	r0, r0, #32
	str	r0, [sp, #12]
	ldr	r0, [sp, #12]
	b	.LBB3_10
.Ltmp28:
.LBB3_10:
	.loc	7 73 5 is_stmt 1                @ ../Driver/sdram.c:73:5
	b	.LBB3_11
.LBB3_11:
	.loc	7 0 5 is_stmt 0                 @ ../Driver/sdram.c:0:5
	movs	r0, #0
.Ltmp29:
	.loc	7 73 5                          @ ../Driver/sdram.c:73:5
	str	r0, [sp, #8]
	movw	r0, #14384
	movt	r0, #16386
	ldr	r1, [r0]
	orr	r1, r1, #64
	str	r1, [r0]
	ldr	r0, [r0]
	and	r0, r0, #64
	str	r0, [sp, #8]
	ldr	r0, [sp, #8]
	b	.LBB3_12
.Ltmp30:
.LBB3_12:
	.loc	7 0 5                           @ ../Driver/sdram.c:0:5
	movs	r0, #13
	.loc	7 75 21 is_stmt 1               @ ../Driver/sdram.c:75:21
	str	r0, [sp, #32]
	movs	r0, #2
	.loc	7 76 22                         @ ../Driver/sdram.c:76:22
	str	r0, [sp, #36]
	movs	r0, #1
	.loc	7 77 22                         @ ../Driver/sdram.c:77:22
	str	r0, [sp, #40]
	movs	r0, #3
	.loc	7 78 23                         @ ../Driver/sdram.c:78:23
	str	r0, [sp, #44]
	movs	r0, #12
	.loc	7 79 27                         @ ../Driver/sdram.c:79:27
	str	r0, [sp, #48]
	movw	r0, #2048
	movt	r0, #16386
	add	r1, sp, #32
	.loc	7 80 5                          @ ../Driver/sdram.c:80:5
	str	r1, [sp, #4]                    @ 4-byte Spill
	bl	HAL_GPIO_Init
	ldr	r1, [sp, #4]                    @ 4-byte Reload
	movw	r0, #50947
	.loc	7 82 21                         @ ../Driver/sdram.c:82:21
	str	r0, [sp, #32]
	movw	r0, #3072
	movt	r0, #16386
	.loc	7 83 5                          @ ../Driver/sdram.c:83:5
	bl	HAL_GPIO_Init
	ldr	r1, [sp, #4]                    @ 4-byte Reload
	movw	r0, #65411
	.loc	7 85 21                         @ ../Driver/sdram.c:85:21
	str	r0, [sp, #32]
	movw	r0, #4096
	movt	r0, #16386
	.loc	7 86 5                          @ ../Driver/sdram.c:86:5
	bl	HAL_GPIO_Init
	ldr	r1, [sp, #4]                    @ 4-byte Reload
	movw	r0, #63551
	.loc	7 88 21                         @ ../Driver/sdram.c:88:21
	str	r0, [sp, #32]
	movw	r0, #5120
	movt	r0, #16386
	.loc	7 89 5                          @ ../Driver/sdram.c:89:5
	bl	HAL_GPIO_Init
	ldr	r1, [sp, #4]                    @ 4-byte Reload
	movw	r0, #33079
	.loc	7 91 21                         @ ../Driver/sdram.c:91:21
	str	r0, [sp, #32]
	movw	r0, #6144
	movt	r0, #16386
	.loc	7 92 5                          @ ../Driver/sdram.c:92:5
	bl	HAL_GPIO_Init
	.loc	7 93 1                          @ ../Driver/sdram.c:93:1
	add	sp, #56
	pop	{r7, pc}
.Ltmp31:
.Lfunc_end3:
	.size	HAL_SDRAM_MspInit, .Lfunc_end3-HAL_SDRAM_MspInit
	.cfi_endproc
	.cantunwind
	.fnend
                                        @ -- End function
	.section	.text.FMC_SDRAM_WriteBuffer,"ax",%progbits
	.hidden	FMC_SDRAM_WriteBuffer           @ -- Begin function FMC_SDRAM_WriteBuffer
	.globl	FMC_SDRAM_WriteBuffer
	.p2align	2
	.type	FMC_SDRAM_WriteBuffer,%function
	.code	16                              @ @FMC_SDRAM_WriteBuffer
	.thumb_func
FMC_SDRAM_WriteBuffer:
.Lfunc_begin4:
	.loc	7 125 0                         @ ../Driver/sdram.c:125:0
	.fnstart
	.cfi_startproc
@ %bb.0:
	.pad	#12
	sub	sp, #12
	.cfi_def_cfa_offset 12
	str	r0, [sp, #8]
	str	r1, [sp, #4]
	str	r2, [sp]
.Ltmp32:
	.loc	7 126 2 prologue_end            @ ../Driver/sdram.c:126:2
	b	.LBB4_1
.LBB4_1:                                @ =>This Inner Loop Header: Depth=1
.Ltmp33:
	.loc	7 126 7 is_stmt 0               @ ../Driver/sdram.c:126:7
	ldr	r0, [sp]
.Ltmp34:
	.loc	7 126 2                         @ ../Driver/sdram.c:126:2
	cbz	r0, .LBB4_4
	b	.LBB4_2
.LBB4_2:                                @   in Loop: Header=BB4_1 Depth=1
.Ltmp35:
	.loc	7 128 51 is_stmt 1              @ ../Driver/sdram.c:128:51
	ldr	r0, [sp, #8]
	.loc	7 128 50 is_stmt 0              @ ../Driver/sdram.c:128:50
	ldrb	r0, [r0]
	.loc	7 128 39                        @ ../Driver/sdram.c:128:39
	ldr	r1, [sp, #4]
	mov.w	r2, #-1073741824
	.loc	7 128 49                        @ ../Driver/sdram.c:128:49
	strb	r0, [r1, r2]
	.loc	7 129 12 is_stmt 1              @ ../Driver/sdram.c:129:12
	ldr	r0, [sp, #4]
	adds	r0, #1
	str	r0, [sp, #4]
	.loc	7 130 10                        @ ../Driver/sdram.c:130:10
	ldr	r0, [sp, #8]
	adds	r0, #1
	str	r0, [sp, #8]
	.loc	7 131 2                         @ ../Driver/sdram.c:131:2
	b	.LBB4_3
.Ltmp36:
.LBB4_3:                                @   in Loop: Header=BB4_1 Depth=1
	.loc	7 126 13                        @ ../Driver/sdram.c:126:13
	ldr	r0, [sp]
	subs	r0, #1
	str	r0, [sp]
	.loc	7 126 2 is_stmt 0               @ ../Driver/sdram.c:126:2
	b	.LBB4_1
.Ltmp37:
.LBB4_4:
	.loc	7 132 1 is_stmt 1               @ ../Driver/sdram.c:132:1
	add	sp, #12
	bx	lr
.Ltmp38:
.Lfunc_end4:
	.size	FMC_SDRAM_WriteBuffer, .Lfunc_end4-FMC_SDRAM_WriteBuffer
	.cfi_endproc
	.cantunwind
	.fnend
                                        @ -- End function
	.section	.text.FMC_SDRAM_ReadBuffer,"ax",%progbits
	.hidden	FMC_SDRAM_ReadBuffer            @ -- Begin function FMC_SDRAM_ReadBuffer
	.globl	FMC_SDRAM_ReadBuffer
	.p2align	2
	.type	FMC_SDRAM_ReadBuffer,%function
	.code	16                              @ @FMC_SDRAM_ReadBuffer
	.thumb_func
FMC_SDRAM_ReadBuffer:
.Lfunc_begin5:
	.loc	7 139 0                         @ ../Driver/sdram.c:139:0
	.fnstart
	.cfi_startproc
@ %bb.0:
	.pad	#12
	sub	sp, #12
	.cfi_def_cfa_offset 12
	str	r0, [sp, #8]
	str	r1, [sp, #4]
	str	r2, [sp]
.Ltmp39:
	.loc	7 140 2 prologue_end            @ ../Driver/sdram.c:140:2
	b	.LBB5_1
.LBB5_1:                                @ =>This Inner Loop Header: Depth=1
.Ltmp40:
	.loc	7 140 7 is_stmt 0               @ ../Driver/sdram.c:140:7
	ldr	r0, [sp]
.Ltmp41:
	.loc	7 140 2                         @ ../Driver/sdram.c:140:2
	cbz	r0, .LBB5_4
	b	.LBB5_2
.LBB5_2:                                @   in Loop: Header=BB5_1 Depth=1
.Ltmp42:
	.loc	7 142 50 is_stmt 1              @ ../Driver/sdram.c:142:50
	ldr	r0, [sp, #4]
	mov.w	r1, #-1073741824
	.loc	7 142 14 is_stmt 0              @ ../Driver/sdram.c:142:14
	ldrb	r0, [r0, r1]
	.loc	7 142 11                        @ ../Driver/sdram.c:142:11
	ldr	r1, [sp, #8]
	adds	r2, r1, #1
	str	r2, [sp, #8]
	.loc	7 142 13                        @ ../Driver/sdram.c:142:13
	strb	r0, [r1]
	.loc	7 143 11 is_stmt 1              @ ../Driver/sdram.c:143:11
	ldr	r0, [sp, #4]
	adds	r0, #1
	str	r0, [sp, #4]
	.loc	7 144 2                         @ ../Driver/sdram.c:144:2
	b	.LBB5_3
.Ltmp43:
.LBB5_3:                                @   in Loop: Header=BB5_1 Depth=1
	.loc	7 140 13                        @ ../Driver/sdram.c:140:13
	ldr	r0, [sp]
	subs	r0, #1
	str	r0, [sp]
	.loc	7 140 2 is_stmt 0               @ ../Driver/sdram.c:140:2
	b	.LBB5_1
.Ltmp44:
.LBB5_4:
	.loc	7 145 1 is_stmt 1               @ ../Driver/sdram.c:145:1
	add	sp, #12
	bx	lr
.Ltmp45:
.Lfunc_end5:
	.size	FMC_SDRAM_ReadBuffer, .Lfunc_end5-FMC_SDRAM_ReadBuffer
	.cfi_endproc
	.cantunwind
	.fnend
                                        @ -- End function
	.hidden	SDRAM_Handler                   @ @SDRAM_Handler
	.type	SDRAM_Handler,%object
	.section	.bss.SDRAM_Handler,"aw",%nobits
	.globl	SDRAM_Handler
	.p2align	2
SDRAM_Handler:
	.zero	52
	.size	SDRAM_Handler, 52

	.file	9 "C:\\Users\\Hyacincher\\Desktop\\HyTelectrl\\Code\\Project" "../Library/STM32F4xx_HAL_Driver/Inc\\stm32f4xx_hal_gpio.h"
	.section	".note.GNU-stack","",%progbits
	.eabi_attribute	30, 6	@ Tag_ABI_optimization_goals
	.ARM_attribute	16, 1	@ Tag_AV_eba