	.text
	.syntax unified
	.eabi_attribute	67, "2.09"	@ Tag_conformance
	.cpu	cortex-m4
	.eabi_attribute	6, 13	@ Tag_CPU_arch
	.eabi_attribute	7, 77	@ Tag_CPU_arch_profile
	.eabi_attribute	8, 0	@ Tag_ARM_ISA_use
	.eabi_attribute	9, 2	@ Tag_THUMB_ISA_use
	.fpu	fpv4-sp-d16
	.eabi_attribute	27, 1	@ Tag_ABI_HardFP_use
	.eabi_attribute	36, 1	@ Tag_FP_HP_extension
	.eabi_attribute	34, 1	@ Tag_CPU_unaligned_access
	.eabi_attribute	17, 1	@ Tag_ABI_PCS_GOT_use
	.eabi_attribute	20, 2	@ Tag_ABI_FP_denormal
	.eabi_attribute	21, 0	@ Tag_ABI_FP_exceptions
	.eabi_attribute	23, 1	@ Tag_ABI_FP_number_model
	.eabi_attribute	24, 1	@ Tag_ABI_align_needed
	.eabi_attribute	25, 1	@ Tag_ABI_align_preserved
	.eabi_attribute	28, 1	@ Tag_ABI_VFP_args
	.eabi_attribute	38, 1	@ Tag_ABI_FP_16bit_format
	.eabi_attribute	18, 2	@ Tag_ABI_PCS_wchar_t
	.eabi_attribute	26, 1	@ Tag_ABI_enum_size
	.eabi_attribute	14, 0	@ Tag_ABI_PCS_R9_use
	.file	"stm32f4xx_hal_ltdc.c"
	.file	1 "C:\\Users\\Hyacincher\\Desktop\\HyTelectrl\\Code\\Project" "../Library/STM32F4xx_HAL_Driver/Inc/stm32f4xx_hal_def.h"
	.file	2 "C:\\Users\\Hyacincher\\Desktop\\HyTelectrl\\Code\\Project" "../Library/STM32F4xx_HAL_Driver/Inc\\stm32f4xx_hal_ltdc.h"
	.file	3 "D:\\Keil MDK\\ARM\\ARMCLANG\\Bin\\..\\include" "stdint.h"
	.file	4 "C:\\Users\\Hyacincher\\Desktop\\HyTelectrl\\Code\\Project" "../Library/CMSIS/stm32f429xx.h"
	.section	.text.HAL_LTDC_Init,"ax",%progbits
	.hidden	HAL_LTDC_Init                   @ -- Begin function HAL_LTDC_Init
	.globl	HAL_LTDC_Init
	.p2align	1
	.type	HAL_LTDC_Init,%function
	.code	16                              @ @HAL_LTDC_Init
	.thumb_func
HAL_LTDC_Init:
.Lfunc_begin0:
	.file	5 "C:\\Users\\Hyacincher\\Desktop\\HyTelectrl\\Code\\Project" "../Library/STM32F4xx_HAL_Driver/Src/stm32f4xx_hal_ltdc.c"
	.loc	5 213 0                         @ ../Library/STM32F4xx_HAL_Driver/Src/stm32f4xx_hal_ltdc.c:213:0
	.fnstart
	.cfi_sections .debug_frame
	.cfi_startproc
@ %bb.0:
	@DEBUG_VALUE: HAL_LTDC_Init:hltdc <- $r0
	@DEBUG_VALUE: HAL_LTDC_Init:hltdc <- $r0
	.loc	5 217 7 prologue_end            @ ../Library/STM32F4xx_HAL_Driver/Src/stm32f4xx_hal_ltdc.c:217:7
	cmp	r0, #0
	beq	.LBB0_4
.Ltmp0:
@ %bb.1:
	@DEBUG_VALUE: HAL_LTDC_Init:hltdc <- $r0
	.save	{r4, lr}
	push	{r4, lr}
	.cfi_def_cfa_offset 8
	.cfi_offset lr, -4
	.cfi_offset r4, -8
	mov	r4, r0
.Ltmp1:
	@DEBUG_VALUE: HAL_LTDC_Init:hltdc <- $r4
	.loc	5 256 14                        @ ../Library/STM32F4xx_HAL_Driver/Src/stm32f4xx_hal_ltdc.c:256:14
	ldrb.w	r0, [r0, #161]
.Ltmp2:
	.loc	5 256 7 is_stmt 0               @ ../Library/STM32F4xx_HAL_Driver/Src/stm32f4xx_hal_ltdc.c:256:7
	cbnz	r0, .LBB0_3
.Ltmp3:
@ %bb.2:
	@DEBUG_VALUE: HAL_LTDC_Init:hltdc <- $r4
	.loc	5 0 7                           @ ../Library/STM32F4xx_HAL_Driver/Src/stm32f4xx_hal_ltdc.c:0:7
	movs	r0, #0
.Ltmp4:
	.loc	5 259 17 is_stmt 1              @ ../Library/STM32F4xx_HAL_Driver/Src/stm32f4xx_hal_ltdc.c:259:17
	strb.w	r0, [r4, #160]
	.loc	5 261 5                         @ ../Library/STM32F4xx_HAL_Driver/Src/stm32f4xx_hal_ltdc.c:261:5
	mov	r0, r4
	bl	HAL_LTDC_MspInit
.Ltmp5:
.LBB0_3:
	@DEBUG_VALUE: HAL_LTDC_Init:hltdc <- $r4
	.loc	5 0 5 is_stmt 0                 @ ../Library/STM32F4xx_HAL_Driver/Src/stm32f4xx_hal_ltdc.c:0:5
	movs	r0, #2
	.loc	5 266 16 is_stmt 1              @ ../Library/STM32F4xx_HAL_Driver/Src/stm32f4xx_hal_ltdc.c:266:16
	strb.w	r0, [r4, #161]
	.loc	5 269 10                        @ ../Library/STM32F4xx_HAL_Driver/Src/stm32f4xx_hal_ltdc.c:269:10
	ldrd	r0, r12, [r4]
	.loc	5 270 75                        @ ../Library/STM32F4xx_HAL_Driver/Src/stm32f4xx_hal_ltdc.c:270:75
	ldrd	r2, r3, [r4, #8]
	.loc	5 269 24                        @ ../Library/STM32F4xx_HAL_Driver/Src/stm32f4xx_hal_ltdc.c:269:24
	ldr	r1, [r0, #24]
	bic	r1, r1, #-268435456
	str	r1, [r0, #24]
	.loc	5 270 61                        @ ../Library/STM32F4xx_HAL_Driver/Src/stm32f4xx_hal_ltdc.c:270:61
	orr.w	r1, r2, r12
	.loc	5 271 75                        @ ../Library/STM32F4xx_HAL_Driver/Src/stm32f4xx_hal_ltdc.c:271:75
	ldr	r2, [r4, #16]
	.loc	5 270 86                        @ ../Library/STM32F4xx_HAL_Driver/Src/stm32f4xx_hal_ltdc.c:270:86
	orrs	r1, r3
	.loc	5 270 24 is_stmt 0              @ ../Library/STM32F4xx_HAL_Driver/Src/stm32f4xx_hal_ltdc.c:270:24
	ldr	r3, [r0, #24]
	.loc	5 271 61 is_stmt 1              @ ../Library/STM32F4xx_HAL_Driver/Src/stm32f4xx_hal_ltdc.c:271:61
	orrs	r1, r2
	.loc	5 270 24                        @ ../Library/STM32F4xx_HAL_Driver/Src/stm32f4xx_hal_ltdc.c:270:24
	orrs	r1, r3
	str	r1, [r0, #24]
	.loc	5 274 25                        @ ../Library/STM32F4xx_HAL_Driver/Src/stm32f4xx_hal_ltdc.c:274:25
	ldr	r1, [r0, #8]
	movw	r12, #63488
	movt	r12, #61440
	and.w	r1, r1, r12
	str	r1, [r0, #8]
.Ltmp6:
	@DEBUG_VALUE: HAL_LTDC_Init:tmp <- undef
	.loc	5 275 22                        @ ../Library/STM32F4xx_HAL_Driver/Src/stm32f4xx_hal_ltdc.c:275:22
	ldrd	r1, r3, [r4, #20]
	.loc	5 276 25                        @ ../Library/STM32F4xx_HAL_Driver/Src/stm32f4xx_hal_ltdc.c:276:25
	ldr	r2, [r0, #8]
	.loc	5 276 33 is_stmt 0              @ ../Library/STM32F4xx_HAL_Driver/Src/stm32f4xx_hal_ltdc.c:276:33
	orr.w	r1, r3, r1, lsl #16
	.loc	5 276 25                        @ ../Library/STM32F4xx_HAL_Driver/Src/stm32f4xx_hal_ltdc.c:276:25
	orrs	r1, r2
	str	r1, [r0, #8]
	.loc	5 279 25 is_stmt 1              @ ../Library/STM32F4xx_HAL_Driver/Src/stm32f4xx_hal_ltdc.c:279:25
	ldr	r1, [r0, #12]
	and.w	r1, r1, r12
	str	r1, [r0, #12]
	@DEBUG_VALUE: HAL_LTDC_Init:tmp <- undef
	.loc	5 280 22                        @ ../Library/STM32F4xx_HAL_Driver/Src/stm32f4xx_hal_ltdc.c:280:22
	ldrd	r1, r2, [r4, #28]
	.loc	5 281 25                        @ ../Library/STM32F4xx_HAL_Driver/Src/stm32f4xx_hal_ltdc.c:281:25
	ldr	r3, [r0, #12]
	.loc	5 281 33 is_stmt 0              @ ../Library/STM32F4xx_HAL_Driver/Src/stm32f4xx_hal_ltdc.c:281:33
	orr.w	r1, r2, r1, lsl #16
	.loc	5 281 25                        @ ../Library/STM32F4xx_HAL_Driver/Src/stm32f4xx_hal_ltdc.c:281:25
	orrs	r1, r3
	str	r1, [r0, #12]
	.loc	5 284 25 is_stmt 1              @ ../Library/STM32F4xx_HAL_Driver/Src/stm32f4xx_hal_ltdc.c:284:25
	ldr	r1, [r0, #16]
	and.w	r1, r1, r12
	str	r1, [r0, #16]
	@DEBUG_VALUE: HAL_LTDC_Init:tmp <- undef
	.loc	5 285 22                        @ ../Library/STM32F4xx_HAL_Driver/Src/stm32f4xx_hal_ltdc.c:285:22
	ldrd	r1, r2, [r4, #36]
	.loc	5 286 25                        @ ../Library/STM32F4xx_HAL_Driver/Src/stm32f4xx_hal_ltdc.c:286:25
	ldr	r3, [r0, #16]
	.loc	5 286 33 is_stmt 0              @ ../Library/STM32F4xx_HAL_Driver/Src/stm32f4xx_hal_ltdc.c:286:33
	orr.w	r1, r2, r1, lsl #16
	.loc	5 286 25                        @ ../Library/STM32F4xx_HAL_Driver/Src/stm32f4xx_hal_ltdc.c:286:25
	orrs	r1, r3
	str	r1, [r0, #16]
	.loc	5 289 25 is_stmt 1              @ ../Library/STM32F4xx_HAL_Driver/Src/stm32f4xx_hal_ltdc.c:289:25
	ldr	r1, [r0, #20]
	and.w	r1, r1, r12
	str	r1, [r0, #20]
	@DEBUG_VALUE: HAL_LTDC_Init:tmp <- undef
	.loc	5 290 22                        @ ../Library/STM32F4xx_HAL_Driver/Src/stm32f4xx_hal_ltdc.c:290:22
	ldrd	r1, r2, [r4, #44]
	.loc	5 291 25                        @ ../Library/STM32F4xx_HAL_Driver/Src/stm32f4xx_hal_ltdc.c:291:25
	ldr	r3, [r0, #20]
	.loc	5 291 33 is_stmt 0              @ ../Library/STM32F4xx_HAL_Driver/Src/stm32f4xx_hal_ltdc.c:291:33
	orr.w	r1, r2, r1, lsl #16
	.loc	5 291 25                        @ ../Library/STM32F4xx_HAL_Driver/Src/stm32f4xx_hal_ltdc.c:291:25
	orrs	r1, r3
	str	r1, [r0, #20]
	.loc	5 294 43 is_stmt 1              @ ../Library/STM32F4xx_HAL_Driver/Src/stm32f4xx_hal_ltdc.c:294:43
	ldrb.w	r1, [r4, #53]
	@DEBUG_VALUE: HAL_LTDC_Init:tmp <- undef
	.loc	5 295 44                        @ ../Library/STM32F4xx_HAL_Driver/Src/stm32f4xx_hal_ltdc.c:295:44
	ldrb.w	r2, [r4, #54]
	.loc	5 296 25                        @ ../Library/STM32F4xx_HAL_Driver/Src/stm32f4xx_hal_ltdc.c:296:25
	ldr	r3, [r0, #44]
	.loc	5 295 49                        @ ../Library/STM32F4xx_HAL_Driver/Src/stm32f4xx_hal_ltdc.c:295:49
	lsls	r2, r2, #16
.Ltmp7:
	@DEBUG_VALUE: HAL_LTDC_Init:tmp1 <- $r2
	.loc	5 296 25                        @ ../Library/STM32F4xx_HAL_Driver/Src/stm32f4xx_hal_ltdc.c:296:25
	and	r3, r3, #-16777216
	str	r3, [r0, #44]
	.loc	5 297 34                        @ ../Library/STM32F4xx_HAL_Driver/Src/stm32f4xx_hal_ltdc.c:297:34
	orr.w	r1, r2, r1, lsl #8
	.loc	5 297 64 is_stmt 0              @ ../Library/STM32F4xx_HAL_Driver/Src/stm32f4xx_hal_ltdc.c:297:64
	ldrb.w	r2, [r4, #52]
.Ltmp8:
	.loc	5 297 25                        @ ../Library/STM32F4xx_HAL_Driver/Src/stm32f4xx_hal_ltdc.c:297:25
	ldr	r3, [r0, #44]
	.loc	5 297 40                        @ ../Library/STM32F4xx_HAL_Driver/Src/stm32f4xx_hal_ltdc.c:297:40
	add	r1, r2
	.loc	5 297 25                        @ ../Library/STM32F4xx_HAL_Driver/Src/stm32f4xx_hal_ltdc.c:297:25
	orrs	r1, r3
	str	r1, [r0, #44]
	.loc	5 300 3 is_stmt 1               @ ../Library/STM32F4xx_HAL_Driver/Src/stm32f4xx_hal_ltdc.c:300:3
	ldr	r1, [r0, #52]
	orr	r1, r1, #6
	str	r1, [r0, #52]
	.loc	5 303 3                         @ ../Library/STM32F4xx_HAL_Driver/Src/stm32f4xx_hal_ltdc.c:303:3
	ldr	r1, [r0, #24]
	orr	r1, r1, #1
	str	r1, [r0, #24]
	movs	r0, #0
	movs	r1, #1
	.loc	5 306 20                        @ ../Library/STM32F4xx_HAL_Driver/Src/stm32f4xx_hal_ltdc.c:306:20
	str.w	r0, [r4, #164]
	.loc	5 309 16                        @ ../Library/STM32F4xx_HAL_Driver/Src/stm32f4xx_hal_ltdc.c:309:16
	strb.w	r1, [r4, #161]
	pop	{r4, pc}
.Ltmp9:
.LBB0_4:
	@DEBUG_VALUE: HAL_LTDC_Init:hltdc <- $r0
	.loc	5 0 16 is_stmt 0                @ ../Library/STM32F4xx_HAL_Driver/Src/stm32f4xx_hal_ltdc.c:0:16
	movs	r0, #1
.Ltmp10:
	@DEBUG_VALUE: HAL_LTDC_Init:hltdc <- [DW_OP_LLVM_entry_value 1] $r0
	.loc	5 312 1 is_stmt 1               @ ../Library/STM32F4xx_HAL_Driver/Src/stm32f4xx_hal_ltdc.c:312:1
	bx	lr
.Ltmp11:
.Lfunc_end0:
	.size	HAL_LTDC_Init, .Lfunc_end0-HAL_LTDC_Init
	.cfi_endproc
	.cantunwind
	.fnend
                                        @ -- End function
	.section	.text.HAL_LTDC_MspInit,"ax",%progbits
	.hidden	HAL_LTDC_MspInit                @ -- Begin function HAL_LTDC_MspInit
	.weak	HAL_LTDC_MspInit
	.p2align	1
	.type	HAL_LTDC_MspInit,%function
	.code	16                              @ @HAL_LTDC_MspInit
	.thumb_func
HAL_LTDC_MspInit:
.Lfunc_begin1:
	.loc	5 354 0                         @ ../Library/STM32F4xx_HAL_Driver/Src/stm32f4xx_hal_ltdc.c:354:0
	.fnstart
	.cfi_startproc
@ %bb.0:
	@DEBUG_VALUE: HAL_LTDC_MspInit:hltdc <- $r0
	.loc	5 361 1 prologue_end            @ ../Library/STM32F4xx_HAL_Driver/Src/stm32f4xx_hal_ltdc.c:361:1
	bx	lr
.Ltmp12:
.Lfunc_end1:
	.size	HAL_LTDC_MspInit, .Lfunc_end1-HAL_LTDC_MspInit
	.cfi_endproc
	.cantunwind
	.fnend
                                        @ -- End function
	.section	.text.HAL_LTDC_DeInit,"ax",%progbits
	.hidden	HAL_LTDC_DeInit                 @ -- Begin function HAL_LTDC_DeInit
	.globl	HAL_LTDC_DeInit
	.p2align	1
	.type	HAL_LTDC_DeInit,%function
	.code	16                              @ @HAL_LTDC_DeInit
	.thumb_func
HAL_LTDC_DeInit:
.Lfunc_begin2:
	.loc	5 322 0                         @ ../Library/STM32F4xx_HAL_Driver/Src/stm32f4xx_hal_ltdc.c:322:0
	.fnstart
	.cfi_startproc
@ %bb.0:
	@DEBUG_VALUE: HAL_LTDC_DeInit:hltdc <- $r0
	.save	{r4, lr}
	push	{r4, lr}
	.cfi_def_cfa_offset 8
	.cfi_offset lr, -4
	.cfi_offset r4, -8
	mov	r4, r0
.Ltmp13:
	@DEBUG_VALUE: HAL_LTDC_DeInit:hltdc <- $r4
	.loc	5 332 3 prologue_end            @ ../Library/STM32F4xx_HAL_Driver/Src/stm32f4xx_hal_ltdc.c:332:3
	bl	HAL_LTDC_MspDeInit
.Ltmp14:
	.loc	5 0 3 is_stmt 0                 @ ../Library/STM32F4xx_HAL_Driver/Src/stm32f4xx_hal_ltdc.c:0:3
	movs	r1, #0
	.loc	5 344 3 is_stmt 1               @ ../Library/STM32F4xx_HAL_Driver/Src/stm32f4xx_hal_ltdc.c:344:3
	movs	r0, #0
	.loc	5 336 20                        @ ../Library/STM32F4xx_HAL_Driver/Src/stm32f4xx_hal_ltdc.c:336:20
	str.w	r1, [r4, #164]
	.loc	5 339 16                        @ ../Library/STM32F4xx_HAL_Driver/Src/stm32f4xx_hal_ltdc.c:339:16
	strb.w	r1, [r4, #161]
.Ltmp15:
	.loc	5 342 3                         @ ../Library/STM32F4xx_HAL_Driver/Src/stm32f4xx_hal_ltdc.c:342:3
	strb.w	r1, [r4, #160]
.Ltmp16:
	.loc	5 344 3                         @ ../Library/STM32F4xx_HAL_Driver/Src/stm32f4xx_hal_ltdc.c:344:3
	pop	{r4, pc}
.Ltmp17:
.Lfunc_end2:
	.size	HAL_LTDC_DeInit, .Lfunc_end2-HAL_LTDC_DeInit
	.cfi_endproc
	.cantunwind
	.fnend
                                        @ -- End function
	.section	.text.HAL_LTDC_MspDeInit,"ax",%progbits
	.hidden	HAL_LTDC_MspDeInit              @ -- Begin function HAL_LTDC_MspDeInit
	.weak	HAL_LTDC_MspDeInit
	.p2align	1
	.type	HAL_LTDC_MspDeInit,%function
	.code	16                              @ @HAL_LTDC_MspDeInit
	.thumb_func
HAL_LTDC_MspDeInit:
.Lfunc_begin3:
	.loc	5 370 0                         @ ../Library/STM32F4xx_HAL_Driver/Src/stm32f4xx_hal_ltdc.c:370:0
	.fnstart
	.cfi_startproc
@ %bb.0:
	@DEBUG_VALUE: HAL_LTDC_MspDeInit:hltdc <- $r0
	.loc	5 377 1 prologue_end            @ ../Library/STM32F4xx_HAL_Driver/Src/stm32f4xx_hal_ltdc.c:377:1
	bx	lr
.Ltmp18:
.Lfunc_end3:
	.size	HAL_LTDC_MspDeInit, .Lfunc_end3-HAL_LTDC_MspDeInit
	.cfi_endproc
	.cantunwind
	.fnend
                                        @ -- End function
	.section	.text.HAL_LTDC_IRQHandler,"ax",%progbits
	.hidden	HAL_LTDC_IRQHandler             @ -- Begin function HAL_LTDC_IRQHandler
	.globl	HAL_LTDC_IRQHandler
	.p2align	1
	.type	HAL_LTDC_IRQHandler,%function
	.code	16                              @ @HAL_LTDC_IRQHandler
	.thumb_func
HAL_LTDC_IRQHandler:
.Lfunc_begin4:
	.loc	5 585 0                         @ ../Library/STM32F4xx_HAL_Driver/Src/stm32f4xx_hal_ltdc.c:585:0
	.fnstart
	.cfi_startproc
@ %bb.0:
	@DEBUG_VALUE: HAL_LTDC_IRQHandler:hltdc <- $r0
	.save	{r4, r5, r7, lr}
	push	{r4, r5, r7, lr}
	.cfi_def_cfa_offset 16
	.cfi_offset lr, -4
	.cfi_offset r7, -8
	.cfi_offset r5, -12
	.cfi_offset r4, -16
	mov	r4, r0
.Ltmp19:
	@DEBUG_VALUE: HAL_LTDC_IRQHandler:hltdc <- $r4
	.loc	5 586 24 prologue_end           @ ../Library/STM32F4xx_HAL_Driver/Src/stm32f4xx_hal_ltdc.c:586:24
	ldr	r0, [r0]
	ldr	r1, [r0, #56]
.Ltmp20:
	@DEBUG_VALUE: HAL_LTDC_IRQHandler:isrflags <- $r1
	.loc	5 587 24                        @ ../Library/STM32F4xx_HAL_Driver/Src/stm32f4xx_hal_ltdc.c:587:24
	ldr	r2, [r0, #52]
.Ltmp21:
	@DEBUG_VALUE: HAL_LTDC_IRQHandler:itsources <- $r2
	.loc	5 590 44                        @ ../Library/STM32F4xx_HAL_Driver/Src/stm32f4xx_hal_ltdc.c:590:44
	and.w	r5, r2, r1
	lsls	r1, r5, #29
.Ltmp22:
	bpl	.LBB4_2
.Ltmp23:
@ %bb.1:
	@DEBUG_VALUE: HAL_LTDC_IRQHandler:hltdc <- $r4
	@DEBUG_VALUE: HAL_LTDC_IRQHandler:itsources <- $r2
	.loc	5 593 5                         @ ../Library/STM32F4xx_HAL_Driver/Src/stm32f4xx_hal_ltdc.c:593:5
	ldr	r1, [r0, #52]
	bic	r1, r1, #4
	str	r1, [r0, #52]
	movs	r1, #4
	.loc	5 596 5                         @ ../Library/STM32F4xx_HAL_Driver/Src/stm32f4xx_hal_ltdc.c:596:5
	str	r1, [r0, #60]
	.loc	5 599 22                        @ ../Library/STM32F4xx_HAL_Driver/Src/stm32f4xx_hal_ltdc.c:599:22
	ldr.w	r0, [r4, #164]
	orr	r0, r0, #1
	str.w	r0, [r4, #164]
	movs	r0, #0
	.loc	5 602 18                        @ ../Library/STM32F4xx_HAL_Driver/Src/stm32f4xx_hal_ltdc.c:602:18
	strb.w	r1, [r4, #161]
.Ltmp24:
	.loc	5 605 5                         @ ../Library/STM32F4xx_HAL_Driver/Src/stm32f4xx_hal_ltdc.c:605:5
	strb.w	r0, [r4, #160]
.Ltmp25:
	.loc	5 613 5                         @ ../Library/STM32F4xx_HAL_Driver/Src/stm32f4xx_hal_ltdc.c:613:5
	mov	r0, r4
	bl	HAL_LTDC_ErrorCallback
.Ltmp26:
.LBB4_2:
	@DEBUG_VALUE: HAL_LTDC_IRQHandler:hltdc <- $r4
	.loc	5 618 42                        @ ../Library/STM32F4xx_HAL_Driver/Src/stm32f4xx_hal_ltdc.c:618:42
	lsls	r0, r5, #30
	bpl	.LBB4_4
.Ltmp27:
@ %bb.3:
	@DEBUG_VALUE: HAL_LTDC_IRQHandler:hltdc <- $r4
	.loc	5 621 5                         @ ../Library/STM32F4xx_HAL_Driver/Src/stm32f4xx_hal_ltdc.c:621:5
	ldr	r0, [r4]
	ldr	r1, [r0, #52]
	bic	r1, r1, #2
	str	r1, [r0, #52]
	movs	r1, #2
	.loc	5 624 5                         @ ../Library/STM32F4xx_HAL_Driver/Src/stm32f4xx_hal_ltdc.c:624:5
	str	r1, [r0, #60]
	.loc	5 627 22                        @ ../Library/STM32F4xx_HAL_Driver/Src/stm32f4xx_hal_ltdc.c:627:22
	ldr.w	r0, [r4, #164]
	orr	r0, r0, #2
	str.w	r0, [r4, #164]
	movs	r0, #4
	.loc	5 630 18                        @ ../Library/STM32F4xx_HAL_Driver/Src/stm32f4xx_hal_ltdc.c:630:18
	strb.w	r0, [r4, #161]
	movs	r0, #0
.Ltmp28:
	.loc	5 633 5                         @ ../Library/STM32F4xx_HAL_Driver/Src/stm32f4xx_hal_ltdc.c:633:5
	strb.w	r0, [r4, #160]
.Ltmp29:
	.loc	5 641 5                         @ ../Library/STM32F4xx_HAL_Driver/Src/stm32f4xx_hal_ltdc.c:641:5
	mov	r0, r4
	bl	HAL_LTDC_ErrorCallback
.Ltmp30:
.LBB4_4:
	@DEBUG_VALUE: HAL_LTDC_IRQHandler:hltdc <- $r4
	.loc	5 646 41                        @ ../Library/STM32F4xx_HAL_Driver/Src/stm32f4xx_hal_ltdc.c:646:41
	lsls	r0, r5, #31
	beq	.LBB4_6
.Ltmp31:
@ %bb.5:
	@DEBUG_VALUE: HAL_LTDC_IRQHandler:hltdc <- $r4
	.loc	5 649 5                         @ ../Library/STM32F4xx_HAL_Driver/Src/stm32f4xx_hal_ltdc.c:649:5
	ldr	r0, [r4]
	ldr	r1, [r0, #52]
	bic	r1, r1, #1
	str	r1, [r0, #52]
	movs	r1, #1
	.loc	5 652 5                         @ ../Library/STM32F4xx_HAL_Driver/Src/stm32f4xx_hal_ltdc.c:652:5
	str	r1, [r0, #60]
	movs	r0, #0
	.loc	5 655 18                        @ ../Library/STM32F4xx_HAL_Driver/Src/stm32f4xx_hal_ltdc.c:655:18
	strb.w	r1, [r4, #161]
.Ltmp32:
	.loc	5 658 5                         @ ../Library/STM32F4xx_HAL_Driver/Src/stm32f4xx_hal_ltdc.c:658:5
	strb.w	r0, [r4, #160]
.Ltmp33:
	.loc	5 666 5                         @ ../Library/STM32F4xx_HAL_Driver/Src/stm32f4xx_hal_ltdc.c:666:5
	mov	r0, r4
	bl	HAL_LTDC_LineEventCallback
.Ltmp34:
.LBB4_6:
	@DEBUG_VALUE: HAL_LTDC_IRQHandler:hltdc <- $r4
	.loc	5 671 42                        @ ../Library/STM32F4xx_HAL_Driver/Src/stm32f4xx_hal_ltdc.c:671:42
	lsls	r0, r5, #28
.Ltmp35:
	.loc	5 694 1                         @ ../Library/STM32F4xx_HAL_Driver/Src/stm32f4xx_hal_ltdc.c:694:1
	it	pl
	poppl	{r4, r5, r7, pc}
.Ltmp36:
.LBB4_7:
	.loc	5 674 5                         @ ../Library/STM32F4xx_HAL_Driver/Src/stm32f4xx_hal_ltdc.c:674:5
	ldr	r0, [r4]
	ldr	r1, [r0, #52]
	bic	r1, r1, #8
	str	r1, [r0, #52]
	movs	r1, #8
	.loc	5 677 5                         @ ../Library/STM32F4xx_HAL_Driver/Src/stm32f4xx_hal_ltdc.c:677:5
	str	r1, [r0, #60]
	movs	r0, #1
	movs	r1, #0
	.loc	5 680 18                        @ ../Library/STM32F4xx_HAL_Driver/Src/stm32f4xx_hal_ltdc.c:680:18
	strb.w	r0, [r4, #161]
	.loc	5 691 5                         @ ../Library/STM32F4xx_HAL_Driver/Src/stm32f4xx_hal_ltdc.c:691:5
	mov	r0, r4
.Ltmp37:
	.loc	5 683 5                         @ ../Library/STM32F4xx_HAL_Driver/Src/stm32f4xx_hal_ltdc.c:683:5
	strb.w	r1, [r4, #160]
.Ltmp38:
	.loc	5 691 5                         @ ../Library/STM32F4xx_HAL_Driver/Src/stm32f4xx_hal_ltdc.c:691:5
	pop.w	{r4, r5, r7, lr}
.Ltmp39:
	b	HAL_LTDC_ReloadEventCallback
.Ltmp40:
.Lfunc_end4:
	.size	HAL_LTDC_IRQHandler, .Lfunc_end4-HAL_LTDC_IRQHandler
	.cfi_endproc
	.cantunwind
	.fnend
                                        @ -- End function
	.section	.text.HAL_LTDC_ErrorCallback,"ax",%progbits
	.hidden	HAL_LTDC_ErrorCallback          @ -- Begin function HAL_LTDC_ErrorCallback
	.weak	HAL_LTDC_ErrorCallback
	.p2align	1
	.type	HAL_LTDC_ErrorCallback,%function
	.code	16                              @ @HAL_LTDC_ErrorCallback
	.thumb_func
HAL_LTDC_ErrorCallback:
.Lfunc_begin5:
	.loc	5 703 0                         @ ../Library/STM32F4xx_HAL_Driver/Src/stm32f4xx_hal_ltdc.c:703:0
	.fnstart
	.cfi_startproc
@ %bb.0:
	@DEBUG_VALUE: HAL_LTDC_ErrorCallback:hltdc <- $r0
	.loc	5 710 1 prologue_end            @ ../Library/STM32F4xx_HAL_Driver/Src/stm32f4xx_hal_ltdc.c:710:1
	bx	lr
.Ltmp41:
.Lfunc_end5:
	.size	HAL_LTDC_ErrorCallback, .Lfunc_end5-HAL_LTDC_ErrorCallback
	.cfi_endproc
	.cantunwind
	.fnend
                                        @ -- End function
	.section	.text.HAL_LTDC_LineEventCallback,"ax",%progbits
	.hidden	HAL_LTDC_LineEventCallback      @ -- Begin function HAL_LTDC_LineEventCallback
	.weak	HAL_LTDC_LineEventCallback
	.p2align	1
	.type	HAL_LTDC_LineEventCallback,%function
	.code	16                              @ @HAL_LTDC_LineEventCallback
	.thumb_func
HAL_LTDC_LineEventCallback:
.Lfunc_begin6:
	.loc	5 719 0                         @ ../Library/STM32F4xx_HAL_Driver/Src/stm32f4xx_hal_ltdc.c:719:0
	.fnstart
	.cfi_startproc
@ %bb.0:
	@DEBUG_VALUE: HAL_LTDC_LineEventCallback:hltdc <- $r0
	.loc	5 726 1 prologue_end            @ ../Library/STM32F4xx_HAL_Driver/Src/stm32f4xx_hal_ltdc.c:726:1
	bx	lr
.Ltmp42:
.Lfunc_end6:
	.size	HAL_LTDC_LineEventCallback, .Lfunc_end6-HAL_LTDC_LineEventCallback
	.cfi_endproc
	.cantunwind
	.fnend
                                        @ -- End function
	.section	.text.HAL_LTDC_ReloadEventCallback,"ax",%progbits
	.hidden	HAL_LTDC_ReloadEventCallback    @ -- Begin function HAL_LTDC_ReloadEventCallback
	.weak	HAL_LTDC_ReloadEventCallback
	.p2align	1
	.type	HAL_LTDC_ReloadEventCallback,%function
	.code	16                              @ @HAL_LTDC_ReloadEventCallback
	.thumb_func
HAL_LTDC_ReloadEventCallback:
.Lfunc_begin7:
	.loc	5 735 0                         @ ../Library/STM32F4xx_HAL_Driver/Src/stm32f4xx_hal_ltdc.c:735:0
	.fnstart
	.cfi_startproc
@ %bb.0:
	@DEBUG_VALUE: HAL_LTDC_ReloadEventCallback:hltdc <- $r0
	.loc	5 742 1 prologue_end            @ ../Library/STM32F4xx_HAL_Driver/Src/stm32f4xx_hal_ltdc.c:742:1
	bx	lr
.Ltmp43:
.Lfunc_end7:
	.size	HAL_LTDC_ReloadEventCallback, .Lfunc_end7-HAL_LTDC_ReloadEventCallback
	.cfi_endproc
	.cantunwind
	.fnend
                                        @ -- End function
	.section	.text.HAL_LTDC_ConfigLayer,"ax",%progbits
	.hidden	HAL_LTDC_ConfigLayer            @ -- Begin function HAL_LTDC_ConfigLayer
	.globl	HAL_LTDC_ConfigLayer
	.p2align	1
	.type	HAL_LTDC_ConfigLayer,%function
	.code	16                              @ @HAL_LTDC_ConfigLayer
	.thumb_func
HAL_LTDC_ConfigLayer:
.Lfunc_begin8:
	.loc	5 785 0                         @ ../Library/STM32F4xx_HAL_Driver/Src/stm32f4xx_hal_ltdc.c:785:0
	.fnstart
	.cfi_startproc
@ %bb.0:
	@DEBUG_VALUE: HAL_LTDC_ConfigLayer:hltdc <- $r0
	@DEBUG_VALUE: HAL_LTDC_ConfigLayer:pLayerCfg <- $r1
	@DEBUG_VALUE: HAL_LTDC_ConfigLayer:LayerIdx <- $r2
	.save	{r4, r5, r6, r7, r8, lr}
	push.w	{r4, r5, r6, r7, r8, lr}
	.cfi_def_cfa_offset 24
	.cfi_offset lr, -4
	.cfi_offset r8, -8
	.cfi_offset r7, -12
	.cfi_offset r6, -16
	.cfi_offset r5, -20
	.cfi_offset r4, -24
	mov	r4, r0
	@DEBUG_VALUE: HAL_LTDC_ConfigLayer:LayerIdx <- $r2
.Ltmp44:
	@DEBUG_VALUE: HAL_LTDC_ConfigLayer:hltdc <- $r4
	.loc	5 801 3 prologue_end            @ ../Library/STM32F4xx_HAL_Driver/Src/stm32f4xx_hal_ltdc.c:801:3
	ldrb.w	r0, [r0, #160]
.Ltmp45:
	@DEBUG_VALUE: HAL_LTDC_ConfigLayer:pLayerCfg <- $r1
	.loc	5 801 3 is_stmt 0               @ ../Library/STM32F4xx_HAL_Driver/Src/stm32f4xx_hal_ltdc.c:801:3
	cmp	r0, #1
	mov.w	r0, #2
.Ltmp46:
	.loc	5 822 1 is_stmt 1               @ ../Library/STM32F4xx_HAL_Driver/Src/stm32f4xx_hal_ltdc.c:822:1
	it	eq
	popeq.w	{r4, r5, r6, r7, r8, pc}
.Ltmp47:
.LBB8_1:
	@DEBUG_VALUE: HAL_LTDC_ConfigLayer:LayerIdx <- $r2
	@DEBUG_VALUE: HAL_LTDC_ConfigLayer:pLayerCfg <- $r1
	.loc	5 0 1 is_stmt 0                 @ ../Library/STM32F4xx_HAL_Driver/Src/stm32f4xx_hal_ltdc.c:0:1
	mov.w	r8, #1
.Ltmp48:
	.loc	5 801 3 is_stmt 1               @ ../Library/STM32F4xx_HAL_Driver/Src/stm32f4xx_hal_ltdc.c:801:3
	strb.w	r8, [r4, #160]
.Ltmp49:
	.loc	5 804 16                        @ ../Library/STM32F4xx_HAL_Driver/Src/stm32f4xx_hal_ltdc.c:804:16
	strb.w	r0, [r4, #161]
	movs	r0, #52
	.loc	5 807 3                         @ ../Library/STM32F4xx_HAL_Driver/Src/stm32f4xx_hal_ltdc.c:807:3
	mla	r0, r2, r0, r4
	.loc	5 807 31 is_stmt 0              @ ../Library/STM32F4xx_HAL_Driver/Src/stm32f4xx_hal_ltdc.c:807:31
	ldrd	r12, lr, [r1]
	ldrd	r6, r7, [r1, #8]
	ldrd	r5, r3, [r1, #16]
	strd	r6, r7, [r0, #64]
	strd	r5, r3, [r0, #72]
	strd	r12, lr, [r0, #56]
	ldrd	r12, lr, [r1, #24]
	ldrd	r6, r5, [r1, #32]
	ldrd	r7, r3, [r1, #40]
	strd	r6, r5, [r0, #88]
	strd	r7, r3, [r0, #96]
	strd	r12, lr, [r0, #80]
	ldr	r3, [r1, #48]
	str	r3, [r0, #104]
	.loc	5 810 3 is_stmt 1               @ ../Library/STM32F4xx_HAL_Driver/Src/stm32f4xx_hal_ltdc.c:810:3
	mov	r0, r4
	bl	LTDC_SetConfig
.Ltmp50:
	@DEBUG_VALUE: HAL_LTDC_ConfigLayer:LayerIdx <- [DW_OP_LLVM_entry_value 1] $r2
	@DEBUG_VALUE: HAL_LTDC_ConfigLayer:pLayerCfg <- [DW_OP_LLVM_entry_value 1] $r1
	.loc	5 813 10                        @ ../Library/STM32F4xx_HAL_Driver/Src/stm32f4xx_hal_ltdc.c:813:10
	ldr	r0, [r4]
	.loc	5 813 25 is_stmt 0              @ ../Library/STM32F4xx_HAL_Driver/Src/stm32f4xx_hal_ltdc.c:813:25
	str.w	r8, [r0, #36]
	movs	r0, #0
	.loc	5 816 17 is_stmt 1              @ ../Library/STM32F4xx_HAL_Driver/Src/stm32f4xx_hal_ltdc.c:816:17
	strb.w	r8, [r4, #161]
.Ltmp51:
	.loc	5 819 3                         @ ../Library/STM32F4xx_HAL_Driver/Src/stm32f4xx_hal_ltdc.c:819:3
	strb.w	r0, [r4, #160]
.Ltmp52:
	.loc	5 822 1                         @ ../Library/STM32F4xx_HAL_Driver/Src/stm32f4xx_hal_ltdc.c:822:1
	pop.w	{r4, r5, r6, r7, r8, pc}
.Ltmp53:
.Lfunc_end8:
	.size	HAL_LTDC_ConfigLayer, .Lfunc_end8-HAL_LTDC_ConfigLayer
	.cfi_endproc
	.cantunwind
	.fnend
                                        @ -- End function
	.section	.text.LTDC_SetConfig,"ax",%progbits
	.p2align	1                               @ -- Begin function LTDC_SetConfig
	.type	LTDC_SetConfig,%function
	.code	16                              @ @LTDC_SetConfig
	.thumb_func
LTDC_SetConfig:
.Lfunc_begin9:
	.loc	5 2077 0                        @ ../Library/STM32F4xx_HAL_Driver/Src/stm32f4xx_hal_ltdc.c:2077:0
	.fnstart
	.cfi_startproc
@ %bb.0:
	@DEBUG_VALUE: LTDC_SetConfig:hltdc <- $r0
	@DEBUG_VALUE: LTDC_SetConfig:hltdc <- $r0
	@DEBUG_VALUE: LTDC_SetConfig:pLayerCfg <- $r1
	@DEBUG_VALUE: LTDC_SetConfig:pLayerCfg <- $r1
	@DEBUG_VALUE: LTDC_SetConfig:LayerIdx <- $r2
	@DEBUG_VALUE: LTDC_SetConfig:LayerIdx <- $r2
	.save	{r4, r5, r6, r7, lr}
	push	{r4, r5, r6, r7, lr}
	.cfi_def_cfa_offset 20
	.cfi_offset lr, -4
	.cfi_offset r7, -8
	.cfi_offset r6, -12
	.cfi_offset r5, -16
	.cfi_offset r4, -20
.Ltmp54:
	.loc	5 2083 42 prologue_end          @ ../Library/STM32F4xx_HAL_Driver/Src/stm32f4xx_hal_ltdc.c:2083:42
	ldr	r4, [r0]
	.loc	5 2085 53                       @ ../Library/STM32F4xx_HAL_Driver/Src/stm32f4xx_hal_ltdc.c:2085:53
	ldrd	r12, lr, [r1]
	.loc	5 2084 3                        @ ../Library/STM32F4xx_HAL_Driver/Src/stm32f4xx_hal_ltdc.c:2084:3
	add.w	r0, r4, r2, lsl #7
.Ltmp55:
	@DEBUG_VALUE: LTDC_SetConfig:hltdc <- [DW_OP_LLVM_entry_value 1] $r0
	.loc	5 2090 54                       @ ../Library/STM32F4xx_HAL_Driver/Src/stm32f4xx_hal_ltdc.c:2090:54
	ldr	r3, [r1, #8]
	.loc	5 2088 22                       @ ../Library/STM32F4xx_HAL_Driver/Src/stm32f4xx_hal_ltdc.c:2088:22
	ldr	r5, [r1, #12]
	.loc	5 2083 52                       @ ../Library/STM32F4xx_HAL_Driver/Src/stm32f4xx_hal_ltdc.c:2083:52
	ldr	r6, [r4, #12]
	.loc	5 2084 38                       @ ../Library/STM32F4xx_HAL_Driver/Src/stm32f4xx_hal_ltdc.c:2084:38
	ldr.w	r2, [r0, #136]
.Ltmp56:
	@DEBUG_VALUE: LTDC_SetConfig:LayerIdx <- [DW_OP_LLVM_entry_value 1] $r2
	.loc	5 0 38 is_stmt 0                @ ../Library/STM32F4xx_HAL_Driver/Src/stm32f4xx_hal_ltdc.c:0:38
	movs	r7, #0
	.loc	5 2084 38                       @ ../Library/STM32F4xx_HAL_Driver/Src/stm32f4xx_hal_ltdc.c:2084:38
	and	r2, r2, #61440
	str.w	r2, [r0, #136]
	.loc	5 2085 83 is_stmt 1             @ ../Library/STM32F4xx_HAL_Driver/Src/stm32f4xx_hal_ltdc.c:2085:83
	ldr	r2, [r4, #12]
	movt	r7, #4095
	.loc	5 2085 106 is_stmt 0            @ ../Library/STM32F4xx_HAL_Driver/Src/stm32f4xx_hal_ltdc.c:2085:106
	ubfx	r2, r2, #16, #12
	.loc	5 2083 84 is_stmt 1             @ ../Library/STM32F4xx_HAL_Driver/Src/stm32f4xx_hal_ltdc.c:2083:84
	ands	r6, r7
	.loc	5 2085 62                       @ ../Library/STM32F4xx_HAL_Driver/Src/stm32f4xx_hal_ltdc.c:2085:62
	add	r2, r12
	.loc	5 2083 84                       @ ../Library/STM32F4xx_HAL_Driver/Src/stm32f4xx_hal_ltdc.c:2083:84
	add.w	r6, r6, lr, lsl #16
.Ltmp57:
	@DEBUG_VALUE: LTDC_SetConfig:tmp <- $r6
	.loc	5 2085 114                      @ ../Library/STM32F4xx_HAL_Driver/Src/stm32f4xx_hal_ltdc.c:2085:114
	adds	r2, #1
	.loc	5 2085 120 is_stmt 0            @ ../Library/STM32F4xx_HAL_Driver/Src/stm32f4xx_hal_ltdc.c:2085:120
	orrs	r2, r6
	.loc	5 2085 38                       @ ../Library/STM32F4xx_HAL_Driver/Src/stm32f4xx_hal_ltdc.c:2085:38
	str.w	r2, [r0, #136]
	.loc	5 2088 51 is_stmt 1             @ ../Library/STM32F4xx_HAL_Driver/Src/stm32f4xx_hal_ltdc.c:2088:51
	ldr	r2, [r4, #12]
	.loc	5 2089 38                       @ ../Library/STM32F4xx_HAL_Driver/Src/stm32f4xx_hal_ltdc.c:2089:38
	ldr.w	r6, [r0, #140]
.Ltmp58:
	.loc	5 2088 56                       @ ../Library/STM32F4xx_HAL_Driver/Src/stm32f4xx_hal_ltdc.c:2088:56
	bfc	r2, #11, #21
	.loc	5 2089 38                       @ ../Library/STM32F4xx_HAL_Driver/Src/stm32f4xx_hal_ltdc.c:2089:38
	and	r6, r6, #61440
	str.w	r6, [r0, #140]
	.loc	5 2090 83                       @ ../Library/STM32F4xx_HAL_Driver/Src/stm32f4xx_hal_ltdc.c:2090:83
	ldr	r4, [r4, #12]
	.loc	5 2088 31                       @ ../Library/STM32F4xx_HAL_Driver/Src/stm32f4xx_hal_ltdc.c:2088:31
	add	r2, r5
.Ltmp59:
	@DEBUG_VALUE: LTDC_SetConfig:tmp <- undef
	.loc	5 2090 88                       @ ../Library/STM32F4xx_HAL_Driver/Src/stm32f4xx_hal_ltdc.c:2090:88
	bfc	r4, #11, #21
	.loc	5 2090 63 is_stmt 0             @ ../Library/STM32F4xx_HAL_Driver/Src/stm32f4xx_hal_ltdc.c:2090:63
	add	r3, r4
	.loc	5 2090 106                      @ ../Library/STM32F4xx_HAL_Driver/Src/stm32f4xx_hal_ltdc.c:2090:106
	adds	r3, #1
	.loc	5 2090 112                      @ ../Library/STM32F4xx_HAL_Driver/Src/stm32f4xx_hal_ltdc.c:2090:112
	orr.w	r2, r3, r2, lsl #16
	.loc	5 2090 39                       @ ../Library/STM32F4xx_HAL_Driver/Src/stm32f4xx_hal_ltdc.c:2090:39
	str.w	r2, [r0, #140]
	.loc	5 2093 37 is_stmt 1             @ ../Library/STM32F4xx_HAL_Driver/Src/stm32f4xx_hal_ltdc.c:2093:37
	ldr.w	r2, [r0, #148]
	bic	r2, r2, #7
	str.w	r2, [r0, #148]
	.loc	5 2094 51                       @ ../Library/STM32F4xx_HAL_Driver/Src/stm32f4xx_hal_ltdc.c:2094:51
	ldr	r3, [r1, #16]
	.loc	5 2094 37 is_stmt 0             @ ../Library/STM32F4xx_HAL_Driver/Src/stm32f4xx_hal_ltdc.c:2094:37
	str.w	r3, [r0, #148]
	.loc	5 2098 43 is_stmt 1             @ ../Library/STM32F4xx_HAL_Driver/Src/stm32f4xx_hal_ltdc.c:2098:43
	ldrb.w	r2, [r1, #50]
	.loc	5 2097 42                       @ ../Library/STM32F4xx_HAL_Driver/Src/stm32f4xx_hal_ltdc.c:2097:42
	ldrb.w	r4, [r1, #49]
	@DEBUG_VALUE: LTDC_SetConfig:tmp <- undef
	.loc	5 2099 22                       @ ../Library/STM32F4xx_HAL_Driver/Src/stm32f4xx_hal_ltdc.c:2099:22
	ldr	r5, [r1, #24]
.Ltmp60:
	@DEBUG_VALUE: LTDC_SetConfig:tmp2 <- undef
	.loc	5 2100 37                       @ ../Library/STM32F4xx_HAL_Driver/Src/stm32f4xx_hal_ltdc.c:2100:37
	ldr.w	r6, [r0, #156]
	movs	r6, #0
	.loc	5 2098 48                       @ ../Library/STM32F4xx_HAL_Driver/Src/stm32f4xx_hal_ltdc.c:2098:48
	lsls	r2, r2, #16
.Ltmp61:
	@DEBUG_VALUE: LTDC_SetConfig:tmp1 <- $r2
	.loc	5 2100 37                       @ ../Library/STM32F4xx_HAL_Driver/Src/stm32f4xx_hal_ltdc.c:2100:37
	str.w	r6, [r0, #156]
	.loc	5 2101 61                       @ ../Library/STM32F4xx_HAL_Driver/Src/stm32f4xx_hal_ltdc.c:2101:61
	ldrb.w	r7, [r1, #48]
	.loc	5 2101 66 is_stmt 0             @ ../Library/STM32F4xx_HAL_Driver/Src/stm32f4xx_hal_ltdc.c:2101:66
	orr.w	r2, r2, r4, lsl #8
.Ltmp62:
	.loc	5 2101 72                       @ ../Library/STM32F4xx_HAL_Driver/Src/stm32f4xx_hal_ltdc.c:2101:72
	orr.w	r2, r2, r5, lsl #24
	.loc	5 2101 79                       @ ../Library/STM32F4xx_HAL_Driver/Src/stm32f4xx_hal_ltdc.c:2101:79
	add	r2, r7
	.loc	5 2101 37                       @ ../Library/STM32F4xx_HAL_Driver/Src/stm32f4xx_hal_ltdc.c:2101:37
	str.w	r2, [r0, #156]
	.loc	5 2104 37 is_stmt 1             @ ../Library/STM32F4xx_HAL_Driver/Src/stm32f4xx_hal_ltdc.c:2104:37
	ldr.w	r2, [r0, #152]
	movw	r4, #1799
	bic	r2, r2, #255
	str.w	r2, [r0, #152]
	.loc	5 2105 51                       @ ../Library/STM32F4xx_HAL_Driver/Src/stm32f4xx_hal_ltdc.c:2105:51
	ldr	r2, [r1, #20]
	.loc	5 2115 7                        @ ../Library/STM32F4xx_HAL_Driver/Src/stm32f4xx_hal_ltdc.c:2115:7
	cmp	r3, #7
	.loc	5 2105 37                       @ ../Library/STM32F4xx_HAL_Driver/Src/stm32f4xx_hal_ltdc.c:2105:37
	str.w	r2, [r0, #152]
	.loc	5 2108 37                       @ ../Library/STM32F4xx_HAL_Driver/Src/stm32f4xx_hal_ltdc.c:2108:37
	ldr.w	r2, [r0, #160]
	bic.w	r2, r2, r4
	str.w	r2, [r0, #160]
	.loc	5 2109 51                       @ ../Library/STM32F4xx_HAL_Driver/Src/stm32f4xx_hal_ltdc.c:2109:51
	ldrd	r4, r5, [r1, #28]
	.loc	5 2084 3                        @ ../Library/STM32F4xx_HAL_Driver/Src/stm32f4xx_hal_ltdc.c:2084:3
	add.w	r2, r0, #132
	.loc	5 2109 67                       @ ../Library/STM32F4xx_HAL_Driver/Src/stm32f4xx_hal_ltdc.c:2109:67
	orr.w	r4, r4, r5
	.loc	5 2109 37 is_stmt 0             @ ../Library/STM32F4xx_HAL_Driver/Src/stm32f4xx_hal_ltdc.c:2109:37
	str.w	r4, [r0, #160]
	.loc	5 2112 38 is_stmt 1             @ ../Library/STM32F4xx_HAL_Driver/Src/stm32f4xx_hal_ltdc.c:2112:38
	ldr.w	r4, [r0, #172]
	str.w	r6, [r0, #172]
	.loc	5 2113 52                       @ ../Library/STM32F4xx_HAL_Driver/Src/stm32f4xx_hal_ltdc.c:2113:52
	ldr	r4, [r1, #36]
	.loc	5 2113 38 is_stmt 0             @ ../Library/STM32F4xx_HAL_Driver/Src/stm32f4xx_hal_ltdc.c:2113:38
	str.w	r4, [r0, #172]
	.loc	5 2115 7 is_stmt 1              @ ../Library/STM32F4xx_HAL_Driver/Src/stm32f4xx_hal_ltdc.c:2115:7
	bhi	.LBB9_2
.Ltmp63:
@ %bb.1:
	@DEBUG_VALUE: LTDC_SetConfig:pLayerCfg <- $r1
	@DEBUG_VALUE: LTDC_SetConfig:LayerIdx <- [DW_OP_LLVM_entry_value 1] $r2
	@DEBUG_VALUE: LTDC_SetConfig:hltdc <- [DW_OP_LLVM_entry_value 1] $r0
	movw	r0, :lower16:.Lswitch.table.HAL_LTDC_SetPitch_NoReload
	movt	r0, :upper16:.Lswitch.table.HAL_LTDC_SetPitch_NoReload
	ldr.w	r0, [r0, r3, lsl #2]
	b	.LBB9_3
.Ltmp64:
.LBB9_2:
	@DEBUG_VALUE: LTDC_SetConfig:pLayerCfg <- $r1
	@DEBUG_VALUE: LTDC_SetConfig:LayerIdx <- [DW_OP_LLVM_entry_value 1] $r2
	@DEBUG_VALUE: LTDC_SetConfig:hltdc <- [DW_OP_LLVM_entry_value 1] $r0
	.loc	5 0 7 is_stmt 0                 @ ../Library/STM32F4xx_HAL_Driver/Src/stm32f4xx_hal_ltdc.c:0:7
	movs	r0, #1
.Ltmp65:
.LBB9_3:
	@DEBUG_VALUE: LTDC_SetConfig:pLayerCfg <- $r1
	@DEBUG_VALUE: LTDC_SetConfig:LayerIdx <- [DW_OP_LLVM_entry_value 1] $r2
	@DEBUG_VALUE: LTDC_SetConfig:hltdc <- [DW_OP_LLVM_entry_value 1] $r0
	@DEBUG_VALUE: LTDC_SetConfig:tmp <- $r0
	.loc	5 2136 39 is_stmt 1             @ ../Library/STM32F4xx_HAL_Driver/Src/stm32f4xx_hal_ltdc.c:2136:39
	ldr	r3, [r2, #44]
	.loc	5 2137 106                      @ ../Library/STM32F4xx_HAL_Driver/Src/stm32f4xx_hal_ltdc.c:2137:106
	sub.w	r7, lr, r12
	.loc	5 2136 39                       @ ../Library/STM32F4xx_HAL_Driver/Src/stm32f4xx_hal_ltdc.c:2136:39
	and	r3, r3, #-536813568
	str	r3, [r2, #44]
	.loc	5 2137 55                       @ ../Library/STM32F4xx_HAL_Driver/Src/stm32f4xx_hal_ltdc.c:2137:55
	ldrd	r3, r1, [r1, #40]
.Ltmp66:
	@DEBUG_VALUE: LTDC_SetConfig:pLayerCfg <- [DW_OP_LLVM_entry_value 1] $r1
	.loc	5 2137 73 is_stmt 0             @ ../Library/STM32F4xx_HAL_Driver/Src/stm32f4xx_hal_ltdc.c:2137:73
	muls	r3, r0, r3
	.loc	5 2137 129                      @ ../Library/STM32F4xx_HAL_Driver/Src/stm32f4xx_hal_ltdc.c:2137:129
	muls	r0, r7, r0
.Ltmp67:
	.loc	5 2137 137                      @ ../Library/STM32F4xx_HAL_Driver/Src/stm32f4xx_hal_ltdc.c:2137:137
	adds	r0, #3
	.loc	5 2137 81                       @ ../Library/STM32F4xx_HAL_Driver/Src/stm32f4xx_hal_ltdc.c:2137:81
	orr.w	r0, r0, r3, lsl #16
	.loc	5 2137 39                       @ ../Library/STM32F4xx_HAL_Driver/Src/stm32f4xx_hal_ltdc.c:2137:39
	str	r0, [r2, #44]
	.loc	5 2139 40 is_stmt 1             @ ../Library/STM32F4xx_HAL_Driver/Src/stm32f4xx_hal_ltdc.c:2139:40
	ldr	r0, [r2, #48]
	movw	r3, #2047
	bics	r0, r3
	str	r0, [r2, #48]
	.loc	5 2140 40                       @ ../Library/STM32F4xx_HAL_Driver/Src/stm32f4xx_hal_ltdc.c:2140:40
	str	r1, [r2, #48]
	.loc	5 2143 35                       @ ../Library/STM32F4xx_HAL_Driver/Src/stm32f4xx_hal_ltdc.c:2143:35
	ldr	r0, [r2]
	orr	r0, r0, #1
	str	r0, [r2]
	.loc	5 2144 1                        @ ../Library/STM32F4xx_HAL_Driver/Src/stm32f4xx_hal_ltdc.c:2144:1
	pop	{r4, r5, r6, r7, pc}
.Ltmp68:
.Lfunc_end9:
	.size	LTDC_SetConfig, .Lfunc_end9-LTDC_SetConfig
	.cfi_endproc
	.cantunwind
	.fnend
                                        @ -- End function
	.section	.text.HAL_LTDC_ConfigColorKeying,"ax",%progbits
	.hidden	HAL_LTDC_ConfigColorKeying      @ -- Begin function HAL_LTDC_ConfigColorKeying
	.globl	HAL_LTDC_ConfigColorKeying
	.p2align	1
	.type	HAL_LTDC_ConfigColorKeying,%function
	.code	16                              @ @HAL_LTDC_ConfigColorKeying
	.thumb_func
HAL_LTDC_ConfigColorKeying:
.Lfunc_begin10:
	.loc	5 835 0                         @ ../Library/STM32F4xx_HAL_Driver/Src/stm32f4xx_hal_ltdc.c:835:0
	.fnstart
	.cfi_startproc
@ %bb.0:
	@DEBUG_VALUE: HAL_LTDC_ConfigColorKeying:hltdc <- $r0
	@DEBUG_VALUE: HAL_LTDC_ConfigColorKeying:hltdc <- $r0
	@DEBUG_VALUE: HAL_LTDC_ConfigColorKeying:RGBValue <- $r1
	@DEBUG_VALUE: HAL_LTDC_ConfigColorKeying:LayerIdx <- $r2
	@DEBUG_VALUE: HAL_LTDC_ConfigColorKeying:LayerIdx <- $r2
	.loc	5 840 3 prologue_end            @ ../Library/STM32F4xx_HAL_Driver/Src/stm32f4xx_hal_ltdc.c:840:3
	ldrb.w	r3, [r0, #160]
.Ltmp69:
	@DEBUG_VALUE: HAL_LTDC_ConfigColorKeying:RGBValue <- $r1
	.loc	5 840 3 is_stmt 0               @ ../Library/STM32F4xx_HAL_Driver/Src/stm32f4xx_hal_ltdc.c:840:3
	cmp	r3, #1
	mov.w	r3, #2
	beq	.LBB10_2
.Ltmp70:
@ %bb.1:
	@DEBUG_VALUE: HAL_LTDC_ConfigColorKeying:LayerIdx <- $r2
	@DEBUG_VALUE: HAL_LTDC_ConfigColorKeying:RGBValue <- $r1
	@DEBUG_VALUE: HAL_LTDC_ConfigColorKeying:hltdc <- $r0
	.loc	5 843 16 is_stmt 1              @ ../Library/STM32F4xx_HAL_Driver/Src/stm32f4xx_hal_ltdc.c:843:16
	strb.w	r3, [r0, #161]
	.loc	5 846 3                         @ ../Library/STM32F4xx_HAL_Driver/Src/stm32f4xx_hal_ltdc.c:846:3
	ldr.w	r12, [r0]
	add.w	r2, r12, r2, lsl #7
.Ltmp71:
	@DEBUG_VALUE: HAL_LTDC_ConfigColorKeying:LayerIdx <- [DW_OP_LLVM_entry_value 1] $r2
	.loc	5 846 37 is_stmt 0              @ ../Library/STM32F4xx_HAL_Driver/Src/stm32f4xx_hal_ltdc.c:846:37
	ldr.w	r3, [r2, #144]
	and	r3, r3, #-16777216
	str.w	r3, [r2, #144]
	.loc	5 847 38 is_stmt 1              @ ../Library/STM32F4xx_HAL_Driver/Src/stm32f4xx_hal_ltdc.c:847:38
	str.w	r1, [r2, #144]
	movs	r1, #1
.Ltmp72:
	@DEBUG_VALUE: HAL_LTDC_ConfigColorKeying:RGBValue <- [DW_OP_LLVM_entry_value 1] $r1
	.loc	5 0 38 is_stmt 0                @ ../Library/STM32F4xx_HAL_Driver/Src/stm32f4xx_hal_ltdc.c:0:38
	movs	r3, #0
	.loc	5 850 25 is_stmt 1              @ ../Library/STM32F4xx_HAL_Driver/Src/stm32f4xx_hal_ltdc.c:850:25
	str.w	r1, [r12, #36]
	.loc	5 853 16                        @ ../Library/STM32F4xx_HAL_Driver/Src/stm32f4xx_hal_ltdc.c:853:16
	strb.w	r1, [r0, #161]
.Ltmp73:
	.loc	5 856 3                         @ ../Library/STM32F4xx_HAL_Driver/Src/stm32f4xx_hal_ltdc.c:856:3
	strb.w	r3, [r0, #160]
.Ltmp74:
.LBB10_2:
	@DEBUG_VALUE: HAL_LTDC_ConfigColorKeying:hltdc <- $r0
	.loc	5 859 1                         @ ../Library/STM32F4xx_HAL_Driver/Src/stm32f4xx_hal_ltdc.c:859:1
	mov	r0, r3
.Ltmp75:
	@DEBUG_VALUE: HAL_LTDC_ConfigColorKeying:hltdc <- [DW_OP_LLVM_entry_value 1] $r0
	bx	lr
.Ltmp76:
.Lfunc_end10:
	.size	HAL_LTDC_ConfigColorKeying, .Lfunc_end10-HAL_LTDC_ConfigColorKeying
	.cfi_endproc
	.cantunwind
	.fnend
                                        @ -- End function
	.section	.text.HAL_LTDC_ConfigCLUT,"ax",%progbits
	.hidden	HAL_LTDC_ConfigCLUT             @ -- Begin function HAL_LTDC_ConfigCLUT
	.globl	HAL_LTDC_ConfigCLUT
	.p2align	1
	.type	HAL_LTDC_ConfigCLUT,%function
	.code	16                              @ @HAL_LTDC_ConfigCLUT
	.thumb_func
HAL_LTDC_ConfigCLUT:
.Lfunc_begin11:
	.loc	5 873 0                         @ ../Library/STM32F4xx_HAL_Driver/Src/stm32f4xx_hal_ltdc.c:873:0
	.fnstart
	.cfi_startproc
@ %bb.0:
	@DEBUG_VALUE: HAL_LTDC_ConfigCLUT:hltdc <- $r0
	@DEBUG_VALUE: HAL_LTDC_ConfigCLUT:hltdc <- $r0
	@DEBUG_VALUE: HAL_LTDC_ConfigCLUT:pCLUT <- $r1
	@DEBUG_VALUE: HAL_LTDC_ConfigCLUT:CLUTSize <- $r2
	@DEBUG_VALUE: HAL_LTDC_ConfigCLUT:CLUTSize <- $r2
	@DEBUG_VALUE: HAL_LTDC_ConfigCLUT:LayerIdx <- $r3
	@DEBUG_VALUE: HAL_LTDC_ConfigCLUT:LayerIdx <- $r3
	.save	{r4, r5, r6, r7, lr}
	push	{r4, r5, r6, r7, lr}
	.cfi_def_cfa_offset 20
	.cfi_offset lr, -4
	.cfi_offset r7, -8
	.cfi_offset r6, -12
	.cfi_offset r5, -16
	.cfi_offset r4, -20
.Ltmp77:
	@DEBUG_VALUE: HAL_LTDC_ConfigCLUT:pcolorlut <- $r1
	.loc	5 881 3 prologue_end            @ ../Library/STM32F4xx_HAL_Driver/Src/stm32f4xx_hal_ltdc.c:881:3
	ldrb.w	r4, [r0, #160]
	@DEBUG_VALUE: HAL_LTDC_ConfigCLUT:pcolorlut <- $r1
	@DEBUG_VALUE: HAL_LTDC_ConfigCLUT:pCLUT <- $r1
	mov.w	r12, #2
.Ltmp78:
	.loc	5 881 3 is_stmt 0               @ ../Library/STM32F4xx_HAL_Driver/Src/stm32f4xx_hal_ltdc.c:881:3
	cmp	r4, #1
	beq	.LBB11_5
.Ltmp79:
@ %bb.1:
	@DEBUG_VALUE: HAL_LTDC_ConfigCLUT:LayerIdx <- $r3
	@DEBUG_VALUE: HAL_LTDC_ConfigCLUT:CLUTSize <- $r2
	@DEBUG_VALUE: HAL_LTDC_ConfigCLUT:pcolorlut <- $r1
	@DEBUG_VALUE: HAL_LTDC_ConfigCLUT:pCLUT <- $r1
	@DEBUG_VALUE: HAL_LTDC_ConfigCLUT:hltdc <- $r0
	.loc	5 884 16 is_stmt 1              @ ../Library/STM32F4xx_HAL_Driver/Src/stm32f4xx_hal_ltdc.c:884:16
	strb.w	r12, [r0, #161]
.Ltmp80:
	@DEBUG_VALUE: HAL_LTDC_ConfigCLUT:counter <- 0
	@DEBUG_VALUE: HAL_LTDC_ConfigCLUT:pcolorlut <- $r1
	.loc	5 886 3                         @ ../Library/STM32F4xx_HAL_Driver/Src/stm32f4xx_hal_ltdc.c:886:3
	cbz	r2, .LBB11_4
.Ltmp81:
@ %bb.2:
	@DEBUG_VALUE: HAL_LTDC_ConfigCLUT:LayerIdx <- $r3
	@DEBUG_VALUE: HAL_LTDC_ConfigCLUT:CLUTSize <- $r2
	@DEBUG_VALUE: HAL_LTDC_ConfigCLUT:pcolorlut <- $r1
	@DEBUG_VALUE: HAL_LTDC_ConfigCLUT:pCLUT <- $r1
	@DEBUG_VALUE: HAL_LTDC_ConfigCLUT:hltdc <- $r0
	@DEBUG_VALUE: HAL_LTDC_ConfigCLUT:counter <- 0
	.loc	5 0 3 is_stmt 0                 @ ../Library/STM32F4xx_HAL_Driver/Src/stm32f4xx_hal_ltdc.c:0:3
	movs	r4, #52
	mla	r12, r3, r4, r0
	ldr	r4, [r0]
	ldr.w	r12, [r12, #72]
	add.w	r3, r4, r3, lsl #7
.Ltmp82:
	@DEBUG_VALUE: HAL_LTDC_ConfigCLUT:LayerIdx <- [DW_OP_LLVM_entry_value 1] $r3
	add.w	lr, r3, #132
	movs	r3, #0
	movs	r4, #0
.Ltmp83:
	.p2align	2
.LBB11_3:                               @ =>This Inner Loop Header: Depth=1
	@DEBUG_VALUE: HAL_LTDC_ConfigCLUT:pcolorlut <- $r1
	@DEBUG_VALUE: HAL_LTDC_ConfigCLUT:hltdc <- $r0
	@DEBUG_VALUE: HAL_LTDC_ConfigCLUT:LayerIdx <- [DW_OP_LLVM_entry_value 1] $r3
	@DEBUG_VALUE: HAL_LTDC_ConfigCLUT:pcolorlut <- $r1
	@DEBUG_VALUE: HAL_LTDC_ConfigCLUT:counter <- undef
	ldr	r6, [r1], #4
.Ltmp84:
	@DEBUG_VALUE: HAL_LTDC_ConfigCLUT:pCLUT <- [DW_OP_LLVM_entry_value 1] $r1
	.loc	5 888 9 is_stmt 1               @ ../Library/STM32F4xx_HAL_Driver/Src/stm32f4xx_hal_ltdc.c:888:9
	cmp.w	r12, #6
.Ltmp85:
	.loc	5 886 31                        @ ../Library/STM32F4xx_HAL_Driver/Src/stm32f4xx_hal_ltdc.c:886:31
	add.w	r5, r4, #16777216
.Ltmp86:
	.loc	5 888 9                         @ ../Library/STM32F4xx_HAL_Driver/Src/stm32f4xx_hal_ltdc.c:888:9
	it	eq
	moveq	r4, r3
.Ltmp87:
	.loc	5 0 0 is_stmt 0                 @ ../Library/STM32F4xx_HAL_Driver/Src/stm32f4xx_hal_ltdc.c:0:0
	uxtb	r7, r6
	orrs	r4, r7
	and	r7, r6, #65280
	orrs	r4, r7
	and	r6, r6, #16711680
	orrs	r4, r6
.Ltmp88:
	@DEBUG_VALUE: HAL_LTDC_ConfigCLUT:tmp <- $r4
	@DEBUG_VALUE: HAL_LTDC_ConfigCLUT:pcolorlut <- $r1
	.loc	5 900 42 is_stmt 1              @ ../Library/STM32F4xx_HAL_Driver/Src/stm32f4xx_hal_ltdc.c:900:42
	str.w	r4, [lr, #64]
.Ltmp89:
	@DEBUG_VALUE: HAL_LTDC_ConfigCLUT:counter <- [DW_OP_plus_uconst 1, DW_OP_stack_value] undef
	.loc	5 886 31                        @ ../Library/STM32F4xx_HAL_Driver/Src/stm32f4xx_hal_ltdc.c:886:31
	subs	r2, #1
.Ltmp90:
	@DEBUG_VALUE: HAL_LTDC_ConfigCLUT:CLUTSize <- [DW_OP_LLVM_entry_value 1] $r2
	add.w	r3, r3, #285212672
	mov	r4, r5
.Ltmp91:
	.loc	5 886 3 is_stmt 0               @ ../Library/STM32F4xx_HAL_Driver/Src/stm32f4xx_hal_ltdc.c:886:3
	bne	.LBB11_3
.Ltmp92:
.LBB11_4:
	@DEBUG_VALUE: HAL_LTDC_ConfigCLUT:pcolorlut <- $r1
	@DEBUG_VALUE: HAL_LTDC_ConfigCLUT:hltdc <- $r0
	.loc	5 0 3                           @ ../Library/STM32F4xx_HAL_Driver/Src/stm32f4xx_hal_ltdc.c:0:3
	movs	r1, #1
.Ltmp93:
	mov.w	r12, #0
	.loc	5 904 16 is_stmt 1              @ ../Library/STM32F4xx_HAL_Driver/Src/stm32f4xx_hal_ltdc.c:904:16
	strb.w	r1, [r0, #161]
.Ltmp94:
	.loc	5 907 3                         @ ../Library/STM32F4xx_HAL_Driver/Src/stm32f4xx_hal_ltdc.c:907:3
	strb.w	r12, [r0, #160]
.Ltmp95:
.LBB11_5:
	@DEBUG_VALUE: HAL_LTDC_ConfigCLUT:hltdc <- $r0
	.loc	5 910 1                         @ ../Library/STM32F4xx_HAL_Driver/Src/stm32f4xx_hal_ltdc.c:910:1
	mov	r0, r12
.Ltmp96:
	@DEBUG_VALUE: HAL_LTDC_ConfigCLUT:hltdc <- [DW_OP_LLVM_entry_value 1] $r0
	pop	{r4, r5, r6, r7, pc}
.Ltmp97:
.Lfunc_end11:
	.size	HAL_LTDC_ConfigCLUT, .Lfunc_end11-HAL_LTDC_ConfigCLUT
	.cfi_endproc
	.cantunwind
	.fnend
                                        @ -- End function
	.section	.text.HAL_LTDC_EnableColorKeying,"ax",%progbits
	.hidden	HAL_LTDC_EnableColorKeying      @ -- Begin function HAL_LTDC_EnableColorKeying
	.globl	HAL_LTDC_EnableColorKeying
	.p2align	1
	.type	HAL_LTDC_EnableColorKeying,%function
	.code	16                              @ @HAL_LTDC_EnableColorKeying
	.thumb_func
HAL_LTDC_EnableColorKeying:
.Lfunc_begin12:
	.loc	5 922 0                         @ ../Library/STM32F4xx_HAL_Driver/Src/stm32f4xx_hal_ltdc.c:922:0
	.fnstart
	.cfi_startproc
@ %bb.0:
	@DEBUG_VALUE: HAL_LTDC_EnableColorKeying:hltdc <- $r0
	@DEBUG_VALUE: HAL_LTDC_EnableColorKeying:hltdc <- $r0
	@DEBUG_VALUE: HAL_LTDC_EnableColorKeying:LayerIdx <- $r1
	.loc	5 927 3 prologue_end            @ ../Library/STM32F4xx_HAL_Driver/Src/stm32f4xx_hal_ltdc.c:927:3
	ldrb.w	r2, [r0, #160]
.Ltmp98:
	@DEBUG_VALUE: HAL_LTDC_EnableColorKeying:LayerIdx <- $r1
	.loc	5 927 3 is_stmt 0               @ ../Library/STM32F4xx_HAL_Driver/Src/stm32f4xx_hal_ltdc.c:927:3
	cmp	r2, #1
	mov.w	r2, #2
	beq	.LBB12_2
.Ltmp99:
@ %bb.1:
	@DEBUG_VALUE: HAL_LTDC_EnableColorKeying:LayerIdx <- $r1
	@DEBUG_VALUE: HAL_LTDC_EnableColorKeying:hltdc <- $r0
	.loc	5 930 16 is_stmt 1              @ ../Library/STM32F4xx_HAL_Driver/Src/stm32f4xx_hal_ltdc.c:930:16
	strb.w	r2, [r0, #161]
	.loc	5 933 3                         @ ../Library/STM32F4xx_HAL_Driver/Src/stm32f4xx_hal_ltdc.c:933:3
	ldr	r2, [r0]
	add.w	r1, r2, r1, lsl #7
.Ltmp100:
	@DEBUG_VALUE: HAL_LTDC_EnableColorKeying:LayerIdx <- [DW_OP_LLVM_entry_value 1] $r1
	.loc	5 933 35 is_stmt 0              @ ../Library/STM32F4xx_HAL_Driver/Src/stm32f4xx_hal_ltdc.c:933:35
	ldr.w	r3, [r1, #132]
	orr	r3, r3, #2
	str.w	r3, [r1, #132]
	movs	r1, #1
	.loc	5 936 25 is_stmt 1              @ ../Library/STM32F4xx_HAL_Driver/Src/stm32f4xx_hal_ltdc.c:936:25
	str	r1, [r2, #36]
	movs	r2, #0
	.loc	5 939 16                        @ ../Library/STM32F4xx_HAL_Driver/Src/stm32f4xx_hal_ltdc.c:939:16
	strb.w	r1, [r0, #161]
.Ltmp101:
	.loc	5 942 3                         @ ../Library/STM32F4xx_HAL_Driver/Src/stm32f4xx_hal_ltdc.c:942:3
	strb.w	r2, [r0, #160]
.Ltmp102:
.LBB12_2:
	@DEBUG_VALUE: HAL_LTDC_EnableColorKeying:hltdc <- $r0
	.loc	5 945 1                         @ ../Library/STM32F4xx_HAL_Driver/Src/stm32f4xx_hal_ltdc.c:945:1
	mov	r0, r2
.Ltmp103:
	@DEBUG_VALUE: HAL_LTDC_EnableColorKeying:hltdc <- [DW_OP_LLVM_entry_value 1] $r0
	bx	lr
.Ltmp104:
.Lfunc_end12:
	.size	HAL_LTDC_EnableColorKeying, .Lfunc_end12-HAL_LTDC_EnableColorKeying
	.cfi_endproc
	.cantunwind
	.fnend
                                        @ -- End function
	.section	.text.HAL_LTDC_DisableColorKeying,"ax",%progbits
	.hidden	HAL_LTDC_DisableColorKeying     @ -- Begin function HAL_LTDC_DisableColorKeying
	.globl	HAL_LTDC_DisableColorKeying
	.p2align	1
	.type	HAL_LTDC_DisableColorKeying,%function
	.code	16                              @ @HAL_LTDC_DisableColorKeying
	.thumb_func
HAL_LTDC_DisableColorKeying:
.Lfunc_begin13:
	.loc	5 957 0                         @ ../Library/STM32F4xx_HAL_Driver/Src/stm32f4xx_hal_ltdc.c:957:0
	.fnstart
	.cfi_startproc
@ %bb.0:
	@DEBUG_VALUE: HAL_LTDC_DisableColorKeying:hltdc <- $r0
	@DEBUG_VALUE: HAL_LTDC_DisableColorKeying:hltdc <- $r0
	@DEBUG_VALUE: HAL_LTDC_DisableColorKeying:LayerIdx <- $r1
	.loc	5 962 3 prologue_end            @ ../Library/STM32F4xx_HAL_Driver/Src/stm32f4xx_hal_ltdc.c:962:3
	ldrb.w	r2, [r0, #160]
.Ltmp105:
	@DEBUG_VALUE: HAL_LTDC_DisableColorKeying:LayerIdx <- $r1
	.loc	5 962 3 is_stmt 0               @ ../Library/STM32F4xx_HAL_Driver/Src/stm32f4xx_hal_ltdc.c:962:3
	cmp	r2, #1
	mov.w	r2, #2
	beq	.LBB13_2
.Ltmp106:
@ %bb.1:
	@DEBUG_VALUE: HAL_LTDC_DisableColorKeying:LayerIdx <- $r1
	@DEBUG_VALUE: HAL_LTDC_DisableColorKeying:hltdc <- $r0
	.loc	5 965 16 is_stmt 1              @ ../Library/STM32F4xx_HAL_Driver/Src/stm32f4xx_hal_ltdc.c:965:16
	strb.w	r2, [r0, #161]
	.loc	5 968 3                         @ ../Library/STM32F4xx_HAL_Driver/Src/stm32f4xx_hal_ltdc.c:968:3
	ldr	r2, [r0]
	add.w	r1, r2, r1, lsl #7
.Ltmp107:
	@DEBUG_VALUE: HAL_LTDC_DisableColorKeying:LayerIdx <- [DW_OP_LLVM_entry_value 1] $r1
	.loc	5 968 35 is_stmt 0              @ ../Library/STM32F4xx_HAL_Driver/Src/stm32f4xx_hal_ltdc.c:968:35
	ldr.w	r3, [r1, #132]
	bic	r3, r3, #2
	str.w	r3, [r1, #132]
	movs	r1, #1
	.loc	5 971 25 is_stmt 1              @ ../Library/STM32F4xx_HAL_Driver/Src/stm32f4xx_hal_ltdc.c:971:25
	str	r1, [r2, #36]
	movs	r2, #0
	.loc	5 974 16                        @ ../Library/STM32F4xx_HAL_Driver/Src/stm32f4xx_hal_ltdc.c:974:16
	strb.w	r1, [r0, #161]
.Ltmp108:
	.loc	5 977 3                         @ ../Library/STM32F4xx_HAL_Driver/Src/stm32f4xx_hal_ltdc.c:977:3
	strb.w	r2, [r0, #160]
.Ltmp109:
.LBB13_2:
	@DEBUG_VALUE: HAL_LTDC_DisableColorKeying:hltdc <- $r0
	.loc	5 980 1                         @ ../Library/STM32F4xx_HAL_Driver/Src/stm32f4xx_hal_ltdc.c:980:1
	mov	r0, r2
.Ltmp110:
	@DEBUG_VALUE: HAL_LTDC_DisableColorKeying:hltdc <- [DW_OP_LLVM_entry_value 1] $r0
	bx	lr
.Ltmp111:
.Lfunc_end13:
	.size	HAL_LTDC_DisableColorKeying, .Lfunc_end13-HAL_LTDC_DisableColorKeying
	.cfi_endproc
	.cantunwind
	.fnend
                                        @ -- End function
	.section	.text.HAL_LTDC_EnableCLUT,"ax",%progbits
	.hidden	HAL_LTDC_EnableCLUT             @ -- Begin function HAL_LTDC_EnableCLUT
	.globl	HAL_LTDC_EnableCLUT
	.p2align	1
	.type	HAL_LTDC_EnableCLUT,%function
	.code	16                              @ @HAL_LTDC_EnableCLUT
	.thumb_func
HAL_LTDC_EnableCLUT:
.Lfunc_begin14:
	.loc	5 992 0                         @ ../Library/STM32F4xx_HAL_Driver/Src/stm32f4xx_hal_ltdc.c:992:0
	.fnstart
	.cfi_startproc
@ %bb.0:
	@DEBUG_VALUE: HAL_LTDC_EnableCLUT:hltdc <- $r0
	@DEBUG_VALUE: HAL_LTDC_EnableCLUT:hltdc <- $r0
	@DEBUG_VALUE: HAL_LTDC_EnableCLUT:LayerIdx <- $r1
	.loc	5 997 3 prologue_end            @ ../Library/STM32F4xx_HAL_Driver/Src/stm32f4xx_hal_ltdc.c:997:3
	ldrb.w	r2, [r0, #160]
.Ltmp112:
	@DEBUG_VALUE: HAL_LTDC_EnableCLUT:LayerIdx <- $r1
	.loc	5 997 3 is_stmt 0               @ ../Library/STM32F4xx_HAL_Driver/Src/stm32f4xx_hal_ltdc.c:997:3
	cmp	r2, #1
	mov.w	r2, #2
	beq	.LBB14_2
.Ltmp113:
@ %bb.1:
	@DEBUG_VALUE: HAL_LTDC_EnableCLUT:LayerIdx <- $r1
	@DEBUG_VALUE: HAL_LTDC_EnableCLUT:hltdc <- $r0
	.loc	5 1000 16 is_stmt 1             @ ../Library/STM32F4xx_HAL_Driver/Src/stm32f4xx_hal_ltdc.c:1000:16
	strb.w	r2, [r0, #161]
	.loc	5 1003 3                        @ ../Library/STM32F4xx_HAL_Driver/Src/stm32f4xx_hal_ltdc.c:1003:3
	ldr	r2, [r0]
	add.w	r1, r2, r1, lsl #7
.Ltmp114:
	@DEBUG_VALUE: HAL_LTDC_EnableCLUT:LayerIdx <- [DW_OP_LLVM_entry_value 1] $r1
	.loc	5 1003 35 is_stmt 0             @ ../Library/STM32F4xx_HAL_Driver/Src/stm32f4xx_hal_ltdc.c:1003:35
	ldr.w	r3, [r1, #132]
	orr	r3, r3, #16
	str.w	r3, [r1, #132]
	movs	r1, #1
	.loc	5 1006 25 is_stmt 1             @ ../Library/STM32F4xx_HAL_Driver/Src/stm32f4xx_hal_ltdc.c:1006:25
	str	r1, [r2, #36]
	movs	r2, #0
	.loc	5 1009 16                       @ ../Library/STM32F4xx_HAL_Driver/Src/stm32f4xx_hal_ltdc.c:1009:16
	strb.w	r1, [r0, #161]
.Ltmp115:
	.loc	5 1012 3                        @ ../Library/STM32F4xx_HAL_Driver/Src/stm32f4xx_hal_ltdc.c:1012:3
	strb.w	r2, [r0, #160]
.Ltmp116:
.LBB14_2:
	@DEBUG_VALUE: HAL_LTDC_EnableCLUT:hltdc <- $r0
	.loc	5 1015 1                        @ ../Library/STM32F4xx_HAL_Driver/Src/stm32f4xx_hal_ltdc.c:1015:1
	mov	r0, r2
.Ltmp117:
	@DEBUG_VALUE: HAL_LTDC_EnableCLUT:hltdc <- [DW_OP_LLVM_entry_value 1] $r0
	bx	lr
.Ltmp118:
.Lfunc_end14:
	.size	HAL_LTDC_EnableCLUT, .Lfunc_end14-HAL_LTDC_EnableCLUT
	.cfi_endproc
	.cantunwind
	.fnend
                                        @ -- End function
	.section	.text.HAL_LTDC_DisableCLUT,"ax",%progbits
	.hidden	HAL_LTDC_DisableCLUT            @ -- Begin function HAL_LTDC_DisableCLUT
	.globl	HAL_LTDC_DisableCLUT
	.p2align	1
	.type	HAL_LTDC_DisableCLUT,%function
	.code	16                              @ @HAL_LTDC_DisableCLUT
	.thumb_func
HAL_LTDC_DisableCLUT:
.Lfunc_begin15:
	.loc	5 1027 0                        @ ../Library/STM32F4xx_HAL_Driver/Src/stm32f4xx_hal_ltdc.c:1027:0
	.fnstart
	.cfi_startproc
@ %bb.0:
	@DEBUG_VALUE: HAL_LTDC_DisableCLUT:hltdc <- $r0
	@DEBUG_VALUE: HAL_LTDC_DisableCLUT:hltdc <- $r0
	@DEBUG_VALUE: HAL_LTDC_DisableCLUT:LayerIdx <- $r1
	.loc	5 1032 3 prologue_end           @ ../Library/STM32F4xx_HAL_Driver/Src/stm32f4xx_hal_ltdc.c:1032:3
	ldrb.w	r2, [r0, #160]
.Ltmp119:
	@DEBUG_VALUE: HAL_LTDC_DisableCLUT:LayerIdx <- $r1
	.loc	5 1032 3 is_stmt 0              @ ../Library/STM32F4xx_HAL_Driver/Src/stm32f4xx_hal_ltdc.c:1032:3
	cmp	r2, #1
	mov.w	r2, #2
	beq	.LBB15_2
.Ltmp120:
@ %bb.1:
	@DEBUG_VALUE: HAL_LTDC_DisableCLUT:LayerIdx <- $r1
	@DEBUG_VALUE: HAL_LTDC_DisableCLUT:hltdc <- $r0
	.loc	5 1035 16 is_stmt 1             @ ../Library/STM32F4xx_HAL_Driver/Src/stm32f4xx_hal_ltdc.c:1035:16
	strb.w	r2, [r0, #161]
	.loc	5 1038 3                        @ ../Library/STM32F4xx_HAL_Driver/Src/stm32f4xx_hal_ltdc.c:1038:3
	ldr	r2, [r0]
	add.w	r1, r2, r1, lsl #7
.Ltmp121:
	@DEBUG_VALUE: HAL_LTDC_DisableCLUT:LayerIdx <- [DW_OP_LLVM_entry_value 1] $r1
	.loc	5 1038 35 is_stmt 0             @ ../Library/STM32F4xx_HAL_Driver/Src/stm32f4xx_hal_ltdc.c:1038:35
	ldr.w	r3, [r1, #132]
	bic	r3, r3, #16
	str.w	r3, [r1, #132]
	movs	r1, #1
	.loc	5 1041 25 is_stmt 1             @ ../Library/STM32F4xx_HAL_Driver/Src/stm32f4xx_hal_ltdc.c:1041:25
	str	r1, [r2, #36]
	movs	r2, #0
	.loc	5 1044 16                       @ ../Library/STM32F4xx_HAL_Driver/Src/stm32f4xx_hal_ltdc.c:1044:16
	strb.w	r1, [r0, #161]
.Ltmp122:
	.loc	5 1047 3                        @ ../Library/STM32F4xx_HAL_Driver/Src/stm32f4xx_hal_ltdc.c:1047:3
	strb.w	r2, [r0, #160]
.Ltmp123:
.LBB15_2:
	@DEBUG_VALUE: HAL_LTDC_DisableCLUT:hltdc <- $r0
	.loc	5 1050 1                        @ ../Library/STM32F4xx_HAL_Driver/Src/stm32f4xx_hal_ltdc.c:1050:1
	mov	r0, r2
.Ltmp124:
	@DEBUG_VALUE: HAL_LTDC_DisableCLUT:hltdc <- [DW_OP_LLVM_entry_value 1] $r0
	bx	lr
.Ltmp125:
.Lfunc_end15:
	.size	HAL_LTDC_DisableCLUT, .Lfunc_end15-HAL_LTDC_DisableCLUT
	.cfi_endproc
	.cantunwind
	.fnend
                                        @ -- End function
	.section	.text.HAL_LTDC_EnableDither,"ax",%progbits
	.hidden	HAL_LTDC_EnableDither           @ -- Begin function HAL_LTDC_EnableDither
	.globl	HAL_LTDC_EnableDither
	.p2align	1
	.type	HAL_LTDC_EnableDither,%function
	.code	16                              @ @HAL_LTDC_EnableDither
	.thumb_func
HAL_LTDC_EnableDither:
.Lfunc_begin16:
	.loc	5 1060 0                        @ ../Library/STM32F4xx_HAL_Driver/Src/stm32f4xx_hal_ltdc.c:1060:0
	.fnstart
	.cfi_startproc
@ %bb.0:
	@DEBUG_VALUE: HAL_LTDC_EnableDither:hltdc <- $r0
	@DEBUG_VALUE: HAL_LTDC_EnableDither:hltdc <- $r0
	.loc	5 1062 3 prologue_end           @ ../Library/STM32F4xx_HAL_Driver/Src/stm32f4xx_hal_ltdc.c:1062:3
	ldrb.w	r1, [r0, #160]
.Ltmp126:
	.loc	5 1062 3 is_stmt 0              @ ../Library/STM32F4xx_HAL_Driver/Src/stm32f4xx_hal_ltdc.c:1062:3
	cmp	r1, #1
	mov.w	r1, #2
	beq	.LBB16_2
.Ltmp127:
@ %bb.1:
	@DEBUG_VALUE: HAL_LTDC_EnableDither:hltdc <- $r0
	.loc	5 1065 16 is_stmt 1             @ ../Library/STM32F4xx_HAL_Driver/Src/stm32f4xx_hal_ltdc.c:1065:16
	strb.w	r1, [r0, #161]
	movw	r1, #26648
	movt	r1, #16385
	.loc	5 1068 13                       @ ../Library/STM32F4xx_HAL_Driver/Src/stm32f4xx_hal_ltdc.c:1068:13
	ldr	r2, [r1]
	orr	r2, r2, #65536
	str	r2, [r1]
	movs	r1, #1
	.loc	5 1071 16                       @ ../Library/STM32F4xx_HAL_Driver/Src/stm32f4xx_hal_ltdc.c:1071:16
	strb.w	r1, [r0, #161]
	movs	r1, #0
.Ltmp128:
	.loc	5 1074 3                        @ ../Library/STM32F4xx_HAL_Driver/Src/stm32f4xx_hal_ltdc.c:1074:3
	strb.w	r1, [r0, #160]
.Ltmp129:
.LBB16_2:
	@DEBUG_VALUE: HAL_LTDC_EnableDither:hltdc <- $r0
	.loc	5 1077 1                        @ ../Library/STM32F4xx_HAL_Driver/Src/stm32f4xx_hal_ltdc.c:1077:1
	mov	r0, r1
.Ltmp130:
	@DEBUG_VALUE: HAL_LTDC_EnableDither:hltdc <- [DW_OP_LLVM_entry_value 1] $r0
	bx	lr
.Ltmp131:
.Lfunc_end16:
	.size	HAL_LTDC_EnableDither, .Lfunc_end16-HAL_LTDC_EnableDither
	.cfi_endproc
	.cantunwind
	.fnend
                                        @ -- End function
	.section	.text.HAL_LTDC_DisableDither,"ax",%progbits
	.hidden	HAL_LTDC_DisableDither          @ -- Begin function HAL_LTDC_DisableDither
	.globl	HAL_LTDC_DisableDither
	.p2align	1
	.type	HAL_LTDC_DisableDither,%function
	.code	16                              @ @HAL_LTDC_DisableDither
	.thumb_func
HAL_LTDC_DisableDither:
.Lfunc_begin17:
	.loc	5 1087 0                        @ ../Library/STM32F4xx_HAL_Driver/Src/stm32f4xx_hal_ltdc.c:1087:0
	.fnstart
	.cfi_startproc
@ %bb.0:
	@DEBUG_VALUE: HAL_LTDC_DisableDither:hltdc <- $r0
	@DEBUG_VALUE: HAL_LTDC_DisableDither:hltdc <- $r0
	.loc	5 1089 3 prologue_end           @ ../Library/STM32F4xx_HAL_Driver/Src/stm32f4xx_hal_ltdc.c:1089:3
	ldrb.w	r1, [r0, #160]
.Ltmp132:
	.loc	5 1089 3 is_stmt 0              @ ../Library/STM32F4xx_HAL_Driver/Src/stm32f4xx_hal_ltdc.c:1089:3
	cmp	r1, #1
	mov.w	r1, #2
	beq	.LBB17_2
.Ltmp133:
@ %bb.1:
	@DEBUG_VALUE: HAL_LTDC_DisableDither:hltdc <- $r0
	.loc	5 1092 16 is_stmt 1             @ ../Library/STM32F4xx_HAL_Driver/Src/stm32f4xx_hal_ltdc.c:1092:16
	strb.w	r1, [r0, #161]
	movw	r1, #26648
	movt	r1, #16385
	.loc	5 1095 13                       @ ../Library/STM32F4xx_HAL_Driver/Src/stm32f4xx_hal_ltdc.c:1095:13
	ldr	r2, [r1]
	bic	r2, r2, #65536
	str	r2, [r1]
	movs	r1, #1
	.loc	5 1098 16                       @ ../Library/STM32F4xx_HAL_Driver/Src/stm32f4xx_hal_ltdc.c:1098:16
	strb.w	r1, [r0, #161]
	movs	r1, #0
.Ltmp134:
	.loc	5 1101 3                        @ ../Library/STM32F4xx_HAL_Driver/Src/stm32f4xx_hal_ltdc.c:1101:3
	strb.w	r1, [r0, #160]
.Ltmp135:
.LBB17_2:
	@DEBUG_VALUE: HAL_LTDC_DisableDither:hltdc <- $r0
	.loc	5 1104 1                        @ ../Library/STM32F4xx_HAL_Driver/Src/stm32f4xx_hal_ltdc.c:1104:1
	mov	r0, r1
.Ltmp136:
	@DEBUG_VALUE: HAL_LTDC_DisableDither:hltdc <- [DW_OP_LLVM_entry_value 1] $r0
	bx	lr
.Ltmp137:
.Lfunc_end17:
	.size	HAL_LTDC_DisableDither, .Lfunc_end17-HAL_LTDC_DisableDither
	.cfi_endproc
	.cantunwind
	.fnend
                                        @ -- End function
	.section	.text.HAL_LTDC_SetWindowSize,"ax",%progbits
	.hidden	HAL_LTDC_SetWindowSize          @ -- Begin function HAL_LTDC_SetWindowSize
	.globl	HAL_LTDC_SetWindowSize
	.p2align	1
	.type	HAL_LTDC_SetWindowSize,%function
	.code	16                              @ @HAL_LTDC_SetWindowSize
	.thumb_func
HAL_LTDC_SetWindowSize:
.Lfunc_begin18:
	.loc	5 1118 0                        @ ../Library/STM32F4xx_HAL_Driver/Src/stm32f4xx_hal_ltdc.c:1118:0
	.fnstart
	.cfi_startproc
@ %bb.0:
	@DEBUG_VALUE: HAL_LTDC_SetWindowSize:hltdc <- $r0
	@DEBUG_VALUE: HAL_LTDC_SetWindowSize:XSize <- $r1
	@DEBUG_VALUE: HAL_LTDC_SetWindowSize:YSize <- $r2
	@DEBUG_VALUE: HAL_LTDC_SetWindowSize:LayerIdx <- $r3
	.save	{r4, r5, r6, r7, lr}
	push	{r4, r5, r6, r7, lr}
	.cfi_def_cfa_offset 20
	.cfi_offset lr, -4
	.cfi_offset r7, -8
	.cfi_offset r6, -12
	.cfi_offset r5, -16
	.cfi_offset r4, -20
	.pad	#4
	sub	sp, #4
	.cfi_def_cfa_offset 24
	mov	r5, r0
	@DEBUG_VALUE: HAL_LTDC_SetWindowSize:LayerIdx <- $r3
	@DEBUG_VALUE: HAL_LTDC_SetWindowSize:YSize <- $r2
.Ltmp138:
	@DEBUG_VALUE: HAL_LTDC_SetWindowSize:hltdc <- $r5
	.loc	5 1127 3 prologue_end           @ ../Library/STM32F4xx_HAL_Driver/Src/stm32f4xx_hal_ltdc.c:1127:3
	ldrb.w	r0, [r0, #160]
.Ltmp139:
	@DEBUG_VALUE: HAL_LTDC_SetWindowSize:XSize <- $r1
	.loc	5 1127 3 is_stmt 0              @ ../Library/STM32F4xx_HAL_Driver/Src/stm32f4xx_hal_ltdc.c:1127:3
	cmp	r0, #1
	mov.w	r0, #2
	beq	.LBB18_2
.Ltmp140:
@ %bb.1:
	@DEBUG_VALUE: HAL_LTDC_SetWindowSize:hltdc <- $r5
	@DEBUG_VALUE: HAL_LTDC_SetWindowSize:LayerIdx <- $r3
	@DEBUG_VALUE: HAL_LTDC_SetWindowSize:YSize <- $r2
	@DEBUG_VALUE: HAL_LTDC_SetWindowSize:XSize <- $r1
	.loc	5 0 3                           @ ../Library/STM32F4xx_HAL_Driver/Src/stm32f4xx_hal_ltdc.c:0:3
	movs	r4, #52
	movs	r7, #1
	.loc	5 1133 16 is_stmt 1             @ ../Library/STM32F4xx_HAL_Driver/Src/stm32f4xx_hal_ltdc.c:1133:16
	mla	r4, r3, r4, r5
.Ltmp141:
	.loc	5 1127 3                        @ ../Library/STM32F4xx_HAL_Driver/Src/stm32f4xx_hal_ltdc.c:1127:3
	strb.w	r7, [r5, #160]
.Ltmp142:
	.loc	5 1130 16                       @ ../Library/STM32F4xx_HAL_Driver/Src/stm32f4xx_hal_ltdc.c:1130:16
	strb.w	r0, [r5, #161]
	.loc	5 1136 44                       @ ../Library/STM32F4xx_HAL_Driver/Src/stm32f4xx_hal_ltdc.c:1136:44
	ldr	r0, [r4, #56]!
.Ltmp143:
	@DEBUG_VALUE: HAL_LTDC_SetWindowSize:pLayerCfg <- $r4
	.loc	5 1139 44                       @ ../Library/STM32F4xx_HAL_Driver/Src/stm32f4xx_hal_ltdc.c:1139:44
	ldr	r6, [r4, #8]
	.loc	5 1136 31                       @ ../Library/STM32F4xx_HAL_Driver/Src/stm32f4xx_hal_ltdc.c:1136:31
	add	r0, r1
	.loc	5 1136 23 is_stmt 0             @ ../Library/STM32F4xx_HAL_Driver/Src/stm32f4xx_hal_ltdc.c:1136:23
	str	r0, [r4, #4]
	.loc	5 1139 31 is_stmt 1             @ ../Library/STM32F4xx_HAL_Driver/Src/stm32f4xx_hal_ltdc.c:1139:31
	adds	r0, r6, r2
	.loc	5 1139 23 is_stmt 0             @ ../Library/STM32F4xx_HAL_Driver/Src/stm32f4xx_hal_ltdc.c:1139:23
	str	r0, [r4, #12]
	.loc	5 1142 25 is_stmt 1             @ ../Library/STM32F4xx_HAL_Driver/Src/stm32f4xx_hal_ltdc.c:1142:25
	strd	r1, r2, [r4, #40]
	.loc	5 1148 3                        @ ../Library/STM32F4xx_HAL_Driver/Src/stm32f4xx_hal_ltdc.c:1148:3
	mov	r0, r5
	mov	r1, r4
.Ltmp144:
	@DEBUG_VALUE: HAL_LTDC_SetWindowSize:XSize <- [DW_OP_LLVM_entry_value 1] $r1
	mov	r2, r3
.Ltmp145:
	@DEBUG_VALUE: HAL_LTDC_SetWindowSize:YSize <- [DW_OP_LLVM_entry_value 1] $r2
	bl	LTDC_SetConfig
.Ltmp146:
	@DEBUG_VALUE: HAL_LTDC_SetWindowSize:LayerIdx <- [DW_OP_LLVM_entry_value 1] $r3
	.loc	5 1151 10                       @ ../Library/STM32F4xx_HAL_Driver/Src/stm32f4xx_hal_ltdc.c:1151:10
	ldr	r0, [r5]
	.loc	5 1151 25 is_stmt 0             @ ../Library/STM32F4xx_HAL_Driver/Src/stm32f4xx_hal_ltdc.c:1151:25
	str	r7, [r0, #36]
	movs	r0, #0
	.loc	5 1154 16 is_stmt 1             @ ../Library/STM32F4xx_HAL_Driver/Src/stm32f4xx_hal_ltdc.c:1154:16
	strb.w	r7, [r5, #161]
.Ltmp147:
	.loc	5 1157 3                        @ ../Library/STM32F4xx_HAL_Driver/Src/stm32f4xx_hal_ltdc.c:1157:3
	strb.w	r0, [r5, #160]
.Ltmp148:
.LBB18_2:
	@DEBUG_VALUE: HAL_LTDC_SetWindowSize:hltdc <- $r5
	.loc	5 1160 1                        @ ../Library/STM32F4xx_HAL_Driver/Src/stm32f4xx_hal_ltdc.c:1160:1
	add	sp, #4
	pop	{r4, r5, r6, r7, pc}
.Ltmp149:
.Lfunc_end18:
	.size	HAL_LTDC_SetWindowSize, .Lfunc_end18-HAL_LTDC_SetWindowSize
	.cfi_endproc
	.cantunwind
	.fnend
                                        @ -- End function
	.section	.text.HAL_LTDC_SetWindowPosition,"ax",%progbits
	.hidden	HAL_LTDC_SetWindowPosition      @ -- Begin function HAL_LTDC_SetWindowPosition
	.globl	HAL_LTDC_SetWindowPosition
	.p2align	1
	.type	HAL_LTDC_SetWindowPosition,%function
	.code	16                              @ @HAL_LTDC_SetWindowPosition
	.thumb_func
HAL_LTDC_SetWindowPosition:
.Lfunc_begin19:
	.loc	5 1174 0                        @ ../Library/STM32F4xx_HAL_Driver/Src/stm32f4xx_hal_ltdc.c:1174:0
	.fnstart
	.cfi_startproc
@ %bb.0:
	@DEBUG_VALUE: HAL_LTDC_SetWindowPosition:hltdc <- $r0
	@DEBUG_VALUE: HAL_LTDC_SetWindowPosition:X0 <- $r1
	@DEBUG_VALUE: HAL_LTDC_SetWindowPosition:Y0 <- $r2
	@DEBUG_VALUE: HAL_LTDC_SetWindowPosition:LayerIdx <- $r3
	.save	{r4, r5, r6, r7, lr}
	push	{r4, r5, r6, r7, lr}
	.cfi_def_cfa_offset 20
	.cfi_offset lr, -4
	.cfi_offset r7, -8
	.cfi_offset r6, -12
	.cfi_offset r5, -16
	.cfi_offset r4, -20
	.pad	#4
	sub	sp, #4
	.cfi_def_cfa_offset 24
	mov	r5, r0
	@DEBUG_VALUE: HAL_LTDC_SetWindowPosition:LayerIdx <- $r3
	@DEBUG_VALUE: HAL_LTDC_SetWindowPosition:Y0 <- $r2
.Ltmp150:
	@DEBUG_VALUE: HAL_LTDC_SetWindowPosition:hltdc <- $r5
	.loc	5 1183 3 prologue_end           @ ../Library/STM32F4xx_HAL_Driver/Src/stm32f4xx_hal_ltdc.c:1183:3
	ldrb.w	r0, [r0, #160]
.Ltmp151:
	@DEBUG_VALUE: HAL_LTDC_SetWindowPosition:X0 <- $r1
	.loc	5 1183 3 is_stmt 0              @ ../Library/STM32F4xx_HAL_Driver/Src/stm32f4xx_hal_ltdc.c:1183:3
	cmp	r0, #1
	mov.w	r0, #2
	beq	.LBB19_2
.Ltmp152:
@ %bb.1:
	@DEBUG_VALUE: HAL_LTDC_SetWindowPosition:hltdc <- $r5
	@DEBUG_VALUE: HAL_LTDC_SetWindowPosition:LayerIdx <- $r3
	@DEBUG_VALUE: HAL_LTDC_SetWindowPosition:Y0 <- $r2
	@DEBUG_VALUE: HAL_LTDC_SetWindowPosition:X0 <- $r1
	.loc	5 0 3                           @ ../Library/STM32F4xx_HAL_Driver/Src/stm32f4xx_hal_ltdc.c:0:3
	movs	r4, #52
	.loc	5 1189 16 is_stmt 1             @ ../Library/STM32F4xx_HAL_Driver/Src/stm32f4xx_hal_ltdc.c:1189:16
	mla	r4, r3, r4, r5
	movs	r7, #1
.Ltmp153:
	.loc	5 1183 3                        @ ../Library/STM32F4xx_HAL_Driver/Src/stm32f4xx_hal_ltdc.c:1183:3
	strb.w	r7, [r5, #160]
.Ltmp154:
	.loc	5 1186 16                       @ ../Library/STM32F4xx_HAL_Driver/Src/stm32f4xx_hal_ltdc.c:1186:16
	strb.w	r0, [r5, #161]
	.loc	5 1192 23                       @ ../Library/STM32F4xx_HAL_Driver/Src/stm32f4xx_hal_ltdc.c:1192:23
	str	r1, [r4, #56]!
.Ltmp155:
	@DEBUG_VALUE: HAL_LTDC_SetWindowPosition:pLayerCfg <- $r4
	.loc	5 1193 41                       @ ../Library/STM32F4xx_HAL_Driver/Src/stm32f4xx_hal_ltdc.c:1193:41
	ldrd	r0, r6, [r4, #40]
	.loc	5 1193 28 is_stmt 0             @ ../Library/STM32F4xx_HAL_Driver/Src/stm32f4xx_hal_ltdc.c:1193:28
	add	r0, r1
	.loc	5 1197 28 is_stmt 1             @ ../Library/STM32F4xx_HAL_Driver/Src/stm32f4xx_hal_ltdc.c:1197:28
	adds	r1, r6, r2
.Ltmp156:
	@DEBUG_VALUE: HAL_LTDC_SetWindowPosition:X0 <- [DW_OP_LLVM_entry_value 1] $r1
	.loc	5 1193 23                       @ ../Library/STM32F4xx_HAL_Driver/Src/stm32f4xx_hal_ltdc.c:1193:23
	strd	r0, r2, [r4, #4]
	.loc	5 1197 23                       @ ../Library/STM32F4xx_HAL_Driver/Src/stm32f4xx_hal_ltdc.c:1197:23
	str	r1, [r4, #12]
	.loc	5 1200 3                        @ ../Library/STM32F4xx_HAL_Driver/Src/stm32f4xx_hal_ltdc.c:1200:3
	mov	r0, r5
	mov	r1, r4
	mov	r2, r3
.Ltmp157:
	@DEBUG_VALUE: HAL_LTDC_SetWindowPosition:Y0 <- [DW_OP_LLVM_entry_value 1] $r2
	bl	LTDC_SetConfig
.Ltmp158:
	@DEBUG_VALUE: HAL_LTDC_SetWindowPosition:LayerIdx <- [DW_OP_LLVM_entry_value 1] $r3
	.loc	5 1203 10                       @ ../Library/STM32F4xx_HAL_Driver/Src/stm32f4xx_hal_ltdc.c:1203:10
	ldr	r0, [r5]
	.loc	5 1203 25 is_stmt 0             @ ../Library/STM32F4xx_HAL_Driver/Src/stm32f4xx_hal_ltdc.c:1203:25
	str	r7, [r0, #36]
	movs	r0, #0
	.loc	5 1206 16 is_stmt 1             @ ../Library/STM32F4xx_HAL_Driver/Src/stm32f4xx_hal_ltdc.c:1206:16
	strb.w	r7, [r5, #161]
.Ltmp159:
	.loc	5 1209 3                        @ ../Library/STM32F4xx_HAL_Driver/Src/stm32f4xx_hal_ltdc.c:1209:3
	strb.w	r0, [r5, #160]
.Ltmp160:
.LBB19_2:
	@DEBUG_VALUE: HAL_LTDC_SetWindowPosition:hltdc <- $r5
	.loc	5 1212 1                        @ ../Library/STM32F4xx_HAL_Driver/Src/stm32f4xx_hal_ltdc.c:1212:1
	add	sp, #4
	pop	{r4, r5, r6, r7, pc}
.Ltmp161:
.Lfunc_end19:
	.size	HAL_LTDC_SetWindowPosition, .Lfunc_end19-HAL_LTDC_SetWindowPosition
	.cfi_endproc
	.cantunwind
	.fnend
                                        @ -- End function
	.section	.text.HAL_LTDC_SetPixelFormat,"ax",%progbits
	.hidden	HAL_LTDC_SetPixelFormat         @ -- Begin function HAL_LTDC_SetPixelFormat
	.globl	HAL_LTDC_SetPixelFormat
	.p2align	1
	.type	HAL_LTDC_SetPixelFormat,%function
	.code	16                              @ @HAL_LTDC_SetPixelFormat
	.thumb_func
HAL_LTDC_SetPixelFormat:
.Lfunc_begin20:
	.loc	5 1225 0                        @ ../Library/STM32F4xx_HAL_Driver/Src/stm32f4xx_hal_ltdc.c:1225:0
	.fnstart
	.cfi_startproc
@ %bb.0:
	@DEBUG_VALUE: HAL_LTDC_SetPixelFormat:hltdc <- $r0
	@DEBUG_VALUE: HAL_LTDC_SetPixelFormat:Pixelformat <- $r1
	@DEBUG_VALUE: HAL_LTDC_SetPixelFormat:LayerIdx <- $r2
	.save	{r4, r5, r6, lr}
	push	{r4, r5, r6, lr}
	.cfi_def_cfa_offset 16
	.cfi_offset lr, -4
	.cfi_offset r6, -8
	.cfi_offset r5, -12
	.cfi_offset r4, -16
	mov	r4, r0
	@DEBUG_VALUE: HAL_LTDC_SetPixelFormat:LayerIdx <- $r2
.Ltmp162:
	@DEBUG_VALUE: HAL_LTDC_SetPixelFormat:hltdc <- $r4
	.loc	5 1233 3 prologue_end           @ ../Library/STM32F4xx_HAL_Driver/Src/stm32f4xx_hal_ltdc.c:1233:3
	ldrb.w	r0, [r0, #160]
.Ltmp163:
	@DEBUG_VALUE: HAL_LTDC_SetPixelFormat:Pixelformat <- $r1
	.loc	5 1233 3 is_stmt 0              @ ../Library/STM32F4xx_HAL_Driver/Src/stm32f4xx_hal_ltdc.c:1233:3
	cmp	r0, #1
	mov.w	r0, #2
.Ltmp164:
	.loc	5 1257 1 is_stmt 1              @ ../Library/STM32F4xx_HAL_Driver/Src/stm32f4xx_hal_ltdc.c:1257:1
	it	eq
	popeq	{r4, r5, r6, pc}
.Ltmp165:
.LBB20_1:
	@DEBUG_VALUE: HAL_LTDC_SetPixelFormat:LayerIdx <- $r2
	@DEBUG_VALUE: HAL_LTDC_SetPixelFormat:Pixelformat <- $r1
	.loc	5 0 1 is_stmt 0                 @ ../Library/STM32F4xx_HAL_Driver/Src/stm32f4xx_hal_ltdc.c:0:1
	movs	r3, #52
	.loc	5 1239 16 is_stmt 1             @ ../Library/STM32F4xx_HAL_Driver/Src/stm32f4xx_hal_ltdc.c:1239:16
	mla	r5, r2, r3, r4
	movs	r6, #1
	add.w	r3, r5, #56
.Ltmp166:
	@DEBUG_VALUE: HAL_LTDC_SetPixelFormat:pLayerCfg <- $r3
	.loc	5 1233 3                        @ ../Library/STM32F4xx_HAL_Driver/Src/stm32f4xx_hal_ltdc.c:1233:3
	strb.w	r6, [r4, #160]
.Ltmp167:
	.loc	5 1236 16                       @ ../Library/STM32F4xx_HAL_Driver/Src/stm32f4xx_hal_ltdc.c:1236:16
	strb.w	r0, [r4, #161]
	.loc	5 1242 26                       @ ../Library/STM32F4xx_HAL_Driver/Src/stm32f4xx_hal_ltdc.c:1242:26
	str	r1, [r5, #72]
	.loc	5 1245 3                        @ ../Library/STM32F4xx_HAL_Driver/Src/stm32f4xx_hal_ltdc.c:1245:3
	mov	r0, r4
	mov	r1, r3
.Ltmp168:
	@DEBUG_VALUE: HAL_LTDC_SetPixelFormat:Pixelformat <- [DW_OP_LLVM_entry_value 1] $r1
	bl	LTDC_SetConfig
.Ltmp169:
	@DEBUG_VALUE: HAL_LTDC_SetPixelFormat:LayerIdx <- [DW_OP_LLVM_entry_value 1] $r2
	.loc	5 1248 10                       @ ../Library/STM32F4xx_HAL_Driver/Src/stm32f4xx_hal_ltdc.c:1248:10
	ldr	r0, [r4]
	.loc	5 1248 25 is_stmt 0             @ ../Library/STM32F4xx_HAL_Driver/Src/stm32f4xx_hal_ltdc.c:1248:25
	str	r6, [r0, #36]
	movs	r0, #0
	.loc	5 1251 16 is_stmt 1             @ ../Library/STM32F4xx_HAL_Driver/Src/stm32f4xx_hal_ltdc.c:1251:16
	strb.w	r6, [r4, #161]
.Ltmp170:
	.loc	5 1254 3                        @ ../Library/STM32F4xx_HAL_Driver/Src/stm32f4xx_hal_ltdc.c:1254:3
	strb.w	r0, [r4, #160]
.Ltmp171:
	.loc	5 1257 1                        @ ../Library/STM32F4xx_HAL_Driver/Src/stm32f4xx_hal_ltdc.c:1257:1
	pop	{r4, r5, r6, pc}
.Ltmp172:
.Lfunc_end20:
	.size	HAL_LTDC_SetPixelFormat, .Lfunc_end20-HAL_LTDC_SetPixelFormat
	.cfi_endproc
	.cantunwind
	.fnend
                                        @ -- End function
	.section	.text.HAL_LTDC_SetAlpha,"ax",%progbits
	.hidden	HAL_LTDC_SetAlpha               @ -- Begin function HAL_LTDC_SetAlpha
	.globl	HAL_LTDC_SetAlpha
	.p2align	1
	.type	HAL_LTDC_SetAlpha,%function
	.code	16                              @ @HAL_LTDC_SetAlpha
	.thumb_func
HAL_LTDC_SetAlpha:
.Lfunc_begin21:
	.loc	5 1270 0                        @ ../Library/STM32F4xx_HAL_Driver/Src/stm32f4xx_hal_ltdc.c:1270:0
	.fnstart
	.cfi_startproc
@ %bb.0:
	@DEBUG_VALUE: HAL_LTDC_SetAlpha:hltdc <- $r0
	@DEBUG_VALUE: HAL_LTDC_SetAlpha:Alpha <- $r1
	@DEBUG_VALUE: HAL_LTDC_SetAlpha:LayerIdx <- $r2
	.save	{r4, r5, r6, lr}
	push	{r4, r5, r6, lr}
	.cfi_def_cfa_offset 16
	.cfi_offset lr, -4
	.cfi_offset r6, -8
	.cfi_offset r5, -12
	.cfi_offset r4, -16
	mov	r4, r0
	@DEBUG_VALUE: HAL_LTDC_SetAlpha:LayerIdx <- $r2
.Ltmp173:
	@DEBUG_VALUE: HAL_LTDC_SetAlpha:hltdc <- $r4
	.loc	5 1278 3 prologue_end           @ ../Library/STM32F4xx_HAL_Driver/Src/stm32f4xx_hal_ltdc.c:1278:3
	ldrb.w	r0, [r0, #160]
.Ltmp174:
	@DEBUG_VALUE: HAL_LTDC_SetAlpha:Alpha <- $r1
	.loc	5 1278 3 is_stmt 0              @ ../Library/STM32F4xx_HAL_Driver/Src/stm32f4xx_hal_ltdc.c:1278:3
	cmp	r0, #1
	mov.w	r0, #2
.Ltmp175:
	.loc	5 1302 1 is_stmt 1              @ ../Library/STM32F4xx_HAL_Driver/Src/stm32f4xx_hal_ltdc.c:1302:1
	it	eq
	popeq	{r4, r5, r6, pc}
.Ltmp176:
.LBB21_1:
	@DEBUG_VALUE: HAL_LTDC_SetAlpha:LayerIdx <- $r2
	@DEBUG_VALUE: HAL_LTDC_SetAlpha:Alpha <- $r1
	.loc	5 0 1 is_stmt 0                 @ ../Library/STM32F4xx_HAL_Driver/Src/stm32f4xx_hal_ltdc.c:0:1
	movs	r3, #52
	.loc	5 1284 16 is_stmt 1             @ ../Library/STM32F4xx_HAL_Driver/Src/stm32f4xx_hal_ltdc.c:1284:16
	mla	r5, r2, r3, r4
	movs	r6, #1
	add.w	r3, r5, #56
.Ltmp177:
	@DEBUG_VALUE: HAL_LTDC_SetAlpha:pLayerCfg <- $r3
	.loc	5 1278 3                        @ ../Library/STM32F4xx_HAL_Driver/Src/stm32f4xx_hal_ltdc.c:1278:3
	strb.w	r6, [r4, #160]
.Ltmp178:
	.loc	5 1281 16                       @ ../Library/STM32F4xx_HAL_Driver/Src/stm32f4xx_hal_ltdc.c:1281:16
	strb.w	r0, [r4, #161]
	.loc	5 1287 20                       @ ../Library/STM32F4xx_HAL_Driver/Src/stm32f4xx_hal_ltdc.c:1287:20
	str	r1, [r5, #76]
	.loc	5 1290 3                        @ ../Library/STM32F4xx_HAL_Driver/Src/stm32f4xx_hal_ltdc.c:1290:3
	mov	r0, r4
	mov	r1, r3
.Ltmp179:
	@DEBUG_VALUE: HAL_LTDC_SetAlpha:Alpha <- [DW_OP_LLVM_entry_value 1] $r1
	bl	LTDC_SetConfig
.Ltmp180:
	@DEBUG_VALUE: HAL_LTDC_SetAlpha:LayerIdx <- [DW_OP_LLVM_entry_value 1] $r2
	.loc	5 1293 10                       @ ../Library/STM32F4xx_HAL_Driver/Src/stm32f4xx_hal_ltdc.c:1293:10
	ldr	r0, [r4]
	.loc	5 1293 25 is_stmt 0             @ ../Library/STM32F4xx_HAL_Driver/Src/stm32f4xx_hal_ltdc.c:1293:25
	str	r6, [r0, #36]
	movs	r0, #0
	.loc	5 1296 16 is_stmt 1             @ ../Library/STM32F4xx_HAL_Driver/Src/stm32f4xx_hal_ltdc.c:1296:16
	strb.w	r6, [r4, #161]
.Ltmp181:
	.loc	5 1299 3                        @ ../Library/STM32F4xx_HAL_Driver/Src/stm32f4xx_hal_ltdc.c:1299:3
	strb.w	r0, [r4, #160]
.Ltmp182:
	.loc	5 1302 1                        @ ../Library/STM32F4xx_HAL_Driver/Src/stm32f4xx_hal_ltdc.c:1302:1
	pop	{r4, r5, r6, pc}
.Ltmp183:
.Lfunc_end21:
	.size	HAL_LTDC_SetAlpha, .Lfunc_end21-HAL_LTDC_SetAlpha
	.cfi_endproc
	.cantunwind
	.fnend
                                        @ -- End function
	.section	.text.HAL_LTDC_SetAddress,"ax",%progbits
	.hidden	HAL_LTDC_SetAddress             @ -- Begin function HAL_LTDC_SetAddress
	.globl	HAL_LTDC_SetAddress
	.p2align	1
	.type	HAL_LTDC_SetAddress,%function
	.code	16                              @ @HAL_LTDC_SetAddress
	.thumb_func
HAL_LTDC_SetAddress:
.Lfunc_begin22:
	.loc	5 1314 0                        @ ../Library/STM32F4xx_HAL_Driver/Src/stm32f4xx_hal_ltdc.c:1314:0
	.fnstart
	.cfi_startproc
@ %bb.0:
	@DEBUG_VALUE: HAL_LTDC_SetAddress:hltdc <- $r0
	@DEBUG_VALUE: HAL_LTDC_SetAddress:Address <- $r1
	@DEBUG_VALUE: HAL_LTDC_SetAddress:LayerIdx <- $r2
	.save	{r4, r5, r6, lr}
	push	{r4, r5, r6, lr}
	.cfi_def_cfa_offset 16
	.cfi_offset lr, -4
	.cfi_offset r6, -8
	.cfi_offset r5, -12
	.cfi_offset r4, -16
	mov	r4, r0
	@DEBUG_VALUE: HAL_LTDC_SetAddress:LayerIdx <- $r2
.Ltmp184:
	@DEBUG_VALUE: HAL_LTDC_SetAddress:hltdc <- $r4
	.loc	5 1321 3 prologue_end           @ ../Library/STM32F4xx_HAL_Driver/Src/stm32f4xx_hal_ltdc.c:1321:3
	ldrb.w	r0, [r0, #160]
.Ltmp185:
	@DEBUG_VALUE: HAL_LTDC_SetAddress:Address <- $r1
	.loc	5 1321 3 is_stmt 0              @ ../Library/STM32F4xx_HAL_Driver/Src/stm32f4xx_hal_ltdc.c:1321:3
	cmp	r0, #1
	mov.w	r0, #2
.Ltmp186:
	.loc	5 1345 1 is_stmt 1              @ ../Library/STM32F4xx_HAL_Driver/Src/stm32f4xx_hal_ltdc.c:1345:1
	it	eq
	popeq	{r4, r5, r6, pc}
.Ltmp187:
.LBB22_1:
	@DEBUG_VALUE: HAL_LTDC_SetAddress:LayerIdx <- $r2
	@DEBUG_VALUE: HAL_LTDC_SetAddress:Address <- $r1
	.loc	5 0 1 is_stmt 0                 @ ../Library/STM32F4xx_HAL_Driver/Src/stm32f4xx_hal_ltdc.c:0:1
	movs	r3, #52
	.loc	5 1327 16 is_stmt 1             @ ../Library/STM32F4xx_HAL_Driver/Src/stm32f4xx_hal_ltdc.c:1327:16
	mla	r5, r2, r3, r4
	movs	r6, #1
	add.w	r3, r5, #56
.Ltmp188:
	@DEBUG_VALUE: HAL_LTDC_SetAddress:pLayerCfg <- $r3
	.loc	5 1321 3                        @ ../Library/STM32F4xx_HAL_Driver/Src/stm32f4xx_hal_ltdc.c:1321:3
	strb.w	r6, [r4, #160]
.Ltmp189:
	.loc	5 1324 16                       @ ../Library/STM32F4xx_HAL_Driver/Src/stm32f4xx_hal_ltdc.c:1324:16
	strb.w	r0, [r4, #161]
	.loc	5 1330 28                       @ ../Library/STM32F4xx_HAL_Driver/Src/stm32f4xx_hal_ltdc.c:1330:28
	str	r1, [r5, #92]
	.loc	5 1333 3                        @ ../Library/STM32F4xx_HAL_Driver/Src/stm32f4xx_hal_ltdc.c:1333:3
	mov	r0, r4
	mov	r1, r3
.Ltmp190:
	@DEBUG_VALUE: HAL_LTDC_SetAddress:Address <- [DW_OP_LLVM_entry_value 1] $r1
	bl	LTDC_SetConfig
.Ltmp191:
	@DEBUG_VALUE: HAL_LTDC_SetAddress:LayerIdx <- [DW_OP_LLVM_entry_value 1] $r2
	.loc	5 1336 10                       @ ../Library/STM32F4xx_HAL_Driver/Src/stm32f4xx_hal_ltdc.c:1336:10
	ldr	r0, [r4]
	.loc	5 1336 25 is_stmt 0             @ ../Library/STM32F4xx_HAL_Driver/Src/stm32f4xx_hal_ltdc.c:1336:25
	str	r6, [r0, #36]
	movs	r0, #0
	.loc	5 1339 16 is_stmt 1             @ ../Library/STM32F4xx_HAL_Driver/Src/stm32f4xx_hal_ltdc.c:1339:16
	strb.w	r6, [r4, #161]
.Ltmp192:
	.loc	5 1342 3                        @ ../Library/STM32F4xx_HAL_Driver/Src/stm32f4xx_hal_ltdc.c:1342:3
	strb.w	r0, [r4, #160]
.Ltmp193:
	.loc	5 1345 1                        @ ../Library/STM32F4xx_HAL_Driver/Src/stm32f4xx_hal_ltdc.c:1345:1
	pop	{r4, r5, r6, pc}
.Ltmp194:
.Lfunc_end22:
	.size	HAL_LTDC_SetAddress, .Lfunc_end22-HAL_LTDC_SetAddress
	.cfi_endproc
	.cantunwind
	.fnend
                                        @ -- End function
	.section	.text.HAL_LTDC_SetPitch,"ax",%progbits
	.hidden	HAL_LTDC_SetPitch               @ -- Begin function HAL_LTDC_SetPitch
	.globl	HAL_LTDC_SetPitch
	.p2align	1
	.type	HAL_LTDC_SetPitch,%function
	.code	16                              @ @HAL_LTDC_SetPitch
	.thumb_func
HAL_LTDC_SetPitch:
.Lfunc_begin23:
	.loc	5 1361 0                        @ ../Library/STM32F4xx_HAL_Driver/Src/stm32f4xx_hal_ltdc.c:1361:0
	.fnstart
	.cfi_startproc
@ %bb.0:
	@DEBUG_VALUE: HAL_LTDC_SetPitch:hltdc <- $r0
	@DEBUG_VALUE: HAL_LTDC_SetPitch:hltdc <- $r0
	@DEBUG_VALUE: HAL_LTDC_SetPitch:LinePitchInPixels <- $r1
	@DEBUG_VALUE: HAL_LTDC_SetPitch:LayerIdx <- $r2
	@DEBUG_VALUE: HAL_LTDC_SetPitch:LayerIdx <- $r2
	.save	{r4, lr}
	push	{r4, lr}
	.cfi_def_cfa_offset 8
	.cfi_offset lr, -4
	.cfi_offset r4, -8
.Ltmp195:
	.loc	5 1370 3 prologue_end           @ ../Library/STM32F4xx_HAL_Driver/Src/stm32f4xx_hal_ltdc.c:1370:3
	ldrb.w	r3, [r0, #160]
	@DEBUG_VALUE: HAL_LTDC_SetPitch:LinePitchInPixels <- $r1
	mov.w	r12, #2
.Ltmp196:
	.loc	5 1370 3 is_stmt 0              @ ../Library/STM32F4xx_HAL_Driver/Src/stm32f4xx_hal_ltdc.c:1370:3
	cmp	r3, #1
	beq	.LBB23_4
.Ltmp197:
@ %bb.1:
	@DEBUG_VALUE: HAL_LTDC_SetPitch:LayerIdx <- $r2
	@DEBUG_VALUE: HAL_LTDC_SetPitch:LinePitchInPixels <- $r1
	@DEBUG_VALUE: HAL_LTDC_SetPitch:hltdc <- $r0
	.loc	5 0 3                           @ ../Library/STM32F4xx_HAL_Driver/Src/stm32f4xx_hal_ltdc.c:0:3
	movs	r3, #52
	.loc	5 1376 43 is_stmt 1             @ ../Library/STM32F4xx_HAL_Driver/Src/stm32f4xx_hal_ltdc.c:1376:43
	mla	r3, r2, r3, r0
	.loc	5 1373 16                       @ ../Library/STM32F4xx_HAL_Driver/Src/stm32f4xx_hal_ltdc.c:1373:16
	strb.w	r12, [r0, #161]
	.loc	5 1376 43                       @ ../Library/STM32F4xx_HAL_Driver/Src/stm32f4xx_hal_ltdc.c:1376:43
	ldr	r4, [r3, #72]
.Ltmp198:
	@DEBUG_VALUE: HAL_LTDC_SetPitch:pixelFormat <- $r4
	.loc	5 0 43 is_stmt 0                @ ../Library/STM32F4xx_HAL_Driver/Src/stm32f4xx_hal_ltdc.c:0:43
	mov.w	r12, #1
	.loc	5 1378 7 is_stmt 1              @ ../Library/STM32F4xx_HAL_Driver/Src/stm32f4xx_hal_ltdc.c:1378:7
	cmp	r4, #7
.Ltmp199:
	.loc	5 0 0 is_stmt 0                 @ ../Library/STM32F4xx_HAL_Driver/Src/stm32f4xx_hal_ltdc.c:0:0
	mov.w	lr, #1
.Ltmp200:
	.loc	5 1378 7                        @ ../Library/STM32F4xx_HAL_Driver/Src/stm32f4xx_hal_ltdc.c:1378:7
	bhi	.LBB23_3
.Ltmp201:
@ %bb.2:
	@DEBUG_VALUE: HAL_LTDC_SetPitch:pixelFormat <- $r4
	@DEBUG_VALUE: HAL_LTDC_SetPitch:LayerIdx <- $r2
	@DEBUG_VALUE: HAL_LTDC_SetPitch:LinePitchInPixels <- $r1
	@DEBUG_VALUE: HAL_LTDC_SetPitch:hltdc <- $r0
	movw	r3, :lower16:.Lswitch.table.HAL_LTDC_SetPitch_NoReload
	movt	r3, :upper16:.Lswitch.table.HAL_LTDC_SetPitch_NoReload
	ldr.w	lr, [r3, r4, lsl #2]
.Ltmp202:
.LBB23_3:
	@DEBUG_VALUE: HAL_LTDC_SetPitch:pixelFormat <- $r4
	@DEBUG_VALUE: HAL_LTDC_SetPitch:LayerIdx <- $r2
	@DEBUG_VALUE: HAL_LTDC_SetPitch:LinePitchInPixels <- $r1
	@DEBUG_VALUE: HAL_LTDC_SetPitch:hltdc <- $r0
	@DEBUG_VALUE: HAL_LTDC_SetPitch:tmp <- $lr
	.loc	5 1401 3 is_stmt 1              @ ../Library/STM32F4xx_HAL_Driver/Src/stm32f4xx_hal_ltdc.c:1401:3
	ldr	r3, [r0]
	.loc	5 1398 44                       @ ../Library/STM32F4xx_HAL_Driver/Src/stm32f4xx_hal_ltdc.c:1398:44
	mul	r1, r1, lr
.Ltmp203:
	@DEBUG_VALUE: HAL_LTDC_SetPitch:LinePitchInPixels <- [DW_OP_LLVM_entry_value 1] $r1
	@DEBUG_VALUE: HAL_LTDC_SetPitch:pitchUpdate <- undef
	.loc	5 1401 3                        @ ../Library/STM32F4xx_HAL_Driver/Src/stm32f4xx_hal_ltdc.c:1401:3
	add.w	r2, r3, r2, lsl #7
.Ltmp204:
	@DEBUG_VALUE: HAL_LTDC_SetPitch:LayerIdx <- [DW_OP_LLVM_entry_value 1] $r2
	.loc	5 1401 38 is_stmt 0             @ ../Library/STM32F4xx_HAL_Driver/Src/stm32f4xx_hal_ltdc.c:1401:38
	ldr.w	r3, [r2, #176]
	bfc	r3, #16, #13
	str.w	r3, [r2, #176]
	movw	r3, #26660
	movt	r3, #16385
	.loc	5 1404 14 is_stmt 1             @ ../Library/STM32F4xx_HAL_Driver/Src/stm32f4xx_hal_ltdc.c:1404:14
	ldr	r4, [r3]
.Ltmp205:
	orr	r4, r4, #1
	str	r4, [r3]
	.loc	5 1407 38                       @ ../Library/STM32F4xx_HAL_Driver/Src/stm32f4xx_hal_ltdc.c:1407:38
	ldr.w	r4, [r2, #176]
	orr.w	r1, r4, r1, lsl #16
	str.w	r1, [r2, #176]
	.loc	5 1410 14                       @ ../Library/STM32F4xx_HAL_Driver/Src/stm32f4xx_hal_ltdc.c:1410:14
	ldr	r1, [r3]
	orr	r1, r1, #1
	str	r1, [r3]
	.loc	5 1413 16                       @ ../Library/STM32F4xx_HAL_Driver/Src/stm32f4xx_hal_ltdc.c:1413:16
	strb.w	r12, [r0, #161]
	mov.w	r12, #0
.Ltmp206:
	.loc	5 1416 3                        @ ../Library/STM32F4xx_HAL_Driver/Src/stm32f4xx_hal_ltdc.c:1416:3
	strb.w	r12, [r0, #160]
.Ltmp207:
.LBB23_4:
	@DEBUG_VALUE: HAL_LTDC_SetPitch:hltdc <- $r0
	.loc	5 1419 1                        @ ../Library/STM32F4xx_HAL_Driver/Src/stm32f4xx_hal_ltdc.c:1419:1
	mov	r0, r12
.Ltmp208:
	@DEBUG_VALUE: HAL_LTDC_SetPitch:hltdc <- [DW_OP_LLVM_entry_value 1] $r0
	pop	{r4, pc}
.Ltmp209:
.Lfunc_end23:
	.size	HAL_LTDC_SetPitch, .Lfunc_end23-HAL_LTDC_SetPitch
	.cfi_endproc
	.cantunwind
	.fnend
                                        @ -- End function
	.section	.text.HAL_LTDC_ProgramLineEvent,"ax",%progbits
	.hidden	HAL_LTDC_ProgramLineEvent       @ -- Begin function HAL_LTDC_ProgramLineEvent
	.globl	HAL_LTDC_ProgramLineEvent
	.p2align	1
	.type	HAL_LTDC_ProgramLineEvent,%function
	.code	16                              @ @HAL_LTDC_ProgramLineEvent
	.thumb_func
HAL_LTDC_ProgramLineEvent:
.Lfunc_begin24:
	.loc	5 1430 0                        @ ../Library/STM32F4xx_HAL_Driver/Src/stm32f4xx_hal_ltdc.c:1430:0
	.fnstart
	.cfi_startproc
@ %bb.0:
	@DEBUG_VALUE: HAL_LTDC_ProgramLineEvent:hltdc <- $r0
	@DEBUG_VALUE: HAL_LTDC_ProgramLineEvent:hltdc <- $r0
	@DEBUG_VALUE: HAL_LTDC_ProgramLineEvent:Line <- $r1
	.loc	5 1435 3 prologue_end           @ ../Library/STM32F4xx_HAL_Driver/Src/stm32f4xx_hal_ltdc.c:1435:3
	ldrb.w	r2, [r0, #160]
.Ltmp210:
	@DEBUG_VALUE: HAL_LTDC_ProgramLineEvent:Line <- $r1
	.loc	5 1435 3 is_stmt 0              @ ../Library/STM32F4xx_HAL_Driver/Src/stm32f4xx_hal_ltdc.c:1435:3
	cmp	r2, #1
	mov.w	r2, #2
	beq	.LBB24_2
.Ltmp211:
@ %bb.1:
	@DEBUG_VALUE: HAL_LTDC_ProgramLineEvent:Line <- $r1
	@DEBUG_VALUE: HAL_LTDC_ProgramLineEvent:hltdc <- $r0
	.loc	5 1438 16 is_stmt 1             @ ../Library/STM32F4xx_HAL_Driver/Src/stm32f4xx_hal_ltdc.c:1438:16
	strb.w	r2, [r0, #161]
	.loc	5 1441 3                        @ ../Library/STM32F4xx_HAL_Driver/Src/stm32f4xx_hal_ltdc.c:1441:3
	ldr	r2, [r0]
	ldr	r3, [r2, #52]
	bic	r3, r3, #1
	str	r3, [r2, #52]
	movw	r3, #26688
	movt	r3, #16385
	.loc	5 1444 15                       @ ../Library/STM32F4xx_HAL_Driver/Src/stm32f4xx_hal_ltdc.c:1444:15
	str	r1, [r3]
	.loc	5 1447 3                        @ ../Library/STM32F4xx_HAL_Driver/Src/stm32f4xx_hal_ltdc.c:1447:3
	ldr	r1, [r2, #52]
.Ltmp212:
	@DEBUG_VALUE: HAL_LTDC_ProgramLineEvent:Line <- [DW_OP_LLVM_entry_value 1] $r1
	orr	r1, r1, #1
	str	r1, [r2, #52]
	movs	r1, #1
	movs	r2, #0
	.loc	5 1450 16                       @ ../Library/STM32F4xx_HAL_Driver/Src/stm32f4xx_hal_ltdc.c:1450:16
	strb.w	r1, [r0, #161]
.Ltmp213:
	.loc	5 1453 3                        @ ../Library/STM32F4xx_HAL_Driver/Src/stm32f4xx_hal_ltdc.c:1453:3
	strb.w	r2, [r0, #160]
.Ltmp214:
.LBB24_2:
	@DEBUG_VALUE: HAL_LTDC_ProgramLineEvent:hltdc <- $r0
	.loc	5 1456 1                        @ ../Library/STM32F4xx_HAL_Driver/Src/stm32f4xx_hal_ltdc.c:1456:1
	mov	r0, r2
.Ltmp215:
	@DEBUG_VALUE: HAL_LTDC_ProgramLineEvent:hltdc <- [DW_OP_LLVM_entry_value 1] $r0
	bx	lr
.Ltmp216:
.Lfunc_end24:
	.size	HAL_LTDC_ProgramLineEvent, .Lfunc_end24-HAL_LTDC_ProgramLineEvent
	.cfi_endproc
	.cantunwind
	.fnend
                                        @ -- End function
	.section	.text.HAL_LTDC_Reload,"ax",%progbits
	.hidden	HAL_LTDC_Reload                 @ -- Begin function HAL_LTDC_Reload
	.globl	HAL_LTDC_Reload
	.p2align	1
	.type	HAL_LTDC_Reload,%function
	.code	16                              @ @HAL_LTDC_Reload
	.thumb_func
HAL_LTDC_Reload:
.Lfunc_begin25:
	.loc	5 1469 0                        @ ../Library/STM32F4xx_HAL_Driver/Src/stm32f4xx_hal_ltdc.c:1469:0
	.fnstart
	.cfi_startproc
@ %bb.0:
	@DEBUG_VALUE: HAL_LTDC_Reload:hltdc <- $r0
	@DEBUG_VALUE: HAL_LTDC_Reload:hltdc <- $r0
	@DEBUG_VALUE: HAL_LTDC_Reload:ReloadType <- $r1
	.loc	5 1474 3 prologue_end           @ ../Library/STM32F4xx_HAL_Driver/Src/stm32f4xx_hal_ltdc.c:1474:3
	ldrb.w	r2, [r0, #160]
.Ltmp217:
	@DEBUG_VALUE: HAL_LTDC_Reload:ReloadType <- $r1
	.loc	5 1474 3 is_stmt 0              @ ../Library/STM32F4xx_HAL_Driver/Src/stm32f4xx_hal_ltdc.c:1474:3
	cmp	r2, #1
	mov.w	r2, #2
	beq	.LBB25_2
.Ltmp218:
@ %bb.1:
	@DEBUG_VALUE: HAL_LTDC_Reload:ReloadType <- $r1
	@DEBUG_VALUE: HAL_LTDC_Reload:hltdc <- $r0
	.loc	5 1477 16 is_stmt 1             @ ../Library/STM32F4xx_HAL_Driver/Src/stm32f4xx_hal_ltdc.c:1477:16
	strb.w	r2, [r0, #161]
	.loc	5 1480 3                        @ ../Library/STM32F4xx_HAL_Driver/Src/stm32f4xx_hal_ltdc.c:1480:3
	ldr	r2, [r0]
	ldr	r3, [r2, #52]
	orr	r3, r3, #8
	str	r3, [r2, #52]
	.loc	5 1483 25                       @ ../Library/STM32F4xx_HAL_Driver/Src/stm32f4xx_hal_ltdc.c:1483:25
	str	r1, [r2, #36]
	movs	r1, #1
.Ltmp219:
	@DEBUG_VALUE: HAL_LTDC_Reload:ReloadType <- [DW_OP_LLVM_entry_value 1] $r1
	.loc	5 0 25 is_stmt 0                @ ../Library/STM32F4xx_HAL_Driver/Src/stm32f4xx_hal_ltdc.c:0:25
	movs	r2, #0
	.loc	5 1486 16 is_stmt 1             @ ../Library/STM32F4xx_HAL_Driver/Src/stm32f4xx_hal_ltdc.c:1486:16
	strb.w	r1, [r0, #161]
.Ltmp220:
	.loc	5 1489 3                        @ ../Library/STM32F4xx_HAL_Driver/Src/stm32f4xx_hal_ltdc.c:1489:3
	strb.w	r2, [r0, #160]
.Ltmp221:
.LBB25_2:
	@DEBUG_VALUE: HAL_LTDC_Reload:hltdc <- $r0
	.loc	5 1492 1                        @ ../Library/STM32F4xx_HAL_Driver/Src/stm32f4xx_hal_ltdc.c:1492:1
	mov	r0, r2
.Ltmp222:
	@DEBUG_VALUE: HAL_LTDC_Reload:hltdc <- [DW_OP_LLVM_entry_value 1] $r0
	bx	lr
.Ltmp223:
.Lfunc_end25:
	.size	HAL_LTDC_Reload, .Lfunc_end25-HAL_LTDC_Reload
	.cfi_endproc
	.cantunwind
	.fnend
                                        @ -- End function
	.section	.text.HAL_LTDC_ConfigLayer_NoReload,"ax",%progbits
	.hidden	HAL_LTDC_ConfigLayer_NoReload   @ -- Begin function HAL_LTDC_ConfigLayer_NoReload
	.globl	HAL_LTDC_ConfigLayer_NoReload
	.p2align	1
	.type	HAL_LTDC_ConfigLayer_NoReload,%function
	.code	16                              @ @HAL_LTDC_ConfigLayer_NoReload
	.thumb_func
HAL_LTDC_ConfigLayer_NoReload:
.Lfunc_begin26:
	.loc	5 1508 0                        @ ../Library/STM32F4xx_HAL_Driver/Src/stm32f4xx_hal_ltdc.c:1508:0
	.fnstart
	.cfi_startproc
@ %bb.0:
	@DEBUG_VALUE: HAL_LTDC_ConfigLayer_NoReload:hltdc <- $r0
	@DEBUG_VALUE: HAL_LTDC_ConfigLayer_NoReload:pLayerCfg <- $r1
	@DEBUG_VALUE: HAL_LTDC_ConfigLayer_NoReload:LayerIdx <- $r2
	.save	{r4, r5, r6, r7, r8, lr}
	push.w	{r4, r5, r6, r7, r8, lr}
	.cfi_def_cfa_offset 24
	.cfi_offset lr, -4
	.cfi_offset r8, -8
	.cfi_offset r7, -12
	.cfi_offset r6, -16
	.cfi_offset r5, -20
	.cfi_offset r4, -24
	mov	r4, r0
	@DEBUG_VALUE: HAL_LTDC_ConfigLayer_NoReload:LayerIdx <- $r2
.Ltmp224:
	@DEBUG_VALUE: HAL_LTDC_ConfigLayer_NoReload:hltdc <- $r4
	.loc	5 1524 3 prologue_end           @ ../Library/STM32F4xx_HAL_Driver/Src/stm32f4xx_hal_ltdc.c:1524:3
	ldrb.w	r0, [r0, #160]
.Ltmp225:
	@DEBUG_VALUE: HAL_LTDC_ConfigLayer_NoReload:pLayerCfg <- $r1
	.loc	5 1524 3 is_stmt 0              @ ../Library/STM32F4xx_HAL_Driver/Src/stm32f4xx_hal_ltdc.c:1524:3
	cmp	r0, #1
	mov.w	r0, #2
.Ltmp226:
	.loc	5 1542 1 is_stmt 1              @ ../Library/STM32F4xx_HAL_Driver/Src/stm32f4xx_hal_ltdc.c:1542:1
	it	eq
	popeq.w	{r4, r5, r6, r7, r8, pc}
.Ltmp227:
.LBB26_1:
	@DEBUG_VALUE: HAL_LTDC_ConfigLayer_NoReload:LayerIdx <- $r2
	@DEBUG_VALUE: HAL_LTDC_ConfigLayer_NoReload:pLayerCfg <- $r1
	.loc	5 0 1 is_stmt 0                 @ ../Library/STM32F4xx_HAL_Driver/Src/stm32f4xx_hal_ltdc.c:0:1
	mov.w	r8, #1
.Ltmp228:
	.loc	5 1524 3 is_stmt 1              @ ../Library/STM32F4xx_HAL_Driver/Src/stm32f4xx_hal_ltdc.c:1524:3
	strb.w	r8, [r4, #160]
.Ltmp229:
	.loc	5 1527 16                       @ ../Library/STM32F4xx_HAL_Driver/Src/stm32f4xx_hal_ltdc.c:1527:16
	strb.w	r0, [r4, #161]
	movs	r0, #52
	.loc	5 1530 3                        @ ../Library/STM32F4xx_HAL_Driver/Src/stm32f4xx_hal_ltdc.c:1530:3
	mla	r0, r2, r0, r4
	.loc	5 1530 31 is_stmt 0             @ ../Library/STM32F4xx_HAL_Driver/Src/stm32f4xx_hal_ltdc.c:1530:31
	ldrd	r12, lr, [r1]
	ldrd	r6, r7, [r1, #8]
	ldrd	r5, r3, [r1, #16]
	strd	r6, r7, [r0, #64]
	strd	r5, r3, [r0, #72]
	strd	r12, lr, [r0, #56]
	ldrd	r12, lr, [r1, #24]
	ldrd	r6, r5, [r1, #32]
	ldrd	r7, r3, [r1, #40]
	strd	r6, r5, [r0, #88]
	strd	r7, r3, [r0, #96]
	strd	r12, lr, [r0, #80]
	ldr	r3, [r1, #48]
	str	r3, [r0, #104]
	.loc	5 1533 3 is_stmt 1              @ ../Library/STM32F4xx_HAL_Driver/Src/stm32f4xx_hal_ltdc.c:1533:3
	mov	r0, r4
	bl	LTDC_SetConfig
.Ltmp230:
	@DEBUG_VALUE: HAL_LTDC_ConfigLayer_NoReload:LayerIdx <- [DW_OP_LLVM_entry_value 1] $r2
	@DEBUG_VALUE: HAL_LTDC_ConfigLayer_NoReload:pLayerCfg <- [DW_OP_LLVM_entry_value 1] $r1
	.loc	5 0 3 is_stmt 0                 @ ../Library/STM32F4xx_HAL_Driver/Src/stm32f4xx_hal_ltdc.c:0:3
	movs	r0, #0
	.loc	5 1536 17 is_stmt 1             @ ../Library/STM32F4xx_HAL_Driver/Src/stm32f4xx_hal_ltdc.c:1536:17
	strb.w	r8, [r4, #161]
.Ltmp231:
	.loc	5 1539 3                        @ ../Library/STM32F4xx_HAL_Driver/Src/stm32f4xx_hal_ltdc.c:1539:3
	strb.w	r0, [r4, #160]
.Ltmp232:
	.loc	5 1542 1                        @ ../Library/STM32F4xx_HAL_Driver/Src/stm32f4xx_hal_ltdc.c:1542:1
	pop.w	{r4, r5, r6, r7, r8, pc}
.Ltmp233:
.Lfunc_end26:
	.size	HAL_LTDC_ConfigLayer_NoReload, .Lfunc_end26-HAL_LTDC_ConfigLayer_NoReload
	.cfi_endproc
	.cantunwind
	.fnend
                                        @ -- End function
	.section	.text.HAL_LTDC_SetWindowSize_NoReload,"ax",%progbits
	.hidden	HAL_LTDC_SetWindowSize_NoReload @ -- Begin function HAL_LTDC_SetWindowSize_NoReload
	.globl	HAL_LTDC_SetWindowSize_NoReload
	.p2align	1
	.type	HAL_LTDC_SetWindowSize_NoReload,%function
	.code	16                              @ @HAL_LTDC_SetWindowSize_NoReload
	.thumb_func
HAL_LTDC_SetWindowSize_NoReload:
.Lfunc_begin27:
	.loc	5 1557 0                        @ ../Library/STM32F4xx_HAL_Driver/Src/stm32f4xx_hal_ltdc.c:1557:0
	.fnstart
	.cfi_startproc
@ %bb.0:
	@DEBUG_VALUE: HAL_LTDC_SetWindowSize_NoReload:hltdc <- $r0
	@DEBUG_VALUE: HAL_LTDC_SetWindowSize_NoReload:XSize <- $r1
	@DEBUG_VALUE: HAL_LTDC_SetWindowSize_NoReload:YSize <- $r2
	@DEBUG_VALUE: HAL_LTDC_SetWindowSize_NoReload:LayerIdx <- $r3
	.save	{r4, r5, r6, r7, lr}
	push	{r4, r5, r6, r7, lr}
	.cfi_def_cfa_offset 20
	.cfi_offset lr, -4
	.cfi_offset r7, -8
	.cfi_offset r6, -12
	.cfi_offset r5, -16
	.cfi_offset r4, -20
	.pad	#4
	sub	sp, #4
	.cfi_def_cfa_offset 24
	mov	r5, r0
	@DEBUG_VALUE: HAL_LTDC_SetWindowSize_NoReload:LayerIdx <- $r3
	@DEBUG_VALUE: HAL_LTDC_SetWindowSize_NoReload:YSize <- $r2
.Ltmp234:
	@DEBUG_VALUE: HAL_LTDC_SetWindowSize_NoReload:hltdc <- $r5
	.loc	5 1566 3 prologue_end           @ ../Library/STM32F4xx_HAL_Driver/Src/stm32f4xx_hal_ltdc.c:1566:3
	ldrb.w	r0, [r0, #160]
.Ltmp235:
	@DEBUG_VALUE: HAL_LTDC_SetWindowSize_NoReload:XSize <- $r1
	.loc	5 1566 3 is_stmt 0              @ ../Library/STM32F4xx_HAL_Driver/Src/stm32f4xx_hal_ltdc.c:1566:3
	cmp	r0, #1
	mov.w	r0, #2
	beq	.LBB27_2
.Ltmp236:
@ %bb.1:
	@DEBUG_VALUE: HAL_LTDC_SetWindowSize_NoReload:hltdc <- $r5
	@DEBUG_VALUE: HAL_LTDC_SetWindowSize_NoReload:LayerIdx <- $r3
	@DEBUG_VALUE: HAL_LTDC_SetWindowSize_NoReload:YSize <- $r2
	@DEBUG_VALUE: HAL_LTDC_SetWindowSize_NoReload:XSize <- $r1
	.loc	5 0 3                           @ ../Library/STM32F4xx_HAL_Driver/Src/stm32f4xx_hal_ltdc.c:0:3
	movs	r4, #52
	movs	r7, #1
	.loc	5 1572 16 is_stmt 1             @ ../Library/STM32F4xx_HAL_Driver/Src/stm32f4xx_hal_ltdc.c:1572:16
	mla	r4, r3, r4, r5
.Ltmp237:
	.loc	5 1566 3                        @ ../Library/STM32F4xx_HAL_Driver/Src/stm32f4xx_hal_ltdc.c:1566:3
	strb.w	r7, [r5, #160]
.Ltmp238:
	.loc	5 1569 16                       @ ../Library/STM32F4xx_HAL_Driver/Src/stm32f4xx_hal_ltdc.c:1569:16
	strb.w	r0, [r5, #161]
	.loc	5 1575 44                       @ ../Library/STM32F4xx_HAL_Driver/Src/stm32f4xx_hal_ltdc.c:1575:44
	ldr	r0, [r4, #56]!
.Ltmp239:
	@DEBUG_VALUE: HAL_LTDC_SetWindowSize_NoReload:pLayerCfg <- $r4
	.loc	5 1578 44                       @ ../Library/STM32F4xx_HAL_Driver/Src/stm32f4xx_hal_ltdc.c:1578:44
	ldr	r6, [r4, #8]
	.loc	5 1575 31                       @ ../Library/STM32F4xx_HAL_Driver/Src/stm32f4xx_hal_ltdc.c:1575:31
	add	r0, r1
	.loc	5 1575 23 is_stmt 0             @ ../Library/STM32F4xx_HAL_Driver/Src/stm32f4xx_hal_ltdc.c:1575:23
	str	r0, [r4, #4]
	.loc	5 1578 31 is_stmt 1             @ ../Library/STM32F4xx_HAL_Driver/Src/stm32f4xx_hal_ltdc.c:1578:31
	adds	r0, r6, r2
	.loc	5 1578 23 is_stmt 0             @ ../Library/STM32F4xx_HAL_Driver/Src/stm32f4xx_hal_ltdc.c:1578:23
	str	r0, [r4, #12]
	.loc	5 1581 25 is_stmt 1             @ ../Library/STM32F4xx_HAL_Driver/Src/stm32f4xx_hal_ltdc.c:1581:25
	strd	r1, r2, [r4, #40]
	.loc	5 1587 3                        @ ../Library/STM32F4xx_HAL_Driver/Src/stm32f4xx_hal_ltdc.c:1587:3
	mov	r0, r5
	mov	r1, r4
.Ltmp240:
	@DEBUG_VALUE: HAL_LTDC_SetWindowSize_NoReload:XSize <- [DW_OP_LLVM_entry_value 1] $r1
	mov	r2, r3
.Ltmp241:
	@DEBUG_VALUE: HAL_LTDC_SetWindowSize_NoReload:YSize <- [DW_OP_LLVM_entry_value 1] $r2
	bl	LTDC_SetConfig
.Ltmp242:
	@DEBUG_VALUE: HAL_LTDC_SetWindowSize_NoReload:LayerIdx <- [DW_OP_LLVM_entry_value 1] $r3
	.loc	5 0 3 is_stmt 0                 @ ../Library/STM32F4xx_HAL_Driver/Src/stm32f4xx_hal_ltdc.c:0:3
	movs	r0, #0
	.loc	5 1590 16 is_stmt 1             @ ../Library/STM32F4xx_HAL_Driver/Src/stm32f4xx_hal_ltdc.c:1590:16
	strb.w	r7, [r5, #161]
.Ltmp243:
	.loc	5 1593 3                        @ ../Library/STM32F4xx_HAL_Driver/Src/stm32f4xx_hal_ltdc.c:1593:3
	strb.w	r0, [r5, #160]
.Ltmp244:
.LBB27_2:
	@DEBUG_VALUE: HAL_LTDC_SetWindowSize_NoReload:hltdc <- $r5
	.loc	5 1596 1                        @ ../Library/STM32F4xx_HAL_Driver/Src/stm32f4xx_hal_ltdc.c:1596:1
	add	sp, #4
	pop	{r4, r5, r6, r7, pc}
.Ltmp245:
.Lfunc_end27:
	.size	HAL_LTDC_SetWindowSize_NoReload, .Lfunc_end27-HAL_LTDC_SetWindowSize_NoReload
	.cfi_endproc
	.cantunwind
	.fnend
                                        @ -- End function
	.section	.text.HAL_LTDC_SetWindowPosition_NoReload,"ax",%progbits
	.hidden	HAL_LTDC_SetWindowPosition_NoReload @ -- Begin function HAL_LTDC_SetWindowPosition_NoReload
	.globl	HAL_LTDC_SetWindowPosition_NoReload
	.p2align	1
	.type	HAL_LTDC_SetWindowPosition_NoReload,%function
	.code	16                              @ @HAL_LTDC_SetWindowPosition_NoReload
	.thumb_func
HAL_LTDC_SetWindowPosition_NoReload:
.Lfunc_begin28:
	.loc	5 1611 0                        @ ../Library/STM32F4xx_HAL_Driver/Src/stm32f4xx_hal_ltdc.c:1611:0
	.fnstart
	.cfi_startproc
@ %bb.0:
	@DEBUG_VALUE: HAL_LTDC_SetWindowPosition_NoReload:hltdc <- $r0
	@DEBUG_VALUE: HAL_LTDC_SetWindowPosition_NoReload:X0 <- $r1
	@DEBUG_VALUE: HAL_LTDC_SetWindowPosition_NoReload:Y0 <- $r2
	@DEBUG_VALUE: HAL_LTDC_SetWindowPosition_NoReload:LayerIdx <- $r3
	.save	{r4, r5, r6, r7, lr}
	push	{r4, r5, r6, r7, lr}
	.cfi_def_cfa_offset 20
	.cfi_offset lr, -4
	.cfi_offset r7, -8
	.cfi_offset r6, -12
	.cfi_offset r5, -16
	.cfi_offset r4, -20
	.pad	#4
	sub	sp, #4
	.cfi_def_cfa_offset 24
	mov	r5, r0
	@DEBUG_VALUE: HAL_LTDC_SetWindowPosition_NoReload:LayerIdx <- $r3
	@DEBUG_VALUE: HAL_LTDC_SetWindowPosition_NoReload:Y0 <- $r2
.Ltmp246:
	@DEBUG_VALUE: HAL_LTDC_SetWindowPosition_NoReload:hltdc <- $r5
	.loc	5 1620 3 prologue_end           @ ../Library/STM32F4xx_HAL_Driver/Src/stm32f4xx_hal_ltdc.c:1620:3
	ldrb.w	r0, [r0, #160]
.Ltmp247:
	@DEBUG_VALUE: HAL_LTDC_SetWindowPosition_NoReload:X0 <- $r1
	.loc	5 1620 3 is_stmt 0              @ ../Library/STM32F4xx_HAL_Driver/Src/stm32f4xx_hal_ltdc.c:1620:3
	cmp	r0, #1
	mov.w	r0, #2
	beq	.LBB28_2
.Ltmp248:
@ %bb.1:
	@DEBUG_VALUE: HAL_LTDC_SetWindowPosition_NoReload:hltdc <- $r5
	@DEBUG_VALUE: HAL_LTDC_SetWindowPosition_NoReload:LayerIdx <- $r3
	@DEBUG_VALUE: HAL_LTDC_SetWindowPosition_NoReload:Y0 <- $r2
	@DEBUG_VALUE: HAL_LTDC_SetWindowPosition_NoReload:X0 <- $r1
	.loc	5 0 3                           @ ../Library/STM32F4xx_HAL_Driver/Src/stm32f4xx_hal_ltdc.c:0:3
	movs	r4, #52
	.loc	5 1626 16 is_stmt 1             @ ../Library/STM32F4xx_HAL_Driver/Src/stm32f4xx_hal_ltdc.c:1626:16
	mla	r4, r3, r4, r5
	movs	r7, #1
.Ltmp249:
	.loc	5 1620 3                        @ ../Library/STM32F4xx_HAL_Driver/Src/stm32f4xx_hal_ltdc.c:1620:3
	strb.w	r7, [r5, #160]
.Ltmp250:
	.loc	5 1623 16                       @ ../Library/STM32F4xx_HAL_Driver/Src/stm32f4xx_hal_ltdc.c:1623:16
	strb.w	r0, [r5, #161]
	.loc	5 1629 23                       @ ../Library/STM32F4xx_HAL_Driver/Src/stm32f4xx_hal_ltdc.c:1629:23
	str	r1, [r4, #56]!
.Ltmp251:
	@DEBUG_VALUE: HAL_LTDC_SetWindowPosition_NoReload:pLayerCfg <- $r4
	.loc	5 1630 41                       @ ../Library/STM32F4xx_HAL_Driver/Src/stm32f4xx_hal_ltdc.c:1630:41
	ldrd	r0, r6, [r4, #40]
	.loc	5 1630 28 is_stmt 0             @ ../Library/STM32F4xx_HAL_Driver/Src/stm32f4xx_hal_ltdc.c:1630:28
	add	r0, r1
	.loc	5 1634 28 is_stmt 1             @ ../Library/STM32F4xx_HAL_Driver/Src/stm32f4xx_hal_ltdc.c:1634:28
	adds	r1, r6, r2
.Ltmp252:
	@DEBUG_VALUE: HAL_LTDC_SetWindowPosition_NoReload:X0 <- [DW_OP_LLVM_entry_value 1] $r1
	.loc	5 1630 23                       @ ../Library/STM32F4xx_HAL_Driver/Src/stm32f4xx_hal_ltdc.c:1630:23
	strd	r0, r2, [r4, #4]
	.loc	5 1634 23                       @ ../Library/STM32F4xx_HAL_Driver/Src/stm32f4xx_hal_ltdc.c:1634:23
	str	r1, [r4, #12]
	.loc	5 1637 3                        @ ../Library/STM32F4xx_HAL_Driver/Src/stm32f4xx_hal_ltdc.c:1637:3
	mov	r0, r5
	mov	r1, r4
	mov	r2, r3
.Ltmp253:
	@DEBUG_VALUE: HAL_LTDC_SetWindowPosition_NoReload:Y0 <- [DW_OP_LLVM_entry_value 1] $r2
	bl	LTDC_SetConfig
.Ltmp254:
	@DEBUG_VALUE: HAL_LTDC_SetWindowPosition_NoReload:LayerIdx <- [DW_OP_LLVM_entry_value 1] $r3
	.loc	5 0 3 is_stmt 0                 @ ../Library/STM32F4xx_HAL_Driver/Src/stm32f4xx_hal_ltdc.c:0:3
	movs	r0, #0
	.loc	5 1640 16 is_stmt 1             @ ../Library/STM32F4xx_HAL_Driver/Src/stm32f4xx_hal_ltdc.c:1640:16
	strb.w	r7, [r5, #161]
.Ltmp255:
	.loc	5 1643 3                        @ ../Library/STM32F4xx_HAL_Driver/Src/stm32f4xx_hal_ltdc.c:1643:3
	strb.w	r0, [r5, #160]
.Ltmp256:
.LBB28_2:
	@DEBUG_VALUE: HAL_LTDC_SetWindowPosition_NoReload:hltdc <- $r5
	.loc	5 1646 1                        @ ../Library/STM32F4xx_HAL_Driver/Src/stm32f4xx_hal_ltdc.c:1646:1
	add	sp, #4
	pop	{r4, r5, r6, r7, pc}
.Ltmp257:
.Lfunc_end28:
	.size	HAL_LTDC_SetWindowPosition_NoReload, .Lfunc_end28-HAL_LTDC_SetWindowPosition_NoReload
	.cfi_endproc
	.cantunwind
	.fnend
                                        @ -- End function
	.section	.text.HAL_LTDC_SetPixelFormat_NoReload,"ax",%progbits
	.hidden	HAL_LTDC_SetPixelFormat_NoReload @ -- Begin function HAL_LTDC_SetPixelFormat_NoReload
	.globl	HAL_LTDC_SetPixelFormat_NoReload
	.p2align	1
	.type	HAL_LTDC_SetPixelFormat_NoReload,%function
	.code	16                              @ @HAL_LTDC_SetPixelFormat_NoReload
	.thumb_func
HAL_LTDC_SetPixelFormat_NoReload:
.Lfunc_begin29:
	.loc	5 1660 0                        @ ../Library/STM32F4xx_HAL_Driver/Src/stm32f4xx_hal_ltdc.c:1660:0
	.fnstart
	.cfi_startproc
@ %bb.0:
	@DEBUG_VALUE: HAL_LTDC_SetPixelFormat_NoReload:hltdc <- $r0
	@DEBUG_VALUE: HAL_LTDC_SetPixelFormat_NoReload:Pixelformat <- $r1
	@DEBUG_VALUE: HAL_LTDC_SetPixelFormat_NoReload:LayerIdx <- $r2
	.save	{r4, r5, r6, lr}
	push	{r4, r5, r6, lr}
	.cfi_def_cfa_offset 16
	.cfi_offset lr, -4
	.cfi_offset r6, -8
	.cfi_offset r5, -12
	.cfi_offset r4, -16
	mov	r4, r0
	@DEBUG_VALUE: HAL_LTDC_SetPixelFormat_NoReload:LayerIdx <- $r2
.Ltmp258:
	@DEBUG_VALUE: HAL_LTDC_SetPixelFormat_NoReload:hltdc <- $r4
	.loc	5 1668 3 prologue_end           @ ../Library/STM32F4xx_HAL_Driver/Src/stm32f4xx_hal_ltdc.c:1668:3
	ldrb.w	r0, [r0, #160]
.Ltmp259:
	@DEBUG_VALUE: HAL_LTDC_SetPixelFormat_NoReload:Pixelformat <- $r1
	.loc	5 1668 3 is_stmt 0              @ ../Library/STM32F4xx_HAL_Driver/Src/stm32f4xx_hal_ltdc.c:1668:3
	cmp	r0, #1
	mov.w	r0, #2
.Ltmp260:
	.loc	5 1689 1 is_stmt 1              @ ../Library/STM32F4xx_HAL_Driver/Src/stm32f4xx_hal_ltdc.c:1689:1
	it	eq
	popeq	{r4, r5, r6, pc}
.Ltmp261:
.LBB29_1:
	@DEBUG_VALUE: HAL_LTDC_SetPixelFormat_NoReload:LayerIdx <- $r2
	@DEBUG_VALUE: HAL_LTDC_SetPixelFormat_NoReload:Pixelformat <- $r1
	.loc	5 0 1 is_stmt 0                 @ ../Library/STM32F4xx_HAL_Driver/Src/stm32f4xx_hal_ltdc.c:0:1
	movs	r3, #52
	.loc	5 1674 16 is_stmt 1             @ ../Library/STM32F4xx_HAL_Driver/Src/stm32f4xx_hal_ltdc.c:1674:16
	mla	r5, r2, r3, r4
	movs	r6, #1
	add.w	r3, r5, #56
.Ltmp262:
	@DEBUG_VALUE: HAL_LTDC_SetPixelFormat_NoReload:pLayerCfg <- $r3
	.loc	5 1668 3                        @ ../Library/STM32F4xx_HAL_Driver/Src/stm32f4xx_hal_ltdc.c:1668:3
	strb.w	r6, [r4, #160]
.Ltmp263:
	.loc	5 1671 16                       @ ../Library/STM32F4xx_HAL_Driver/Src/stm32f4xx_hal_ltdc.c:1671:16
	strb.w	r0, [r4, #161]
	.loc	5 1677 26                       @ ../Library/STM32F4xx_HAL_Driver/Src/stm32f4xx_hal_ltdc.c:1677:26
	str	r1, [r5, #72]
	.loc	5 1680 3                        @ ../Library/STM32F4xx_HAL_Driver/Src/stm32f4xx_hal_ltdc.c:1680:3
	mov	r0, r4
	mov	r1, r3
.Ltmp264:
	@DEBUG_VALUE: HAL_LTDC_SetPixelFormat_NoReload:Pixelformat <- [DW_OP_LLVM_entry_value 1] $r1
	bl	LTDC_SetConfig
.Ltmp265:
	@DEBUG_VALUE: HAL_LTDC_SetPixelFormat_NoReload:LayerIdx <- [DW_OP_LLVM_entry_value 1] $r2
	.loc	5 0 3 is_stmt 0                 @ ../Library/STM32F4xx_HAL_Driver/Src/stm32f4xx_hal_ltdc.c:0:3
	movs	r0, #0
	.loc	5 1683 16 is_stmt 1             @ ../Library/STM32F4xx_HAL_Driver/Src/stm32f4xx_hal_ltdc.c:1683:16
	strb.w	r6, [r4, #161]
.Ltmp266:
	.loc	5 1686 3                        @ ../Library/STM32F4xx_HAL_Driver/Src/stm32f4xx_hal_ltdc.c:1686:3
	strb.w	r0, [r4, #160]
.Ltmp267:
	.loc	5 1689 1                        @ ../Library/STM32F4xx_HAL_Driver/Src/stm32f4xx_hal_ltdc.c:1689:1
	pop	{r4, r5, r6, pc}
.Ltmp268:
.Lfunc_end29:
	.size	HAL_LTDC_SetPixelFormat_NoReload, .Lfunc_end29-HAL_LTDC_SetPixelFormat_NoReload
	.cfi_endproc
	.cantunwind
	.fnend
                                        @ -- End function
	.section	.text.HAL_LTDC_SetAlpha_NoReload,"ax",%progbits
	.hidden	HAL_LTDC_SetAlpha_NoReload      @ -- Begin function HAL_LTDC_SetAlpha_NoReload
	.globl	HAL_LTDC_SetAlpha_NoReload
	.p2align	1
	.type	HAL_LTDC_SetAlpha_NoReload,%function
	.code	16                              @ @HAL_LTDC_SetAlpha_NoReload
	.thumb_func
HAL_LTDC_SetAlpha_NoReload:
.Lfunc_begin30:
	.loc	5 1703 0                        @ ../Library/STM32F4xx_HAL_Driver/Src/stm32f4xx_hal_ltdc.c:1703:0
	.fnstart
	.cfi_startproc
@ %bb.0:
	@DEBUG_VALUE: HAL_LTDC_SetAlpha_NoReload:hltdc <- $r0
	@DEBUG_VALUE: HAL_LTDC_SetAlpha_NoReload:Alpha <- $r1
	@DEBUG_VALUE: HAL_LTDC_SetAlpha_NoReload:LayerIdx <- $r2
	.save	{r4, r5, r6, lr}
	push	{r4, r5, r6, lr}
	.cfi_def_cfa_offset 16
	.cfi_offset lr, -4
	.cfi_offset r6, -8
	.cfi_offset r5, -12
	.cfi_offset r4, -16
	mov	r4, r0
	@DEBUG_VALUE: HAL_LTDC_SetAlpha_NoReload:LayerIdx <- $r2
.Ltmp269:
	@DEBUG_VALUE: HAL_LTDC_SetAlpha_NoReload:hltdc <- $r4
	.loc	5 1711 3 prologue_end           @ ../Library/STM32F4xx_HAL_Driver/Src/stm32f4xx_hal_ltdc.c:1711:3
	ldrb.w	r0, [r0, #160]
.Ltmp270:
	@DEBUG_VALUE: HAL_LTDC_SetAlpha_NoReload:Alpha <- $r1
	.loc	5 1711 3 is_stmt 0              @ ../Library/STM32F4xx_HAL_Driver/Src/stm32f4xx_hal_ltdc.c:1711:3
	cmp	r0, #1
	mov.w	r0, #2
.Ltmp271:
	.loc	5 1732 1 is_stmt 1              @ ../Library/STM32F4xx_HAL_Driver/Src/stm32f4xx_hal_ltdc.c:1732:1
	it	eq
	popeq	{r4, r5, r6, pc}
.Ltmp272:
.LBB30_1:
	@DEBUG_VALUE: HAL_LTDC_SetAlpha_NoReload:LayerIdx <- $r2
	@DEBUG_VALUE: HAL_LTDC_SetAlpha_NoReload:Alpha <- $r1
	.loc	5 0 1 is_stmt 0                 @ ../Library/STM32F4xx_HAL_Driver/Src/stm32f4xx_hal_ltdc.c:0:1
	movs	r3, #52
	.loc	5 1717 16 is_stmt 1             @ ../Library/STM32F4xx_HAL_Driver/Src/stm32f4xx_hal_ltdc.c:1717:16
	mla	r5, r2, r3, r4
	movs	r6, #1
	add.w	r3, r5, #56
.Ltmp273:
	@DEBUG_VALUE: HAL_LTDC_SetAlpha_NoReload:pLayerCfg <- $r3
	.loc	5 1711 3                        @ ../Library/STM32F4xx_HAL_Driver/Src/stm32f4xx_hal_ltdc.c:1711:3
	strb.w	r6, [r4, #160]
.Ltmp274:
	.loc	5 1714 16                       @ ../Library/STM32F4xx_HAL_Driver/Src/stm32f4xx_hal_ltdc.c:1714:16
	strb.w	r0, [r4, #161]
	.loc	5 1720 20                       @ ../Library/STM32F4xx_HAL_Driver/Src/stm32f4xx_hal_ltdc.c:1720:20
	str	r1, [r5, #76]
	.loc	5 1723 3                        @ ../Library/STM32F4xx_HAL_Driver/Src/stm32f4xx_hal_ltdc.c:1723:3
	mov	r0, r4
	mov	r1, r3
.Ltmp275:
	@DEBUG_VALUE: HAL_LTDC_SetAlpha_NoReload:Alpha <- [DW_OP_LLVM_entry_value 1] $r1
	bl	LTDC_SetConfig
.Ltmp276:
	@DEBUG_VALUE: HAL_LTDC_SetAlpha_NoReload:LayerIdx <- [DW_OP_LLVM_entry_value 1] $r2
	.loc	5 0 3 is_stmt 0                 @ ../Library/STM32F4xx_HAL_Driver/Src/stm32f4xx_hal_ltdc.c:0:3
	movs	r0, #0
	.loc	5 1726 16 is_stmt 1             @ ../Library/STM32F4xx_HAL_Driver/Src/stm32f4xx_hal_ltdc.c:1726:16
	strb.w	r6, [r4, #161]
.Ltmp277:
	.loc	5 1729 3                        @ ../Library/STM32F4xx_HAL_Driver/Src/stm32f4xx_hal_ltdc.c:1729:3
	strb.w	r0, [r4, #160]
.Ltmp278:
	.loc	5 1732 1                        @ ../Library/STM32F4xx_HAL_Driver/Src/stm32f4xx_hal_ltdc.c:1732:1
	pop	{r4, r5, r6, pc}
.Ltmp279:
.Lfunc_end30:
	.size	HAL_LTDC_SetAlpha_NoReload, .Lfunc_end30-HAL_LTDC_SetAlpha_NoReload
	.cfi_endproc
	.cantunwind
	.fnend
                                        @ -- End function
	.section	.text.HAL_LTDC_SetAddress_NoReload,"ax",%progbits
	.hidden	HAL_LTDC_SetAddress_NoReload    @ -- Begin function HAL_LTDC_SetAddress_NoReload
	.globl	HAL_LTDC_SetAddress_NoReload
	.p2align	1
	.type	HAL_LTDC_SetAddress_NoReload,%function
	.code	16                              @ @HAL_LTDC_SetAddress_NoReload
	.thumb_func
HAL_LTDC_SetAddress_NoReload:
.Lfunc_begin31:
	.loc	5 1746 0                        @ ../Library/STM32F4xx_HAL_Driver/Src/stm32f4xx_hal_ltdc.c:1746:0
	.fnstart
	.cfi_startproc
@ %bb.0:
	@DEBUG_VALUE: HAL_LTDC_SetAddress_NoReload:hltdc <- $r0
	@DEBUG_VALUE: HAL_LTDC_SetAddress_NoReload:Address <- $r1
	@DEBUG_VALUE: HAL_LTDC_SetAddress_NoReload:LayerIdx <- $r2
	.save	{r4, r5, r6, lr}
	push	{r4, r5, r6, lr}
	.cfi_def_cfa_offset 16
	.cfi_offset lr, -4
	.cfi_offset r6, -8
	.cfi_offset r5, -12
	.cfi_offset r4, -16
	mov	r4, r0
	@DEBUG_VALUE: HAL_LTDC_SetAddress_NoReload:LayerIdx <- $r2
.Ltmp280:
	@DEBUG_VALUE: HAL_LTDC_SetAddress_NoReload:hltdc <- $r4
	.loc	5 1753 3 prologue_end           @ ../Library/STM32F4xx_HAL_Driver/Src/stm32f4xx_hal_ltdc.c:1753:3
	ldrb.w	r0, [r0, #160]
.Ltmp281:
	@DEBUG_VALUE: HAL_LTDC_SetAddress_NoReload:Address <- $r1
	.loc	5 1753 3 is_stmt 0              @ ../Library/STM32F4xx_HAL_Driver/Src/stm32f4xx_hal_ltdc.c:1753:3
	cmp	r0, #1
	mov.w	r0, #2
.Ltmp282:
	.loc	5 1774 1 is_stmt 1              @ ../Library/STM32F4xx_HAL_Driver/Src/stm32f4xx_hal_ltdc.c:1774:1
	it	eq
	popeq	{r4, r5, r6, pc}
.Ltmp283:
.LBB31_1:
	@DEBUG_VALUE: HAL_LTDC_SetAddress_NoReload:LayerIdx <- $r2
	@DEBUG_VALUE: HAL_LTDC_SetAddress_NoReload:Address <- $r1
	.loc	5 0 1 is_stmt 0                 @ ../Library/STM32F4xx_HAL_Driver/Src/stm32f4xx_hal_ltdc.c:0:1
	movs	r3, #52
	.loc	5 1759 16 is_stmt 1             @ ../Library/STM32F4xx_HAL_Driver/Src/stm32f4xx_hal_ltdc.c:1759:16
	mla	r5, r2, r3, r4
	movs	r6, #1
	add.w	r3, r5, #56
.Ltmp284:
	@DEBUG_VALUE: HAL_LTDC_SetAddress_NoReload:pLayerCfg <- $r3
	.loc	5 1753 3                        @ ../Library/STM32F4xx_HAL_Driver/Src/stm32f4xx_hal_ltdc.c:1753:3
	strb.w	r6, [r4, #160]
.Ltmp285:
	.loc	5 1756 16                       @ ../Library/STM32F4xx_HAL_Driver/Src/stm32f4xx_hal_ltdc.c:1756:16
	strb.w	r0, [r4, #161]
	.loc	5 1762 28                       @ ../Library/STM32F4xx_HAL_Driver/Src/stm32f4xx_hal_ltdc.c:1762:28
	str	r1, [r5, #92]
	.loc	5 1765 3                        @ ../Library/STM32F4xx_HAL_Driver/Src/stm32f4xx_hal_ltdc.c:1765:3
	mov	r0, r4
	mov	r1, r3
.Ltmp286:
	@DEBUG_VALUE: HAL_LTDC_SetAddress_NoReload:Address <- [DW_OP_LLVM_entry_value 1] $r1
	bl	LTDC_SetConfig
.Ltmp287:
	@DEBUG_VALUE: HAL_LTDC_SetAddress_NoReload:LayerIdx <- [DW_OP_LLVM_entry_value 1] $r2
	.loc	5 0 3 is_stmt 0                 @ ../Library/STM32F4xx_HAL_Driver/Src/stm32f4xx_hal_ltdc.c:0:3
	movs	r0, #0
	.loc	5 1768 16 is_stmt 1             @ ../Library/STM32F4xx_HAL_Driver/Src/stm32f4xx_hal_ltdc.c:1768:16
	strb.w	r6, [r4, #161]
.Ltmp288:
	.loc	5 1771 3                        @ ../Library/STM32F4xx_HAL_Driver/Src/stm32f4xx_hal_ltdc.c:1771:3
	strb.w	r0, [r4, #160]
.Ltmp289:
	.loc	5 1774 1                        @ ../Library/STM32F4xx_HAL_Driver/Src/stm32f4xx_hal_ltdc.c:1774:1
	pop	{r4, r5, r6, pc}
.Ltmp290:
.Lfunc_end31:
	.size	HAL_LTDC_SetAddress_NoReload, .Lfunc_end31-HAL_LTDC_SetAddress_NoReload
	.cfi_endproc
	.cantunwind
	.fnend
                                        @ -- End function
	.section	.text.HAL_LTDC_SetPitch_NoReload,"ax",%progbits
	.hidden	HAL_LTDC_SetPitch_NoReload      @ -- Begin function HAL_LTDC_SetPitch_NoReload
	.globl	HAL_LTDC_SetPitch_NoReload
	.p2align	1
	.type	HAL_LTDC_SetPitch_NoReload,%function
	.code	16                              @ @HAL_LTDC_SetPitch_NoReload
	.thumb_func
HAL_LTDC_SetPitch_NoReload:
.Lfunc_begin32:
	.loc	5 1791 0                        @ ../Library/STM32F4xx_HAL_Driver/Src/stm32f4xx_hal_ltdc.c:1791:0
	.fnstart
	.cfi_startproc
@ %bb.0:
	@DEBUG_VALUE: HAL_LTDC_SetPitch_NoReload:hltdc <- $r0
	@DEBUG_VALUE: HAL_LTDC_SetPitch_NoReload:hltdc <- $r0
	@DEBUG_VALUE: HAL_LTDC_SetPitch_NoReload:LinePitchInPixels <- $r1
	@DEBUG_VALUE: HAL_LTDC_SetPitch_NoReload:LayerIdx <- $r2
	@DEBUG_VALUE: HAL_LTDC_SetPitch_NoReload:LayerIdx <- $r2
	.save	{r4, lr}
	push	{r4, lr}
	.cfi_def_cfa_offset 8
	.cfi_offset lr, -4
	.cfi_offset r4, -8
.Ltmp291:
	.loc	5 1800 3 prologue_end           @ ../Library/STM32F4xx_HAL_Driver/Src/stm32f4xx_hal_ltdc.c:1800:3
	ldrb.w	r3, [r0, #160]
	@DEBUG_VALUE: HAL_LTDC_SetPitch_NoReload:LinePitchInPixels <- $r1
	mov.w	r12, #2
.Ltmp292:
	.loc	5 1800 3 is_stmt 0              @ ../Library/STM32F4xx_HAL_Driver/Src/stm32f4xx_hal_ltdc.c:1800:3
	cmp	r3, #1
	beq	.LBB32_4
.Ltmp293:
@ %bb.1:
	@DEBUG_VALUE: HAL_LTDC_SetPitch_NoReload:LayerIdx <- $r2
	@DEBUG_VALUE: HAL_LTDC_SetPitch_NoReload:LinePitchInPixels <- $r1
	@DEBUG_VALUE: HAL_LTDC_SetPitch_NoReload:hltdc <- $r0
	.loc	5 0 3                           @ ../Library/STM32F4xx_HAL_Driver/Src/stm32f4xx_hal_ltdc.c:0:3
	movs	r3, #52
	.loc	5 1806 43 is_stmt 1             @ ../Library/STM32F4xx_HAL_Driver/Src/stm32f4xx_hal_ltdc.c:1806:43
	mla	r3, r2, r3, r0
	.loc	5 1803 16                       @ ../Library/STM32F4xx_HAL_Driver/Src/stm32f4xx_hal_ltdc.c:1803:16
	strb.w	r12, [r0, #161]
	.loc	5 1806 43                       @ ../Library/STM32F4xx_HAL_Driver/Src/stm32f4xx_hal_ltdc.c:1806:43
	ldr	r4, [r3, #72]
.Ltmp294:
	@DEBUG_VALUE: HAL_LTDC_SetPitch_NoReload:pixelFormat <- $r4
	.loc	5 0 43 is_stmt 0                @ ../Library/STM32F4xx_HAL_Driver/Src/stm32f4xx_hal_ltdc.c:0:43
	mov.w	r12, #1
	.loc	5 1808 7 is_stmt 1              @ ../Library/STM32F4xx_HAL_Driver/Src/stm32f4xx_hal_ltdc.c:1808:7
	cmp	r4, #7
.Ltmp295:
	.loc	5 0 0 is_stmt 0                 @ ../Library/STM32F4xx_HAL_Driver/Src/stm32f4xx_hal_ltdc.c:0:0
	mov.w	lr, #1
.Ltmp296:
	.loc	5 1808 7                        @ ../Library/STM32F4xx_HAL_Driver/Src/stm32f4xx_hal_ltdc.c:1808:7
	bhi	.LBB32_3
.Ltmp297:
@ %bb.2:
	@DEBUG_VALUE: HAL_LTDC_SetPitch_NoReload:pixelFormat <- $r4
	@DEBUG_VALUE: HAL_LTDC_SetPitch_NoReload:LayerIdx <- $r2
	@DEBUG_VALUE: HAL_LTDC_SetPitch_NoReload:LinePitchInPixels <- $r1
	@DEBUG_VALUE: HAL_LTDC_SetPitch_NoReload:hltdc <- $r0
	movw	r3, :lower16:.Lswitch.table.HAL_LTDC_SetPitch_NoReload
	movt	r3, :upper16:.Lswitch.table.HAL_LTDC_SetPitch_NoReload
	ldr.w	lr, [r3, r4, lsl #2]
.Ltmp298:
.LBB32_3:
	@DEBUG_VALUE: HAL_LTDC_SetPitch_NoReload:pixelFormat <- $r4
	@DEBUG_VALUE: HAL_LTDC_SetPitch_NoReload:LayerIdx <- $r2
	@DEBUG_VALUE: HAL_LTDC_SetPitch_NoReload:LinePitchInPixels <- $r1
	@DEBUG_VALUE: HAL_LTDC_SetPitch_NoReload:hltdc <- $r0
	@DEBUG_VALUE: HAL_LTDC_SetPitch_NoReload:tmp <- $lr
	.loc	5 1831 3 is_stmt 1              @ ../Library/STM32F4xx_HAL_Driver/Src/stm32f4xx_hal_ltdc.c:1831:3
	ldr	r3, [r0]
	.loc	5 1828 44                       @ ../Library/STM32F4xx_HAL_Driver/Src/stm32f4xx_hal_ltdc.c:1828:44
	mul	r1, r1, lr
.Ltmp299:
	@DEBUG_VALUE: HAL_LTDC_SetPitch_NoReload:LinePitchInPixels <- [DW_OP_LLVM_entry_value 1] $r1
	@DEBUG_VALUE: HAL_LTDC_SetPitch_NoReload:pitchUpdate <- undef
	.loc	5 1831 3                        @ ../Library/STM32F4xx_HAL_Driver/Src/stm32f4xx_hal_ltdc.c:1831:3
	add.w	r2, r3, r2, lsl #7
.Ltmp300:
	@DEBUG_VALUE: HAL_LTDC_SetPitch_NoReload:LayerIdx <- [DW_OP_LLVM_entry_value 1] $r2
	.loc	5 1831 38 is_stmt 0             @ ../Library/STM32F4xx_HAL_Driver/Src/stm32f4xx_hal_ltdc.c:1831:38
	ldr.w	r3, [r2, #176]
	bfc	r3, #16, #13
	str.w	r3, [r2, #176]
	.loc	5 1834 38 is_stmt 1             @ ../Library/STM32F4xx_HAL_Driver/Src/stm32f4xx_hal_ltdc.c:1834:38
	ldr.w	r3, [r2, #176]
	orr.w	r1, r3, r1, lsl #16
	str.w	r1, [r2, #176]
	.loc	5 1837 16                       @ ../Library/STM32F4xx_HAL_Driver/Src/stm32f4xx_hal_ltdc.c:1837:16
	strb.w	r12, [r0, #161]
	mov.w	r12, #0
.Ltmp301:
	.loc	5 1840 3                        @ ../Library/STM32F4xx_HAL_Driver/Src/stm32f4xx_hal_ltdc.c:1840:3
	strb.w	r12, [r0, #160]
.Ltmp302:
.LBB32_4:
	@DEBUG_VALUE: HAL_LTDC_SetPitch_NoReload:hltdc <- $r0
	.loc	5 1843 1                        @ ../Library/STM32F4xx_HAL_Driver/Src/stm32f4xx_hal_ltdc.c:1843:1
	mov	r0, r12
.Ltmp303:
	@DEBUG_VALUE: HAL_LTDC_SetPitch_NoReload:hltdc <- [DW_OP_LLVM_entry_value 1] $r0
	pop	{r4, pc}
.Ltmp304:
.Lfunc_end32:
	.size	HAL_LTDC_SetPitch_NoReload, .Lfunc_end32-HAL_LTDC_SetPitch_NoReload
	.cfi_endproc
	.cantunwind
	.fnend
                                        @ -- End function
	.section	.text.HAL_LTDC_ConfigColorKeying_NoReload,"ax",%progbits
	.hidden	HAL_LTDC_ConfigColorKeying_NoReload @ -- Begin function HAL_LTDC_ConfigColorKeying_NoReload
	.globl	HAL_LTDC_ConfigColorKeying_NoReload
	.p2align	1
	.type	HAL_LTDC_ConfigColorKeying_NoReload,%function
	.code	16                              @ @HAL_LTDC_ConfigColorKeying_NoReload
	.thumb_func
HAL_LTDC_ConfigColorKeying_NoReload:
.Lfunc_begin33:
	.loc	5 1858 0                        @ ../Library/STM32F4xx_HAL_Driver/Src/stm32f4xx_hal_ltdc.c:1858:0
	.fnstart
	.cfi_startproc
@ %bb.0:
	@DEBUG_VALUE: HAL_LTDC_ConfigColorKeying_NoReload:hltdc <- $r0
	@DEBUG_VALUE: HAL_LTDC_ConfigColorKeying_NoReload:hltdc <- $r0
	@DEBUG_VALUE: HAL_LTDC_ConfigColorKeying_NoReload:RGBValue <- $r1
	@DEBUG_VALUE: HAL_LTDC_ConfigColorKeying_NoReload:LayerIdx <- $r2
	@DEBUG_VALUE: HAL_LTDC_ConfigColorKeying_NoReload:LayerIdx <- $r2
	.loc	5 1863 3 prologue_end           @ ../Library/STM32F4xx_HAL_Driver/Src/stm32f4xx_hal_ltdc.c:1863:3
	ldrb.w	r3, [r0, #160]
.Ltmp305:
	@DEBUG_VALUE: HAL_LTDC_ConfigColorKeying_NoReload:RGBValue <- $r1
	.loc	5 1863 3 is_stmt 0              @ ../Library/STM32F4xx_HAL_Driver/Src/stm32f4xx_hal_ltdc.c:1863:3
	cmp	r3, #1
	mov.w	r3, #2
	beq	.LBB33_2
.Ltmp306:
@ %bb.1:
	@DEBUG_VALUE: HAL_LTDC_ConfigColorKeying_NoReload:LayerIdx <- $r2
	@DEBUG_VALUE: HAL_LTDC_ConfigColorKeying_NoReload:RGBValue <- $r1
	@DEBUG_VALUE: HAL_LTDC_ConfigColorKeying_NoReload:hltdc <- $r0
	.loc	5 1866 16 is_stmt 1             @ ../Library/STM32F4xx_HAL_Driver/Src/stm32f4xx_hal_ltdc.c:1866:16
	strb.w	r3, [r0, #161]
	.loc	5 1869 3                        @ ../Library/STM32F4xx_HAL_Driver/Src/stm32f4xx_hal_ltdc.c:1869:3
	ldr	r3, [r0]
	add.w	r2, r3, r2, lsl #7
.Ltmp307:
	@DEBUG_VALUE: HAL_LTDC_ConfigColorKeying_NoReload:LayerIdx <- [DW_OP_LLVM_entry_value 1] $r2
	.loc	5 1869 37 is_stmt 0             @ ../Library/STM32F4xx_HAL_Driver/Src/stm32f4xx_hal_ltdc.c:1869:37
	ldr.w	r3, [r2, #144]
	and	r3, r3, #-16777216
	str.w	r3, [r2, #144]
	.loc	5 1870 38 is_stmt 1             @ ../Library/STM32F4xx_HAL_Driver/Src/stm32f4xx_hal_ltdc.c:1870:38
	str.w	r1, [r2, #144]
	movs	r1, #1
.Ltmp308:
	@DEBUG_VALUE: HAL_LTDC_ConfigColorKeying_NoReload:RGBValue <- [DW_OP_LLVM_entry_value 1] $r1
	.loc	5 0 38 is_stmt 0                @ ../Library/STM32F4xx_HAL_Driver/Src/stm32f4xx_hal_ltdc.c:0:38
	movs	r3, #0
	.loc	5 1873 16 is_stmt 1             @ ../Library/STM32F4xx_HAL_Driver/Src/stm32f4xx_hal_ltdc.c:1873:16
	strb.w	r1, [r0, #161]
.Ltmp309:
	.loc	5 1876 3                        @ ../Library/STM32F4xx_HAL_Driver/Src/stm32f4xx_hal_ltdc.c:1876:3
	strb.w	r3, [r0, #160]
.Ltmp310:
.LBB33_2:
	@DEBUG_VALUE: HAL_LTDC_ConfigColorKeying_NoReload:hltdc <- $r0
	.loc	5 1879 1                        @ ../Library/STM32F4xx_HAL_Driver/Src/stm32f4xx_hal_ltdc.c:1879:1
	mov	r0, r3
.Ltmp311:
	@DEBUG_VALUE: HAL_LTDC_ConfigColorKeying_NoReload:hltdc <- [DW_OP_LLVM_entry_value 1] $r0
	bx	lr
.Ltmp312:
.Lfunc_end33:
	.size	HAL_LTDC_ConfigColorKeying_NoReload, .Lfunc_end33-HAL_LTDC_ConfigColorKeying_NoReload
	.cfi_endproc
	.cantunwind
	.fnend
                                        @ -- End function
	.section	.text.HAL_LTDC_EnableColorKeying_NoReload,"ax",%progbits
	.hidden	HAL_LTDC_EnableColorKeying_NoReload @ -- Begin function HAL_LTDC_EnableColorKeying_NoReload
	.globl	HAL_LTDC_EnableColorKeying_NoReload
	.p2align	1
	.type	HAL_LTDC_EnableColorKeying_NoReload,%function
	.code	16                              @ @HAL_LTDC_EnableColorKeying_NoReload
	.thumb_func
HAL_LTDC_EnableColorKeying_NoReload:
.Lfunc_begin34:
	.loc	5 1892 0                        @ ../Library/STM32F4xx_HAL_Driver/Src/stm32f4xx_hal_ltdc.c:1892:0
	.fnstart
	.cfi_startproc
@ %bb.0:
	@DEBUG_VALUE: HAL_LTDC_EnableColorKeying_NoReload:hltdc <- $r0
	@DEBUG_VALUE: HAL_LTDC_EnableColorKeying_NoReload:hltdc <- $r0
	@DEBUG_VALUE: HAL_LTDC_EnableColorKeying_NoReload:LayerIdx <- $r1
	.loc	5 1897 3 prologue_end           @ ../Library/STM32F4xx_HAL_Driver/Src/stm32f4xx_hal_ltdc.c:1897:3
	ldrb.w	r2, [r0, #160]
.Ltmp313:
	@DEBUG_VALUE: HAL_LTDC_EnableColorKeying_NoReload:LayerIdx <- $r1
	.loc	5 1897 3 is_stmt 0              @ ../Library/STM32F4xx_HAL_Driver/Src/stm32f4xx_hal_ltdc.c:1897:3
	cmp	r2, #1
	mov.w	r2, #2
	beq	.LBB34_2
.Ltmp314:
@ %bb.1:
	@DEBUG_VALUE: HAL_LTDC_EnableColorKeying_NoReload:LayerIdx <- $r1
	@DEBUG_VALUE: HAL_LTDC_EnableColorKeying_NoReload:hltdc <- $r0
	.loc	5 1900 16 is_stmt 1             @ ../Library/STM32F4xx_HAL_Driver/Src/stm32f4xx_hal_ltdc.c:1900:16
	strb.w	r2, [r0, #161]
	.loc	5 1903 3                        @ ../Library/STM32F4xx_HAL_Driver/Src/stm32f4xx_hal_ltdc.c:1903:3
	ldr	r2, [r0]
	add.w	r1, r2, r1, lsl #7
.Ltmp315:
	@DEBUG_VALUE: HAL_LTDC_EnableColorKeying_NoReload:LayerIdx <- [DW_OP_LLVM_entry_value 1] $r1
	.loc	5 1903 35 is_stmt 0             @ ../Library/STM32F4xx_HAL_Driver/Src/stm32f4xx_hal_ltdc.c:1903:35
	ldr.w	r2, [r1, #132]
	orr	r2, r2, #2
	str.w	r2, [r1, #132]
	movs	r1, #1
	movs	r2, #0
	.loc	5 1906 16 is_stmt 1             @ ../Library/STM32F4xx_HAL_Driver/Src/stm32f4xx_hal_ltdc.c:1906:16
	strb.w	r1, [r0, #161]
.Ltmp316:
	.loc	5 1909 3                        @ ../Library/STM32F4xx_HAL_Driver/Src/stm32f4xx_hal_ltdc.c:1909:3
	strb.w	r2, [r0, #160]
.Ltmp317:
.LBB34_2:
	@DEBUG_VALUE: HAL_LTDC_EnableColorKeying_NoReload:hltdc <- $r0
	.loc	5 1912 1                        @ ../Library/STM32F4xx_HAL_Driver/Src/stm32f4xx_hal_ltdc.c:1912:1
	mov	r0, r2
.Ltmp318:
	@DEBUG_VALUE: HAL_LTDC_EnableColorKeying_NoReload:hltdc <- [DW_OP_LLVM_entry_value 1] $r0
	bx	lr
.Ltmp319:
.Lfunc_end34:
	.size	HAL_LTDC_EnableColorKeying_NoReload, .Lfunc_end34-HAL_LTDC_EnableColorKeying_NoReload
	.cfi_endproc
	.cantunwind
	.fnend
                                        @ -- End function
	.section	.text.HAL_LTDC_DisableColorKeying_NoReload,"ax",%progbits
	.hidden	HAL_LTDC_DisableColorKeying_NoReload @ -- Begin function HAL_LTDC_DisableColorKeying_NoReload
	.globl	HAL_LTDC_DisableColorKeying_NoReload
	.p2align	1
	.type	HAL_LTDC_DisableColorKeying_NoReload,%function
	.code	16                              @ @HAL_LTDC_DisableColorKeying_NoReload
	.thumb_func
HAL_LTDC_DisableColorKeying_NoReload:
.Lfunc_begin35:
	.loc	5 1925 0                        @ ../Library/STM32F4xx_HAL_Driver/Src/stm32f4xx_hal_ltdc.c:1925:0
	.fnstart
	.cfi_startproc
@ %bb.0:
	@DEBUG_VALUE: HAL_LTDC_DisableColorKeying_NoReload:hltdc <- $r0
	@DEBUG_VALUE: HAL_LTDC_DisableColorKeying_NoReload:hltdc <- $r0
	@DEBUG_VALUE: HAL_LTDC_DisableColorKeying_NoReload:LayerIdx <- $r1
	.loc	5 1930 3 prologue_end           @ ../Library/STM32F4xx_HAL_Driver/Src/stm32f4xx_hal_ltdc.c:1930:3
	ldrb.w	r2, [r0, #160]
.Ltmp320:
	@DEBUG_VALUE: HAL_LTDC_DisableColorKeying_NoReload:LayerIdx <- $r1
	.loc	5 1930 3 is_stmt 0              @ ../Library/STM32F4xx_HAL_Driver/Src/stm32f4xx_hal_ltdc.c:1930:3
	cmp	r2, #1
	mov.w	r2, #2
	beq	.LBB35_2
.Ltmp321:
@ %bb.1:
	@DEBUG_VALUE: HAL_LTDC_DisableColorKeying_NoReload:LayerIdx <- $r1
	@DEBUG_VALUE: HAL_LTDC_DisableColorKeying_NoReload:hltdc <- $r0
	.loc	5 1933 16 is_stmt 1             @ ../Library/STM32F4xx_HAL_Driver/Src/stm32f4xx_hal_ltdc.c:1933:16
	strb.w	r2, [r0, #161]
	.loc	5 1936 3                        @ ../Library/STM32F4xx_HAL_Driver/Src/stm32f4xx_hal_ltdc.c:1936:3
	ldr	r2, [r0]
	add.w	r1, r2, r1, lsl #7
.Ltmp322:
	@DEBUG_VALUE: HAL_LTDC_DisableColorKeying_NoReload:LayerIdx <- [DW_OP_LLVM_entry_value 1] $r1
	.loc	5 1936 35 is_stmt 0             @ ../Library/STM32F4xx_HAL_Driver/Src/stm32f4xx_hal_ltdc.c:1936:35
	ldr.w	r2, [r1, #132]
	bic	r2, r2, #2
	str.w	r2, [r1, #132]
	movs	r1, #1
	movs	r2, #0
	.loc	5 1939 16 is_stmt 1             @ ../Library/STM32F4xx_HAL_Driver/Src/stm32f4xx_hal_ltdc.c:1939:16
	strb.w	r1, [r0, #161]
.Ltmp323:
	.loc	5 1942 3                        @ ../Library/STM32F4xx_HAL_Driver/Src/stm32f4xx_hal_ltdc.c:1942:3
	strb.w	r2, [r0, #160]
.Ltmp324:
.LBB35_2:
	@DEBUG_VALUE: HAL_LTDC_DisableColorKeying_NoReload:hltdc <- $r0
	.loc	5 1945 1                        @ ../Library/STM32F4xx_HAL_Driver/Src/stm32f4xx_hal_ltdc.c:1945:1
	mov	r0, r2
.Ltmp325:
	@DEBUG_VALUE: HAL_LTDC_DisableColorKeying_NoReload:hltdc <- [DW_OP_LLVM_entry_value 1] $r0
	bx	lr
.Ltmp326:
.Lfunc_end35:
	.size	HAL_LTDC_DisableColorKeying_NoReload, .Lfunc_end35-HAL_LTDC_DisableColorKeying_NoReload
	.cfi_endproc
	.cantunwind
	.fnend
                                        @ -- End function
	.section	.text.HAL_LTDC_EnableCLUT_NoReload,"ax",%progbits
	.hidden	HAL_LTDC_EnableCLUT_NoReload    @ -- Begin function HAL_LTDC_EnableCLUT_NoReload
	.globl	HAL_LTDC_EnableCLUT_NoReload
	.p2align	1
	.type	HAL_LTDC_EnableCLUT_NoReload,%function
	.code	16                              @ @HAL_LTDC_EnableCLUT_NoReload
	.thumb_func
HAL_LTDC_EnableCLUT_NoReload:
.Lfunc_begin36:
	.loc	5 1958 0                        @ ../Library/STM32F4xx_HAL_Driver/Src/stm32f4xx_hal_ltdc.c:1958:0
	.fnstart
	.cfi_startproc
@ %bb.0:
	@DEBUG_VALUE: HAL_LTDC_EnableCLUT_NoReload:hltdc <- $r0
	@DEBUG_VALUE: HAL_LTDC_EnableCLUT_NoReload:hltdc <- $r0
	@DEBUG_VALUE: HAL_LTDC_EnableCLUT_NoReload:LayerIdx <- $r1
	.loc	5 1963 3 prologue_end           @ ../Library/STM32F4xx_HAL_Driver/Src/stm32f4xx_hal_ltdc.c:1963:3
	ldrb.w	r2, [r0, #160]
.Ltmp327:
	@DEBUG_VALUE: HAL_LTDC_EnableCLUT_NoReload:LayerIdx <- $r1
	.loc	5 1963 3 is_stmt 0              @ ../Library/STM32F4xx_HAL_Driver/Src/stm32f4xx_hal_ltdc.c:1963:3
	cmp	r2, #1
	mov.w	r2, #2
	beq	.LBB36_2
.Ltmp328:
@ %bb.1:
	@DEBUG_VALUE: HAL_LTDC_EnableCLUT_NoReload:LayerIdx <- $r1
	@DEBUG_VALUE: HAL_LTDC_EnableCLUT_NoReload:hltdc <- $r0
	.loc	5 1966 16 is_stmt 1             @ ../Library/STM32F4xx_HAL_Driver/Src/stm32f4xx_hal_ltdc.c:1966:16
	strb.w	r2, [r0, #161]
	.loc	5 1969 3                        @ ../Library/STM32F4xx_HAL_Driver/Src/stm32f4xx_hal_ltdc.c:1969:3
	ldr	r2, [r0]
	add.w	r1, r2, r1, lsl #7
.Ltmp329:
	@DEBUG_VALUE: HAL_LTDC_EnableCLUT_NoReload:LayerIdx <- [DW_OP_LLVM_entry_value 1] $r1
	.loc	5 1969 35 is_stmt 0             @ ../Library/STM32F4xx_HAL_Driver/Src/stm32f4xx_hal_ltdc.c:1969:35
	ldr.w	r2, [r1, #132]
	orr	r2, r2, #16
	str.w	r2, [r1, #132]
	movs	r1, #1
	movs	r2, #0
	.loc	5 1972 16 is_stmt 1             @ ../Library/STM32F4xx_HAL_Driver/Src/stm32f4xx_hal_ltdc.c:1972:16
	strb.w	r1, [r0, #161]
.Ltmp330:
	.loc	5 1975 3                        @ ../Library/STM32F4xx_HAL_Driver/Src/stm32f4xx_hal_ltdc.c:1975:3
	strb.w	r2, [r0, #160]
.Ltmp331:
.LBB36_2:
	@DEBUG_VALUE: HAL_LTDC_EnableCLUT_NoReload:hltdc <- $r0
	.loc	5 1978 1                        @ ../Library/STM32F4xx_HAL_Driver/Src/stm32f4xx_hal_ltdc.c:1978:1
	mov	r0, r2
.Ltmp332:
	@DEBUG_VALUE: HAL_LTDC_EnableCLUT_NoReload:hltdc <- [DW_OP_LLVM_entry_value 1] $r0
	bx	lr
.Ltmp333:
.Lfunc_end36:
	.size	HAL_LTDC_EnableCLUT_NoReload, .Lfunc_end36-HAL_LTDC_EnableCLUT_NoReload
	.cfi_endproc
	.cantunwind
	.fnend
                                        @ -- End function
	.section	.text.HAL_LTDC_DisableCLUT_NoReload,"ax",%progbits
	.hidden	HAL_LTDC_DisableCLUT_NoReload   @ -- Begin function HAL_LTDC_DisableCLUT_NoReload
	.globl	HAL_LTDC_DisableCLUT_NoReload
	.p2align	1
	.type	HAL_LTDC_DisableCLUT_NoReload,%function
	.code	16                              @ @HAL_LTDC_DisableCLUT_NoReload
	.thumb_func
HAL_LTDC_DisableCLUT_NoReload:
.Lfunc_begin37:
	.loc	5 1991 0                        @ ../Library/STM32F4xx_HAL_Driver/Src/stm32f4xx_hal_ltdc.c:1991:0
	.fnstart
	.cfi_startproc
@ %bb.0:
	@DEBUG_VALUE: HAL_LTDC_DisableCLUT_NoReload:hltdc <- $r0
	@DEBUG_VALUE: HAL_LTDC_DisableCLUT_NoReload:hltdc <- $r0
	@DEBUG_VALUE: HAL_LTDC_DisableCLUT_NoReload:LayerIdx <- $r1
	.loc	5 1996 3 prologue_end           @ ../Library/STM32F4xx_HAL_Driver/Src/stm32f4xx_hal_ltdc.c:1996:3
	ldrb.w	r2, [r0, #160]
.Ltmp334:
	@DEBUG_VALUE: HAL_LTDC_DisableCLUT_NoReload:LayerIdx <- $r1
	.loc	5 1996 3 is_stmt 0              @ ../Library/STM32F4xx_HAL_Driver/Src/stm32f4xx_hal_ltdc.c:1996:3
	cmp	r2, #1
	mov.w	r2, #2
	beq	.LBB37_2
.Ltmp335:
@ %bb.1:
	@DEBUG_VALUE: HAL_LTDC_DisableCLUT_NoReload:LayerIdx <- $r1
	@DEBUG_VALUE: HAL_LTDC_DisableCLUT_NoReload:hltdc <- $r0
	.loc	5 1999 16 is_stmt 1             @ ../Library/STM32F4xx_HAL_Driver/Src/stm32f4xx_hal_ltdc.c:1999:16
	strb.w	r2, [r0, #161]
	.loc	5 2002 3                        @ ../Library/STM32F4xx_HAL_Driver/Src/stm32f4xx_hal_ltdc.c:2002:3
	ldr	r2, [r0]
	add.w	r1, r2, r1, lsl #7
.Ltmp336:
	@DEBUG_VALUE: HAL_LTDC_DisableCLUT_NoReload:LayerIdx <- [DW_OP_LLVM_entry_value 1] $r1
	.loc	5 2002 35 is_stmt 0             @ ../Library/STM32F4xx_HAL_Driver/Src/stm32f4xx_hal_ltdc.c:2002:35
	ldr.w	r2, [r1, #132]
	bic	r2, r2, #16
	str.w	r2, [r1, #132]
	movs	r1, #1
	movs	r2, #0
	.loc	5 2005 16 is_stmt 1             @ ../Library/STM32F4xx_HAL_Driver/Src/stm32f4xx_hal_ltdc.c:2005:16
	strb.w	r1, [r0, #161]
.Ltmp337:
	.loc	5 2008 3                        @ ../Library/STM32F4xx_HAL_Driver/Src/stm32f4xx_hal_ltdc.c:2008:3
	strb.w	r2, [r0, #160]
.Ltmp338:
.LBB37_2:
	@DEBUG_VALUE: HAL_LTDC_DisableCLUT_NoReload:hltdc <- $r0
	.loc	5 2011 1                        @ ../Library/STM32F4xx_HAL_Driver/Src/stm32f4xx_hal_ltdc.c:2011:1
	mov	r0, r2
.Ltmp339:
	@DEBUG_VALUE: HAL_LTDC_DisableCLUT_NoReload:hltdc <- [DW_OP_LLVM_entry_value 1] $r0
	bx	lr
.Ltmp340:
.Lfunc_end37:
	.size	HAL_LTDC_DisableCLUT_NoReload, .Lfunc_end37-HAL_LTDC_DisableCLUT_NoReload
	.cfi_endproc
	.cantunwind
	.fnend
                                        @ -- End function
	.section	.text.HAL_LTDC_GetState,"ax",%progbits
	.hidden	HAL_LTDC_GetState               @ -- Begin function HAL_LTDC_GetState
	.globl	HAL_LTDC_GetState
	.p2align	1
	.type	HAL_LTDC_GetState,%function
	.code	16                              @ @HAL_LTDC_GetState
	.thumb_func
HAL_LTDC_GetState:
.Lfunc_begin38:
	.loc	5 2040 0                        @ ../Library/STM32F4xx_HAL_Driver/Src/stm32f4xx_hal_ltdc.c:2040:0
	.fnstart
	.cfi_startproc
@ %bb.0:
	@DEBUG_VALUE: HAL_LTDC_GetState:hltdc <- $r0
	@DEBUG_VALUE: HAL_LTDC_GetState:hltdc <- $r0
	.loc	5 2041 17 prologue_end          @ ../Library/STM32F4xx_HAL_Driver/Src/stm32f4xx_hal_ltdc.c:2041:17
	ldrb.w	r0, [r0, #161]
.Ltmp341:
	@DEBUG_VALUE: HAL_LTDC_GetState:hltdc <- [DW_OP_LLVM_entry_value 1] $r0
	.loc	5 2041 3 is_stmt 0              @ ../Library/STM32F4xx_HAL_Driver/Src/stm32f4xx_hal_ltdc.c:2041:3
	bx	lr
.Ltmp342:
.Lfunc_end38:
	.size	HAL_LTDC_GetState, .Lfunc_end38-HAL_LTDC_GetState
	.cfi_endproc
	.cantunwind
	.fnend
                                        @ -- End function
	.section	.text.HAL_LTDC_GetError,"ax",%progbits
	.hidden	HAL_LTDC_GetError               @ -- Begin function HAL_LTDC_GetError
	.globl	HAL_LTDC_GetError
	.p2align	1
	.type	HAL_LTDC_GetError,%function
	.code	16                              @ @HAL_LTDC_GetError
	.thumb_func
HAL_LTDC_GetError:
.Lfunc_begin39:
	.loc	5 2051 0 is_stmt 1              @ ../Library/STM32F4xx_HAL_Driver/Src/stm32f4xx_hal_ltdc.c:2051:0
	.fnstart
	.cfi_startproc
@ %bb.0:
	@DEBUG_VALUE: HAL_LTDC_GetError:hltdc <- $r0
	@DEBUG_VALUE: HAL_LTDC_GetError:hltdc <- $r0
	.loc	5 2052 17 prologue_end          @ ../Library/STM32F4xx_HAL_Driver/Src/stm32f4xx_hal_ltdc.c:2052:17
	ldr.w	r0, [r0, #164]
.Ltmp343:
	@DEBUG_VALUE: HAL_LTDC_GetError:hltdc <- [DW_OP_LLVM_entry_value 1] $r0
	.loc	5 2052 3 is_stmt 0              @ ../Library/STM32F4xx_HAL_Driver/Src/stm32f4xx_hal_ltdc.c:2052:3
	bx	lr
.Ltmp344:
.Lfunc_end39:
	.size	HAL_LTDC_GetError, .Lfunc_end39-HAL_LTDC_GetError
	.cfi_endproc
	.cantunwind
	.fnend
                                        @ -- End function
	.type	.Lswitch.table.HAL_LTDC_SetPitch_NoReload,%object @ @switch.table.HAL_LTDC_SetPitch_NoReload
	.section	.rodata.cst32,"aM",%progbits,32
	.p2align	2
.Lswitch.table.HAL_LTDC_SetPitch_NoReload:
	.long	4                               @ 0x4
	.long	3                               @ 0x3
	.long	2                               @ 0x2
	.long	2                               @ 0x2
	.long	2                               @ 0x2
	.long	1                               @ 0x1
	.long	1                               @ 0x1
	.long	2                               @ 0x2
	.size	.Lswitch.table.HAL_LTDC_SetPitch_NoReload, 32

	.section	".note.GNU-stack","",%progbits
	.eabi_attribute	30, 3	@ Tag_ABI_optimization_goals
	.ARM_attribute	16, 1	@ Tag_AV_eba