	.text
	.syntax unified
	.eabi_attribute	67, "2.09"	@ Tag_conformance
	.cpu	cortex-m4
	.eabi_attribute	6, 13	@ Tag_CPU_arch
	.eabi_attribute	7, 77	@ Tag_CPU_arch_profile
	.eabi_attribute	8, 0	@ Tag_ARM_ISA_use
	.eabi_attribute	9, 2	@ Tag_THUMB_ISA_use
	.fpu	fpv4-sp-d16
	.eabi_attribute	27, 1	@ Tag_ABI_HardFP_use
	.eabi_attribute	36, 1	@ Tag_FP_HP_extension
	.eabi_attribute	34, 1	@ Tag_CPU_unaligned_access
	.eabi_attribute	17, 1	@ Tag_ABI_PCS_GOT_use
	.eabi_attribute	20, 2	@ Tag_ABI_FP_denormal
	.eabi_attribute	21, 0	@ Tag_ABI_FP_exceptions
	.eabi_attribute	23, 1	@ Tag_ABI_FP_number_model
	.eabi_attribute	24, 1	@ Tag_ABI_align_needed
	.eabi_attribute	25, 1	@ Tag_ABI_align_preserved
	.eabi_attribute	28, 1	@ Tag_ABI_VFP_args
	.eabi_attribute	38, 1	@ Tag_ABI_FP_16bit_format
	.eabi_attribute	18, 2	@ Tag_ABI_PCS_wchar_t
	.eabi_attribute	26, 1	@ Tag_ABI_enum_size
	.eabi_attribute	14, 0	@ Tag_ABI_PCS_R9_use
	.file	"stm32f4xx_hal_rcc.c"
	.file	1 "C:\\Users\\Hyacincher\\Desktop\\HyTelectrl\\Code\\Project" "../Library/STM32F4xx_HAL_Driver/Inc/stm32f4xx_hal_def.h"
	.file	2 "C:\\Users\\Hyacincher\\Desktop\\HyTelectrl\\Code\\Project" "../Library/CMSIS\\stm32f4xx.h"
	.file	3 "D:\\Keil MDK\\ARM\\ARMCLANG\\Bin\\..\\include" "stdint.h"
	.file	4 "C:\\Users\\Hyacincher\\Desktop\\HyTelectrl\\Code\\Project" "../Library/CMSIS/stm32f429xx.h"
	.section	.text.HAL_RCC_DeInit,"ax",%progbits
	.hidden	HAL_RCC_DeInit                  @ -- Begin function HAL_RCC_DeInit
	.weak	HAL_RCC_DeInit
	.p2align	2
	.type	HAL_RCC_DeInit,%function
	.code	16                              @ @HAL_RCC_DeInit
	.thumb_func
HAL_RCC_DeInit:
.Lfunc_begin0:
	.file	5 "C:\\Users\\Hyacincher\\Desktop\\HyTelectrl\\Code\\Project" "../Library/STM32F4xx_HAL_Driver/Src/stm32f4xx_hal_rcc.c"
	.loc	5 203 0                         @ ../Library/STM32F4xx_HAL_Driver/Src/stm32f4xx_hal_rcc.c:203:0
	.fnstart
	.cfi_sections .debug_frame
	.cfi_startproc
@ %bb.0:
	movs	r0, #0
.Ltmp0:
	.loc	5 204 3 prologue_end            @ ../Library/STM32F4xx_HAL_Driver/Src/stm32f4xx_hal_rcc.c:204:3
	bx	lr
.Ltmp1:
.Lfunc_end0:
	.size	HAL_RCC_DeInit, .Lfunc_end0-HAL_RCC_DeInit
	.cfi_endproc
	.cantunwind
	.fnend
                                        @ -- End function
	.section	.text.HAL_RCC_OscConfig,"ax",%progbits
	.hidden	HAL_RCC_OscConfig               @ -- Begin function HAL_RCC_OscConfig
	.weak	HAL_RCC_OscConfig
	.p2align	2
	.type	HAL_RCC_OscConfig,%function
	.code	16                              @ @HAL_RCC_OscConfig
	.thumb_func
HAL_RCC_OscConfig:
.Lfunc_begin1:
	.loc	5 222 0                         @ ../Library/STM32F4xx_HAL_Driver/Src/stm32f4xx_hal_rcc.c:222:0
	.fnstart
	.cfi_startproc
@ %bb.0:
	.save	{r7, lr}
	push	{r7, lr}
	.cfi_def_cfa_offset 8
	.cfi_offset lr, -4
	.cfi_offset r7, -8
	.pad	#24
	sub	sp, #24
	.cfi_def_cfa_offset 32
	str	r0, [sp, #16]
.Ltmp2:
	.loc	5 226 6 prologue_end            @ ../Library/STM32F4xx_HAL_Driver/Src/stm32f4xx_hal_rcc.c:226:6
	ldr	r0, [sp, #16]
.Ltmp3:
	.loc	5 226 6 is_stmt 0               @ ../Library/STM32F4xx_HAL_Driver/Src/stm32f4xx_hal_rcc.c:226:6
	cbnz	r0, .LBB1_2
	b	.LBB1_1
.LBB1_1:
	.loc	5 0 6                           @ ../Library/STM32F4xx_HAL_Driver/Src/stm32f4xx_hal_rcc.c:0:6
	movs	r0, #1
.Ltmp4:
	.loc	5 228 5 is_stmt 1               @ ../Library/STM32F4xx_HAL_Driver/Src/stm32f4xx_hal_rcc.c:228:5
	strb.w	r0, [sp, #23]
	b	.LBB1_142
.Ltmp5:
.LBB1_2:
	.loc	5 234 8                         @ ../Library/STM32F4xx_HAL_Driver/Src/stm32f4xx_hal_rcc.c:234:8
	ldr	r0, [sp, #16]
.Ltmp6:
	.loc	5 234 6 is_stmt 0               @ ../Library/STM32F4xx_HAL_Driver/Src/stm32f4xx_hal_rcc.c:234:6
	ldrb	r0, [r0]
	lsls	r0, r0, #31
	cmp	r0, #0
	beq.w	.LBB1_33
	b	.LBB1_3
.LBB1_3:
	.loc	5 0 6                           @ ../Library/STM32F4xx_HAL_Driver/Src/stm32f4xx_hal_rcc.c:0:6
	movw	r0, #14344
	movt	r0, #16386
.Ltmp7:
	.loc	5 239 9 is_stmt 1               @ ../Library/STM32F4xx_HAL_Driver/Src/stm32f4xx_hal_rcc.c:239:9
	ldr	r0, [r0]
	and	r0, r0, #12
	.loc	5 239 60 is_stmt 0              @ ../Library/STM32F4xx_HAL_Driver/Src/stm32f4xx_hal_rcc.c:239:60
	cmp	r0, #4
	beq	.LBB1_6
	b	.LBB1_4
.LBB1_4:
	.loc	5 0 60                          @ ../Library/STM32F4xx_HAL_Driver/Src/stm32f4xx_hal_rcc.c:0:60
	movw	r0, #14344
	movt	r0, #16386
	.loc	5 240 9 is_stmt 1               @ ../Library/STM32F4xx_HAL_Driver/Src/stm32f4xx_hal_rcc.c:240:9
	ldr	r0, [r0]
	and	r0, r0, #12
	.loc	5 240 60 is_stmt 0              @ ../Library/STM32F4xx_HAL_Driver/Src/stm32f4xx_hal_rcc.c:240:60
	cmp	r0, #8
	bne	.LBB1_10
	b	.LBB1_5
.LBB1_5:
	.loc	5 0 60                          @ ../Library/STM32F4xx_HAL_Driver/Src/stm32f4xx_hal_rcc.c:0:60
	movw	r0, #14340
	movt	r0, #16386
	.loc	5 240 70                        @ ../Library/STM32F4xx_HAL_Driver/Src/stm32f4xx_hal_rcc.c:240:70
	ldr	r0, [r0]
.Ltmp8:
	.loc	5 239 8 is_stmt 1               @ ../Library/STM32F4xx_HAL_Driver/Src/stm32f4xx_hal_rcc.c:239:8
	lsls	r0, r0, #9
	cmp	r0, #0
	bpl	.LBB1_10
	b	.LBB1_6
.LBB1_6:
	.loc	5 0 8 is_stmt 0                 @ ../Library/STM32F4xx_HAL_Driver/Src/stm32f4xx_hal_rcc.c:0:8
	movw	r0, #14336
	movt	r0, #16386
.Ltmp9:
	.loc	5 242 11 is_stmt 1              @ ../Library/STM32F4xx_HAL_Driver/Src/stm32f4xx_hal_rcc.c:242:11
	ldr	r0, [r0]
	and	r1, r0, #131072
	movs	r0, #0
	.loc	5 242 57 is_stmt 0              @ ../Library/STM32F4xx_HAL_Driver/Src/stm32f4xx_hal_rcc.c:242:57
	cmp.w	r0, r1, lsr #17
	beq	.LBB1_9
	b	.LBB1_7
.LBB1_7:
	.loc	5 242 61                        @ ../Library/STM32F4xx_HAL_Driver/Src/stm32f4xx_hal_rcc.c:242:61
	ldr	r0, [sp, #16]
	.loc	5 242 80                        @ ../Library/STM32F4xx_HAL_Driver/Src/stm32f4xx_hal_rcc.c:242:80
	ldr	r0, [r0, #4]
.Ltmp10:
	.loc	5 242 10                        @ ../Library/STM32F4xx_HAL_Driver/Src/stm32f4xx_hal_rcc.c:242:10
	cbnz	r0, .LBB1_9
	b	.LBB1_8
.LBB1_8:
	.loc	5 0 10                          @ ../Library/STM32F4xx_HAL_Driver/Src/stm32f4xx_hal_rcc.c:0:10
	movs	r0, #1
.Ltmp11:
	.loc	5 244 9 is_stmt 1               @ ../Library/STM32F4xx_HAL_Driver/Src/stm32f4xx_hal_rcc.c:244:9
	strb.w	r0, [sp, #23]
	b	.LBB1_142
.Ltmp12:
.LBB1_9:
	.loc	5 246 5                         @ ../Library/STM32F4xx_HAL_Driver/Src/stm32f4xx_hal_rcc.c:246:5
	b	.LBB1_32
.Ltmp13:
.LBB1_10:
	.loc	5 250 7                         @ ../Library/STM32F4xx_HAL_Driver/Src/stm32f4xx_hal_rcc.c:250:7
	b	.LBB1_11
.LBB1_11:
.Ltmp14:
	.loc	5 250 7 is_stmt 0               @ ../Library/STM32F4xx_HAL_Driver/Src/stm32f4xx_hal_rcc.c:250:7
	ldr	r0, [sp, #16]
	ldr	r0, [r0, #4]
.Ltmp15:
	.loc	5 250 7                         @ ../Library/STM32F4xx_HAL_Driver/Src/stm32f4xx_hal_rcc.c:250:7
	cmp.w	r0, #65536
	bne	.LBB1_13
	b	.LBB1_12
.LBB1_12:
	.loc	5 0 7                           @ ../Library/STM32F4xx_HAL_Driver/Src/stm32f4xx_hal_rcc.c:0:7
	movw	r1, #14336
	movt	r1, #16386
.Ltmp16:
	.loc	5 250 7                         @ ../Library/STM32F4xx_HAL_Driver/Src/stm32f4xx_hal_rcc.c:250:7
	ldr	r0, [r1]
	orr	r0, r0, #65536
	str	r0, [r1]
	b	.LBB1_17
.Ltmp17:
.LBB1_13:
	.loc	5 250 7                         @ ../Library/STM32F4xx_HAL_Driver/Src/stm32f4xx_hal_rcc.c:250:7
	ldr	r0, [sp, #16]
	ldr	r0, [r0, #4]
.Ltmp18:
	.loc	5 250 7                         @ ../Library/STM32F4xx_HAL_Driver/Src/stm32f4xx_hal_rcc.c:250:7
	cmp.w	r0, #327680
	bne	.LBB1_15
	b	.LBB1_14
.LBB1_14:
	.loc	5 0 7                           @ ../Library/STM32F4xx_HAL_Driver/Src/stm32f4xx_hal_rcc.c:0:7
	movw	r1, #14336
	movt	r1, #16386
.Ltmp19:
	.loc	5 250 7                         @ ../Library/STM32F4xx_HAL_Driver/Src/stm32f4xx_hal_rcc.c:250:7
	ldr	r0, [r1]
	orr	r0, r0, #262144
	str	r0, [r1]
	ldr	r0, [r1]
	orr	r0, r0, #65536
	str	r0, [r1]
	b	.LBB1_16
.Ltmp20:
.LBB1_15:
	.loc	5 0 7                           @ ../Library/STM32F4xx_HAL_Driver/Src/stm32f4xx_hal_rcc.c:0:7
	movw	r1, #14336
	movt	r1, #16386
.Ltmp21:
	.loc	5 250 7                         @ ../Library/STM32F4xx_HAL_Driver/Src/stm32f4xx_hal_rcc.c:250:7
	ldr	r0, [r1]
	bic	r0, r0, #65536
	str	r0, [r1]
	ldr	r0, [r1]
	bic	r0, r0, #262144
	str	r0, [r1]
	b	.LBB1_16
.Ltmp22:
.LBB1_16:
	.loc	5 0 7                           @ ../Library/STM32F4xx_HAL_Driver/Src/stm32f4xx_hal_rcc.c:0:7
	b	.LBB1_17
.LBB1_17:
	.loc	5 250 7                         @ ../Library/STM32F4xx_HAL_Driver/Src/stm32f4xx_hal_rcc.c:250:7
	b	.LBB1_18
.Ltmp23:
.LBB1_18:
	.loc	5 253 11 is_stmt 1              @ ../Library/STM32F4xx_HAL_Driver/Src/stm32f4xx_hal_rcc.c:253:11
	ldr	r0, [sp, #16]
	.loc	5 253 30 is_stmt 0              @ ../Library/STM32F4xx_HAL_Driver/Src/stm32f4xx_hal_rcc.c:253:30
	ldr	r0, [r0, #4]
.Ltmp24:
	.loc	5 253 10                        @ ../Library/STM32F4xx_HAL_Driver/Src/stm32f4xx_hal_rcc.c:253:10
	cbz	r0, .LBB1_25
	b	.LBB1_19
.LBB1_19:
.Ltmp25:
	.loc	5 256 21 is_stmt 1              @ ../Library/STM32F4xx_HAL_Driver/Src/stm32f4xx_hal_rcc.c:256:21
	bl	HAL_GetTick
	.loc	5 256 19 is_stmt 0              @ ../Library/STM32F4xx_HAL_Driver/Src/stm32f4xx_hal_rcc.c:256:19
	str	r0, [sp, #12]
	.loc	5 259 9 is_stmt 1               @ ../Library/STM32F4xx_HAL_Driver/Src/stm32f4xx_hal_rcc.c:259:9
	b	.LBB1_20
.LBB1_20:                               @ =>This Inner Loop Header: Depth=1
	.loc	5 0 9 is_stmt 0                 @ ../Library/STM32F4xx_HAL_Driver/Src/stm32f4xx_hal_rcc.c:0:9
	movw	r0, #14336
	movt	r0, #16386
	.loc	5 259 15                        @ ../Library/STM32F4xx_HAL_Driver/Src/stm32f4xx_hal_rcc.c:259:15
	ldr	r0, [r0]
	and	r1, r0, #131072
	movs	r0, #0
	.loc	5 259 9                         @ ../Library/STM32F4xx_HAL_Driver/Src/stm32f4xx_hal_rcc.c:259:9
	cmp.w	r0, r1, lsr #17
	bne	.LBB1_24
	b	.LBB1_21
.LBB1_21:                               @   in Loop: Header=BB1_20 Depth=1
.Ltmp26:
	.loc	5 261 15 is_stmt 1              @ ../Library/STM32F4xx_HAL_Driver/Src/stm32f4xx_hal_rcc.c:261:15
	bl	HAL_GetTick
	.loc	5 261 31 is_stmt 0              @ ../Library/STM32F4xx_HAL_Driver/Src/stm32f4xx_hal_rcc.c:261:31
	ldr	r1, [sp, #12]
	.loc	5 261 29                        @ ../Library/STM32F4xx_HAL_Driver/Src/stm32f4xx_hal_rcc.c:261:29
	subs	r0, r0, r1
.Ltmp27:
	.loc	5 261 14                        @ ../Library/STM32F4xx_HAL_Driver/Src/stm32f4xx_hal_rcc.c:261:14
	cmp	r0, #101
	blo	.LBB1_23
	b	.LBB1_22
.LBB1_22:
	.loc	5 0 14                          @ ../Library/STM32F4xx_HAL_Driver/Src/stm32f4xx_hal_rcc.c:0:14
	movs	r0, #3
.Ltmp28:
	.loc	5 263 13 is_stmt 1              @ ../Library/STM32F4xx_HAL_Driver/Src/stm32f4xx_hal_rcc.c:263:13
	strb.w	r0, [sp, #23]
	b	.LBB1_142
.Ltmp29:
.LBB1_23:                               @   in Loop: Header=BB1_20 Depth=1
	.loc	5 259 9                         @ ../Library/STM32F4xx_HAL_Driver/Src/stm32f4xx_hal_rcc.c:259:9
	b	.LBB1_20
.LBB1_24:
	.loc	5 266 7                         @ ../Library/STM32F4xx_HAL_Driver/Src/stm32f4xx_hal_rcc.c:266:7
	b	.LBB1_31
.Ltmp30:
.LBB1_25:
	.loc	5 270 21                        @ ../Library/STM32F4xx_HAL_Driver/Src/stm32f4xx_hal_rcc.c:270:21
	bl	HAL_GetTick
	.loc	5 270 19 is_stmt 0              @ ../Library/STM32F4xx_HAL_Driver/Src/stm32f4xx_hal_rcc.c:270:19
	str	r0, [sp, #12]
	.loc	5 273 9 is_stmt 1               @ ../Library/STM32F4xx_HAL_Driver/Src/stm32f4xx_hal_rcc.c:273:9
	b	.LBB1_26
.LBB1_26:                               @ =>This Inner Loop Header: Depth=1
	.loc	5 0 9 is_stmt 0                 @ ../Library/STM32F4xx_HAL_Driver/Src/stm32f4xx_hal_rcc.c:0:9
	movw	r0, #14336
	movt	r0, #16386
	.loc	5 273 15                        @ ../Library/STM32F4xx_HAL_Driver/Src/stm32f4xx_hal_rcc.c:273:15
	ldr	r0, [r0]
	and	r1, r0, #131072
	movs	r0, #0
	.loc	5 273 9                         @ ../Library/STM32F4xx_HAL_Driver/Src/stm32f4xx_hal_rcc.c:273:9
	cmp.w	r0, r1, lsr #17
	beq	.LBB1_30
	b	.LBB1_27
.LBB1_27:                               @   in Loop: Header=BB1_26 Depth=1
.Ltmp31:
	.loc	5 275 15 is_stmt 1              @ ../Library/STM32F4xx_HAL_Driver/Src/stm32f4xx_hal_rcc.c:275:15
	bl	HAL_GetTick
	.loc	5 275 31 is_stmt 0              @ ../Library/STM32F4xx_HAL_Driver/Src/stm32f4xx_hal_rcc.c:275:31
	ldr	r1, [sp, #12]
	.loc	5 275 29                        @ ../Library/STM32F4xx_HAL_Driver/Src/stm32f4xx_hal_rcc.c:275:29
	subs	r0, r0, r1
.Ltmp32:
	.loc	5 275 14                        @ ../Library/STM32F4xx_HAL_Driver/Src/stm32f4xx_hal_rcc.c:275:14
	cmp	r0, #101
	blo	.LBB1_29
	b	.LBB1_28
.LBB1_28:
	.loc	5 0 14                          @ ../Library/STM32F4xx_HAL_Driver/Src/stm32f4xx_hal_rcc.c:0:14
	movs	r0, #3
.Ltmp33:
	.loc	5 277 13 is_stmt 1              @ ../Library/STM32F4xx_HAL_Driver/Src/stm32f4xx_hal_rcc.c:277:13
	strb.w	r0, [sp, #23]
	b	.LBB1_142
.Ltmp34:
.LBB1_29:                               @   in Loop: Header=BB1_26 Depth=1
	.loc	5 273 9                         @ ../Library/STM32F4xx_HAL_Driver/Src/stm32f4xx_hal_rcc.c:273:9
	b	.LBB1_26
.Ltmp35:
.LBB1_30:
	.loc	5 0 9 is_stmt 0                 @ ../Library/STM32F4xx_HAL_Driver/Src/stm32f4xx_hal_rcc.c:0:9
	b	.LBB1_31
.LBB1_31:
	b	.LBB1_32
.LBB1_32:
	.loc	5 282 3 is_stmt 1               @ ../Library/STM32F4xx_HAL_Driver/Src/stm32f4xx_hal_rcc.c:282:3
	b	.LBB1_33
.Ltmp36:
.LBB1_33:
	.loc	5 284 8                         @ ../Library/STM32F4xx_HAL_Driver/Src/stm32f4xx_hal_rcc.c:284:8
	ldr	r0, [sp, #16]
.Ltmp37:
	.loc	5 284 6 is_stmt 0               @ ../Library/STM32F4xx_HAL_Driver/Src/stm32f4xx_hal_rcc.c:284:6
	ldrb	r0, [r0]
	lsls	r0, r0, #30
	cmp	r0, #0
	bpl.w	.LBB1_57
	b	.LBB1_34
.LBB1_34:
	.loc	5 0 6                           @ ../Library/STM32F4xx_HAL_Driver/Src/stm32f4xx_hal_rcc.c:0:6
	movw	r0, #14344
	movt	r0, #16386
.Ltmp38:
	.loc	5 291 9 is_stmt 1               @ ../Library/STM32F4xx_HAL_Driver/Src/stm32f4xx_hal_rcc.c:291:9
	ldr	r0, [r0]
	.loc	5 291 60 is_stmt 0              @ ../Library/STM32F4xx_HAL_Driver/Src/stm32f4xx_hal_rcc.c:291:60
	tst.w	r0, #12
	beq	.LBB1_37
	b	.LBB1_35
.LBB1_35:
	.loc	5 0 60                          @ ../Library/STM32F4xx_HAL_Driver/Src/stm32f4xx_hal_rcc.c:0:60
	movw	r0, #14344
	movt	r0, #16386
	.loc	5 292 9 is_stmt 1               @ ../Library/STM32F4xx_HAL_Driver/Src/stm32f4xx_hal_rcc.c:292:9
	ldr	r0, [r0]
	and	r0, r0, #12
	.loc	5 292 60 is_stmt 0              @ ../Library/STM32F4xx_HAL_Driver/Src/stm32f4xx_hal_rcc.c:292:60
	cmp	r0, #8
	bne	.LBB1_42
	b	.LBB1_36
.LBB1_36:
	.loc	5 0 60                          @ ../Library/STM32F4xx_HAL_Driver/Src/stm32f4xx_hal_rcc.c:0:60
	movw	r0, #14340
	movt	r0, #16386
	.loc	5 292 70                        @ ../Library/STM32F4xx_HAL_Driver/Src/stm32f4xx_hal_rcc.c:292:70
	ldr	r0, [r0]
.Ltmp39:
	.loc	5 291 8 is_stmt 1               @ ../Library/STM32F4xx_HAL_Driver/Src/stm32f4xx_hal_rcc.c:291:8
	lsls	r0, r0, #9
	cmp	r0, #0
	bmi	.LBB1_42
	b	.LBB1_37
.LBB1_37:
	.loc	5 0 8 is_stmt 0                 @ ../Library/STM32F4xx_HAL_Driver/Src/stm32f4xx_hal_rcc.c:0:8
	movw	r0, #14336
	movt	r0, #16386
.Ltmp40:
	.loc	5 295 11 is_stmt 1              @ ../Library/STM32F4xx_HAL_Driver/Src/stm32f4xx_hal_rcc.c:295:11
	ldr	r0, [r0]
	and	r1, r0, #2
	movs	r0, #0
	.loc	5 295 57 is_stmt 0              @ ../Library/STM32F4xx_HAL_Driver/Src/stm32f4xx_hal_rcc.c:295:57
	cmp.w	r0, r1, lsr #1
	beq	.LBB1_40
	b	.LBB1_38
.LBB1_38:
	.loc	5 295 61                        @ ../Library/STM32F4xx_HAL_Driver/Src/stm32f4xx_hal_rcc.c:295:61
	ldr	r0, [sp, #16]
	.loc	5 295 80                        @ ../Library/STM32F4xx_HAL_Driver/Src/stm32f4xx_hal_rcc.c:295:80
	ldr	r0, [r0, #12]
.Ltmp41:
	.loc	5 295 10                        @ ../Library/STM32F4xx_HAL_Driver/Src/stm32f4xx_hal_rcc.c:295:10
	cmp	r0, #1
	beq	.LBB1_40
	b	.LBB1_39
.LBB1_39:
	.loc	5 0 10                          @ ../Library/STM32F4xx_HAL_Driver/Src/stm32f4xx_hal_rcc.c:0:10
	movs	r0, #1
.Ltmp42:
	.loc	5 297 9 is_stmt 1               @ ../Library/STM32F4xx_HAL_Driver/Src/stm32f4xx_hal_rcc.c:297:9
	strb.w	r0, [sp, #23]
	b	.LBB1_142
.Ltmp43:
.LBB1_40:
	.loc	5 0 9 is_stmt 0                 @ ../Library/STM32F4xx_HAL_Driver/Src/stm32f4xx_hal_rcc.c:0:9
	movw	r1, #14336
	movt	r1, #16386
.Ltmp44:
	.loc	5 303 9 is_stmt 1               @ ../Library/STM32F4xx_HAL_Driver/Src/stm32f4xx_hal_rcc.c:303:9
	ldr	r0, [r1]
	bic	r0, r0, #248
	ldr	r2, [sp, #16]
	ldr	r2, [r2, #16]
	orr.w	r0, r0, r2, lsl #3
	str	r0, [r1]
	b	.LBB1_41
.Ltmp45:
.LBB1_41:
	.loc	5 305 5                         @ ../Library/STM32F4xx_HAL_Driver/Src/stm32f4xx_hal_rcc.c:305:5
	b	.LBB1_56
.Ltmp46:
.LBB1_42:
	.loc	5 309 11                        @ ../Library/STM32F4xx_HAL_Driver/Src/stm32f4xx_hal_rcc.c:309:11
	ldr	r0, [sp, #16]
	.loc	5 309 30 is_stmt 0              @ ../Library/STM32F4xx_HAL_Driver/Src/stm32f4xx_hal_rcc.c:309:30
	ldr	r0, [r0, #12]
.Ltmp47:
	.loc	5 309 10                        @ ../Library/STM32F4xx_HAL_Driver/Src/stm32f4xx_hal_rcc.c:309:10
	cbz	r0, .LBB1_49
	b	.LBB1_43
.LBB1_43:
	.loc	5 0 10                          @ ../Library/STM32F4xx_HAL_Driver/Src/stm32f4xx_hal_rcc.c:0:10
	movs	r1, #0
	movt	r1, #16967
	movs	r0, #1
.Ltmp48:
	.loc	5 312 9 is_stmt 1               @ ../Library/STM32F4xx_HAL_Driver/Src/stm32f4xx_hal_rcc.c:312:9
	str	r0, [r1]
	.loc	5 315 21                        @ ../Library/STM32F4xx_HAL_Driver/Src/stm32f4xx_hal_rcc.c:315:21
	bl	HAL_GetTick
	.loc	5 315 19 is_stmt 0              @ ../Library/STM32F4xx_HAL_Driver/Src/stm32f4xx_hal_rcc.c:315:19
	str	r0, [sp, #12]
	.loc	5 318 9 is_stmt 1               @ ../Library/STM32F4xx_HAL_Driver/Src/stm32f4xx_hal_rcc.c:318:9
	b	.LBB1_44
.LBB1_44:                               @ =>This Inner Loop Header: Depth=1
	.loc	5 0 9 is_stmt 0                 @ ../Library/STM32F4xx_HAL_Driver/Src/stm32f4xx_hal_rcc.c:0:9
	movw	r0, #14336
	movt	r0, #16386
	.loc	5 318 15                        @ ../Library/STM32F4xx_HAL_Driver/Src/stm32f4xx_hal_rcc.c:318:15
	ldr	r0, [r0]
	and	r1, r0, #2
	movs	r0, #0
	.loc	5 318 9                         @ ../Library/STM32F4xx_HAL_Driver/Src/stm32f4xx_hal_rcc.c:318:9
	cmp.w	r0, r1, lsr #1
	bne	.LBB1_48
	b	.LBB1_45
.LBB1_45:                               @   in Loop: Header=BB1_44 Depth=1
.Ltmp49:
	.loc	5 320 15 is_stmt 1              @ ../Library/STM32F4xx_HAL_Driver/Src/stm32f4xx_hal_rcc.c:320:15
	bl	HAL_GetTick
	.loc	5 320 31 is_stmt 0              @ ../Library/STM32F4xx_HAL_Driver/Src/stm32f4xx_hal_rcc.c:320:31
	ldr	r1, [sp, #12]
	.loc	5 320 29                        @ ../Library/STM32F4xx_HAL_Driver/Src/stm32f4xx_hal_rcc.c:320:29
	subs	r0, r0, r1
.Ltmp50:
	.loc	5 320 14                        @ ../Library/STM32F4xx_HAL_Driver/Src/stm32f4xx_hal_rcc.c:320:14
	cmp	r0, #3
	blo	.LBB1_47
	b	.LBB1_46
.LBB1_46:
	.loc	5 0 14                          @ ../Library/STM32F4xx_HAL_Driver/Src/stm32f4xx_hal_rcc.c:0:14
	movs	r0, #3
.Ltmp51:
	.loc	5 322 13 is_stmt 1              @ ../Library/STM32F4xx_HAL_Driver/Src/stm32f4xx_hal_rcc.c:322:13
	strb.w	r0, [sp, #23]
	b	.LBB1_142
.Ltmp52:
.LBB1_47:                               @   in Loop: Header=BB1_44 Depth=1
	.loc	5 318 9                         @ ../Library/STM32F4xx_HAL_Driver/Src/stm32f4xx_hal_rcc.c:318:9
	b	.LBB1_44
.LBB1_48:
	.loc	5 0 9 is_stmt 0                 @ ../Library/STM32F4xx_HAL_Driver/Src/stm32f4xx_hal_rcc.c:0:9
	movw	r1, #14336
	movt	r1, #16386
	.loc	5 327 9 is_stmt 1               @ ../Library/STM32F4xx_HAL_Driver/Src/stm32f4xx_hal_rcc.c:327:9
	ldr	r0, [r1]
	bic	r0, r0, #248
	ldr	r2, [sp, #16]
	ldr	r2, [r2, #16]
	orr.w	r0, r0, r2, lsl #3
	str	r0, [r1]
	.loc	5 328 7                         @ ../Library/STM32F4xx_HAL_Driver/Src/stm32f4xx_hal_rcc.c:328:7
	b	.LBB1_55
.Ltmp53:
.LBB1_49:
	.loc	5 0 7 is_stmt 0                 @ ../Library/STM32F4xx_HAL_Driver/Src/stm32f4xx_hal_rcc.c:0:7
	movs	r1, #0
	movt	r1, #16967
	movs	r0, #0
.Ltmp54:
	.loc	5 332 9 is_stmt 1               @ ../Library/STM32F4xx_HAL_Driver/Src/stm32f4xx_hal_rcc.c:332:9
	str	r0, [r1]
	.loc	5 335 21                        @ ../Library/STM32F4xx_HAL_Driver/Src/stm32f4xx_hal_rcc.c:335:21
	bl	HAL_GetTick
	.loc	5 335 19 is_stmt 0              @ ../Library/STM32F4xx_HAL_Driver/Src/stm32f4xx_hal_rcc.c:335:19
	str	r0, [sp, #12]
	.loc	5 338 9 is_stmt 1               @ ../Library/STM32F4xx_HAL_Driver/Src/stm32f4xx_hal_rcc.c:338:9
	b	.LBB1_50
.LBB1_50:                               @ =>This Inner Loop Header: Depth=1
	.loc	5 0 9 is_stmt 0                 @ ../Library/STM32F4xx_HAL_Driver/Src/stm32f4xx_hal_rcc.c:0:9
	movw	r0, #14336
	movt	r0, #16386
	.loc	5 338 15                        @ ../Library/STM32F4xx_HAL_Driver/Src/stm32f4xx_hal_rcc.c:338:15
	ldr	r0, [r0]
	and	r1, r0, #2
	movs	r0, #0
	.loc	5 338 9                         @ ../Library/STM32F4xx_HAL_Driver/Src/stm32f4xx_hal_rcc.c:338:9
	cmp.w	r0, r1, lsr #1
	beq	.LBB1_54
	b	.LBB1_51
.LBB1_51:                               @   in Loop: Header=BB1_50 Depth=1
.Ltmp55:
	.loc	5 340 15 is_stmt 1              @ ../Library/STM32F4xx_HAL_Driver/Src/stm32f4xx_hal_rcc.c:340:15
	bl	HAL_GetTick
	.loc	5 340 31 is_stmt 0              @ ../Library/STM32F4xx_HAL_Driver/Src/stm32f4xx_hal_rcc.c:340:31
	ldr	r1, [sp, #12]
	.loc	5 340 29                        @ ../Library/STM32F4xx_HAL_Driver/Src/stm32f4xx_hal_rcc.c:340:29
	subs	r0, r0, r1
.Ltmp56:
	.loc	5 340 14                        @ ../Library/STM32F4xx_HAL_Driver/Src/stm32f4xx_hal_rcc.c:340:14
	cmp	r0, #3
	blo	.LBB1_53
	b	.LBB1_52
.LBB1_52:
	.loc	5 0 14                          @ ../Library/STM32F4xx_HAL_Driver/Src/stm32f4xx_hal_rcc.c:0:14
	movs	r0, #3
.Ltmp57:
	.loc	5 342 13 is_stmt 1              @ ../Library/STM32F4xx_HAL_Driver/Src/stm32f4xx_hal_rcc.c:342:13
	strb.w	r0, [sp, #23]
	b	.LBB1_142
.Ltmp58:
.LBB1_53:                               @   in Loop: Header=BB1_50 Depth=1
	.loc	5 338 9                         @ ../Library/STM32F4xx_HAL_Driver/Src/stm32f4xx_hal_rcc.c:338:9
	b	.LBB1_50
.Ltmp59:
.LBB1_54:
	.loc	5 0 9 is_stmt 0                 @ ../Library/STM32F4xx_HAL_Driver/Src/stm32f4xx_hal_rcc.c:0:9
	b	.LBB1_55
.LBB1_55:
	b	.LBB1_56
.LBB1_56:
	.loc	5 347 3 is_stmt 1               @ ../Library/STM32F4xx_HAL_Driver/Src/stm32f4xx_hal_rcc.c:347:3
	b	.LBB1_57
.Ltmp60:
.LBB1_57:
	.loc	5 349 8                         @ ../Library/STM32F4xx_HAL_Driver/Src/stm32f4xx_hal_rcc.c:349:8
	ldr	r0, [sp, #16]
.Ltmp61:
	.loc	5 349 6 is_stmt 0               @ ../Library/STM32F4xx_HAL_Driver/Src/stm32f4xx_hal_rcc.c:349:6
	ldrb	r0, [r0]
	lsls	r0, r0, #28
	cmp	r0, #0
	bpl	.LBB1_72
	b	.LBB1_58
.LBB1_58:
.Ltmp62:
	.loc	5 355 9 is_stmt 1               @ ../Library/STM32F4xx_HAL_Driver/Src/stm32f4xx_hal_rcc.c:355:9
	ldr	r0, [sp, #16]
	.loc	5 355 28 is_stmt 0              @ ../Library/STM32F4xx_HAL_Driver/Src/stm32f4xx_hal_rcc.c:355:28
	ldr	r0, [r0, #20]
.Ltmp63:
	.loc	5 355 8                         @ ../Library/STM32F4xx_HAL_Driver/Src/stm32f4xx_hal_rcc.c:355:8
	cbz	r0, .LBB1_65
	b	.LBB1_59
.LBB1_59:
	.loc	5 0 8                           @ ../Library/STM32F4xx_HAL_Driver/Src/stm32f4xx_hal_rcc.c:0:8
	movw	r1, #3712
	movt	r1, #16967
	movs	r0, #1
.Ltmp64:
	.loc	5 358 7 is_stmt 1               @ ../Library/STM32F4xx_HAL_Driver/Src/stm32f4xx_hal_rcc.c:358:7
	str	r0, [r1]
	.loc	5 361 19                        @ ../Library/STM32F4xx_HAL_Driver/Src/stm32f4xx_hal_rcc.c:361:19
	bl	HAL_GetTick
	.loc	5 361 17 is_stmt 0              @ ../Library/STM32F4xx_HAL_Driver/Src/stm32f4xx_hal_rcc.c:361:17
	str	r0, [sp, #12]
	.loc	5 364 7 is_stmt 1               @ ../Library/STM32F4xx_HAL_Driver/Src/stm32f4xx_hal_rcc.c:364:7
	b	.LBB1_60
.LBB1_60:                               @ =>This Inner Loop Header: Depth=1
	.loc	5 0 7 is_stmt 0                 @ ../Library/STM32F4xx_HAL_Driver/Src/stm32f4xx_hal_rcc.c:0:7
	movw	r0, #14452
	movt	r0, #16386
	.loc	5 364 13                        @ ../Library/STM32F4xx_HAL_Driver/Src/stm32f4xx_hal_rcc.c:364:13
	ldr	r0, [r0]
	and	r1, r0, #2
	movs	r0, #0
	.loc	5 364 7                         @ ../Library/STM32F4xx_HAL_Driver/Src/stm32f4xx_hal_rcc.c:364:7
	cmp.w	r0, r1, lsr #1
	bne	.LBB1_64
	b	.LBB1_61
.LBB1_61:                               @   in Loop: Header=BB1_60 Depth=1
.Ltmp65:
	.loc	5 366 13 is_stmt 1              @ ../Library/STM32F4xx_HAL_Driver/Src/stm32f4xx_hal_rcc.c:366:13
	bl	HAL_GetTick
	.loc	5 366 29 is_stmt 0              @ ../Library/STM32F4xx_HAL_Driver/Src/stm32f4xx_hal_rcc.c:366:29
	ldr	r1, [sp, #12]
	.loc	5 366 27                        @ ../Library/STM32F4xx_HAL_Driver/Src/stm32f4xx_hal_rcc.c:366:27
	subs	r0, r0, r1
.Ltmp66:
	.loc	5 366 12                        @ ../Library/STM32F4xx_HAL_Driver/Src/stm32f4xx_hal_rcc.c:366:12
	cmp	r0, #3
	blo	.LBB1_63
	b	.LBB1_62
.LBB1_62:
	.loc	5 0 12                          @ ../Library/STM32F4xx_HAL_Driver/Src/stm32f4xx_hal_rcc.c:0:12
	movs	r0, #3
.Ltmp67:
	.loc	5 368 11 is_stmt 1              @ ../Library/STM32F4xx_HAL_Driver/Src/stm32f4xx_hal_rcc.c:368:11
	strb.w	r0, [sp, #23]
	b	.LBB1_142
.Ltmp68:
.LBB1_63:                               @   in Loop: Header=BB1_60 Depth=1
	.loc	5 364 7                         @ ../Library/STM32F4xx_HAL_Driver/Src/stm32f4xx_hal_rcc.c:364:7
	b	.LBB1_60
.LBB1_64:
	.loc	5 371 5                         @ ../Library/STM32F4xx_HAL_Driver/Src/stm32f4xx_hal_rcc.c:371:5
	b	.LBB1_71
.Ltmp69:
.LBB1_65:
	.loc	5 0 5 is_stmt 0                 @ ../Library/STM32F4xx_HAL_Driver/Src/stm32f4xx_hal_rcc.c:0:5
	movw	r1, #3712
	movt	r1, #16967
	movs	r0, #0
.Ltmp70:
	.loc	5 375 7 is_stmt 1               @ ../Library/STM32F4xx_HAL_Driver/Src/stm32f4xx_hal_rcc.c:375:7
	str	r0, [r1]
	.loc	5 378 19                        @ ../Library/STM32F4xx_HAL_Driver/Src/stm32f4xx_hal_rcc.c:378:19
	bl	HAL_GetTick
	.loc	5 378 17 is_stmt 0              @ ../Library/STM32F4xx_HAL_Driver/Src/stm32f4xx_hal_rcc.c:378:17
	str	r0, [sp, #12]
	.loc	5 381 7 is_stmt 1               @ ../Library/STM32F4xx_HAL_Driver/Src/stm32f4xx_hal_rcc.c:381:7
	b	.LBB1_66
.LBB1_66:                               @ =>This Inner Loop Header: Depth=1
	.loc	5 0 7 is_stmt 0                 @ ../Library/STM32F4xx_HAL_Driver/Src/stm32f4xx_hal_rcc.c:0:7
	movw	r0, #14452
	movt	r0, #16386
	.loc	5 381 13                        @ ../Library/STM32F4xx_HAL_Driver/Src/stm32f4xx_hal_rcc.c:381:13
	ldr	r0, [r0]
	and	r1, r0, #2
	movs	r0, #0
	.loc	5 381 7                         @ ../Library/STM32F4xx_HAL_Driver/Src/stm32f4xx_hal_rcc.c:381:7
	cmp.w	r0, r1, lsr #1
	beq	.LBB1_70
	b	.LBB1_67
.LBB1_67:                               @   in Loop: Header=BB1_66 Depth=1
.Ltmp71:
	.loc	5 383 13 is_stmt 1              @ ../Library/STM32F4xx_HAL_Driver/Src/stm32f4xx_hal_rcc.c:383:13
	bl	HAL_GetTick
	.loc	5 383 29 is_stmt 0              @ ../Library/STM32F4xx_HAL_Driver/Src/stm32f4xx_hal_rcc.c:383:29
	ldr	r1, [sp, #12]
	.loc	5 383 27                        @ ../Library/STM32F4xx_HAL_Driver/Src/stm32f4xx_hal_rcc.c:383:27
	subs	r0, r0, r1
.Ltmp72:
	.loc	5 383 12                        @ ../Library/STM32F4xx_HAL_Driver/Src/stm32f4xx_hal_rcc.c:383:12
	cmp	r0, #3
	blo	.LBB1_69
	b	.LBB1_68
.LBB1_68:
	.loc	5 0 12                          @ ../Library/STM32F4xx_HAL_Driver/Src/stm32f4xx_hal_rcc.c:0:12
	movs	r0, #3
.Ltmp73:
	.loc	5 385 11 is_stmt 1              @ ../Library/STM32F4xx_HAL_Driver/Src/stm32f4xx_hal_rcc.c:385:11
	strb.w	r0, [sp, #23]
	b	.LBB1_142
.Ltmp74:
.LBB1_69:                               @   in Loop: Header=BB1_66 Depth=1
	.loc	5 381 7                         @ ../Library/STM32F4xx_HAL_Driver/Src/stm32f4xx_hal_rcc.c:381:7
	b	.LBB1_66
.Ltmp75:
.LBB1_70:
	.loc	5 0 7 is_stmt 0                 @ ../Library/STM32F4xx_HAL_Driver/Src/stm32f4xx_hal_rcc.c:0:7
	b	.LBB1_71
.LBB1_71:
	.loc	5 389 3 is_stmt 1               @ ../Library/STM32F4xx_HAL_Driver/Src/stm32f4xx_hal_rcc.c:389:3
	b	.LBB1_72
.Ltmp76:
.LBB1_72:
	.loc	5 391 8                         @ ../Library/STM32F4xx_HAL_Driver/Src/stm32f4xx_hal_rcc.c:391:8
	ldr	r0, [sp, #16]
.Ltmp77:
	.loc	5 391 6 is_stmt 0               @ ../Library/STM32F4xx_HAL_Driver/Src/stm32f4xx_hal_rcc.c:391:6
	ldrb	r0, [r0]
	lsls	r0, r0, #29
	cmp	r0, #0
	bpl.w	.LBB1_108
	b	.LBB1_73
.LBB1_73:
	.loc	5 0 6                           @ ../Library/STM32F4xx_HAL_Driver/Src/stm32f4xx_hal_rcc.c:0:6
	movs	r0, #0
.Ltmp78:
	.loc	5 393 22 is_stmt 1              @ ../Library/STM32F4xx_HAL_Driver/Src/stm32f4xx_hal_rcc.c:393:22
	strb.w	r0, [sp, #7]
	movw	r0, #14400
	movt	r0, #16386
.Ltmp79:
	.loc	5 400 8                         @ ../Library/STM32F4xx_HAL_Driver/Src/stm32f4xx_hal_rcc.c:400:8
	ldr	r0, [r0]
.Ltmp80:
	.loc	5 400 8 is_stmt 0               @ ../Library/STM32F4xx_HAL_Driver/Src/stm32f4xx_hal_rcc.c:400:8
	lsls	r0, r0, #3
	cmp	r0, #0
	bmi	.LBB1_77
	b	.LBB1_74
.LBB1_74:
.Ltmp81:
	.loc	5 402 7 is_stmt 1               @ ../Library/STM32F4xx_HAL_Driver/Src/stm32f4xx_hal_rcc.c:402:7
	b	.LBB1_75
.LBB1_75:
	.loc	5 0 7 is_stmt 0                 @ ../Library/STM32F4xx_HAL_Driver/Src/stm32f4xx_hal_rcc.c:0:7
	movs	r0, #0
.Ltmp82:
	.loc	5 402 7                         @ ../Library/STM32F4xx_HAL_Driver/Src/stm32f4xx_hal_rcc.c:402:7
	str	r0, [sp]
	movw	r0, #14400
	movt	r0, #16386
	ldr	r1, [r0]
	orr	r1, r1, #268435456
	str	r1, [r0]
	ldr	r0, [r0]
	and	r0, r0, #268435456
	str	r0, [sp]
	ldr	r0, [sp]
	b	.LBB1_76
.Ltmp83:
.LBB1_76:
	.loc	5 0 7                           @ ../Library/STM32F4xx_HAL_Driver/Src/stm32f4xx_hal_rcc.c:0:7
	movs	r0, #1
	.loc	5 403 21 is_stmt 1              @ ../Library/STM32F4xx_HAL_Driver/Src/stm32f4xx_hal_rcc.c:403:21
	strb.w	r0, [sp, #7]
	.loc	5 404 5                         @ ../Library/STM32F4xx_HAL_Driver/Src/stm32f4xx_hal_rcc.c:404:5
	b	.LBB1_77
.Ltmp84:
.LBB1_77:
	.loc	5 0 5 is_stmt 0                 @ ../Library/STM32F4xx_HAL_Driver/Src/stm32f4xx_hal_rcc.c:0:5
	movw	r0, #28672
	movt	r0, #16384
.Ltmp85:
	.loc	5 406 8 is_stmt 1               @ ../Library/STM32F4xx_HAL_Driver/Src/stm32f4xx_hal_rcc.c:406:8
	ldr	r0, [r0]
.Ltmp86:
	.loc	5 406 8 is_stmt 0               @ ../Library/STM32F4xx_HAL_Driver/Src/stm32f4xx_hal_rcc.c:406:8
	lsls	r0, r0, #23
	cmp	r0, #0
	bmi	.LBB1_84
	b	.LBB1_78
.LBB1_78:
	.loc	5 0 8                           @ ../Library/STM32F4xx_HAL_Driver/Src/stm32f4xx_hal_rcc.c:0:8
	movw	r1, #28672
	movt	r1, #16384
.Ltmp87:
	.loc	5 409 7 is_stmt 1               @ ../Library/STM32F4xx_HAL_Driver/Src/stm32f4xx_hal_rcc.c:409:7
	ldr	r0, [r1]
	orr	r0, r0, #256
	str	r0, [r1]
	.loc	5 412 19                        @ ../Library/STM32F4xx_HAL_Driver/Src/stm32f4xx_hal_rcc.c:412:19
	bl	HAL_GetTick
	.loc	5 412 17 is_stmt 0              @ ../Library/STM32F4xx_HAL_Driver/Src/stm32f4xx_hal_rcc.c:412:17
	str	r0, [sp, #12]
	.loc	5 414 7 is_stmt 1               @ ../Library/STM32F4xx_HAL_Driver/Src/stm32f4xx_hal_rcc.c:414:7
	b	.LBB1_79
.LBB1_79:                               @ =>This Inner Loop Header: Depth=1
	.loc	5 0 7 is_stmt 0                 @ ../Library/STM32F4xx_HAL_Driver/Src/stm32f4xx_hal_rcc.c:0:7
	movw	r0, #28672
	movt	r0, #16384
	.loc	5 414 13                        @ ../Library/STM32F4xx_HAL_Driver/Src/stm32f4xx_hal_rcc.c:414:13
	ldr	r0, [r0]
	.loc	5 414 7                         @ ../Library/STM32F4xx_HAL_Driver/Src/stm32f4xx_hal_rcc.c:414:7
	lsls	r0, r0, #23
	cmp	r0, #0
	bmi	.LBB1_83
	b	.LBB1_80
.LBB1_80:                               @   in Loop: Header=BB1_79 Depth=1
.Ltmp88:
	.loc	5 416 13 is_stmt 1              @ ../Library/STM32F4xx_HAL_Driver/Src/stm32f4xx_hal_rcc.c:416:13
	bl	HAL_GetTick
	.loc	5 416 29 is_stmt 0              @ ../Library/STM32F4xx_HAL_Driver/Src/stm32f4xx_hal_rcc.c:416:29
	ldr	r1, [sp, #12]
	.loc	5 416 27                        @ ../Library/STM32F4xx_HAL_Driver/Src/stm32f4xx_hal_rcc.c:416:27
	subs	r0, r0, r1
.Ltmp89:
	.loc	5 416 12                        @ ../Library/STM32F4xx_HAL_Driver/Src/stm32f4xx_hal_rcc.c:416:12
	cmp	r0, #3
	blo	.LBB1_82
	b	.LBB1_81
.LBB1_81:
	.loc	5 0 12                          @ ../Library/STM32F4xx_HAL_Driver/Src/stm32f4xx_hal_rcc.c:0:12
	movs	r0, #3
.Ltmp90:
	.loc	5 418 11 is_stmt 1              @ ../Library/STM32F4xx_HAL_Driver/Src/stm32f4xx_hal_rcc.c:418:11
	strb.w	r0, [sp, #23]
	b	.LBB1_142
.Ltmp91:
.LBB1_82:                               @   in Loop: Header=BB1_79 Depth=1
	.loc	5 414 7                         @ ../Library/STM32F4xx_HAL_Driver/Src/stm32f4xx_hal_rcc.c:414:7
	b	.LBB1_79
.LBB1_83:
	.loc	5 421 5                         @ ../Library/STM32F4xx_HAL_Driver/Src/stm32f4xx_hal_rcc.c:421:5
	b	.LBB1_84
.Ltmp92:
.LBB1_84:
	.loc	5 424 5                         @ ../Library/STM32F4xx_HAL_Driver/Src/stm32f4xx_hal_rcc.c:424:5
	b	.LBB1_85
.LBB1_85:
.Ltmp93:
	.loc	5 424 5 is_stmt 0               @ ../Library/STM32F4xx_HAL_Driver/Src/stm32f4xx_hal_rcc.c:424:5
	ldr	r0, [sp, #16]
	ldr	r0, [r0, #8]
.Ltmp94:
	.loc	5 424 5                         @ ../Library/STM32F4xx_HAL_Driver/Src/stm32f4xx_hal_rcc.c:424:5
	cmp	r0, #1
	bne	.LBB1_87
	b	.LBB1_86
.LBB1_86:
	.loc	5 0 5                           @ ../Library/STM32F4xx_HAL_Driver/Src/stm32f4xx_hal_rcc.c:0:5
	movw	r1, #14448
	movt	r1, #16386
.Ltmp95:
	.loc	5 424 5                         @ ../Library/STM32F4xx_HAL_Driver/Src/stm32f4xx_hal_rcc.c:424:5
	ldr	r0, [r1]
	orr	r0, r0, #1
	str	r0, [r1]
	b	.LBB1_91
.Ltmp96:
.LBB1_87:
	.loc	5 424 5                         @ ../Library/STM32F4xx_HAL_Driver/Src/stm32f4xx_hal_rcc.c:424:5
	ldr	r0, [sp, #16]
	ldr	r0, [r0, #8]
.Ltmp97:
	.loc	5 424 5                         @ ../Library/STM32F4xx_HAL_Driver/Src/stm32f4xx_hal_rcc.c:424:5
	cmp	r0, #5
	bne	.LBB1_89
	b	.LBB1_88
.LBB1_88:
	.loc	5 0 5                           @ ../Library/STM32F4xx_HAL_Driver/Src/stm32f4xx_hal_rcc.c:0:5
	movw	r1, #14448
	movt	r1, #16386
.Ltmp98:
	.loc	5 424 5                         @ ../Library/STM32F4xx_HAL_Driver/Src/stm32f4xx_hal_rcc.c:424:5
	ldr	r0, [r1]
	orr	r0, r0, #4
	str	r0, [r1]
	ldr	r0, [r1]
	orr	r0, r0, #1
	str	r0, [r1]
	b	.LBB1_90
.Ltmp99:
.LBB1_89:
	.loc	5 0 5                           @ ../Library/STM32F4xx_HAL_Driver/Src/stm32f4xx_hal_rcc.c:0:5
	movw	r1, #14448
	movt	r1, #16386
.Ltmp100:
	.loc	5 424 5                         @ ../Library/STM32F4xx_HAL_Driver/Src/stm32f4xx_hal_rcc.c:424:5
	ldr	r0, [r1]
	bic	r0, r0, #1
	str	r0, [r1]
	ldr	r0, [r1]
	bic	r0, r0, #4
	str	r0, [r1]
	b	.LBB1_90
.Ltmp101:
.LBB1_90:
	.loc	5 0 5                           @ ../Library/STM32F4xx_HAL_Driver/Src/stm32f4xx_hal_rcc.c:0:5
	b	.LBB1_91
.LBB1_91:
	.loc	5 424 5                         @ ../Library/STM32F4xx_HAL_Driver/Src/stm32f4xx_hal_rcc.c:424:5
	b	.LBB1_92
.Ltmp102:
.LBB1_92:
	.loc	5 426 9 is_stmt 1               @ ../Library/STM32F4xx_HAL_Driver/Src/stm32f4xx_hal_rcc.c:426:9
	ldr	r0, [sp, #16]
	.loc	5 426 28 is_stmt 0              @ ../Library/STM32F4xx_HAL_Driver/Src/stm32f4xx_hal_rcc.c:426:28
	ldr	r0, [r0, #8]
.Ltmp103:
	.loc	5 426 8                         @ ../Library/STM32F4xx_HAL_Driver/Src/stm32f4xx_hal_rcc.c:426:8
	cbz	r0, .LBB1_99
	b	.LBB1_93
.LBB1_93:
.Ltmp104:
	.loc	5 429 19 is_stmt 1              @ ../Library/STM32F4xx_HAL_Driver/Src/stm32f4xx_hal_rcc.c:429:19
	bl	HAL_GetTick
	.loc	5 429 17 is_stmt 0              @ ../Library/STM32F4xx_HAL_Driver/Src/stm32f4xx_hal_rcc.c:429:17
	str	r0, [sp, #12]
	.loc	5 432 7 is_stmt 1               @ ../Library/STM32F4xx_HAL_Driver/Src/stm32f4xx_hal_rcc.c:432:7
	b	.LBB1_94
.LBB1_94:                               @ =>This Inner Loop Header: Depth=1
	.loc	5 0 7 is_stmt 0                 @ ../Library/STM32F4xx_HAL_Driver/Src/stm32f4xx_hal_rcc.c:0:7
	movw	r0, #14448
	movt	r0, #16386
	.loc	5 432 13                        @ ../Library/STM32F4xx_HAL_Driver/Src/stm32f4xx_hal_rcc.c:432:13
	ldr	r0, [r0]
	and	r1, r0, #2
	movs	r0, #0
	.loc	5 432 7                         @ ../Library/STM32F4xx_HAL_Driver/Src/stm32f4xx_hal_rcc.c:432:7
	cmp.w	r0, r1, lsr #1
	bne	.LBB1_98
	b	.LBB1_95
.LBB1_95:                               @   in Loop: Header=BB1_94 Depth=1
.Ltmp105:
	.loc	5 434 13 is_stmt 1              @ ../Library/STM32F4xx_HAL_Driver/Src/stm32f4xx_hal_rcc.c:434:13
	bl	HAL_GetTick
	.loc	5 434 29 is_stmt 0              @ ../Library/STM32F4xx_HAL_Driver/Src/stm32f4xx_hal_rcc.c:434:29
	ldr	r1, [sp, #12]
	.loc	5 434 27                        @ ../Library/STM32F4xx_HAL_Driver/Src/stm32f4xx_hal_rcc.c:434:27
	subs	r0, r0, r1
	movw	r1, #5001
.Ltmp106:
	.loc	5 434 12                        @ ../Library/STM32F4xx_HAL_Driver/Src/stm32f4xx_hal_rcc.c:434:12
	cmp	r0, r1
	blo	.LBB1_97
	b	.LBB1_96
.LBB1_96:
	.loc	5 0 12                          @ ../Library/STM32F4xx_HAL_Driver/Src/stm32f4xx_hal_rcc.c:0:12
	movs	r0, #3
.Ltmp107:
	.loc	5 436 11 is_stmt 1              @ ../Library/STM32F4xx_HAL_Driver/Src/stm32f4xx_hal_rcc.c:436:11
	strb.w	r0, [sp, #23]
	b	.LBB1_142
.Ltmp108:
.LBB1_97:                               @   in Loop: Header=BB1_94 Depth=1
	.loc	5 432 7                         @ ../Library/STM32F4xx_HAL_Driver/Src/stm32f4xx_hal_rcc.c:432:7
	b	.LBB1_94
.LBB1_98:
	.loc	5 439 5                         @ ../Library/STM32F4xx_HAL_Driver/Src/stm32f4xx_hal_rcc.c:439:5
	b	.LBB1_105
.Ltmp109:
.LBB1_99:
	.loc	5 443 19                        @ ../Library/STM32F4xx_HAL_Driver/Src/stm32f4xx_hal_rcc.c:443:19
	bl	HAL_GetTick
	.loc	5 443 17 is_stmt 0              @ ../Library/STM32F4xx_HAL_Driver/Src/stm32f4xx_hal_rcc.c:443:17
	str	r0, [sp, #12]
	.loc	5 446 7 is_stmt 1               @ ../Library/STM32F4xx_HAL_Driver/Src/stm32f4xx_hal_rcc.c:446:7
	b	.LBB1_100
.LBB1_100:                              @ =>This Inner Loop Header: Depth=1
	.loc	5 0 7 is_stmt 0                 @ ../Library/STM32F4xx_HAL_Driver/Src/stm32f4xx_hal_rcc.c:0:7
	movw	r0, #14448
	movt	r0, #16386
	.loc	5 446 13                        @ ../Library/STM32F4xx_HAL_Driver/Src/stm32f4xx_hal_rcc.c:446:13
	ldr	r0, [r0]
	and	r1, r0, #2
	movs	r0, #0
	.loc	5 446 7                         @ ../Library/STM32F4xx_HAL_Driver/Src/stm32f4xx_hal_rcc.c:446:7
	cmp.w	r0, r1, lsr #1
	beq	.LBB1_104
	b	.LBB1_101
.LBB1_101:                              @   in Loop: Header=BB1_100 Depth=1
.Ltmp110:
	.loc	5 448 13 is_stmt 1              @ ../Library/STM32F4xx_HAL_Driver/Src/stm32f4xx_hal_rcc.c:448:13
	bl	HAL_GetTick
	.loc	5 448 29 is_stmt 0              @ ../Library/STM32F4xx_HAL_Driver/Src/stm32f4xx_hal_rcc.c:448:29
	ldr	r1, [sp, #12]
	.loc	5 448 27                        @ ../Library/STM32F4xx_HAL_Driver/Src/stm32f4xx_hal_rcc.c:448:27
	subs	r0, r0, r1
	movw	r1, #5001
.Ltmp111:
	.loc	5 448 12                        @ ../Library/STM32F4xx_HAL_Driver/Src/stm32f4xx_hal_rcc.c:448:12
	cmp	r0, r1
	blo	.LBB1_103
	b	.LBB1_102
.LBB1_102:
	.loc	5 0 12                          @ ../Library/STM32F4xx_HAL_Driver/Src/stm32f4xx_hal_rcc.c:0:12
	movs	r0, #3
.Ltmp112:
	.loc	5 450 11 is_stmt 1              @ ../Library/STM32F4xx_HAL_Driver/Src/stm32f4xx_hal_rcc.c:450:11
	strb.w	r0, [sp, #23]
	b	.LBB1_142
.Ltmp113:
.LBB1_103:                              @   in Loop: Header=BB1_100 Depth=1
	.loc	5 446 7                         @ ../Library/STM32F4xx_HAL_Driver/Src/stm32f4xx_hal_rcc.c:446:7
	b	.LBB1_100
.Ltmp114:
.LBB1_104:
	.loc	5 0 7 is_stmt 0                 @ ../Library/STM32F4xx_HAL_Driver/Src/stm32f4xx_hal_rcc.c:0:7
	b	.LBB1_105
.LBB1_105:
.Ltmp115:
	.loc	5 456 8 is_stmt 1               @ ../Library/STM32F4xx_HAL_Driver/Src/stm32f4xx_hal_rcc.c:456:8
	ldrb.w	r0, [sp, #7]
.Ltmp116:
	.loc	5 456 8 is_stmt 0               @ ../Library/STM32F4xx_HAL_Driver/Src/stm32f4xx_hal_rcc.c:456:8
	cmp	r0, #1
	bne	.LBB1_107
	b	.LBB1_106
.LBB1_106:
	.loc	5 0 8                           @ ../Library/STM32F4xx_HAL_Driver/Src/stm32f4xx_hal_rcc.c:0:8
	movw	r1, #14400
	movt	r1, #16386
.Ltmp117:
	.loc	5 458 7 is_stmt 1               @ ../Library/STM32F4xx_HAL_Driver/Src/stm32f4xx_hal_rcc.c:458:7
	ldr	r0, [r1]
	bic	r0, r0, #268435456
	str	r0, [r1]
	.loc	5 459 5                         @ ../Library/STM32F4xx_HAL_Driver/Src/stm32f4xx_hal_rcc.c:459:5
	b	.LBB1_107
.Ltmp118:
.LBB1_107:
	.loc	5 460 3                         @ ../Library/STM32F4xx_HAL_Driver/Src/stm32f4xx_hal_rcc.c:460:3
	b	.LBB1_108
.Ltmp119:
.LBB1_108:
	.loc	5 464 8                         @ ../Library/STM32F4xx_HAL_Driver/Src/stm32f4xx_hal_rcc.c:464:8
	ldr	r0, [sp, #16]
	.loc	5 464 31 is_stmt 0              @ ../Library/STM32F4xx_HAL_Driver/Src/stm32f4xx_hal_rcc.c:464:31
	ldr	r0, [r0, #24]
.Ltmp120:
	.loc	5 464 7                         @ ../Library/STM32F4xx_HAL_Driver/Src/stm32f4xx_hal_rcc.c:464:7
	cmp	r0, #0
	beq.w	.LBB1_141
	b	.LBB1_109
.LBB1_109:
	.loc	5 0 7                           @ ../Library/STM32F4xx_HAL_Driver/Src/stm32f4xx_hal_rcc.c:0:7
	movw	r0, #14344
	movt	r0, #16386
.Ltmp121:
	.loc	5 467 8 is_stmt 1               @ ../Library/STM32F4xx_HAL_Driver/Src/stm32f4xx_hal_rcc.c:467:8
	ldr	r0, [r0]
	and	r0, r0, #12
.Ltmp122:
	.loc	5 467 8 is_stmt 0               @ ../Library/STM32F4xx_HAL_Driver/Src/stm32f4xx_hal_rcc.c:467:8
	cmp	r0, #8
	beq.w	.LBB1_129
	b	.LBB1_110
.LBB1_110:
.Ltmp123:
	.loc	5 469 11 is_stmt 1              @ ../Library/STM32F4xx_HAL_Driver/Src/stm32f4xx_hal_rcc.c:469:11
	ldr	r0, [sp, #16]
	.loc	5 469 34 is_stmt 0              @ ../Library/STM32F4xx_HAL_Driver/Src/stm32f4xx_hal_rcc.c:469:34
	ldr	r0, [r0, #24]
.Ltmp124:
	.loc	5 469 10                        @ ../Library/STM32F4xx_HAL_Driver/Src/stm32f4xx_hal_rcc.c:469:10
	cmp	r0, #2
	bne	.LBB1_122
	b	.LBB1_111
.LBB1_111:
	.loc	5 0 10                          @ ../Library/STM32F4xx_HAL_Driver/Src/stm32f4xx_hal_rcc.c:0:10
	movs	r1, #96
	movt	r1, #16967
	movs	r0, #0
.Ltmp125:
	.loc	5 479 9 is_stmt 1               @ ../Library/STM32F4xx_HAL_Driver/Src/stm32f4xx_hal_rcc.c:479:9
	str	r0, [r1]
	.loc	5 482 21                        @ ../Library/STM32F4xx_HAL_Driver/Src/stm32f4xx_hal_rcc.c:482:21
	bl	HAL_GetTick
	.loc	5 482 19 is_stmt 0              @ ../Library/STM32F4xx_HAL_Driver/Src/stm32f4xx_hal_rcc.c:482:19
	str	r0, [sp, #12]
	.loc	5 485 9 is_stmt 1               @ ../Library/STM32F4xx_HAL_Driver/Src/stm32f4xx_hal_rcc.c:485:9
	b	.LBB1_112
.LBB1_112:                              @ =>This Inner Loop Header: Depth=1
	.loc	5 0 9 is_stmt 0                 @ ../Library/STM32F4xx_HAL_Driver/Src/stm32f4xx_hal_rcc.c:0:9
	movw	r0, #14336
	movt	r0, #16386
	.loc	5 485 15                        @ ../Library/STM32F4xx_HAL_Driver/Src/stm32f4xx_hal_rcc.c:485:15
	ldr	r0, [r0]
	and	r1, r0, #33554432
	movs	r0, #0
	.loc	5 485 9                         @ ../Library/STM32F4xx_HAL_Driver/Src/stm32f4xx_hal_rcc.c:485:9
	cmp.w	r0, r1, lsr #25
	beq	.LBB1_116
	b	.LBB1_113
.LBB1_113:                              @   in Loop: Header=BB1_112 Depth=1
.Ltmp126:
	.loc	5 487 15 is_stmt 1              @ ../Library/STM32F4xx_HAL_Driver/Src/stm32f4xx_hal_rcc.c:487:15
	bl	HAL_GetTick
	.loc	5 487 31 is_stmt 0              @ ../Library/STM32F4xx_HAL_Driver/Src/stm32f4xx_hal_rcc.c:487:31
	ldr	r1, [sp, #12]
	.loc	5 487 29                        @ ../Library/STM32F4xx_HAL_Driver/Src/stm32f4xx_hal_rcc.c:487:29
	subs	r0, r0, r1
.Ltmp127:
	.loc	5 487 14                        @ ../Library/STM32F4xx_HAL_Driver/Src/stm32f4xx_hal_rcc.c:487:14
	cmp	r0, #3
	blo	.LBB1_115
	b	.LBB1_114
.LBB1_114:
	.loc	5 0 14                          @ ../Library/STM32F4xx_HAL_Driver/Src/stm32f4xx_hal_rcc.c:0:14
	movs	r0, #3
.Ltmp128:
	.loc	5 489 13 is_stmt 1              @ ../Library/STM32F4xx_HAL_Driver/Src/stm32f4xx_hal_rcc.c:489:13
	strb.w	r0, [sp, #23]
	b	.LBB1_142
.Ltmp129:
.LBB1_115:                              @   in Loop: Header=BB1_112 Depth=1
	.loc	5 485 9                         @ ../Library/STM32F4xx_HAL_Driver/Src/stm32f4xx_hal_rcc.c:485:9
	b	.LBB1_112
.LBB1_116:
	.loc	5 494 9                         @ ../Library/STM32F4xx_HAL_Driver/Src/stm32f4xx_hal_rcc.c:494:9
	ldr	r1, [sp, #16]
	ldr	r0, [r1, #28]
	ldr.w	r12, [r1, #32]
	ldr	r3, [r1, #36]
	ldr	r2, [r1, #40]
	orr.w	r0, r0, r12
	orr.w	r0, r0, r3, lsl #6
	lsls	r2, r2, #15
	movw	r3, #65535
	bics	r2, r3
	sub.w	r2, r2, #65536
	orrs	r0, r2
	ldr	r1, [r1, #44]
	orr.w	r0, r0, r1, lsl #24
	movw	r1, #14340
	movt	r1, #16386
	str	r0, [r1]
	movs	r1, #96
	movt	r1, #16967
	movs	r0, #1
	.loc	5 500 9                         @ ../Library/STM32F4xx_HAL_Driver/Src/stm32f4xx_hal_rcc.c:500:9
	str	r0, [r1]
	.loc	5 503 21                        @ ../Library/STM32F4xx_HAL_Driver/Src/stm32f4xx_hal_rcc.c:503:21
	bl	HAL_GetTick
	.loc	5 503 19 is_stmt 0              @ ../Library/STM32F4xx_HAL_Driver/Src/stm32f4xx_hal_rcc.c:503:19
	str	r0, [sp, #12]
	.loc	5 506 9 is_stmt 1               @ ../Library/STM32F4xx_HAL_Driver/Src/stm32f4xx_hal_rcc.c:506:9
	b	.LBB1_117
.LBB1_117:                              @ =>This Inner Loop Header: Depth=1
	.loc	5 0 9 is_stmt 0                 @ ../Library/STM32F4xx_HAL_Driver/Src/stm32f4xx_hal_rcc.c:0:9
	movw	r0, #14336
	movt	r0, #16386
	.loc	5 506 15                        @ ../Library/STM32F4xx_HAL_Driver/Src/stm32f4xx_hal_rcc.c:506:15
	ldr	r0, [r0]
	and	r1, r0, #33554432
	movs	r0, #0
	.loc	5 506 9                         @ ../Library/STM32F4xx_HAL_Driver/Src/stm32f4xx_hal_rcc.c:506:9
	cmp.w	r0, r1, lsr #25
	bne	.LBB1_121
	b	.LBB1_118
.LBB1_118:                              @   in Loop: Header=BB1_117 Depth=1
.Ltmp130:
	.loc	5 508 15 is_stmt 1              @ ../Library/STM32F4xx_HAL_Driver/Src/stm32f4xx_hal_rcc.c:508:15
	bl	HAL_GetTick
	.loc	5 508 31 is_stmt 0              @ ../Library/STM32F4xx_HAL_Driver/Src/stm32f4xx_hal_rcc.c:508:31
	ldr	r1, [sp, #12]
	.loc	5 508 29                        @ ../Library/STM32F4xx_HAL_Driver/Src/stm32f4xx_hal_rcc.c:508:29
	subs	r0, r0, r1
.Ltmp131:
	.loc	5 508 14                        @ ../Library/STM32F4xx_HAL_Driver/Src/stm32f4xx_hal_rcc.c:508:14
	cmp	r0, #3
	blo	.LBB1_120
	b	.LBB1_119
.LBB1_119:
	.loc	5 0 14                          @ ../Library/STM32F4xx_HAL_Driver/Src/stm32f4xx_hal_rcc.c:0:14
	movs	r0, #3
.Ltmp132:
	.loc	5 510 13 is_stmt 1              @ ../Library/STM32F4xx_HAL_Driver/Src/stm32f4xx_hal_rcc.c:510:13
	strb.w	r0, [sp, #23]
	b	.LBB1_142
.Ltmp133:
.LBB1_120:                              @   in Loop: Header=BB1_117 Depth=1
	.loc	5 506 9                         @ ../Library/STM32F4xx_HAL_Driver/Src/stm32f4xx_hal_rcc.c:506:9
	b	.LBB1_117
.LBB1_121:
	.loc	5 513 7                         @ ../Library/STM32F4xx_HAL_Driver/Src/stm32f4xx_hal_rcc.c:513:7
	b	.LBB1_128
.Ltmp134:
.LBB1_122:
	.loc	5 0 7 is_stmt 0                 @ ../Library/STM32F4xx_HAL_Driver/Src/stm32f4xx_hal_rcc.c:0:7
	movs	r1, #96
	movt	r1, #16967
	movs	r0, #0
.Ltmp135:
	.loc	5 517 9 is_stmt 1               @ ../Library/STM32F4xx_HAL_Driver/Src/stm32f4xx_hal_rcc.c:517:9
	str	r0, [r1]
	.loc	5 520 21                        @ ../Library/STM32F4xx_HAL_Driver/Src/stm32f4xx_hal_rcc.c:520:21
	bl	HAL_GetTick
	.loc	5 520 19 is_stmt 0              @ ../Library/STM32F4xx_HAL_Driver/Src/stm32f4xx_hal_rcc.c:520:19
	str	r0, [sp, #12]
	.loc	5 523 9 is_stmt 1               @ ../Library/STM32F4xx_HAL_Driver/Src/stm32f4xx_hal_rcc.c:523:9
	b	.LBB1_123
.LBB1_123:                              @ =>This Inner Loop Header: Depth=1
	.loc	5 0 9 is_stmt 0                 @ ../Library/STM32F4xx_HAL_Driver/Src/stm32f4xx_hal_rcc.c:0:9
	movw	r0, #14336
	movt	r0, #16386
	.loc	5 523 15                        @ ../Library/STM32F4xx_HAL_Driver/Src/stm32f4xx_hal_rcc.c:523:15
	ldr	r0, [r0]
	and	r1, r0, #33554432
	movs	r0, #0
	.loc	5 523 9                         @ ../Library/STM32F4xx_HAL_Driver/Src/stm32f4xx_hal_rcc.c:523:9
	cmp.w	r0, r1, lsr #25
	beq	.LBB1_127
	b	.LBB1_124
.LBB1_124:                              @   in Loop: Header=BB1_123 Depth=1
.Ltmp136:
	.loc	5 525 15 is_stmt 1              @ ../Library/STM32F4xx_HAL_Driver/Src/stm32f4xx_hal_rcc.c:525:15
	bl	HAL_GetTick
	.loc	5 525 31 is_stmt 0              @ ../Library/STM32F4xx_HAL_Driver/Src/stm32f4xx_hal_rcc.c:525:31
	ldr	r1, [sp, #12]
	.loc	5 525 29                        @ ../Library/STM32F4xx_HAL_Driver/Src/stm32f4xx_hal_rcc.c:525:29
	subs	r0, r0, r1
.Ltmp137:
	.loc	5 525 14                        @ ../Library/STM32F4xx_HAL_Driver/Src/stm32f4xx_hal_rcc.c:525:14
	cmp	r0, #3
	blo	.LBB1_126
	b	.LBB1_125
.LBB1_125:
	.loc	5 0 14                          @ ../Library/STM32F4xx_HAL_Driver/Src/stm32f4xx_hal_rcc.c:0:14
	movs	r0, #3
.Ltmp138:
	.loc	5 527 13 is_stmt 1              @ ../Library/STM32F4xx_HAL_Driver/Src/stm32f4xx_hal_rcc.c:527:13
	strb.w	r0, [sp, #23]
	b	.LBB1_142
.Ltmp139:
.LBB1_126:                              @   in Loop: Header=BB1_123 Depth=1
	.loc	5 523 9                         @ ../Library/STM32F4xx_HAL_Driver/Src/stm32f4xx_hal_rcc.c:523:9
	b	.LBB1_123
.Ltmp140:
.LBB1_127:
	.loc	5 0 9 is_stmt 0                 @ ../Library/STM32F4xx_HAL_Driver/Src/stm32f4xx_hal_rcc.c:0:9
	b	.LBB1_128
.LBB1_128:
	.loc	5 531 5 is_stmt 1               @ ../Library/STM32F4xx_HAL_Driver/Src/stm32f4xx_hal_rcc.c:531:5
	b	.LBB1_140
.Ltmp141:
.LBB1_129:
	.loc	5 535 11                        @ ../Library/STM32F4xx_HAL_Driver/Src/stm32f4xx_hal_rcc.c:535:11
	ldr	r0, [sp, #16]
	.loc	5 535 34 is_stmt 0              @ ../Library/STM32F4xx_HAL_Driver/Src/stm32f4xx_hal_rcc.c:535:34
	ldr	r0, [r0, #24]
.Ltmp142:
	.loc	5 535 10                        @ ../Library/STM32F4xx_HAL_Driver/Src/stm32f4xx_hal_rcc.c:535:10
	cmp	r0, #1
	bne	.LBB1_131
	b	.LBB1_130
.LBB1_130:
	.loc	5 0 10                          @ ../Library/STM32F4xx_HAL_Driver/Src/stm32f4xx_hal_rcc.c:0:10
	movs	r0, #1
.Ltmp143:
	.loc	5 537 9 is_stmt 1               @ ../Library/STM32F4xx_HAL_Driver/Src/stm32f4xx_hal_rcc.c:537:9
	strb.w	r0, [sp, #23]
	b	.LBB1_142
.Ltmp144:
.LBB1_131:
	.loc	5 0 9 is_stmt 0                 @ ../Library/STM32F4xx_HAL_Driver/Src/stm32f4xx_hal_rcc.c:0:9
	movw	r0, #14340
	movt	r0, #16386
.Ltmp145:
	.loc	5 542 27 is_stmt 1              @ ../Library/STM32F4xx_HAL_Driver/Src/stm32f4xx_hal_rcc.c:542:27
	ldr	r0, [r0]
	.loc	5 542 20 is_stmt 0              @ ../Library/STM32F4xx_HAL_Driver/Src/stm32f4xx_hal_rcc.c:542:20
	str	r0, [sp, #8]
.Ltmp146:
	.loc	5 552 15 is_stmt 1              @ ../Library/STM32F4xx_HAL_Driver/Src/stm32f4xx_hal_rcc.c:552:15
	ldr	r0, [sp, #16]
	.loc	5 552 38 is_stmt 0              @ ../Library/STM32F4xx_HAL_Driver/Src/stm32f4xx_hal_rcc.c:552:38
	ldr	r0, [r0, #24]
	.loc	5 552 64                        @ ../Library/STM32F4xx_HAL_Driver/Src/stm32f4xx_hal_rcc.c:552:64
	cmp	r0, #1
	beq	.LBB1_137
	b	.LBB1_132
.LBB1_132:
	.loc	5 553 14 is_stmt 1              @ ../Library/STM32F4xx_HAL_Driver/Src/stm32f4xx_hal_rcc.c:553:14
	ldr	r0, [sp, #8]
	and	r0, r0, #4194304
	.loc	5 553 58 is_stmt 0              @ ../Library/STM32F4xx_HAL_Driver/Src/stm32f4xx_hal_rcc.c:553:58
	ldr	r1, [sp, #16]
	.loc	5 553 81                        @ ../Library/STM32F4xx_HAL_Driver/Src/stm32f4xx_hal_rcc.c:553:81
	ldr	r1, [r1, #28]
	.loc	5 553 92                        @ ../Library/STM32F4xx_HAL_Driver/Src/stm32f4xx_hal_rcc.c:553:92
	cmp	r0, r1
	bne	.LBB1_137
	b	.LBB1_133
.LBB1_133:
	.loc	5 554 14 is_stmt 1              @ ../Library/STM32F4xx_HAL_Driver/Src/stm32f4xx_hal_rcc.c:554:14
	ldr	r0, [sp, #8]
	and	r0, r0, #63
	.loc	5 554 57 is_stmt 0              @ ../Library/STM32F4xx_HAL_Driver/Src/stm32f4xx_hal_rcc.c:554:57
	ldr	r1, [sp, #16]
	.loc	5 554 80                        @ ../Library/STM32F4xx_HAL_Driver/Src/stm32f4xx_hal_rcc.c:554:80
	ldr	r1, [r1, #32]
	.loc	5 554 111                       @ ../Library/STM32F4xx_HAL_Driver/Src/stm32f4xx_hal_rcc.c:554:111
	cmp	r0, r1
	bne	.LBB1_137
	b	.LBB1_134
.LBB1_134:
	.loc	5 555 14 is_stmt 1              @ ../Library/STM32F4xx_HAL_Driver/Src/stm32f4xx_hal_rcc.c:555:14
	ldr	r0, [sp, #8]
	movw	r1, #32704
	ands	r0, r1
	.loc	5 555 57 is_stmt 0              @ ../Library/STM32F4xx_HAL_Driver/Src/stm32f4xx_hal_rcc.c:555:57
	ldr	r1, [sp, #16]
	.loc	5 555 80                        @ ../Library/STM32F4xx_HAL_Driver/Src/stm32f4xx_hal_rcc.c:555:80
	ldr	r1, [r1, #36]
	.loc	5 555 111                       @ ../Library/STM32F4xx_HAL_Driver/Src/stm32f4xx_hal_rcc.c:555:111
	cmp.w	r0, r1, lsl #6
	bne	.LBB1_137
	b	.LBB1_135
.LBB1_135:
	.loc	5 556 14 is_stmt 1              @ ../Library/STM32F4xx_HAL_Driver/Src/stm32f4xx_hal_rcc.c:556:14
	ldr	r0, [sp, #8]
	and	r0, r0, #196608
	.loc	5 556 59 is_stmt 0              @ ../Library/STM32F4xx_HAL_Driver/Src/stm32f4xx_hal_rcc.c:556:59
	ldr	r1, [sp, #16]
	.loc	5 556 82                        @ ../Library/STM32F4xx_HAL_Driver/Src/stm32f4xx_hal_rcc.c:556:82
	ldr	r1, [r1, #40]
	.loc	5 556 94                        @ ../Library/STM32F4xx_HAL_Driver/Src/stm32f4xx_hal_rcc.c:556:94
	lsls	r1, r1, #15
	movw	r2, #65535
	.loc	5 556 87                        @ ../Library/STM32F4xx_HAL_Driver/Src/stm32f4xx_hal_rcc.c:556:87
	bics	r1, r2
	.loc	5 556 101                       @ ../Library/STM32F4xx_HAL_Driver/Src/stm32f4xx_hal_rcc.c:556:101
	sub.w	r1, r1, #65536
	.loc	5 556 126                       @ ../Library/STM32F4xx_HAL_Driver/Src/stm32f4xx_hal_rcc.c:556:126
	cmp	r0, r1
	bne	.LBB1_137
	b	.LBB1_136
.LBB1_136:
	.loc	5 557 14 is_stmt 1              @ ../Library/STM32F4xx_HAL_Driver/Src/stm32f4xx_hal_rcc.c:557:14
	ldr	r0, [sp, #8]
	and	r0, r0, #251658240
	.loc	5 557 57 is_stmt 0              @ ../Library/STM32F4xx_HAL_Driver/Src/stm32f4xx_hal_rcc.c:557:57
	ldr	r1, [sp, #16]
	.loc	5 557 80                        @ ../Library/STM32F4xx_HAL_Driver/Src/stm32f4xx_hal_rcc.c:557:80
	ldr	r1, [r1, #44]
.Ltmp147:
	.loc	5 552 13 is_stmt 1              @ ../Library/STM32F4xx_HAL_Driver/Src/stm32f4xx_hal_rcc.c:552:13
	cmp.w	r0, r1, lsl #24
	beq	.LBB1_138
	b	.LBB1_137
.LBB1_137:
	.loc	5 0 13 is_stmt 0                @ ../Library/STM32F4xx_HAL_Driver/Src/stm32f4xx_hal_rcc.c:0:13
	movs	r0, #1
.Ltmp148:
	.loc	5 560 11 is_stmt 1              @ ../Library/STM32F4xx_HAL_Driver/Src/stm32f4xx_hal_rcc.c:560:11
	strb.w	r0, [sp, #23]
	b	.LBB1_142
.Ltmp149:
.LBB1_138:
	.loc	5 0 11 is_stmt 0                @ ../Library/STM32F4xx_HAL_Driver/Src/stm32f4xx_hal_rcc.c:0:11
	b	.LBB1_139
.LBB1_139:
	b	.LBB1_140
.LBB1_140:
	.loc	5 564 3 is_stmt 1               @ ../Library/STM32F4xx_HAL_Driver/Src/stm32f4xx_hal_rcc.c:564:3
	b	.LBB1_141
.Ltmp150:
.LBB1_141:
	.loc	5 0 3 is_stmt 0                 @ ../Library/STM32F4xx_HAL_Driver/Src/stm32f4xx_hal_rcc.c:0:3
	movs	r0, #0
	.loc	5 565 3 is_stmt 1               @ ../Library/STM32F4xx_HAL_Driver/Src/stm32f4xx_hal_rcc.c:565:3
	strb.w	r0, [sp, #23]
	b	.LBB1_142
.LBB1_142:
	.loc	5 566 1                         @ ../Library/STM32F4xx_HAL_Driver/Src/stm32f4xx_hal_rcc.c:566:1
	ldrb.w	r0, [sp, #23]
	add	sp, #24
	pop	{r7, pc}
.Ltmp151:
.Lfunc_end1:
	.size	HAL_RCC_OscConfig, .Lfunc_end1-HAL_RCC_OscConfig
	.cfi_endproc
	.cantunwind
	.fnend
                                        @ -- End function
	.section	.text.HAL_RCC_ClockConfig,"ax",%progbits
	.hidden	HAL_RCC_ClockConfig             @ -- Begin function HAL_RCC_ClockConfig
	.globl	HAL_RCC_ClockConfig
	.p2align	2
	.type	HAL_RCC_ClockConfig,%function
	.code	16                              @ @HAL_RCC_ClockConfig
	.thumb_func
HAL_RCC_ClockConfig:
.Lfunc_begin2:
	.loc	5 594 0                         @ ../Library/STM32F4xx_HAL_Driver/Src/stm32f4xx_hal_rcc.c:594:0
	.fnstart
	.cfi_startproc
@ %bb.0:
	.save	{r7, lr}
	push	{r7, lr}
	.cfi_def_cfa_offset 8
	.cfi_offset lr, -4
	.cfi_offset r7, -8
	.pad	#16
	sub	sp, #16
	.cfi_def_cfa_offset 24
	str	r0, [sp, #8]
	str	r1, [sp, #4]
.Ltmp152:
	.loc	5 598 6 prologue_end            @ ../Library/STM32F4xx_HAL_Driver/Src/stm32f4xx_hal_rcc.c:598:6
	ldr	r0, [sp, #8]
.Ltmp153:
	.loc	5 598 6 is_stmt 0               @ ../Library/STM32F4xx_HAL_Driver/Src/stm32f4xx_hal_rcc.c:598:6
	cbnz	r0, .LBB2_2
	b	.LBB2_1
.LBB2_1:
	.loc	5 0 6                           @ ../Library/STM32F4xx_HAL_Driver/Src/stm32f4xx_hal_rcc.c:0:6
	movs	r0, #1
.Ltmp154:
	.loc	5 600 5 is_stmt 1               @ ../Library/STM32F4xx_HAL_Driver/Src/stm32f4xx_hal_rcc.c:600:5
	strb.w	r0, [sp, #15]
	b	.LBB2_41
.Ltmp155:
.LBB2_2:
	.loc	5 612 6                         @ ../Library/STM32F4xx_HAL_Driver/Src/stm32f4xx_hal_rcc.c:612:6
	ldr	r0, [sp, #4]
	movw	r1, #15360
	movt	r1, #16386
	.loc	5 612 17 is_stmt 0              @ ../Library/STM32F4xx_HAL_Driver/Src/stm32f4xx_hal_rcc.c:612:17
	ldr	r1, [r1]
	and	r1, r1, #15
.Ltmp156:
	.loc	5 612 6                         @ ../Library/STM32F4xx_HAL_Driver/Src/stm32f4xx_hal_rcc.c:612:6
	cmp	r0, r1
	bls	.LBB2_6
	b	.LBB2_3
.LBB2_3:
.Ltmp157:
	.loc	5 615 5 is_stmt 1               @ ../Library/STM32F4xx_HAL_Driver/Src/stm32f4xx_hal_rcc.c:615:5
	ldr	r1, [sp, #4]
	movw	r0, #15360
	movt	r0, #16386
	strb	r1, [r0]
.Ltmp158:
	.loc	5 619 8                         @ ../Library/STM32F4xx_HAL_Driver/Src/stm32f4xx_hal_rcc.c:619:8
	ldr	r0, [r0]
	and	r0, r0, #15
	.loc	5 619 37 is_stmt 0              @ ../Library/STM32F4xx_HAL_Driver/Src/stm32f4xx_hal_rcc.c:619:37
	ldr	r1, [sp, #4]
.Ltmp159:
	.loc	5 619 8                         @ ../Library/STM32F4xx_HAL_Driver/Src/stm32f4xx_hal_rcc.c:619:8
	cmp	r0, r1
	beq	.LBB2_5
	b	.LBB2_4
.LBB2_4:
	.loc	5 0 8                           @ ../Library/STM32F4xx_HAL_Driver/Src/stm32f4xx_hal_rcc.c:0:8
	movs	r0, #1
.Ltmp160:
	.loc	5 621 7 is_stmt 1               @ ../Library/STM32F4xx_HAL_Driver/Src/stm32f4xx_hal_rcc.c:621:7
	strb.w	r0, [sp, #15]
	b	.LBB2_41
.Ltmp161:
.LBB2_5:
	.loc	5 623 3                         @ ../Library/STM32F4xx_HAL_Driver/Src/stm32f4xx_hal_rcc.c:623:3
	b	.LBB2_6
.Ltmp162:
.LBB2_6:
	.loc	5 626 8                         @ ../Library/STM32F4xx_HAL_Driver/Src/stm32f4xx_hal_rcc.c:626:8
	ldr	r0, [sp, #8]
.Ltmp163:
	.loc	5 626 6 is_stmt 0               @ ../Library/STM32F4xx_HAL_Driver/Src/stm32f4xx_hal_rcc.c:626:6
	ldrb	r0, [r0]
	lsls	r0, r0, #30
	cmp	r0, #0
	bpl	.LBB2_12
	b	.LBB2_7
.LBB2_7:
.Ltmp164:
	.loc	5 630 10 is_stmt 1              @ ../Library/STM32F4xx_HAL_Driver/Src/stm32f4xx_hal_rcc.c:630:10
	ldr	r0, [sp, #8]
.Ltmp165:
	.loc	5 630 8 is_stmt 0               @ ../Library/STM32F4xx_HAL_Driver/Src/stm32f4xx_hal_rcc.c:630:8
	ldrb	r0, [r0]
	lsls	r0, r0, #29
	cmp	r0, #0
	bpl	.LBB2_9
	b	.LBB2_8
.LBB2_8:
	.loc	5 0 8                           @ ../Library/STM32F4xx_HAL_Driver/Src/stm32f4xx_hal_rcc.c:0:8
	movw	r1, #14344
	movt	r1, #16386
.Ltmp166:
	.loc	5 632 7 is_stmt 1               @ ../Library/STM32F4xx_HAL_Driver/Src/stm32f4xx_hal_rcc.c:632:7
	ldr	r0, [r1]
	orr	r0, r0, #7168
	str	r0, [r1]
	.loc	5 633 5                         @ ../Library/STM32F4xx_HAL_Driver/Src/stm32f4xx_hal_rcc.c:633:5
	b	.LBB2_9
.Ltmp167:
.LBB2_9:
	.loc	5 635 10                        @ ../Library/STM32F4xx_HAL_Driver/Src/stm32f4xx_hal_rcc.c:635:10
	ldr	r0, [sp, #8]
.Ltmp168:
	.loc	5 635 8 is_stmt 0               @ ../Library/STM32F4xx_HAL_Driver/Src/stm32f4xx_hal_rcc.c:635:8
	ldrb	r0, [r0]
	lsls	r0, r0, #28
	cmp	r0, #0
	bpl	.LBB2_11
	b	.LBB2_10
.LBB2_10:
	.loc	5 0 8                           @ ../Library/STM32F4xx_HAL_Driver/Src/stm32f4xx_hal_rcc.c:0:8
	movw	r1, #14344
	movt	r1, #16386
.Ltmp169:
	.loc	5 637 7 is_stmt 1               @ ../Library/STM32F4xx_HAL_Driver/Src/stm32f4xx_hal_rcc.c:637:7
	ldr	r0, [r1]
	orr	r0, r0, #57344
	str	r0, [r1]
	.loc	5 638 5                         @ ../Library/STM32F4xx_HAL_Driver/Src/stm32f4xx_hal_rcc.c:638:5
	b	.LBB2_11
.Ltmp170:
.LBB2_11:
	.loc	5 0 5 is_stmt 0                 @ ../Library/STM32F4xx_HAL_Driver/Src/stm32f4xx_hal_rcc.c:0:5
	movw	r1, #14344
	movt	r1, #16386
	.loc	5 641 5 is_stmt 1               @ ../Library/STM32F4xx_HAL_Driver/Src/stm32f4xx_hal_rcc.c:641:5
	ldr	r0, [r1]
	bic	r0, r0, #240
	ldr	r2, [sp, #8]
	ldr	r2, [r2, #8]
	orrs	r0, r2
	str	r0, [r1]
	.loc	5 642 3                         @ ../Library/STM32F4xx_HAL_Driver/Src/stm32f4xx_hal_rcc.c:642:3
	b	.LBB2_12
.Ltmp171:
.LBB2_12:
	.loc	5 645 8                         @ ../Library/STM32F4xx_HAL_Driver/Src/stm32f4xx_hal_rcc.c:645:8
	ldr	r0, [sp, #8]
.Ltmp172:
	.loc	5 645 6 is_stmt 0               @ ../Library/STM32F4xx_HAL_Driver/Src/stm32f4xx_hal_rcc.c:645:6
	ldrb	r0, [r0]
	lsls	r0, r0, #31
	cmp	r0, #0
	beq	.LBB2_32
	b	.LBB2_13
.LBB2_13:
.Ltmp173:
	.loc	5 650 8 is_stmt 1               @ ../Library/STM32F4xx_HAL_Driver/Src/stm32f4xx_hal_rcc.c:650:8
	ldr	r0, [sp, #8]
	.loc	5 650 27 is_stmt 0              @ ../Library/STM32F4xx_HAL_Driver/Src/stm32f4xx_hal_rcc.c:650:27
	ldr	r0, [r0, #4]
.Ltmp174:
	.loc	5 650 8                         @ ../Library/STM32F4xx_HAL_Driver/Src/stm32f4xx_hal_rcc.c:650:8
	cmp	r0, #1
	bne	.LBB2_17
	b	.LBB2_14
.LBB2_14:
	.loc	5 0 8                           @ ../Library/STM32F4xx_HAL_Driver/Src/stm32f4xx_hal_rcc.c:0:8
	movw	r0, #14336
	movt	r0, #16386
.Ltmp175:
	.loc	5 653 10 is_stmt 1              @ ../Library/STM32F4xx_HAL_Driver/Src/stm32f4xx_hal_rcc.c:653:10
	ldr	r0, [r0]
	and	r1, r0, #131072
	movs	r0, #0
.Ltmp176:
	.loc	5 653 10 is_stmt 0              @ ../Library/STM32F4xx_HAL_Driver/Src/stm32f4xx_hal_rcc.c:653:10
	cmp.w	r0, r1, lsr #17
	bne	.LBB2_16
	b	.LBB2_15
.LBB2_15:
	.loc	5 0 10                          @ ../Library/STM32F4xx_HAL_Driver/Src/stm32f4xx_hal_rcc.c:0:10
	movs	r0, #1
.Ltmp177:
	.loc	5 655 9 is_stmt 1               @ ../Library/STM32F4xx_HAL_Driver/Src/stm32f4xx_hal_rcc.c:655:9
	strb.w	r0, [sp, #15]
	b	.LBB2_41
.Ltmp178:
.LBB2_16:
	.loc	5 657 5                         @ ../Library/STM32F4xx_HAL_Driver/Src/stm32f4xx_hal_rcc.c:657:5
	b	.LBB2_26
.Ltmp179:
.LBB2_17:
	.loc	5 659 14                        @ ../Library/STM32F4xx_HAL_Driver/Src/stm32f4xx_hal_rcc.c:659:14
	ldr	r0, [sp, #8]
	.loc	5 659 33 is_stmt 0              @ ../Library/STM32F4xx_HAL_Driver/Src/stm32f4xx_hal_rcc.c:659:33
	ldr	r0, [r0, #4]
	.loc	5 659 76                        @ ../Library/STM32F4xx_HAL_Driver/Src/stm32f4xx_hal_rcc.c:659:76
	cmp	r0, #2
	beq	.LBB2_19
	b	.LBB2_18
.LBB2_18:
	.loc	5 660 14 is_stmt 1              @ ../Library/STM32F4xx_HAL_Driver/Src/stm32f4xx_hal_rcc.c:660:14
	ldr	r0, [sp, #8]
	.loc	5 660 33 is_stmt 0              @ ../Library/STM32F4xx_HAL_Driver/Src/stm32f4xx_hal_rcc.c:660:33
	ldr	r0, [r0, #4]
.Ltmp180:
	.loc	5 659 13 is_stmt 1              @ ../Library/STM32F4xx_HAL_Driver/Src/stm32f4xx_hal_rcc.c:659:13
	cmp	r0, #3
	bne	.LBB2_22
	b	.LBB2_19
.LBB2_19:
	.loc	5 0 13 is_stmt 0                @ ../Library/STM32F4xx_HAL_Driver/Src/stm32f4xx_hal_rcc.c:0:13
	movw	r0, #14336
	movt	r0, #16386
.Ltmp181:
	.loc	5 663 10 is_stmt 1              @ ../Library/STM32F4xx_HAL_Driver/Src/stm32f4xx_hal_rcc.c:663:10
	ldr	r0, [r0]
	and	r1, r0, #33554432
	movs	r0, #0
.Ltmp182:
	.loc	5 663 10 is_stmt 0              @ ../Library/STM32F4xx_HAL_Driver/Src/stm32f4xx_hal_rcc.c:663:10
	cmp.w	r0, r1, lsr #25
	bne	.LBB2_21
	b	.LBB2_20
.LBB2_20:
	.loc	5 0 10                          @ ../Library/STM32F4xx_HAL_Driver/Src/stm32f4xx_hal_rcc.c:0:10
	movs	r0, #1
.Ltmp183:
	.loc	5 665 9 is_stmt 1               @ ../Library/STM32F4xx_HAL_Driver/Src/stm32f4xx_hal_rcc.c:665:9
	strb.w	r0, [sp, #15]
	b	.LBB2_41
.Ltmp184:
.LBB2_21:
	.loc	5 667 5                         @ ../Library/STM32F4xx_HAL_Driver/Src/stm32f4xx_hal_rcc.c:667:5
	b	.LBB2_25
.Ltmp185:
.LBB2_22:
	.loc	5 0 5 is_stmt 0                 @ ../Library/STM32F4xx_HAL_Driver/Src/stm32f4xx_hal_rcc.c:0:5
	movw	r0, #14336
	movt	r0, #16386
.Ltmp186:
	.loc	5 672 10 is_stmt 1              @ ../Library/STM32F4xx_HAL_Driver/Src/stm32f4xx_hal_rcc.c:672:10
	ldr	r0, [r0]
	and	r1, r0, #2
	movs	r0, #0
.Ltmp187:
	.loc	5 672 10 is_stmt 0              @ ../Library/STM32F4xx_HAL_Driver/Src/stm32f4xx_hal_rcc.c:672:10
	cmp.w	r0, r1, lsr #1
	bne	.LBB2_24
	b	.LBB2_23
.LBB2_23:
	.loc	5 0 10                          @ ../Library/STM32F4xx_HAL_Driver/Src/stm32f4xx_hal_rcc.c:0:10
	movs	r0, #1
.Ltmp188:
	.loc	5 674 9 is_stmt 1               @ ../Library/STM32F4xx_HAL_Driver/Src/stm32f4xx_hal_rcc.c:674:9
	strb.w	r0, [sp, #15]
	b	.LBB2_41
.Ltmp189:
.LBB2_24:
	.loc	5 0 9 is_stmt 0                 @ ../Library/STM32F4xx_HAL_Driver/Src/stm32f4xx_hal_rcc.c:0:9
	b	.LBB2_25
.LBB2_25:
	b	.LBB2_26
.LBB2_26:
	movw	r1, #14344
	movt	r1, #16386
	.loc	5 678 5 is_stmt 1               @ ../Library/STM32F4xx_HAL_Driver/Src/stm32f4xx_hal_rcc.c:678:5
	ldr	r0, [r1]
	bic	r0, r0, #3
	ldr	r2, [sp, #8]
	ldr	r2, [r2, #4]
	orrs	r0, r2
	str	r0, [r1]
	.loc	5 681 17                        @ ../Library/STM32F4xx_HAL_Driver/Src/stm32f4xx_hal_rcc.c:681:17
	bl	HAL_GetTick
	.loc	5 681 15 is_stmt 0              @ ../Library/STM32F4xx_HAL_Driver/Src/stm32f4xx_hal_rcc.c:681:15
	str	r0, [sp]
	.loc	5 683 5 is_stmt 1               @ ../Library/STM32F4xx_HAL_Driver/Src/stm32f4xx_hal_rcc.c:683:5
	b	.LBB2_27
.LBB2_27:                               @ =>This Inner Loop Header: Depth=1
	.loc	5 0 5 is_stmt 0                 @ ../Library/STM32F4xx_HAL_Driver/Src/stm32f4xx_hal_rcc.c:0:5
	movw	r0, #14344
	movt	r0, #16386
	.loc	5 683 12                        @ ../Library/STM32F4xx_HAL_Driver/Src/stm32f4xx_hal_rcc.c:683:12
	ldr	r0, [r0]
	and	r0, r0, #12
	.loc	5 683 46                        @ ../Library/STM32F4xx_HAL_Driver/Src/stm32f4xx_hal_rcc.c:683:46
	ldr	r1, [sp, #8]
	.loc	5 683 65                        @ ../Library/STM32F4xx_HAL_Driver/Src/stm32f4xx_hal_rcc.c:683:65
	ldr	r1, [r1, #4]
	.loc	5 683 5                         @ ../Library/STM32F4xx_HAL_Driver/Src/stm32f4xx_hal_rcc.c:683:5
	cmp.w	r0, r1, lsl #2
	beq	.LBB2_31
	b	.LBB2_28
.LBB2_28:                               @   in Loop: Header=BB2_27 Depth=1
.Ltmp190:
	.loc	5 685 12 is_stmt 1              @ ../Library/STM32F4xx_HAL_Driver/Src/stm32f4xx_hal_rcc.c:685:12
	bl	HAL_GetTick
	.loc	5 685 28 is_stmt 0              @ ../Library/STM32F4xx_HAL_Driver/Src/stm32f4xx_hal_rcc.c:685:28
	ldr	r1, [sp]
	.loc	5 685 26                        @ ../Library/STM32F4xx_HAL_Driver/Src/stm32f4xx_hal_rcc.c:685:26
	subs	r0, r0, r1
	movw	r1, #5001
.Ltmp191:
	.loc	5 685 11                        @ ../Library/STM32F4xx_HAL_Driver/Src/stm32f4xx_hal_rcc.c:685:11
	cmp	r0, r1
	blo	.LBB2_30
	b	.LBB2_29
.LBB2_29:
	.loc	5 0 11                          @ ../Library/STM32F4xx_HAL_Driver/Src/stm32f4xx_hal_rcc.c:0:11
	movs	r0, #3
.Ltmp192:
	.loc	5 687 9 is_stmt 1               @ ../Library/STM32F4xx_HAL_Driver/Src/stm32f4xx_hal_rcc.c:687:9
	strb.w	r0, [sp, #15]
	b	.LBB2_41
.Ltmp193:
.LBB2_30:                               @   in Loop: Header=BB2_27 Depth=1
	.loc	5 683 5                         @ ../Library/STM32F4xx_HAL_Driver/Src/stm32f4xx_hal_rcc.c:683:5
	b	.LBB2_27
.LBB2_31:
	.loc	5 690 3                         @ ../Library/STM32F4xx_HAL_Driver/Src/stm32f4xx_hal_rcc.c:690:3
	b	.LBB2_32
.Ltmp194:
.LBB2_32:
	.loc	5 693 6                         @ ../Library/STM32F4xx_HAL_Driver/Src/stm32f4xx_hal_rcc.c:693:6
	ldr	r0, [sp, #4]
	movw	r1, #15360
	movt	r1, #16386
	.loc	5 693 17 is_stmt 0              @ ../Library/STM32F4xx_HAL_Driver/Src/stm32f4xx_hal_rcc.c:693:17
	ldr	r1, [r1]
	and	r1, r1, #15
.Ltmp195:
	.loc	5 693 6                         @ ../Library/STM32F4xx_HAL_Driver/Src/stm32f4xx_hal_rcc.c:693:6
	cmp	r0, r1
	bhs	.LBB2_36
	b	.LBB2_33
.LBB2_33:
.Ltmp196:
	.loc	5 696 5 is_stmt 1               @ ../Library/STM32F4xx_HAL_Driver/Src/stm32f4xx_hal_rcc.c:696:5
	ldr	r1, [sp, #4]
	movw	r0, #15360
	movt	r0, #16386
	strb	r1, [r0]
.Ltmp197:
	.loc	5 700 8                         @ ../Library/STM32F4xx_HAL_Driver/Src/stm32f4xx_hal_rcc.c:700:8
	ldr	r0, [r0]
	and	r0, r0, #15
	.loc	5 700 37 is_stmt 0              @ ../Library/STM32F4xx_HAL_Driver/Src/stm32f4xx_hal_rcc.c:700:37
	ldr	r1, [sp, #4]
.Ltmp198:
	.loc	5 700 8                         @ ../Library/STM32F4xx_HAL_Driver/Src/stm32f4xx_hal_rcc.c:700:8
	cmp	r0, r1
	beq	.LBB2_35
	b	.LBB2_34
.LBB2_34:
	.loc	5 0 8                           @ ../Library/STM32F4xx_HAL_Driver/Src/stm32f4xx_hal_rcc.c:0:8
	movs	r0, #1
.Ltmp199:
	.loc	5 702 7 is_stmt 1               @ ../Library/STM32F4xx_HAL_Driver/Src/stm32f4xx_hal_rcc.c:702:7
	strb.w	r0, [sp, #15]
	b	.LBB2_41
.Ltmp200:
.LBB2_35:
	.loc	5 704 3                         @ ../Library/STM32F4xx_HAL_Driver/Src/stm32f4xx_hal_rcc.c:704:3
	b	.LBB2_36
.Ltmp201:
.LBB2_36:
	.loc	5 707 8                         @ ../Library/STM32F4xx_HAL_Driver/Src/stm32f4xx_hal_rcc.c:707:8
	ldr	r0, [sp, #8]
.Ltmp202:
	.loc	5 707 6 is_stmt 0               @ ../Library/STM32F4xx_HAL_Driver/Src/stm32f4xx_hal_rcc.c:707:6
	ldrb	r0, [r0]
	lsls	r0, r0, #29
	cmp	r0, #0
	bpl	.LBB2_38
	b	.LBB2_37
.LBB2_37:
	.loc	5 0 6                           @ ../Library/STM32F4xx_HAL_Driver/Src/stm32f4xx_hal_rcc.c:0:6
	movw	r1, #14344
	movt	r1, #16386
.Ltmp203:
	.loc	5 710 5 is_stmt 1               @ ../Library/STM32F4xx_HAL_Driver/Src/stm32f4xx_hal_rcc.c:710:5
	ldr	r0, [r1]
	bic	r0, r0, #7168
	ldr	r2, [sp, #8]
	ldr	r2, [r2, #12]
	orrs	r0, r2
	str	r0, [r1]
	.loc	5 711 3                         @ ../Library/STM32F4xx_HAL_Driver/Src/stm32f4xx_hal_rcc.c:711:3
	b	.LBB2_38
.Ltmp204:
.LBB2_38:
	.loc	5 714 8                         @ ../Library/STM32F4xx_HAL_Driver/Src/stm32f4xx_hal_rcc.c:714:8
	ldr	r0, [sp, #8]
.Ltmp205:
	.loc	5 714 6 is_stmt 0               @ ../Library/STM32F4xx_HAL_Driver/Src/stm32f4xx_hal_rcc.c:714:6
	ldrb	r0, [r0]
	lsls	r0, r0, #28
	cmp	r0, #0
	bpl	.LBB2_40
	b	.LBB2_39
.LBB2_39:
	.loc	5 0 6                           @ ../Library/STM32F4xx_HAL_Driver/Src/stm32f4xx_hal_rcc.c:0:6
	movw	r1, #14344
	movt	r1, #16386
.Ltmp206:
	.loc	5 717 5 is_stmt 1               @ ../Library/STM32F4xx_HAL_Driver/Src/stm32f4xx_hal_rcc.c:717:5
	ldr	r0, [r1]
	bic	r0, r0, #57344
	ldr	r2, [sp, #8]
	ldr	r2, [r2, #16]
	orr.w	r0, r0, r2, lsl #3
	str	r0, [r1]
	.loc	5 718 3                         @ ../Library/STM32F4xx_HAL_Driver/Src/stm32f4xx_hal_rcc.c:718:3
	b	.LBB2_40
.Ltmp207:
.LBB2_40:
	.loc	5 721 21                        @ ../Library/STM32F4xx_HAL_Driver/Src/stm32f4xx_hal_rcc.c:721:21
	bl	HAL_RCC_GetSysClockFreq
	movw	r1, #14344
	movt	r1, #16386
	.loc	5 721 70 is_stmt 0              @ ../Library/STM32F4xx_HAL_Driver/Src/stm32f4xx_hal_rcc.c:721:70
	ldr	r1, [r1]
	.loc	5 721 75                        @ ../Library/STM32F4xx_HAL_Driver/Src/stm32f4xx_hal_rcc.c:721:75
	uxtb	r1, r1
	.loc	5 721 91                        @ ../Library/STM32F4xx_HAL_Driver/Src/stm32f4xx_hal_rcc.c:721:91
	lsrs	r2, r1, #4
	.loc	5 721 50                        @ ../Library/STM32F4xx_HAL_Driver/Src/stm32f4xx_hal_rcc.c:721:50
	movw	r1, :lower16:AHBPrescTable
	movt	r1, :upper16:AHBPrescTable
	ldrb	r1, [r1, r2]
	.loc	5 721 47                        @ ../Library/STM32F4xx_HAL_Driver/Src/stm32f4xx_hal_rcc.c:721:47
	lsrs	r0, r1
	.loc	5 721 19                        @ ../Library/STM32F4xx_HAL_Driver/Src/stm32f4xx_hal_rcc.c:721:19
	movw	r1, :lower16:SystemCoreClock
	movt	r1, :upper16:SystemCoreClock
	str	r0, [r1]
	.loc	5 724 17 is_stmt 1              @ ../Library/STM32F4xx_HAL_Driver/Src/stm32f4xx_hal_rcc.c:724:17
	movw	r0, :lower16:uwTickPrio
	movt	r0, :upper16:uwTickPrio
	ldr	r0, [r0]
	.loc	5 724 3 is_stmt 0               @ ../Library/STM32F4xx_HAL_Driver/Src/stm32f4xx_hal_rcc.c:724:3
	bl	HAL_InitTick
	movs	r0, #0
	.loc	5 726 3 is_stmt 1               @ ../Library/STM32F4xx_HAL_Driver/Src/stm32f4xx_hal_rcc.c:726:3
	strb.w	r0, [sp, #15]
	b	.LBB2_41
.LBB2_41:
	.loc	5 727 1                         @ ../Library/STM32F4xx_HAL_Driver/Src/stm32f4xx_hal_rcc.c:727:1
	ldrb.w	r0, [sp, #15]
	add	sp, #16
	pop	{r7, pc}
.Ltmp208:
.Lfunc_end2:
	.size	HAL_RCC_ClockConfig, .Lfunc_end2-HAL_RCC_ClockConfig
	.cfi_endproc
	.cantunwind
	.fnend
                                        @ -- End function
	.section	.text.HAL_RCC_GetSysClockFreq,"ax",%progbits
	.hidden	HAL_RCC_GetSysClockFreq         @ -- Begin function HAL_RCC_GetSysClockFreq
	.weak	HAL_RCC_GetSysClockFreq
	.p2align	2
	.type	HAL_RCC_GetSysClockFreq,%function
	.code	16                              @ @HAL_RCC_GetSysClockFreq
	.thumb_func
HAL_RCC_GetSysClockFreq:
.Lfunc_begin3:
	.loc	5 888 0                         @ ../Library/STM32F4xx_HAL_Driver/Src/stm32f4xx_hal_rcc.c:888:0
	.fnstart
	.cfi_startproc
@ %bb.0:
	.save	{r7, lr}
	push	{r7, lr}
	.cfi_def_cfa_offset 8
	.cfi_offset lr, -4
	.cfi_offset r7, -8
	.pad	#24
	sub	sp, #24
	.cfi_def_cfa_offset 32
	movs	r0, #0
.Ltmp209:
	.loc	5 889 12 prologue_end           @ ../Library/STM32F4xx_HAL_Driver/Src/stm32f4xx_hal_rcc.c:889:12
	str	r0, [sp, #20]
	.loc	5 889 23 is_stmt 0              @ ../Library/STM32F4xx_HAL_Driver/Src/stm32f4xx_hal_rcc.c:889:23
	str	r0, [sp, #16]
	.loc	5 889 36                        @ ../Library/STM32F4xx_HAL_Driver/Src/stm32f4xx_hal_rcc.c:889:36
	str	r0, [sp, #12]
	.loc	5 890 12 is_stmt 1              @ ../Library/STM32F4xx_HAL_Driver/Src/stm32f4xx_hal_rcc.c:890:12
	str	r0, [sp, #8]
	movw	r0, #14344
	movt	r0, #16386
	.loc	5 893 16                        @ ../Library/STM32F4xx_HAL_Driver/Src/stm32f4xx_hal_rcc.c:893:16
	ldr	r0, [r0]
	.loc	5 893 21 is_stmt 0              @ ../Library/STM32F4xx_HAL_Driver/Src/stm32f4xx_hal_rcc.c:893:21
	and	r0, r0, #12
	.loc	5 893 3                         @ ../Library/STM32F4xx_HAL_Driver/Src/stm32f4xx_hal_rcc.c:893:3
	mov	r1, r0
	str	r1, [sp, #4]                    @ 4-byte Spill
	cbz	r0, .LBB3_3
	b	.LBB3_1
.LBB3_1:
	ldr	r0, [sp, #4]                    @ 4-byte Reload
	cmp	r0, #4
	beq	.LBB3_4
	b	.LBB3_2
.LBB3_2:
	ldr	r0, [sp, #4]                    @ 4-byte Reload
	cmp	r0, #8
	beq	.LBB3_5
	b	.LBB3_9
.LBB3_3:
	.loc	5 0 3                           @ ../Library/STM32F4xx_HAL_Driver/Src/stm32f4xx_hal_rcc.c:0:3
	movw	r0, #9216
	movt	r0, #244
.Ltmp210:
	.loc	5 897 20 is_stmt 1              @ ../Library/STM32F4xx_HAL_Driver/Src/stm32f4xx_hal_rcc.c:897:20
	str	r0, [sp, #8]
	.loc	5 898 8                         @ ../Library/STM32F4xx_HAL_Driver/Src/stm32f4xx_hal_rcc.c:898:8
	b	.LBB3_10
.Ltmp211:
.LBB3_4:
	.loc	5 0 8 is_stmt 0                 @ ../Library/STM32F4xx_HAL_Driver/Src/stm32f4xx_hal_rcc.c:0:8
	movw	r0, #30784
	movt	r0, #381
.Ltmp212:
	.loc	5 902 20 is_stmt 1              @ ../Library/STM32F4xx_HAL_Driver/Src/stm32f4xx_hal_rcc.c:902:20
	str	r0, [sp, #8]
	.loc	5 903 7                         @ ../Library/STM32F4xx_HAL_Driver/Src/stm32f4xx_hal_rcc.c:903:7
	b	.LBB3_10
.Ltmp213:
.LBB3_5:
	.loc	5 0 7 is_stmt 0                 @ ../Library/STM32F4xx_HAL_Driver/Src/stm32f4xx_hal_rcc.c:0:7
	movw	r0, #14340
	movt	r0, #16386
.Ltmp214:
	.loc	5 909 19 is_stmt 1              @ ../Library/STM32F4xx_HAL_Driver/Src/stm32f4xx_hal_rcc.c:909:19
	ldr	r1, [r0]
	.loc	5 909 27 is_stmt 0              @ ../Library/STM32F4xx_HAL_Driver/Src/stm32f4xx_hal_rcc.c:909:27
	and	r1, r1, #63
	.loc	5 909 12                        @ ../Library/STM32F4xx_HAL_Driver/Src/stm32f4xx_hal_rcc.c:909:12
	str	r1, [sp, #20]
.Ltmp215:
	.loc	5 910 10 is_stmt 1              @ ../Library/STM32F4xx_HAL_Driver/Src/stm32f4xx_hal_rcc.c:910:10
	ldr	r0, [r0]
.Ltmp216:
	.loc	5 910 10 is_stmt 0              @ ../Library/STM32F4xx_HAL_Driver/Src/stm32f4xx_hal_rcc.c:910:10
	lsls	r0, r0, #9
	cmp	r0, #0
	bpl	.LBB3_7
	b	.LBB3_6
.LBB3_6:
	.loc	5 0 10                          @ ../Library/STM32F4xx_HAL_Driver/Src/stm32f4xx_hal_rcc.c:0:10
	movw	r0, #14340
	movt	r0, #16386
.Ltmp217:
	.loc	5 913 74 is_stmt 1              @ ../Library/STM32F4xx_HAL_Driver/Src/stm32f4xx_hal_rcc.c:913:74
	ldr	r0, [r0]
	.loc	5 913 102 is_stmt 0             @ ../Library/STM32F4xx_HAL_Driver/Src/stm32f4xx_hal_rcc.c:913:102
	ubfx	r0, r0, #6, #9
	movw	r1, #30784
	movt	r1, #381
	.loc	5 913 53                        @ ../Library/STM32F4xx_HAL_Driver/Src/stm32f4xx_hal_rcc.c:913:53
	umull	r0, r1, r0, r1
	.loc	5 913 142                       @ ../Library/STM32F4xx_HAL_Driver/Src/stm32f4xx_hal_rcc.c:913:142
	ldr	r2, [sp, #20]
	movs	r3, #0
	.loc	5 913 130                       @ ../Library/STM32F4xx_HAL_Driver/Src/stm32f4xx_hal_rcc.c:913:130
	bl	__aeabi_uldivmod
	.loc	5 913 16                        @ ../Library/STM32F4xx_HAL_Driver/Src/stm32f4xx_hal_rcc.c:913:16
	str	r0, [sp, #16]
	.loc	5 914 7 is_stmt 1               @ ../Library/STM32F4xx_HAL_Driver/Src/stm32f4xx_hal_rcc.c:914:7
	b	.LBB3_8
.Ltmp218:
.LBB3_7:
	.loc	5 0 7 is_stmt 0                 @ ../Library/STM32F4xx_HAL_Driver/Src/stm32f4xx_hal_rcc.c:0:7
	movw	r0, #14340
	movt	r0, #16386
.Ltmp219:
	.loc	5 918 74 is_stmt 1              @ ../Library/STM32F4xx_HAL_Driver/Src/stm32f4xx_hal_rcc.c:918:74
	ldr	r0, [r0]
	.loc	5 918 102 is_stmt 0             @ ../Library/STM32F4xx_HAL_Driver/Src/stm32f4xx_hal_rcc.c:918:102
	ubfx	r0, r0, #6, #9
	movw	r1, #9216
	movt	r1, #244
	.loc	5 918 53                        @ ../Library/STM32F4xx_HAL_Driver/Src/stm32f4xx_hal_rcc.c:918:53
	umull	r0, r1, r0, r1
	.loc	5 918 142                       @ ../Library/STM32F4xx_HAL_Driver/Src/stm32f4xx_hal_rcc.c:918:142
	ldr	r2, [sp, #20]
	movs	r3, #0
	.loc	5 918 130                       @ ../Library/STM32F4xx_HAL_Driver/Src/stm32f4xx_hal_rcc.c:918:130
	bl	__aeabi_uldivmod
	.loc	5 918 16                        @ ../Library/STM32F4xx_HAL_Driver/Src/stm32f4xx_hal_rcc.c:918:16
	str	r0, [sp, #16]
	b	.LBB3_8
.Ltmp220:
.LBB3_8:
	.loc	5 0 16                          @ ../Library/STM32F4xx_HAL_Driver/Src/stm32f4xx_hal_rcc.c:0:16
	movw	r0, #14340
	movt	r0, #16386
	.loc	5 920 23 is_stmt 1              @ ../Library/STM32F4xx_HAL_Driver/Src/stm32f4xx_hal_rcc.c:920:23
	ldr	r0, [r0]
	.loc	5 920 31 is_stmt 0              @ ../Library/STM32F4xx_HAL_Driver/Src/stm32f4xx_hal_rcc.c:920:31
	and	r1, r0, #196608
	movs	r0, #2
	.loc	5 920 82                        @ ../Library/STM32F4xx_HAL_Driver/Src/stm32f4xx_hal_rcc.c:920:82
	add.w	r0, r0, r1, lsr #15
	.loc	5 920 12                        @ ../Library/STM32F4xx_HAL_Driver/Src/stm32f4xx_hal_rcc.c:920:12
	str	r0, [sp, #12]
	.loc	5 922 22 is_stmt 1              @ ../Library/STM32F4xx_HAL_Driver/Src/stm32f4xx_hal_rcc.c:922:22
	ldr	r0, [sp, #16]
	.loc	5 922 29 is_stmt 0              @ ../Library/STM32F4xx_HAL_Driver/Src/stm32f4xx_hal_rcc.c:922:29
	ldr	r1, [sp, #12]
	.loc	5 922 28                        @ ../Library/STM32F4xx_HAL_Driver/Src/stm32f4xx_hal_rcc.c:922:28
	udiv	r0, r0, r1
	.loc	5 922 20                        @ ../Library/STM32F4xx_HAL_Driver/Src/stm32f4xx_hal_rcc.c:922:20
	str	r0, [sp, #8]
	.loc	5 923 7 is_stmt 1               @ ../Library/STM32F4xx_HAL_Driver/Src/stm32f4xx_hal_rcc.c:923:7
	b	.LBB3_10
.Ltmp221:
.LBB3_9:
	.loc	5 0 7 is_stmt 0                 @ ../Library/STM32F4xx_HAL_Driver/Src/stm32f4xx_hal_rcc.c:0:7
	movw	r0, #9216
	movt	r0, #244
.Ltmp222:
	.loc	5 927 20 is_stmt 1              @ ../Library/STM32F4xx_HAL_Driver/Src/stm32f4xx_hal_rcc.c:927:20
	str	r0, [sp, #8]
	.loc	5 928 7                         @ ../Library/STM32F4xx_HAL_Driver/Src/stm32f4xx_hal_rcc.c:928:7
	b	.LBB3_10
.Ltmp223:
.LBB3_10:
	.loc	5 931 10                        @ ../Library/STM32F4xx_HAL_Driver/Src/stm32f4xx_hal_rcc.c:931:10
	ldr	r0, [sp, #8]
	.loc	5 931 3 is_stmt 0               @ ../Library/STM32F4xx_HAL_Driver/Src/stm32f4xx_hal_rcc.c:931:3
	add	sp, #24
	pop	{r7, pc}
.Ltmp224:
.Lfunc_end3:
	.size	HAL_RCC_GetSysClockFreq, .Lfunc_end3-HAL_RCC_GetSysClockFreq
	.cfi_endproc
	.cantunwind
	.fnend
                                        @ -- End function
	.section	.text.HAL_RCC_MCOConfig,"ax",%progbits
	.hidden	HAL_RCC_MCOConfig               @ -- Begin function HAL_RCC_MCOConfig
	.globl	HAL_RCC_MCOConfig
	.p2align	2
	.type	HAL_RCC_MCOConfig,%function
	.code	16                              @ @HAL_RCC_MCOConfig
	.thumb_func
HAL_RCC_MCOConfig:
.Lfunc_begin4:
	.loc	5 778 0 is_stmt 1               @ ../Library/STM32F4xx_HAL_Driver/Src/stm32f4xx_hal_rcc.c:778:0
	.fnstart
	.cfi_startproc
@ %bb.0:
	.save	{r7, lr}
	push	{r7, lr}
	.cfi_def_cfa_offset 8
	.cfi_offset lr, -4
	.cfi_offset r7, -8
	.pad	#40
	sub	sp, #40
	.cfi_def_cfa_offset 48
	str	r0, [sp, #36]
	str	r1, [sp, #32]
	str	r2, [sp, #28]
.Ltmp225:
	.loc	5 784 6 prologue_end            @ ../Library/STM32F4xx_HAL_Driver/Src/stm32f4xx_hal_rcc.c:784:6
	ldr	r0, [sp, #36]
.Ltmp226:
	.loc	5 784 6 is_stmt 0               @ ../Library/STM32F4xx_HAL_Driver/Src/stm32f4xx_hal_rcc.c:784:6
	cbnz	r0, .LBB4_4
	b	.LBB4_1
.LBB4_1:
.Ltmp227:
	.loc	5 789 5 is_stmt 1               @ ../Library/STM32F4xx_HAL_Driver/Src/stm32f4xx_hal_rcc.c:789:5
	b	.LBB4_2
.LBB4_2:
	.loc	5 0 5 is_stmt 0                 @ ../Library/STM32F4xx_HAL_Driver/Src/stm32f4xx_hal_rcc.c:0:5
	movs	r0, #0
.Ltmp228:
	.loc	5 789 5                         @ ../Library/STM32F4xx_HAL_Driver/Src/stm32f4xx_hal_rcc.c:789:5
	str	r0, [sp, #4]
	movw	r0, #14384
	movt	r0, #16386
	ldr	r1, [r0]
	orr	r1, r1, #1
	str	r1, [r0]
	ldr	r0, [r0]
	and	r0, r0, #1
	str	r0, [sp, #4]
	ldr	r0, [sp, #4]
	b	.LBB4_3
.Ltmp229:
.LBB4_3:
	.loc	5 0 5                           @ ../Library/STM32F4xx_HAL_Driver/Src/stm32f4xx_hal_rcc.c:0:5
	mov.w	r0, #256
	.loc	5 792 25 is_stmt 1              @ ../Library/STM32F4xx_HAL_Driver/Src/stm32f4xx_hal_rcc.c:792:25
	str	r0, [sp, #8]
	movs	r0, #2
	.loc	5 793 26                        @ ../Library/STM32F4xx_HAL_Driver/Src/stm32f4xx_hal_rcc.c:793:26
	str	r0, [sp, #12]
	movs	r0, #3
	.loc	5 794 27                        @ ../Library/STM32F4xx_HAL_Driver/Src/stm32f4xx_hal_rcc.c:794:27
	str	r0, [sp, #20]
	movs	r0, #0
	.loc	5 795 26                        @ ../Library/STM32F4xx_HAL_Driver/Src/stm32f4xx_hal_rcc.c:795:26
	str	r0, [sp, #16]
	.loc	5 796 31                        @ ../Library/STM32F4xx_HAL_Driver/Src/stm32f4xx_hal_rcc.c:796:31
	str	r0, [sp, #24]
	movs	r0, #0
	movt	r0, #16386
	add	r1, sp, #8
	.loc	5 797 5                         @ ../Library/STM32F4xx_HAL_Driver/Src/stm32f4xx_hal_rcc.c:797:5
	bl	HAL_GPIO_Init
	movw	r1, #14344
	movt	r1, #16386
	.loc	5 800 5                         @ ../Library/STM32F4xx_HAL_Driver/Src/stm32f4xx_hal_rcc.c:800:5
	ldr	r0, [r1]
	bic	r0, r0, #123731968
	ldr	r2, [sp, #32]
	ldr	r3, [sp, #28]
	orrs	r2, r3
	orrs	r0, r2
	str	r0, [r1]
	.loc	5 806 3                         @ ../Library/STM32F4xx_HAL_Driver/Src/stm32f4xx_hal_rcc.c:806:3
	b	.LBB4_7
.Ltmp230:
.LBB4_4:
	.loc	5 813 5                         @ ../Library/STM32F4xx_HAL_Driver/Src/stm32f4xx_hal_rcc.c:813:5
	b	.LBB4_5
.LBB4_5:
	.loc	5 0 5 is_stmt 0                 @ ../Library/STM32F4xx_HAL_Driver/Src/stm32f4xx_hal_rcc.c:0:5
	movs	r0, #0
.Ltmp231:
	.loc	5 813 5                         @ ../Library/STM32F4xx_HAL_Driver/Src/stm32f4xx_hal_rcc.c:813:5
	str	r0, [sp]
	movw	r0, #14384
	movt	r0, #16386
	ldr	r1, [r0]
	orr	r1, r1, #4
	str	r1, [r0]
	ldr	r0, [r0]
	and	r0, r0, #4
	str	r0, [sp]
	ldr	r0, [sp]
	b	.LBB4_6
.Ltmp232:
.LBB4_6:
	.loc	5 0 5                           @ ../Library/STM32F4xx_HAL_Driver/Src/stm32f4xx_hal_rcc.c:0:5
	mov.w	r0, #512
	.loc	5 816 25 is_stmt 1              @ ../Library/STM32F4xx_HAL_Driver/Src/stm32f4xx_hal_rcc.c:816:25
	str	r0, [sp, #8]
	movs	r0, #2
	.loc	5 817 26                        @ ../Library/STM32F4xx_HAL_Driver/Src/stm32f4xx_hal_rcc.c:817:26
	str	r0, [sp, #12]
	movs	r0, #3
	.loc	5 818 27                        @ ../Library/STM32F4xx_HAL_Driver/Src/stm32f4xx_hal_rcc.c:818:27
	str	r0, [sp, #20]
	movs	r0, #0
	.loc	5 819 26                        @ ../Library/STM32F4xx_HAL_Driver/Src/stm32f4xx_hal_rcc.c:819:26
	str	r0, [sp, #16]
	.loc	5 820 31                        @ ../Library/STM32F4xx_HAL_Driver/Src/stm32f4xx_hal_rcc.c:820:31
	str	r0, [sp, #24]
	movw	r0, #2048
	movt	r0, #16386
	add	r1, sp, #8
	.loc	5 821 5                         @ ../Library/STM32F4xx_HAL_Driver/Src/stm32f4xx_hal_rcc.c:821:5
	bl	HAL_GPIO_Init
	movw	r1, #14344
	movt	r1, #16386
	.loc	5 824 5                         @ ../Library/STM32F4xx_HAL_Driver/Src/stm32f4xx_hal_rcc.c:824:5
	ldr	r0, [r1]
	bic	r0, r0, #-134217728
	ldr	r2, [sp, #32]
	ldr	r3, [sp, #28]
	orr.w	r2, r2, r3, lsl #3
	orrs	r0, r2
	str	r0, [r1]
	b	.LBB4_7
.Ltmp233:
.LBB4_7:
	.loc	5 832 1                         @ ../Library/STM32F4xx_HAL_Driver/Src/stm32f4xx_hal_rcc.c:832:1
	add	sp, #40
	pop	{r7, pc}
.Ltmp234:
.Lfunc_end4:
	.size	HAL_RCC_MCOConfig, .Lfunc_end4-HAL_RCC_MCOConfig
	.cfi_endproc
	.cantunwind
	.fnend
                                        @ -- End function
	.section	.text.HAL_RCC_EnableCSS,"ax",%progbits
	.hidden	HAL_RCC_EnableCSS               @ -- Begin function HAL_RCC_EnableCSS
	.globl	HAL_RCC_EnableCSS
	.p2align	2
	.type	HAL_RCC_EnableCSS,%function
	.code	16                              @ @HAL_RCC_EnableCSS
	.thumb_func
HAL_RCC_EnableCSS:
.Lfunc_begin5:
	.loc	5 844 0                         @ ../Library/STM32F4xx_HAL_Driver/Src/stm32f4xx_hal_rcc.c:844:0
	.fnstart
	.cfi_startproc
@ %bb.0:
	movs	r1, #76
	movt	r1, #16967
	movs	r0, #1
.Ltmp235:
	.loc	5 845 38 prologue_end           @ ../Library/STM32F4xx_HAL_Driver/Src/stm32f4xx_hal_rcc.c:845:38
	str	r0, [r1]
	.loc	5 846 1                         @ ../Library/STM32F4xx_HAL_Driver/Src/stm32f4xx_hal_rcc.c:846:1
	bx	lr
.Ltmp236:
.Lfunc_end5:
	.size	HAL_RCC_EnableCSS, .Lfunc_end5-HAL_RCC_EnableCSS
	.cfi_endproc
	.cantunwind
	.fnend
                                        @ -- End function
	.section	.text.HAL_RCC_DisableCSS,"ax",%progbits
	.hidden	HAL_RCC_DisableCSS              @ -- Begin function HAL_RCC_DisableCSS
	.globl	HAL_RCC_DisableCSS
	.p2align	2
	.type	HAL_RCC_DisableCSS,%function
	.code	16                              @ @HAL_RCC_DisableCSS
	.thumb_func
HAL_RCC_DisableCSS:
.Lfunc_begin6:
	.loc	5 853 0                         @ ../Library/STM32F4xx_HAL_Driver/Src/stm32f4xx_hal_rcc.c:853:0
	.fnstart
	.cfi_startproc
@ %bb.0:
	movs	r1, #76
	movt	r1, #16967
	movs	r0, #0
.Ltmp237:
	.loc	5 854 38 prologue_end           @ ../Library/STM32F4xx_HAL_Driver/Src/stm32f4xx_hal_rcc.c:854:38
	str	r0, [r1]
	.loc	5 855 1                         @ ../Library/STM32F4xx_HAL_Driver/Src/stm32f4xx_hal_rcc.c:855:1
	bx	lr
.Ltmp238:
.Lfunc_end6:
	.size	HAL_RCC_DisableCSS, .Lfunc_end6-HAL_RCC_DisableCSS
	.cfi_endproc
	.cantunwind
	.fnend
                                        @ -- End function
	.section	.text.HAL_RCC_GetHCLKFreq,"ax",%progbits
	.hidden	HAL_RCC_GetHCLKFreq             @ -- Begin function HAL_RCC_GetHCLKFreq
	.globl	HAL_RCC_GetHCLKFreq
	.p2align	2
	.type	HAL_RCC_GetHCLKFreq,%function
	.code	16                              @ @HAL_RCC_GetHCLKFreq
	.thumb_func
HAL_RCC_GetHCLKFreq:
.Lfunc_begin7:
	.loc	5 944 0                         @ ../Library/STM32F4xx_HAL_Driver/Src/stm32f4xx_hal_rcc.c:944:0
	.fnstart
	.cfi_startproc
@ %bb.0:
	.loc	5 945 10 prologue_end           @ ../Library/STM32F4xx_HAL_Driver/Src/stm32f4xx_hal_rcc.c:945:10
	movw	r0, :lower16:SystemCoreClock
	movt	r0, :upper16:SystemCoreClock
	ldr	r0, [r0]
	.loc	5 945 3 is_stmt 0               @ ../Library/STM32F4xx_HAL_Driver/Src/stm32f4xx_hal_rcc.c:945:3
	bx	lr
.Ltmp239:
.Lfunc_end7:
	.size	HAL_RCC_GetHCLKFreq, .Lfunc_end7-HAL_RCC_GetHCLKFreq
	.cfi_endproc
	.cantunwind
	.fnend
                                        @ -- End function
	.section	.text.HAL_RCC_GetPCLK1Freq,"ax",%progbits
	.hidden	HAL_RCC_GetPCLK1Freq            @ -- Begin function HAL_RCC_GetPCLK1Freq
	.globl	HAL_RCC_GetPCLK1Freq
	.p2align	2
	.type	HAL_RCC_GetPCLK1Freq,%function
	.code	16                              @ @HAL_RCC_GetPCLK1Freq
	.thumb_func
HAL_RCC_GetPCLK1Freq:
.Lfunc_begin8:
	.loc	5 955 0 is_stmt 1               @ ../Library/STM32F4xx_HAL_Driver/Src/stm32f4xx_hal_rcc.c:955:0
	.fnstart
	.cfi_startproc
@ %bb.0:
	.save	{r7, lr}
	push	{r7, lr}
	.cfi_def_cfa_offset 8
	.cfi_offset lr, -4
	.cfi_offset r7, -8
.Ltmp240:
	.loc	5 957 11 prologue_end           @ ../Library/STM32F4xx_HAL_Driver/Src/stm32f4xx_hal_rcc.c:957:11
	bl	HAL_RCC_GetHCLKFreq
	movw	r1, #14344
	movt	r1, #16386
	.loc	5 957 56 is_stmt 0              @ ../Library/STM32F4xx_HAL_Driver/Src/stm32f4xx_hal_rcc.c:957:56
	ldr	r1, [r1]
	.loc	5 957 78                        @ ../Library/STM32F4xx_HAL_Driver/Src/stm32f4xx_hal_rcc.c:957:78
	ubfx	r2, r1, #10, #3
	.loc	5 957 36                        @ ../Library/STM32F4xx_HAL_Driver/Src/stm32f4xx_hal_rcc.c:957:36
	movw	r1, :lower16:APBPrescTable
	movt	r1, :upper16:APBPrescTable
	ldrb	r1, [r1, r2]
	.loc	5 957 33                        @ ../Library/STM32F4xx_HAL_Driver/Src/stm32f4xx_hal_rcc.c:957:33
	lsrs	r0, r1
	.loc	5 957 3                         @ ../Library/STM32F4xx_HAL_Driver/Src/stm32f4xx_hal_rcc.c:957:3
	pop	{r7, pc}
.Ltmp241:
.Lfunc_end8:
	.size	HAL_RCC_GetPCLK1Freq, .Lfunc_end8-HAL_RCC_GetPCLK1Freq
	.cfi_endproc
	.cantunwind
	.fnend
                                        @ -- End function
	.section	.text.HAL_RCC_GetPCLK2Freq,"ax",%progbits
	.hidden	HAL_RCC_GetPCLK2Freq            @ -- Begin function HAL_RCC_GetPCLK2Freq
	.globl	HAL_RCC_GetPCLK2Freq
	.p2align	2
	.type	HAL_RCC_GetPCLK2Freq,%function
	.code	16                              @ @HAL_RCC_GetPCLK2Freq
	.thumb_func
HAL_RCC_GetPCLK2Freq:
.Lfunc_begin9:
	.loc	5 967 0 is_stmt 1               @ ../Library/STM32F4xx_HAL_Driver/Src/stm32f4xx_hal_rcc.c:967:0
	.fnstart
	.cfi_startproc
@ %bb.0:
	.save	{r7, lr}
	push	{r7, lr}
	.cfi_def_cfa_offset 8
	.cfi_offset lr, -4
	.cfi_offset r7, -8
.Ltmp242:
	.loc	5 969 11 prologue_end           @ ../Library/STM32F4xx_HAL_Driver/Src/stm32f4xx_hal_rcc.c:969:11
	bl	HAL_RCC_GetHCLKFreq
	movw	r1, #14344
	movt	r1, #16386
	.loc	5 969 55 is_stmt 0              @ ../Library/STM32F4xx_HAL_Driver/Src/stm32f4xx_hal_rcc.c:969:55
	ldr	r1, [r1]
	.loc	5 969 60                        @ ../Library/STM32F4xx_HAL_Driver/Src/stm32f4xx_hal_rcc.c:969:60
	uxth	r1, r1
	.loc	5 969 77                        @ ../Library/STM32F4xx_HAL_Driver/Src/stm32f4xx_hal_rcc.c:969:77
	lsrs	r2, r1, #13
	.loc	5 969 35                        @ ../Library/STM32F4xx_HAL_Driver/Src/stm32f4xx_hal_rcc.c:969:35
	movw	r1, :lower16:APBPrescTable
	movt	r1, :upper16:APBPrescTable
	ldrb	r1, [r1, r2]
	.loc	5 969 32                        @ ../Library/STM32F4xx_HAL_Driver/Src/stm32f4xx_hal_rcc.c:969:32
	lsrs	r0, r1
	.loc	5 969 3                         @ ../Library/STM32F4xx_HAL_Driver/Src/stm32f4xx_hal_rcc.c:969:3
	pop	{r7, pc}
.Ltmp243:
.Lfunc_end9:
	.size	HAL_RCC_GetPCLK2Freq, .Lfunc_end9-HAL_RCC_GetPCLK2Freq
	.cfi_endproc
	.cantunwind
	.fnend
                                        @ -- End function
	.section	.text.HAL_RCC_GetOscConfig,"ax",%progbits
	.hidden	HAL_RCC_GetOscConfig            @ -- Begin function HAL_RCC_GetOscConfig
	.weak	HAL_RCC_GetOscConfig
	.p2align	2
	.type	HAL_RCC_GetOscConfig,%function
	.code	16                              @ @HAL_RCC_GetOscConfig
	.thumb_func
HAL_RCC_GetOscConfig:
.Lfunc_begin10:
	.loc	5 980 0 is_stmt 1               @ ../Library/STM32F4xx_HAL_Driver/Src/stm32f4xx_hal_rcc.c:980:0
	.fnstart
	.cfi_startproc
@ %bb.0:
	.pad	#4
	sub	sp, #4
	.cfi_def_cfa_offset 4
	str	r0, [sp]
.Ltmp244:
	.loc	5 982 3 prologue_end            @ ../Library/STM32F4xx_HAL_Driver/Src/stm32f4xx_hal_rcc.c:982:3
	ldr	r1, [sp]
	movs	r0, #15
	.loc	5 982 37 is_stmt 0              @ ../Library/STM32F4xx_HAL_Driver/Src/stm32f4xx_hal_rcc.c:982:37
	str	r0, [r1]
	movw	r0, #14336
	movt	r0, #16386
.Ltmp245:
	.loc	5 985 12 is_stmt 1              @ ../Library/STM32F4xx_HAL_Driver/Src/stm32f4xx_hal_rcc.c:985:12
	ldr	r0, [r0]
.Ltmp246:
	.loc	5 985 6 is_stmt 0               @ ../Library/STM32F4xx_HAL_Driver/Src/stm32f4xx_hal_rcc.c:985:6
	lsls	r0, r0, #13
	cmp	r0, #0
	bpl	.LBB10_2
	b	.LBB10_1
.LBB10_1:
.Ltmp247:
	.loc	5 987 5 is_stmt 1               @ ../Library/STM32F4xx_HAL_Driver/Src/stm32f4xx_hal_rcc.c:987:5
	ldr	r1, [sp]
	mov.w	r0, #327680
	.loc	5 987 33 is_stmt 0              @ ../Library/STM32F4xx_HAL_Driver/Src/stm32f4xx_hal_rcc.c:987:33
	str	r0, [r1, #4]
	.loc	5 988 3 is_stmt 1               @ ../Library/STM32F4xx_HAL_Driver/Src/stm32f4xx_hal_rcc.c:988:3
	b	.LBB10_6
.Ltmp248:
.LBB10_2:
	.loc	5 0 3 is_stmt 0                 @ ../Library/STM32F4xx_HAL_Driver/Src/stm32f4xx_hal_rcc.c:0:3
	movw	r0, #14336
	movt	r0, #16386
.Ltmp249:
	.loc	5 989 17 is_stmt 1              @ ../Library/STM32F4xx_HAL_Driver/Src/stm32f4xx_hal_rcc.c:989:17
	ldr	r0, [r0]
.Ltmp250:
	.loc	5 989 11 is_stmt 0              @ ../Library/STM32F4xx_HAL_Driver/Src/stm32f4xx_hal_rcc.c:989:11
	lsls	r0, r0, #15
	cmp	r0, #0
	bpl	.LBB10_4
	b	.LBB10_3
.LBB10_3:
.Ltmp251:
	.loc	5 991 5 is_stmt 1               @ ../Library/STM32F4xx_HAL_Driver/Src/stm32f4xx_hal_rcc.c:991:5
	ldr	r1, [sp]
	mov.w	r0, #65536
	.loc	5 991 33 is_stmt 0              @ ../Library/STM32F4xx_HAL_Driver/Src/stm32f4xx_hal_rcc.c:991:33
	str	r0, [r1, #4]
	.loc	5 992 3 is_stmt 1               @ ../Library/STM32F4xx_HAL_Driver/Src/stm32f4xx_hal_rcc.c:992:3
	b	.LBB10_5
.Ltmp252:
.LBB10_4:
	.loc	5 995 5                         @ ../Library/STM32F4xx_HAL_Driver/Src/stm32f4xx_hal_rcc.c:995:5
	ldr	r1, [sp]
	movs	r0, #0
	.loc	5 995 33 is_stmt 0              @ ../Library/STM32F4xx_HAL_Driver/Src/stm32f4xx_hal_rcc.c:995:33
	str	r0, [r1, #4]
	b	.LBB10_5
.Ltmp253:
.LBB10_5:
	.loc	5 0 33                          @ ../Library/STM32F4xx_HAL_Driver/Src/stm32f4xx_hal_rcc.c:0:33
	b	.LBB10_6
.LBB10_6:
	movw	r0, #14336
	movt	r0, #16386
.Ltmp254:
	.loc	5 999 12 is_stmt 1              @ ../Library/STM32F4xx_HAL_Driver/Src/stm32f4xx_hal_rcc.c:999:12
	ldr	r0, [r0]
.Ltmp255:
	.loc	5 999 6 is_stmt 0               @ ../Library/STM32F4xx_HAL_Driver/Src/stm32f4xx_hal_rcc.c:999:6
	lsls	r0, r0, #31
	cbz	r0, .LBB10_8
	b	.LBB10_7
.LBB10_7:
.Ltmp256:
	.loc	5 1001 5 is_stmt 1              @ ../Library/STM32F4xx_HAL_Driver/Src/stm32f4xx_hal_rcc.c:1001:5
	ldr	r1, [sp]
	movs	r0, #1
	.loc	5 1001 33 is_stmt 0             @ ../Library/STM32F4xx_HAL_Driver/Src/stm32f4xx_hal_rcc.c:1001:33
	str	r0, [r1, #12]
	.loc	5 1002 3 is_stmt 1              @ ../Library/STM32F4xx_HAL_Driver/Src/stm32f4xx_hal_rcc.c:1002:3
	b	.LBB10_9
.Ltmp257:
.LBB10_8:
	.loc	5 1005 5                        @ ../Library/STM32F4xx_HAL_Driver/Src/stm32f4xx_hal_rcc.c:1005:5
	ldr	r1, [sp]
	movs	r0, #0
	.loc	5 1005 33 is_stmt 0             @ ../Library/STM32F4xx_HAL_Driver/Src/stm32f4xx_hal_rcc.c:1005:33
	str	r0, [r1, #12]
	b	.LBB10_9
.Ltmp258:
.LBB10_9:
	.loc	5 0 33                          @ ../Library/STM32F4xx_HAL_Driver/Src/stm32f4xx_hal_rcc.c:0:33
	movw	r0, #14336
	movt	r0, #16386
	.loc	5 1008 61 is_stmt 1             @ ../Library/STM32F4xx_HAL_Driver/Src/stm32f4xx_hal_rcc.c:1008:61
	ldr	r0, [r0]
	.loc	5 1008 64 is_stmt 0             @ ../Library/STM32F4xx_HAL_Driver/Src/stm32f4xx_hal_rcc.c:1008:64
	uxtb	r0, r0
	.loc	5 1008 81                       @ ../Library/STM32F4xx_HAL_Driver/Src/stm32f4xx_hal_rcc.c:1008:81
	lsrs	r0, r0, #3
	.loc	5 1008 3                        @ ../Library/STM32F4xx_HAL_Driver/Src/stm32f4xx_hal_rcc.c:1008:3
	ldr	r1, [sp]
	.loc	5 1008 42                       @ ../Library/STM32F4xx_HAL_Driver/Src/stm32f4xx_hal_rcc.c:1008:42
	str	r0, [r1, #16]
	movw	r0, #14448
	movt	r0, #16386
.Ltmp259:
	.loc	5 1011 12 is_stmt 1             @ ../Library/STM32F4xx_HAL_Driver/Src/stm32f4xx_hal_rcc.c:1011:12
	ldr	r0, [r0]
.Ltmp260:
	.loc	5 1011 6 is_stmt 0              @ ../Library/STM32F4xx_HAL_Driver/Src/stm32f4xx_hal_rcc.c:1011:6
	lsls	r0, r0, #29
	cmp	r0, #0
	bpl	.LBB10_11
	b	.LBB10_10
.LBB10_10:
.Ltmp261:
	.loc	5 1013 5 is_stmt 1              @ ../Library/STM32F4xx_HAL_Driver/Src/stm32f4xx_hal_rcc.c:1013:5
	ldr	r1, [sp]
	movs	r0, #5
	.loc	5 1013 33 is_stmt 0             @ ../Library/STM32F4xx_HAL_Driver/Src/stm32f4xx_hal_rcc.c:1013:33
	str	r0, [r1, #8]
	.loc	5 1014 3 is_stmt 1              @ ../Library/STM32F4xx_HAL_Driver/Src/stm32f4xx_hal_rcc.c:1014:3
	b	.LBB10_15
.Ltmp262:
.LBB10_11:
	.loc	5 0 3 is_stmt 0                 @ ../Library/STM32F4xx_HAL_Driver/Src/stm32f4xx_hal_rcc.c:0:3
	movw	r0, #14448
	movt	r0, #16386
.Ltmp263:
	.loc	5 1015 17 is_stmt 1             @ ../Library/STM32F4xx_HAL_Driver/Src/stm32f4xx_hal_rcc.c:1015:17
	ldr	r0, [r0]
.Ltmp264:
	.loc	5 1015 11 is_stmt 0             @ ../Library/STM32F4xx_HAL_Driver/Src/stm32f4xx_hal_rcc.c:1015:11
	lsls	r0, r0, #31
	cbz	r0, .LBB10_13
	b	.LBB10_12
.LBB10_12:
.Ltmp265:
	.loc	5 1017 5 is_stmt 1              @ ../Library/STM32F4xx_HAL_Driver/Src/stm32f4xx_hal_rcc.c:1017:5
	ldr	r1, [sp]
	movs	r0, #1
	.loc	5 1017 33 is_stmt 0             @ ../Library/STM32F4xx_HAL_Driver/Src/stm32f4xx_hal_rcc.c:1017:33
	str	r0, [r1, #8]
	.loc	5 1018 3 is_stmt 1              @ ../Library/STM32F4xx_HAL_Driver/Src/stm32f4xx_hal_rcc.c:1018:3
	b	.LBB10_14
.Ltmp266:
.LBB10_13:
	.loc	5 1021 5                        @ ../Library/STM32F4xx_HAL_Driver/Src/stm32f4xx_hal_rcc.c:1021:5
	ldr	r1, [sp]
	movs	r0, #0
	.loc	5 1021 33 is_stmt 0             @ ../Library/STM32F4xx_HAL_Driver/Src/stm32f4xx_hal_rcc.c:1021:33
	str	r0, [r1, #8]
	b	.LBB10_14
.Ltmp267:
.LBB10_14:
	.loc	5 0 33                          @ ../Library/STM32F4xx_HAL_Driver/Src/stm32f4xx_hal_rcc.c:0:33
	b	.LBB10_15
.LBB10_15:
	movw	r0, #14452
	movt	r0, #16386
.Ltmp268:
	.loc	5 1025 12 is_stmt 1             @ ../Library/STM32F4xx_HAL_Driver/Src/stm32f4xx_hal_rcc.c:1025:12
	ldr	r0, [r0]
.Ltmp269:
	.loc	5 1025 6 is_stmt 0              @ ../Library/STM32F4xx_HAL_Driver/Src/stm32f4xx_hal_rcc.c:1025:6
	lsls	r0, r0, #31
	cbz	r0, .LBB10_17
	b	.LBB10_16
.LBB10_16:
.Ltmp270:
	.loc	5 1027 5 is_stmt 1              @ ../Library/STM32F4xx_HAL_Driver/Src/stm32f4xx_hal_rcc.c:1027:5
	ldr	r1, [sp]
	movs	r0, #1
	.loc	5 1027 33 is_stmt 0             @ ../Library/STM32F4xx_HAL_Driver/Src/stm32f4xx_hal_rcc.c:1027:33
	str	r0, [r1, #20]
	.loc	5 1028 3 is_stmt 1              @ ../Library/STM32F4xx_HAL_Driver/Src/stm32f4xx_hal_rcc.c:1028:3
	b	.LBB10_18
.Ltmp271:
.LBB10_17:
	.loc	5 1031 5                        @ ../Library/STM32F4xx_HAL_Driver/Src/stm32f4xx_hal_rcc.c:1031:5
	ldr	r1, [sp]
	movs	r0, #0
	.loc	5 1031 33 is_stmt 0             @ ../Library/STM32F4xx_HAL_Driver/Src/stm32f4xx_hal_rcc.c:1031:33
	str	r0, [r1, #20]
	b	.LBB10_18
.Ltmp272:
.LBB10_18:
	.loc	5 0 33                          @ ../Library/STM32F4xx_HAL_Driver/Src/stm32f4xx_hal_rcc.c:0:33
	movw	r0, #14336
	movt	r0, #16386
.Ltmp273:
	.loc	5 1035 12 is_stmt 1             @ ../Library/STM32F4xx_HAL_Driver/Src/stm32f4xx_hal_rcc.c:1035:12
	ldr	r0, [r0]
.Ltmp274:
	.loc	5 1035 6 is_stmt 0              @ ../Library/STM32F4xx_HAL_Driver/Src/stm32f4xx_hal_rcc.c:1035:6
	lsls	r0, r0, #7
	cmp	r0, #0
	bpl	.LBB10_20
	b	.LBB10_19
.LBB10_19:
.Ltmp275:
	.loc	5 1037 5 is_stmt 1              @ ../Library/STM32F4xx_HAL_Driver/Src/stm32f4xx_hal_rcc.c:1037:5
	ldr	r1, [sp]
	movs	r0, #2
	.loc	5 1037 37 is_stmt 0             @ ../Library/STM32F4xx_HAL_Driver/Src/stm32f4xx_hal_rcc.c:1037:37
	str	r0, [r1, #24]
	.loc	5 1038 3 is_stmt 1              @ ../Library/STM32F4xx_HAL_Driver/Src/stm32f4xx_hal_rcc.c:1038:3
	b	.LBB10_21
.Ltmp276:
.LBB10_20:
	.loc	5 1041 5                        @ ../Library/STM32F4xx_HAL_Driver/Src/stm32f4xx_hal_rcc.c:1041:5
	ldr	r1, [sp]
	movs	r0, #1
	.loc	5 1041 37 is_stmt 0             @ ../Library/STM32F4xx_HAL_Driver/Src/stm32f4xx_hal_rcc.c:1041:37
	str	r0, [r1, #24]
	b	.LBB10_21
.Ltmp277:
.LBB10_21:
	.loc	5 0 37                          @ ../Library/STM32F4xx_HAL_Driver/Src/stm32f4xx_hal_rcc.c:0:37
	movw	r0, #14340
	movt	r0, #16386
	.loc	5 1043 54 is_stmt 1             @ ../Library/STM32F4xx_HAL_Driver/Src/stm32f4xx_hal_rcc.c:1043:54
	ldr	r1, [r0]
	.loc	5 1043 62 is_stmt 0             @ ../Library/STM32F4xx_HAL_Driver/Src/stm32f4xx_hal_rcc.c:1043:62
	and	r1, r1, #4194304
	.loc	5 1043 3                        @ ../Library/STM32F4xx_HAL_Driver/Src/stm32f4xx_hal_rcc.c:1043:3
	ldr	r2, [sp]
	.loc	5 1043 36                       @ ../Library/STM32F4xx_HAL_Driver/Src/stm32f4xx_hal_rcc.c:1043:36
	str	r1, [r2, #28]
	.loc	5 1044 49 is_stmt 1             @ ../Library/STM32F4xx_HAL_Driver/Src/stm32f4xx_hal_rcc.c:1044:49
	ldr	r1, [r0]
	.loc	5 1044 57 is_stmt 0             @ ../Library/STM32F4xx_HAL_Driver/Src/stm32f4xx_hal_rcc.c:1044:57
	and	r1, r1, #63
	.loc	5 1044 3                        @ ../Library/STM32F4xx_HAL_Driver/Src/stm32f4xx_hal_rcc.c:1044:3
	ldr	r2, [sp]
	.loc	5 1044 31                       @ ../Library/STM32F4xx_HAL_Driver/Src/stm32f4xx_hal_rcc.c:1044:31
	str	r1, [r2, #32]
	.loc	5 1045 50 is_stmt 1             @ ../Library/STM32F4xx_HAL_Driver/Src/stm32f4xx_hal_rcc.c:1045:50
	ldr	r1, [r0]
	.loc	5 1045 78 is_stmt 0             @ ../Library/STM32F4xx_HAL_Driver/Src/stm32f4xx_hal_rcc.c:1045:78
	ubfx	r1, r1, #6, #9
	.loc	5 1045 3                        @ ../Library/STM32F4xx_HAL_Driver/Src/stm32f4xx_hal_rcc.c:1045:3
	ldr	r2, [sp]
	.loc	5 1045 31                       @ ../Library/STM32F4xx_HAL_Driver/Src/stm32f4xx_hal_rcc.c:1045:31
	str	r1, [r2, #36]
	.loc	5 1046 52 is_stmt 1             @ ../Library/STM32F4xx_HAL_Driver/Src/stm32f4xx_hal_rcc.c:1046:52
	ldr	r1, [r0]
	.loc	5 1046 60 is_stmt 0             @ ../Library/STM32F4xx_HAL_Driver/Src/stm32f4xx_hal_rcc.c:1046:60
	and	r2, r1, #196608
	mov.w	r1, #131072
	.loc	5 1046 102                      @ ../Library/STM32F4xx_HAL_Driver/Src/stm32f4xx_hal_rcc.c:1046:102
	add.w	r1, r1, r2, lsl #1
	.loc	5 1046 109                      @ ../Library/STM32F4xx_HAL_Driver/Src/stm32f4xx_hal_rcc.c:1046:109
	lsrs	r1, r1, #16
	.loc	5 1046 3                        @ ../Library/STM32F4xx_HAL_Driver/Src/stm32f4xx_hal_rcc.c:1046:3
	ldr	r2, [sp]
	.loc	5 1046 31                       @ ../Library/STM32F4xx_HAL_Driver/Src/stm32f4xx_hal_rcc.c:1046:31
	str	r1, [r2, #40]
	.loc	5 1047 50 is_stmt 1             @ ../Library/STM32F4xx_HAL_Driver/Src/stm32f4xx_hal_rcc.c:1047:50
	ldr	r0, [r0]
	.loc	5 1047 78 is_stmt 0             @ ../Library/STM32F4xx_HAL_Driver/Src/stm32f4xx_hal_rcc.c:1047:78
	ubfx	r0, r0, #24, #4
	.loc	5 1047 3                        @ ../Library/STM32F4xx_HAL_Driver/Src/stm32f4xx_hal_rcc.c:1047:3
	ldr	r1, [sp]
	.loc	5 1047 31                       @ ../Library/STM32F4xx_HAL_Driver/Src/stm32f4xx_hal_rcc.c:1047:31
	str	r0, [r1, #44]
	.loc	5 1048 1 is_stmt 1              @ ../Library/STM32F4xx_HAL_Driver/Src/stm32f4xx_hal_rcc.c:1048:1
	add	sp, #4
	bx	lr
.Ltmp278:
.Lfunc_end10:
	.size	HAL_RCC_GetOscConfig, .Lfunc_end10-HAL_RCC_GetOscConfig
	.cfi_endproc
	.cantunwind
	.fnend
                                        @ -- End function
	.section	.text.HAL_RCC_GetClockConfig,"ax",%progbits
	.hidden	HAL_RCC_GetClockConfig          @ -- Begin function HAL_RCC_GetClockConfig
	.globl	HAL_RCC_GetClockConfig
	.p2align	2
	.type	HAL_RCC_GetClockConfig,%function
	.code	16                              @ @HAL_RCC_GetClockConfig
	.thumb_func
HAL_RCC_GetClockConfig:
.Lfunc_begin11:
	.loc	5 1059 0                        @ ../Library/STM32F4xx_HAL_Driver/Src/stm32f4xx_hal_rcc.c:1059:0
	.fnstart
	.cfi_startproc
@ %bb.0:
	.pad	#8
	sub	sp, #8
	.cfi_def_cfa_offset 8
	str	r0, [sp, #4]
	str	r1, [sp]
.Ltmp279:
	.loc	5 1061 3 prologue_end           @ ../Library/STM32F4xx_HAL_Driver/Src/stm32f4xx_hal_rcc.c:1061:3
	ldr	r1, [sp, #4]
	movs	r0, #15
	.loc	5 1061 32 is_stmt 0             @ ../Library/STM32F4xx_HAL_Driver/Src/stm32f4xx_hal_rcc.c:1061:32
	str	r0, [r1]
	movw	r0, #14344
	movt	r0, #16386
	.loc	5 1064 53 is_stmt 1             @ ../Library/STM32F4xx_HAL_Driver/Src/stm32f4xx_hal_rcc.c:1064:53
	ldr	r1, [r0]
	.loc	5 1064 58 is_stmt 0             @ ../Library/STM32F4xx_HAL_Driver/Src/stm32f4xx_hal_rcc.c:1064:58
	and	r1, r1, #3
	.loc	5 1064 3                        @ ../Library/STM32F4xx_HAL_Driver/Src/stm32f4xx_hal_rcc.c:1064:3
	ldr	r2, [sp, #4]
	.loc	5 1064 35                       @ ../Library/STM32F4xx_HAL_Driver/Src/stm32f4xx_hal_rcc.c:1064:35
	str	r1, [r2, #4]
	.loc	5 1067 54 is_stmt 1             @ ../Library/STM32F4xx_HAL_Driver/Src/stm32f4xx_hal_rcc.c:1067:54
	ldr	r1, [r0]
	.loc	5 1067 59 is_stmt 0             @ ../Library/STM32F4xx_HAL_Driver/Src/stm32f4xx_hal_rcc.c:1067:59
	and	r1, r1, #240
	.loc	5 1067 3                        @ ../Library/STM32F4xx_HAL_Driver/Src/stm32f4xx_hal_rcc.c:1067:3
	ldr	r2, [sp, #4]
	.loc	5 1067 36                       @ ../Library/STM32F4xx_HAL_Driver/Src/stm32f4xx_hal_rcc.c:1067:36
	str	r1, [r2, #8]
	.loc	5 1070 55 is_stmt 1             @ ../Library/STM32F4xx_HAL_Driver/Src/stm32f4xx_hal_rcc.c:1070:55
	ldr	r1, [r0]
	.loc	5 1070 60 is_stmt 0             @ ../Library/STM32F4xx_HAL_Driver/Src/stm32f4xx_hal_rcc.c:1070:60
	and	r1, r1, #7168
	.loc	5 1070 3                        @ ../Library/STM32F4xx_HAL_Driver/Src/stm32f4xx_hal_rcc.c:1070:3
	ldr	r2, [sp, #4]
	.loc	5 1070 37                       @ ../Library/STM32F4xx_HAL_Driver/Src/stm32f4xx_hal_rcc.c:1070:37
	str	r1, [r2, #12]
	.loc	5 1073 56 is_stmt 1             @ ../Library/STM32F4xx_HAL_Driver/Src/stm32f4xx_hal_rcc.c:1073:56
	ldr	r0, [r0]
	.loc	5 1073 61 is_stmt 0             @ ../Library/STM32F4xx_HAL_Driver/Src/stm32f4xx_hal_rcc.c:1073:61
	and	r0, r0, #57344
	.loc	5 1073 79                       @ ../Library/STM32F4xx_HAL_Driver/Src/stm32f4xx_hal_rcc.c:1073:79
	lsrs	r0, r0, #3
	.loc	5 1073 3                        @ ../Library/STM32F4xx_HAL_Driver/Src/stm32f4xx_hal_rcc.c:1073:3
	ldr	r1, [sp, #4]
	.loc	5 1073 37                       @ ../Library/STM32F4xx_HAL_Driver/Src/stm32f4xx_hal_rcc.c:1073:37
	str	r0, [r1, #16]
	movw	r0, #15360
	movt	r0, #16386
	.loc	5 1076 34 is_stmt 1             @ ../Library/STM32F4xx_HAL_Driver/Src/stm32f4xx_hal_rcc.c:1076:34
	ldr	r0, [r0]
	.loc	5 1076 38 is_stmt 0             @ ../Library/STM32F4xx_HAL_Driver/Src/stm32f4xx_hal_rcc.c:1076:38
	and	r0, r0, #15
	.loc	5 1076 4                        @ ../Library/STM32F4xx_HAL_Driver/Src/stm32f4xx_hal_rcc.c:1076:4
	ldr	r1, [sp]
	.loc	5 1076 14                       @ ../Library/STM32F4xx_HAL_Driver/Src/stm32f4xx_hal_rcc.c:1076:14
	str	r0, [r1]
	.loc	5 1077 1 is_stmt 1              @ ../Library/STM32F4xx_HAL_Driver/Src/stm32f4xx_hal_rcc.c:1077:1
	add	sp, #8
	bx	lr
.Ltmp280:
.Lfunc_end11:
	.size	HAL_RCC_GetClockConfig, .Lfunc_end11-HAL_RCC_GetClockConfig
	.cfi_endproc
	.cantunwind
	.fnend
                                        @ -- End function
	.section	.text.HAL_RCC_NMI_IRQHandler,"ax",%progbits
	.hidden	HAL_RCC_NMI_IRQHandler          @ -- Begin function HAL_RCC_NMI_IRQHandler
	.globl	HAL_RCC_NMI_IRQHandler
	.p2align	2
	.type	HAL_RCC_NMI_IRQHandler,%function
	.code	16                              @ @HAL_RCC_NMI_IRQHandler
	.thumb_func
HAL_RCC_NMI_IRQHandler:
.Lfunc_begin12:
	.loc	5 1085 0                        @ ../Library/STM32F4xx_HAL_Driver/Src/stm32f4xx_hal_rcc.c:1085:0
	.fnstart
	.cfi_startproc
@ %bb.0:
	.save	{r7, lr}
	push	{r7, lr}
	.cfi_def_cfa_offset 8
	.cfi_offset lr, -4
	.cfi_offset r7, -8
	movw	r0, #14348
	movt	r0, #16386
.Ltmp281:
	.loc	5 1087 6 prologue_end           @ ../Library/STM32F4xx_HAL_Driver/Src/stm32f4xx_hal_rcc.c:1087:6
	ldr	r0, [r0]
.Ltmp282:
	.loc	5 1087 6 is_stmt 0              @ ../Library/STM32F4xx_HAL_Driver/Src/stm32f4xx_hal_rcc.c:1087:6
	lsls	r0, r0, #24
	cmp	r0, #0
	bpl	.LBB12_2
	b	.LBB12_1
.LBB12_1:
.Ltmp283:
	.loc	5 1090 5 is_stmt 1              @ ../Library/STM32F4xx_HAL_Driver/Src/stm32f4xx_hal_rcc.c:1090:5
	bl	HAL_RCC_CSSCallback
	movw	r1, #14350
	movt	r1, #16386
	movs	r0, #128
	.loc	5 1093 5                        @ ../Library/STM32F4xx_HAL_Driver/Src/stm32f4xx_hal_rcc.c:1093:5
	strb	r0, [r1]
	.loc	5 1094 3                        @ ../Library/STM32F4xx_HAL_Driver/Src/stm32f4xx_hal_rcc.c:1094:3
	b	.LBB12_2
.Ltmp284:
.LBB12_2:
	.loc	5 1095 1                        @ ../Library/STM32F4xx_HAL_Driver/Src/stm32f4xx_hal_rcc.c:1095:1
	pop	{r7, pc}
.Ltmp285:
.Lfunc_end12:
	.size	HAL_RCC_NMI_IRQHandler, .Lfunc_end12-HAL_RCC_NMI_IRQHandler
	.cfi_endproc
	.cantunwind
	.fnend
                                        @ -- End function
	.section	.text.HAL_RCC_CSSCallback,"ax",%progbits
	.hidden	HAL_RCC_CSSCallback             @ -- Begin function HAL_RCC_CSSCallback
	.weak	HAL_RCC_CSSCallback
	.p2align	2
	.type	HAL_RCC_CSSCallback,%function
	.code	16                              @ @HAL_RCC_CSSCallback
	.thumb_func
HAL_RCC_CSSCallback:
.Lfunc_begin13:
	.loc	5 1102 0                        @ ../Library/STM32F4xx_HAL_Driver/Src/stm32f4xx_hal_rcc.c:1102:0
	.fnstart
	.cfi_startproc
@ %bb.0:
	.loc	5 1106 1 prologue_end           @ ../Library/STM32F4xx_HAL_Driver/Src/stm32f4xx_hal_rcc.c:1106:1
	bx	lr
.Ltmp286:
.Lfunc_end13:
	.size	HAL_RCC_CSSCallback, .Lfunc_end13-HAL_RCC_CSSCallback
	.cfi_endproc
	.cantunwind
	.fnend
                                        @ -- End function
	.file	6 "C:\\Users\\Hyacincher\\Desktop\\HyTelectrl\\Code\\Project" "../Library/STM32F4xx_HAL_Driver/Inc\\stm32f4xx_hal_rcc.h"
	.file	7 "C:\\Users\\Hyacincher\\Desktop\\HyTelectrl\\Code\\Project" "../Library/STM32F4xx_HAL_Driver/Inc/stm32f4xx_hal_rcc_ex.h"
	.file	8 "C:\\Users\\Hyacincher\\Desktop\\HyTelectrl\\Code\\Project" "../Library/STM32F4xx_HAL_Driver/Inc\\stm32f4xx_hal_gpio.h"
	.section	".note.GNU-stack","",%progbits
	.eabi_attribute	30, 6	@ Tag_ABI_optimization_goals
	.ARM_attribute	16, 1	@ Tag_AV_eba