	.text
	.syntax unified
	.eabi_attribute	67, "2.09"	@ Tag_conformance
	.cpu	cortex-m4
	.eabi_attribute	6, 13	@ Tag_CPU_arch
	.eabi_attribute	7, 77	@ Tag_CPU_arch_profile
	.eabi_attribute	8, 0	@ Tag_ARM_ISA_use
	.eabi_attribute	9, 2	@ Tag_THUMB_ISA_use
	.fpu	fpv4-sp-d16
	.eabi_attribute	27, 1	@ Tag_ABI_HardFP_use
	.eabi_attribute	36, 1	@ Tag_FP_HP_extension
	.eabi_attribute	34, 1	@ Tag_CPU_unaligned_access
	.eabi_attribute	17, 1	@ Tag_ABI_PCS_GOT_use
	.eabi_attribute	20, 2	@ Tag_ABI_FP_denormal
	.eabi_attribute	21, 0	@ Tag_ABI_FP_exceptions
	.eabi_attribute	23, 1	@ Tag_ABI_FP_number_model
	.eabi_attribute	24, 1	@ Tag_ABI_align_needed
	.eabi_attribute	25, 1	@ Tag_ABI_align_preserved
	.eabi_attribute	28, 1	@ Tag_ABI_VFP_args
	.eabi_attribute	38, 1	@ Tag_ABI_FP_16bit_format
	.eabi_attribute	18, 2	@ Tag_ABI_PCS_wchar_t
	.eabi_attribute	26, 1	@ Tag_ABI_enum_size
	.eabi_attribute	14, 0	@ Tag_ABI_PCS_R9_use
	.file	"stm32f4xx_hal_uart.c"
	.file	1 "C:\\Users\\Hyacincher\\Desktop\\HyTelectrl\\Code\\Project" "../Library/STM32F4xx_HAL_Driver/Inc/stm32f4xx_hal_def.h"
	.file	2 "C:\\Users\\Hyacincher\\Desktop\\HyTelectrl\\Code\\Project" "../Library/STM32F4xx_HAL_Driver/Inc\\stm32f4xx_hal_dma.h"
	.file	3 "C:\\Users\\Hyacincher\\Desktop\\HyTelectrl\\Code\\Project" "../Library/STM32F4xx_HAL_Driver/Inc\\stm32f4xx_hal_uart.h"
	.file	4 "C:\\Users\\Hyacincher\\Desktop\\HyTelectrl\\Code\\Project" "../Library/CMSIS\\stm32f4xx.h"
	.file	5 "D:\\Keil MDK\\ARM\\ARMCLANG\\Bin\\..\\include" "stdint.h"
	.file	6 "C:\\Users\\Hyacincher\\Desktop\\HyTelectrl\\Code\\Project" "../Library/CMSIS/stm32f429xx.h"
	.section	.text.HAL_UART_Init,"ax",%progbits
	.hidden	HAL_UART_Init                   @ -- Begin function HAL_UART_Init
	.globl	HAL_UART_Init
	.p2align	2
	.type	HAL_UART_Init,%function
	.code	16                              @ @HAL_UART_Init
	.thumb_func
HAL_UART_Init:
.Lfunc_begin0:
	.file	7 "C:\\Users\\Hyacincher\\Desktop\\HyTelectrl\\Code\\Project" "../Library/STM32F4xx_HAL_Driver/Src/stm32f4xx_hal_uart.c"
	.loc	7 357 0                         @ ../Library/STM32F4xx_HAL_Driver/Src/stm32f4xx_hal_uart.c:357:0
	.fnstart
	.cfi_sections .debug_frame
	.cfi_startproc
@ %bb.0:
	.save	{r7, lr}
	push	{r7, lr}
	.cfi_def_cfa_offset 8
	.cfi_offset lr, -4
	.cfi_offset r7, -8
	.pad	#8
	sub	sp, #8
	.cfi_def_cfa_offset 16
	str	r0, [sp]
.Ltmp0:
	.loc	7 359 7 prologue_end            @ ../Library/STM32F4xx_HAL_Driver/Src/stm32f4xx_hal_uart.c:359:7
	ldr	r0, [sp]
.Ltmp1:
	.loc	7 359 7 is_stmt 0               @ ../Library/STM32F4xx_HAL_Driver/Src/stm32f4xx_hal_uart.c:359:7
	cbnz	r0, .LBB0_2
	b	.LBB0_1
.LBB0_1:
	.loc	7 0 7                           @ ../Library/STM32F4xx_HAL_Driver/Src/stm32f4xx_hal_uart.c:0:7
	movs	r0, #1
.Ltmp2:
	.loc	7 361 5 is_stmt 1               @ ../Library/STM32F4xx_HAL_Driver/Src/stm32f4xx_hal_uart.c:361:5
	strb.w	r0, [sp, #7]
	b	.LBB0_8
.Ltmp3:
.LBB0_2:
	.loc	7 365 7                         @ ../Library/STM32F4xx_HAL_Driver/Src/stm32f4xx_hal_uart.c:365:7
	ldr	r0, [sp]
	.loc	7 365 19 is_stmt 0              @ ../Library/STM32F4xx_HAL_Driver/Src/stm32f4xx_hal_uart.c:365:19
	ldr	r0, [r0, #24]
.Ltmp4:
	.loc	7 365 7                         @ ../Library/STM32F4xx_HAL_Driver/Src/stm32f4xx_hal_uart.c:365:7
	cbz	r0, .LBB0_4
	b	.LBB0_3
.LBB0_3:
.Ltmp5:
	.loc	7 372 3 is_stmt 1               @ ../Library/STM32F4xx_HAL_Driver/Src/stm32f4xx_hal_uart.c:372:3
	b	.LBB0_5
.Ltmp6:
.LBB0_4:
	.loc	7 0 3 is_stmt 0                 @ ../Library/STM32F4xx_HAL_Driver/Src/stm32f4xx_hal_uart.c:0:3
	b	.LBB0_5
.LBB0_5:
.Ltmp7:
	.loc	7 380 7 is_stmt 1               @ ../Library/STM32F4xx_HAL_Driver/Src/stm32f4xx_hal_uart.c:380:7
	ldr	r0, [sp]
	.loc	7 380 14 is_stmt 0              @ ../Library/STM32F4xx_HAL_Driver/Src/stm32f4xx_hal_uart.c:380:14
	ldrb.w	r0, [r0, #61]
.Ltmp8:
	.loc	7 380 7                         @ ../Library/STM32F4xx_HAL_Driver/Src/stm32f4xx_hal_uart.c:380:7
	cbnz	r0, .LBB0_7
	b	.LBB0_6
.LBB0_6:
.Ltmp9:
	.loc	7 383 5 is_stmt 1               @ ../Library/STM32F4xx_HAL_Driver/Src/stm32f4xx_hal_uart.c:383:5
	ldr	r1, [sp]
	movs	r0, #0
	.loc	7 383 17 is_stmt 0              @ ../Library/STM32F4xx_HAL_Driver/Src/stm32f4xx_hal_uart.c:383:17
	strb.w	r0, [r1, #60]
	.loc	7 397 22 is_stmt 1              @ ../Library/STM32F4xx_HAL_Driver/Src/stm32f4xx_hal_uart.c:397:22
	ldr	r0, [sp]
	.loc	7 397 5 is_stmt 0               @ ../Library/STM32F4xx_HAL_Driver/Src/stm32f4xx_hal_uart.c:397:5
	bl	HAL_UART_MspInit
	.loc	7 399 3 is_stmt 1               @ ../Library/STM32F4xx_HAL_Driver/Src/stm32f4xx_hal_uart.c:399:3
	b	.LBB0_7
.Ltmp10:
.LBB0_7:
	.loc	7 401 3                         @ ../Library/STM32F4xx_HAL_Driver/Src/stm32f4xx_hal_uart.c:401:3
	ldr	r1, [sp]
	movs	r0, #36
	.loc	7 401 17 is_stmt 0              @ ../Library/STM32F4xx_HAL_Driver/Src/stm32f4xx_hal_uart.c:401:17
	strb.w	r0, [r1, #61]
	.loc	7 404 3 is_stmt 1               @ ../Library/STM32F4xx_HAL_Driver/Src/stm32f4xx_hal_uart.c:404:3
	ldr	r0, [sp]
	ldr	r1, [r0]
	ldr	r0, [r1, #12]
	bic	r0, r0, #8192
	str	r0, [r1, #12]
	.loc	7 407 18                        @ ../Library/STM32F4xx_HAL_Driver/Src/stm32f4xx_hal_uart.c:407:18
	ldr	r0, [sp]
	.loc	7 407 3 is_stmt 0               @ ../Library/STM32F4xx_HAL_Driver/Src/stm32f4xx_hal_uart.c:407:3
	bl	UART_SetConfig
	.loc	7 412 3 is_stmt 1               @ ../Library/STM32F4xx_HAL_Driver/Src/stm32f4xx_hal_uart.c:412:3
	ldr	r0, [sp]
	ldr	r1, [r0]
	ldr	r0, [r1, #16]
	bic	r0, r0, #18432
	str	r0, [r1, #16]
	.loc	7 413 3                         @ ../Library/STM32F4xx_HAL_Driver/Src/stm32f4xx_hal_uart.c:413:3
	ldr	r0, [sp]
	ldr	r1, [r0]
	ldr	r0, [r1, #20]
	bic	r0, r0, #42
	str	r0, [r1, #20]
	.loc	7 416 3                         @ ../Library/STM32F4xx_HAL_Driver/Src/stm32f4xx_hal_uart.c:416:3
	ldr	r0, [sp]
	ldr	r1, [r0]
	ldr	r0, [r1, #12]
	orr	r0, r0, #8192
	str	r0, [r1, #12]
	.loc	7 419 3                         @ ../Library/STM32F4xx_HAL_Driver/Src/stm32f4xx_hal_uart.c:419:3
	ldr	r1, [sp]
	movs	r0, #0
	.loc	7 419 20 is_stmt 0              @ ../Library/STM32F4xx_HAL_Driver/Src/stm32f4xx_hal_uart.c:419:20
	str	r0, [r1, #64]
	.loc	7 420 3 is_stmt 1               @ ../Library/STM32F4xx_HAL_Driver/Src/stm32f4xx_hal_uart.c:420:3
	ldr	r2, [sp]
	movs	r1, #32
	.loc	7 420 17 is_stmt 0              @ ../Library/STM32F4xx_HAL_Driver/Src/stm32f4xx_hal_uart.c:420:17
	strb.w	r1, [r2, #61]
	.loc	7 421 3 is_stmt 1               @ ../Library/STM32F4xx_HAL_Driver/Src/stm32f4xx_hal_uart.c:421:3
	ldr	r2, [sp]
	.loc	7 421 18 is_stmt 0              @ ../Library/STM32F4xx_HAL_Driver/Src/stm32f4xx_hal_uart.c:421:18
	strb.w	r1, [r2, #62]
	.loc	7 423 3 is_stmt 1               @ ../Library/STM32F4xx_HAL_Driver/Src/stm32f4xx_hal_uart.c:423:3
	strb.w	r0, [sp, #7]
	b	.LBB0_8
.LBB0_8:
	.loc	7 424 1                         @ ../Library/STM32F4xx_HAL_Driver/Src/stm32f4xx_hal_uart.c:424:1
	ldrb.w	r0, [sp, #7]
	add	sp, #8
	pop	{r7, pc}
.Ltmp11:
.Lfunc_end0:
	.size	HAL_UART_Init, .Lfunc_end0-HAL_UART_Init
	.cfi_endproc
	.cantunwind
	.fnend
                                        @ -- End function
	.section	.text.HAL_UART_MspInit,"ax",%progbits
	.hidden	HAL_UART_MspInit                @ -- Begin function HAL_UART_MspInit
	.weak	HAL_UART_MspInit
	.p2align	2
	.type	HAL_UART_MspInit,%function
	.code	16                              @ @HAL_UART_MspInit
	.thumb_func
HAL_UART_MspInit:
.Lfunc_begin1:
	.loc	7 710 0                         @ ../Library/STM32F4xx_HAL_Driver/Src/stm32f4xx_hal_uart.c:710:0
	.fnstart
	.cfi_startproc
@ %bb.0:
	.pad	#4
	sub	sp, #4
	.cfi_def_cfa_offset 4
	str	r0, [sp]
.Ltmp12:
	.loc	7 716 1 prologue_end            @ ../Library/STM32F4xx_HAL_Driver/Src/stm32f4xx_hal_uart.c:716:1
	add	sp, #4
	bx	lr
.Ltmp13:
.Lfunc_end1:
	.size	HAL_UART_MspInit, .Lfunc_end1-HAL_UART_MspInit
	.cfi_endproc
	.cantunwind
	.fnend
                                        @ -- End function
	.section	.text.UART_SetConfig,"ax",%progbits
	.p2align	2                               @ -- Begin function UART_SetConfig
	.type	UART_SetConfig,%function
	.code	16                              @ @UART_SetConfig
	.thumb_func
UART_SetConfig:
.Lfunc_begin2:
	.loc	7 3665 0                        @ ../Library/STM32F4xx_HAL_Driver/Src/stm32f4xx_hal_uart.c:3665:0
	.fnstart
	.cfi_startproc
@ %bb.0:
	.save	{r7, lr}
	push	{r7, lr}
	.cfi_def_cfa_offset 8
	.cfi_offset lr, -4
	.cfi_offset r7, -8
	.pad	#24
	sub	sp, #24
	.cfi_def_cfa_offset 32
	str	r0, [sp, #20]
.Ltmp14:
	.loc	7 3678 3 prologue_end           @ ../Library/STM32F4xx_HAL_Driver/Src/stm32f4xx_hal_uart.c:3678:3
	ldr	r0, [sp, #20]
	ldr	r0, [r0]
	ldr	r0, [r0, #16]
	bic	r0, r0, #12288
	ldr	r2, [sp, #20]
	ldr	r1, [r2]
	ldr	r2, [r2, #12]
	orrs	r0, r2
	str	r0, [r1, #16]
	.loc	7 3687 22                       @ ../Library/STM32F4xx_HAL_Driver/Src/stm32f4xx_hal_uart.c:3687:22
	ldr	r1, [sp, #20]
	.loc	7 3687 34 is_stmt 0             @ ../Library/STM32F4xx_HAL_Driver/Src/stm32f4xx_hal_uart.c:3687:34
	ldr	r0, [r1, #8]
	.loc	7 3687 59                       @ ../Library/STM32F4xx_HAL_Driver/Src/stm32f4xx_hal_uart.c:3687:59
	ldr	r3, [r1, #16]
	.loc	7 3687 80                       @ ../Library/STM32F4xx_HAL_Driver/Src/stm32f4xx_hal_uart.c:3687:80
	ldr	r2, [r1, #20]
	.loc	7 3687 99                       @ ../Library/STM32F4xx_HAL_Driver/Src/stm32f4xx_hal_uart.c:3687:99
	ldr	r1, [r1, #28]
	.loc	7 3687 45                       @ ../Library/STM32F4xx_HAL_Driver/Src/stm32f4xx_hal_uart.c:3687:45
	orrs	r0, r3
	.loc	7 3687 66                       @ ../Library/STM32F4xx_HAL_Driver/Src/stm32f4xx_hal_uart.c:3687:66
	orrs	r0, r2
	.loc	7 3687 85                       @ ../Library/STM32F4xx_HAL_Driver/Src/stm32f4xx_hal_uart.c:3687:85
	orrs	r0, r1
	.loc	7 3687 10                       @ ../Library/STM32F4xx_HAL_Driver/Src/stm32f4xx_hal_uart.c:3687:10
	str	r0, [sp, #16]
	.loc	7 3688 3 is_stmt 1              @ ../Library/STM32F4xx_HAL_Driver/Src/stm32f4xx_hal_uart.c:3688:3
	ldr	r0, [sp, #20]
	ldr	r0, [r0]
	ldr	r0, [r0, #12]
	movw	r1, #38412
	bics	r0, r1
	ldr	r1, [sp, #16]
	orrs	r0, r1
	ldr	r1, [sp, #20]
	ldr	r1, [r1]
	str	r0, [r1, #12]
	.loc	7 3694 3                        @ ../Library/STM32F4xx_HAL_Driver/Src/stm32f4xx_hal_uart.c:3694:3
	ldr	r0, [sp, #20]
	ldr	r0, [r0]
	ldr	r0, [r0, #20]
	bic	r0, r0, #768
	ldr	r2, [sp, #20]
	ldr	r1, [r2]
	ldr	r2, [r2, #24]
	orrs	r0, r2
	str	r0, [r1, #20]
.Ltmp15:
	.loc	7 3703 10                       @ ../Library/STM32F4xx_HAL_Driver/Src/stm32f4xx_hal_uart.c:3703:10
	ldr	r0, [sp, #20]
	.loc	7 3703 17 is_stmt 0             @ ../Library/STM32F4xx_HAL_Driver/Src/stm32f4xx_hal_uart.c:3703:17
	ldr	r0, [r0]
	movw	r1, #4096
	movt	r1, #16385
	.loc	7 3703 37                       @ ../Library/STM32F4xx_HAL_Driver/Src/stm32f4xx_hal_uart.c:3703:37
	cmp	r0, r1
	beq	.LBB2_2
	b	.LBB2_1
.LBB2_1:
	.loc	7 3703 41                       @ ../Library/STM32F4xx_HAL_Driver/Src/stm32f4xx_hal_uart.c:3703:41
	ldr	r0, [sp, #20]
	.loc	7 3703 48                       @ ../Library/STM32F4xx_HAL_Driver/Src/stm32f4xx_hal_uart.c:3703:48
	ldr	r0, [r0]
	movw	r1, #5120
	movt	r1, #16385
.Ltmp16:
	.loc	7 3703 9                        @ ../Library/STM32F4xx_HAL_Driver/Src/stm32f4xx_hal_uart.c:3703:9
	cmp	r0, r1
	bne	.LBB2_3
	b	.LBB2_2
.LBB2_2:
.Ltmp17:
	.loc	7 3705 14 is_stmt 1             @ ../Library/STM32F4xx_HAL_Driver/Src/stm32f4xx_hal_uart.c:3705:14
	bl	HAL_RCC_GetPCLK2Freq
	.loc	7 3705 12 is_stmt 0             @ ../Library/STM32F4xx_HAL_Driver/Src/stm32f4xx_hal_uart.c:3705:12
	str	r0, [sp, #12]
	.loc	7 3706 5 is_stmt 1              @ ../Library/STM32F4xx_HAL_Driver/Src/stm32f4xx_hal_uart.c:3706:5
	b	.LBB2_4
.Ltmp18:
.LBB2_3:
	.loc	7 3715 14                       @ ../Library/STM32F4xx_HAL_Driver/Src/stm32f4xx_hal_uart.c:3715:14
	bl	HAL_RCC_GetPCLK1Freq
	.loc	7 3715 12 is_stmt 0             @ ../Library/STM32F4xx_HAL_Driver/Src/stm32f4xx_hal_uart.c:3715:12
	str	r0, [sp, #12]
	b	.LBB2_4
.Ltmp19:
.LBB2_4:
	.loc	7 3718 7 is_stmt 1              @ ../Library/STM32F4xx_HAL_Driver/Src/stm32f4xx_hal_uart.c:3718:7
	ldr	r0, [sp, #20]
	.loc	7 3718 19 is_stmt 0             @ ../Library/STM32F4xx_HAL_Driver/Src/stm32f4xx_hal_uart.c:3718:19
	ldr	r0, [r0, #28]
.Ltmp20:
	.loc	7 3718 7                        @ ../Library/STM32F4xx_HAL_Driver/Src/stm32f4xx_hal_uart.c:3718:7
	cmp.w	r0, #32768
	bne	.LBB2_6
	b	.LBB2_5
.LBB2_5:
.Ltmp21:
	.loc	7 3720 28 is_stmt 1             @ ../Library/STM32F4xx_HAL_Driver/Src/stm32f4xx_hal_uart.c:3720:28
	ldr	r0, [sp, #12]
	movs	r1, #25
	umull	r0, r1, r0, r1
	ldr	r2, [sp, #20]
	.loc	7 3720 12 is_stmt 0             @ ../Library/STM32F4xx_HAL_Driver/Src/stm32f4xx_hal_uart.c:3720:12
	ldr	r3, [r2]
	.loc	7 3720 28                       @ ../Library/STM32F4xx_HAL_Driver/Src/stm32f4xx_hal_uart.c:3720:28
	str	r3, [sp, #8]                    @ 4-byte Spill
	ldr	r3, [r2, #4]
	lsls	r2, r3, #1
	lsrs	r3, r3, #31
	bl	__aeabi_uldivmod
	ldr	r1, [sp, #8]                    @ 4-byte Reload
	mov	lr, r0
	movw	r3, #34079
	movt	r3, #20971
	umull	r2, r0, lr, r3
	lsrs	r2, r0, #5
	lsls	r0, r2, #4
	mov.w	r12, #100
	mls	r12, r2, r12, lr
	movs	r2, #50
	add.w	r2, r2, r12, lsl #3
	umull	r3, r2, r2, r3
	movs	r3, #248
	and.w	r3, r3, r2, lsr #5
	add.w	r0, r0, r3, lsl #1
	ubfx	r2, r2, #5, #3
	add	r0, r2
	.loc	7 3720 26                       @ ../Library/STM32F4xx_HAL_Driver/Src/stm32f4xx_hal_uart.c:3720:26
	str	r0, [r1, #8]
	.loc	7 3721 3 is_stmt 1              @ ../Library/STM32F4xx_HAL_Driver/Src/stm32f4xx_hal_uart.c:3721:3
	b	.LBB2_7
.Ltmp22:
.LBB2_6:
	.loc	7 3724 28                       @ ../Library/STM32F4xx_HAL_Driver/Src/stm32f4xx_hal_uart.c:3724:28
	ldr	r0, [sp, #12]
	movs	r1, #25
	umull	r0, r1, r0, r1
	ldr	r2, [sp, #20]
	.loc	7 3724 12 is_stmt 0             @ ../Library/STM32F4xx_HAL_Driver/Src/stm32f4xx_hal_uart.c:3724:12
	ldr	r3, [r2]
	.loc	7 3724 28                       @ ../Library/STM32F4xx_HAL_Driver/Src/stm32f4xx_hal_uart.c:3724:28
	str	r3, [sp, #4]                    @ 4-byte Spill
	ldr	r3, [r2, #4]
	lsls	r2, r3, #2
	lsrs	r3, r3, #30
	bl	__aeabi_uldivmod
	ldr	r1, [sp, #4]                    @ 4-byte Reload
	mov	r12, r0
	movw	r2, #34079
	movt	r2, #20971
	umull	r3, r0, r12, r2
	lsrs	r3, r0, #5
	movs	r0, #100
	mls	r12, r3, r0, r12
	movs	r0, #50
	add.w	r0, r0, r12, lsl #4
	umull	r0, r2, r0, r2
	movs	r0, #240
	and.w	r0, r0, r2, lsr #5
	add.w	r0, r0, r3, lsl #4
	ubfx	r2, r2, #5, #4
	add	r0, r2
	.loc	7 3724 26                       @ ../Library/STM32F4xx_HAL_Driver/Src/stm32f4xx_hal_uart.c:3724:26
	str	r0, [r1, #8]
	b	.LBB2_7
.Ltmp23:
.LBB2_7:
	.loc	7 3726 1 is_stmt 1              @ ../Library/STM32F4xx_HAL_Driver/Src/stm32f4xx_hal_uart.c:3726:1
	add	sp, #24
	pop	{r7, pc}
.Ltmp24:
.Lfunc_end2:
	.size	UART_SetConfig, .Lfunc_end2-UART_SetConfig
	.cfi_endproc
	.cantunwind
	.fnend
                                        @ -- End function
	.section	.text.HAL_HalfDuplex_Init,"ax",%progbits
	.hidden	HAL_HalfDuplex_Init             @ -- Begin function HAL_HalfDuplex_Init
	.globl	HAL_HalfDuplex_Init
	.p2align	2
	.type	HAL_HalfDuplex_Init,%function
	.code	16                              @ @HAL_HalfDuplex_Init
	.thumb_func
HAL_HalfDuplex_Init:
.Lfunc_begin3:
	.loc	7 434 0                         @ ../Library/STM32F4xx_HAL_Driver/Src/stm32f4xx_hal_uart.c:434:0
	.fnstart
	.cfi_startproc
@ %bb.0:
	.save	{r7, lr}
	push	{r7, lr}
	.cfi_def_cfa_offset 8
	.cfi_offset lr, -4
	.cfi_offset r7, -8
	.pad	#8
	sub	sp, #8
	.cfi_def_cfa_offset 16
	str	r0, [sp]
.Ltmp25:
	.loc	7 436 7 prologue_end            @ ../Library/STM32F4xx_HAL_Driver/Src/stm32f4xx_hal_uart.c:436:7
	ldr	r0, [sp]
.Ltmp26:
	.loc	7 436 7 is_stmt 0               @ ../Library/STM32F4xx_HAL_Driver/Src/stm32f4xx_hal_uart.c:436:7
	cbnz	r0, .LBB3_2
	b	.LBB3_1
.LBB3_1:
	.loc	7 0 7                           @ ../Library/STM32F4xx_HAL_Driver/Src/stm32f4xx_hal_uart.c:0:7
	movs	r0, #1
.Ltmp27:
	.loc	7 438 5 is_stmt 1               @ ../Library/STM32F4xx_HAL_Driver/Src/stm32f4xx_hal_uart.c:438:5
	strb.w	r0, [sp, #7]
	b	.LBB3_5
.Ltmp28:
.LBB3_2:
	.loc	7 446 7                         @ ../Library/STM32F4xx_HAL_Driver/Src/stm32f4xx_hal_uart.c:446:7
	ldr	r0, [sp]
	.loc	7 446 14 is_stmt 0              @ ../Library/STM32F4xx_HAL_Driver/Src/stm32f4xx_hal_uart.c:446:14
	ldrb.w	r0, [r0, #61]
.Ltmp29:
	.loc	7 446 7                         @ ../Library/STM32F4xx_HAL_Driver/Src/stm32f4xx_hal_uart.c:446:7
	cbnz	r0, .LBB3_4
	b	.LBB3_3
.LBB3_3:
.Ltmp30:
	.loc	7 449 5 is_stmt 1               @ ../Library/STM32F4xx_HAL_Driver/Src/stm32f4xx_hal_uart.c:449:5
	ldr	r1, [sp]
	movs	r0, #0
	.loc	7 449 17 is_stmt 0              @ ../Library/STM32F4xx_HAL_Driver/Src/stm32f4xx_hal_uart.c:449:17
	strb.w	r0, [r1, #60]
	.loc	7 463 22 is_stmt 1              @ ../Library/STM32F4xx_HAL_Driver/Src/stm32f4xx_hal_uart.c:463:22
	ldr	r0, [sp]
	.loc	7 463 5 is_stmt 0               @ ../Library/STM32F4xx_HAL_Driver/Src/stm32f4xx_hal_uart.c:463:5
	bl	HAL_UART_MspInit
	.loc	7 465 3 is_stmt 1               @ ../Library/STM32F4xx_HAL_Driver/Src/stm32f4xx_hal_uart.c:465:3
	b	.LBB3_4
.Ltmp31:
.LBB3_4:
	.loc	7 467 3                         @ ../Library/STM32F4xx_HAL_Driver/Src/stm32f4xx_hal_uart.c:467:3
	ldr	r1, [sp]
	movs	r0, #36
	.loc	7 467 17 is_stmt 0              @ ../Library/STM32F4xx_HAL_Driver/Src/stm32f4xx_hal_uart.c:467:17
	strb.w	r0, [r1, #61]
	.loc	7 470 3 is_stmt 1               @ ../Library/STM32F4xx_HAL_Driver/Src/stm32f4xx_hal_uart.c:470:3
	ldr	r0, [sp]
	ldr	r1, [r0]
	ldr	r0, [r1, #12]
	bic	r0, r0, #8192
	str	r0, [r1, #12]
	.loc	7 473 18                        @ ../Library/STM32F4xx_HAL_Driver/Src/stm32f4xx_hal_uart.c:473:18
	ldr	r0, [sp]
	.loc	7 473 3 is_stmt 0               @ ../Library/STM32F4xx_HAL_Driver/Src/stm32f4xx_hal_uart.c:473:3
	bl	UART_SetConfig
	.loc	7 478 3 is_stmt 1               @ ../Library/STM32F4xx_HAL_Driver/Src/stm32f4xx_hal_uart.c:478:3
	ldr	r0, [sp]
	ldr	r1, [r0]
	ldr	r0, [r1, #16]
	bic	r0, r0, #18432
	str	r0, [r1, #16]
	.loc	7 479 3                         @ ../Library/STM32F4xx_HAL_Driver/Src/stm32f4xx_hal_uart.c:479:3
	ldr	r0, [sp]
	ldr	r1, [r0]
	ldr	r0, [r1, #20]
	bic	r0, r0, #34
	str	r0, [r1, #20]
	.loc	7 482 3                         @ ../Library/STM32F4xx_HAL_Driver/Src/stm32f4xx_hal_uart.c:482:3
	ldr	r0, [sp]
	ldr	r1, [r0]
	ldr	r0, [r1, #20]
	orr	r0, r0, #8
	str	r0, [r1, #20]
	.loc	7 485 3                         @ ../Library/STM32F4xx_HAL_Driver/Src/stm32f4xx_hal_uart.c:485:3
	ldr	r0, [sp]
	ldr	r1, [r0]
	ldr	r0, [r1, #12]
	orr	r0, r0, #8192
	str	r0, [r1, #12]
	.loc	7 488 3                         @ ../Library/STM32F4xx_HAL_Driver/Src/stm32f4xx_hal_uart.c:488:3
	ldr	r1, [sp]
	movs	r0, #0
	.loc	7 488 20 is_stmt 0              @ ../Library/STM32F4xx_HAL_Driver/Src/stm32f4xx_hal_uart.c:488:20
	str	r0, [r1, #64]
	.loc	7 489 3 is_stmt 1               @ ../Library/STM32F4xx_HAL_Driver/Src/stm32f4xx_hal_uart.c:489:3
	ldr	r2, [sp]
	movs	r1, #32
	.loc	7 489 17 is_stmt 0              @ ../Library/STM32F4xx_HAL_Driver/Src/stm32f4xx_hal_uart.c:489:17
	strb.w	r1, [r2, #61]
	.loc	7 490 3 is_stmt 1               @ ../Library/STM32F4xx_HAL_Driver/Src/stm32f4xx_hal_uart.c:490:3
	ldr	r2, [sp]
	.loc	7 490 18 is_stmt 0              @ ../Library/STM32F4xx_HAL_Driver/Src/stm32f4xx_hal_uart.c:490:18
	strb.w	r1, [r2, #62]
	.loc	7 492 3 is_stmt 1               @ ../Library/STM32F4xx_HAL_Driver/Src/stm32f4xx_hal_uart.c:492:3
	strb.w	r0, [sp, #7]
	b	.LBB3_5
.LBB3_5:
	.loc	7 493 1                         @ ../Library/STM32F4xx_HAL_Driver/Src/stm32f4xx_hal_uart.c:493:1
	ldrb.w	r0, [sp, #7]
	add	sp, #8
	pop	{r7, pc}
.Ltmp32:
.Lfunc_end3:
	.size	HAL_HalfDuplex_Init, .Lfunc_end3-HAL_HalfDuplex_Init
	.cfi_endproc
	.cantunwind
	.fnend
                                        @ -- End function
	.section	.text.HAL_LIN_Init,"ax",%progbits
	.hidden	HAL_LIN_Init                    @ -- Begin function HAL_LIN_Init
	.globl	HAL_LIN_Init
	.p2align	2
	.type	HAL_LIN_Init,%function
	.code	16                              @ @HAL_LIN_Init
	.thumb_func
HAL_LIN_Init:
.Lfunc_begin4:
	.loc	7 507 0                         @ ../Library/STM32F4xx_HAL_Driver/Src/stm32f4xx_hal_uart.c:507:0
	.fnstart
	.cfi_startproc
@ %bb.0:
	.save	{r7, lr}
	push	{r7, lr}
	.cfi_def_cfa_offset 8
	.cfi_offset lr, -4
	.cfi_offset r7, -8
	.pad	#16
	sub	sp, #16
	.cfi_def_cfa_offset 24
	str	r0, [sp, #8]
	str	r1, [sp, #4]
.Ltmp33:
	.loc	7 509 7 prologue_end            @ ../Library/STM32F4xx_HAL_Driver/Src/stm32f4xx_hal_uart.c:509:7
	ldr	r0, [sp, #8]
.Ltmp34:
	.loc	7 509 7 is_stmt 0               @ ../Library/STM32F4xx_HAL_Driver/Src/stm32f4xx_hal_uart.c:509:7
	cbnz	r0, .LBB4_2
	b	.LBB4_1
.LBB4_1:
	.loc	7 0 7                           @ ../Library/STM32F4xx_HAL_Driver/Src/stm32f4xx_hal_uart.c:0:7
	movs	r0, #1
.Ltmp35:
	.loc	7 511 5 is_stmt 1               @ ../Library/STM32F4xx_HAL_Driver/Src/stm32f4xx_hal_uart.c:511:5
	strb.w	r0, [sp, #15]
	b	.LBB4_5
.Ltmp36:
.LBB4_2:
	.loc	7 522 7                         @ ../Library/STM32F4xx_HAL_Driver/Src/stm32f4xx_hal_uart.c:522:7
	ldr	r0, [sp, #8]
	.loc	7 522 14 is_stmt 0              @ ../Library/STM32F4xx_HAL_Driver/Src/stm32f4xx_hal_uart.c:522:14
	ldrb.w	r0, [r0, #61]
.Ltmp37:
	.loc	7 522 7                         @ ../Library/STM32F4xx_HAL_Driver/Src/stm32f4xx_hal_uart.c:522:7
	cbnz	r0, .LBB4_4
	b	.LBB4_3
.LBB4_3:
.Ltmp38:
	.loc	7 525 5 is_stmt 1               @ ../Library/STM32F4xx_HAL_Driver/Src/stm32f4xx_hal_uart.c:525:5
	ldr	r1, [sp, #8]
	movs	r0, #0
	.loc	7 525 17 is_stmt 0              @ ../Library/STM32F4xx_HAL_Driver/Src/stm32f4xx_hal_uart.c:525:17
	strb.w	r0, [r1, #60]
	.loc	7 539 22 is_stmt 1              @ ../Library/STM32F4xx_HAL_Driver/Src/stm32f4xx_hal_uart.c:539:22
	ldr	r0, [sp, #8]
	.loc	7 539 5 is_stmt 0               @ ../Library/STM32F4xx_HAL_Driver/Src/stm32f4xx_hal_uart.c:539:5
	bl	HAL_UART_MspInit
	.loc	7 541 3 is_stmt 1               @ ../Library/STM32F4xx_HAL_Driver/Src/stm32f4xx_hal_uart.c:541:3
	b	.LBB4_4
.Ltmp39:
.LBB4_4:
	.loc	7 543 3                         @ ../Library/STM32F4xx_HAL_Driver/Src/stm32f4xx_hal_uart.c:543:3
	ldr	r1, [sp, #8]
	movs	r0, #36
	.loc	7 543 17 is_stmt 0              @ ../Library/STM32F4xx_HAL_Driver/Src/stm32f4xx_hal_uart.c:543:17
	strb.w	r0, [r1, #61]
	.loc	7 546 3 is_stmt 1               @ ../Library/STM32F4xx_HAL_Driver/Src/stm32f4xx_hal_uart.c:546:3
	ldr	r0, [sp, #8]
	ldr	r1, [r0]
	ldr	r0, [r1, #12]
	bic	r0, r0, #8192
	str	r0, [r1, #12]
	.loc	7 549 18                        @ ../Library/STM32F4xx_HAL_Driver/Src/stm32f4xx_hal_uart.c:549:18
	ldr	r0, [sp, #8]
	.loc	7 549 3 is_stmt 0               @ ../Library/STM32F4xx_HAL_Driver/Src/stm32f4xx_hal_uart.c:549:3
	bl	UART_SetConfig
	.loc	7 554 3 is_stmt 1               @ ../Library/STM32F4xx_HAL_Driver/Src/stm32f4xx_hal_uart.c:554:3
	ldr	r0, [sp, #8]
	ldr	r1, [r0]
	ldr	r0, [r1, #16]
	bic	r0, r0, #2048
	str	r0, [r1, #16]
	.loc	7 555 3                         @ ../Library/STM32F4xx_HAL_Driver/Src/stm32f4xx_hal_uart.c:555:3
	ldr	r0, [sp, #8]
	ldr	r1, [r0]
	ldr	r0, [r1, #20]
	bic	r0, r0, #42
	str	r0, [r1, #20]
	.loc	7 558 3                         @ ../Library/STM32F4xx_HAL_Driver/Src/stm32f4xx_hal_uart.c:558:3
	ldr	r0, [sp, #8]
	ldr	r1, [r0]
	ldr	r0, [r1, #16]
	orr	r0, r0, #16384
	str	r0, [r1, #16]
	.loc	7 561 3                         @ ../Library/STM32F4xx_HAL_Driver/Src/stm32f4xx_hal_uart.c:561:3
	ldr	r0, [sp, #8]
	ldr	r1, [r0]
	ldr	r0, [r1, #16]
	bic	r0, r0, #32
	str	r0, [r1, #16]
	.loc	7 562 3                         @ ../Library/STM32F4xx_HAL_Driver/Src/stm32f4xx_hal_uart.c:562:3
	ldr	r2, [sp, #4]
	ldr	r0, [sp, #8]
	ldr	r1, [r0]
	ldr	r0, [r1, #16]
	orrs	r0, r2
	str	r0, [r1, #16]
	.loc	7 565 3                         @ ../Library/STM32F4xx_HAL_Driver/Src/stm32f4xx_hal_uart.c:565:3
	ldr	r0, [sp, #8]
	ldr	r1, [r0]
	ldr	r0, [r1, #12]
	orr	r0, r0, #8192
	str	r0, [r1, #12]
	.loc	7 568 3                         @ ../Library/STM32F4xx_HAL_Driver/Src/stm32f4xx_hal_uart.c:568:3
	ldr	r1, [sp, #8]
	movs	r0, #0
	.loc	7 568 20 is_stmt 0              @ ../Library/STM32F4xx_HAL_Driver/Src/stm32f4xx_hal_uart.c:568:20
	str	r0, [r1, #64]
	.loc	7 569 3 is_stmt 1               @ ../Library/STM32F4xx_HAL_Driver/Src/stm32f4xx_hal_uart.c:569:3
	ldr	r2, [sp, #8]
	movs	r1, #32
	.loc	7 569 17 is_stmt 0              @ ../Library/STM32F4xx_HAL_Driver/Src/stm32f4xx_hal_uart.c:569:17
	strb.w	r1, [r2, #61]
	.loc	7 570 3 is_stmt 1               @ ../Library/STM32F4xx_HAL_Driver/Src/stm32f4xx_hal_uart.c:570:3
	ldr	r2, [sp, #8]
	.loc	7 570 18 is_stmt 0              @ ../Library/STM32F4xx_HAL_Driver/Src/stm32f4xx_hal_uart.c:570:18
	strb.w	r1, [r2, #62]
	.loc	7 572 3 is_stmt 1               @ ../Library/STM32F4xx_HAL_Driver/Src/stm32f4xx_hal_uart.c:572:3
	strb.w	r0, [sp, #15]
	b	.LBB4_5
.LBB4_5:
	.loc	7 573 1                         @ ../Library/STM32F4xx_HAL_Driver/Src/stm32f4xx_hal_uart.c:573:1
	ldrb.w	r0, [sp, #15]
	add	sp, #16
	pop	{r7, pc}
.Ltmp40:
.Lfunc_end4:
	.size	HAL_LIN_Init, .Lfunc_end4-HAL_LIN_Init
	.cfi_endproc
	.cantunwind
	.fnend
                                        @ -- End function
	.section	.text.HAL_MultiProcessor_Init,"ax",%progbits
	.hidden	HAL_MultiProcessor_Init         @ -- Begin function HAL_MultiProcessor_Init
	.globl	HAL_MultiProcessor_Init
	.p2align	2
	.type	HAL_MultiProcessor_Init,%function
	.code	16                              @ @HAL_MultiProcessor_Init
	.thumb_func
HAL_MultiProcessor_Init:
.Lfunc_begin5:
	.loc	7 588 0                         @ ../Library/STM32F4xx_HAL_Driver/Src/stm32f4xx_hal_uart.c:588:0
	.fnstart
	.cfi_startproc
@ %bb.0:
	.save	{r7, lr}
	push	{r7, lr}
	.cfi_def_cfa_offset 8
	.cfi_offset lr, -4
	.cfi_offset r7, -8
	.pad	#16
	sub	sp, #16
	.cfi_def_cfa_offset 24
                                        @ kill: def $r3 killed $r1
	str	r0, [sp, #8]
	strb.w	r1, [sp, #7]
	str	r2, [sp]
.Ltmp41:
	.loc	7 590 7 prologue_end            @ ../Library/STM32F4xx_HAL_Driver/Src/stm32f4xx_hal_uart.c:590:7
	ldr	r0, [sp, #8]
.Ltmp42:
	.loc	7 590 7 is_stmt 0               @ ../Library/STM32F4xx_HAL_Driver/Src/stm32f4xx_hal_uart.c:590:7
	cbnz	r0, .LBB5_2
	b	.LBB5_1
.LBB5_1:
	.loc	7 0 7                           @ ../Library/STM32F4xx_HAL_Driver/Src/stm32f4xx_hal_uart.c:0:7
	movs	r0, #1
.Ltmp43:
	.loc	7 592 5 is_stmt 1               @ ../Library/STM32F4xx_HAL_Driver/Src/stm32f4xx_hal_uart.c:592:5
	strb.w	r0, [sp, #15]
	b	.LBB5_5
.Ltmp44:
.LBB5_2:
	.loc	7 604 7                         @ ../Library/STM32F4xx_HAL_Driver/Src/stm32f4xx_hal_uart.c:604:7
	ldr	r0, [sp, #8]
	.loc	7 604 14 is_stmt 0              @ ../Library/STM32F4xx_HAL_Driver/Src/stm32f4xx_hal_uart.c:604:14
	ldrb.w	r0, [r0, #61]
.Ltmp45:
	.loc	7 604 7                         @ ../Library/STM32F4xx_HAL_Driver/Src/stm32f4xx_hal_uart.c:604:7
	cbnz	r0, .LBB5_4
	b	.LBB5_3
.LBB5_3:
.Ltmp46:
	.loc	7 607 5 is_stmt 1               @ ../Library/STM32F4xx_HAL_Driver/Src/stm32f4xx_hal_uart.c:607:5
	ldr	r1, [sp, #8]
	movs	r0, #0
	.loc	7 607 17 is_stmt 0              @ ../Library/STM32F4xx_HAL_Driver/Src/stm32f4xx_hal_uart.c:607:17
	strb.w	r0, [r1, #60]
	.loc	7 621 22 is_stmt 1              @ ../Library/STM32F4xx_HAL_Driver/Src/stm32f4xx_hal_uart.c:621:22
	ldr	r0, [sp, #8]
	.loc	7 621 5 is_stmt 0               @ ../Library/STM32F4xx_HAL_Driver/Src/stm32f4xx_hal_uart.c:621:5
	bl	HAL_UART_MspInit
	.loc	7 623 3 is_stmt 1               @ ../Library/STM32F4xx_HAL_Driver/Src/stm32f4xx_hal_uart.c:623:3
	b	.LBB5_4
.Ltmp47:
.LBB5_4:
	.loc	7 625 3                         @ ../Library/STM32F4xx_HAL_Driver/Src/stm32f4xx_hal_uart.c:625:3
	ldr	r1, [sp, #8]
	movs	r0, #36
	.loc	7 625 17 is_stmt 0              @ ../Library/STM32F4xx_HAL_Driver/Src/stm32f4xx_hal_uart.c:625:17
	strb.w	r0, [r1, #61]
	.loc	7 628 3 is_stmt 1               @ ../Library/STM32F4xx_HAL_Driver/Src/stm32f4xx_hal_uart.c:628:3
	ldr	r0, [sp, #8]
	ldr	r1, [r0]
	ldr	r0, [r1, #12]
	bic	r0, r0, #8192
	str	r0, [r1, #12]
	.loc	7 631 18                        @ ../Library/STM32F4xx_HAL_Driver/Src/stm32f4xx_hal_uart.c:631:18
	ldr	r0, [sp, #8]
	.loc	7 631 3 is_stmt 0               @ ../Library/STM32F4xx_HAL_Driver/Src/stm32f4xx_hal_uart.c:631:3
	bl	UART_SetConfig
	.loc	7 636 3 is_stmt 1               @ ../Library/STM32F4xx_HAL_Driver/Src/stm32f4xx_hal_uart.c:636:3
	ldr	r0, [sp, #8]
	ldr	r1, [r0]
	ldr	r0, [r1, #16]
	bic	r0, r0, #18432
	str	r0, [r1, #16]
	.loc	7 637 3                         @ ../Library/STM32F4xx_HAL_Driver/Src/stm32f4xx_hal_uart.c:637:3
	ldr	r0, [sp, #8]
	ldr	r1, [r0]
	ldr	r0, [r1, #20]
	bic	r0, r0, #42
	str	r0, [r1, #20]
	.loc	7 640 3                         @ ../Library/STM32F4xx_HAL_Driver/Src/stm32f4xx_hal_uart.c:640:3
	ldr	r0, [sp, #8]
	ldr	r1, [r0]
	ldr	r0, [r1, #16]
	bic	r0, r0, #15
	str	r0, [r1, #16]
	.loc	7 641 3                         @ ../Library/STM32F4xx_HAL_Driver/Src/stm32f4xx_hal_uart.c:641:3
	ldrb.w	r2, [sp, #7]
	ldr	r0, [sp, #8]
	ldr	r1, [r0]
	ldr	r0, [r1, #16]
	orrs	r0, r2
	str	r0, [r1, #16]
	.loc	7 644 3                         @ ../Library/STM32F4xx_HAL_Driver/Src/stm32f4xx_hal_uart.c:644:3
	ldr	r0, [sp, #8]
	ldr	r1, [r0]
	ldr	r0, [r1, #12]
	bic	r0, r0, #2048
	str	r0, [r1, #12]
	.loc	7 645 3                         @ ../Library/STM32F4xx_HAL_Driver/Src/stm32f4xx_hal_uart.c:645:3
	ldr	r2, [sp]
	ldr	r0, [sp, #8]
	ldr	r1, [r0]
	ldr	r0, [r1, #12]
	orrs	r0, r2
	str	r0, [r1, #12]
	.loc	7 648 3                         @ ../Library/STM32F4xx_HAL_Driver/Src/stm32f4xx_hal_uart.c:648:3
	ldr	r0, [sp, #8]
	ldr	r1, [r0]
	ldr	r0, [r1, #12]
	orr	r0, r0, #8192
	str	r0, [r1, #12]
	.loc	7 651 3                         @ ../Library/STM32F4xx_HAL_Driver/Src/stm32f4xx_hal_uart.c:651:3
	ldr	r1, [sp, #8]
	movs	r0, #0
	.loc	7 651 20 is_stmt 0              @ ../Library/STM32F4xx_HAL_Driver/Src/stm32f4xx_hal_uart.c:651:20
	str	r0, [r1, #64]
	.loc	7 652 3 is_stmt 1               @ ../Library/STM32F4xx_HAL_Driver/Src/stm32f4xx_hal_uart.c:652:3
	ldr	r2, [sp, #8]
	movs	r1, #32
	.loc	7 652 17 is_stmt 0              @ ../Library/STM32F4xx_HAL_Driver/Src/stm32f4xx_hal_uart.c:652:17
	strb.w	r1, [r2, #61]
	.loc	7 653 3 is_stmt 1               @ ../Library/STM32F4xx_HAL_Driver/Src/stm32f4xx_hal_uart.c:653:3
	ldr	r2, [sp, #8]
	.loc	7 653 18 is_stmt 0              @ ../Library/STM32F4xx_HAL_Driver/Src/stm32f4xx_hal_uart.c:653:18
	strb.w	r1, [r2, #62]
	.loc	7 655 3 is_stmt 1               @ ../Library/STM32F4xx_HAL_Driver/Src/stm32f4xx_hal_uart.c:655:3
	strb.w	r0, [sp, #15]
	b	.LBB5_5
.LBB5_5:
	.loc	7 656 1                         @ ../Library/STM32F4xx_HAL_Driver/Src/stm32f4xx_hal_uart.c:656:1
	ldrb.w	r0, [sp, #15]
	add	sp, #16
	pop	{r7, pc}
.Ltmp48:
.Lfunc_end5:
	.size	HAL_MultiProcessor_Init, .Lfunc_end5-HAL_MultiProcessor_Init
	.cfi_endproc
	.cantunwind
	.fnend
                                        @ -- End function
	.section	.text.HAL_UART_DeInit,"ax",%progbits
	.hidden	HAL_UART_DeInit                 @ -- Begin function HAL_UART_DeInit
	.globl	HAL_UART_DeInit
	.p2align	2
	.type	HAL_UART_DeInit,%function
	.code	16                              @ @HAL_UART_DeInit
	.thumb_func
HAL_UART_DeInit:
.Lfunc_begin6:
	.loc	7 665 0                         @ ../Library/STM32F4xx_HAL_Driver/Src/stm32f4xx_hal_uart.c:665:0
	.fnstart
	.cfi_startproc
@ %bb.0:
	.save	{r7, lr}
	push	{r7, lr}
	.cfi_def_cfa_offset 8
	.cfi_offset lr, -4
	.cfi_offset r7, -8
	.pad	#8
	sub	sp, #8
	.cfi_def_cfa_offset 16
	str	r0, [sp]
.Ltmp49:
	.loc	7 667 7 prologue_end            @ ../Library/STM32F4xx_HAL_Driver/Src/stm32f4xx_hal_uart.c:667:7
	ldr	r0, [sp]
.Ltmp50:
	.loc	7 667 7 is_stmt 0               @ ../Library/STM32F4xx_HAL_Driver/Src/stm32f4xx_hal_uart.c:667:7
	cbnz	r0, .LBB6_2
	b	.LBB6_1
.LBB6_1:
	.loc	7 0 7                           @ ../Library/STM32F4xx_HAL_Driver/Src/stm32f4xx_hal_uart.c:0:7
	movs	r0, #1
.Ltmp51:
	.loc	7 669 5 is_stmt 1               @ ../Library/STM32F4xx_HAL_Driver/Src/stm32f4xx_hal_uart.c:669:5
	strb.w	r0, [sp, #7]
	b	.LBB6_5
.Ltmp52:
.LBB6_2:
	.loc	7 675 3                         @ ../Library/STM32F4xx_HAL_Driver/Src/stm32f4xx_hal_uart.c:675:3
	ldr	r1, [sp]
	movs	r0, #36
	.loc	7 675 17 is_stmt 0              @ ../Library/STM32F4xx_HAL_Driver/Src/stm32f4xx_hal_uart.c:675:17
	strb.w	r0, [r1, #61]
	.loc	7 678 3 is_stmt 1               @ ../Library/STM32F4xx_HAL_Driver/Src/stm32f4xx_hal_uart.c:678:3
	ldr	r0, [sp]
	ldr	r1, [r0]
	ldr	r0, [r1, #12]
	bic	r0, r0, #8192
	str	r0, [r1, #12]
	.loc	7 689 22                        @ ../Library/STM32F4xx_HAL_Driver/Src/stm32f4xx_hal_uart.c:689:22
	ldr	r0, [sp]
	.loc	7 689 3 is_stmt 0               @ ../Library/STM32F4xx_HAL_Driver/Src/stm32f4xx_hal_uart.c:689:3
	bl	HAL_UART_MspDeInit
	.loc	7 692 3 is_stmt 1               @ ../Library/STM32F4xx_HAL_Driver/Src/stm32f4xx_hal_uart.c:692:3
	ldr	r1, [sp]
	movs	r0, #0
	.loc	7 692 20 is_stmt 0              @ ../Library/STM32F4xx_HAL_Driver/Src/stm32f4xx_hal_uart.c:692:20
	str	r0, [r1, #64]
	.loc	7 693 3 is_stmt 1               @ ../Library/STM32F4xx_HAL_Driver/Src/stm32f4xx_hal_uart.c:693:3
	ldr	r1, [sp]
	.loc	7 693 17 is_stmt 0              @ ../Library/STM32F4xx_HAL_Driver/Src/stm32f4xx_hal_uart.c:693:17
	strb.w	r0, [r1, #61]
	.loc	7 694 3 is_stmt 1               @ ../Library/STM32F4xx_HAL_Driver/Src/stm32f4xx_hal_uart.c:694:3
	ldr	r1, [sp]
	.loc	7 694 18 is_stmt 0              @ ../Library/STM32F4xx_HAL_Driver/Src/stm32f4xx_hal_uart.c:694:18
	strb.w	r0, [r1, #62]
	.loc	7 695 3 is_stmt 1               @ ../Library/STM32F4xx_HAL_Driver/Src/stm32f4xx_hal_uart.c:695:3
	ldr	r1, [sp]
	.loc	7 695 24 is_stmt 0              @ ../Library/STM32F4xx_HAL_Driver/Src/stm32f4xx_hal_uart.c:695:24
	str	r0, [r1, #48]
	.loc	7 698 3 is_stmt 1               @ ../Library/STM32F4xx_HAL_Driver/Src/stm32f4xx_hal_uart.c:698:3
	b	.LBB6_3
.LBB6_3:
.Ltmp53:
	.loc	7 698 3 is_stmt 0               @ ../Library/STM32F4xx_HAL_Driver/Src/stm32f4xx_hal_uart.c:698:3
	ldr	r1, [sp]
	movs	r0, #0
	strb.w	r0, [r1, #60]
	b	.LBB6_4
.Ltmp54:
.LBB6_4:
	.loc	7 0 3                           @ ../Library/STM32F4xx_HAL_Driver/Src/stm32f4xx_hal_uart.c:0:3
	movs	r0, #0
	.loc	7 700 3 is_stmt 1               @ ../Library/STM32F4xx_HAL_Driver/Src/stm32f4xx_hal_uart.c:700:3
	strb.w	r0, [sp, #7]
	b	.LBB6_5
.LBB6_5:
	.loc	7 701 1                         @ ../Library/STM32F4xx_HAL_Driver/Src/stm32f4xx_hal_uart.c:701:1
	ldrb.w	r0, [sp, #7]
	add	sp, #8
	pop	{r7, pc}
.Ltmp55:
.Lfunc_end6:
	.size	HAL_UART_DeInit, .Lfunc_end6-HAL_UART_DeInit
	.cfi_endproc
	.cantunwind
	.fnend
                                        @ -- End function
	.section	.text.HAL_UART_MspDeInit,"ax",%progbits
	.hidden	HAL_UART_MspDeInit              @ -- Begin function HAL_UART_MspDeInit
	.weak	HAL_UART_MspDeInit
	.p2align	2
	.type	HAL_UART_MspDeInit,%function
	.code	16                              @ @HAL_UART_MspDeInit
	.thumb_func
HAL_UART_MspDeInit:
.Lfunc_begin7:
	.loc	7 725 0                         @ ../Library/STM32F4xx_HAL_Driver/Src/stm32f4xx_hal_uart.c:725:0
	.fnstart
	.cfi_startproc
@ %bb.0:
	.pad	#4
	sub	sp, #4
	.cfi_def_cfa_offset 4
	str	r0, [sp]
.Ltmp56:
	.loc	7 731 1 prologue_end            @ ../Library/STM32F4xx_HAL_Driver/Src/stm32f4xx_hal_uart.c:731:1
	add	sp, #4
	bx	lr
.Ltmp57:
.Lfunc_end7:
	.size	HAL_UART_MspDeInit, .Lfunc_end7-HAL_UART_MspDeInit
	.cfi_endproc
	.cantunwind
	.fnend
                                        @ -- End function
	.section	.text.HAL_UART_Transmit,"ax",%progbits
	.hidden	HAL_UART_Transmit               @ -- Begin function HAL_UART_Transmit
	.globl	HAL_UART_Transmit
	.p2align	2
	.type	HAL_UART_Transmit,%function
	.code	16                              @ @HAL_UART_Transmit
	.thumb_func
HAL_UART_Transmit:
.Lfunc_begin8:
	.loc	7 1136 0                        @ ../Library/STM32F4xx_HAL_Driver/Src/stm32f4xx_hal_uart.c:1136:0
	.fnstart
	.cfi_startproc
@ %bb.0:
	.save	{r7, lr}
	push	{r7, lr}
	.cfi_def_cfa_offset 8
	.cfi_offset lr, -4
	.cfi_offset r7, -8
	.pad	#40
	sub	sp, #40
	.cfi_def_cfa_offset 48
                                        @ kill: def $r12 killed $r2
	str	r0, [sp, #32]
	str	r1, [sp, #28]
	strh.w	r2, [sp, #26]
	str	r3, [sp, #20]
	movs	r0, #0
.Ltmp58:
	.loc	7 1139 12 prologue_end          @ ../Library/STM32F4xx_HAL_Driver/Src/stm32f4xx_hal_uart.c:1139:12
	str	r0, [sp, #8]
.Ltmp59:
	.loc	7 1142 7                        @ ../Library/STM32F4xx_HAL_Driver/Src/stm32f4xx_hal_uart.c:1142:7
	ldr	r0, [sp, #32]
	.loc	7 1142 14 is_stmt 0             @ ../Library/STM32F4xx_HAL_Driver/Src/stm32f4xx_hal_uart.c:1142:14
	ldrb.w	r0, [r0, #61]
.Ltmp60:
	.loc	7 1142 7                        @ ../Library/STM32F4xx_HAL_Driver/Src/stm32f4xx_hal_uart.c:1142:7
	cmp	r0, #32
	bne.w	.LBB8_26
	b	.LBB8_1
.LBB8_1:
.Ltmp61:
	.loc	7 1144 10 is_stmt 1             @ ../Library/STM32F4xx_HAL_Driver/Src/stm32f4xx_hal_uart.c:1144:10
	ldr	r0, [sp, #28]
	.loc	7 1144 25 is_stmt 0             @ ../Library/STM32F4xx_HAL_Driver/Src/stm32f4xx_hal_uart.c:1144:25
	cbz	r0, .LBB8_3
	b	.LBB8_2
.LBB8_2:
	.loc	7 1144 29                       @ ../Library/STM32F4xx_HAL_Driver/Src/stm32f4xx_hal_uart.c:1144:29
	ldrh.w	r0, [sp, #26]
.Ltmp62:
	.loc	7 1144 9                        @ ../Library/STM32F4xx_HAL_Driver/Src/stm32f4xx_hal_uart.c:1144:9
	cbnz	r0, .LBB8_4
	b	.LBB8_3
.LBB8_3:
	.loc	7 0 9                           @ ../Library/STM32F4xx_HAL_Driver/Src/stm32f4xx_hal_uart.c:0:9
	movs	r0, #1
.Ltmp63:
	.loc	7 1146 7 is_stmt 1              @ ../Library/STM32F4xx_HAL_Driver/Src/stm32f4xx_hal_uart.c:1146:7
	strb.w	r0, [sp, #39]
	b	.LBB8_27
.Ltmp64:
.LBB8_4:
	.loc	7 1150 5                        @ ../Library/STM32F4xx_HAL_Driver/Src/stm32f4xx_hal_uart.c:1150:5
	b	.LBB8_5
.LBB8_5:
.Ltmp65:
	.loc	7 1150 5 is_stmt 0              @ ../Library/STM32F4xx_HAL_Driver/Src/stm32f4xx_hal_uart.c:1150:5
	ldr	r0, [sp, #32]
	ldrb.w	r0, [r0, #60]
.Ltmp66:
	.loc	7 1150 5                        @ ../Library/STM32F4xx_HAL_Driver/Src/stm32f4xx_hal_uart.c:1150:5
	cmp	r0, #1
	bne	.LBB8_7
	b	.LBB8_6
.LBB8_6:
	.loc	7 0 5                           @ ../Library/STM32F4xx_HAL_Driver/Src/stm32f4xx_hal_uart.c:0:5
	movs	r0, #2
.Ltmp67:
	.loc	7 1150 5                        @ ../Library/STM32F4xx_HAL_Driver/Src/stm32f4xx_hal_uart.c:1150:5
	strb.w	r0, [sp, #39]
	b	.LBB8_27
.Ltmp68:
.LBB8_7:
	.loc	7 1150 5                        @ ../Library/STM32F4xx_HAL_Driver/Src/stm32f4xx_hal_uart.c:1150:5
	ldr	r1, [sp, #32]
	movs	r0, #1
	strb.w	r0, [r1, #60]
	b	.LBB8_8
.Ltmp69:
.LBB8_8:
	.loc	7 1150 5                        @ ../Library/STM32F4xx_HAL_Driver/Src/stm32f4xx_hal_uart.c:1150:5
	b	.LBB8_9
.Ltmp70:
.LBB8_9:
	.loc	7 1152 5 is_stmt 1              @ ../Library/STM32F4xx_HAL_Driver/Src/stm32f4xx_hal_uart.c:1152:5
	ldr	r1, [sp, #32]
	movs	r0, #0
	.loc	7 1152 22 is_stmt 0             @ ../Library/STM32F4xx_HAL_Driver/Src/stm32f4xx_hal_uart.c:1152:22
	str	r0, [r1, #64]
	.loc	7 1153 5 is_stmt 1              @ ../Library/STM32F4xx_HAL_Driver/Src/stm32f4xx_hal_uart.c:1153:5
	ldr	r1, [sp, #32]
	movs	r0, #33
	.loc	7 1153 19 is_stmt 0             @ ../Library/STM32F4xx_HAL_Driver/Src/stm32f4xx_hal_uart.c:1153:19
	strb.w	r0, [r1, #61]
	.loc	7 1156 17 is_stmt 1             @ ../Library/STM32F4xx_HAL_Driver/Src/stm32f4xx_hal_uart.c:1156:17
	bl	HAL_GetTick
	.loc	7 1156 15 is_stmt 0             @ ../Library/STM32F4xx_HAL_Driver/Src/stm32f4xx_hal_uart.c:1156:15
	str	r0, [sp, #8]
	.loc	7 1158 25 is_stmt 1             @ ../Library/STM32F4xx_HAL_Driver/Src/stm32f4xx_hal_uart.c:1158:25
	ldrh.w	r0, [sp, #26]
	.loc	7 1158 5 is_stmt 0              @ ../Library/STM32F4xx_HAL_Driver/Src/stm32f4xx_hal_uart.c:1158:5
	ldr	r1, [sp, #32]
	.loc	7 1158 23                       @ ../Library/STM32F4xx_HAL_Driver/Src/stm32f4xx_hal_uart.c:1158:23
	strh	r0, [r1, #36]
	.loc	7 1159 26 is_stmt 1             @ ../Library/STM32F4xx_HAL_Driver/Src/stm32f4xx_hal_uart.c:1159:26
	ldrh.w	r0, [sp, #26]
	.loc	7 1159 5 is_stmt 0              @ ../Library/STM32F4xx_HAL_Driver/Src/stm32f4xx_hal_uart.c:1159:5
	ldr	r1, [sp, #32]
	.loc	7 1159 24                       @ ../Library/STM32F4xx_HAL_Driver/Src/stm32f4xx_hal_uart.c:1159:24
	strh	r0, [r1, #38]
.Ltmp71:
	.loc	7 1162 10 is_stmt 1             @ ../Library/STM32F4xx_HAL_Driver/Src/stm32f4xx_hal_uart.c:1162:10
	ldr	r0, [sp, #32]
	.loc	7 1162 22 is_stmt 0             @ ../Library/STM32F4xx_HAL_Driver/Src/stm32f4xx_hal_uart.c:1162:22
	ldr	r0, [r0, #8]
	.loc	7 1162 56                       @ ../Library/STM32F4xx_HAL_Driver/Src/stm32f4xx_hal_uart.c:1162:56
	cmp.w	r0, #4096
	bne	.LBB8_12
	b	.LBB8_10
.LBB8_10:
	.loc	7 1162 60                       @ ../Library/STM32F4xx_HAL_Driver/Src/stm32f4xx_hal_uart.c:1162:60
	ldr	r0, [sp, #32]
	.loc	7 1162 72                       @ ../Library/STM32F4xx_HAL_Driver/Src/stm32f4xx_hal_uart.c:1162:72
	ldr	r0, [r0, #16]
.Ltmp72:
	.loc	7 1162 9                        @ ../Library/STM32F4xx_HAL_Driver/Src/stm32f4xx_hal_uart.c:1162:9
	cbnz	r0, .LBB8_12
	b	.LBB8_11
.LBB8_11:
	.loc	7 0 9                           @ ../Library/STM32F4xx_HAL_Driver/Src/stm32f4xx_hal_uart.c:0:9
	movs	r0, #0
.Ltmp73:
	.loc	7 1164 19 is_stmt 1             @ ../Library/STM32F4xx_HAL_Driver/Src/stm32f4xx_hal_uart.c:1164:19
	str	r0, [sp, #16]
	.loc	7 1165 34                       @ ../Library/STM32F4xx_HAL_Driver/Src/stm32f4xx_hal_uart.c:1165:34
	ldr	r0, [sp, #28]
	.loc	7 1165 19 is_stmt 0             @ ../Library/STM32F4xx_HAL_Driver/Src/stm32f4xx_hal_uart.c:1165:19
	str	r0, [sp, #12]
	.loc	7 1166 5 is_stmt 1              @ ../Library/STM32F4xx_HAL_Driver/Src/stm32f4xx_hal_uart.c:1166:5
	b	.LBB8_13
.Ltmp74:
.LBB8_12:
	.loc	7 1169 21                       @ ../Library/STM32F4xx_HAL_Driver/Src/stm32f4xx_hal_uart.c:1169:21
	ldr	r0, [sp, #28]
	.loc	7 1169 19 is_stmt 0             @ ../Library/STM32F4xx_HAL_Driver/Src/stm32f4xx_hal_uart.c:1169:19
	str	r0, [sp, #16]
	movs	r0, #0
	.loc	7 1170 19 is_stmt 1             @ ../Library/STM32F4xx_HAL_Driver/Src/stm32f4xx_hal_uart.c:1170:19
	str	r0, [sp, #12]
	b	.LBB8_13
.Ltmp75:
.LBB8_13:
	.loc	7 1174 5                        @ ../Library/STM32F4xx_HAL_Driver/Src/stm32f4xx_hal_uart.c:1174:5
	b	.LBB8_14
.LBB8_14:
.Ltmp76:
	.loc	7 1174 5 is_stmt 0              @ ../Library/STM32F4xx_HAL_Driver/Src/stm32f4xx_hal_uart.c:1174:5
	ldr	r1, [sp, #32]
	movs	r0, #0
	strb.w	r0, [r1, #60]
	b	.LBB8_15
.Ltmp77:
.LBB8_15:
	.loc	7 1176 5 is_stmt 1              @ ../Library/STM32F4xx_HAL_Driver/Src/stm32f4xx_hal_uart.c:1176:5
	b	.LBB8_16
.LBB8_16:                               @ =>This Inner Loop Header: Depth=1
	.loc	7 1176 12 is_stmt 0             @ ../Library/STM32F4xx_HAL_Driver/Src/stm32f4xx_hal_uart.c:1176:12
	ldr	r0, [sp, #32]
	.loc	7 1176 19                       @ ../Library/STM32F4xx_HAL_Driver/Src/stm32f4xx_hal_uart.c:1176:19
	ldrh	r0, [r0, #38]
	.loc	7 1176 5                        @ ../Library/STM32F4xx_HAL_Driver/Src/stm32f4xx_hal_uart.c:1176:5
	cbz	r0, .LBB8_23
	b	.LBB8_17
.LBB8_17:                               @   in Loop: Header=BB8_16 Depth=1
.Ltmp78:
	.loc	7 1178 39 is_stmt 1             @ ../Library/STM32F4xx_HAL_Driver/Src/stm32f4xx_hal_uart.c:1178:39
	ldr	r0, [sp, #32]
	.loc	7 1178 68 is_stmt 0             @ ../Library/STM32F4xx_HAL_Driver/Src/stm32f4xx_hal_uart.c:1178:68
	ldr	r3, [sp, #8]
	.loc	7 1178 79                       @ ../Library/STM32F4xx_HAL_Driver/Src/stm32f4xx_hal_uart.c:1178:79
	ldr	r1, [sp, #20]
	.loc	7 1178 11                       @ ../Library/STM32F4xx_HAL_Driver/Src/stm32f4xx_hal_uart.c:1178:11
	mov	r2, sp
	str	r1, [r2]
	movs	r1, #128
	movs	r2, #0
	bl	UART_WaitOnFlagUntilTimeout
.Ltmp79:
	.loc	7 1178 11                       @ ../Library/STM32F4xx_HAL_Driver/Src/stm32f4xx_hal_uart.c:1178:11
	cbz	r0, .LBB8_19
	b	.LBB8_18
.LBB8_18:
	.loc	7 0 11                          @ ../Library/STM32F4xx_HAL_Driver/Src/stm32f4xx_hal_uart.c:0:11
	movs	r0, #3
.Ltmp80:
	.loc	7 1180 9 is_stmt 1              @ ../Library/STM32F4xx_HAL_Driver/Src/stm32f4xx_hal_uart.c:1180:9
	strb.w	r0, [sp, #39]
	b	.LBB8_27
.Ltmp81:
.LBB8_19:                               @   in Loop: Header=BB8_16 Depth=1
	.loc	7 1182 11                       @ ../Library/STM32F4xx_HAL_Driver/Src/stm32f4xx_hal_uart.c:1182:11
	ldr	r0, [sp, #16]
.Ltmp82:
	.loc	7 1182 11 is_stmt 0             @ ../Library/STM32F4xx_HAL_Driver/Src/stm32f4xx_hal_uart.c:1182:11
	cbnz	r0, .LBB8_21
	b	.LBB8_20
.LBB8_20:                               @   in Loop: Header=BB8_16 Depth=1
.Ltmp83:
	.loc	7 1184 43 is_stmt 1             @ ../Library/STM32F4xx_HAL_Driver/Src/stm32f4xx_hal_uart.c:1184:43
	ldr	r0, [sp, #12]
	.loc	7 1184 42 is_stmt 0             @ ../Library/STM32F4xx_HAL_Driver/Src/stm32f4xx_hal_uart.c:1184:42
	ldrh	r0, [r0]
	.loc	7 1184 55                       @ ../Library/STM32F4xx_HAL_Driver/Src/stm32f4xx_hal_uart.c:1184:55
	bfc	r0, #9, #23
	.loc	7 1184 9                        @ ../Library/STM32F4xx_HAL_Driver/Src/stm32f4xx_hal_uart.c:1184:9
	ldr	r1, [sp, #32]
	.loc	7 1184 16                       @ ../Library/STM32F4xx_HAL_Driver/Src/stm32f4xx_hal_uart.c:1184:16
	ldr	r1, [r1]
	.loc	7 1184 29                       @ ../Library/STM32F4xx_HAL_Driver/Src/stm32f4xx_hal_uart.c:1184:29
	str	r0, [r1, #4]
	.loc	7 1185 20 is_stmt 1             @ ../Library/STM32F4xx_HAL_Driver/Src/stm32f4xx_hal_uart.c:1185:20
	ldr	r0, [sp, #12]
	adds	r0, #2
	str	r0, [sp, #12]
	.loc	7 1186 7                        @ ../Library/STM32F4xx_HAL_Driver/Src/stm32f4xx_hal_uart.c:1186:7
	b	.LBB8_22
.Ltmp84:
.LBB8_21:                               @   in Loop: Header=BB8_16 Depth=1
	.loc	7 1189 42                       @ ../Library/STM32F4xx_HAL_Driver/Src/stm32f4xx_hal_uart.c:1189:42
	ldr	r0, [sp, #16]
	.loc	7 1189 41 is_stmt 0             @ ../Library/STM32F4xx_HAL_Driver/Src/stm32f4xx_hal_uart.c:1189:41
	ldrb	r0, [r0]
	.loc	7 1189 9                        @ ../Library/STM32F4xx_HAL_Driver/Src/stm32f4xx_hal_uart.c:1189:9
	ldr	r1, [sp, #32]
	.loc	7 1189 16                       @ ../Library/STM32F4xx_HAL_Driver/Src/stm32f4xx_hal_uart.c:1189:16
	ldr	r1, [r1]
	.loc	7 1189 29                       @ ../Library/STM32F4xx_HAL_Driver/Src/stm32f4xx_hal_uart.c:1189:29
	str	r0, [r1, #4]
	.loc	7 1190 19 is_stmt 1             @ ../Library/STM32F4xx_HAL_Driver/Src/stm32f4xx_hal_uart.c:1190:19
	ldr	r0, [sp, #16]
	adds	r0, #1
	str	r0, [sp, #16]
	b	.LBB8_22
.Ltmp85:
.LBB8_22:                               @   in Loop: Header=BB8_16 Depth=1
	.loc	7 1192 7                        @ ../Library/STM32F4xx_HAL_Driver/Src/stm32f4xx_hal_uart.c:1192:7
	ldr	r1, [sp, #32]
	.loc	7 1192 25 is_stmt 0             @ ../Library/STM32F4xx_HAL_Driver/Src/stm32f4xx_hal_uart.c:1192:25
	ldrh	r0, [r1, #38]
	subs	r0, #1
	strh	r0, [r1, #38]
.Ltmp86:
	.loc	7 1176 5 is_stmt 1              @ ../Library/STM32F4xx_HAL_Driver/Src/stm32f4xx_hal_uart.c:1176:5
	b	.LBB8_16
.LBB8_23:
.Ltmp87:
	.loc	7 1195 37                       @ ../Library/STM32F4xx_HAL_Driver/Src/stm32f4xx_hal_uart.c:1195:37
	ldr	r0, [sp, #32]
	.loc	7 1195 65 is_stmt 0             @ ../Library/STM32F4xx_HAL_Driver/Src/stm32f4xx_hal_uart.c:1195:65
	ldr	r3, [sp, #8]
	.loc	7 1195 76                       @ ../Library/STM32F4xx_HAL_Driver/Src/stm32f4xx_hal_uart.c:1195:76
	ldr	r1, [sp, #20]
	.loc	7 1195 9                        @ ../Library/STM32F4xx_HAL_Driver/Src/stm32f4xx_hal_uart.c:1195:9
	mov	r2, sp
	str	r1, [r2]
	movs	r1, #64
	movs	r2, #0
	bl	UART_WaitOnFlagUntilTimeout
.Ltmp88:
	.loc	7 1195 9                        @ ../Library/STM32F4xx_HAL_Driver/Src/stm32f4xx_hal_uart.c:1195:9
	cbz	r0, .LBB8_25
	b	.LBB8_24
.LBB8_24:
	.loc	7 0 9                           @ ../Library/STM32F4xx_HAL_Driver/Src/stm32f4xx_hal_uart.c:0:9
	movs	r0, #3
.Ltmp89:
	.loc	7 1197 7 is_stmt 1              @ ../Library/STM32F4xx_HAL_Driver/Src/stm32f4xx_hal_uart.c:1197:7
	strb.w	r0, [sp, #39]
	b	.LBB8_27
.Ltmp90:
.LBB8_25:
	.loc	7 1201 5                        @ ../Library/STM32F4xx_HAL_Driver/Src/stm32f4xx_hal_uart.c:1201:5
	ldr	r1, [sp, #32]
	movs	r0, #32
	.loc	7 1201 19 is_stmt 0             @ ../Library/STM32F4xx_HAL_Driver/Src/stm32f4xx_hal_uart.c:1201:19
	strb.w	r0, [r1, #61]
	movs	r0, #0
	.loc	7 1203 5 is_stmt 1              @ ../Library/STM32F4xx_HAL_Driver/Src/stm32f4xx_hal_uart.c:1203:5
	strb.w	r0, [sp, #39]
	b	.LBB8_27
.Ltmp91:
.LBB8_26:
	.loc	7 0 5 is_stmt 0                 @ ../Library/STM32F4xx_HAL_Driver/Src/stm32f4xx_hal_uart.c:0:5
	movs	r0, #2
.Ltmp92:
	.loc	7 1207 5 is_stmt 1              @ ../Library/STM32F4xx_HAL_Driver/Src/stm32f4xx_hal_uart.c:1207:5
	strb.w	r0, [sp, #39]
	b	.LBB8_27
.Ltmp93:
.LBB8_27:
	.loc	7 1209 1                        @ ../Library/STM32F4xx_HAL_Driver/Src/stm32f4xx_hal_uart.c:1209:1
	ldrb.w	r0, [sp, #39]
	add	sp, #40
	pop	{r7, pc}
.Ltmp94:
.Lfunc_end8:
	.size	HAL_UART_Transmit, .Lfunc_end8-HAL_UART_Transmit
	.cfi_endproc
	.cantunwind
	.fnend
                                        @ -- End function
	.section	.text.UART_WaitOnFlagUntilTimeout,"ax",%progbits
	.p2align	2                               @ -- Begin function UART_WaitOnFlagUntilTimeout
	.type	UART_WaitOnFlagUntilTimeout,%function
	.code	16                              @ @UART_WaitOnFlagUntilTimeout
	.thumb_func
UART_WaitOnFlagUntilTimeout:
.Lfunc_begin9:
	.loc	7 3171 0                        @ ../Library/STM32F4xx_HAL_Driver/Src/stm32f4xx_hal_uart.c:3171:0
	.fnstart
	.cfi_startproc
@ %bb.0:
	.save	{r7, lr}
	push	{r7, lr}
	.cfi_def_cfa_offset 8
	.cfi_offset lr, -4
	.cfi_offset r7, -8
	.pad	#32
	sub	sp, #32
	.cfi_def_cfa_offset 40
	ldr.w	r12, [sp, #40]
                                        @ kill: def $r12 killed $r2
	str	r0, [sp, #24]
	str	r1, [sp, #20]
	strb.w	r2, [sp, #19]
	str	r3, [sp, #12]
.Ltmp95:
	.loc	7 3173 3 prologue_end           @ ../Library/STM32F4xx_HAL_Driver/Src/stm32f4xx_hal_uart.c:3173:3
	b	.LBB9_1
.LBB9_1:                                @ =>This Inner Loop Header: Depth=1
	.loc	7 3173 11 is_stmt 0             @ ../Library/STM32F4xx_HAL_Driver/Src/stm32f4xx_hal_uart.c:3173:11
	ldr	r0, [sp, #24]
	ldr	r0, [r0]
	ldr	r0, [r0]
	ldr	r1, [sp, #20]
	ands	r0, r1
	subs	r0, r0, r1
	clz	r0, r0
	lsrs	r0, r0, #5
	.loc	7 3173 62                       @ ../Library/STM32F4xx_HAL_Driver/Src/stm32f4xx_hal_uart.c:3173:62
	ldrb.w	r1, [sp, #19]
	.loc	7 3173 3                        @ ../Library/STM32F4xx_HAL_Driver/Src/stm32f4xx_hal_uart.c:3173:3
	cmp	r0, r1
	bne	.LBB9_20
	b	.LBB9_2
.LBB9_2:                                @   in Loop: Header=BB9_1 Depth=1
.Ltmp96:
	.loc	7 3176 9 is_stmt 1              @ ../Library/STM32F4xx_HAL_Driver/Src/stm32f4xx_hal_uart.c:3176:9
	ldr	r0, [sp, #40]
.Ltmp97:
	.loc	7 3176 9 is_stmt 0              @ ../Library/STM32F4xx_HAL_Driver/Src/stm32f4xx_hal_uart.c:3176:9
	adds	r0, #1
	cmp	r0, #0
	beq	.LBB9_19
	b	.LBB9_3
.LBB9_3:                                @   in Loop: Header=BB9_1 Depth=1
.Ltmp98:
	.loc	7 3178 12 is_stmt 1             @ ../Library/STM32F4xx_HAL_Driver/Src/stm32f4xx_hal_uart.c:3178:12
	ldr	r0, [sp, #40]
	.loc	7 3178 27 is_stmt 0             @ ../Library/STM32F4xx_HAL_Driver/Src/stm32f4xx_hal_uart.c:3178:27
	cbz	r0, .LBB9_5
	b	.LBB9_4
.LBB9_4:                                @   in Loop: Header=BB9_1 Depth=1
	.loc	7 3178 32                       @ ../Library/STM32F4xx_HAL_Driver/Src/stm32f4xx_hal_uart.c:3178:32
	bl	HAL_GetTick
	.loc	7 3178 48                       @ ../Library/STM32F4xx_HAL_Driver/Src/stm32f4xx_hal_uart.c:3178:48
	ldr	r1, [sp, #12]
	.loc	7 3178 46                       @ ../Library/STM32F4xx_HAL_Driver/Src/stm32f4xx_hal_uart.c:3178:46
	subs	r0, r0, r1
	.loc	7 3178 61                       @ ../Library/STM32F4xx_HAL_Driver/Src/stm32f4xx_hal_uart.c:3178:61
	ldr	r1, [sp, #40]
.Ltmp99:
	.loc	7 3178 11                       @ ../Library/STM32F4xx_HAL_Driver/Src/stm32f4xx_hal_uart.c:3178:11
	cmp	r0, r1
	bls	.LBB9_18
	b	.LBB9_5
.LBB9_5:
.Ltmp100:
	.loc	7 3181 9 is_stmt 1              @ ../Library/STM32F4xx_HAL_Driver/Src/stm32f4xx_hal_uart.c:3181:9
	b	.LBB9_6
.LBB9_6:
.Ltmp101:
	.loc	7 3181 9 is_stmt 0              @ ../Library/STM32F4xx_HAL_Driver/Src/stm32f4xx_hal_uart.c:3181:9
	b	.LBB9_7
.LBB9_7:                                @ =>This Inner Loop Header: Depth=1
.Ltmp102:
	.loc	7 3181 9                        @ ../Library/STM32F4xx_HAL_Driver/Src/stm32f4xx_hal_uart.c:3181:9
	ldr	r0, [sp, #24]
	ldr	r0, [r0]
	ldrex	r0, [r0, #12]
	bic	r0, r0, #416
	str	r0, [sp, #8]
	b	.LBB9_8
.Ltmp103:
.LBB9_8:                                @   in Loop: Header=BB9_7 Depth=1
	.loc	7 3181 9                        @ ../Library/STM32F4xx_HAL_Driver/Src/stm32f4xx_hal_uart.c:3181:9
	ldr	r1, [sp, #8]
	ldr	r0, [sp, #24]
	ldr	r2, [r0]
	strex	r0, r1, [r2, #12]
.Ltmp104:
	.loc	7 3181 9                        @ ../Library/STM32F4xx_HAL_Driver/Src/stm32f4xx_hal_uart.c:3181:9
	cmp	r0, #0
	bne	.LBB9_7
	b	.LBB9_9
.Ltmp105:
.LBB9_9:
	.loc	7 3181 9                        @ ../Library/STM32F4xx_HAL_Driver/Src/stm32f4xx_hal_uart.c:3181:9
	b	.LBB9_10
.Ltmp106:
.LBB9_10:
	.loc	7 3182 9 is_stmt 1              @ ../Library/STM32F4xx_HAL_Driver/Src/stm32f4xx_hal_uart.c:3182:9
	b	.LBB9_11
.LBB9_11:
.Ltmp107:
	.loc	7 3182 9 is_stmt 0              @ ../Library/STM32F4xx_HAL_Driver/Src/stm32f4xx_hal_uart.c:3182:9
	b	.LBB9_12
.LBB9_12:                               @ =>This Inner Loop Header: Depth=1
.Ltmp108:
	.loc	7 3182 9                        @ ../Library/STM32F4xx_HAL_Driver/Src/stm32f4xx_hal_uart.c:3182:9
	ldr	r0, [sp, #24]
	ldr	r0, [r0]
	ldrex	r0, [r0, #20]
	bic	r0, r0, #1
	str	r0, [sp, #4]
	b	.LBB9_13
.Ltmp109:
.LBB9_13:                               @   in Loop: Header=BB9_12 Depth=1
	.loc	7 3182 9                        @ ../Library/STM32F4xx_HAL_Driver/Src/stm32f4xx_hal_uart.c:3182:9
	ldr	r1, [sp, #4]
	ldr	r0, [sp, #24]
	ldr	r2, [r0]
	strex	r0, r1, [r2, #20]
.Ltmp110:
	.loc	7 3182 9                        @ ../Library/STM32F4xx_HAL_Driver/Src/stm32f4xx_hal_uart.c:3182:9
	cmp	r0, #0
	bne	.LBB9_12
	b	.LBB9_14
.Ltmp111:
.LBB9_14:
	.loc	7 3182 9                        @ ../Library/STM32F4xx_HAL_Driver/Src/stm32f4xx_hal_uart.c:3182:9
	b	.LBB9_15
.Ltmp112:
.LBB9_15:
	.loc	7 3184 9 is_stmt 1              @ ../Library/STM32F4xx_HAL_Driver/Src/stm32f4xx_hal_uart.c:3184:9
	ldr	r1, [sp, #24]
	movs	r0, #32
	.loc	7 3184 24 is_stmt 0             @ ../Library/STM32F4xx_HAL_Driver/Src/stm32f4xx_hal_uart.c:3184:24
	strb.w	r0, [r1, #61]
	.loc	7 3185 9 is_stmt 1              @ ../Library/STM32F4xx_HAL_Driver/Src/stm32f4xx_hal_uart.c:3185:9
	ldr	r1, [sp, #24]
	.loc	7 3185 24 is_stmt 0             @ ../Library/STM32F4xx_HAL_Driver/Src/stm32f4xx_hal_uart.c:3185:24
	strb.w	r0, [r1, #62]
	.loc	7 3188 9 is_stmt 1              @ ../Library/STM32F4xx_HAL_Driver/Src/stm32f4xx_hal_uart.c:3188:9
	b	.LBB9_16
.LBB9_16:
.Ltmp113:
	.loc	7 3188 9 is_stmt 0              @ ../Library/STM32F4xx_HAL_Driver/Src/stm32f4xx_hal_uart.c:3188:9
	ldr	r1, [sp, #24]
	movs	r0, #0
	strb.w	r0, [r1, #60]
	b	.LBB9_17
.Ltmp114:
.LBB9_17:
	.loc	7 0 9                           @ ../Library/STM32F4xx_HAL_Driver/Src/stm32f4xx_hal_uart.c:0:9
	movs	r0, #3
	.loc	7 3190 9 is_stmt 1              @ ../Library/STM32F4xx_HAL_Driver/Src/stm32f4xx_hal_uart.c:3190:9
	strb.w	r0, [sp, #31]
	b	.LBB9_21
.Ltmp115:
.LBB9_18:                               @   in Loop: Header=BB9_1 Depth=1
	.loc	7 3192 5                        @ ../Library/STM32F4xx_HAL_Driver/Src/stm32f4xx_hal_uart.c:3192:5
	b	.LBB9_19
.Ltmp116:
.LBB9_19:                               @   in Loop: Header=BB9_1 Depth=1
	.loc	7 3173 3                        @ ../Library/STM32F4xx_HAL_Driver/Src/stm32f4xx_hal_uart.c:3173:3
	b	.LBB9_1
.LBB9_20:
	.loc	7 0 3 is_stmt 0                 @ ../Library/STM32F4xx_HAL_Driver/Src/stm32f4xx_hal_uart.c:0:3
	movs	r0, #0
	.loc	7 3194 3 is_stmt 1              @ ../Library/STM32F4xx_HAL_Driver/Src/stm32f4xx_hal_uart.c:3194:3
	strb.w	r0, [sp, #31]
	b	.LBB9_21
.LBB9_21:
	.loc	7 3195 1                        @ ../Library/STM32F4xx_HAL_Driver/Src/stm32f4xx_hal_uart.c:3195:1
	ldrb.w	r0, [sp, #31]
	add	sp, #32
	pop	{r7, pc}
.Ltmp117:
.Lfunc_end9:
	.size	UART_WaitOnFlagUntilTimeout, .Lfunc_end9-UART_WaitOnFlagUntilTimeout
	.cfi_endproc
	.cantunwind
	.fnend
                                        @ -- End function
	.section	.text.HAL_UART_Receive,"ax",%progbits
	.hidden	HAL_UART_Receive                @ -- Begin function HAL_UART_Receive
	.globl	HAL_UART_Receive
	.p2align	2
	.type	HAL_UART_Receive,%function
	.code	16                              @ @HAL_UART_Receive
	.thumb_func
HAL_UART_Receive:
.Lfunc_begin10:
	.loc	7 1224 0                        @ ../Library/STM32F4xx_HAL_Driver/Src/stm32f4xx_hal_uart.c:1224:0
	.fnstart
	.cfi_startproc
@ %bb.0:
	.save	{r7, lr}
	push	{r7, lr}
	.cfi_def_cfa_offset 8
	.cfi_offset lr, -4
	.cfi_offset r7, -8
	.pad	#40
	sub	sp, #40
	.cfi_def_cfa_offset 48
                                        @ kill: def $r12 killed $r2
	str	r0, [sp, #32]
	str	r1, [sp, #28]
	strh.w	r2, [sp, #26]
	str	r3, [sp, #20]
	movs	r0, #0
.Ltmp118:
	.loc	7 1227 12 prologue_end          @ ../Library/STM32F4xx_HAL_Driver/Src/stm32f4xx_hal_uart.c:1227:12
	str	r0, [sp, #8]
.Ltmp119:
	.loc	7 1230 7                        @ ../Library/STM32F4xx_HAL_Driver/Src/stm32f4xx_hal_uart.c:1230:7
	ldr	r0, [sp, #32]
	.loc	7 1230 14 is_stmt 0             @ ../Library/STM32F4xx_HAL_Driver/Src/stm32f4xx_hal_uart.c:1230:14
	ldrb.w	r0, [r0, #62]
.Ltmp120:
	.loc	7 1230 7                        @ ../Library/STM32F4xx_HAL_Driver/Src/stm32f4xx_hal_uart.c:1230:7
	cmp	r0, #32
	bne.w	.LBB10_29
	b	.LBB10_1
.LBB10_1:
.Ltmp121:
	.loc	7 1232 10 is_stmt 1             @ ../Library/STM32F4xx_HAL_Driver/Src/stm32f4xx_hal_uart.c:1232:10
	ldr	r0, [sp, #28]
	.loc	7 1232 25 is_stmt 0             @ ../Library/STM32F4xx_HAL_Driver/Src/stm32f4xx_hal_uart.c:1232:25
	cbz	r0, .LBB10_3
	b	.LBB10_2
.LBB10_2:
	.loc	7 1232 29                       @ ../Library/STM32F4xx_HAL_Driver/Src/stm32f4xx_hal_uart.c:1232:29
	ldrh.w	r0, [sp, #26]
.Ltmp122:
	.loc	7 1232 9                        @ ../Library/STM32F4xx_HAL_Driver/Src/stm32f4xx_hal_uart.c:1232:9
	cbnz	r0, .LBB10_4
	b	.LBB10_3
.LBB10_3:
	.loc	7 0 9                           @ ../Library/STM32F4xx_HAL_Driver/Src/stm32f4xx_hal_uart.c:0:9
	movs	r0, #1
.Ltmp123:
	.loc	7 1234 7 is_stmt 1              @ ../Library/STM32F4xx_HAL_Driver/Src/stm32f4xx_hal_uart.c:1234:7
	strb.w	r0, [sp, #39]
	b	.LBB10_30
.Ltmp124:
.LBB10_4:
	.loc	7 1238 5                        @ ../Library/STM32F4xx_HAL_Driver/Src/stm32f4xx_hal_uart.c:1238:5
	b	.LBB10_5
.LBB10_5:
.Ltmp125:
	.loc	7 1238 5 is_stmt 0              @ ../Library/STM32F4xx_HAL_Driver/Src/stm32f4xx_hal_uart.c:1238:5
	ldr	r0, [sp, #32]
	ldrb.w	r0, [r0, #60]
.Ltmp126:
	.loc	7 1238 5                        @ ../Library/STM32F4xx_HAL_Driver/Src/stm32f4xx_hal_uart.c:1238:5
	cmp	r0, #1
	bne	.LBB10_7
	b	.LBB10_6
.LBB10_6:
	.loc	7 0 5                           @ ../Library/STM32F4xx_HAL_Driver/Src/stm32f4xx_hal_uart.c:0:5
	movs	r0, #2
.Ltmp127:
	.loc	7 1238 5                        @ ../Library/STM32F4xx_HAL_Driver/Src/stm32f4xx_hal_uart.c:1238:5
	strb.w	r0, [sp, #39]
	b	.LBB10_30
.Ltmp128:
.LBB10_7:
	.loc	7 1238 5                        @ ../Library/STM32F4xx_HAL_Driver/Src/stm32f4xx_hal_uart.c:1238:5
	ldr	r1, [sp, #32]
	movs	r0, #1
	strb.w	r0, [r1, #60]
	b	.LBB10_8
.Ltmp129:
.LBB10_8:
	.loc	7 1238 5                        @ ../Library/STM32F4xx_HAL_Driver/Src/stm32f4xx_hal_uart.c:1238:5
	b	.LBB10_9
.Ltmp130:
.LBB10_9:
	.loc	7 1240 5 is_stmt 1              @ ../Library/STM32F4xx_HAL_Driver/Src/stm32f4xx_hal_uart.c:1240:5
	ldr	r1, [sp, #32]
	movs	r0, #0
	.loc	7 1240 22 is_stmt 0             @ ../Library/STM32F4xx_HAL_Driver/Src/stm32f4xx_hal_uart.c:1240:22
	str	r0, [r1, #64]
	.loc	7 1241 5 is_stmt 1              @ ../Library/STM32F4xx_HAL_Driver/Src/stm32f4xx_hal_uart.c:1241:5
	ldr	r2, [sp, #32]
	movs	r1, #34
	.loc	7 1241 20 is_stmt 0             @ ../Library/STM32F4xx_HAL_Driver/Src/stm32f4xx_hal_uart.c:1241:20
	strb.w	r1, [r2, #62]
	.loc	7 1242 5 is_stmt 1              @ ../Library/STM32F4xx_HAL_Driver/Src/stm32f4xx_hal_uart.c:1242:5
	ldr	r1, [sp, #32]
	.loc	7 1242 26 is_stmt 0             @ ../Library/STM32F4xx_HAL_Driver/Src/stm32f4xx_hal_uart.c:1242:26
	str	r0, [r1, #48]
	.loc	7 1245 17 is_stmt 1             @ ../Library/STM32F4xx_HAL_Driver/Src/stm32f4xx_hal_uart.c:1245:17
	bl	HAL_GetTick
	.loc	7 1245 15 is_stmt 0             @ ../Library/STM32F4xx_HAL_Driver/Src/stm32f4xx_hal_uart.c:1245:15
	str	r0, [sp, #8]
	.loc	7 1247 25 is_stmt 1             @ ../Library/STM32F4xx_HAL_Driver/Src/stm32f4xx_hal_uart.c:1247:25
	ldrh.w	r0, [sp, #26]
	.loc	7 1247 5 is_stmt 0              @ ../Library/STM32F4xx_HAL_Driver/Src/stm32f4xx_hal_uart.c:1247:5
	ldr	r1, [sp, #32]
	.loc	7 1247 23                       @ ../Library/STM32F4xx_HAL_Driver/Src/stm32f4xx_hal_uart.c:1247:23
	strh	r0, [r1, #44]
	.loc	7 1248 26 is_stmt 1             @ ../Library/STM32F4xx_HAL_Driver/Src/stm32f4xx_hal_uart.c:1248:26
	ldrh.w	r0, [sp, #26]
	.loc	7 1248 5 is_stmt 0              @ ../Library/STM32F4xx_HAL_Driver/Src/stm32f4xx_hal_uart.c:1248:5
	ldr	r1, [sp, #32]
	.loc	7 1248 24                       @ ../Library/STM32F4xx_HAL_Driver/Src/stm32f4xx_hal_uart.c:1248:24
	strh	r0, [r1, #46]
.Ltmp131:
	.loc	7 1251 10 is_stmt 1             @ ../Library/STM32F4xx_HAL_Driver/Src/stm32f4xx_hal_uart.c:1251:10
	ldr	r0, [sp, #32]
	.loc	7 1251 22 is_stmt 0             @ ../Library/STM32F4xx_HAL_Driver/Src/stm32f4xx_hal_uart.c:1251:22
	ldr	r0, [r0, #8]
	.loc	7 1251 56                       @ ../Library/STM32F4xx_HAL_Driver/Src/stm32f4xx_hal_uart.c:1251:56
	cmp.w	r0, #4096
	bne	.LBB10_12
	b	.LBB10_10
.LBB10_10:
	.loc	7 1251 60                       @ ../Library/STM32F4xx_HAL_Driver/Src/stm32f4xx_hal_uart.c:1251:60
	ldr	r0, [sp, #32]
	.loc	7 1251 72                       @ ../Library/STM32F4xx_HAL_Driver/Src/stm32f4xx_hal_uart.c:1251:72
	ldr	r0, [r0, #16]
.Ltmp132:
	.loc	7 1251 9                        @ ../Library/STM32F4xx_HAL_Driver/Src/stm32f4xx_hal_uart.c:1251:9
	cbnz	r0, .LBB10_12
	b	.LBB10_11
.LBB10_11:
	.loc	7 0 9                           @ ../Library/STM32F4xx_HAL_Driver/Src/stm32f4xx_hal_uart.c:0:9
	movs	r0, #0
.Ltmp133:
	.loc	7 1253 19 is_stmt 1             @ ../Library/STM32F4xx_HAL_Driver/Src/stm32f4xx_hal_uart.c:1253:19
	str	r0, [sp, #16]
	.loc	7 1254 34                       @ ../Library/STM32F4xx_HAL_Driver/Src/stm32f4xx_hal_uart.c:1254:34
	ldr	r0, [sp, #28]
	.loc	7 1254 19 is_stmt 0             @ ../Library/STM32F4xx_HAL_Driver/Src/stm32f4xx_hal_uart.c:1254:19
	str	r0, [sp, #12]
	.loc	7 1255 5 is_stmt 1              @ ../Library/STM32F4xx_HAL_Driver/Src/stm32f4xx_hal_uart.c:1255:5
	b	.LBB10_13
.Ltmp134:
.LBB10_12:
	.loc	7 1258 21                       @ ../Library/STM32F4xx_HAL_Driver/Src/stm32f4xx_hal_uart.c:1258:21
	ldr	r0, [sp, #28]
	.loc	7 1258 19 is_stmt 0             @ ../Library/STM32F4xx_HAL_Driver/Src/stm32f4xx_hal_uart.c:1258:19
	str	r0, [sp, #16]
	movs	r0, #0
	.loc	7 1259 19 is_stmt 1             @ ../Library/STM32F4xx_HAL_Driver/Src/stm32f4xx_hal_uart.c:1259:19
	str	r0, [sp, #12]
	b	.LBB10_13
.Ltmp135:
.LBB10_13:
	.loc	7 1263 5                        @ ../Library/STM32F4xx_HAL_Driver/Src/stm32f4xx_hal_uart.c:1263:5
	b	.LBB10_14
.LBB10_14:
.Ltmp136:
	.loc	7 1263 5 is_stmt 0              @ ../Library/STM32F4xx_HAL_Driver/Src/stm32f4xx_hal_uart.c:1263:5
	ldr	r1, [sp, #32]
	movs	r0, #0
	strb.w	r0, [r1, #60]
	b	.LBB10_15
.Ltmp137:
.LBB10_15:
	.loc	7 1266 5 is_stmt 1              @ ../Library/STM32F4xx_HAL_Driver/Src/stm32f4xx_hal_uart.c:1266:5
	b	.LBB10_16
.LBB10_16:                              @ =>This Inner Loop Header: Depth=1
	.loc	7 1266 12 is_stmt 0             @ ../Library/STM32F4xx_HAL_Driver/Src/stm32f4xx_hal_uart.c:1266:12
	ldr	r0, [sp, #32]
	.loc	7 1266 19                       @ ../Library/STM32F4xx_HAL_Driver/Src/stm32f4xx_hal_uart.c:1266:19
	ldrh	r0, [r0, #46]
	.loc	7 1266 5                        @ ../Library/STM32F4xx_HAL_Driver/Src/stm32f4xx_hal_uart.c:1266:5
	cmp	r0, #0
	beq	.LBB10_28
	b	.LBB10_17
.LBB10_17:                              @   in Loop: Header=BB10_16 Depth=1
.Ltmp138:
	.loc	7 1268 39 is_stmt 1             @ ../Library/STM32F4xx_HAL_Driver/Src/stm32f4xx_hal_uart.c:1268:39
	ldr	r0, [sp, #32]
	.loc	7 1268 69 is_stmt 0             @ ../Library/STM32F4xx_HAL_Driver/Src/stm32f4xx_hal_uart.c:1268:69
	ldr	r3, [sp, #8]
	.loc	7 1268 80                       @ ../Library/STM32F4xx_HAL_Driver/Src/stm32f4xx_hal_uart.c:1268:80
	ldr	r1, [sp, #20]
	.loc	7 1268 11                       @ ../Library/STM32F4xx_HAL_Driver/Src/stm32f4xx_hal_uart.c:1268:11
	mov	r2, sp
	str	r1, [r2]
	movs	r1, #32
	movs	r2, #0
	bl	UART_WaitOnFlagUntilTimeout
.Ltmp139:
	.loc	7 1268 11                       @ ../Library/STM32F4xx_HAL_Driver/Src/stm32f4xx_hal_uart.c:1268:11
	cbz	r0, .LBB10_19
	b	.LBB10_18
.LBB10_18:
	.loc	7 0 11                          @ ../Library/STM32F4xx_HAL_Driver/Src/stm32f4xx_hal_uart.c:0:11
	movs	r0, #3
.Ltmp140:
	.loc	7 1270 9 is_stmt 1              @ ../Library/STM32F4xx_HAL_Driver/Src/stm32f4xx_hal_uart.c:1270:9
	strb.w	r0, [sp, #39]
	b	.LBB10_30
.Ltmp141:
.LBB10_19:                              @   in Loop: Header=BB10_16 Depth=1
	.loc	7 1272 11                       @ ../Library/STM32F4xx_HAL_Driver/Src/stm32f4xx_hal_uart.c:1272:11
	ldr	r0, [sp, #16]
.Ltmp142:
	.loc	7 1272 11 is_stmt 0             @ ../Library/STM32F4xx_HAL_Driver/Src/stm32f4xx_hal_uart.c:1272:11
	cbnz	r0, .LBB10_21
	b	.LBB10_20
.LBB10_20:                              @   in Loop: Header=BB10_16 Depth=1
.Ltmp143:
	.loc	7 1274 35 is_stmt 1             @ ../Library/STM32F4xx_HAL_Driver/Src/stm32f4xx_hal_uart.c:1274:35
	ldr	r0, [sp, #32]
	.loc	7 1274 42 is_stmt 0             @ ../Library/STM32F4xx_HAL_Driver/Src/stm32f4xx_hal_uart.c:1274:42
	ldr	r0, [r0]
	.loc	7 1274 52                       @ ../Library/STM32F4xx_HAL_Driver/Src/stm32f4xx_hal_uart.c:1274:52
	ldr	r0, [r0, #4]
	.loc	7 1274 55                       @ ../Library/STM32F4xx_HAL_Driver/Src/stm32f4xx_hal_uart.c:1274:55
	bfc	r0, #9, #23
	.loc	7 1274 10                       @ ../Library/STM32F4xx_HAL_Driver/Src/stm32f4xx_hal_uart.c:1274:10
	ldr	r1, [sp, #12]
	.loc	7 1274 22                       @ ../Library/STM32F4xx_HAL_Driver/Src/stm32f4xx_hal_uart.c:1274:22
	strh	r0, [r1]
	.loc	7 1275 20 is_stmt 1             @ ../Library/STM32F4xx_HAL_Driver/Src/stm32f4xx_hal_uart.c:1275:20
	ldr	r0, [sp, #12]
	adds	r0, #2
	str	r0, [sp, #12]
	.loc	7 1276 7                        @ ../Library/STM32F4xx_HAL_Driver/Src/stm32f4xx_hal_uart.c:1276:7
	b	.LBB10_27
.Ltmp144:
.LBB10_21:                              @   in Loop: Header=BB10_16 Depth=1
	.loc	7 1279 14                       @ ../Library/STM32F4xx_HAL_Driver/Src/stm32f4xx_hal_uart.c:1279:14
	ldr	r0, [sp, #32]
	.loc	7 1279 26 is_stmt 0             @ ../Library/STM32F4xx_HAL_Driver/Src/stm32f4xx_hal_uart.c:1279:26
	ldr	r0, [r0, #8]
	.loc	7 1279 60                       @ ../Library/STM32F4xx_HAL_Driver/Src/stm32f4xx_hal_uart.c:1279:60
	cmp.w	r0, #4096
	beq	.LBB10_24
	b	.LBB10_22
.LBB10_22:                              @   in Loop: Header=BB10_16 Depth=1
	.loc	7 1279 65                       @ ../Library/STM32F4xx_HAL_Driver/Src/stm32f4xx_hal_uart.c:1279:65
	ldr	r0, [sp, #32]
	.loc	7 1279 77                       @ ../Library/STM32F4xx_HAL_Driver/Src/stm32f4xx_hal_uart.c:1279:77
	ldr	r0, [r0, #8]
	.loc	7 1279 111                      @ ../Library/STM32F4xx_HAL_Driver/Src/stm32f4xx_hal_uart.c:1279:111
	cbnz	r0, .LBB10_25
	b	.LBB10_23
.LBB10_23:                              @   in Loop: Header=BB10_16 Depth=1
	.loc	7 1279 115                      @ ../Library/STM32F4xx_HAL_Driver/Src/stm32f4xx_hal_uart.c:1279:115
	ldr	r0, [sp, #32]
	.loc	7 1279 127                      @ ../Library/STM32F4xx_HAL_Driver/Src/stm32f4xx_hal_uart.c:1279:127
	ldr	r0, [r0, #16]
.Ltmp145:
	.loc	7 1279 13                       @ ../Library/STM32F4xx_HAL_Driver/Src/stm32f4xx_hal_uart.c:1279:13
	cbnz	r0, .LBB10_25
	b	.LBB10_24
.LBB10_24:                              @   in Loop: Header=BB10_16 Depth=1
.Ltmp146:
	.loc	7 1281 35 is_stmt 1             @ ../Library/STM32F4xx_HAL_Driver/Src/stm32f4xx_hal_uart.c:1281:35
	ldr	r0, [sp, #32]
	.loc	7 1281 42 is_stmt 0             @ ../Library/STM32F4xx_HAL_Driver/Src/stm32f4xx_hal_uart.c:1281:42
	ldr	r0, [r0]
	.loc	7 1281 52                       @ ../Library/STM32F4xx_HAL_Driver/Src/stm32f4xx_hal_uart.c:1281:52
	ldr	r0, [r0, #4]
	.loc	7 1281 12                       @ ../Library/STM32F4xx_HAL_Driver/Src/stm32f4xx_hal_uart.c:1281:12
	ldr	r1, [sp, #16]
	.loc	7 1281 23                       @ ../Library/STM32F4xx_HAL_Driver/Src/stm32f4xx_hal_uart.c:1281:23
	strb	r0, [r1]
	.loc	7 1282 9 is_stmt 1              @ ../Library/STM32F4xx_HAL_Driver/Src/stm32f4xx_hal_uart.c:1282:9
	b	.LBB10_26
.Ltmp147:
.LBB10_25:                              @   in Loop: Header=BB10_16 Depth=1
	.loc	7 1285 35                       @ ../Library/STM32F4xx_HAL_Driver/Src/stm32f4xx_hal_uart.c:1285:35
	ldr	r0, [sp, #32]
	.loc	7 1285 42 is_stmt 0             @ ../Library/STM32F4xx_HAL_Driver/Src/stm32f4xx_hal_uart.c:1285:42
	ldr	r0, [r0]
	.loc	7 1285 52                       @ ../Library/STM32F4xx_HAL_Driver/Src/stm32f4xx_hal_uart.c:1285:52
	ldr	r0, [r0, #4]
	.loc	7 1285 55                       @ ../Library/STM32F4xx_HAL_Driver/Src/stm32f4xx_hal_uart.c:1285:55
	and	r0, r0, #127
	.loc	7 1285 12                       @ ../Library/STM32F4xx_HAL_Driver/Src/stm32f4xx_hal_uart.c:1285:12
	ldr	r1, [sp, #16]
	.loc	7 1285 23                       @ ../Library/STM32F4xx_HAL_Driver/Src/stm32f4xx_hal_uart.c:1285:23
	strb	r0, [r1]
	b	.LBB10_26
.Ltmp148:
.LBB10_26:                              @   in Loop: Header=BB10_16 Depth=1
	.loc	7 1287 19 is_stmt 1             @ ../Library/STM32F4xx_HAL_Driver/Src/stm32f4xx_hal_uart.c:1287:19
	ldr	r0, [sp, #16]
	adds	r0, #1
	str	r0, [sp, #16]
	b	.LBB10_27
.Ltmp149:
.LBB10_27:                              @   in Loop: Header=BB10_16 Depth=1
	.loc	7 1289 7                        @ ../Library/STM32F4xx_HAL_Driver/Src/stm32f4xx_hal_uart.c:1289:7
	ldr	r1, [sp, #32]
	.loc	7 1289 25 is_stmt 0             @ ../Library/STM32F4xx_HAL_Driver/Src/stm32f4xx_hal_uart.c:1289:25
	ldrh	r0, [r1, #46]
	subs	r0, #1
	strh	r0, [r1, #46]
.Ltmp150:
	.loc	7 1266 5 is_stmt 1              @ ../Library/STM32F4xx_HAL_Driver/Src/stm32f4xx_hal_uart.c:1266:5
	b	.LBB10_16
.LBB10_28:
	.loc	7 1293 5                        @ ../Library/STM32F4xx_HAL_Driver/Src/stm32f4xx_hal_uart.c:1293:5
	ldr	r1, [sp, #32]
	movs	r0, #32
	.loc	7 1293 20 is_stmt 0             @ ../Library/STM32F4xx_HAL_Driver/Src/stm32f4xx_hal_uart.c:1293:20
	strb.w	r0, [r1, #62]
	movs	r0, #0
	.loc	7 1295 5 is_stmt 1              @ ../Library/STM32F4xx_HAL_Driver/Src/stm32f4xx_hal_uart.c:1295:5
	strb.w	r0, [sp, #39]
	b	.LBB10_30
.Ltmp151:
.LBB10_29:
	.loc	7 0 5 is_stmt 0                 @ ../Library/STM32F4xx_HAL_Driver/Src/stm32f4xx_hal_uart.c:0:5
	movs	r0, #2
.Ltmp152:
	.loc	7 1299 5 is_stmt 1              @ ../Library/STM32F4xx_HAL_Driver/Src/stm32f4xx_hal_uart.c:1299:5
	strb.w	r0, [sp, #39]
	b	.LBB10_30
.Ltmp153:
.LBB10_30:
	.loc	7 1301 1                        @ ../Library/STM32F4xx_HAL_Driver/Src/stm32f4xx_hal_uart.c:1301:1
	ldrb.w	r0, [sp, #39]
	add	sp, #40
	pop	{r7, pc}
.Ltmp154:
.Lfunc_end10:
	.size	HAL_UART_Receive, .Lfunc_end10-HAL_UART_Receive
	.cfi_endproc
	.cantunwind
	.fnend
                                        @ -- End function
	.section	.text.HAL_UART_Transmit_IT,"ax",%progbits
	.hidden	HAL_UART_Transmit_IT            @ -- Begin function HAL_UART_Transmit_IT
	.globl	HAL_UART_Transmit_IT
	.p2align	2
	.type	HAL_UART_Transmit_IT,%function
	.code	16                              @ @HAL_UART_Transmit_IT
	.thumb_func
HAL_UART_Transmit_IT:
.Lfunc_begin11:
	.loc	7 1315 0                        @ ../Library/STM32F4xx_HAL_Driver/Src/stm32f4xx_hal_uart.c:1315:0
	.fnstart
	.cfi_startproc
@ %bb.0:
	.pad	#16
	sub	sp, #16
	.cfi_def_cfa_offset 16
                                        @ kill: def $r3 killed $r2
	str	r0, [sp, #8]
	str	r1, [sp, #4]
	strh.w	r2, [sp, #2]
.Ltmp155:
	.loc	7 1317 7 prologue_end           @ ../Library/STM32F4xx_HAL_Driver/Src/stm32f4xx_hal_uart.c:1317:7
	ldr	r0, [sp, #8]
	.loc	7 1317 14 is_stmt 0             @ ../Library/STM32F4xx_HAL_Driver/Src/stm32f4xx_hal_uart.c:1317:14
	ldrb.w	r0, [r0, #61]
.Ltmp156:
	.loc	7 1317 7                        @ ../Library/STM32F4xx_HAL_Driver/Src/stm32f4xx_hal_uart.c:1317:7
	cmp	r0, #32
	bne	.LBB11_12
	b	.LBB11_1
.LBB11_1:
.Ltmp157:
	.loc	7 1319 10 is_stmt 1             @ ../Library/STM32F4xx_HAL_Driver/Src/stm32f4xx_hal_uart.c:1319:10
	ldr	r0, [sp, #4]
	.loc	7 1319 25 is_stmt 0             @ ../Library/STM32F4xx_HAL_Driver/Src/stm32f4xx_hal_uart.c:1319:25
	cbz	r0, .LBB11_3
	b	.LBB11_2
.LBB11_2:
	.loc	7 1319 29                       @ ../Library/STM32F4xx_HAL_Driver/Src/stm32f4xx_hal_uart.c:1319:29
	ldrh.w	r0, [sp, #2]
.Ltmp158:
	.loc	7 1319 9                        @ ../Library/STM32F4xx_HAL_Driver/Src/stm32f4xx_hal_uart.c:1319:9
	cbnz	r0, .LBB11_4
	b	.LBB11_3
.LBB11_3:
	.loc	7 0 9                           @ ../Library/STM32F4xx_HAL_Driver/Src/stm32f4xx_hal_uart.c:0:9
	movs	r0, #1
.Ltmp159:
	.loc	7 1321 7 is_stmt 1              @ ../Library/STM32F4xx_HAL_Driver/Src/stm32f4xx_hal_uart.c:1321:7
	strb.w	r0, [sp, #15]
	b	.LBB11_13
.Ltmp160:
.LBB11_4:
	.loc	7 1325 5                        @ ../Library/STM32F4xx_HAL_Driver/Src/stm32f4xx_hal_uart.c:1325:5
	b	.LBB11_5
.LBB11_5:
.Ltmp161:
	.loc	7 1325 5 is_stmt 0              @ ../Library/STM32F4xx_HAL_Driver/Src/stm32f4xx_hal_uart.c:1325:5
	ldr	r0, [sp, #8]
	ldrb.w	r0, [r0, #60]
.Ltmp162:
	.loc	7 1325 5                        @ ../Library/STM32F4xx_HAL_Driver/Src/stm32f4xx_hal_uart.c:1325:5
	cmp	r0, #1
	bne	.LBB11_7
	b	.LBB11_6
.LBB11_6:
	.loc	7 0 5                           @ ../Library/STM32F4xx_HAL_Driver/Src/stm32f4xx_hal_uart.c:0:5
	movs	r0, #2
.Ltmp163:
	.loc	7 1325 5                        @ ../Library/STM32F4xx_HAL_Driver/Src/stm32f4xx_hal_uart.c:1325:5
	strb.w	r0, [sp, #15]
	b	.LBB11_13
.Ltmp164:
.LBB11_7:
	.loc	7 1325 5                        @ ../Library/STM32F4xx_HAL_Driver/Src/stm32f4xx_hal_uart.c:1325:5
	ldr	r1, [sp, #8]
	movs	r0, #1
	strb.w	r0, [r1, #60]
	b	.LBB11_8
.Ltmp165:
.LBB11_8:
	.loc	7 1325 5                        @ ../Library/STM32F4xx_HAL_Driver/Src/stm32f4xx_hal_uart.c:1325:5
	b	.LBB11_9
.Ltmp166:
.LBB11_9:
	.loc	7 1327 25 is_stmt 1             @ ../Library/STM32F4xx_HAL_Driver/Src/stm32f4xx_hal_uart.c:1327:25
	ldr	r0, [sp, #4]
	.loc	7 1327 5 is_stmt 0              @ ../Library/STM32F4xx_HAL_Driver/Src/stm32f4xx_hal_uart.c:1327:5
	ldr	r1, [sp, #8]
	.loc	7 1327 23                       @ ../Library/STM32F4xx_HAL_Driver/Src/stm32f4xx_hal_uart.c:1327:23
	str	r0, [r1, #32]
	.loc	7 1328 25 is_stmt 1             @ ../Library/STM32F4xx_HAL_Driver/Src/stm32f4xx_hal_uart.c:1328:25
	ldrh.w	r0, [sp, #2]
	.loc	7 1328 5 is_stmt 0              @ ../Library/STM32F4xx_HAL_Driver/Src/stm32f4xx_hal_uart.c:1328:5
	ldr	r1, [sp, #8]
	.loc	7 1328 23                       @ ../Library/STM32F4xx_HAL_Driver/Src/stm32f4xx_hal_uart.c:1328:23
	strh	r0, [r1, #36]
	.loc	7 1329 26 is_stmt 1             @ ../Library/STM32F4xx_HAL_Driver/Src/stm32f4xx_hal_uart.c:1329:26
	ldrh.w	r0, [sp, #2]
	.loc	7 1329 5 is_stmt 0              @ ../Library/STM32F4xx_HAL_Driver/Src/stm32f4xx_hal_uart.c:1329:5
	ldr	r1, [sp, #8]
	.loc	7 1329 24                       @ ../Library/STM32F4xx_HAL_Driver/Src/stm32f4xx_hal_uart.c:1329:24
	strh	r0, [r1, #38]
	.loc	7 1331 5 is_stmt 1              @ ../Library/STM32F4xx_HAL_Driver/Src/stm32f4xx_hal_uart.c:1331:5
	ldr	r1, [sp, #8]
	movs	r0, #0
	.loc	7 1331 22 is_stmt 0             @ ../Library/STM32F4xx_HAL_Driver/Src/stm32f4xx_hal_uart.c:1331:22
	str	r0, [r1, #64]
	.loc	7 1332 5 is_stmt 1              @ ../Library/STM32F4xx_HAL_Driver/Src/stm32f4xx_hal_uart.c:1332:5
	ldr	r1, [sp, #8]
	movs	r0, #33
	.loc	7 1332 19 is_stmt 0             @ ../Library/STM32F4xx_HAL_Driver/Src/stm32f4xx_hal_uart.c:1332:19
	strb.w	r0, [r1, #61]
	.loc	7 1335 5 is_stmt 1              @ ../Library/STM32F4xx_HAL_Driver/Src/stm32f4xx_hal_uart.c:1335:5
	b	.LBB11_10
.LBB11_10:
.Ltmp167:
	.loc	7 1335 5 is_stmt 0              @ ../Library/STM32F4xx_HAL_Driver/Src/stm32f4xx_hal_uart.c:1335:5
	ldr	r1, [sp, #8]
	movs	r0, #0
	strb.w	r0, [r1, #60]
	b	.LBB11_11
.Ltmp168:
.LBB11_11:
	.loc	7 1338 5 is_stmt 1              @ ../Library/STM32F4xx_HAL_Driver/Src/stm32f4xx_hal_uart.c:1338:5
	ldr	r0, [sp, #8]
	ldr	r1, [r0]
	ldr	r0, [r1, #12]
	orr	r0, r0, #128
	str	r0, [r1, #12]
	movs	r0, #0
	.loc	7 1340 5                        @ ../Library/STM32F4xx_HAL_Driver/Src/stm32f4xx_hal_uart.c:1340:5
	strb.w	r0, [sp, #15]
	b	.LBB11_13
.Ltmp169:
.LBB11_12:
	.loc	7 0 5 is_stmt 0                 @ ../Library/STM32F4xx_HAL_Driver/Src/stm32f4xx_hal_uart.c:0:5
	movs	r0, #2
.Ltmp170:
	.loc	7 1344 5 is_stmt 1              @ ../Library/STM32F4xx_HAL_Driver/Src/stm32f4xx_hal_uart.c:1344:5
	strb.w	r0, [sp, #15]
	b	.LBB11_13
.Ltmp171:
.LBB11_13:
	.loc	7 1346 1                        @ ../Library/STM32F4xx_HAL_Driver/Src/stm32f4xx_hal_uart.c:1346:1
	ldrb.w	r0, [sp, #15]
	add	sp, #16
	bx	lr
.Ltmp172:
.Lfunc_end11:
	.size	HAL_UART_Transmit_IT, .Lfunc_end11-HAL_UART_Transmit_IT
	.cfi_endproc
	.cantunwind
	.fnend
                                        @ -- End function
	.section	.text.HAL_UART_Receive_IT,"ax",%progbits
	.hidden	HAL_UART_Receive_IT             @ -- Begin function HAL_UART_Receive_IT
	.globl	HAL_UART_Receive_IT
	.p2align	2
	.type	HAL_UART_Receive_IT,%function
	.code	16                              @ @HAL_UART_Receive_IT
	.thumb_func
HAL_UART_Receive_IT:
.Lfunc_begin12:
	.loc	7 1360 0                        @ ../Library/STM32F4xx_HAL_Driver/Src/stm32f4xx_hal_uart.c:1360:0
	.fnstart
	.cfi_startproc
@ %bb.0:
	.save	{r7, lr}
	push	{r7, lr}
	.cfi_def_cfa_offset 8
	.cfi_offset lr, -4
	.cfi_offset r7, -8
	.pad	#16
	sub	sp, #16
	.cfi_def_cfa_offset 24
                                        @ kill: def $r3 killed $r2
	str	r0, [sp, #8]
	str	r1, [sp, #4]
	strh.w	r2, [sp, #2]
.Ltmp173:
	.loc	7 1362 7 prologue_end           @ ../Library/STM32F4xx_HAL_Driver/Src/stm32f4xx_hal_uart.c:1362:7
	ldr	r0, [sp, #8]
	.loc	7 1362 14 is_stmt 0             @ ../Library/STM32F4xx_HAL_Driver/Src/stm32f4xx_hal_uart.c:1362:14
	ldrb.w	r0, [r0, #62]
.Ltmp174:
	.loc	7 1362 7                        @ ../Library/STM32F4xx_HAL_Driver/Src/stm32f4xx_hal_uart.c:1362:7
	cmp	r0, #32
	bne	.LBB12_10
	b	.LBB12_1
.LBB12_1:
.Ltmp175:
	.loc	7 1364 10 is_stmt 1             @ ../Library/STM32F4xx_HAL_Driver/Src/stm32f4xx_hal_uart.c:1364:10
	ldr	r0, [sp, #4]
	.loc	7 1364 25 is_stmt 0             @ ../Library/STM32F4xx_HAL_Driver/Src/stm32f4xx_hal_uart.c:1364:25
	cbz	r0, .LBB12_3
	b	.LBB12_2
.LBB12_2:
	.loc	7 1364 29                       @ ../Library/STM32F4xx_HAL_Driver/Src/stm32f4xx_hal_uart.c:1364:29
	ldrh.w	r0, [sp, #2]
.Ltmp176:
	.loc	7 1364 9                        @ ../Library/STM32F4xx_HAL_Driver/Src/stm32f4xx_hal_uart.c:1364:9
	cbnz	r0, .LBB12_4
	b	.LBB12_3
.LBB12_3:
	.loc	7 0 9                           @ ../Library/STM32F4xx_HAL_Driver/Src/stm32f4xx_hal_uart.c:0:9
	movs	r0, #1
.Ltmp177:
	.loc	7 1366 7 is_stmt 1              @ ../Library/STM32F4xx_HAL_Driver/Src/stm32f4xx_hal_uart.c:1366:7
	strb.w	r0, [sp, #15]
	b	.LBB12_11
.Ltmp178:
.LBB12_4:
	.loc	7 1370 5                        @ ../Library/STM32F4xx_HAL_Driver/Src/stm32f4xx_hal_uart.c:1370:5
	b	.LBB12_5
.LBB12_5:
.Ltmp179:
	.loc	7 1370 5 is_stmt 0              @ ../Library/STM32F4xx_HAL_Driver/Src/stm32f4xx_hal_uart.c:1370:5
	ldr	r0, [sp, #8]
	ldrb.w	r0, [r0, #60]
.Ltmp180:
	.loc	7 1370 5                        @ ../Library/STM32F4xx_HAL_Driver/Src/stm32f4xx_hal_uart.c:1370:5
	cmp	r0, #1
	bne	.LBB12_7
	b	.LBB12_6
.LBB12_6:
	.loc	7 0 5                           @ ../Library/STM32F4xx_HAL_Driver/Src/stm32f4xx_hal_uart.c:0:5
	movs	r0, #2
.Ltmp181:
	.loc	7 1370 5                        @ ../Library/STM32F4xx_HAL_Driver/Src/stm32f4xx_hal_uart.c:1370:5
	strb.w	r0, [sp, #15]
	b	.LBB12_11
.Ltmp182:
.LBB12_7:
	.loc	7 1370 5                        @ ../Library/STM32F4xx_HAL_Driver/Src/stm32f4xx_hal_uart.c:1370:5
	ldr	r1, [sp, #8]
	movs	r0, #1
	strb.w	r0, [r1, #60]
	b	.LBB12_8
.Ltmp183:
.LBB12_8:
	.loc	7 1370 5                        @ ../Library/STM32F4xx_HAL_Driver/Src/stm32f4xx_hal_uart.c:1370:5
	b	.LBB12_9
.Ltmp184:
.LBB12_9:
	.loc	7 1373 5 is_stmt 1              @ ../Library/STM32F4xx_HAL_Driver/Src/stm32f4xx_hal_uart.c:1373:5
	ldr	r1, [sp, #8]
	movs	r0, #0
	.loc	7 1373 26 is_stmt 0             @ ../Library/STM32F4xx_HAL_Driver/Src/stm32f4xx_hal_uart.c:1373:26
	str	r0, [r1, #48]
	.loc	7 1375 35 is_stmt 1             @ ../Library/STM32F4xx_HAL_Driver/Src/stm32f4xx_hal_uart.c:1375:35
	ldr	r0, [sp, #8]
	.loc	7 1375 42 is_stmt 0             @ ../Library/STM32F4xx_HAL_Driver/Src/stm32f4xx_hal_uart.c:1375:42
	ldr	r1, [sp, #4]
	.loc	7 1375 49                       @ ../Library/STM32F4xx_HAL_Driver/Src/stm32f4xx_hal_uart.c:1375:49
	ldrh.w	r2, [sp, #2]
	.loc	7 1375 13                       @ ../Library/STM32F4xx_HAL_Driver/Src/stm32f4xx_hal_uart.c:1375:13
	bl	UART_Start_Receive_IT
	.loc	7 1375 5                        @ ../Library/STM32F4xx_HAL_Driver/Src/stm32f4xx_hal_uart.c:1375:5
	strb.w	r0, [sp, #15]
	b	.LBB12_11
.Ltmp185:
.LBB12_10:
	.loc	7 0 5                           @ ../Library/STM32F4xx_HAL_Driver/Src/stm32f4xx_hal_uart.c:0:5
	movs	r0, #2
.Ltmp186:
	.loc	7 1379 5 is_stmt 1              @ ../Library/STM32F4xx_HAL_Driver/Src/stm32f4xx_hal_uart.c:1379:5
	strb.w	r0, [sp, #15]
	b	.LBB12_11
.Ltmp187:
.LBB12_11:
	.loc	7 1381 1                        @ ../Library/STM32F4xx_HAL_Driver/Src/stm32f4xx_hal_uart.c:1381:1
	ldrb.w	r0, [sp, #15]
	add	sp, #16
	pop	{r7, pc}
.Ltmp188:
.Lfunc_end12:
	.size	HAL_UART_Receive_IT, .Lfunc_end12-HAL_UART_Receive_IT
	.cfi_endproc
	.cantunwind
	.fnend
                                        @ -- End function
	.section	.text.UART_Start_Receive_IT,"ax",%progbits
	.hidden	UART_Start_Receive_IT           @ -- Begin function UART_Start_Receive_IT
	.globl	UART_Start_Receive_IT
	.p2align	2
	.type	UART_Start_Receive_IT,%function
	.code	16                              @ @UART_Start_Receive_IT
	.thumb_func
UART_Start_Receive_IT:
.Lfunc_begin13:
	.loc	7 3209 0                        @ ../Library/STM32F4xx_HAL_Driver/Src/stm32f4xx_hal_uart.c:3209:0
	.fnstart
	.cfi_startproc
@ %bb.0:
	.pad	#12
	sub	sp, #12
	.cfi_def_cfa_offset 12
                                        @ kill: def $r3 killed $r2
	str	r0, [sp, #8]
	str	r1, [sp, #4]
	strh.w	r2, [sp, #2]
.Ltmp189:
	.loc	7 3210 23 prologue_end          @ ../Library/STM32F4xx_HAL_Driver/Src/stm32f4xx_hal_uart.c:3210:23
	ldr	r0, [sp, #4]
	.loc	7 3210 3 is_stmt 0              @ ../Library/STM32F4xx_HAL_Driver/Src/stm32f4xx_hal_uart.c:3210:3
	ldr	r1, [sp, #8]
	.loc	7 3210 21                       @ ../Library/STM32F4xx_HAL_Driver/Src/stm32f4xx_hal_uart.c:3210:21
	str	r0, [r1, #40]
	.loc	7 3211 23 is_stmt 1             @ ../Library/STM32F4xx_HAL_Driver/Src/stm32f4xx_hal_uart.c:3211:23
	ldrh.w	r0, [sp, #2]
	.loc	7 3211 3 is_stmt 0              @ ../Library/STM32F4xx_HAL_Driver/Src/stm32f4xx_hal_uart.c:3211:3
	ldr	r1, [sp, #8]
	.loc	7 3211 21                       @ ../Library/STM32F4xx_HAL_Driver/Src/stm32f4xx_hal_uart.c:3211:21
	strh	r0, [r1, #44]
	.loc	7 3212 24 is_stmt 1             @ ../Library/STM32F4xx_HAL_Driver/Src/stm32f4xx_hal_uart.c:3212:24
	ldrh.w	r0, [sp, #2]
	.loc	7 3212 3 is_stmt 0              @ ../Library/STM32F4xx_HAL_Driver/Src/stm32f4xx_hal_uart.c:3212:3
	ldr	r1, [sp, #8]
	.loc	7 3212 22                       @ ../Library/STM32F4xx_HAL_Driver/Src/stm32f4xx_hal_uart.c:3212:22
	strh	r0, [r1, #46]
	.loc	7 3214 3 is_stmt 1              @ ../Library/STM32F4xx_HAL_Driver/Src/stm32f4xx_hal_uart.c:3214:3
	ldr	r1, [sp, #8]
	movs	r0, #0
	.loc	7 3214 20 is_stmt 0             @ ../Library/STM32F4xx_HAL_Driver/Src/stm32f4xx_hal_uart.c:3214:20
	str	r0, [r1, #64]
	.loc	7 3215 3 is_stmt 1              @ ../Library/STM32F4xx_HAL_Driver/Src/stm32f4xx_hal_uart.c:3215:3
	ldr	r1, [sp, #8]
	movs	r0, #34
	.loc	7 3215 18 is_stmt 0             @ ../Library/STM32F4xx_HAL_Driver/Src/stm32f4xx_hal_uart.c:3215:18
	strb.w	r0, [r1, #62]
	.loc	7 3218 3 is_stmt 1              @ ../Library/STM32F4xx_HAL_Driver/Src/stm32f4xx_hal_uart.c:3218:3
	b	.LBB13_1
.LBB13_1:
.Ltmp190:
	.loc	7 3218 3 is_stmt 0              @ ../Library/STM32F4xx_HAL_Driver/Src/stm32f4xx_hal_uart.c:3218:3
	ldr	r1, [sp, #8]
	movs	r0, #0
	strb.w	r0, [r1, #60]
	b	.LBB13_2
.Ltmp191:
.LBB13_2:
	.loc	7 3221 3 is_stmt 1              @ ../Library/STM32F4xx_HAL_Driver/Src/stm32f4xx_hal_uart.c:3221:3
	ldr	r0, [sp, #8]
	ldr	r1, [r0]
	ldr	r0, [r1, #12]
	orr	r0, r0, #256
	str	r0, [r1, #12]
	.loc	7 3224 3                        @ ../Library/STM32F4xx_HAL_Driver/Src/stm32f4xx_hal_uart.c:3224:3
	ldr	r0, [sp, #8]
	ldr	r1, [r0]
	ldr	r0, [r1, #20]
	orr	r0, r0, #1
	str	r0, [r1, #20]
	.loc	7 3227 3                        @ ../Library/STM32F4xx_HAL_Driver/Src/stm32f4xx_hal_uart.c:3227:3
	ldr	r0, [sp, #8]
	ldr	r1, [r0]
	ldr	r0, [r1, #12]
	orr	r0, r0, #32
	str	r0, [r1, #12]
	movs	r0, #0
	.loc	7 3229 3                        @ ../Library/STM32F4xx_HAL_Driver/Src/stm32f4xx_hal_uart.c:3229:3
	add	sp, #12
	bx	lr
.Ltmp192:
.Lfunc_end13:
	.size	UART_Start_Receive_IT, .Lfunc_end13-UART_Start_Receive_IT
	.cfi_endproc
	.cantunwind
	.fnend
                                        @ -- End function
	.section	.text.HAL_UART_Transmit_DMA,"ax",%progbits
	.hidden	HAL_UART_Transmit_DMA           @ -- Begin function HAL_UART_Transmit_DMA
	.globl	HAL_UART_Transmit_DMA
	.p2align	2
	.type	HAL_UART_Transmit_DMA,%function
	.code	16                              @ @HAL_UART_Transmit_DMA
	.thumb_func
HAL_UART_Transmit_DMA:
.Lfunc_begin14:
	.loc	7 1395 0                        @ ../Library/STM32F4xx_HAL_Driver/Src/stm32f4xx_hal_uart.c:1395:0
	.fnstart
	.cfi_startproc
@ %bb.0:
	.save	{r7, lr}
	push	{r7, lr}
	.cfi_def_cfa_offset 8
	.cfi_offset lr, -4
	.cfi_offset r7, -8
	.pad	#24
	sub	sp, #24
	.cfi_def_cfa_offset 32
                                        @ kill: def $r3 killed $r2
	str	r0, [sp, #16]
	str	r1, [sp, #12]
	strh.w	r2, [sp, #10]
.Ltmp193:
	.loc	7 1399 7 prologue_end           @ ../Library/STM32F4xx_HAL_Driver/Src/stm32f4xx_hal_uart.c:1399:7
	ldr	r0, [sp, #16]
	.loc	7 1399 14 is_stmt 0             @ ../Library/STM32F4xx_HAL_Driver/Src/stm32f4xx_hal_uart.c:1399:14
	ldrb.w	r0, [r0, #61]
.Ltmp194:
	.loc	7 1399 7                        @ ../Library/STM32F4xx_HAL_Driver/Src/stm32f4xx_hal_uart.c:1399:7
	cmp	r0, #32
	bne	.LBB14_17
	b	.LBB14_1
.LBB14_1:
.Ltmp195:
	.loc	7 1401 10 is_stmt 1             @ ../Library/STM32F4xx_HAL_Driver/Src/stm32f4xx_hal_uart.c:1401:10
	ldr	r0, [sp, #12]
	.loc	7 1401 25 is_stmt 0             @ ../Library/STM32F4xx_HAL_Driver/Src/stm32f4xx_hal_uart.c:1401:25
	cbz	r0, .LBB14_3
	b	.LBB14_2
.LBB14_2:
	.loc	7 1401 29                       @ ../Library/STM32F4xx_HAL_Driver/Src/stm32f4xx_hal_uart.c:1401:29
	ldrh.w	r0, [sp, #10]
.Ltmp196:
	.loc	7 1401 9                        @ ../Library/STM32F4xx_HAL_Driver/Src/stm32f4xx_hal_uart.c:1401:9
	cbnz	r0, .LBB14_4
	b	.LBB14_3
.LBB14_3:
	.loc	7 0 9                           @ ../Library/STM32F4xx_HAL_Driver/Src/stm32f4xx_hal_uart.c:0:9
	movs	r0, #1
.Ltmp197:
	.loc	7 1403 7 is_stmt 1              @ ../Library/STM32F4xx_HAL_Driver/Src/stm32f4xx_hal_uart.c:1403:7
	strb.w	r0, [sp, #23]
	b	.LBB14_18
.Ltmp198:
.LBB14_4:
	.loc	7 1407 5                        @ ../Library/STM32F4xx_HAL_Driver/Src/stm32f4xx_hal_uart.c:1407:5
	b	.LBB14_5
.LBB14_5:
.Ltmp199:
	.loc	7 1407 5 is_stmt 0              @ ../Library/STM32F4xx_HAL_Driver/Src/stm32f4xx_hal_uart.c:1407:5
	ldr	r0, [sp, #16]
	ldrb.w	r0, [r0, #60]
.Ltmp200:
	.loc	7 1407 5                        @ ../Library/STM32F4xx_HAL_Driver/Src/stm32f4xx_hal_uart.c:1407:5
	cmp	r0, #1
	bne	.LBB14_7
	b	.LBB14_6
.LBB14_6:
	.loc	7 0 5                           @ ../Library/STM32F4xx_HAL_Driver/Src/stm32f4xx_hal_uart.c:0:5
	movs	r0, #2
.Ltmp201:
	.loc	7 1407 5                        @ ../Library/STM32F4xx_HAL_Driver/Src/stm32f4xx_hal_uart.c:1407:5
	strb.w	r0, [sp, #23]
	b	.LBB14_18
.Ltmp202:
.LBB14_7:
	.loc	7 1407 5                        @ ../Library/STM32F4xx_HAL_Driver/Src/stm32f4xx_hal_uart.c:1407:5
	ldr	r1, [sp, #16]
	movs	r0, #1
	strb.w	r0, [r1, #60]
	b	.LBB14_8
.Ltmp203:
.LBB14_8:
	.loc	7 1407 5                        @ ../Library/STM32F4xx_HAL_Driver/Src/stm32f4xx_hal_uart.c:1407:5
	b	.LBB14_9
.Ltmp204:
.LBB14_9:
	.loc	7 1409 25 is_stmt 1             @ ../Library/STM32F4xx_HAL_Driver/Src/stm32f4xx_hal_uart.c:1409:25
	ldr	r0, [sp, #12]
	.loc	7 1409 5 is_stmt 0              @ ../Library/STM32F4xx_HAL_Driver/Src/stm32f4xx_hal_uart.c:1409:5
	ldr	r1, [sp, #16]
	.loc	7 1409 23                       @ ../Library/STM32F4xx_HAL_Driver/Src/stm32f4xx_hal_uart.c:1409:23
	str	r0, [r1, #32]
	.loc	7 1410 25 is_stmt 1             @ ../Library/STM32F4xx_HAL_Driver/Src/stm32f4xx_hal_uart.c:1410:25
	ldrh.w	r0, [sp, #10]
	.loc	7 1410 5 is_stmt 0              @ ../Library/STM32F4xx_HAL_Driver/Src/stm32f4xx_hal_uart.c:1410:5
	ldr	r1, [sp, #16]
	.loc	7 1410 23                       @ ../Library/STM32F4xx_HAL_Driver/Src/stm32f4xx_hal_uart.c:1410:23
	strh	r0, [r1, #36]
	.loc	7 1411 26 is_stmt 1             @ ../Library/STM32F4xx_HAL_Driver/Src/stm32f4xx_hal_uart.c:1411:26
	ldrh.w	r0, [sp, #10]
	.loc	7 1411 5 is_stmt 0              @ ../Library/STM32F4xx_HAL_Driver/Src/stm32f4xx_hal_uart.c:1411:5
	ldr	r1, [sp, #16]
	.loc	7 1411 24                       @ ../Library/STM32F4xx_HAL_Driver/Src/stm32f4xx_hal_uart.c:1411:24
	strh	r0, [r1, #38]
	.loc	7 1413 5 is_stmt 1              @ ../Library/STM32F4xx_HAL_Driver/Src/stm32f4xx_hal_uart.c:1413:5
	ldr	r1, [sp, #16]
	movs	r0, #0
	.loc	7 1413 22 is_stmt 0             @ ../Library/STM32F4xx_HAL_Driver/Src/stm32f4xx_hal_uart.c:1413:22
	str	r0, [r1, #64]
	.loc	7 1414 5 is_stmt 1              @ ../Library/STM32F4xx_HAL_Driver/Src/stm32f4xx_hal_uart.c:1414:5
	ldr	r2, [sp, #16]
	movs	r1, #33
	.loc	7 1414 19 is_stmt 0             @ ../Library/STM32F4xx_HAL_Driver/Src/stm32f4xx_hal_uart.c:1414:19
	strb.w	r1, [r2, #61]
	.loc	7 1417 5 is_stmt 1              @ ../Library/STM32F4xx_HAL_Driver/Src/stm32f4xx_hal_uart.c:1417:5
	ldr	r1, [sp, #16]
	.loc	7 1417 12 is_stmt 0             @ ../Library/STM32F4xx_HAL_Driver/Src/stm32f4xx_hal_uart.c:1417:12
	ldr	r2, [r1, #52]
	.loc	7 1417 37                       @ ../Library/STM32F4xx_HAL_Driver/Src/stm32f4xx_hal_uart.c:1417:37
	movw	r1, :lower16:UART_DMATransmitCplt
	movt	r1, :upper16:UART_DMATransmitCplt
	str	r1, [r2, #60]
	.loc	7 1420 5 is_stmt 1              @ ../Library/STM32F4xx_HAL_Driver/Src/stm32f4xx_hal_uart.c:1420:5
	ldr	r1, [sp, #16]
	.loc	7 1420 12 is_stmt 0             @ ../Library/STM32F4xx_HAL_Driver/Src/stm32f4xx_hal_uart.c:1420:12
	ldr	r2, [r1, #52]
	.loc	7 1420 41                       @ ../Library/STM32F4xx_HAL_Driver/Src/stm32f4xx_hal_uart.c:1420:41
	movw	r1, :lower16:UART_DMATxHalfCplt
	movt	r1, :upper16:UART_DMATxHalfCplt
	str	r1, [r2, #64]
	.loc	7 1423 5 is_stmt 1              @ ../Library/STM32F4xx_HAL_Driver/Src/stm32f4xx_hal_uart.c:1423:5
	ldr	r1, [sp, #16]
	.loc	7 1423 12 is_stmt 0             @ ../Library/STM32F4xx_HAL_Driver/Src/stm32f4xx_hal_uart.c:1423:12
	ldr	r2, [r1, #52]
	.loc	7 1423 38                       @ ../Library/STM32F4xx_HAL_Driver/Src/stm32f4xx_hal_uart.c:1423:38
	movw	r1, :lower16:UART_DMAError
	movt	r1, :upper16:UART_DMAError
	str	r1, [r2, #76]
	.loc	7 1426 5 is_stmt 1              @ ../Library/STM32F4xx_HAL_Driver/Src/stm32f4xx_hal_uart.c:1426:5
	ldr	r1, [sp, #16]
	.loc	7 1426 12 is_stmt 0             @ ../Library/STM32F4xx_HAL_Driver/Src/stm32f4xx_hal_uart.c:1426:12
	ldr	r1, [r1, #52]
	.loc	7 1426 38                       @ ../Library/STM32F4xx_HAL_Driver/Src/stm32f4xx_hal_uart.c:1426:38
	str	r0, [r1, #80]
	add	r0, sp, #12
	.loc	7 1429 9 is_stmt 1              @ ../Library/STM32F4xx_HAL_Driver/Src/stm32f4xx_hal_uart.c:1429:9
	str	r0, [sp, #4]
	.loc	7 1430 22                       @ ../Library/STM32F4xx_HAL_Driver/Src/stm32f4xx_hal_uart.c:1430:22
	ldr	r0, [sp, #16]
	.loc	7 1430 73 is_stmt 0             @ ../Library/STM32F4xx_HAL_Driver/Src/stm32f4xx_hal_uart.c:1430:73
	ldr	r2, [r0]
	.loc	7 1430 29                       @ ../Library/STM32F4xx_HAL_Driver/Src/stm32f4xx_hal_uart.c:1430:29
	ldr	r0, [r0, #52]
	.loc	7 1430 50                       @ ../Library/STM32F4xx_HAL_Driver/Src/stm32f4xx_hal_uart.c:1430:50
	ldr	r1, [sp, #4]
	.loc	7 1430 37                       @ ../Library/STM32F4xx_HAL_Driver/Src/stm32f4xx_hal_uart.c:1430:37
	ldr	r1, [r1]
	.loc	7 1430 83                       @ ../Library/STM32F4xx_HAL_Driver/Src/stm32f4xx_hal_uart.c:1430:83
	adds	r2, #4
	.loc	7 1430 87                       @ ../Library/STM32F4xx_HAL_Driver/Src/stm32f4xx_hal_uart.c:1430:87
	ldrh.w	r3, [sp, #10]
	.loc	7 1430 5                        @ ../Library/STM32F4xx_HAL_Driver/Src/stm32f4xx_hal_uart.c:1430:5
	bl	HAL_DMA_Start_IT
	.loc	7 1433 5 is_stmt 1              @ ../Library/STM32F4xx_HAL_Driver/Src/stm32f4xx_hal_uart.c:1433:5
	ldr	r0, [sp, #16]
	ldr	r1, [r0]
	mvn	r0, #64
	str	r0, [r1]
	.loc	7 1436 5                        @ ../Library/STM32F4xx_HAL_Driver/Src/stm32f4xx_hal_uart.c:1436:5
	b	.LBB14_10
.LBB14_10:
.Ltmp205:
	.loc	7 1436 5 is_stmt 0              @ ../Library/STM32F4xx_HAL_Driver/Src/stm32f4xx_hal_uart.c:1436:5
	ldr	r1, [sp, #16]
	movs	r0, #0
	strb.w	r0, [r1, #60]
	b	.LBB14_11
.Ltmp206:
.LBB14_11:
	.loc	7 1440 5 is_stmt 1              @ ../Library/STM32F4xx_HAL_Driver/Src/stm32f4xx_hal_uart.c:1440:5
	b	.LBB14_12
.LBB14_12:
.Ltmp207:
	.loc	7 1440 5 is_stmt 0              @ ../Library/STM32F4xx_HAL_Driver/Src/stm32f4xx_hal_uart.c:1440:5
	b	.LBB14_13
.LBB14_13:                              @ =>This Inner Loop Header: Depth=1
.Ltmp208:
	.loc	7 1440 5                        @ ../Library/STM32F4xx_HAL_Driver/Src/stm32f4xx_hal_uart.c:1440:5
	ldr	r0, [sp, #16]
	ldr	r0, [r0]
	ldrex	r0, [r0, #20]
	orr	r0, r0, #128
	str	r0, [sp]
	b	.LBB14_14
.Ltmp209:
.LBB14_14:                              @   in Loop: Header=BB14_13 Depth=1
	.loc	7 1440 5                        @ ../Library/STM32F4xx_HAL_Driver/Src/stm32f4xx_hal_uart.c:1440:5
	ldr	r1, [sp]
	ldr	r0, [sp, #16]
	ldr	r2, [r0]
	strex	r0, r1, [r2, #20]
.Ltmp210:
	.loc	7 1440 5                        @ ../Library/STM32F4xx_HAL_Driver/Src/stm32f4xx_hal_uart.c:1440:5
	cmp	r0, #0
	bne	.LBB14_13
	b	.LBB14_15
.Ltmp211:
.LBB14_15:
	.loc	7 1440 5                        @ ../Library/STM32F4xx_HAL_Driver/Src/stm32f4xx_hal_uart.c:1440:5
	b	.LBB14_16
.Ltmp212:
.LBB14_16:
	.loc	7 0 5                           @ ../Library/STM32F4xx_HAL_Driver/Src/stm32f4xx_hal_uart.c:0:5
	movs	r0, #0
	.loc	7 1442 5 is_stmt 1              @ ../Library/STM32F4xx_HAL_Driver/Src/stm32f4xx_hal_uart.c:1442:5
	strb.w	r0, [sp, #23]
	b	.LBB14_18
.Ltmp213:
.LBB14_17:
	.loc	7 0 5 is_stmt 0                 @ ../Library/STM32F4xx_HAL_Driver/Src/stm32f4xx_hal_uart.c:0:5
	movs	r0, #2
.Ltmp214:
	.loc	7 1446 5 is_stmt 1              @ ../Library/STM32F4xx_HAL_Driver/Src/stm32f4xx_hal_uart.c:1446:5
	strb.w	r0, [sp, #23]
	b	.LBB14_18
.Ltmp215:
.LBB14_18:
	.loc	7 1448 1                        @ ../Library/STM32F4xx_HAL_Driver/Src/stm32f4xx_hal_uart.c:1448:1
	ldrb.w	r0, [sp, #23]
	add	sp, #24
	pop	{r7, pc}
.Ltmp216:
.Lfunc_end14:
	.size	HAL_UART_Transmit_DMA, .Lfunc_end14-HAL_UART_Transmit_DMA
	.cfi_endproc
	.cantunwind
	.fnend
                                        @ -- End function
	.section	.text.UART_DMATransmitCplt,"ax",%progbits
	.p2align	2                               @ -- Begin function UART_DMATransmitCplt
	.type	UART_DMATransmitCplt,%function
	.code	16                              @ @UART_DMATransmitCplt
	.thumb_func
UART_DMATransmitCplt:
.Lfunc_begin15:
	.loc	7 2983 0                        @ ../Library/STM32F4xx_HAL_Driver/Src/stm32f4xx_hal_uart.c:2983:0
	.fnstart
	.cfi_startproc
@ %bb.0:
	.save	{r7, lr}
	push	{r7, lr}
	.cfi_def_cfa_offset 8
	.cfi_offset lr, -4
	.cfi_offset r7, -8
	.pad	#16
	sub	sp, #16
	.cfi_def_cfa_offset 24
	str	r0, [sp, #12]
.Ltmp217:
	.loc	7 2984 75 prologue_end          @ ../Library/STM32F4xx_HAL_Driver/Src/stm32f4xx_hal_uart.c:2984:75
	ldr	r0, [sp, #12]
	.loc	7 2984 82 is_stmt 0             @ ../Library/STM32F4xx_HAL_Driver/Src/stm32f4xx_hal_uart.c:2984:82
	ldr	r0, [r0, #56]
	.loc	7 2984 23                       @ ../Library/STM32F4xx_HAL_Driver/Src/stm32f4xx_hal_uart.c:2984:23
	str	r0, [sp, #8]
.Ltmp218:
	.loc	7 2986 8 is_stmt 1              @ ../Library/STM32F4xx_HAL_Driver/Src/stm32f4xx_hal_uart.c:2986:8
	ldr	r0, [sp, #12]
	.loc	7 2986 14 is_stmt 0             @ ../Library/STM32F4xx_HAL_Driver/Src/stm32f4xx_hal_uart.c:2986:14
	ldr	r0, [r0]
	.loc	7 2986 24                       @ ../Library/STM32F4xx_HAL_Driver/Src/stm32f4xx_hal_uart.c:2986:24
	ldr	r0, [r0]
.Ltmp219:
	.loc	7 2986 7                        @ ../Library/STM32F4xx_HAL_Driver/Src/stm32f4xx_hal_uart.c:2986:7
	lsls	r0, r0, #23
	cmp	r0, #0
	bmi	.LBB15_12
	b	.LBB15_1
.LBB15_1:
.Ltmp220:
	.loc	7 2988 5 is_stmt 1              @ ../Library/STM32F4xx_HAL_Driver/Src/stm32f4xx_hal_uart.c:2988:5
	ldr	r1, [sp, #8]
	movs	r0, #0
	.loc	7 2988 24 is_stmt 0             @ ../Library/STM32F4xx_HAL_Driver/Src/stm32f4xx_hal_uart.c:2988:24
	strh	r0, [r1, #38]
	.loc	7 2992 5 is_stmt 1              @ ../Library/STM32F4xx_HAL_Driver/Src/stm32f4xx_hal_uart.c:2992:5
	b	.LBB15_2
.LBB15_2:
.Ltmp221:
	.loc	7 2992 5 is_stmt 0              @ ../Library/STM32F4xx_HAL_Driver/Src/stm32f4xx_hal_uart.c:2992:5
	b	.LBB15_3
.LBB15_3:                               @ =>This Inner Loop Header: Depth=1
.Ltmp222:
	.loc	7 2992 5                        @ ../Library/STM32F4xx_HAL_Driver/Src/stm32f4xx_hal_uart.c:2992:5
	ldr	r0, [sp, #8]
	ldr	r0, [r0]
	ldrex	r0, [r0, #20]
	bic	r0, r0, #128
	str	r0, [sp, #4]
	b	.LBB15_4
.Ltmp223:
.LBB15_4:                               @   in Loop: Header=BB15_3 Depth=1
	.loc	7 2992 5                        @ ../Library/STM32F4xx_HAL_Driver/Src/stm32f4xx_hal_uart.c:2992:5
	ldr	r1, [sp, #4]
	ldr	r0, [sp, #8]
	ldr	r2, [r0]
	strex	r0, r1, [r2, #20]
.Ltmp224:
	.loc	7 2992 5                        @ ../Library/STM32F4xx_HAL_Driver/Src/stm32f4xx_hal_uart.c:2992:5
	cmp	r0, #0
	bne	.LBB15_3
	b	.LBB15_5
.Ltmp225:
.LBB15_5:
	.loc	7 2992 5                        @ ../Library/STM32F4xx_HAL_Driver/Src/stm32f4xx_hal_uart.c:2992:5
	b	.LBB15_6
.Ltmp226:
.LBB15_6:
	.loc	7 2995 5 is_stmt 1              @ ../Library/STM32F4xx_HAL_Driver/Src/stm32f4xx_hal_uart.c:2995:5
	b	.LBB15_7
.LBB15_7:
.Ltmp227:
	.loc	7 2995 5 is_stmt 0              @ ../Library/STM32F4xx_HAL_Driver/Src/stm32f4xx_hal_uart.c:2995:5
	b	.LBB15_8
.LBB15_8:                               @ =>This Inner Loop Header: Depth=1
.Ltmp228:
	.loc	7 2995 5                        @ ../Library/STM32F4xx_HAL_Driver/Src/stm32f4xx_hal_uart.c:2995:5
	ldr	r0, [sp, #8]
	ldr	r0, [r0]
	ldrex	r0, [r0, #12]
	orr	r0, r0, #64
	str	r0, [sp]
	b	.LBB15_9
.Ltmp229:
.LBB15_9:                               @   in Loop: Header=BB15_8 Depth=1
	.loc	7 2995 5                        @ ../Library/STM32F4xx_HAL_Driver/Src/stm32f4xx_hal_uart.c:2995:5
	ldr	r1, [sp]
	ldr	r0, [sp, #8]
	ldr	r2, [r0]
	strex	r0, r1, [r2, #12]
.Ltmp230:
	.loc	7 2995 5                        @ ../Library/STM32F4xx_HAL_Driver/Src/stm32f4xx_hal_uart.c:2995:5
	cmp	r0, #0
	bne	.LBB15_8
	b	.LBB15_10
.Ltmp231:
.LBB15_10:
	.loc	7 2995 5                        @ ../Library/STM32F4xx_HAL_Driver/Src/stm32f4xx_hal_uart.c:2995:5
	b	.LBB15_11
.Ltmp232:
.LBB15_11:
	.loc	7 2997 3 is_stmt 1              @ ../Library/STM32F4xx_HAL_Driver/Src/stm32f4xx_hal_uart.c:2997:3
	b	.LBB15_13
.Ltmp233:
.LBB15_12:
	.loc	7 3006 29                       @ ../Library/STM32F4xx_HAL_Driver/Src/stm32f4xx_hal_uart.c:3006:29
	ldr	r0, [sp, #8]
	.loc	7 3006 5 is_stmt 0              @ ../Library/STM32F4xx_HAL_Driver/Src/stm32f4xx_hal_uart.c:3006:5
	bl	HAL_UART_TxCpltCallback
	b	.LBB15_13
.Ltmp234:
.LBB15_13:
	.loc	7 3009 1 is_stmt 1              @ ../Library/STM32F4xx_HAL_Driver/Src/stm32f4xx_hal_uart.c:3009:1
	add	sp, #16
	pop	{r7, pc}
.Ltmp235:
.Lfunc_end15:
	.size	UART_DMATransmitCplt, .Lfunc_end15-UART_DMATransmitCplt
	.cfi_endproc
	.cantunwind
	.fnend
                                        @ -- End function
	.section	.text.UART_DMATxHalfCplt,"ax",%progbits
	.p2align	2                               @ -- Begin function UART_DMATxHalfCplt
	.type	UART_DMATxHalfCplt,%function
	.code	16                              @ @UART_DMATxHalfCplt
	.thumb_func
UART_DMATxHalfCplt:
.Lfunc_begin16:
	.loc	7 3018 0                        @ ../Library/STM32F4xx_HAL_Driver/Src/stm32f4xx_hal_uart.c:3018:0
	.fnstart
	.cfi_startproc
@ %bb.0:
	.save	{r7, lr}
	push	{r7, lr}
	.cfi_def_cfa_offset 8
	.cfi_offset lr, -4
	.cfi_offset r7, -8
	.pad	#8
	sub	sp, #8
	.cfi_def_cfa_offset 16
	str	r0, [sp, #4]
.Ltmp236:
	.loc	7 3019 75 prologue_end          @ ../Library/STM32F4xx_HAL_Driver/Src/stm32f4xx_hal_uart.c:3019:75
	ldr	r0, [sp, #4]
	.loc	7 3019 82 is_stmt 0             @ ../Library/STM32F4xx_HAL_Driver/Src/stm32f4xx_hal_uart.c:3019:82
	ldr	r0, [r0, #56]
	.loc	7 3019 23                       @ ../Library/STM32F4xx_HAL_Driver/Src/stm32f4xx_hal_uart.c:3019:23
	str	r0, [sp]
	.loc	7 3026 31 is_stmt 1             @ ../Library/STM32F4xx_HAL_Driver/Src/stm32f4xx_hal_uart.c:3026:31
	ldr	r0, [sp]
	.loc	7 3026 3 is_stmt 0              @ ../Library/STM32F4xx_HAL_Driver/Src/stm32f4xx_hal_uart.c:3026:3
	bl	HAL_UART_TxHalfCpltCallback
	.loc	7 3028 1 is_stmt 1              @ ../Library/STM32F4xx_HAL_Driver/Src/stm32f4xx_hal_uart.c:3028:1
	add	sp, #8
	pop	{r7, pc}
.Ltmp237:
.Lfunc_end16:
	.size	UART_DMATxHalfCplt, .Lfunc_end16-UART_DMATxHalfCplt
	.cfi_endproc
	.cantunwind
	.fnend
                                        @ -- End function
	.section	.text.UART_DMAError,"ax",%progbits
	.p2align	2                               @ -- Begin function UART_DMAError
	.type	UART_DMAError,%function
	.code	16                              @ @UART_DMAError
	.thumb_func
UART_DMAError:
.Lfunc_begin17:
	.loc	7 3129 0                        @ ../Library/STM32F4xx_HAL_Driver/Src/stm32f4xx_hal_uart.c:3129:0
	.fnstart
	.cfi_startproc
@ %bb.0:
	.save	{r7, lr}
	push	{r7, lr}
	.cfi_def_cfa_offset 8
	.cfi_offset lr, -4
	.cfi_offset r7, -8
	.pad	#16
	sub	sp, #16
	.cfi_def_cfa_offset 24
	str	r0, [sp, #12]
	movs	r0, #0
.Ltmp238:
	.loc	7 3130 12 prologue_end          @ ../Library/STM32F4xx_HAL_Driver/Src/stm32f4xx_hal_uart.c:3130:12
	str	r0, [sp, #8]
	.loc	7 3131 75                       @ ../Library/STM32F4xx_HAL_Driver/Src/stm32f4xx_hal_uart.c:3131:75
	ldr	r0, [sp, #12]
	.loc	7 3131 82 is_stmt 0             @ ../Library/STM32F4xx_HAL_Driver/Src/stm32f4xx_hal_uart.c:3131:82
	ldr	r0, [r0, #56]
	.loc	7 3131 23                       @ ../Library/STM32F4xx_HAL_Driver/Src/stm32f4xx_hal_uart.c:3131:23
	str	r0, [sp, #4]
	.loc	7 3134 16 is_stmt 1             @ ../Library/STM32F4xx_HAL_Driver/Src/stm32f4xx_hal_uart.c:3134:16
	ldr	r0, [sp, #4]
	ldr	r0, [r0]
	ldr	r0, [r0, #20]
	uxtb	r0, r0
	lsrs	r0, r0, #7
	.loc	7 3134 14 is_stmt 0             @ ../Library/STM32F4xx_HAL_Driver/Src/stm32f4xx_hal_uart.c:3134:14
	str	r0, [sp, #8]
.Ltmp239:
	.loc	7 3135 8 is_stmt 1              @ ../Library/STM32F4xx_HAL_Driver/Src/stm32f4xx_hal_uart.c:3135:8
	ldr	r0, [sp, #4]
	.loc	7 3135 15 is_stmt 0             @ ../Library/STM32F4xx_HAL_Driver/Src/stm32f4xx_hal_uart.c:3135:15
	ldrb.w	r0, [r0, #61]
	.loc	7 3135 49                       @ ../Library/STM32F4xx_HAL_Driver/Src/stm32f4xx_hal_uart.c:3135:49
	cmp	r0, #33
	bne	.LBB17_3
	b	.LBB17_1
.LBB17_1:
	.loc	7 3135 52                       @ ../Library/STM32F4xx_HAL_Driver/Src/stm32f4xx_hal_uart.c:3135:52
	ldr	r0, [sp, #8]
.Ltmp240:
	.loc	7 3135 7                        @ ../Library/STM32F4xx_HAL_Driver/Src/stm32f4xx_hal_uart.c:3135:7
	cbz	r0, .LBB17_3
	b	.LBB17_2
.LBB17_2:
.Ltmp241:
	.loc	7 3137 5 is_stmt 1              @ ../Library/STM32F4xx_HAL_Driver/Src/stm32f4xx_hal_uart.c:3137:5
	ldr	r1, [sp, #4]
	movs	r0, #0
	.loc	7 3137 24 is_stmt 0             @ ../Library/STM32F4xx_HAL_Driver/Src/stm32f4xx_hal_uart.c:3137:24
	strh	r0, [r1, #38]
	.loc	7 3138 24 is_stmt 1             @ ../Library/STM32F4xx_HAL_Driver/Src/stm32f4xx_hal_uart.c:3138:24
	ldr	r0, [sp, #4]
	.loc	7 3138 5 is_stmt 0              @ ../Library/STM32F4xx_HAL_Driver/Src/stm32f4xx_hal_uart.c:3138:5
	bl	UART_EndTxTransfer
	.loc	7 3139 3 is_stmt 1              @ ../Library/STM32F4xx_HAL_Driver/Src/stm32f4xx_hal_uart.c:3139:3
	b	.LBB17_3
.Ltmp242:
.LBB17_3:
	.loc	7 3142 16                       @ ../Library/STM32F4xx_HAL_Driver/Src/stm32f4xx_hal_uart.c:3142:16
	ldr	r0, [sp, #4]
	ldr	r0, [r0]
	ldr	r0, [r0, #20]
	ubfx	r0, r0, #6, #1
	.loc	7 3142 14 is_stmt 0             @ ../Library/STM32F4xx_HAL_Driver/Src/stm32f4xx_hal_uart.c:3142:14
	str	r0, [sp, #8]
.Ltmp243:
	.loc	7 3143 8 is_stmt 1              @ ../Library/STM32F4xx_HAL_Driver/Src/stm32f4xx_hal_uart.c:3143:8
	ldr	r0, [sp, #4]
	.loc	7 3143 15 is_stmt 0             @ ../Library/STM32F4xx_HAL_Driver/Src/stm32f4xx_hal_uart.c:3143:15
	ldrb.w	r0, [r0, #62]
	.loc	7 3143 50                       @ ../Library/STM32F4xx_HAL_Driver/Src/stm32f4xx_hal_uart.c:3143:50
	cmp	r0, #34
	bne	.LBB17_6
	b	.LBB17_4
.LBB17_4:
	.loc	7 3143 53                       @ ../Library/STM32F4xx_HAL_Driver/Src/stm32f4xx_hal_uart.c:3143:53
	ldr	r0, [sp, #8]
.Ltmp244:
	.loc	7 3143 7                        @ ../Library/STM32F4xx_HAL_Driver/Src/stm32f4xx_hal_uart.c:3143:7
	cbz	r0, .LBB17_6
	b	.LBB17_5
.LBB17_5:
.Ltmp245:
	.loc	7 3145 5 is_stmt 1              @ ../Library/STM32F4xx_HAL_Driver/Src/stm32f4xx_hal_uart.c:3145:5
	ldr	r1, [sp, #4]
	movs	r0, #0
	.loc	7 3145 24 is_stmt 0             @ ../Library/STM32F4xx_HAL_Driver/Src/stm32f4xx_hal_uart.c:3145:24
	strh	r0, [r1, #46]
	.loc	7 3146 24 is_stmt 1             @ ../Library/STM32F4xx_HAL_Driver/Src/stm32f4xx_hal_uart.c:3146:24
	ldr	r0, [sp, #4]
	.loc	7 3146 5 is_stmt 0              @ ../Library/STM32F4xx_HAL_Driver/Src/stm32f4xx_hal_uart.c:3146:5
	bl	UART_EndRxTransfer
	.loc	7 3147 3 is_stmt 1              @ ../Library/STM32F4xx_HAL_Driver/Src/stm32f4xx_hal_uart.c:3147:3
	b	.LBB17_6
.Ltmp246:
.LBB17_6:
	.loc	7 3149 3                        @ ../Library/STM32F4xx_HAL_Driver/Src/stm32f4xx_hal_uart.c:3149:3
	ldr	r1, [sp, #4]
	.loc	7 3149 20 is_stmt 0             @ ../Library/STM32F4xx_HAL_Driver/Src/stm32f4xx_hal_uart.c:3149:20
	ldr	r0, [r1, #64]
	orr	r0, r0, #16
	str	r0, [r1, #64]
	.loc	7 3155 26 is_stmt 1             @ ../Library/STM32F4xx_HAL_Driver/Src/stm32f4xx_hal_uart.c:3155:26
	ldr	r0, [sp, #4]
	.loc	7 3155 3 is_stmt 0              @ ../Library/STM32F4xx_HAL_Driver/Src/stm32f4xx_hal_uart.c:3155:3
	bl	HAL_UART_ErrorCallback
	.loc	7 3157 1 is_stmt 1              @ ../Library/STM32F4xx_HAL_Driver/Src/stm32f4xx_hal_uart.c:3157:1
	add	sp, #16
	pop	{r7, pc}
.Ltmp247:
.Lfunc_end17:
	.size	UART_DMAError, .Lfunc_end17-UART_DMAError
	.cfi_endproc
	.cantunwind
	.fnend
                                        @ -- End function
	.section	.text.HAL_UART_Receive_DMA,"ax",%progbits
	.hidden	HAL_UART_Receive_DMA            @ -- Begin function HAL_UART_Receive_DMA
	.globl	HAL_UART_Receive_DMA
	.p2align	2
	.type	HAL_UART_Receive_DMA,%function
	.code	16                              @ @HAL_UART_Receive_DMA
	.thumb_func
HAL_UART_Receive_DMA:
.Lfunc_begin18:
	.loc	7 1463 0                        @ ../Library/STM32F4xx_HAL_Driver/Src/stm32f4xx_hal_uart.c:1463:0
	.fnstart
	.cfi_startproc
@ %bb.0:
	.save	{r7, lr}
	push	{r7, lr}
	.cfi_def_cfa_offset 8
	.cfi_offset lr, -4
	.cfi_offset r7, -8
	.pad	#16
	sub	sp, #16
	.cfi_def_cfa_offset 24
                                        @ kill: def $r3 killed $r2
	str	r0, [sp, #8]
	str	r1, [sp, #4]
	strh.w	r2, [sp, #2]
.Ltmp248:
	.loc	7 1465 7 prologue_end           @ ../Library/STM32F4xx_HAL_Driver/Src/stm32f4xx_hal_uart.c:1465:7
	ldr	r0, [sp, #8]
	.loc	7 1465 14 is_stmt 0             @ ../Library/STM32F4xx_HAL_Driver/Src/stm32f4xx_hal_uart.c:1465:14
	ldrb.w	r0, [r0, #62]
.Ltmp249:
	.loc	7 1465 7                        @ ../Library/STM32F4xx_HAL_Driver/Src/stm32f4xx_hal_uart.c:1465:7
	cmp	r0, #32
	bne	.LBB18_10
	b	.LBB18_1
.LBB18_1:
.Ltmp250:
	.loc	7 1467 10 is_stmt 1             @ ../Library/STM32F4xx_HAL_Driver/Src/stm32f4xx_hal_uart.c:1467:10
	ldr	r0, [sp, #4]
	.loc	7 1467 25 is_stmt 0             @ ../Library/STM32F4xx_HAL_Driver/Src/stm32f4xx_hal_uart.c:1467:25
	cbz	r0, .LBB18_3
	b	.LBB18_2
.LBB18_2:
	.loc	7 1467 29                       @ ../Library/STM32F4xx_HAL_Driver/Src/stm32f4xx_hal_uart.c:1467:29
	ldrh.w	r0, [sp, #2]
.Ltmp251:
	.loc	7 1467 9                        @ ../Library/STM32F4xx_HAL_Driver/Src/stm32f4xx_hal_uart.c:1467:9
	cbnz	r0, .LBB18_4
	b	.LBB18_3
.LBB18_3:
	.loc	7 0 9                           @ ../Library/STM32F4xx_HAL_Driver/Src/stm32f4xx_hal_uart.c:0:9
	movs	r0, #1
.Ltmp252:
	.loc	7 1469 7 is_stmt 1              @ ../Library/STM32F4xx_HAL_Driver/Src/stm32f4xx_hal_uart.c:1469:7
	strb.w	r0, [sp, #15]
	b	.LBB18_11
.Ltmp253:
.LBB18_4:
	.loc	7 1473 5                        @ ../Library/STM32F4xx_HAL_Driver/Src/stm32f4xx_hal_uart.c:1473:5
	b	.LBB18_5
.LBB18_5:
.Ltmp254:
	.loc	7 1473 5 is_stmt 0              @ ../Library/STM32F4xx_HAL_Driver/Src/stm32f4xx_hal_uart.c:1473:5
	ldr	r0, [sp, #8]
	ldrb.w	r0, [r0, #60]
.Ltmp255:
	.loc	7 1473 5                        @ ../Library/STM32F4xx_HAL_Driver/Src/stm32f4xx_hal_uart.c:1473:5
	cmp	r0, #1
	bne	.LBB18_7
	b	.LBB18_6
.LBB18_6:
	.loc	7 0 5                           @ ../Library/STM32F4xx_HAL_Driver/Src/stm32f4xx_hal_uart.c:0:5
	movs	r0, #2
.Ltmp256:
	.loc	7 1473 5                        @ ../Library/STM32F4xx_HAL_Driver/Src/stm32f4xx_hal_uart.c:1473:5
	strb.w	r0, [sp, #15]
	b	.LBB18_11
.Ltmp257:
.LBB18_7:
	.loc	7 1473 5                        @ ../Library/STM32F4xx_HAL_Driver/Src/stm32f4xx_hal_uart.c:1473:5
	ldr	r1, [sp, #8]
	movs	r0, #1
	strb.w	r0, [r1, #60]
	b	.LBB18_8
.Ltmp258:
.LBB18_8:
	.loc	7 1473 5                        @ ../Library/STM32F4xx_HAL_Driver/Src/stm32f4xx_hal_uart.c:1473:5
	b	.LBB18_9
.Ltmp259:
.LBB18_9:
	.loc	7 1476 5 is_stmt 1              @ ../Library/STM32F4xx_HAL_Driver/Src/stm32f4xx_hal_uart.c:1476:5
	ldr	r1, [sp, #8]
	movs	r0, #0
	.loc	7 1476 26 is_stmt 0             @ ../Library/STM32F4xx_HAL_Driver/Src/stm32f4xx_hal_uart.c:1476:26
	str	r0, [r1, #48]
	.loc	7 1478 36 is_stmt 1             @ ../Library/STM32F4xx_HAL_Driver/Src/stm32f4xx_hal_uart.c:1478:36
	ldr	r0, [sp, #8]
	.loc	7 1478 43 is_stmt 0             @ ../Library/STM32F4xx_HAL_Driver/Src/stm32f4xx_hal_uart.c:1478:43
	ldr	r1, [sp, #4]
	.loc	7 1478 50                       @ ../Library/STM32F4xx_HAL_Driver/Src/stm32f4xx_hal_uart.c:1478:50
	ldrh.w	r2, [sp, #2]
	.loc	7 1478 13                       @ ../Library/STM32F4xx_HAL_Driver/Src/stm32f4xx_hal_uart.c:1478:13
	bl	UART_Start_Receive_DMA
	.loc	7 1478 5                        @ ../Library/STM32F4xx_HAL_Driver/Src/stm32f4xx_hal_uart.c:1478:5
	strb.w	r0, [sp, #15]
	b	.LBB18_11
.Ltmp260:
.LBB18_10:
	.loc	7 0 5                           @ ../Library/STM32F4xx_HAL_Driver/Src/stm32f4xx_hal_uart.c:0:5
	movs	r0, #2
.Ltmp261:
	.loc	7 1482 5 is_stmt 1              @ ../Library/STM32F4xx_HAL_Driver/Src/stm32f4xx_hal_uart.c:1482:5
	strb.w	r0, [sp, #15]
	b	.LBB18_11
.Ltmp262:
.LBB18_11:
	.loc	7 1484 1                        @ ../Library/STM32F4xx_HAL_Driver/Src/stm32f4xx_hal_uart.c:1484:1
	ldrb.w	r0, [sp, #15]
	add	sp, #16
	pop	{r7, pc}
.Ltmp263:
.Lfunc_end18:
	.size	HAL_UART_Receive_DMA, .Lfunc_end18-HAL_UART_Receive_DMA
	.cfi_endproc
	.cantunwind
	.fnend
                                        @ -- End function
	.section	.text.UART_Start_Receive_DMA,"ax",%progbits
	.hidden	UART_Start_Receive_DMA          @ -- Begin function UART_Start_Receive_DMA
	.globl	UART_Start_Receive_DMA
	.p2align	2
	.type	UART_Start_Receive_DMA,%function
	.code	16                              @ @UART_Start_Receive_DMA
	.thumb_func
UART_Start_Receive_DMA:
.Lfunc_begin19:
	.loc	7 3244 0                        @ ../Library/STM32F4xx_HAL_Driver/Src/stm32f4xx_hal_uart.c:3244:0
	.fnstart
	.cfi_startproc
@ %bb.0:
	.save	{r7, lr}
	push	{r7, lr}
	.cfi_def_cfa_offset 8
	.cfi_offset lr, -4
	.cfi_offset r7, -8
	.pad	#32
	sub	sp, #32
	.cfi_def_cfa_offset 40
                                        @ kill: def $r3 killed $r2
	str	r0, [sp, #28]
	str	r1, [sp, #24]
	strh.w	r2, [sp, #22]
.Ltmp264:
	.loc	7 3247 23 prologue_end          @ ../Library/STM32F4xx_HAL_Driver/Src/stm32f4xx_hal_uart.c:3247:23
	ldr	r0, [sp, #24]
	.loc	7 3247 3 is_stmt 0              @ ../Library/STM32F4xx_HAL_Driver/Src/stm32f4xx_hal_uart.c:3247:3
	ldr	r1, [sp, #28]
	.loc	7 3247 21                       @ ../Library/STM32F4xx_HAL_Driver/Src/stm32f4xx_hal_uart.c:3247:21
	str	r0, [r1, #40]
	.loc	7 3248 23 is_stmt 1             @ ../Library/STM32F4xx_HAL_Driver/Src/stm32f4xx_hal_uart.c:3248:23
	ldrh.w	r0, [sp, #22]
	.loc	7 3248 3 is_stmt 0              @ ../Library/STM32F4xx_HAL_Driver/Src/stm32f4xx_hal_uart.c:3248:3
	ldr	r1, [sp, #28]
	.loc	7 3248 21                       @ ../Library/STM32F4xx_HAL_Driver/Src/stm32f4xx_hal_uart.c:3248:21
	strh	r0, [r1, #44]
	.loc	7 3250 3 is_stmt 1              @ ../Library/STM32F4xx_HAL_Driver/Src/stm32f4xx_hal_uart.c:3250:3
	ldr	r1, [sp, #28]
	movs	r0, #0
	.loc	7 3250 20 is_stmt 0             @ ../Library/STM32F4xx_HAL_Driver/Src/stm32f4xx_hal_uart.c:3250:20
	str	r0, [r1, #64]
	.loc	7 3251 3 is_stmt 1              @ ../Library/STM32F4xx_HAL_Driver/Src/stm32f4xx_hal_uart.c:3251:3
	ldr	r2, [sp, #28]
	movs	r1, #34
	.loc	7 3251 18 is_stmt 0             @ ../Library/STM32F4xx_HAL_Driver/Src/stm32f4xx_hal_uart.c:3251:18
	strb.w	r1, [r2, #62]
	.loc	7 3254 3 is_stmt 1              @ ../Library/STM32F4xx_HAL_Driver/Src/stm32f4xx_hal_uart.c:3254:3
	ldr	r1, [sp, #28]
	.loc	7 3254 10 is_stmt 0             @ ../Library/STM32F4xx_HAL_Driver/Src/stm32f4xx_hal_uart.c:3254:10
	ldr	r2, [r1, #56]
	.loc	7 3254 35                       @ ../Library/STM32F4xx_HAL_Driver/Src/stm32f4xx_hal_uart.c:3254:35
	movw	r1, :lower16:UART_DMAReceiveCplt
	movt	r1, :upper16:UART_DMAReceiveCplt
	str	r1, [r2, #60]
	.loc	7 3257 3 is_stmt 1              @ ../Library/STM32F4xx_HAL_Driver/Src/stm32f4xx_hal_uart.c:3257:3
	ldr	r1, [sp, #28]
	.loc	7 3257 10 is_stmt 0             @ ../Library/STM32F4xx_HAL_Driver/Src/stm32f4xx_hal_uart.c:3257:10
	ldr	r2, [r1, #56]
	.loc	7 3257 39                       @ ../Library/STM32F4xx_HAL_Driver/Src/stm32f4xx_hal_uart.c:3257:39
	movw	r1, :lower16:UART_DMARxHalfCplt
	movt	r1, :upper16:UART_DMARxHalfCplt
	str	r1, [r2, #64]
	.loc	7 3260 3 is_stmt 1              @ ../Library/STM32F4xx_HAL_Driver/Src/stm32f4xx_hal_uart.c:3260:3
	ldr	r1, [sp, #28]
	.loc	7 3260 10 is_stmt 0             @ ../Library/STM32F4xx_HAL_Driver/Src/stm32f4xx_hal_uart.c:3260:10
	ldr	r2, [r1, #56]
	.loc	7 3260 36                       @ ../Library/STM32F4xx_HAL_Driver/Src/stm32f4xx_hal_uart.c:3260:36
	movw	r1, :lower16:UART_DMAError
	movt	r1, :upper16:UART_DMAError
	str	r1, [r2, #76]
	.loc	7 3263 3 is_stmt 1              @ ../Library/STM32F4xx_HAL_Driver/Src/stm32f4xx_hal_uart.c:3263:3
	ldr	r1, [sp, #28]
	.loc	7 3263 10 is_stmt 0             @ ../Library/STM32F4xx_HAL_Driver/Src/stm32f4xx_hal_uart.c:3263:10
	ldr	r1, [r1, #56]
	.loc	7 3263 36                       @ ../Library/STM32F4xx_HAL_Driver/Src/stm32f4xx_hal_uart.c:3263:36
	str	r0, [r1, #80]
	add	r0, sp, #24
	.loc	7 3266 7 is_stmt 1              @ ../Library/STM32F4xx_HAL_Driver/Src/stm32f4xx_hal_uart.c:3266:7
	str	r0, [sp, #16]
	.loc	7 3267 20                       @ ../Library/STM32F4xx_HAL_Driver/Src/stm32f4xx_hal_uart.c:3267:20
	ldr	r0, [sp, #28]
	.loc	7 3267 53 is_stmt 0             @ ../Library/STM32F4xx_HAL_Driver/Src/stm32f4xx_hal_uart.c:3267:53
	ldr	r1, [r0]
	.loc	7 3267 27                       @ ../Library/STM32F4xx_HAL_Driver/Src/stm32f4xx_hal_uart.c:3267:27
	ldr	r0, [r0, #56]
	.loc	7 3267 63                       @ ../Library/STM32F4xx_HAL_Driver/Src/stm32f4xx_hal_uart.c:3267:63
	adds	r1, #4
	.loc	7 3267 80                       @ ../Library/STM32F4xx_HAL_Driver/Src/stm32f4xx_hal_uart.c:3267:80
	ldr	r2, [sp, #16]
	.loc	7 3267 67                       @ ../Library/STM32F4xx_HAL_Driver/Src/stm32f4xx_hal_uart.c:3267:67
	ldr	r2, [r2]
	.loc	7 3267 85                       @ ../Library/STM32F4xx_HAL_Driver/Src/stm32f4xx_hal_uart.c:3267:85
	ldrh.w	r3, [sp, #22]
	.loc	7 3267 3                        @ ../Library/STM32F4xx_HAL_Driver/Src/stm32f4xx_hal_uart.c:3267:3
	bl	HAL_DMA_Start_IT
	.loc	7 3270 3 is_stmt 1              @ ../Library/STM32F4xx_HAL_Driver/Src/stm32f4xx_hal_uart.c:3270:3
	b	.LBB19_1
.LBB19_1:
	.loc	7 0 3 is_stmt 0                 @ ../Library/STM32F4xx_HAL_Driver/Src/stm32f4xx_hal_uart.c:0:3
	movs	r0, #0
.Ltmp265:
	.loc	7 3270 3                        @ ../Library/STM32F4xx_HAL_Driver/Src/stm32f4xx_hal_uart.c:3270:3
	str	r0, [sp, #12]
	ldr	r0, [sp, #28]
	ldr	r0, [r0]
	ldr	r0, [r0]
	str	r0, [sp, #12]
	ldr	r0, [sp, #28]
	ldr	r0, [r0]
	ldr	r0, [r0, #4]
	str	r0, [sp, #12]
	ldr	r0, [sp, #12]
	b	.LBB19_2
.Ltmp266:
.LBB19_2:
	.loc	7 3273 3 is_stmt 1              @ ../Library/STM32F4xx_HAL_Driver/Src/stm32f4xx_hal_uart.c:3273:3
	b	.LBB19_3
.LBB19_3:
.Ltmp267:
	.loc	7 3273 3 is_stmt 0              @ ../Library/STM32F4xx_HAL_Driver/Src/stm32f4xx_hal_uart.c:3273:3
	ldr	r1, [sp, #28]
	movs	r0, #0
	strb.w	r0, [r1, #60]
	b	.LBB19_4
.Ltmp268:
.LBB19_4:
	.loc	7 3276 3 is_stmt 1              @ ../Library/STM32F4xx_HAL_Driver/Src/stm32f4xx_hal_uart.c:3276:3
	b	.LBB19_5
.LBB19_5:
.Ltmp269:
	.loc	7 3276 3 is_stmt 0              @ ../Library/STM32F4xx_HAL_Driver/Src/stm32f4xx_hal_uart.c:3276:3
	b	.LBB19_6
.LBB19_6:                               @ =>This Inner Loop Header: Depth=1
.Ltmp270:
	.loc	7 3276 3                        @ ../Library/STM32F4xx_HAL_Driver/Src/stm32f4xx_hal_uart.c:3276:3
	ldr	r0, [sp, #28]
	ldr	r0, [r0]
	ldrex	r0, [r0, #12]
	orr	r0, r0, #256
	str	r0, [sp, #8]
	b	.LBB19_7
.Ltmp271:
.LBB19_7:                               @   in Loop: Header=BB19_6 Depth=1
	.loc	7 3276 3                        @ ../Library/STM32F4xx_HAL_Driver/Src/stm32f4xx_hal_uart.c:3276:3
	ldr	r1, [sp, #8]
	ldr	r0, [sp, #28]
	ldr	r2, [r0]
	strex	r0, r1, [r2, #12]
.Ltmp272:
	.loc	7 3276 3                        @ ../Library/STM32F4xx_HAL_Driver/Src/stm32f4xx_hal_uart.c:3276:3
	cmp	r0, #0
	bne	.LBB19_6
	b	.LBB19_8
.Ltmp273:
.LBB19_8:
	.loc	7 3276 3                        @ ../Library/STM32F4xx_HAL_Driver/Src/stm32f4xx_hal_uart.c:3276:3
	b	.LBB19_9
.Ltmp274:
.LBB19_9:
	.loc	7 3279 3 is_stmt 1              @ ../Library/STM32F4xx_HAL_Driver/Src/stm32f4xx_hal_uart.c:3279:3
	b	.LBB19_10
.LBB19_10:
.Ltmp275:
	.loc	7 3279 3 is_stmt 0              @ ../Library/STM32F4xx_HAL_Driver/Src/stm32f4xx_hal_uart.c:3279:3
	b	.LBB19_11
.LBB19_11:                              @ =>This Inner Loop Header: Depth=1
.Ltmp276:
	.loc	7 3279 3                        @ ../Library/STM32F4xx_HAL_Driver/Src/stm32f4xx_hal_uart.c:3279:3
	ldr	r0, [sp, #28]
	ldr	r0, [r0]
	ldrex	r0, [r0, #20]
	orr	r0, r0, #1
	str	r0, [sp, #4]
	b	.LBB19_12
.Ltmp277:
.LBB19_12:                              @   in Loop: Header=BB19_11 Depth=1
	.loc	7 3279 3                        @ ../Library/STM32F4xx_HAL_Driver/Src/stm32f4xx_hal_uart.c:3279:3
	ldr	r1, [sp, #4]
	ldr	r0, [sp, #28]
	ldr	r2, [r0]
	strex	r0, r1, [r2, #20]
.Ltmp278:
	.loc	7 3279 3                        @ ../Library/STM32F4xx_HAL_Driver/Src/stm32f4xx_hal_uart.c:3279:3
	cmp	r0, #0
	bne	.LBB19_11
	b	.LBB19_13
.Ltmp279:
.LBB19_13:
	.loc	7 3279 3                        @ ../Library/STM32F4xx_HAL_Driver/Src/stm32f4xx_hal_uart.c:3279:3
	b	.LBB19_14
.Ltmp280:
.LBB19_14:
	.loc	7 3283 3 is_stmt 1              @ ../Library/STM32F4xx_HAL_Driver/Src/stm32f4xx_hal_uart.c:3283:3
	b	.LBB19_15
.LBB19_15:
.Ltmp281:
	.loc	7 3283 3 is_stmt 0              @ ../Library/STM32F4xx_HAL_Driver/Src/stm32f4xx_hal_uart.c:3283:3
	b	.LBB19_16
.LBB19_16:                              @ =>This Inner Loop Header: Depth=1
.Ltmp282:
	.loc	7 3283 3                        @ ../Library/STM32F4xx_HAL_Driver/Src/stm32f4xx_hal_uart.c:3283:3
	ldr	r0, [sp, #28]
	ldr	r0, [r0]
	ldrex	r0, [r0, #20]
	orr	r0, r0, #64
	str	r0, [sp]
	b	.LBB19_17
.Ltmp283:
.LBB19_17:                              @   in Loop: Header=BB19_16 Depth=1
	.loc	7 3283 3                        @ ../Library/STM32F4xx_HAL_Driver/Src/stm32f4xx_hal_uart.c:3283:3
	ldr	r1, [sp]
	ldr	r0, [sp, #28]
	ldr	r2, [r0]
	strex	r0, r1, [r2, #20]
.Ltmp284:
	.loc	7 3283 3                        @ ../Library/STM32F4xx_HAL_Driver/Src/stm32f4xx_hal_uart.c:3283:3
	cmp	r0, #0
	bne	.LBB19_16
	b	.LBB19_18
.Ltmp285:
.LBB19_18:
	.loc	7 3283 3                        @ ../Library/STM32F4xx_HAL_Driver/Src/stm32f4xx_hal_uart.c:3283:3
	b	.LBB19_19
.Ltmp286:
.LBB19_19:
	.loc	7 0 3                           @ ../Library/STM32F4xx_HAL_Driver/Src/stm32f4xx_hal_uart.c:0:3
	movs	r0, #0
	.loc	7 3285 3 is_stmt 1              @ ../Library/STM32F4xx_HAL_Driver/Src/stm32f4xx_hal_uart.c:3285:3
	add	sp, #32
	pop	{r7, pc}
.Ltmp287:
.Lfunc_end19:
	.size	UART_Start_Receive_DMA, .Lfunc_end19-UART_Start_Receive_DMA
	.cfi_endproc
	.cantunwind
	.fnend
                                        @ -- End function
	.section	.text.HAL_UART_DMAPause,"ax",%progbits
	.hidden	HAL_UART_DMAPause               @ -- Begin function HAL_UART_DMAPause
	.globl	HAL_UART_DMAPause
	.p2align	2
	.type	HAL_UART_DMAPause,%function
	.code	16                              @ @HAL_UART_DMAPause
	.thumb_func
HAL_UART_DMAPause:
.Lfunc_begin20:
	.loc	7 1493 0                        @ ../Library/STM32F4xx_HAL_Driver/Src/stm32f4xx_hal_uart.c:1493:0
	.fnstart
	.cfi_startproc
@ %bb.0:
	.pad	#28
	sub	sp, #28
	.cfi_def_cfa_offset 28
	str	r0, [sp, #20]
	movs	r0, #0
.Ltmp288:
	.loc	7 1494 12 prologue_end          @ ../Library/STM32F4xx_HAL_Driver/Src/stm32f4xx_hal_uart.c:1494:12
	str	r0, [sp, #16]
	.loc	7 1497 3                        @ ../Library/STM32F4xx_HAL_Driver/Src/stm32f4xx_hal_uart.c:1497:3
	b	.LBB20_1
.LBB20_1:
.Ltmp289:
	.loc	7 1497 3 is_stmt 0              @ ../Library/STM32F4xx_HAL_Driver/Src/stm32f4xx_hal_uart.c:1497:3
	ldr	r0, [sp, #20]
	ldrb.w	r0, [r0, #60]
.Ltmp290:
	.loc	7 1497 3                        @ ../Library/STM32F4xx_HAL_Driver/Src/stm32f4xx_hal_uart.c:1497:3
	cmp	r0, #1
	bne	.LBB20_3
	b	.LBB20_2
.LBB20_2:
	.loc	7 0 3                           @ ../Library/STM32F4xx_HAL_Driver/Src/stm32f4xx_hal_uart.c:0:3
	movs	r0, #2
.Ltmp291:
	.loc	7 1497 3                        @ ../Library/STM32F4xx_HAL_Driver/Src/stm32f4xx_hal_uart.c:1497:3
	strb.w	r0, [sp, #27]
	b	.LBB20_34
.Ltmp292:
.LBB20_3:
	.loc	7 1497 3                        @ ../Library/STM32F4xx_HAL_Driver/Src/stm32f4xx_hal_uart.c:1497:3
	ldr	r1, [sp, #20]
	movs	r0, #1
	strb.w	r0, [r1, #60]
	b	.LBB20_4
.Ltmp293:
.LBB20_4:
	.loc	7 1497 3                        @ ../Library/STM32F4xx_HAL_Driver/Src/stm32f4xx_hal_uart.c:1497:3
	b	.LBB20_5
.Ltmp294:
.LBB20_5:
	.loc	7 1499 16 is_stmt 1             @ ../Library/STM32F4xx_HAL_Driver/Src/stm32f4xx_hal_uart.c:1499:16
	ldr	r0, [sp, #20]
	ldr	r0, [r0]
	ldr	r0, [r0, #20]
	uxtb	r0, r0
	lsrs	r0, r0, #7
	.loc	7 1499 14 is_stmt 0             @ ../Library/STM32F4xx_HAL_Driver/Src/stm32f4xx_hal_uart.c:1499:14
	str	r0, [sp, #16]
.Ltmp295:
	.loc	7 1500 8 is_stmt 1              @ ../Library/STM32F4xx_HAL_Driver/Src/stm32f4xx_hal_uart.c:1500:8
	ldr	r0, [sp, #20]
	.loc	7 1500 15 is_stmt 0             @ ../Library/STM32F4xx_HAL_Driver/Src/stm32f4xx_hal_uart.c:1500:15
	ldrb.w	r0, [r0, #61]
	.loc	7 1500 49                       @ ../Library/STM32F4xx_HAL_Driver/Src/stm32f4xx_hal_uart.c:1500:49
	cmp	r0, #33
	bne	.LBB20_13
	b	.LBB20_6
.LBB20_6:
	.loc	7 1500 52                       @ ../Library/STM32F4xx_HAL_Driver/Src/stm32f4xx_hal_uart.c:1500:52
	ldr	r0, [sp, #16]
.Ltmp296:
	.loc	7 1500 7                        @ ../Library/STM32F4xx_HAL_Driver/Src/stm32f4xx_hal_uart.c:1500:7
	cbz	r0, .LBB20_13
	b	.LBB20_7
.LBB20_7:
.Ltmp297:
	.loc	7 1503 5 is_stmt 1              @ ../Library/STM32F4xx_HAL_Driver/Src/stm32f4xx_hal_uart.c:1503:5
	b	.LBB20_8
.LBB20_8:
.Ltmp298:
	.loc	7 1503 5 is_stmt 0              @ ../Library/STM32F4xx_HAL_Driver/Src/stm32f4xx_hal_uart.c:1503:5
	b	.LBB20_9
.LBB20_9:                               @ =>This Inner Loop Header: Depth=1
.Ltmp299:
	.loc	7 1503 5                        @ ../Library/STM32F4xx_HAL_Driver/Src/stm32f4xx_hal_uart.c:1503:5
	ldr	r0, [sp, #20]
	ldr	r0, [r0]
	ldrex	r0, [r0, #20]
	bic	r0, r0, #128
	str	r0, [sp, #12]
	b	.LBB20_10
.Ltmp300:
.LBB20_10:                              @   in Loop: Header=BB20_9 Depth=1
	.loc	7 1503 5                        @ ../Library/STM32F4xx_HAL_Driver/Src/stm32f4xx_hal_uart.c:1503:5
	ldr	r1, [sp, #12]
	ldr	r0, [sp, #20]
	ldr	r2, [r0]
	strex	r0, r1, [r2, #20]
.Ltmp301:
	.loc	7 1503 5                        @ ../Library/STM32F4xx_HAL_Driver/Src/stm32f4xx_hal_uart.c:1503:5
	cmp	r0, #0
	bne	.LBB20_9
	b	.LBB20_11
.Ltmp302:
.LBB20_11:
	.loc	7 1503 5                        @ ../Library/STM32F4xx_HAL_Driver/Src/stm32f4xx_hal_uart.c:1503:5
	b	.LBB20_12
.Ltmp303:
.LBB20_12:
	.loc	7 1504 3 is_stmt 1              @ ../Library/STM32F4xx_HAL_Driver/Src/stm32f4xx_hal_uart.c:1504:3
	b	.LBB20_13
.Ltmp304:
.LBB20_13:
	.loc	7 1506 16                       @ ../Library/STM32F4xx_HAL_Driver/Src/stm32f4xx_hal_uart.c:1506:16
	ldr	r0, [sp, #20]
	ldr	r0, [r0]
	ldr	r0, [r0, #20]
	ubfx	r0, r0, #6, #1
	.loc	7 1506 14 is_stmt 0             @ ../Library/STM32F4xx_HAL_Driver/Src/stm32f4xx_hal_uart.c:1506:14
	str	r0, [sp, #16]
.Ltmp305:
	.loc	7 1507 8 is_stmt 1              @ ../Library/STM32F4xx_HAL_Driver/Src/stm32f4xx_hal_uart.c:1507:8
	ldr	r0, [sp, #20]
	.loc	7 1507 15 is_stmt 0             @ ../Library/STM32F4xx_HAL_Driver/Src/stm32f4xx_hal_uart.c:1507:15
	ldrb.w	r0, [r0, #62]
	.loc	7 1507 50                       @ ../Library/STM32F4xx_HAL_Driver/Src/stm32f4xx_hal_uart.c:1507:50
	cmp	r0, #34
	bne	.LBB20_31
	b	.LBB20_14
.LBB20_14:
	.loc	7 1507 53                       @ ../Library/STM32F4xx_HAL_Driver/Src/stm32f4xx_hal_uart.c:1507:53
	ldr	r0, [sp, #16]
.Ltmp306:
	.loc	7 1507 7                        @ ../Library/STM32F4xx_HAL_Driver/Src/stm32f4xx_hal_uart.c:1507:7
	cbz	r0, .LBB20_31
	b	.LBB20_15
.LBB20_15:
.Ltmp307:
	.loc	7 1510 5 is_stmt 1              @ ../Library/STM32F4xx_HAL_Driver/Src/stm32f4xx_hal_uart.c:1510:5
	b	.LBB20_16
.LBB20_16:
.Ltmp308:
	.loc	7 1510 5 is_stmt 0              @ ../Library/STM32F4xx_HAL_Driver/Src/stm32f4xx_hal_uart.c:1510:5
	b	.LBB20_17
.LBB20_17:                              @ =>This Inner Loop Header: Depth=1
.Ltmp309:
	.loc	7 1510 5                        @ ../Library/STM32F4xx_HAL_Driver/Src/stm32f4xx_hal_uart.c:1510:5
	ldr	r0, [sp, #20]
	ldr	r0, [r0]
	ldrex	r0, [r0, #12]
	bic	r0, r0, #256
	str	r0, [sp, #8]
	b	.LBB20_18
.Ltmp310:
.LBB20_18:                              @   in Loop: Header=BB20_17 Depth=1
	.loc	7 1510 5                        @ ../Library/STM32F4xx_HAL_Driver/Src/stm32f4xx_hal_uart.c:1510:5
	ldr	r1, [sp, #8]
	ldr	r0, [sp, #20]
	ldr	r2, [r0]
	strex	r0, r1, [r2, #12]
.Ltmp311:
	.loc	7 1510 5                        @ ../Library/STM32F4xx_HAL_Driver/Src/stm32f4xx_hal_uart.c:1510:5
	cmp	r0, #0
	bne	.LBB20_17
	b	.LBB20_19
.Ltmp312:
.LBB20_19:
	.loc	7 1510 5                        @ ../Library/STM32F4xx_HAL_Driver/Src/stm32f4xx_hal_uart.c:1510:5
	b	.LBB20_20
.Ltmp313:
.LBB20_20:
	.loc	7 1511 5 is_stmt 1              @ ../Library/STM32F4xx_HAL_Driver/Src/stm32f4xx_hal_uart.c:1511:5
	b	.LBB20_21
.LBB20_21:
.Ltmp314:
	.loc	7 1511 5 is_stmt 0              @ ../Library/STM32F4xx_HAL_Driver/Src/stm32f4xx_hal_uart.c:1511:5
	b	.LBB20_22
.LBB20_22:                              @ =>This Inner Loop Header: Depth=1
.Ltmp315:
	.loc	7 1511 5                        @ ../Library/STM32F4xx_HAL_Driver/Src/stm32f4xx_hal_uart.c:1511:5
	ldr	r0, [sp, #20]
	ldr	r0, [r0]
	ldrex	r0, [r0, #20]
	bic	r0, r0, #1
	str	r0, [sp, #4]
	b	.LBB20_23
.Ltmp316:
.LBB20_23:                              @   in Loop: Header=BB20_22 Depth=1
	.loc	7 1511 5                        @ ../Library/STM32F4xx_HAL_Driver/Src/stm32f4xx_hal_uart.c:1511:5
	ldr	r1, [sp, #4]
	ldr	r0, [sp, #20]
	ldr	r2, [r0]
	strex	r0, r1, [r2, #20]
.Ltmp317:
	.loc	7 1511 5                        @ ../Library/STM32F4xx_HAL_Driver/Src/stm32f4xx_hal_uart.c:1511:5
	cmp	r0, #0
	bne	.LBB20_22
	b	.LBB20_24
.Ltmp318:
.LBB20_24:
	.loc	7 1511 5                        @ ../Library/STM32F4xx_HAL_Driver/Src/stm32f4xx_hal_uart.c:1511:5
	b	.LBB20_25
.Ltmp319:
.LBB20_25:
	.loc	7 1514 5 is_stmt 1              @ ../Library/STM32F4xx_HAL_Driver/Src/stm32f4xx_hal_uart.c:1514:5
	b	.LBB20_26
.LBB20_26:
.Ltmp320:
	.loc	7 1514 5 is_stmt 0              @ ../Library/STM32F4xx_HAL_Driver/Src/stm32f4xx_hal_uart.c:1514:5
	b	.LBB20_27
.LBB20_27:                              @ =>This Inner Loop Header: Depth=1
.Ltmp321:
	.loc	7 1514 5                        @ ../Library/STM32F4xx_HAL_Driver/Src/stm32f4xx_hal_uart.c:1514:5
	ldr	r0, [sp, #20]
	ldr	r0, [r0]
	ldrex	r0, [r0, #20]
	bic	r0, r0, #64
	str	r0, [sp]
	b	.LBB20_28
.Ltmp322:
.LBB20_28:                              @   in Loop: Header=BB20_27 Depth=1
	.loc	7 1514 5                        @ ../Library/STM32F4xx_HAL_Driver/Src/stm32f4xx_hal_uart.c:1514:5
	ldr	r1, [sp]
	ldr	r0, [sp, #20]
	ldr	r2, [r0]
	strex	r0, r1, [r2, #20]
.Ltmp323:
	.loc	7 1514 5                        @ ../Library/STM32F4xx_HAL_Driver/Src/stm32f4xx_hal_uart.c:1514:5
	cmp	r0, #0
	bne	.LBB20_27
	b	.LBB20_29
.Ltmp324:
.LBB20_29:
	.loc	7 1514 5                        @ ../Library/STM32F4xx_HAL_Driver/Src/stm32f4xx_hal_uart.c:1514:5
	b	.LBB20_30
.Ltmp325:
.LBB20_30:
	.loc	7 1515 3 is_stmt 1              @ ../Library/STM32F4xx_HAL_Driver/Src/stm32f4xx_hal_uart.c:1515:3
	b	.LBB20_31
.Ltmp326:
.LBB20_31:
	.loc	7 1518 3                        @ ../Library/STM32F4xx_HAL_Driver/Src/stm32f4xx_hal_uart.c:1518:3
	b	.LBB20_32
.LBB20_32:
.Ltmp327:
	.loc	7 1518 3 is_stmt 0              @ ../Library/STM32F4xx_HAL_Driver/Src/stm32f4xx_hal_uart.c:1518:3
	ldr	r1, [sp, #20]
	movs	r0, #0
	strb.w	r0, [r1, #60]
	b	.LBB20_33
.Ltmp328:
.LBB20_33:
	.loc	7 0 3                           @ ../Library/STM32F4xx_HAL_Driver/Src/stm32f4xx_hal_uart.c:0:3
	movs	r0, #0
	.loc	7 1520 3 is_stmt 1              @ ../Library/STM32F4xx_HAL_Driver/Src/stm32f4xx_hal_uart.c:1520:3
	strb.w	r0, [sp, #27]
	b	.LBB20_34
.LBB20_34:
	.loc	7 1521 1                        @ ../Library/STM32F4xx_HAL_Driver/Src/stm32f4xx_hal_uart.c:1521:1
	ldrb.w	r0, [sp, #27]
	add	sp, #28
	bx	lr
.Ltmp329:
.Lfunc_end20:
	.size	HAL_UART_DMAPause, .Lfunc_end20-HAL_UART_DMAPause
	.cfi_endproc
	.cantunwind
	.fnend
                                        @ -- End function
	.section	.text.HAL_UART_DMAResume,"ax",%progbits
	.hidden	HAL_UART_DMAResume              @ -- Begin function HAL_UART_DMAResume
	.globl	HAL_UART_DMAResume
	.p2align	2
	.type	HAL_UART_DMAResume,%function
	.code	16                              @ @HAL_UART_DMAResume
	.thumb_func
HAL_UART_DMAResume:
.Lfunc_begin21:
	.loc	7 1530 0                        @ ../Library/STM32F4xx_HAL_Driver/Src/stm32f4xx_hal_uart.c:1530:0
	.fnstart
	.cfi_startproc
@ %bb.0:
	.pad	#28
	sub	sp, #28
	.cfi_def_cfa_offset 28
	str	r0, [sp, #20]
.Ltmp330:
	.loc	7 1532 3 prologue_end           @ ../Library/STM32F4xx_HAL_Driver/Src/stm32f4xx_hal_uart.c:1532:3
	b	.LBB21_1
.LBB21_1:
.Ltmp331:
	.loc	7 1532 3 is_stmt 0              @ ../Library/STM32F4xx_HAL_Driver/Src/stm32f4xx_hal_uart.c:1532:3
	ldr	r0, [sp, #20]
	ldrb.w	r0, [r0, #60]
.Ltmp332:
	.loc	7 1532 3                        @ ../Library/STM32F4xx_HAL_Driver/Src/stm32f4xx_hal_uart.c:1532:3
	cmp	r0, #1
	bne	.LBB21_3
	b	.LBB21_2
.LBB21_2:
	.loc	7 0 3                           @ ../Library/STM32F4xx_HAL_Driver/Src/stm32f4xx_hal_uart.c:0:3
	movs	r0, #2
.Ltmp333:
	.loc	7 1532 3                        @ ../Library/STM32F4xx_HAL_Driver/Src/stm32f4xx_hal_uart.c:1532:3
	strb.w	r0, [sp, #27]
	b	.LBB21_34
.Ltmp334:
.LBB21_3:
	.loc	7 1532 3                        @ ../Library/STM32F4xx_HAL_Driver/Src/stm32f4xx_hal_uart.c:1532:3
	ldr	r1, [sp, #20]
	movs	r0, #1
	strb.w	r0, [r1, #60]
	b	.LBB21_4
.Ltmp335:
.LBB21_4:
	.loc	7 1532 3                        @ ../Library/STM32F4xx_HAL_Driver/Src/stm32f4xx_hal_uart.c:1532:3
	b	.LBB21_5
.Ltmp336:
.LBB21_5:
	.loc	7 1534 7 is_stmt 1              @ ../Library/STM32F4xx_HAL_Driver/Src/stm32f4xx_hal_uart.c:1534:7
	ldr	r0, [sp, #20]
	.loc	7 1534 14 is_stmt 0             @ ../Library/STM32F4xx_HAL_Driver/Src/stm32f4xx_hal_uart.c:1534:14
	ldrb.w	r0, [r0, #61]
.Ltmp337:
	.loc	7 1534 7                        @ ../Library/STM32F4xx_HAL_Driver/Src/stm32f4xx_hal_uart.c:1534:7
	cmp	r0, #33
	bne	.LBB21_12
	b	.LBB21_6
.LBB21_6:
.Ltmp338:
	.loc	7 1537 5 is_stmt 1              @ ../Library/STM32F4xx_HAL_Driver/Src/stm32f4xx_hal_uart.c:1537:5
	b	.LBB21_7
.LBB21_7:
.Ltmp339:
	.loc	7 1537 5 is_stmt 0              @ ../Library/STM32F4xx_HAL_Driver/Src/stm32f4xx_hal_uart.c:1537:5
	b	.LBB21_8
.LBB21_8:                               @ =>This Inner Loop Header: Depth=1
.Ltmp340:
	.loc	7 1537 5                        @ ../Library/STM32F4xx_HAL_Driver/Src/stm32f4xx_hal_uart.c:1537:5
	ldr	r0, [sp, #20]
	ldr	r0, [r0]
	ldrex	r0, [r0, #20]
	orr	r0, r0, #128
	str	r0, [sp, #16]
	b	.LBB21_9
.Ltmp341:
.LBB21_9:                               @   in Loop: Header=BB21_8 Depth=1
	.loc	7 1537 5                        @ ../Library/STM32F4xx_HAL_Driver/Src/stm32f4xx_hal_uart.c:1537:5
	ldr	r1, [sp, #16]
	ldr	r0, [sp, #20]
	ldr	r2, [r0]
	strex	r0, r1, [r2, #20]
.Ltmp342:
	.loc	7 1537 5                        @ ../Library/STM32F4xx_HAL_Driver/Src/stm32f4xx_hal_uart.c:1537:5
	cmp	r0, #0
	bne	.LBB21_8
	b	.LBB21_10
.Ltmp343:
.LBB21_10:
	.loc	7 1537 5                        @ ../Library/STM32F4xx_HAL_Driver/Src/stm32f4xx_hal_uart.c:1537:5
	b	.LBB21_11
.Ltmp344:
.LBB21_11:
	.loc	7 1538 3 is_stmt 1              @ ../Library/STM32F4xx_HAL_Driver/Src/stm32f4xx_hal_uart.c:1538:3
	b	.LBB21_12
.Ltmp345:
.LBB21_12:
	.loc	7 1540 7                        @ ../Library/STM32F4xx_HAL_Driver/Src/stm32f4xx_hal_uart.c:1540:7
	ldr	r0, [sp, #20]
	.loc	7 1540 14 is_stmt 0             @ ../Library/STM32F4xx_HAL_Driver/Src/stm32f4xx_hal_uart.c:1540:14
	ldrb.w	r0, [r0, #62]
.Ltmp346:
	.loc	7 1540 7                        @ ../Library/STM32F4xx_HAL_Driver/Src/stm32f4xx_hal_uart.c:1540:7
	cmp	r0, #34
	bne	.LBB21_31
	b	.LBB21_13
.LBB21_13:
.Ltmp347:
	.loc	7 1543 5 is_stmt 1              @ ../Library/STM32F4xx_HAL_Driver/Src/stm32f4xx_hal_uart.c:1543:5
	b	.LBB21_14
.LBB21_14:
	.loc	7 0 5 is_stmt 0                 @ ../Library/STM32F4xx_HAL_Driver/Src/stm32f4xx_hal_uart.c:0:5
	movs	r0, #0
.Ltmp348:
	.loc	7 1543 5                        @ ../Library/STM32F4xx_HAL_Driver/Src/stm32f4xx_hal_uart.c:1543:5
	str	r0, [sp, #12]
	ldr	r0, [sp, #20]
	ldr	r0, [r0]
	ldr	r0, [r0]
	str	r0, [sp, #12]
	ldr	r0, [sp, #20]
	ldr	r0, [r0]
	ldr	r0, [r0, #4]
	str	r0, [sp, #12]
	ldr	r0, [sp, #12]
	b	.LBB21_15
.Ltmp349:
.LBB21_15:
	.loc	7 1546 5 is_stmt 1              @ ../Library/STM32F4xx_HAL_Driver/Src/stm32f4xx_hal_uart.c:1546:5
	b	.LBB21_16
.LBB21_16:
.Ltmp350:
	.loc	7 1546 5 is_stmt 0              @ ../Library/STM32F4xx_HAL_Driver/Src/stm32f4xx_hal_uart.c:1546:5
	b	.LBB21_17
.LBB21_17:                              @ =>This Inner Loop Header: Depth=1
.Ltmp351:
	.loc	7 1546 5                        @ ../Library/STM32F4xx_HAL_Driver/Src/stm32f4xx_hal_uart.c:1546:5
	ldr	r0, [sp, #20]
	ldr	r0, [r0]
	ldrex	r0, [r0, #12]
	orr	r0, r0, #256
	str	r0, [sp, #8]
	b	.LBB21_18
.Ltmp352:
.LBB21_18:                              @   in Loop: Header=BB21_17 Depth=1
	.loc	7 1546 5                        @ ../Library/STM32F4xx_HAL_Driver/Src/stm32f4xx_hal_uart.c:1546:5
	ldr	r1, [sp, #8]
	ldr	r0, [sp, #20]
	ldr	r2, [r0]
	strex	r0, r1, [r2, #12]
.Ltmp353:
	.loc	7 1546 5                        @ ../Library/STM32F4xx_HAL_Driver/Src/stm32f4xx_hal_uart.c:1546:5
	cmp	r0, #0
	bne	.LBB21_17
	b	.LBB21_19
.Ltmp354:
.LBB21_19:
	.loc	7 1546 5                        @ ../Library/STM32F4xx_HAL_Driver/Src/stm32f4xx_hal_uart.c:1546:5
	b	.LBB21_20
.Ltmp355:
.LBB21_20:
	.loc	7 1547 5 is_stmt 1              @ ../Library/STM32F4xx_HAL_Driver/Src/stm32f4xx_hal_uart.c:1547:5
	b	.LBB21_21
.LBB21_21:
.Ltmp356:
	.loc	7 1547 5 is_stmt 0              @ ../Library/STM32F4xx_HAL_Driver/Src/stm32f4xx_hal_uart.c:1547:5
	b	.LBB21_22
.LBB21_22:                              @ =>This Inner Loop Header: Depth=1
.Ltmp357:
	.loc	7 1547 5                        @ ../Library/STM32F4xx_HAL_Driver/Src/stm32f4xx_hal_uart.c:1547:5
	ldr	r0, [sp, #20]
	ldr	r0, [r0]
	ldrex	r0, [r0, #20]
	orr	r0, r0, #1
	str	r0, [sp, #4]
	b	.LBB21_23
.Ltmp358:
.LBB21_23:                              @   in Loop: Header=BB21_22 Depth=1
	.loc	7 1547 5                        @ ../Library/STM32F4xx_HAL_Driver/Src/stm32f4xx_hal_uart.c:1547:5
	ldr	r1, [sp, #4]
	ldr	r0, [sp, #20]
	ldr	r2, [r0]
	strex	r0, r1, [r2, #20]
.Ltmp359:
	.loc	7 1547 5                        @ ../Library/STM32F4xx_HAL_Driver/Src/stm32f4xx_hal_uart.c:1547:5
	cmp	r0, #0
	bne	.LBB21_22
	b	.LBB21_24
.Ltmp360:
.LBB21_24:
	.loc	7 1547 5                        @ ../Library/STM32F4xx_HAL_Driver/Src/stm32f4xx_hal_uart.c:1547:5
	b	.LBB21_25
.Ltmp361:
.LBB21_25:
	.loc	7 1550 5 is_stmt 1              @ ../Library/STM32F4xx_HAL_Driver/Src/stm32f4xx_hal_uart.c:1550:5
	b	.LBB21_26
.LBB21_26:
.Ltmp362:
	.loc	7 1550 5 is_stmt 0              @ ../Library/STM32F4xx_HAL_Driver/Src/stm32f4xx_hal_uart.c:1550:5
	b	.LBB21_27
.LBB21_27:                              @ =>This Inner Loop Header: Depth=1
.Ltmp363:
	.loc	7 1550 5                        @ ../Library/STM32F4xx_HAL_Driver/Src/stm32f4xx_hal_uart.c:1550:5
	ldr	r0, [sp, #20]
	ldr	r0, [r0]
	ldrex	r0, [r0, #20]
	orr	r0, r0, #64
	str	r0, [sp]
	b	.LBB21_28
.Ltmp364:
.LBB21_28:                              @   in Loop: Header=BB21_27 Depth=1
	.loc	7 1550 5                        @ ../Library/STM32F4xx_HAL_Driver/Src/stm32f4xx_hal_uart.c:1550:5
	ldr	r1, [sp]
	ldr	r0, [sp, #20]
	ldr	r2, [r0]
	strex	r0, r1, [r2, #20]
.Ltmp365:
	.loc	7 1550 5                        @ ../Library/STM32F4xx_HAL_Driver/Src/stm32f4xx_hal_uart.c:1550:5
	cmp	r0, #0
	bne	.LBB21_27
	b	.LBB21_29
.Ltmp366:
.LBB21_29:
	.loc	7 1550 5                        @ ../Library/STM32F4xx_HAL_Driver/Src/stm32f4xx_hal_uart.c:1550:5
	b	.LBB21_30
.Ltmp367:
.LBB21_30:
	.loc	7 1551 3 is_stmt 1              @ ../Library/STM32F4xx_HAL_Driver/Src/stm32f4xx_hal_uart.c:1551:3
	b	.LBB21_31
.Ltmp368:
.LBB21_31:
	.loc	7 1554 3                        @ ../Library/STM32F4xx_HAL_Driver/Src/stm32f4xx_hal_uart.c:1554:3
	b	.LBB21_32
.LBB21_32:
.Ltmp369:
	.loc	7 1554 3 is_stmt 0              @ ../Library/STM32F4xx_HAL_Driver/Src/stm32f4xx_hal_uart.c:1554:3
	ldr	r1, [sp, #20]
	movs	r0, #0
	strb.w	r0, [r1, #60]
	b	.LBB21_33
.Ltmp370:
.LBB21_33:
	.loc	7 0 3                           @ ../Library/STM32F4xx_HAL_Driver/Src/stm32f4xx_hal_uart.c:0:3
	movs	r0, #0
	.loc	7 1556 3 is_stmt 1              @ ../Library/STM32F4xx_HAL_Driver/Src/stm32f4xx_hal_uart.c:1556:3
	strb.w	r0, [sp, #27]
	b	.LBB21_34
.LBB21_34:
	.loc	7 1557 1                        @ ../Library/STM32F4xx_HAL_Driver/Src/stm32f4xx_hal_uart.c:1557:1
	ldrb.w	r0, [sp, #27]
	add	sp, #28
	bx	lr
.Ltmp371:
.Lfunc_end21:
	.size	HAL_UART_DMAResume, .Lfunc_end21-HAL_UART_DMAResume
	.cfi_endproc
	.cantunwind
	.fnend
                                        @ -- End function
	.section	.text.HAL_UART_DMAStop,"ax",%progbits
	.hidden	HAL_UART_DMAStop                @ -- Begin function HAL_UART_DMAStop
	.globl	HAL_UART_DMAStop
	.p2align	2
	.type	HAL_UART_DMAStop,%function
	.code	16                              @ @HAL_UART_DMAStop
	.thumb_func
HAL_UART_DMAStop:
.Lfunc_begin22:
	.loc	7 1566 0                        @ ../Library/STM32F4xx_HAL_Driver/Src/stm32f4xx_hal_uart.c:1566:0
	.fnstart
	.cfi_startproc
@ %bb.0:
	.save	{r7, lr}
	push	{r7, lr}
	.cfi_def_cfa_offset 8
	.cfi_offset lr, -4
	.cfi_offset r7, -8
	.pad	#16
	sub	sp, #16
	.cfi_def_cfa_offset 24
	str	r0, [sp, #12]
	movs	r0, #0
.Ltmp372:
	.loc	7 1567 12 prologue_end          @ ../Library/STM32F4xx_HAL_Driver/Src/stm32f4xx_hal_uart.c:1567:12
	str	r0, [sp, #8]
	.loc	7 1575 16                       @ ../Library/STM32F4xx_HAL_Driver/Src/stm32f4xx_hal_uart.c:1575:16
	ldr	r0, [sp, #12]
	ldr	r0, [r0]
	ldr	r0, [r0, #20]
	uxtb	r0, r0
	lsrs	r0, r0, #7
	.loc	7 1575 14 is_stmt 0             @ ../Library/STM32F4xx_HAL_Driver/Src/stm32f4xx_hal_uart.c:1575:14
	str	r0, [sp, #8]
.Ltmp373:
	.loc	7 1576 8 is_stmt 1              @ ../Library/STM32F4xx_HAL_Driver/Src/stm32f4xx_hal_uart.c:1576:8
	ldr	r0, [sp, #12]
	.loc	7 1576 15 is_stmt 0             @ ../Library/STM32F4xx_HAL_Driver/Src/stm32f4xx_hal_uart.c:1576:15
	ldrb.w	r0, [r0, #61]
	.loc	7 1576 49                       @ ../Library/STM32F4xx_HAL_Driver/Src/stm32f4xx_hal_uart.c:1576:49
	cmp	r0, #33
	bne	.LBB22_10
	b	.LBB22_1
.LBB22_1:
	.loc	7 1576 52                       @ ../Library/STM32F4xx_HAL_Driver/Src/stm32f4xx_hal_uart.c:1576:52
	ldr	r0, [sp, #8]
.Ltmp374:
	.loc	7 1576 7                        @ ../Library/STM32F4xx_HAL_Driver/Src/stm32f4xx_hal_uart.c:1576:7
	cbz	r0, .LBB22_10
	b	.LBB22_2
.LBB22_2:
.Ltmp375:
	.loc	7 1578 5 is_stmt 1              @ ../Library/STM32F4xx_HAL_Driver/Src/stm32f4xx_hal_uart.c:1578:5
	b	.LBB22_3
.LBB22_3:
.Ltmp376:
	.loc	7 1578 5 is_stmt 0              @ ../Library/STM32F4xx_HAL_Driver/Src/stm32f4xx_hal_uart.c:1578:5
	b	.LBB22_4
.LBB22_4:                               @ =>This Inner Loop Header: Depth=1
.Ltmp377:
	.loc	7 1578 5                        @ ../Library/STM32F4xx_HAL_Driver/Src/stm32f4xx_hal_uart.c:1578:5
	ldr	r0, [sp, #12]
	ldr	r0, [r0]
	ldrex	r0, [r0, #20]
	bic	r0, r0, #128
	str	r0, [sp, #4]
	b	.LBB22_5
.Ltmp378:
.LBB22_5:                               @   in Loop: Header=BB22_4 Depth=1
	.loc	7 1578 5                        @ ../Library/STM32F4xx_HAL_Driver/Src/stm32f4xx_hal_uart.c:1578:5
	ldr	r1, [sp, #4]
	ldr	r0, [sp, #12]
	ldr	r2, [r0]
	strex	r0, r1, [r2, #20]
.Ltmp379:
	.loc	7 1578 5                        @ ../Library/STM32F4xx_HAL_Driver/Src/stm32f4xx_hal_uart.c:1578:5
	cmp	r0, #0
	bne	.LBB22_4
	b	.LBB22_6
.Ltmp380:
.LBB22_6:
	.loc	7 1578 5                        @ ../Library/STM32F4xx_HAL_Driver/Src/stm32f4xx_hal_uart.c:1578:5
	b	.LBB22_7
.Ltmp381:
.LBB22_7:
	.loc	7 1581 9 is_stmt 1              @ ../Library/STM32F4xx_HAL_Driver/Src/stm32f4xx_hal_uart.c:1581:9
	ldr	r0, [sp, #12]
	.loc	7 1581 16 is_stmt 0             @ ../Library/STM32F4xx_HAL_Driver/Src/stm32f4xx_hal_uart.c:1581:16
	ldr	r0, [r0, #52]
.Ltmp382:
	.loc	7 1581 9                        @ ../Library/STM32F4xx_HAL_Driver/Src/stm32f4xx_hal_uart.c:1581:9
	cbz	r0, .LBB22_9
	b	.LBB22_8
.LBB22_8:
.Ltmp383:
	.loc	7 1583 21 is_stmt 1             @ ../Library/STM32F4xx_HAL_Driver/Src/stm32f4xx_hal_uart.c:1583:21
	ldr	r0, [sp, #12]
	.loc	7 1583 28 is_stmt 0             @ ../Library/STM32F4xx_HAL_Driver/Src/stm32f4xx_hal_uart.c:1583:28
	ldr	r0, [r0, #52]
	.loc	7 1583 7                        @ ../Library/STM32F4xx_HAL_Driver/Src/stm32f4xx_hal_uart.c:1583:7
	bl	HAL_DMA_Abort
	.loc	7 1584 5 is_stmt 1              @ ../Library/STM32F4xx_HAL_Driver/Src/stm32f4xx_hal_uart.c:1584:5
	b	.LBB22_9
.Ltmp384:
.LBB22_9:
	.loc	7 1585 24                       @ ../Library/STM32F4xx_HAL_Driver/Src/stm32f4xx_hal_uart.c:1585:24
	ldr	r0, [sp, #12]
	.loc	7 1585 5 is_stmt 0              @ ../Library/STM32F4xx_HAL_Driver/Src/stm32f4xx_hal_uart.c:1585:5
	bl	UART_EndTxTransfer
	.loc	7 1586 3 is_stmt 1              @ ../Library/STM32F4xx_HAL_Driver/Src/stm32f4xx_hal_uart.c:1586:3
	b	.LBB22_10
.Ltmp385:
.LBB22_10:
	.loc	7 1589 16                       @ ../Library/STM32F4xx_HAL_Driver/Src/stm32f4xx_hal_uart.c:1589:16
	ldr	r0, [sp, #12]
	ldr	r0, [r0]
	ldr	r0, [r0, #20]
	ubfx	r0, r0, #6, #1
	.loc	7 1589 14 is_stmt 0             @ ../Library/STM32F4xx_HAL_Driver/Src/stm32f4xx_hal_uart.c:1589:14
	str	r0, [sp, #8]
.Ltmp386:
	.loc	7 1590 8 is_stmt 1              @ ../Library/STM32F4xx_HAL_Driver/Src/stm32f4xx_hal_uart.c:1590:8
	ldr	r0, [sp, #12]
	.loc	7 1590 15 is_stmt 0             @ ../Library/STM32F4xx_HAL_Driver/Src/stm32f4xx_hal_uart.c:1590:15
	ldrb.w	r0, [r0, #62]
	.loc	7 1590 50                       @ ../Library/STM32F4xx_HAL_Driver/Src/stm32f4xx_hal_uart.c:1590:50
	cmp	r0, #34
	bne	.LBB22_20
	b	.LBB22_11
.LBB22_11:
	.loc	7 1590 53                       @ ../Library/STM32F4xx_HAL_Driver/Src/stm32f4xx_hal_uart.c:1590:53
	ldr	r0, [sp, #8]
.Ltmp387:
	.loc	7 1590 7                        @ ../Library/STM32F4xx_HAL_Driver/Src/stm32f4xx_hal_uart.c:1590:7
	cbz	r0, .LBB22_20
	b	.LBB22_12
.LBB22_12:
.Ltmp388:
	.loc	7 1592 5 is_stmt 1              @ ../Library/STM32F4xx_HAL_Driver/Src/stm32f4xx_hal_uart.c:1592:5
	b	.LBB22_13
.LBB22_13:
.Ltmp389:
	.loc	7 1592 5 is_stmt 0              @ ../Library/STM32F4xx_HAL_Driver/Src/stm32f4xx_hal_uart.c:1592:5
	b	.LBB22_14
.LBB22_14:                              @ =>This Inner Loop Header: Depth=1
.Ltmp390:
	.loc	7 1592 5                        @ ../Library/STM32F4xx_HAL_Driver/Src/stm32f4xx_hal_uart.c:1592:5
	ldr	r0, [sp, #12]
	ldr	r0, [r0]
	ldrex	r0, [r0, #20]
	bic	r0, r0, #64
	str	r0, [sp]
	b	.LBB22_15
.Ltmp391:
.LBB22_15:                              @   in Loop: Header=BB22_14 Depth=1
	.loc	7 1592 5                        @ ../Library/STM32F4xx_HAL_Driver/Src/stm32f4xx_hal_uart.c:1592:5
	ldr	r1, [sp]
	ldr	r0, [sp, #12]
	ldr	r2, [r0]
	strex	r0, r1, [r2, #20]
.Ltmp392:
	.loc	7 1592 5                        @ ../Library/STM32F4xx_HAL_Driver/Src/stm32f4xx_hal_uart.c:1592:5
	cmp	r0, #0
	bne	.LBB22_14
	b	.LBB22_16
.Ltmp393:
.LBB22_16:
	.loc	7 1592 5                        @ ../Library/STM32F4xx_HAL_Driver/Src/stm32f4xx_hal_uart.c:1592:5
	b	.LBB22_17
.Ltmp394:
.LBB22_17:
	.loc	7 1595 9 is_stmt 1              @ ../Library/STM32F4xx_HAL_Driver/Src/stm32f4xx_hal_uart.c:1595:9
	ldr	r0, [sp, #12]
	.loc	7 1595 16 is_stmt 0             @ ../Library/STM32F4xx_HAL_Driver/Src/stm32f4xx_hal_uart.c:1595:16
	ldr	r0, [r0, #56]
.Ltmp395:
	.loc	7 1595 9                        @ ../Library/STM32F4xx_HAL_Driver/Src/stm32f4xx_hal_uart.c:1595:9
	cbz	r0, .LBB22_19
	b	.LBB22_18
.LBB22_18:
.Ltmp396:
	.loc	7 1597 21 is_stmt 1             @ ../Library/STM32F4xx_HAL_Driver/Src/stm32f4xx_hal_uart.c:1597:21
	ldr	r0, [sp, #12]
	.loc	7 1597 28 is_stmt 0             @ ../Library/STM32F4xx_HAL_Driver/Src/stm32f4xx_hal_uart.c:1597:28
	ldr	r0, [r0, #56]
	.loc	7 1597 7                        @ ../Library/STM32F4xx_HAL_Driver/Src/stm32f4xx_hal_uart.c:1597:7
	bl	HAL_DMA_Abort
	.loc	7 1598 5 is_stmt 1              @ ../Library/STM32F4xx_HAL_Driver/Src/stm32f4xx_hal_uart.c:1598:5
	b	.LBB22_19
.Ltmp397:
.LBB22_19:
	.loc	7 1599 24                       @ ../Library/STM32F4xx_HAL_Driver/Src/stm32f4xx_hal_uart.c:1599:24
	ldr	r0, [sp, #12]
	.loc	7 1599 5 is_stmt 0              @ ../Library/STM32F4xx_HAL_Driver/Src/stm32f4xx_hal_uart.c:1599:5
	bl	UART_EndRxTransfer
	.loc	7 1600 3 is_stmt 1              @ ../Library/STM32F4xx_HAL_Driver/Src/stm32f4xx_hal_uart.c:1600:3
	b	.LBB22_20
.Ltmp398:
.LBB22_20:
	.loc	7 0 3 is_stmt 0                 @ ../Library/STM32F4xx_HAL_Driver/Src/stm32f4xx_hal_uart.c:0:3
	movs	r0, #0
	.loc	7 1602 3 is_stmt 1              @ ../Library/STM32F4xx_HAL_Driver/Src/stm32f4xx_hal_uart.c:1602:3
	add	sp, #16
	pop	{r7, pc}
.Ltmp399:
.Lfunc_end22:
	.size	HAL_UART_DMAStop, .Lfunc_end22-HAL_UART_DMAStop
	.cfi_endproc
	.cantunwind
	.fnend
                                        @ -- End function
	.section	.text.UART_EndTxTransfer,"ax",%progbits
	.p2align	2                               @ -- Begin function UART_EndTxTransfer
	.type	UART_EndTxTransfer,%function
	.code	16                              @ @UART_EndTxTransfer
	.thumb_func
UART_EndTxTransfer:
.Lfunc_begin23:
	.loc	7 3294 0                        @ ../Library/STM32F4xx_HAL_Driver/Src/stm32f4xx_hal_uart.c:3294:0
	.fnstart
	.cfi_startproc
@ %bb.0:
	.pad	#8
	sub	sp, #8
	.cfi_def_cfa_offset 8
	str	r0, [sp, #4]
.Ltmp400:
	.loc	7 3296 3 prologue_end           @ ../Library/STM32F4xx_HAL_Driver/Src/stm32f4xx_hal_uart.c:3296:3
	b	.LBB23_1
.LBB23_1:
.Ltmp401:
	.loc	7 3296 3 is_stmt 0              @ ../Library/STM32F4xx_HAL_Driver/Src/stm32f4xx_hal_uart.c:3296:3
	b	.LBB23_2
.LBB23_2:                               @ =>This Inner Loop Header: Depth=1
.Ltmp402:
	.loc	7 3296 3                        @ ../Library/STM32F4xx_HAL_Driver/Src/stm32f4xx_hal_uart.c:3296:3
	ldr	r0, [sp, #4]
	ldr	r0, [r0]
	ldrex	r0, [r0, #12]
	bic	r0, r0, #192
	str	r0, [sp]
	b	.LBB23_3
.Ltmp403:
.LBB23_3:                               @   in Loop: Header=BB23_2 Depth=1
	.loc	7 3296 3                        @ ../Library/STM32F4xx_HAL_Driver/Src/stm32f4xx_hal_uart.c:3296:3
	ldr	r1, [sp]
	ldr	r0, [sp, #4]
	ldr	r2, [r0]
	strex	r0, r1, [r2, #12]
.Ltmp404:
	.loc	7 3296 3                        @ ../Library/STM32F4xx_HAL_Driver/Src/stm32f4xx_hal_uart.c:3296:3
	cmp	r0, #0
	bne	.LBB23_2
	b	.LBB23_4
.Ltmp405:
.LBB23_4:
	.loc	7 3296 3                        @ ../Library/STM32F4xx_HAL_Driver/Src/stm32f4xx_hal_uart.c:3296:3
	b	.LBB23_5
.Ltmp406:
.LBB23_5:
	.loc	7 3299 3 is_stmt 1              @ ../Library/STM32F4xx_HAL_Driver/Src/stm32f4xx_hal_uart.c:3299:3
	ldr	r1, [sp, #4]
	movs	r0, #32
	.loc	7 3299 17 is_stmt 0             @ ../Library/STM32F4xx_HAL_Driver/Src/stm32f4xx_hal_uart.c:3299:17
	strb.w	r0, [r1, #61]
	.loc	7 3300 1 is_stmt 1              @ ../Library/STM32F4xx_HAL_Driver/Src/stm32f4xx_hal_uart.c:3300:1
	add	sp, #8
	bx	lr
.Ltmp407:
.Lfunc_end23:
	.size	UART_EndTxTransfer, .Lfunc_end23-UART_EndTxTransfer
	.cfi_endproc
	.cantunwind
	.fnend
                                        @ -- End function
	.section	.text.UART_EndRxTransfer,"ax",%progbits
	.p2align	2                               @ -- Begin function UART_EndRxTransfer
	.type	UART_EndRxTransfer,%function
	.code	16                              @ @UART_EndRxTransfer
	.thumb_func
UART_EndRxTransfer:
.Lfunc_begin24:
	.loc	7 3308 0                        @ ../Library/STM32F4xx_HAL_Driver/Src/stm32f4xx_hal_uart.c:3308:0
	.fnstart
	.cfi_startproc
@ %bb.0:
	.pad	#16
	sub	sp, #16
	.cfi_def_cfa_offset 16
	str	r0, [sp, #12]
.Ltmp408:
	.loc	7 3310 3 prologue_end           @ ../Library/STM32F4xx_HAL_Driver/Src/stm32f4xx_hal_uart.c:3310:3
	b	.LBB24_1
.LBB24_1:
.Ltmp409:
	.loc	7 3310 3 is_stmt 0              @ ../Library/STM32F4xx_HAL_Driver/Src/stm32f4xx_hal_uart.c:3310:3
	b	.LBB24_2
.LBB24_2:                               @ =>This Inner Loop Header: Depth=1
.Ltmp410:
	.loc	7 3310 3                        @ ../Library/STM32F4xx_HAL_Driver/Src/stm32f4xx_hal_uart.c:3310:3
	ldr	r0, [sp, #12]
	ldr	r0, [r0]
	ldrex	r0, [r0, #12]
	bic	r0, r0, #288
	str	r0, [sp, #8]
	b	.LBB24_3
.Ltmp411:
.LBB24_3:                               @   in Loop: Header=BB24_2 Depth=1
	.loc	7 3310 3                        @ ../Library/STM32F4xx_HAL_Driver/Src/stm32f4xx_hal_uart.c:3310:3
	ldr	r1, [sp, #8]
	ldr	r0, [sp, #12]
	ldr	r2, [r0]
	strex	r0, r1, [r2, #12]
.Ltmp412:
	.loc	7 3310 3                        @ ../Library/STM32F4xx_HAL_Driver/Src/stm32f4xx_hal_uart.c:3310:3
	cmp	r0, #0
	bne	.LBB24_2
	b	.LBB24_4
.Ltmp413:
.LBB24_4:
	.loc	7 3310 3                        @ ../Library/STM32F4xx_HAL_Driver/Src/stm32f4xx_hal_uart.c:3310:3
	b	.LBB24_5
.Ltmp414:
.LBB24_5:
	.loc	7 3311 3 is_stmt 1              @ ../Library/STM32F4xx_HAL_Driver/Src/stm32f4xx_hal_uart.c:3311:3
	b	.LBB24_6
.LBB24_6:
.Ltmp415:
	.loc	7 3311 3 is_stmt 0              @ ../Library/STM32F4xx_HAL_Driver/Src/stm32f4xx_hal_uart.c:3311:3
	b	.LBB24_7
.LBB24_7:                               @ =>This Inner Loop Header: Depth=1
.Ltmp416:
	.loc	7 3311 3                        @ ../Library/STM32F4xx_HAL_Driver/Src/stm32f4xx_hal_uart.c:3311:3
	ldr	r0, [sp, #12]
	ldr	r0, [r0]
	ldrex	r0, [r0, #20]
	bic	r0, r0, #1
	str	r0, [sp, #4]
	b	.LBB24_8
.Ltmp417:
.LBB24_8:                               @   in Loop: Header=BB24_7 Depth=1
	.loc	7 3311 3                        @ ../Library/STM32F4xx_HAL_Driver/Src/stm32f4xx_hal_uart.c:3311:3
	ldr	r1, [sp, #4]
	ldr	r0, [sp, #12]
	ldr	r2, [r0]
	strex	r0, r1, [r2, #20]
.Ltmp418:
	.loc	7 3311 3                        @ ../Library/STM32F4xx_HAL_Driver/Src/stm32f4xx_hal_uart.c:3311:3
	cmp	r0, #0
	bne	.LBB24_7
	b	.LBB24_9
.Ltmp419:
.LBB24_9:
	.loc	7 3311 3                        @ ../Library/STM32F4xx_HAL_Driver/Src/stm32f4xx_hal_uart.c:3311:3
	b	.LBB24_10
.Ltmp420:
.LBB24_10:
	.loc	7 3314 7 is_stmt 1              @ ../Library/STM32F4xx_HAL_Driver/Src/stm32f4xx_hal_uart.c:3314:7
	ldr	r0, [sp, #12]
	.loc	7 3314 14 is_stmt 0             @ ../Library/STM32F4xx_HAL_Driver/Src/stm32f4xx_hal_uart.c:3314:14
	ldr	r0, [r0, #48]
.Ltmp421:
	.loc	7 3314 7                        @ ../Library/STM32F4xx_HAL_Driver/Src/stm32f4xx_hal_uart.c:3314:7
	cmp	r0, #1
	bne	.LBB24_17
	b	.LBB24_11
.LBB24_11:
.Ltmp422:
	.loc	7 3316 5 is_stmt 1              @ ../Library/STM32F4xx_HAL_Driver/Src/stm32f4xx_hal_uart.c:3316:5
	b	.LBB24_12
.LBB24_12:
.Ltmp423:
	.loc	7 3316 5 is_stmt 0              @ ../Library/STM32F4xx_HAL_Driver/Src/stm32f4xx_hal_uart.c:3316:5
	b	.LBB24_13
.LBB24_13:                              @ =>This Inner Loop Header: Depth=1
.Ltmp424:
	.loc	7 3316 5                        @ ../Library/STM32F4xx_HAL_Driver/Src/stm32f4xx_hal_uart.c:3316:5
	ldr	r0, [sp, #12]
	ldr	r0, [r0]
	ldrex	r0, [r0, #12]
	bic	r0, r0, #16
	str	r0, [sp]
	b	.LBB24_14
.Ltmp425:
.LBB24_14:                              @   in Loop: Header=BB24_13 Depth=1
	.loc	7 3316 5                        @ ../Library/STM32F4xx_HAL_Driver/Src/stm32f4xx_hal_uart.c:3316:5
	ldr	r1, [sp]
	ldr	r0, [sp, #12]
	ldr	r2, [r0]
	strex	r0, r1, [r2, #12]
.Ltmp426:
	.loc	7 3316 5                        @ ../Library/STM32F4xx_HAL_Driver/Src/stm32f4xx_hal_uart.c:3316:5
	cmp	r0, #0
	bne	.LBB24_13
	b	.LBB24_15
.Ltmp427:
.LBB24_15:
	.loc	7 3316 5                        @ ../Library/STM32F4xx_HAL_Driver/Src/stm32f4xx_hal_uart.c:3316:5
	b	.LBB24_16
.Ltmp428:
.LBB24_16:
	.loc	7 3317 3 is_stmt 1              @ ../Library/STM32F4xx_HAL_Driver/Src/stm32f4xx_hal_uart.c:3317:3
	b	.LBB24_17
.Ltmp429:
.LBB24_17:
	.loc	7 3320 3                        @ ../Library/STM32F4xx_HAL_Driver/Src/stm32f4xx_hal_uart.c:3320:3
	ldr	r1, [sp, #12]
	movs	r0, #32
	.loc	7 3320 18 is_stmt 0             @ ../Library/STM32F4xx_HAL_Driver/Src/stm32f4xx_hal_uart.c:3320:18
	strb.w	r0, [r1, #62]
	.loc	7 3321 3 is_stmt 1              @ ../Library/STM32F4xx_HAL_Driver/Src/stm32f4xx_hal_uart.c:3321:3
	ldr	r1, [sp, #12]
	movs	r0, #0
	.loc	7 3321 24 is_stmt 0             @ ../Library/STM32F4xx_HAL_Driver/Src/stm32f4xx_hal_uart.c:3321:24
	str	r0, [r1, #48]
	.loc	7 3322 1 is_stmt 1              @ ../Library/STM32F4xx_HAL_Driver/Src/stm32f4xx_hal_uart.c:3322:1
	add	sp, #16
	bx	lr
.Ltmp430:
.Lfunc_end24:
	.size	UART_EndRxTransfer, .Lfunc_end24-UART_EndRxTransfer
	.cfi_endproc
	.cantunwind
	.fnend
                                        @ -- End function
	.section	.text.HAL_UARTEx_ReceiveToIdle,"ax",%progbits
	.hidden	HAL_UARTEx_ReceiveToIdle        @ -- Begin function HAL_UARTEx_ReceiveToIdle
	.globl	HAL_UARTEx_ReceiveToIdle
	.p2align	2
	.type	HAL_UARTEx_ReceiveToIdle,%function
	.code	16                              @ @HAL_UARTEx_ReceiveToIdle
	.thumb_func
HAL_UARTEx_ReceiveToIdle:
.Lfunc_begin25:
	.loc	7 1622 0                        @ ../Library/STM32F4xx_HAL_Driver/Src/stm32f4xx_hal_uart.c:1622:0
	.fnstart
	.cfi_startproc
@ %bb.0:
	.save	{r7, lr}
	push	{r7, lr}
	.cfi_def_cfa_offset 8
	.cfi_offset lr, -4
	.cfi_offset r7, -8
	.pad	#40
	sub	sp, #40
	.cfi_def_cfa_offset 48
	ldr.w	r12, [sp, #48]
                                        @ kill: def $r12 killed $r2
	str	r0, [sp, #32]
	str	r1, [sp, #28]
	strh.w	r2, [sp, #26]
	str	r3, [sp, #20]
.Ltmp431:
	.loc	7 1628 7 prologue_end           @ ../Library/STM32F4xx_HAL_Driver/Src/stm32f4xx_hal_uart.c:1628:7
	ldr	r0, [sp, #32]
	.loc	7 1628 14 is_stmt 0             @ ../Library/STM32F4xx_HAL_Driver/Src/stm32f4xx_hal_uart.c:1628:14
	ldrb.w	r0, [r0, #62]
.Ltmp432:
	.loc	7 1628 7                        @ ../Library/STM32F4xx_HAL_Driver/Src/stm32f4xx_hal_uart.c:1628:7
	cmp	r0, #32
	bne.w	.LBB25_40
	b	.LBB25_1
.LBB25_1:
.Ltmp433:
	.loc	7 1630 10 is_stmt 1             @ ../Library/STM32F4xx_HAL_Driver/Src/stm32f4xx_hal_uart.c:1630:10
	ldr	r0, [sp, #28]
	.loc	7 1630 25 is_stmt 0             @ ../Library/STM32F4xx_HAL_Driver/Src/stm32f4xx_hal_uart.c:1630:25
	cbz	r0, .LBB25_3
	b	.LBB25_2
.LBB25_2:
	.loc	7 1630 29                       @ ../Library/STM32F4xx_HAL_Driver/Src/stm32f4xx_hal_uart.c:1630:29
	ldrh.w	r0, [sp, #26]
.Ltmp434:
	.loc	7 1630 9                        @ ../Library/STM32F4xx_HAL_Driver/Src/stm32f4xx_hal_uart.c:1630:9
	cbnz	r0, .LBB25_4
	b	.LBB25_3
.LBB25_3:
	.loc	7 0 9                           @ ../Library/STM32F4xx_HAL_Driver/Src/stm32f4xx_hal_uart.c:0:9
	movs	r0, #1
.Ltmp435:
	.loc	7 1632 7 is_stmt 1              @ ../Library/STM32F4xx_HAL_Driver/Src/stm32f4xx_hal_uart.c:1632:7
	strb.w	r0, [sp, #39]
	b	.LBB25_41
.Ltmp436:
.LBB25_4:
	.loc	7 1635 5                        @ ../Library/STM32F4xx_HAL_Driver/Src/stm32f4xx_hal_uart.c:1635:5
	b	.LBB25_5
.LBB25_5:
.Ltmp437:
	.loc	7 1635 5 is_stmt 0              @ ../Library/STM32F4xx_HAL_Driver/Src/stm32f4xx_hal_uart.c:1635:5
	ldr	r0, [sp, #32]
	ldrb.w	r0, [r0, #60]
.Ltmp438:
	.loc	7 1635 5                        @ ../Library/STM32F4xx_HAL_Driver/Src/stm32f4xx_hal_uart.c:1635:5
	cmp	r0, #1
	bne	.LBB25_7
	b	.LBB25_6
.LBB25_6:
	.loc	7 0 5                           @ ../Library/STM32F4xx_HAL_Driver/Src/stm32f4xx_hal_uart.c:0:5
	movs	r0, #2
.Ltmp439:
	.loc	7 1635 5                        @ ../Library/STM32F4xx_HAL_Driver/Src/stm32f4xx_hal_uart.c:1635:5
	strb.w	r0, [sp, #39]
	b	.LBB25_41
.Ltmp440:
.LBB25_7:
	.loc	7 1635 5                        @ ../Library/STM32F4xx_HAL_Driver/Src/stm32f4xx_hal_uart.c:1635:5
	ldr	r1, [sp, #32]
	movs	r0, #1
	strb.w	r0, [r1, #60]
	b	.LBB25_8
.Ltmp441:
.LBB25_8:
	.loc	7 1635 5                        @ ../Library/STM32F4xx_HAL_Driver/Src/stm32f4xx_hal_uart.c:1635:5
	b	.LBB25_9
.Ltmp442:
.LBB25_9:
	.loc	7 1637 5 is_stmt 1              @ ../Library/STM32F4xx_HAL_Driver/Src/stm32f4xx_hal_uart.c:1637:5
	ldr	r1, [sp, #32]
	movs	r0, #0
	.loc	7 1637 22 is_stmt 0             @ ../Library/STM32F4xx_HAL_Driver/Src/stm32f4xx_hal_uart.c:1637:22
	str	r0, [r1, #64]
	.loc	7 1638 5 is_stmt 1              @ ../Library/STM32F4xx_HAL_Driver/Src/stm32f4xx_hal_uart.c:1638:5
	ldr	r1, [sp, #32]
	movs	r0, #34
	.loc	7 1638 20 is_stmt 0             @ ../Library/STM32F4xx_HAL_Driver/Src/stm32f4xx_hal_uart.c:1638:20
	strb.w	r0, [r1, #62]
	.loc	7 1639 5 is_stmt 1              @ ../Library/STM32F4xx_HAL_Driver/Src/stm32f4xx_hal_uart.c:1639:5
	ldr	r1, [sp, #32]
	movs	r0, #1
	.loc	7 1639 26 is_stmt 0             @ ../Library/STM32F4xx_HAL_Driver/Src/stm32f4xx_hal_uart.c:1639:26
	str	r0, [r1, #48]
	.loc	7 1642 17 is_stmt 1             @ ../Library/STM32F4xx_HAL_Driver/Src/stm32f4xx_hal_uart.c:1642:17
	bl	HAL_GetTick
	.loc	7 1642 15 is_stmt 0             @ ../Library/STM32F4xx_HAL_Driver/Src/stm32f4xx_hal_uart.c:1642:15
	str	r0, [sp, #8]
	.loc	7 1644 26 is_stmt 1             @ ../Library/STM32F4xx_HAL_Driver/Src/stm32f4xx_hal_uart.c:1644:26
	ldrh.w	r0, [sp, #26]
	.loc	7 1644 5 is_stmt 0              @ ../Library/STM32F4xx_HAL_Driver/Src/stm32f4xx_hal_uart.c:1644:5
	ldr	r1, [sp, #32]
	.loc	7 1644 24                       @ ../Library/STM32F4xx_HAL_Driver/Src/stm32f4xx_hal_uart.c:1644:24
	strh	r0, [r1, #44]
	.loc	7 1645 26 is_stmt 1             @ ../Library/STM32F4xx_HAL_Driver/Src/stm32f4xx_hal_uart.c:1645:26
	ldrh.w	r0, [sp, #26]
	.loc	7 1645 5 is_stmt 0              @ ../Library/STM32F4xx_HAL_Driver/Src/stm32f4xx_hal_uart.c:1645:5
	ldr	r1, [sp, #32]
	.loc	7 1645 24                       @ ../Library/STM32F4xx_HAL_Driver/Src/stm32f4xx_hal_uart.c:1645:24
	strh	r0, [r1, #46]
.Ltmp443:
	.loc	7 1648 10 is_stmt 1             @ ../Library/STM32F4xx_HAL_Driver/Src/stm32f4xx_hal_uart.c:1648:10
	ldr	r0, [sp, #32]
	.loc	7 1648 22 is_stmt 0             @ ../Library/STM32F4xx_HAL_Driver/Src/stm32f4xx_hal_uart.c:1648:22
	ldr	r0, [r0, #8]
	.loc	7 1648 56                       @ ../Library/STM32F4xx_HAL_Driver/Src/stm32f4xx_hal_uart.c:1648:56
	cmp.w	r0, #4096
	bne	.LBB25_12
	b	.LBB25_10
.LBB25_10:
	.loc	7 1648 60                       @ ../Library/STM32F4xx_HAL_Driver/Src/stm32f4xx_hal_uart.c:1648:60
	ldr	r0, [sp, #32]
	.loc	7 1648 72                       @ ../Library/STM32F4xx_HAL_Driver/Src/stm32f4xx_hal_uart.c:1648:72
	ldr	r0, [r0, #16]
.Ltmp444:
	.loc	7 1648 9                        @ ../Library/STM32F4xx_HAL_Driver/Src/stm32f4xx_hal_uart.c:1648:9
	cbnz	r0, .LBB25_12
	b	.LBB25_11
.LBB25_11:
	.loc	7 0 9                           @ ../Library/STM32F4xx_HAL_Driver/Src/stm32f4xx_hal_uart.c:0:9
	movs	r0, #0
.Ltmp445:
	.loc	7 1650 19 is_stmt 1             @ ../Library/STM32F4xx_HAL_Driver/Src/stm32f4xx_hal_uart.c:1650:19
	str	r0, [sp, #16]
	.loc	7 1651 34                       @ ../Library/STM32F4xx_HAL_Driver/Src/stm32f4xx_hal_uart.c:1651:34
	ldr	r0, [sp, #28]
	.loc	7 1651 19 is_stmt 0             @ ../Library/STM32F4xx_HAL_Driver/Src/stm32f4xx_hal_uart.c:1651:19
	str	r0, [sp, #12]
	.loc	7 1652 5 is_stmt 1              @ ../Library/STM32F4xx_HAL_Driver/Src/stm32f4xx_hal_uart.c:1652:5
	b	.LBB25_13
.Ltmp446:
.LBB25_12:
	.loc	7 1655 21                       @ ../Library/STM32F4xx_HAL_Driver/Src/stm32f4xx_hal_uart.c:1655:21
	ldr	r0, [sp, #28]
	.loc	7 1655 19 is_stmt 0             @ ../Library/STM32F4xx_HAL_Driver/Src/stm32f4xx_hal_uart.c:1655:19
	str	r0, [sp, #16]
	movs	r0, #0
	.loc	7 1656 19 is_stmt 1             @ ../Library/STM32F4xx_HAL_Driver/Src/stm32f4xx_hal_uart.c:1656:19
	str	r0, [sp, #12]
	b	.LBB25_13
.Ltmp447:
.LBB25_13:
	.loc	7 1659 5                        @ ../Library/STM32F4xx_HAL_Driver/Src/stm32f4xx_hal_uart.c:1659:5
	b	.LBB25_14
.LBB25_14:
.Ltmp448:
	.loc	7 1659 5 is_stmt 0              @ ../Library/STM32F4xx_HAL_Driver/Src/stm32f4xx_hal_uart.c:1659:5
	ldr	r1, [sp, #32]
	movs	r0, #0
	strb.w	r0, [r1, #60]
	b	.LBB25_15
.Ltmp449:
.LBB25_15:
	.loc	7 1662 6 is_stmt 1              @ ../Library/STM32F4xx_HAL_Driver/Src/stm32f4xx_hal_uart.c:1662:6
	ldr	r1, [sp, #20]
	movs	r0, #0
	.loc	7 1662 12 is_stmt 0             @ ../Library/STM32F4xx_HAL_Driver/Src/stm32f4xx_hal_uart.c:1662:12
	strh	r0, [r1]
	.loc	7 1665 5 is_stmt 1              @ ../Library/STM32F4xx_HAL_Driver/Src/stm32f4xx_hal_uart.c:1665:5
	b	.LBB25_16
.LBB25_16:                              @ =>This Inner Loop Header: Depth=1
	.loc	7 1665 12 is_stmt 0             @ ../Library/STM32F4xx_HAL_Driver/Src/stm32f4xx_hal_uart.c:1665:12
	ldr	r0, [sp, #32]
	.loc	7 1665 19                       @ ../Library/STM32F4xx_HAL_Driver/Src/stm32f4xx_hal_uart.c:1665:19
	ldrh	r0, [r0, #46]
	.loc	7 1665 5                        @ ../Library/STM32F4xx_HAL_Driver/Src/stm32f4xx_hal_uart.c:1665:5
	cmp	r0, #0
	beq	.LBB25_39
	b	.LBB25_17
.LBB25_17:                              @   in Loop: Header=BB25_16 Depth=1
.Ltmp450:
	.loc	7 1668 11 is_stmt 1             @ ../Library/STM32F4xx_HAL_Driver/Src/stm32f4xx_hal_uart.c:1668:11
	ldr	r0, [sp, #32]
	ldr	r0, [r0]
	ldr	r0, [r0]
.Ltmp451:
	.loc	7 1668 11 is_stmt 0             @ ../Library/STM32F4xx_HAL_Driver/Src/stm32f4xx_hal_uart.c:1668:11
	lsls	r0, r0, #27
	cmp	r0, #0
	bpl	.LBB25_23
	b	.LBB25_18
.LBB25_18:                              @   in Loop: Header=BB25_16 Depth=1
.Ltmp452:
	.loc	7 1671 9 is_stmt 1              @ ../Library/STM32F4xx_HAL_Driver/Src/stm32f4xx_hal_uart.c:1671:9
	b	.LBB25_19
.LBB25_19:                              @   in Loop: Header=BB25_16 Depth=1
	.loc	7 0 9 is_stmt 0                 @ ../Library/STM32F4xx_HAL_Driver/Src/stm32f4xx_hal_uart.c:0:9
	movs	r0, #0
.Ltmp453:
	.loc	7 1671 9                        @ ../Library/STM32F4xx_HAL_Driver/Src/stm32f4xx_hal_uart.c:1671:9
	str	r0, [sp, #4]
	ldr	r0, [sp, #32]
	ldr	r0, [r0]
	ldr	r0, [r0]
	str	r0, [sp, #4]
	ldr	r0, [sp, #32]
	ldr	r0, [r0]
	ldr	r0, [r0, #4]
	str	r0, [sp, #4]
	ldr	r0, [sp, #4]
	b	.LBB25_20
.Ltmp454:
.LBB25_20:                              @   in Loop: Header=BB25_16 Depth=1
	.loc	7 1675 14 is_stmt 1             @ ../Library/STM32F4xx_HAL_Driver/Src/stm32f4xx_hal_uart.c:1675:14
	ldr	r0, [sp, #20]
	.loc	7 1675 13 is_stmt 0             @ ../Library/STM32F4xx_HAL_Driver/Src/stm32f4xx_hal_uart.c:1675:13
	ldrh	r0, [r0]
.Ltmp455:
	.loc	7 1675 13                       @ ../Library/STM32F4xx_HAL_Driver/Src/stm32f4xx_hal_uart.c:1675:13
	cbz	r0, .LBB25_22
	b	.LBB25_21
.LBB25_21:
.Ltmp456:
	.loc	7 1677 11 is_stmt 1             @ ../Library/STM32F4xx_HAL_Driver/Src/stm32f4xx_hal_uart.c:1677:11
	ldr	r1, [sp, #32]
	movs	r0, #32
	.loc	7 1677 26 is_stmt 0             @ ../Library/STM32F4xx_HAL_Driver/Src/stm32f4xx_hal_uart.c:1677:26
	strb.w	r0, [r1, #62]
	movs	r0, #0
	.loc	7 1679 11 is_stmt 1             @ ../Library/STM32F4xx_HAL_Driver/Src/stm32f4xx_hal_uart.c:1679:11
	strb.w	r0, [sp, #39]
	b	.LBB25_41
.Ltmp457:
.LBB25_22:                              @   in Loop: Header=BB25_16 Depth=1
	.loc	7 1681 7                        @ ../Library/STM32F4xx_HAL_Driver/Src/stm32f4xx_hal_uart.c:1681:7
	b	.LBB25_23
.Ltmp458:
.LBB25_23:                              @   in Loop: Header=BB25_16 Depth=1
	.loc	7 1684 11                       @ ../Library/STM32F4xx_HAL_Driver/Src/stm32f4xx_hal_uart.c:1684:11
	ldr	r0, [sp, #32]
	ldr	r0, [r0]
	ldr	r0, [r0]
.Ltmp459:
	.loc	7 1684 11 is_stmt 0             @ ../Library/STM32F4xx_HAL_Driver/Src/stm32f4xx_hal_uart.c:1684:11
	lsls	r0, r0, #26
	cmp	r0, #0
	bpl	.LBB25_33
	b	.LBB25_24
.LBB25_24:                              @   in Loop: Header=BB25_16 Depth=1
.Ltmp460:
	.loc	7 1686 13 is_stmt 1             @ ../Library/STM32F4xx_HAL_Driver/Src/stm32f4xx_hal_uart.c:1686:13
	ldr	r0, [sp, #16]
.Ltmp461:
	.loc	7 1686 13 is_stmt 0             @ ../Library/STM32F4xx_HAL_Driver/Src/stm32f4xx_hal_uart.c:1686:13
	cbnz	r0, .LBB25_26
	b	.LBB25_25
.LBB25_25:                              @   in Loop: Header=BB25_16 Depth=1
.Ltmp462:
	.loc	7 1688 37 is_stmt 1             @ ../Library/STM32F4xx_HAL_Driver/Src/stm32f4xx_hal_uart.c:1688:37
	ldr	r0, [sp, #32]
	.loc	7 1688 44 is_stmt 0             @ ../Library/STM32F4xx_HAL_Driver/Src/stm32f4xx_hal_uart.c:1688:44
	ldr	r0, [r0]
	.loc	7 1688 54                       @ ../Library/STM32F4xx_HAL_Driver/Src/stm32f4xx_hal_uart.c:1688:54
	ldr	r0, [r0, #4]
	.loc	7 1688 57                       @ ../Library/STM32F4xx_HAL_Driver/Src/stm32f4xx_hal_uart.c:1688:57
	bfc	r0, #9, #23
	.loc	7 1688 12                       @ ../Library/STM32F4xx_HAL_Driver/Src/stm32f4xx_hal_uart.c:1688:12
	ldr	r1, [sp, #12]
	.loc	7 1688 24                       @ ../Library/STM32F4xx_HAL_Driver/Src/stm32f4xx_hal_uart.c:1688:24
	strh	r0, [r1]
	.loc	7 1689 22 is_stmt 1             @ ../Library/STM32F4xx_HAL_Driver/Src/stm32f4xx_hal_uart.c:1689:22
	ldr	r0, [sp, #12]
	adds	r0, #2
	str	r0, [sp, #12]
	.loc	7 1690 9                        @ ../Library/STM32F4xx_HAL_Driver/Src/stm32f4xx_hal_uart.c:1690:9
	b	.LBB25_32
.Ltmp463:
.LBB25_26:                              @   in Loop: Header=BB25_16 Depth=1
	.loc	7 1693 16                       @ ../Library/STM32F4xx_HAL_Driver/Src/stm32f4xx_hal_uart.c:1693:16
	ldr	r0, [sp, #32]
	.loc	7 1693 28 is_stmt 0             @ ../Library/STM32F4xx_HAL_Driver/Src/stm32f4xx_hal_uart.c:1693:28
	ldr	r0, [r0, #8]
	.loc	7 1693 62                       @ ../Library/STM32F4xx_HAL_Driver/Src/stm32f4xx_hal_uart.c:1693:62
	cmp.w	r0, #4096
	beq	.LBB25_29
	b	.LBB25_27
.LBB25_27:                              @   in Loop: Header=BB25_16 Depth=1
	.loc	7 1693 67                       @ ../Library/STM32F4xx_HAL_Driver/Src/stm32f4xx_hal_uart.c:1693:67
	ldr	r0, [sp, #32]
	.loc	7 1693 79                       @ ../Library/STM32F4xx_HAL_Driver/Src/stm32f4xx_hal_uart.c:1693:79
	ldr	r0, [r0, #8]
	.loc	7 1693 113                      @ ../Library/STM32F4xx_HAL_Driver/Src/stm32f4xx_hal_uart.c:1693:113
	cbnz	r0, .LBB25_30
	b	.LBB25_28
.LBB25_28:                              @   in Loop: Header=BB25_16 Depth=1
	.loc	7 1693 117                      @ ../Library/STM32F4xx_HAL_Driver/Src/stm32f4xx_hal_uart.c:1693:117
	ldr	r0, [sp, #32]
	.loc	7 1693 129                      @ ../Library/STM32F4xx_HAL_Driver/Src/stm32f4xx_hal_uart.c:1693:129
	ldr	r0, [r0, #16]
.Ltmp464:
	.loc	7 1693 15                       @ ../Library/STM32F4xx_HAL_Driver/Src/stm32f4xx_hal_uart.c:1693:15
	cbnz	r0, .LBB25_30
	b	.LBB25_29
.LBB25_29:                              @   in Loop: Header=BB25_16 Depth=1
.Ltmp465:
	.loc	7 1695 37 is_stmt 1             @ ../Library/STM32F4xx_HAL_Driver/Src/stm32f4xx_hal_uart.c:1695:37
	ldr	r0, [sp, #32]
	.loc	7 1695 44 is_stmt 0             @ ../Library/STM32F4xx_HAL_Driver/Src/stm32f4xx_hal_uart.c:1695:44
	ldr	r0, [r0]
	.loc	7 1695 54                       @ ../Library/STM32F4xx_HAL_Driver/Src/stm32f4xx_hal_uart.c:1695:54
	ldr	r0, [r0, #4]
	.loc	7 1695 14                       @ ../Library/STM32F4xx_HAL_Driver/Src/stm32f4xx_hal_uart.c:1695:14
	ldr	r1, [sp, #16]
	.loc	7 1695 25                       @ ../Library/STM32F4xx_HAL_Driver/Src/stm32f4xx_hal_uart.c:1695:25
	strb	r0, [r1]
	.loc	7 1696 11 is_stmt 1             @ ../Library/STM32F4xx_HAL_Driver/Src/stm32f4xx_hal_uart.c:1696:11
	b	.LBB25_31
.Ltmp466:
.LBB25_30:                              @   in Loop: Header=BB25_16 Depth=1
	.loc	7 1699 37                       @ ../Library/STM32F4xx_HAL_Driver/Src/stm32f4xx_hal_uart.c:1699:37
	ldr	r0, [sp, #32]
	.loc	7 1699 44 is_stmt 0             @ ../Library/STM32F4xx_HAL_Driver/Src/stm32f4xx_hal_uart.c:1699:44
	ldr	r0, [r0]
	.loc	7 1699 54                       @ ../Library/STM32F4xx_HAL_Driver/Src/stm32f4xx_hal_uart.c:1699:54
	ldr	r0, [r0, #4]
	.loc	7 1699 57                       @ ../Library/STM32F4xx_HAL_Driver/Src/stm32f4xx_hal_uart.c:1699:57
	and	r0, r0, #127
	.loc	7 1699 14                       @ ../Library/STM32F4xx_HAL_Driver/Src/stm32f4xx_hal_uart.c:1699:14
	ldr	r1, [sp, #16]
	.loc	7 1699 25                       @ ../Library/STM32F4xx_HAL_Driver/Src/stm32f4xx_hal_uart.c:1699:25
	strb	r0, [r1]
	b	.LBB25_31
.Ltmp467:
.LBB25_31:                              @   in Loop: Header=BB25_16 Depth=1
	.loc	7 1702 21 is_stmt 1             @ ../Library/STM32F4xx_HAL_Driver/Src/stm32f4xx_hal_uart.c:1702:21
	ldr	r0, [sp, #16]
	adds	r0, #1
	str	r0, [sp, #16]
	b	.LBB25_32
.Ltmp468:
.LBB25_32:                              @   in Loop: Header=BB25_16 Depth=1
	.loc	7 1705 10                       @ ../Library/STM32F4xx_HAL_Driver/Src/stm32f4xx_hal_uart.c:1705:10
	ldr	r1, [sp, #20]
	.loc	7 1705 16 is_stmt 0             @ ../Library/STM32F4xx_HAL_Driver/Src/stm32f4xx_hal_uart.c:1705:16
	ldrh	r0, [r1]
	adds	r0, #1
	strh	r0, [r1]
	.loc	7 1706 9 is_stmt 1              @ ../Library/STM32F4xx_HAL_Driver/Src/stm32f4xx_hal_uart.c:1706:9
	ldr	r1, [sp, #32]
	.loc	7 1706 27 is_stmt 0             @ ../Library/STM32F4xx_HAL_Driver/Src/stm32f4xx_hal_uart.c:1706:27
	ldrh	r0, [r1, #46]
	subs	r0, #1
	strh	r0, [r1, #46]
	.loc	7 1707 7 is_stmt 1              @ ../Library/STM32F4xx_HAL_Driver/Src/stm32f4xx_hal_uart.c:1707:7
	b	.LBB25_33
.Ltmp469:
.LBB25_33:                              @   in Loop: Header=BB25_16 Depth=1
	.loc	7 1710 11                       @ ../Library/STM32F4xx_HAL_Driver/Src/stm32f4xx_hal_uart.c:1710:11
	ldr	r0, [sp, #48]
.Ltmp470:
	.loc	7 1710 11 is_stmt 0             @ ../Library/STM32F4xx_HAL_Driver/Src/stm32f4xx_hal_uart.c:1710:11
	adds	r0, #1
	cbz	r0, .LBB25_38
	b	.LBB25_34
.LBB25_34:                              @   in Loop: Header=BB25_16 Depth=1
.Ltmp471:
	.loc	7 1712 15 is_stmt 1             @ ../Library/STM32F4xx_HAL_Driver/Src/stm32f4xx_hal_uart.c:1712:15
	bl	HAL_GetTick
	.loc	7 1712 31 is_stmt 0             @ ../Library/STM32F4xx_HAL_Driver/Src/stm32f4xx_hal_uart.c:1712:31
	ldr	r1, [sp, #8]
	.loc	7 1712 29                       @ ../Library/STM32F4xx_HAL_Driver/Src/stm32f4xx_hal_uart.c:1712:29
	subs	r0, r0, r1
	.loc	7 1712 44                       @ ../Library/STM32F4xx_HAL_Driver/Src/stm32f4xx_hal_uart.c:1712:44
	ldr	r1, [sp, #48]
	.loc	7 1712 53                       @ ../Library/STM32F4xx_HAL_Driver/Src/stm32f4xx_hal_uart.c:1712:53
	cmp	r0, r1
	bhi	.LBB25_36
	b	.LBB25_35
.LBB25_35:                              @   in Loop: Header=BB25_16 Depth=1
	.loc	7 1712 57                       @ ../Library/STM32F4xx_HAL_Driver/Src/stm32f4xx_hal_uart.c:1712:57
	ldr	r0, [sp, #48]
.Ltmp472:
	.loc	7 1712 13                       @ ../Library/STM32F4xx_HAL_Driver/Src/stm32f4xx_hal_uart.c:1712:13
	cbnz	r0, .LBB25_37
	b	.LBB25_36
.LBB25_36:
.Ltmp473:
	.loc	7 1714 11 is_stmt 1             @ ../Library/STM32F4xx_HAL_Driver/Src/stm32f4xx_hal_uart.c:1714:11
	ldr	r1, [sp, #32]
	movs	r0, #32
	.loc	7 1714 26 is_stmt 0             @ ../Library/STM32F4xx_HAL_Driver/Src/stm32f4xx_hal_uart.c:1714:26
	strb.w	r0, [r1, #62]
	movs	r0, #3
	.loc	7 1716 11 is_stmt 1             @ ../Library/STM32F4xx_HAL_Driver/Src/stm32f4xx_hal_uart.c:1716:11
	strb.w	r0, [sp, #39]
	b	.LBB25_41
.Ltmp474:
.LBB25_37:                              @   in Loop: Header=BB25_16 Depth=1
	.loc	7 1718 7                        @ ../Library/STM32F4xx_HAL_Driver/Src/stm32f4xx_hal_uart.c:1718:7
	b	.LBB25_38
.Ltmp475:
.LBB25_38:                              @   in Loop: Header=BB25_16 Depth=1
	.loc	7 1665 5                        @ ../Library/STM32F4xx_HAL_Driver/Src/stm32f4xx_hal_uart.c:1665:5
	b	.LBB25_16
.LBB25_39:
	.loc	7 1722 14                       @ ../Library/STM32F4xx_HAL_Driver/Src/stm32f4xx_hal_uart.c:1722:14
	ldr	r1, [sp, #32]
	ldrh	r0, [r1, #44]
	.loc	7 1722 34 is_stmt 0             @ ../Library/STM32F4xx_HAL_Driver/Src/stm32f4xx_hal_uart.c:1722:34
	ldrh	r1, [r1, #46]
	.loc	7 1722 32                       @ ../Library/STM32F4xx_HAL_Driver/Src/stm32f4xx_hal_uart.c:1722:32
	subs	r0, r0, r1
	.loc	7 1722 6                        @ ../Library/STM32F4xx_HAL_Driver/Src/stm32f4xx_hal_uart.c:1722:6
	ldr	r1, [sp, #20]
	.loc	7 1722 12                       @ ../Library/STM32F4xx_HAL_Driver/Src/stm32f4xx_hal_uart.c:1722:12
	strh	r0, [r1]
	.loc	7 1724 5 is_stmt 1              @ ../Library/STM32F4xx_HAL_Driver/Src/stm32f4xx_hal_uart.c:1724:5
	ldr	r1, [sp, #32]
	movs	r0, #32
	.loc	7 1724 20 is_stmt 0             @ ../Library/STM32F4xx_HAL_Driver/Src/stm32f4xx_hal_uart.c:1724:20
	strb.w	r0, [r1, #62]
	movs	r0, #0
	.loc	7 1726 5 is_stmt 1              @ ../Library/STM32F4xx_HAL_Driver/Src/stm32f4xx_hal_uart.c:1726:5
	strb.w	r0, [sp, #39]
	b	.LBB25_41
.Ltmp476:
.LBB25_40:
	.loc	7 0 5 is_stmt 0                 @ ../Library/STM32F4xx_HAL_Driver/Src/stm32f4xx_hal_uart.c:0:5
	movs	r0, #2
.Ltmp477:
	.loc	7 1730 5 is_stmt 1              @ ../Library/STM32F4xx_HAL_Driver/Src/stm32f4xx_hal_uart.c:1730:5
	strb.w	r0, [sp, #39]
	b	.LBB25_41
.Ltmp478:
.LBB25_41:
	.loc	7 1732 1                        @ ../Library/STM32F4xx_HAL_Driver/Src/stm32f4xx_hal_uart.c:1732:1
	ldrb.w	r0, [sp, #39]
	add	sp, #40
	pop	{r7, pc}
.Ltmp479:
.Lfunc_end25:
	.size	HAL_UARTEx_ReceiveToIdle, .Lfunc_end25-HAL_UARTEx_ReceiveToIdle
	.cfi_endproc
	.cantunwind
	.fnend
                                        @ -- End function
	.section	.text.HAL_UARTEx_ReceiveToIdle_IT,"ax",%progbits
	.hidden	HAL_UARTEx_ReceiveToIdle_IT     @ -- Begin function HAL_UARTEx_ReceiveToIdle_IT
	.globl	HAL_UARTEx_ReceiveToIdle_IT
	.p2align	2
	.type	HAL_UARTEx_ReceiveToIdle_IT,%function
	.code	16                              @ @HAL_UARTEx_ReceiveToIdle_IT
	.thumb_func
HAL_UARTEx_ReceiveToIdle_IT:
.Lfunc_begin26:
	.loc	7 1748 0                        @ ../Library/STM32F4xx_HAL_Driver/Src/stm32f4xx_hal_uart.c:1748:0
	.fnstart
	.cfi_startproc
@ %bb.0:
	.save	{r7, lr}
	push	{r7, lr}
	.cfi_def_cfa_offset 8
	.cfi_offset lr, -4
	.cfi_offset r7, -8
	.pad	#24
	sub	sp, #24
	.cfi_def_cfa_offset 32
                                        @ kill: def $r3 killed $r2
	str	r0, [sp, #16]
	str	r1, [sp, #12]
	strh.w	r2, [sp, #10]
.Ltmp480:
	.loc	7 1752 7 prologue_end           @ ../Library/STM32F4xx_HAL_Driver/Src/stm32f4xx_hal_uart.c:1752:7
	ldr	r0, [sp, #16]
	.loc	7 1752 14 is_stmt 0             @ ../Library/STM32F4xx_HAL_Driver/Src/stm32f4xx_hal_uart.c:1752:14
	ldrb.w	r0, [r0, #62]
.Ltmp481:
	.loc	7 1752 7                        @ ../Library/STM32F4xx_HAL_Driver/Src/stm32f4xx_hal_uart.c:1752:7
	cmp	r0, #32
	bne	.LBB26_22
	b	.LBB26_1
.LBB26_1:
.Ltmp482:
	.loc	7 1754 10 is_stmt 1             @ ../Library/STM32F4xx_HAL_Driver/Src/stm32f4xx_hal_uart.c:1754:10
	ldr	r0, [sp, #12]
	.loc	7 1754 25 is_stmt 0             @ ../Library/STM32F4xx_HAL_Driver/Src/stm32f4xx_hal_uart.c:1754:25
	cbz	r0, .LBB26_3
	b	.LBB26_2
.LBB26_2:
	.loc	7 1754 29                       @ ../Library/STM32F4xx_HAL_Driver/Src/stm32f4xx_hal_uart.c:1754:29
	ldrh.w	r0, [sp, #10]
.Ltmp483:
	.loc	7 1754 9                        @ ../Library/STM32F4xx_HAL_Driver/Src/stm32f4xx_hal_uart.c:1754:9
	cbnz	r0, .LBB26_4
	b	.LBB26_3
.LBB26_3:
	.loc	7 0 9                           @ ../Library/STM32F4xx_HAL_Driver/Src/stm32f4xx_hal_uart.c:0:9
	movs	r0, #1
.Ltmp484:
	.loc	7 1756 7 is_stmt 1              @ ../Library/STM32F4xx_HAL_Driver/Src/stm32f4xx_hal_uart.c:1756:7
	strb.w	r0, [sp, #23]
	b	.LBB26_23
.Ltmp485:
.LBB26_4:
	.loc	7 1759 5                        @ ../Library/STM32F4xx_HAL_Driver/Src/stm32f4xx_hal_uart.c:1759:5
	b	.LBB26_5
.LBB26_5:
.Ltmp486:
	.loc	7 1759 5 is_stmt 0              @ ../Library/STM32F4xx_HAL_Driver/Src/stm32f4xx_hal_uart.c:1759:5
	ldr	r0, [sp, #16]
	ldrb.w	r0, [r0, #60]
.Ltmp487:
	.loc	7 1759 5                        @ ../Library/STM32F4xx_HAL_Driver/Src/stm32f4xx_hal_uart.c:1759:5
	cmp	r0, #1
	bne	.LBB26_7
	b	.LBB26_6
.LBB26_6:
	.loc	7 0 5                           @ ../Library/STM32F4xx_HAL_Driver/Src/stm32f4xx_hal_uart.c:0:5
	movs	r0, #2
.Ltmp488:
	.loc	7 1759 5                        @ ../Library/STM32F4xx_HAL_Driver/Src/stm32f4xx_hal_uart.c:1759:5
	strb.w	r0, [sp, #23]
	b	.LBB26_23
.Ltmp489:
.LBB26_7:
	.loc	7 1759 5                        @ ../Library/STM32F4xx_HAL_Driver/Src/stm32f4xx_hal_uart.c:1759:5
	ldr	r1, [sp, #16]
	movs	r0, #1
	strb.w	r0, [r1, #60]
	b	.LBB26_8
.Ltmp490:
.LBB26_8:
	.loc	7 1759 5                        @ ../Library/STM32F4xx_HAL_Driver/Src/stm32f4xx_hal_uart.c:1759:5
	b	.LBB26_9
.Ltmp491:
.LBB26_9:
	.loc	7 1762 5 is_stmt 1              @ ../Library/STM32F4xx_HAL_Driver/Src/stm32f4xx_hal_uart.c:1762:5
	ldr	r1, [sp, #16]
	movs	r0, #1
	.loc	7 1762 26 is_stmt 0             @ ../Library/STM32F4xx_HAL_Driver/Src/stm32f4xx_hal_uart.c:1762:26
	str	r0, [r1, #48]
	.loc	7 1764 37 is_stmt 1             @ ../Library/STM32F4xx_HAL_Driver/Src/stm32f4xx_hal_uart.c:1764:37
	ldr	r0, [sp, #16]
	.loc	7 1764 44 is_stmt 0             @ ../Library/STM32F4xx_HAL_Driver/Src/stm32f4xx_hal_uart.c:1764:44
	ldr	r1, [sp, #12]
	.loc	7 1764 51                       @ ../Library/STM32F4xx_HAL_Driver/Src/stm32f4xx_hal_uart.c:1764:51
	ldrh.w	r2, [sp, #10]
	.loc	7 1764 15                       @ ../Library/STM32F4xx_HAL_Driver/Src/stm32f4xx_hal_uart.c:1764:15
	bl	UART_Start_Receive_IT
	.loc	7 1764 12                       @ ../Library/STM32F4xx_HAL_Driver/Src/stm32f4xx_hal_uart.c:1764:12
	strb.w	r0, [sp, #9]
.Ltmp492:
	.loc	7 1767 9 is_stmt 1              @ ../Library/STM32F4xx_HAL_Driver/Src/stm32f4xx_hal_uart.c:1767:9
	ldrb.w	r0, [sp, #9]
.Ltmp493:
	.loc	7 1767 9 is_stmt 0              @ ../Library/STM32F4xx_HAL_Driver/Src/stm32f4xx_hal_uart.c:1767:9
	cbnz	r0, .LBB26_21
	b	.LBB26_10
.LBB26_10:
.Ltmp494:
	.loc	7 1769 11 is_stmt 1             @ ../Library/STM32F4xx_HAL_Driver/Src/stm32f4xx_hal_uart.c:1769:11
	ldr	r0, [sp, #16]
	.loc	7 1769 18 is_stmt 0             @ ../Library/STM32F4xx_HAL_Driver/Src/stm32f4xx_hal_uart.c:1769:18
	ldr	r0, [r0, #48]
.Ltmp495:
	.loc	7 1769 11                       @ ../Library/STM32F4xx_HAL_Driver/Src/stm32f4xx_hal_uart.c:1769:11
	cmp	r0, #1
	bne	.LBB26_19
	b	.LBB26_11
.LBB26_11:
.Ltmp496:
	.loc	7 1771 9 is_stmt 1              @ ../Library/STM32F4xx_HAL_Driver/Src/stm32f4xx_hal_uart.c:1771:9
	b	.LBB26_12
.LBB26_12:
	.loc	7 0 9 is_stmt 0                 @ ../Library/STM32F4xx_HAL_Driver/Src/stm32f4xx_hal_uart.c:0:9
	movs	r0, #0
.Ltmp497:
	.loc	7 1771 9                        @ ../Library/STM32F4xx_HAL_Driver/Src/stm32f4xx_hal_uart.c:1771:9
	str	r0, [sp, #4]
	ldr	r0, [sp, #16]
	ldr	r0, [r0]
	ldr	r0, [r0]
	str	r0, [sp, #4]
	ldr	r0, [sp, #16]
	ldr	r0, [r0]
	ldr	r0, [r0, #4]
	str	r0, [sp, #4]
	ldr	r0, [sp, #4]
	b	.LBB26_13
.Ltmp498:
.LBB26_13:
	.loc	7 1772 9 is_stmt 1              @ ../Library/STM32F4xx_HAL_Driver/Src/stm32f4xx_hal_uart.c:1772:9
	b	.LBB26_14
.LBB26_14:
.Ltmp499:
	.loc	7 1772 9 is_stmt 0              @ ../Library/STM32F4xx_HAL_Driver/Src/stm32f4xx_hal_uart.c:1772:9
	b	.LBB26_15
.LBB26_15:                              @ =>This Inner Loop Header: Depth=1
.Ltmp500:
	.loc	7 1772 9                        @ ../Library/STM32F4xx_HAL_Driver/Src/stm32f4xx_hal_uart.c:1772:9
	ldr	r0, [sp, #16]
	ldr	r0, [r0]
	ldrex	r0, [r0, #12]
	orr	r0, r0, #16
	str	r0, [sp]
	b	.LBB26_16
.Ltmp501:
.LBB26_16:                              @   in Loop: Header=BB26_15 Depth=1
	.loc	7 1772 9                        @ ../Library/STM32F4xx_HAL_Driver/Src/stm32f4xx_hal_uart.c:1772:9
	ldr	r1, [sp]
	ldr	r0, [sp, #16]
	ldr	r2, [r0]
	strex	r0, r1, [r2, #12]
.Ltmp502:
	.loc	7 1772 9                        @ ../Library/STM32F4xx_HAL_Driver/Src/stm32f4xx_hal_uart.c:1772:9
	cmp	r0, #0
	bne	.LBB26_15
	b	.LBB26_17
.Ltmp503:
.LBB26_17:
	.loc	7 1772 9                        @ ../Library/STM32F4xx_HAL_Driver/Src/stm32f4xx_hal_uart.c:1772:9
	b	.LBB26_18
.Ltmp504:
.LBB26_18:
	.loc	7 1773 7 is_stmt 1              @ ../Library/STM32F4xx_HAL_Driver/Src/stm32f4xx_hal_uart.c:1773:7
	b	.LBB26_20
.Ltmp505:
.LBB26_19:
	.loc	7 0 7 is_stmt 0                 @ ../Library/STM32F4xx_HAL_Driver/Src/stm32f4xx_hal_uart.c:0:7
	movs	r0, #1
.Ltmp506:
	.loc	7 1780 16 is_stmt 1             @ ../Library/STM32F4xx_HAL_Driver/Src/stm32f4xx_hal_uart.c:1780:16
	strb.w	r0, [sp, #9]
	b	.LBB26_20
.Ltmp507:
.LBB26_20:
	.loc	7 1782 5                        @ ../Library/STM32F4xx_HAL_Driver/Src/stm32f4xx_hal_uart.c:1782:5
	b	.LBB26_21
.Ltmp508:
.LBB26_21:
	.loc	7 1784 12                       @ ../Library/STM32F4xx_HAL_Driver/Src/stm32f4xx_hal_uart.c:1784:12
	ldrb.w	r0, [sp, #9]
	.loc	7 1784 5 is_stmt 0              @ ../Library/STM32F4xx_HAL_Driver/Src/stm32f4xx_hal_uart.c:1784:5
	strb.w	r0, [sp, #23]
	b	.LBB26_23
.Ltmp509:
.LBB26_22:
	.loc	7 0 5                           @ ../Library/STM32F4xx_HAL_Driver/Src/stm32f4xx_hal_uart.c:0:5
	movs	r0, #2
.Ltmp510:
	.loc	7 1788 5 is_stmt 1              @ ../Library/STM32F4xx_HAL_Driver/Src/stm32f4xx_hal_uart.c:1788:5
	strb.w	r0, [sp, #23]
	b	.LBB26_23
.Ltmp511:
.LBB26_23:
	.loc	7 1790 1                        @ ../Library/STM32F4xx_HAL_Driver/Src/stm32f4xx_hal_uart.c:1790:1
	ldrb.w	r0, [sp, #23]
	add	sp, #24
	pop	{r7, pc}
.Ltmp512:
.Lfunc_end26:
	.size	HAL_UARTEx_ReceiveToIdle_IT, .Lfunc_end26-HAL_UARTEx_ReceiveToIdle_IT
	.cfi_endproc
	.cantunwind
	.fnend
                                        @ -- End function
	.section	.text.HAL_UARTEx_ReceiveToIdle_DMA,"ax",%progbits
	.hidden	HAL_UARTEx_ReceiveToIdle_DMA    @ -- Begin function HAL_UARTEx_ReceiveToIdle_DMA
	.globl	HAL_UARTEx_ReceiveToIdle_DMA
	.p2align	2
	.type	HAL_UARTEx_ReceiveToIdle_DMA,%function
	.code	16                              @ @HAL_UARTEx_ReceiveToIdle_DMA
	.thumb_func
HAL_UARTEx_ReceiveToIdle_DMA:
.Lfunc_begin27:
	.loc	7 1809 0                        @ ../Library/STM32F4xx_HAL_Driver/Src/stm32f4xx_hal_uart.c:1809:0
	.fnstart
	.cfi_startproc
@ %bb.0:
	.save	{r7, lr}
	push	{r7, lr}
	.cfi_def_cfa_offset 8
	.cfi_offset lr, -4
	.cfi_offset r7, -8
	.pad	#24
	sub	sp, #24
	.cfi_def_cfa_offset 32
                                        @ kill: def $r3 killed $r2
	str	r0, [sp, #16]
	str	r1, [sp, #12]
	strh.w	r2, [sp, #10]
.Ltmp513:
	.loc	7 1813 7 prologue_end           @ ../Library/STM32F4xx_HAL_Driver/Src/stm32f4xx_hal_uart.c:1813:7
	ldr	r0, [sp, #16]
	.loc	7 1813 14 is_stmt 0             @ ../Library/STM32F4xx_HAL_Driver/Src/stm32f4xx_hal_uart.c:1813:14
	ldrb.w	r0, [r0, #62]
.Ltmp514:
	.loc	7 1813 7                        @ ../Library/STM32F4xx_HAL_Driver/Src/stm32f4xx_hal_uart.c:1813:7
	cmp	r0, #32
	bne	.LBB27_22
	b	.LBB27_1
.LBB27_1:
.Ltmp515:
	.loc	7 1815 10 is_stmt 1             @ ../Library/STM32F4xx_HAL_Driver/Src/stm32f4xx_hal_uart.c:1815:10
	ldr	r0, [sp, #12]
	.loc	7 1815 25 is_stmt 0             @ ../Library/STM32F4xx_HAL_Driver/Src/stm32f4xx_hal_uart.c:1815:25
	cbz	r0, .LBB27_3
	b	.LBB27_2
.LBB27_2:
	.loc	7 1815 29                       @ ../Library/STM32F4xx_HAL_Driver/Src/stm32f4xx_hal_uart.c:1815:29
	ldrh.w	r0, [sp, #10]
.Ltmp516:
	.loc	7 1815 9                        @ ../Library/STM32F4xx_HAL_Driver/Src/stm32f4xx_hal_uart.c:1815:9
	cbnz	r0, .LBB27_4
	b	.LBB27_3
.LBB27_3:
	.loc	7 0 9                           @ ../Library/STM32F4xx_HAL_Driver/Src/stm32f4xx_hal_uart.c:0:9
	movs	r0, #1
.Ltmp517:
	.loc	7 1817 7 is_stmt 1              @ ../Library/STM32F4xx_HAL_Driver/Src/stm32f4xx_hal_uart.c:1817:7
	strb.w	r0, [sp, #23]
	b	.LBB27_23
.Ltmp518:
.LBB27_4:
	.loc	7 1820 5                        @ ../Library/STM32F4xx_HAL_Driver/Src/stm32f4xx_hal_uart.c:1820:5
	b	.LBB27_5
.LBB27_5:
.Ltmp519:
	.loc	7 1820 5 is_stmt 0              @ ../Library/STM32F4xx_HAL_Driver/Src/stm32f4xx_hal_uart.c:1820:5
	ldr	r0, [sp, #16]
	ldrb.w	r0, [r0, #60]
.Ltmp520:
	.loc	7 1820 5                        @ ../Library/STM32F4xx_HAL_Driver/Src/stm32f4xx_hal_uart.c:1820:5
	cmp	r0, #1
	bne	.LBB27_7
	b	.LBB27_6
.LBB27_6:
	.loc	7 0 5                           @ ../Library/STM32F4xx_HAL_Driver/Src/stm32f4xx_hal_uart.c:0:5
	movs	r0, #2
.Ltmp521:
	.loc	7 1820 5                        @ ../Library/STM32F4xx_HAL_Driver/Src/stm32f4xx_hal_uart.c:1820:5
	strb.w	r0, [sp, #23]
	b	.LBB27_23
.Ltmp522:
.LBB27_7:
	.loc	7 1820 5                        @ ../Library/STM32F4xx_HAL_Driver/Src/stm32f4xx_hal_uart.c:1820:5
	ldr	r1, [sp, #16]
	movs	r0, #1
	strb.w	r0, [r1, #60]
	b	.LBB27_8
.Ltmp523:
.LBB27_8:
	.loc	7 1820 5                        @ ../Library/STM32F4xx_HAL_Driver/Src/stm32f4xx_hal_uart.c:1820:5
	b	.LBB27_9
.Ltmp524:
.LBB27_9:
	.loc	7 1823 5 is_stmt 1              @ ../Library/STM32F4xx_HAL_Driver/Src/stm32f4xx_hal_uart.c:1823:5
	ldr	r1, [sp, #16]
	movs	r0, #1
	.loc	7 1823 26 is_stmt 0             @ ../Library/STM32F4xx_HAL_Driver/Src/stm32f4xx_hal_uart.c:1823:26
	str	r0, [r1, #48]
	.loc	7 1825 38 is_stmt 1             @ ../Library/STM32F4xx_HAL_Driver/Src/stm32f4xx_hal_uart.c:1825:38
	ldr	r0, [sp, #16]
	.loc	7 1825 45 is_stmt 0             @ ../Library/STM32F4xx_HAL_Driver/Src/stm32f4xx_hal_uart.c:1825:45
	ldr	r1, [sp, #12]
	.loc	7 1825 52                       @ ../Library/STM32F4xx_HAL_Driver/Src/stm32f4xx_hal_uart.c:1825:52
	ldrh.w	r2, [sp, #10]
	.loc	7 1825 15                       @ ../Library/STM32F4xx_HAL_Driver/Src/stm32f4xx_hal_uart.c:1825:15
	bl	UART_Start_Receive_DMA
	.loc	7 1825 12                       @ ../Library/STM32F4xx_HAL_Driver/Src/stm32f4xx_hal_uart.c:1825:12
	strb.w	r0, [sp, #9]
.Ltmp525:
	.loc	7 1828 9 is_stmt 1              @ ../Library/STM32F4xx_HAL_Driver/Src/stm32f4xx_hal_uart.c:1828:9
	ldrb.w	r0, [sp, #9]
.Ltmp526:
	.loc	7 1828 9 is_stmt 0              @ ../Library/STM32F4xx_HAL_Driver/Src/stm32f4xx_hal_uart.c:1828:9
	cbnz	r0, .LBB27_21
	b	.LBB27_10
.LBB27_10:
.Ltmp527:
	.loc	7 1830 11 is_stmt 1             @ ../Library/STM32F4xx_HAL_Driver/Src/stm32f4xx_hal_uart.c:1830:11
	ldr	r0, [sp, #16]
	.loc	7 1830 18 is_stmt 0             @ ../Library/STM32F4xx_HAL_Driver/Src/stm32f4xx_hal_uart.c:1830:18
	ldr	r0, [r0, #48]
.Ltmp528:
	.loc	7 1830 11                       @ ../Library/STM32F4xx_HAL_Driver/Src/stm32f4xx_hal_uart.c:1830:11
	cmp	r0, #1
	bne	.LBB27_19
	b	.LBB27_11
.LBB27_11:
.Ltmp529:
	.loc	7 1832 9 is_stmt 1              @ ../Library/STM32F4xx_HAL_Driver/Src/stm32f4xx_hal_uart.c:1832:9
	b	.LBB27_12
.LBB27_12:
	.loc	7 0 9 is_stmt 0                 @ ../Library/STM32F4xx_HAL_Driver/Src/stm32f4xx_hal_uart.c:0:9
	movs	r0, #0
.Ltmp530:
	.loc	7 1832 9                        @ ../Library/STM32F4xx_HAL_Driver/Src/stm32f4xx_hal_uart.c:1832:9
	str	r0, [sp, #4]
	ldr	r0, [sp, #16]
	ldr	r0, [r0]
	ldr	r0, [r0]
	str	r0, [sp, #4]
	ldr	r0, [sp, #16]
	ldr	r0, [r0]
	ldr	r0, [r0, #4]
	str	r0, [sp, #4]
	ldr	r0, [sp, #4]
	b	.LBB27_13
.Ltmp531:
.LBB27_13:
	.loc	7 1833 9 is_stmt 1              @ ../Library/STM32F4xx_HAL_Driver/Src/stm32f4xx_hal_uart.c:1833:9
	b	.LBB27_14
.LBB27_14:
.Ltmp532:
	.loc	7 1833 9 is_stmt 0              @ ../Library/STM32F4xx_HAL_Driver/Src/stm32f4xx_hal_uart.c:1833:9
	b	.LBB27_15
.LBB27_15:                              @ =>This Inner Loop Header: Depth=1
.Ltmp533:
	.loc	7 1833 9                        @ ../Library/STM32F4xx_HAL_Driver/Src/stm32f4xx_hal_uart.c:1833:9
	ldr	r0, [sp, #16]
	ldr	r0, [r0]
	ldrex	r0, [r0, #12]
	orr	r0, r0, #16
	str	r0, [sp]
	b	.LBB27_16
.Ltmp534:
.LBB27_16:                              @   in Loop: Header=BB27_15 Depth=1
	.loc	7 1833 9                        @ ../Library/STM32F4xx_HAL_Driver/Src/stm32f4xx_hal_uart.c:1833:9
	ldr	r1, [sp]
	ldr	r0, [sp, #16]
	ldr	r2, [r0]
	strex	r0, r1, [r2, #12]
.Ltmp535:
	.loc	7 1833 9                        @ ../Library/STM32F4xx_HAL_Driver/Src/stm32f4xx_hal_uart.c:1833:9
	cmp	r0, #0
	bne	.LBB27_15
	b	.LBB27_17
.Ltmp536:
.LBB27_17:
	.loc	7 1833 9                        @ ../Library/STM32F4xx_HAL_Driver/Src/stm32f4xx_hal_uart.c:1833:9
	b	.LBB27_18
.Ltmp537:
.LBB27_18:
	.loc	7 1834 7 is_stmt 1              @ ../Library/STM32F4xx_HAL_Driver/Src/stm32f4xx_hal_uart.c:1834:7
	b	.LBB27_20
.Ltmp538:
.LBB27_19:
	.loc	7 0 7 is_stmt 0                 @ ../Library/STM32F4xx_HAL_Driver/Src/stm32f4xx_hal_uart.c:0:7
	movs	r0, #1
.Ltmp539:
	.loc	7 1841 16 is_stmt 1             @ ../Library/STM32F4xx_HAL_Driver/Src/stm32f4xx_hal_uart.c:1841:16
	strb.w	r0, [sp, #9]
	b	.LBB27_20
.Ltmp540:
.LBB27_20:
	.loc	7 1843 5                        @ ../Library/STM32F4xx_HAL_Driver/Src/stm32f4xx_hal_uart.c:1843:5
	b	.LBB27_21
.Ltmp541:
.LBB27_21:
	.loc	7 1845 12                       @ ../Library/STM32F4xx_HAL_Driver/Src/stm32f4xx_hal_uart.c:1845:12
	ldrb.w	r0, [sp, #9]
	.loc	7 1845 5 is_stmt 0              @ ../Library/STM32F4xx_HAL_Driver/Src/stm32f4xx_hal_uart.c:1845:5
	strb.w	r0, [sp, #23]
	b	.LBB27_23
.Ltmp542:
.LBB27_22:
	.loc	7 0 5                           @ ../Library/STM32F4xx_HAL_Driver/Src/stm32f4xx_hal_uart.c:0:5
	movs	r0, #2
.Ltmp543:
	.loc	7 1849 5 is_stmt 1              @ ../Library/STM32F4xx_HAL_Driver/Src/stm32f4xx_hal_uart.c:1849:5
	strb.w	r0, [sp, #23]
	b	.LBB27_23
.Ltmp544:
.LBB27_23:
	.loc	7 1851 1                        @ ../Library/STM32F4xx_HAL_Driver/Src/stm32f4xx_hal_uart.c:1851:1
	ldrb.w	r0, [sp, #23]
	add	sp, #24
	pop	{r7, pc}
.Ltmp545:
.Lfunc_end27:
	.size	HAL_UARTEx_ReceiveToIdle_DMA, .Lfunc_end27-HAL_UARTEx_ReceiveToIdle_DMA
	.cfi_endproc
	.cantunwind
	.fnend
                                        @ -- End function
	.section	.text.HAL_UART_Abort,"ax",%progbits
	.hidden	HAL_UART_Abort                  @ -- Begin function HAL_UART_Abort
	.globl	HAL_UART_Abort
	.p2align	2
	.type	HAL_UART_Abort,%function
	.code	16                              @ @HAL_UART_Abort
	.thumb_func
HAL_UART_Abort:
.Lfunc_begin28:
	.loc	7 1866 0                        @ ../Library/STM32F4xx_HAL_Driver/Src/stm32f4xx_hal_uart.c:1866:0
	.fnstart
	.cfi_startproc
@ %bb.0:
	.save	{r7, lr}
	push	{r7, lr}
	.cfi_def_cfa_offset 8
	.cfi_offset lr, -4
	.cfi_offset r7, -8
	.pad	#32
	sub	sp, #32
	.cfi_def_cfa_offset 40
	str	r0, [sp, #24]
.Ltmp546:
	.loc	7 1868 3 prologue_end           @ ../Library/STM32F4xx_HAL_Driver/Src/stm32f4xx_hal_uart.c:1868:3
	b	.LBB28_1
.LBB28_1:
.Ltmp547:
	.loc	7 1868 3 is_stmt 0              @ ../Library/STM32F4xx_HAL_Driver/Src/stm32f4xx_hal_uart.c:1868:3
	b	.LBB28_2
.LBB28_2:                               @ =>This Inner Loop Header: Depth=1
.Ltmp548:
	.loc	7 1868 3                        @ ../Library/STM32F4xx_HAL_Driver/Src/stm32f4xx_hal_uart.c:1868:3
	ldr	r0, [sp, #24]
	ldr	r0, [r0]
	ldrex	r0, [r0, #12]
	bic	r0, r0, #480
	str	r0, [sp, #20]
	b	.LBB28_3
.Ltmp549:
.LBB28_3:                               @   in Loop: Header=BB28_2 Depth=1
	.loc	7 1868 3                        @ ../Library/STM32F4xx_HAL_Driver/Src/stm32f4xx_hal_uart.c:1868:3
	ldr	r1, [sp, #20]
	ldr	r0, [sp, #24]
	ldr	r2, [r0]
	strex	r0, r1, [r2, #12]
.Ltmp550:
	.loc	7 1868 3                        @ ../Library/STM32F4xx_HAL_Driver/Src/stm32f4xx_hal_uart.c:1868:3
	cmp	r0, #0
	bne	.LBB28_2
	b	.LBB28_4
.Ltmp551:
.LBB28_4:
	.loc	7 1868 3                        @ ../Library/STM32F4xx_HAL_Driver/Src/stm32f4xx_hal_uart.c:1868:3
	b	.LBB28_5
.Ltmp552:
.LBB28_5:
	.loc	7 1869 3 is_stmt 1              @ ../Library/STM32F4xx_HAL_Driver/Src/stm32f4xx_hal_uart.c:1869:3
	b	.LBB28_6
.LBB28_6:
.Ltmp553:
	.loc	7 1869 3 is_stmt 0              @ ../Library/STM32F4xx_HAL_Driver/Src/stm32f4xx_hal_uart.c:1869:3
	b	.LBB28_7
.LBB28_7:                               @ =>This Inner Loop Header: Depth=1
.Ltmp554:
	.loc	7 1869 3                        @ ../Library/STM32F4xx_HAL_Driver/Src/stm32f4xx_hal_uart.c:1869:3
	ldr	r0, [sp, #24]
	ldr	r0, [r0]
	ldrex	r0, [r0, #20]
	bic	r0, r0, #1
	str	r0, [sp, #16]
	b	.LBB28_8
.Ltmp555:
.LBB28_8:                               @   in Loop: Header=BB28_7 Depth=1
	.loc	7 1869 3                        @ ../Library/STM32F4xx_HAL_Driver/Src/stm32f4xx_hal_uart.c:1869:3
	ldr	r1, [sp, #16]
	ldr	r0, [sp, #24]
	ldr	r2, [r0]
	strex	r0, r1, [r2, #20]
.Ltmp556:
	.loc	7 1869 3                        @ ../Library/STM32F4xx_HAL_Driver/Src/stm32f4xx_hal_uart.c:1869:3
	cmp	r0, #0
	bne	.LBB28_7
	b	.LBB28_9
.Ltmp557:
.LBB28_9:
	.loc	7 1869 3                        @ ../Library/STM32F4xx_HAL_Driver/Src/stm32f4xx_hal_uart.c:1869:3
	b	.LBB28_10
.Ltmp558:
.LBB28_10:
	.loc	7 1872 7 is_stmt 1              @ ../Library/STM32F4xx_HAL_Driver/Src/stm32f4xx_hal_uart.c:1872:7
	ldr	r0, [sp, #24]
	.loc	7 1872 14 is_stmt 0             @ ../Library/STM32F4xx_HAL_Driver/Src/stm32f4xx_hal_uart.c:1872:14
	ldr	r0, [r0, #48]
.Ltmp559:
	.loc	7 1872 7                        @ ../Library/STM32F4xx_HAL_Driver/Src/stm32f4xx_hal_uart.c:1872:7
	cmp	r0, #1
	bne	.LBB28_17
	b	.LBB28_11
.LBB28_11:
.Ltmp560:
	.loc	7 1874 5 is_stmt 1              @ ../Library/STM32F4xx_HAL_Driver/Src/stm32f4xx_hal_uart.c:1874:5
	b	.LBB28_12
.LBB28_12:
.Ltmp561:
	.loc	7 1874 5 is_stmt 0              @ ../Library/STM32F4xx_HAL_Driver/Src/stm32f4xx_hal_uart.c:1874:5
	b	.LBB28_13
.LBB28_13:                              @ =>This Inner Loop Header: Depth=1
.Ltmp562:
	.loc	7 1874 5                        @ ../Library/STM32F4xx_HAL_Driver/Src/stm32f4xx_hal_uart.c:1874:5
	ldr	r0, [sp, #24]
	ldr	r0, [r0]
	ldrex	r0, [r0, #12]
	bic	r0, r0, #16
	str	r0, [sp, #12]
	b	.LBB28_14
.Ltmp563:
.LBB28_14:                              @   in Loop: Header=BB28_13 Depth=1
	.loc	7 1874 5                        @ ../Library/STM32F4xx_HAL_Driver/Src/stm32f4xx_hal_uart.c:1874:5
	ldr	r1, [sp, #12]
	ldr	r0, [sp, #24]
	ldr	r2, [r0]
	strex	r0, r1, [r2, #12]
.Ltmp564:
	.loc	7 1874 5                        @ ../Library/STM32F4xx_HAL_Driver/Src/stm32f4xx_hal_uart.c:1874:5
	cmp	r0, #0
	bne	.LBB28_13
	b	.LBB28_15
.Ltmp565:
.LBB28_15:
	.loc	7 1874 5                        @ ../Library/STM32F4xx_HAL_Driver/Src/stm32f4xx_hal_uart.c:1874:5
	b	.LBB28_16
.Ltmp566:
.LBB28_16:
	.loc	7 1875 3 is_stmt 1              @ ../Library/STM32F4xx_HAL_Driver/Src/stm32f4xx_hal_uart.c:1875:3
	b	.LBB28_17
.Ltmp567:
.LBB28_17:
	.loc	7 1878 7                        @ ../Library/STM32F4xx_HAL_Driver/Src/stm32f4xx_hal_uart.c:1878:7
	ldr	r0, [sp, #24]
	ldr	r0, [r0]
	ldr	r0, [r0, #20]
.Ltmp568:
	.loc	7 1878 7 is_stmt 0              @ ../Library/STM32F4xx_HAL_Driver/Src/stm32f4xx_hal_uart.c:1878:7
	lsls	r0, r0, #24
	cmp	r0, #0
	bpl	.LBB28_30
	b	.LBB28_18
.LBB28_18:
.Ltmp569:
	.loc	7 1880 5 is_stmt 1              @ ../Library/STM32F4xx_HAL_Driver/Src/stm32f4xx_hal_uart.c:1880:5
	b	.LBB28_19
.LBB28_19:
.Ltmp570:
	.loc	7 1880 5 is_stmt 0              @ ../Library/STM32F4xx_HAL_Driver/Src/stm32f4xx_hal_uart.c:1880:5
	b	.LBB28_20
.LBB28_20:                              @ =>This Inner Loop Header: Depth=1
.Ltmp571:
	.loc	7 1880 5                        @ ../Library/STM32F4xx_HAL_Driver/Src/stm32f4xx_hal_uart.c:1880:5
	ldr	r0, [sp, #24]
	ldr	r0, [r0]
	ldrex	r0, [r0, #20]
	bic	r0, r0, #128
	str	r0, [sp, #8]
	b	.LBB28_21
.Ltmp572:
.LBB28_21:                              @   in Loop: Header=BB28_20 Depth=1
	.loc	7 1880 5                        @ ../Library/STM32F4xx_HAL_Driver/Src/stm32f4xx_hal_uart.c:1880:5
	ldr	r1, [sp, #8]
	ldr	r0, [sp, #24]
	ldr	r2, [r0]
	strex	r0, r1, [r2, #20]
.Ltmp573:
	.loc	7 1880 5                        @ ../Library/STM32F4xx_HAL_Driver/Src/stm32f4xx_hal_uart.c:1880:5
	cmp	r0, #0
	bne	.LBB28_20
	b	.LBB28_22
.Ltmp574:
.LBB28_22:
	.loc	7 1880 5                        @ ../Library/STM32F4xx_HAL_Driver/Src/stm32f4xx_hal_uart.c:1880:5
	b	.LBB28_23
.Ltmp575:
.LBB28_23:
	.loc	7 1883 9 is_stmt 1              @ ../Library/STM32F4xx_HAL_Driver/Src/stm32f4xx_hal_uart.c:1883:9
	ldr	r0, [sp, #24]
	.loc	7 1883 16 is_stmt 0             @ ../Library/STM32F4xx_HAL_Driver/Src/stm32f4xx_hal_uart.c:1883:16
	ldr	r0, [r0, #52]
.Ltmp576:
	.loc	7 1883 9                        @ ../Library/STM32F4xx_HAL_Driver/Src/stm32f4xx_hal_uart.c:1883:9
	cbz	r0, .LBB28_29
	b	.LBB28_24
.LBB28_24:
.Ltmp577:
	.loc	7 1887 7 is_stmt 1              @ ../Library/STM32F4xx_HAL_Driver/Src/stm32f4xx_hal_uart.c:1887:7
	ldr	r0, [sp, #24]
	.loc	7 1887 14 is_stmt 0             @ ../Library/STM32F4xx_HAL_Driver/Src/stm32f4xx_hal_uart.c:1887:14
	ldr	r1, [r0, #52]
	movs	r0, #0
	.loc	7 1887 40                       @ ../Library/STM32F4xx_HAL_Driver/Src/stm32f4xx_hal_uart.c:1887:40
	str	r0, [r1, #80]
.Ltmp578:
	.loc	7 1889 25 is_stmt 1             @ ../Library/STM32F4xx_HAL_Driver/Src/stm32f4xx_hal_uart.c:1889:25
	ldr	r0, [sp, #24]
	.loc	7 1889 32 is_stmt 0             @ ../Library/STM32F4xx_HAL_Driver/Src/stm32f4xx_hal_uart.c:1889:32
	ldr	r0, [r0, #52]
	.loc	7 1889 11                       @ ../Library/STM32F4xx_HAL_Driver/Src/stm32f4xx_hal_uart.c:1889:11
	bl	HAL_DMA_Abort
.Ltmp579:
	.loc	7 1889 11                       @ ../Library/STM32F4xx_HAL_Driver/Src/stm32f4xx_hal_uart.c:1889:11
	cbz	r0, .LBB28_28
	b	.LBB28_25
.LBB28_25:
.Ltmp580:
	.loc	7 1891 30 is_stmt 1             @ ../Library/STM32F4xx_HAL_Driver/Src/stm32f4xx_hal_uart.c:1891:30
	ldr	r0, [sp, #24]
	.loc	7 1891 37 is_stmt 0             @ ../Library/STM32F4xx_HAL_Driver/Src/stm32f4xx_hal_uart.c:1891:37
	ldr	r0, [r0, #52]
	.loc	7 1891 13                       @ ../Library/STM32F4xx_HAL_Driver/Src/stm32f4xx_hal_uart.c:1891:13
	bl	HAL_DMA_GetError
.Ltmp581:
	.loc	7 1891 13                       @ ../Library/STM32F4xx_HAL_Driver/Src/stm32f4xx_hal_uart.c:1891:13
	cmp	r0, #32
	bne	.LBB28_27
	b	.LBB28_26
.LBB28_26:
.Ltmp582:
	.loc	7 1894 11 is_stmt 1             @ ../Library/STM32F4xx_HAL_Driver/Src/stm32f4xx_hal_uart.c:1894:11
	ldr	r1, [sp, #24]
	movs	r0, #16
	.loc	7 1894 28 is_stmt 0             @ ../Library/STM32F4xx_HAL_Driver/Src/stm32f4xx_hal_uart.c:1894:28
	str	r0, [r1, #64]
	movs	r0, #3
	.loc	7 1896 11 is_stmt 1             @ ../Library/STM32F4xx_HAL_Driver/Src/stm32f4xx_hal_uart.c:1896:11
	strb.w	r0, [sp, #31]
	b	.LBB28_44
.Ltmp583:
.LBB28_27:
	.loc	7 1898 7                        @ ../Library/STM32F4xx_HAL_Driver/Src/stm32f4xx_hal_uart.c:1898:7
	b	.LBB28_28
.Ltmp584:
.LBB28_28:
	.loc	7 1899 5                        @ ../Library/STM32F4xx_HAL_Driver/Src/stm32f4xx_hal_uart.c:1899:5
	b	.LBB28_29
.Ltmp585:
.LBB28_29:
	.loc	7 1900 3                        @ ../Library/STM32F4xx_HAL_Driver/Src/stm32f4xx_hal_uart.c:1900:3
	b	.LBB28_30
.Ltmp586:
.LBB28_30:
	.loc	7 1903 7                        @ ../Library/STM32F4xx_HAL_Driver/Src/stm32f4xx_hal_uart.c:1903:7
	ldr	r0, [sp, #24]
	ldr	r0, [r0]
	ldr	r0, [r0, #20]
.Ltmp587:
	.loc	7 1903 7 is_stmt 0              @ ../Library/STM32F4xx_HAL_Driver/Src/stm32f4xx_hal_uart.c:1903:7
	lsls	r0, r0, #25
	cmp	r0, #0
	bpl	.LBB28_43
	b	.LBB28_31
.LBB28_31:
.Ltmp588:
	.loc	7 1905 5 is_stmt 1              @ ../Library/STM32F4xx_HAL_Driver/Src/stm32f4xx_hal_uart.c:1905:5
	b	.LBB28_32
.LBB28_32:
.Ltmp589:
	.loc	7 1905 5 is_stmt 0              @ ../Library/STM32F4xx_HAL_Driver/Src/stm32f4xx_hal_uart.c:1905:5
	b	.LBB28_33
.LBB28_33:                              @ =>This Inner Loop Header: Depth=1
.Ltmp590:
	.loc	7 1905 5                        @ ../Library/STM32F4xx_HAL_Driver/Src/stm32f4xx_hal_uart.c:1905:5
	ldr	r0, [sp, #24]
	ldr	r0, [r0]
	ldrex	r0, [r0, #20]
	bic	r0, r0, #64
	str	r0, [sp, #4]
	b	.LBB28_34
.Ltmp591:
.LBB28_34:                              @   in Loop: Header=BB28_33 Depth=1
	.loc	7 1905 5                        @ ../Library/STM32F4xx_HAL_Driver/Src/stm32f4xx_hal_uart.c:1905:5
	ldr	r1, [sp, #4]
	ldr	r0, [sp, #24]
	ldr	r2, [r0]
	strex	r0, r1, [r2, #20]
.Ltmp592:
	.loc	7 1905 5                        @ ../Library/STM32F4xx_HAL_Driver/Src/stm32f4xx_hal_uart.c:1905:5
	cmp	r0, #0
	bne	.LBB28_33
	b	.LBB28_35
.Ltmp593:
.LBB28_35:
	.loc	7 1905 5                        @ ../Library/STM32F4xx_HAL_Driver/Src/stm32f4xx_hal_uart.c:1905:5
	b	.LBB28_36
.Ltmp594:
.LBB28_36:
	.loc	7 1908 9 is_stmt 1              @ ../Library/STM32F4xx_HAL_Driver/Src/stm32f4xx_hal_uart.c:1908:9
	ldr	r0, [sp, #24]
	.loc	7 1908 16 is_stmt 0             @ ../Library/STM32F4xx_HAL_Driver/Src/stm32f4xx_hal_uart.c:1908:16
	ldr	r0, [r0, #56]
.Ltmp595:
	.loc	7 1908 9                        @ ../Library/STM32F4xx_HAL_Driver/Src/stm32f4xx_hal_uart.c:1908:9
	cbz	r0, .LBB28_42
	b	.LBB28_37
.LBB28_37:
.Ltmp596:
	.loc	7 1912 7 is_stmt 1              @ ../Library/STM32F4xx_HAL_Driver/Src/stm32f4xx_hal_uart.c:1912:7
	ldr	r0, [sp, #24]
	.loc	7 1912 14 is_stmt 0             @ ../Library/STM32F4xx_HAL_Driver/Src/stm32f4xx_hal_uart.c:1912:14
	ldr	r1, [r0, #56]
	movs	r0, #0
	.loc	7 1912 40                       @ ../Library/STM32F4xx_HAL_Driver/Src/stm32f4xx_hal_uart.c:1912:40
	str	r0, [r1, #80]
.Ltmp597:
	.loc	7 1914 25 is_stmt 1             @ ../Library/STM32F4xx_HAL_Driver/Src/stm32f4xx_hal_uart.c:1914:25
	ldr	r0, [sp, #24]
	.loc	7 1914 32 is_stmt 0             @ ../Library/STM32F4xx_HAL_Driver/Src/stm32f4xx_hal_uart.c:1914:32
	ldr	r0, [r0, #56]
	.loc	7 1914 11                       @ ../Library/STM32F4xx_HAL_Driver/Src/stm32f4xx_hal_uart.c:1914:11
	bl	HAL_DMA_Abort
.Ltmp598:
	.loc	7 1914 11                       @ ../Library/STM32F4xx_HAL_Driver/Src/stm32f4xx_hal_uart.c:1914:11
	cbz	r0, .LBB28_41
	b	.LBB28_38
.LBB28_38:
.Ltmp599:
	.loc	7 1916 30 is_stmt 1             @ ../Library/STM32F4xx_HAL_Driver/Src/stm32f4xx_hal_uart.c:1916:30
	ldr	r0, [sp, #24]
	.loc	7 1916 37 is_stmt 0             @ ../Library/STM32F4xx_HAL_Driver/Src/stm32f4xx_hal_uart.c:1916:37
	ldr	r0, [r0, #56]
	.loc	7 1916 13                       @ ../Library/STM32F4xx_HAL_Driver/Src/stm32f4xx_hal_uart.c:1916:13
	bl	HAL_DMA_GetError
.Ltmp600:
	.loc	7 1916 13                       @ ../Library/STM32F4xx_HAL_Driver/Src/stm32f4xx_hal_uart.c:1916:13
	cmp	r0, #32
	bne	.LBB28_40
	b	.LBB28_39
.LBB28_39:
.Ltmp601:
	.loc	7 1919 11 is_stmt 1             @ ../Library/STM32F4xx_HAL_Driver/Src/stm32f4xx_hal_uart.c:1919:11
	ldr	r1, [sp, #24]
	movs	r0, #16
	.loc	7 1919 28 is_stmt 0             @ ../Library/STM32F4xx_HAL_Driver/Src/stm32f4xx_hal_uart.c:1919:28
	str	r0, [r1, #64]
	movs	r0, #3
	.loc	7 1921 11 is_stmt 1             @ ../Library/STM32F4xx_HAL_Driver/Src/stm32f4xx_hal_uart.c:1921:11
	strb.w	r0, [sp, #31]
	b	.LBB28_44
.Ltmp602:
.LBB28_40:
	.loc	7 1923 7                        @ ../Library/STM32F4xx_HAL_Driver/Src/stm32f4xx_hal_uart.c:1923:7
	b	.LBB28_41
.Ltmp603:
.LBB28_41:
	.loc	7 1924 5                        @ ../Library/STM32F4xx_HAL_Driver/Src/stm32f4xx_hal_uart.c:1924:5
	b	.LBB28_42
.Ltmp604:
.LBB28_42:
	.loc	7 1925 3                        @ ../Library/STM32F4xx_HAL_Driver/Src/stm32f4xx_hal_uart.c:1925:3
	b	.LBB28_43
.Ltmp605:
.LBB28_43:
	.loc	7 1928 3                        @ ../Library/STM32F4xx_HAL_Driver/Src/stm32f4xx_hal_uart.c:1928:3
	ldr	r1, [sp, #24]
	movs	r0, #0
	.loc	7 1928 22 is_stmt 0             @ ../Library/STM32F4xx_HAL_Driver/Src/stm32f4xx_hal_uart.c:1928:22
	strh	r0, [r1, #38]
	.loc	7 1929 3 is_stmt 1              @ ../Library/STM32F4xx_HAL_Driver/Src/stm32f4xx_hal_uart.c:1929:3
	ldr	r1, [sp, #24]
	.loc	7 1929 22 is_stmt 0             @ ../Library/STM32F4xx_HAL_Driver/Src/stm32f4xx_hal_uart.c:1929:22
	strh	r0, [r1, #46]
	.loc	7 1932 3 is_stmt 1              @ ../Library/STM32F4xx_HAL_Driver/Src/stm32f4xx_hal_uart.c:1932:3
	ldr	r1, [sp, #24]
	.loc	7 1932 20 is_stmt 0             @ ../Library/STM32F4xx_HAL_Driver/Src/stm32f4xx_hal_uart.c:1932:20
	str	r0, [r1, #64]
	.loc	7 1935 3 is_stmt 1              @ ../Library/STM32F4xx_HAL_Driver/Src/stm32f4xx_hal_uart.c:1935:3
	ldr	r2, [sp, #24]
	movs	r1, #32
	.loc	7 1935 18 is_stmt 0             @ ../Library/STM32F4xx_HAL_Driver/Src/stm32f4xx_hal_uart.c:1935:18
	strb.w	r1, [r2, #62]
	.loc	7 1936 3 is_stmt 1              @ ../Library/STM32F4xx_HAL_Driver/Src/stm32f4xx_hal_uart.c:1936:3
	ldr	r2, [sp, #24]
	.loc	7 1936 17 is_stmt 0             @ ../Library/STM32F4xx_HAL_Driver/Src/stm32f4xx_hal_uart.c:1936:17
	strb.w	r1, [r2, #61]
	.loc	7 1937 3 is_stmt 1              @ ../Library/STM32F4xx_HAL_Driver/Src/stm32f4xx_hal_uart.c:1937:3
	ldr	r1, [sp, #24]
	.loc	7 1937 24 is_stmt 0             @ ../Library/STM32F4xx_HAL_Driver/Src/stm32f4xx_hal_uart.c:1937:24
	str	r0, [r1, #48]
	.loc	7 1939 3 is_stmt 1              @ ../Library/STM32F4xx_HAL_Driver/Src/stm32f4xx_hal_uart.c:1939:3
	strb.w	r0, [sp, #31]
	b	.LBB28_44
.LBB28_44:
	.loc	7 1940 1                        @ ../Library/STM32F4xx_HAL_Driver/Src/stm32f4xx_hal_uart.c:1940:1
	ldrb.w	r0, [sp, #31]
	add	sp, #32
	pop	{r7, pc}
.Ltmp606:
.Lfunc_end28:
	.size	HAL_UART_Abort, .Lfunc_end28-HAL_UART_Abort
	.cfi_endproc
	.cantunwind
	.fnend
                                        @ -- End function
	.section	.text.HAL_UART_AbortTransmit,"ax",%progbits
	.hidden	HAL_UART_AbortTransmit          @ -- Begin function HAL_UART_AbortTransmit
	.globl	HAL_UART_AbortTransmit
	.p2align	2
	.type	HAL_UART_AbortTransmit,%function
	.code	16                              @ @HAL_UART_AbortTransmit
	.thumb_func
HAL_UART_AbortTransmit:
.Lfunc_begin29:
	.loc	7 1955 0                        @ ../Library/STM32F4xx_HAL_Driver/Src/stm32f4xx_hal_uart.c:1955:0
	.fnstart
	.cfi_startproc
@ %bb.0:
	.save	{r7, lr}
	push	{r7, lr}
	.cfi_def_cfa_offset 8
	.cfi_offset lr, -4
	.cfi_offset r7, -8
	.pad	#16
	sub	sp, #16
	.cfi_def_cfa_offset 24
	str	r0, [sp, #8]
.Ltmp607:
	.loc	7 1957 3 prologue_end           @ ../Library/STM32F4xx_HAL_Driver/Src/stm32f4xx_hal_uart.c:1957:3
	b	.LBB29_1
.LBB29_1:
.Ltmp608:
	.loc	7 1957 3 is_stmt 0              @ ../Library/STM32F4xx_HAL_Driver/Src/stm32f4xx_hal_uart.c:1957:3
	b	.LBB29_2
.LBB29_2:                               @ =>This Inner Loop Header: Depth=1
.Ltmp609:
	.loc	7 1957 3                        @ ../Library/STM32F4xx_HAL_Driver/Src/stm32f4xx_hal_uart.c:1957:3
	ldr	r0, [sp, #8]
	ldr	r0, [r0]
	ldrex	r0, [r0, #12]
	bic	r0, r0, #192
	str	r0, [sp, #4]
	b	.LBB29_3
.Ltmp610:
.LBB29_3:                               @   in Loop: Header=BB29_2 Depth=1
	.loc	7 1957 3                        @ ../Library/STM32F4xx_HAL_Driver/Src/stm32f4xx_hal_uart.c:1957:3
	ldr	r1, [sp, #4]
	ldr	r0, [sp, #8]
	ldr	r2, [r0]
	strex	r0, r1, [r2, #12]
.Ltmp611:
	.loc	7 1957 3                        @ ../Library/STM32F4xx_HAL_Driver/Src/stm32f4xx_hal_uart.c:1957:3
	cmp	r0, #0
	bne	.LBB29_2
	b	.LBB29_4
.Ltmp612:
.LBB29_4:
	.loc	7 1957 3                        @ ../Library/STM32F4xx_HAL_Driver/Src/stm32f4xx_hal_uart.c:1957:3
	b	.LBB29_5
.Ltmp613:
.LBB29_5:
	.loc	7 1960 7 is_stmt 1              @ ../Library/STM32F4xx_HAL_Driver/Src/stm32f4xx_hal_uart.c:1960:7
	ldr	r0, [sp, #8]
	ldr	r0, [r0]
	ldr	r0, [r0, #20]
.Ltmp614:
	.loc	7 1960 7 is_stmt 0              @ ../Library/STM32F4xx_HAL_Driver/Src/stm32f4xx_hal_uart.c:1960:7
	lsls	r0, r0, #24
	cmp	r0, #0
	bpl	.LBB29_18
	b	.LBB29_6
.LBB29_6:
.Ltmp615:
	.loc	7 1962 5 is_stmt 1              @ ../Library/STM32F4xx_HAL_Driver/Src/stm32f4xx_hal_uart.c:1962:5
	b	.LBB29_7
.LBB29_7:
.Ltmp616:
	.loc	7 1962 5 is_stmt 0              @ ../Library/STM32F4xx_HAL_Driver/Src/stm32f4xx_hal_uart.c:1962:5
	b	.LBB29_8
.LBB29_8:                               @ =>This Inner Loop Header: Depth=1
.Ltmp617:
	.loc	7 1962 5                        @ ../Library/STM32F4xx_HAL_Driver/Src/stm32f4xx_hal_uart.c:1962:5
	ldr	r0, [sp, #8]
	ldr	r0, [r0]
	ldrex	r0, [r0, #20]
	bic	r0, r0, #128
	str	r0, [sp]
	b	.LBB29_9
.Ltmp618:
.LBB29_9:                               @   in Loop: Header=BB29_8 Depth=1
	.loc	7 1962 5                        @ ../Library/STM32F4xx_HAL_Driver/Src/stm32f4xx_hal_uart.c:1962:5
	ldr	r1, [sp]
	ldr	r0, [sp, #8]
	ldr	r2, [r0]
	strex	r0, r1, [r2, #20]
.Ltmp619:
	.loc	7 1962 5                        @ ../Library/STM32F4xx_HAL_Driver/Src/stm32f4xx_hal_uart.c:1962:5
	cmp	r0, #0
	bne	.LBB29_8
	b	.LBB29_10
.Ltmp620:
.LBB29_10:
	.loc	7 1962 5                        @ ../Library/STM32F4xx_HAL_Driver/Src/stm32f4xx_hal_uart.c:1962:5
	b	.LBB29_11
.Ltmp621:
.LBB29_11:
	.loc	7 1965 9 is_stmt 1              @ ../Library/STM32F4xx_HAL_Driver/Src/stm32f4xx_hal_uart.c:1965:9
	ldr	r0, [sp, #8]
	.loc	7 1965 16 is_stmt 0             @ ../Library/STM32F4xx_HAL_Driver/Src/stm32f4xx_hal_uart.c:1965:16
	ldr	r0, [r0, #52]
.Ltmp622:
	.loc	7 1965 9                        @ ../Library/STM32F4xx_HAL_Driver/Src/stm32f4xx_hal_uart.c:1965:9
	cbz	r0, .LBB29_17
	b	.LBB29_12
.LBB29_12:
.Ltmp623:
	.loc	7 1969 7 is_stmt 1              @ ../Library/STM32F4xx_HAL_Driver/Src/stm32f4xx_hal_uart.c:1969:7
	ldr	r0, [sp, #8]
	.loc	7 1969 14 is_stmt 0             @ ../Library/STM32F4xx_HAL_Driver/Src/stm32f4xx_hal_uart.c:1969:14
	ldr	r1, [r0, #52]
	movs	r0, #0
	.loc	7 1969 40                       @ ../Library/STM32F4xx_HAL_Driver/Src/stm32f4xx_hal_uart.c:1969:40
	str	r0, [r1, #80]
.Ltmp624:
	.loc	7 1971 25 is_stmt 1             @ ../Library/STM32F4xx_HAL_Driver/Src/stm32f4xx_hal_uart.c:1971:25
	ldr	r0, [sp, #8]
	.loc	7 1971 32 is_stmt 0             @ ../Library/STM32F4xx_HAL_Driver/Src/stm32f4xx_hal_uart.c:1971:32
	ldr	r0, [r0, #52]
	.loc	7 1971 11                       @ ../Library/STM32F4xx_HAL_Driver/Src/stm32f4xx_hal_uart.c:1971:11
	bl	HAL_DMA_Abort
.Ltmp625:
	.loc	7 1971 11                       @ ../Library/STM32F4xx_HAL_Driver/Src/stm32f4xx_hal_uart.c:1971:11
	cbz	r0, .LBB29_16
	b	.LBB29_13
.LBB29_13:
.Ltmp626:
	.loc	7 1973 30 is_stmt 1             @ ../Library/STM32F4xx_HAL_Driver/Src/stm32f4xx_hal_uart.c:1973:30
	ldr	r0, [sp, #8]
	.loc	7 1973 37 is_stmt 0             @ ../Library/STM32F4xx_HAL_Driver/Src/stm32f4xx_hal_uart.c:1973:37
	ldr	r0, [r0, #52]
	.loc	7 1973 13                       @ ../Library/STM32F4xx_HAL_Driver/Src/stm32f4xx_hal_uart.c:1973:13
	bl	HAL_DMA_GetError
.Ltmp627:
	.loc	7 1973 13                       @ ../Library/STM32F4xx_HAL_Driver/Src/stm32f4xx_hal_uart.c:1973:13
	cmp	r0, #32
	bne	.LBB29_15
	b	.LBB29_14
.LBB29_14:
.Ltmp628:
	.loc	7 1976 11 is_stmt 1             @ ../Library/STM32F4xx_HAL_Driver/Src/stm32f4xx_hal_uart.c:1976:11
	ldr	r1, [sp, #8]
	movs	r0, #16
	.loc	7 1976 28 is_stmt 0             @ ../Library/STM32F4xx_HAL_Driver/Src/stm32f4xx_hal_uart.c:1976:28
	str	r0, [r1, #64]
	movs	r0, #3
	.loc	7 1978 11 is_stmt 1             @ ../Library/STM32F4xx_HAL_Driver/Src/stm32f4xx_hal_uart.c:1978:11
	strb.w	r0, [sp, #15]
	b	.LBB29_19
.Ltmp629:
.LBB29_15:
	.loc	7 1980 7                        @ ../Library/STM32F4xx_HAL_Driver/Src/stm32f4xx_hal_uart.c:1980:7
	b	.LBB29_16
.Ltmp630:
.LBB29_16:
	.loc	7 1981 5                        @ ../Library/STM32F4xx_HAL_Driver/Src/stm32f4xx_hal_uart.c:1981:5
	b	.LBB29_17
.Ltmp631:
.LBB29_17:
	.loc	7 1982 3                        @ ../Library/STM32F4xx_HAL_Driver/Src/stm32f4xx_hal_uart.c:1982:3
	b	.LBB29_18
.Ltmp632:
.LBB29_18:
	.loc	7 1985 3                        @ ../Library/STM32F4xx_HAL_Driver/Src/stm32f4xx_hal_uart.c:1985:3
	ldr	r1, [sp, #8]
	movs	r0, #0
	.loc	7 1985 22 is_stmt 0             @ ../Library/STM32F4xx_HAL_Driver/Src/stm32f4xx_hal_uart.c:1985:22
	strh	r0, [r1, #38]
	.loc	7 1988 3 is_stmt 1              @ ../Library/STM32F4xx_HAL_Driver/Src/stm32f4xx_hal_uart.c:1988:3
	ldr	r2, [sp, #8]
	movs	r1, #32
	.loc	7 1988 17 is_stmt 0             @ ../Library/STM32F4xx_HAL_Driver/Src/stm32f4xx_hal_uart.c:1988:17
	strb.w	r1, [r2, #61]
	.loc	7 1990 3 is_stmt 1              @ ../Library/STM32F4xx_HAL_Driver/Src/stm32f4xx_hal_uart.c:1990:3
	strb.w	r0, [sp, #15]
	b	.LBB29_19
.LBB29_19:
	.loc	7 1991 1                        @ ../Library/STM32F4xx_HAL_Driver/Src/stm32f4xx_hal_uart.c:1991:1
	ldrb.w	r0, [sp, #15]
	add	sp, #16
	pop	{r7, pc}
.Ltmp633:
.Lfunc_end29:
	.size	HAL_UART_AbortTransmit, .Lfunc_end29-HAL_UART_AbortTransmit
	.cfi_endproc
	.cantunwind
	.fnend
                                        @ -- End function
	.section	.text.HAL_UART_AbortReceive,"ax",%progbits
	.hidden	HAL_UART_AbortReceive           @ -- Begin function HAL_UART_AbortReceive
	.globl	HAL_UART_AbortReceive
	.p2align	2
	.type	HAL_UART_AbortReceive,%function
	.code	16                              @ @HAL_UART_AbortReceive
	.thumb_func
HAL_UART_AbortReceive:
.Lfunc_begin30:
	.loc	7 2006 0                        @ ../Library/STM32F4xx_HAL_Driver/Src/stm32f4xx_hal_uart.c:2006:0
	.fnstart
	.cfi_startproc
@ %bb.0:
	.save	{r7, lr}
	push	{r7, lr}
	.cfi_def_cfa_offset 8
	.cfi_offset lr, -4
	.cfi_offset r7, -8
	.pad	#24
	sub	sp, #24
	.cfi_def_cfa_offset 32
	str	r0, [sp, #16]
.Ltmp634:
	.loc	7 2008 3 prologue_end           @ ../Library/STM32F4xx_HAL_Driver/Src/stm32f4xx_hal_uart.c:2008:3
	b	.LBB30_1
.LBB30_1:
.Ltmp635:
	.loc	7 2008 3 is_stmt 0              @ ../Library/STM32F4xx_HAL_Driver/Src/stm32f4xx_hal_uart.c:2008:3
	b	.LBB30_2
.LBB30_2:                               @ =>This Inner Loop Header: Depth=1
.Ltmp636:
	.loc	7 2008 3                        @ ../Library/STM32F4xx_HAL_Driver/Src/stm32f4xx_hal_uart.c:2008:3
	ldr	r0, [sp, #16]
	ldr	r0, [r0]
	ldrex	r0, [r0, #12]
	bic	r0, r0, #288
	str	r0, [sp, #12]
	b	.LBB30_3
.Ltmp637:
.LBB30_3:                               @   in Loop: Header=BB30_2 Depth=1
	.loc	7 2008 3                        @ ../Library/STM32F4xx_HAL_Driver/Src/stm32f4xx_hal_uart.c:2008:3
	ldr	r1, [sp, #12]
	ldr	r0, [sp, #16]
	ldr	r2, [r0]
	strex	r0, r1, [r2, #12]
.Ltmp638:
	.loc	7 2008 3                        @ ../Library/STM32F4xx_HAL_Driver/Src/stm32f4xx_hal_uart.c:2008:3
	cmp	r0, #0
	bne	.LBB30_2
	b	.LBB30_4
.Ltmp639:
.LBB30_4:
	.loc	7 2008 3                        @ ../Library/STM32F4xx_HAL_Driver/Src/stm32f4xx_hal_uart.c:2008:3
	b	.LBB30_5
.Ltmp640:
.LBB30_5:
	.loc	7 2009 3 is_stmt 1              @ ../Library/STM32F4xx_HAL_Driver/Src/stm32f4xx_hal_uart.c:2009:3
	b	.LBB30_6
.LBB30_6:
.Ltmp641:
	.loc	7 2009 3 is_stmt 0              @ ../Library/STM32F4xx_HAL_Driver/Src/stm32f4xx_hal_uart.c:2009:3
	b	.LBB30_7
.LBB30_7:                               @ =>This Inner Loop Header: Depth=1
.Ltmp642:
	.loc	7 2009 3                        @ ../Library/STM32F4xx_HAL_Driver/Src/stm32f4xx_hal_uart.c:2009:3
	ldr	r0, [sp, #16]
	ldr	r0, [r0]
	ldrex	r0, [r0, #20]
	bic	r0, r0, #1
	str	r0, [sp, #8]
	b	.LBB30_8
.Ltmp643:
.LBB30_8:                               @   in Loop: Header=BB30_7 Depth=1
	.loc	7 2009 3                        @ ../Library/STM32F4xx_HAL_Driver/Src/stm32f4xx_hal_uart.c:2009:3
	ldr	r1, [sp, #8]
	ldr	r0, [sp, #16]
	ldr	r2, [r0]
	strex	r0, r1, [r2, #20]
.Ltmp644:
	.loc	7 2009 3                        @ ../Library/STM32F4xx_HAL_Driver/Src/stm32f4xx_hal_uart.c:2009:3
	cmp	r0, #0
	bne	.LBB30_7
	b	.LBB30_9
.Ltmp645:
.LBB30_9:
	.loc	7 2009 3                        @ ../Library/STM32F4xx_HAL_Driver/Src/stm32f4xx_hal_uart.c:2009:3
	b	.LBB30_10
.Ltmp646:
.LBB30_10:
	.loc	7 2012 7 is_stmt 1              @ ../Library/STM32F4xx_HAL_Driver/Src/stm32f4xx_hal_uart.c:2012:7
	ldr	r0, [sp, #16]
	.loc	7 2012 14 is_stmt 0             @ ../Library/STM32F4xx_HAL_Driver/Src/stm32f4xx_hal_uart.c:2012:14
	ldr	r0, [r0, #48]
.Ltmp647:
	.loc	7 2012 7                        @ ../Library/STM32F4xx_HAL_Driver/Src/stm32f4xx_hal_uart.c:2012:7
	cmp	r0, #1
	bne	.LBB30_17
	b	.LBB30_11
.LBB30_11:
.Ltmp648:
	.loc	7 2014 5 is_stmt 1              @ ../Library/STM32F4xx_HAL_Driver/Src/stm32f4xx_hal_uart.c:2014:5
	b	.LBB30_12
.LBB30_12:
.Ltmp649:
	.loc	7 2014 5 is_stmt 0              @ ../Library/STM32F4xx_HAL_Driver/Src/stm32f4xx_hal_uart.c:2014:5
	b	.LBB30_13
.LBB30_13:                              @ =>This Inner Loop Header: Depth=1
.Ltmp650:
	.loc	7 2014 5                        @ ../Library/STM32F4xx_HAL_Driver/Src/stm32f4xx_hal_uart.c:2014:5
	ldr	r0, [sp, #16]
	ldr	r0, [r0]
	ldrex	r0, [r0, #12]
	bic	r0, r0, #16
	str	r0, [sp, #4]
	b	.LBB30_14
.Ltmp651:
.LBB30_14:                              @   in Loop: Header=BB30_13 Depth=1
	.loc	7 2014 5                        @ ../Library/STM32F4xx_HAL_Driver/Src/stm32f4xx_hal_uart.c:2014:5
	ldr	r1, [sp, #4]
	ldr	r0, [sp, #16]
	ldr	r2, [r0]
	strex	r0, r1, [r2, #12]
.Ltmp652:
	.loc	7 2014 5                        @ ../Library/STM32F4xx_HAL_Driver/Src/stm32f4xx_hal_uart.c:2014:5
	cmp	r0, #0
	bne	.LBB30_13
	b	.LBB30_15
.Ltmp653:
.LBB30_15:
	.loc	7 2014 5                        @ ../Library/STM32F4xx_HAL_Driver/Src/stm32f4xx_hal_uart.c:2014:5
	b	.LBB30_16
.Ltmp654:
.LBB30_16:
	.loc	7 2015 3 is_stmt 1              @ ../Library/STM32F4xx_HAL_Driver/Src/stm32f4xx_hal_uart.c:2015:3
	b	.LBB30_17
.Ltmp655:
.LBB30_17:
	.loc	7 2018 7                        @ ../Library/STM32F4xx_HAL_Driver/Src/stm32f4xx_hal_uart.c:2018:7
	ldr	r0, [sp, #16]
	ldr	r0, [r0]
	ldr	r0, [r0, #20]
.Ltmp656:
	.loc	7 2018 7 is_stmt 0              @ ../Library/STM32F4xx_HAL_Driver/Src/stm32f4xx_hal_uart.c:2018:7
	lsls	r0, r0, #25
	cmp	r0, #0
	bpl	.LBB30_30
	b	.LBB30_18
.LBB30_18:
.Ltmp657:
	.loc	7 2020 5 is_stmt 1              @ ../Library/STM32F4xx_HAL_Driver/Src/stm32f4xx_hal_uart.c:2020:5
	b	.LBB30_19
.LBB30_19:
.Ltmp658:
	.loc	7 2020 5 is_stmt 0              @ ../Library/STM32F4xx_HAL_Driver/Src/stm32f4xx_hal_uart.c:2020:5
	b	.LBB30_20
.LBB30_20:                              @ =>This Inner Loop Header: Depth=1
.Ltmp659:
	.loc	7 2020 5                        @ ../Library/STM32F4xx_HAL_Driver/Src/stm32f4xx_hal_uart.c:2020:5
	ldr	r0, [sp, #16]
	ldr	r0, [r0]
	ldrex	r0, [r0, #20]
	bic	r0, r0, #64
	str	r0, [sp]
	b	.LBB30_21
.Ltmp660:
.LBB30_21:                              @   in Loop: Header=BB30_20 Depth=1
	.loc	7 2020 5                        @ ../Library/STM32F4xx_HAL_Driver/Src/stm32f4xx_hal_uart.c:2020:5
	ldr	r1, [sp]
	ldr	r0, [sp, #16]
	ldr	r2, [r0]
	strex	r0, r1, [r2, #20]
.Ltmp661:
	.loc	7 2020 5                        @ ../Library/STM32F4xx_HAL_Driver/Src/stm32f4xx_hal_uart.c:2020:5
	cmp	r0, #0
	bne	.LBB30_20
	b	.LBB30_22
.Ltmp662:
.LBB30_22:
	.loc	7 2020 5                        @ ../Library/STM32F4xx_HAL_Driver/Src/stm32f4xx_hal_uart.c:2020:5
	b	.LBB30_23
.Ltmp663:
.LBB30_23:
	.loc	7 2023 9 is_stmt 1              @ ../Library/STM32F4xx_HAL_Driver/Src/stm32f4xx_hal_uart.c:2023:9
	ldr	r0, [sp, #16]
	.loc	7 2023 16 is_stmt 0             @ ../Library/STM32F4xx_HAL_Driver/Src/stm32f4xx_hal_uart.c:2023:16
	ldr	r0, [r0, #56]
.Ltmp664:
	.loc	7 2023 9                        @ ../Library/STM32F4xx_HAL_Driver/Src/stm32f4xx_hal_uart.c:2023:9
	cbz	r0, .LBB30_29
	b	.LBB30_24
.LBB30_24:
.Ltmp665:
	.loc	7 2027 7 is_stmt 1              @ ../Library/STM32F4xx_HAL_Driver/Src/stm32f4xx_hal_uart.c:2027:7
	ldr	r0, [sp, #16]
	.loc	7 2027 14 is_stmt 0             @ ../Library/STM32F4xx_HAL_Driver/Src/stm32f4xx_hal_uart.c:2027:14
	ldr	r1, [r0, #56]
	movs	r0, #0
	.loc	7 2027 40                       @ ../Library/STM32F4xx_HAL_Driver/Src/stm32f4xx_hal_uart.c:2027:40
	str	r0, [r1, #80]
.Ltmp666:
	.loc	7 2029 25 is_stmt 1             @ ../Library/STM32F4xx_HAL_Driver/Src/stm32f4xx_hal_uart.c:2029:25
	ldr	r0, [sp, #16]
	.loc	7 2029 32 is_stmt 0             @ ../Library/STM32F4xx_HAL_Driver/Src/stm32f4xx_hal_uart.c:2029:32
	ldr	r0, [r0, #56]
	.loc	7 2029 11                       @ ../Library/STM32F4xx_HAL_Driver/Src/stm32f4xx_hal_uart.c:2029:11
	bl	HAL_DMA_Abort
.Ltmp667:
	.loc	7 2029 11                       @ ../Library/STM32F4xx_HAL_Driver/Src/stm32f4xx_hal_uart.c:2029:11
	cbz	r0, .LBB30_28
	b	.LBB30_25
.LBB30_25:
.Ltmp668:
	.loc	7 2031 30 is_stmt 1             @ ../Library/STM32F4xx_HAL_Driver/Src/stm32f4xx_hal_uart.c:2031:30
	ldr	r0, [sp, #16]
	.loc	7 2031 37 is_stmt 0             @ ../Library/STM32F4xx_HAL_Driver/Src/stm32f4xx_hal_uart.c:2031:37
	ldr	r0, [r0, #56]
	.loc	7 2031 13                       @ ../Library/STM32F4xx_HAL_Driver/Src/stm32f4xx_hal_uart.c:2031:13
	bl	HAL_DMA_GetError
.Ltmp669:
	.loc	7 2031 13                       @ ../Library/STM32F4xx_HAL_Driver/Src/stm32f4xx_hal_uart.c:2031:13
	cmp	r0, #32
	bne	.LBB30_27
	b	.LBB30_26
.LBB30_26:
.Ltmp670:
	.loc	7 2034 11 is_stmt 1             @ ../Library/STM32F4xx_HAL_Driver/Src/stm32f4xx_hal_uart.c:2034:11
	ldr	r1, [sp, #16]
	movs	r0, #16
	.loc	7 2034 28 is_stmt 0             @ ../Library/STM32F4xx_HAL_Driver/Src/stm32f4xx_hal_uart.c:2034:28
	str	r0, [r1, #64]
	movs	r0, #3
	.loc	7 2036 11 is_stmt 1             @ ../Library/STM32F4xx_HAL_Driver/Src/stm32f4xx_hal_uart.c:2036:11
	strb.w	r0, [sp, #23]
	b	.LBB30_31
.Ltmp671:
.LBB30_27:
	.loc	7 2038 7                        @ ../Library/STM32F4xx_HAL_Driver/Src/stm32f4xx_hal_uart.c:2038:7
	b	.LBB30_28
.Ltmp672:
.LBB30_28:
	.loc	7 2039 5                        @ ../Library/STM32F4xx_HAL_Driver/Src/stm32f4xx_hal_uart.c:2039:5
	b	.LBB30_29
.Ltmp673:
.LBB30_29:
	.loc	7 2040 3                        @ ../Library/STM32F4xx_HAL_Driver/Src/stm32f4xx_hal_uart.c:2040:3
	b	.LBB30_30
.Ltmp674:
.LBB30_30:
	.loc	7 2043 3                        @ ../Library/STM32F4xx_HAL_Driver/Src/stm32f4xx_hal_uart.c:2043:3
	ldr	r1, [sp, #16]
	movs	r0, #0
	.loc	7 2043 22 is_stmt 0             @ ../Library/STM32F4xx_HAL_Driver/Src/stm32f4xx_hal_uart.c:2043:22
	strh	r0, [r1, #46]
	.loc	7 2046 3 is_stmt 1              @ ../Library/STM32F4xx_HAL_Driver/Src/stm32f4xx_hal_uart.c:2046:3
	ldr	r2, [sp, #16]
	movs	r1, #32
	.loc	7 2046 18 is_stmt 0             @ ../Library/STM32F4xx_HAL_Driver/Src/stm32f4xx_hal_uart.c:2046:18
	strb.w	r1, [r2, #62]
	.loc	7 2047 3 is_stmt 1              @ ../Library/STM32F4xx_HAL_Driver/Src/stm32f4xx_hal_uart.c:2047:3
	ldr	r1, [sp, #16]
	.loc	7 2047 24 is_stmt 0             @ ../Library/STM32F4xx_HAL_Driver/Src/stm32f4xx_hal_uart.c:2047:24
	str	r0, [r1, #48]
	.loc	7 2049 3 is_stmt 1              @ ../Library/STM32F4xx_HAL_Driver/Src/stm32f4xx_hal_uart.c:2049:3
	strb.w	r0, [sp, #23]
	b	.LBB30_31
.LBB30_31:
	.loc	7 2050 1                        @ ../Library/STM32F4xx_HAL_Driver/Src/stm32f4xx_hal_uart.c:2050:1
	ldrb.w	r0, [sp, #23]
	add	sp, #24
	pop	{r7, pc}
.Ltmp675:
.Lfunc_end30:
	.size	HAL_UART_AbortReceive, .Lfunc_end30-HAL_UART_AbortReceive
	.cfi_endproc
	.cantunwind
	.fnend
                                        @ -- End function
	.section	.text.HAL_UART_Abort_IT,"ax",%progbits
	.hidden	HAL_UART_Abort_IT               @ -- Begin function HAL_UART_Abort_IT
	.globl	HAL_UART_Abort_IT
	.p2align	2
	.type	HAL_UART_Abort_IT,%function
	.code	16                              @ @HAL_UART_Abort_IT
	.thumb_func
HAL_UART_Abort_IT:
.Lfunc_begin31:
	.loc	7 2067 0                        @ ../Library/STM32F4xx_HAL_Driver/Src/stm32f4xx_hal_uart.c:2067:0
	.fnstart
	.cfi_startproc
@ %bb.0:
	.save	{r7, lr}
	push	{r7, lr}
	.cfi_def_cfa_offset 8
	.cfi_offset lr, -4
	.cfi_offset r7, -8
	.pad	#32
	sub	sp, #32
	.cfi_def_cfa_offset 40
	str	r0, [sp, #28]
	movs	r0, #1
.Ltmp676:
	.loc	7 2068 12 prologue_end          @ ../Library/STM32F4xx_HAL_Driver/Src/stm32f4xx_hal_uart.c:2068:12
	str	r0, [sp, #24]
	.loc	7 2071 3                        @ ../Library/STM32F4xx_HAL_Driver/Src/stm32f4xx_hal_uart.c:2071:3
	b	.LBB31_1
.LBB31_1:
.Ltmp677:
	.loc	7 2071 3 is_stmt 0              @ ../Library/STM32F4xx_HAL_Driver/Src/stm32f4xx_hal_uart.c:2071:3
	b	.LBB31_2
.LBB31_2:                               @ =>This Inner Loop Header: Depth=1
.Ltmp678:
	.loc	7 2071 3                        @ ../Library/STM32F4xx_HAL_Driver/Src/stm32f4xx_hal_uart.c:2071:3
	ldr	r0, [sp, #28]
	ldr	r0, [r0]
	ldrex	r0, [r0, #12]
	bic	r0, r0, #480
	str	r0, [sp, #20]
	b	.LBB31_3
.Ltmp679:
.LBB31_3:                               @   in Loop: Header=BB31_2 Depth=1
	.loc	7 2071 3                        @ ../Library/STM32F4xx_HAL_Driver/Src/stm32f4xx_hal_uart.c:2071:3
	ldr	r1, [sp, #20]
	ldr	r0, [sp, #28]
	ldr	r2, [r0]
	strex	r0, r1, [r2, #12]
.Ltmp680:
	.loc	7 2071 3                        @ ../Library/STM32F4xx_HAL_Driver/Src/stm32f4xx_hal_uart.c:2071:3
	cmp	r0, #0
	bne	.LBB31_2
	b	.LBB31_4
.Ltmp681:
.LBB31_4:
	.loc	7 2071 3                        @ ../Library/STM32F4xx_HAL_Driver/Src/stm32f4xx_hal_uart.c:2071:3
	b	.LBB31_5
.Ltmp682:
.LBB31_5:
	.loc	7 2072 3 is_stmt 1              @ ../Library/STM32F4xx_HAL_Driver/Src/stm32f4xx_hal_uart.c:2072:3
	b	.LBB31_6
.LBB31_6:
.Ltmp683:
	.loc	7 2072 3 is_stmt 0              @ ../Library/STM32F4xx_HAL_Driver/Src/stm32f4xx_hal_uart.c:2072:3
	b	.LBB31_7
.LBB31_7:                               @ =>This Inner Loop Header: Depth=1
.Ltmp684:
	.loc	7 2072 3                        @ ../Library/STM32F4xx_HAL_Driver/Src/stm32f4xx_hal_uart.c:2072:3
	ldr	r0, [sp, #28]
	ldr	r0, [r0]
	ldrex	r0, [r0, #20]
	bic	r0, r0, #1
	str	r0, [sp, #16]
	b	.LBB31_8
.Ltmp685:
.LBB31_8:                               @   in Loop: Header=BB31_7 Depth=1
	.loc	7 2072 3                        @ ../Library/STM32F4xx_HAL_Driver/Src/stm32f4xx_hal_uart.c:2072:3
	ldr	r1, [sp, #16]
	ldr	r0, [sp, #28]
	ldr	r2, [r0]
	strex	r0, r1, [r2, #20]
.Ltmp686:
	.loc	7 2072 3                        @ ../Library/STM32F4xx_HAL_Driver/Src/stm32f4xx_hal_uart.c:2072:3
	cmp	r0, #0
	bne	.LBB31_7
	b	.LBB31_9
.Ltmp687:
.LBB31_9:
	.loc	7 2072 3                        @ ../Library/STM32F4xx_HAL_Driver/Src/stm32f4xx_hal_uart.c:2072:3
	b	.LBB31_10
.Ltmp688:
.LBB31_10:
	.loc	7 2075 7 is_stmt 1              @ ../Library/STM32F4xx_HAL_Driver/Src/stm32f4xx_hal_uart.c:2075:7
	ldr	r0, [sp, #28]
	.loc	7 2075 14 is_stmt 0             @ ../Library/STM32F4xx_HAL_Driver/Src/stm32f4xx_hal_uart.c:2075:14
	ldr	r0, [r0, #48]
.Ltmp689:
	.loc	7 2075 7                        @ ../Library/STM32F4xx_HAL_Driver/Src/stm32f4xx_hal_uart.c:2075:7
	cmp	r0, #1
	bne	.LBB31_17
	b	.LBB31_11
.LBB31_11:
.Ltmp690:
	.loc	7 2077 5 is_stmt 1              @ ../Library/STM32F4xx_HAL_Driver/Src/stm32f4xx_hal_uart.c:2077:5
	b	.LBB31_12
.LBB31_12:
.Ltmp691:
	.loc	7 2077 5 is_stmt 0              @ ../Library/STM32F4xx_HAL_Driver/Src/stm32f4xx_hal_uart.c:2077:5
	b	.LBB31_13
.LBB31_13:                              @ =>This Inner Loop Header: Depth=1
.Ltmp692:
	.loc	7 2077 5                        @ ../Library/STM32F4xx_HAL_Driver/Src/stm32f4xx_hal_uart.c:2077:5
	ldr	r0, [sp, #28]
	ldr	r0, [r0]
	ldrex	r0, [r0, #12]
	bic	r0, r0, #16
	str	r0, [sp, #12]
	b	.LBB31_14
.Ltmp693:
.LBB31_14:                              @   in Loop: Header=BB31_13 Depth=1
	.loc	7 2077 5                        @ ../Library/STM32F4xx_HAL_Driver/Src/stm32f4xx_hal_uart.c:2077:5
	ldr	r1, [sp, #12]
	ldr	r0, [sp, #28]
	ldr	r2, [r0]
	strex	r0, r1, [r2, #12]
.Ltmp694:
	.loc	7 2077 5                        @ ../Library/STM32F4xx_HAL_Driver/Src/stm32f4xx_hal_uart.c:2077:5
	cmp	r0, #0
	bne	.LBB31_13
	b	.LBB31_15
.Ltmp695:
.LBB31_15:
	.loc	7 2077 5                        @ ../Library/STM32F4xx_HAL_Driver/Src/stm32f4xx_hal_uart.c:2077:5
	b	.LBB31_16
.Ltmp696:
.LBB31_16:
	.loc	7 2078 3 is_stmt 1              @ ../Library/STM32F4xx_HAL_Driver/Src/stm32f4xx_hal_uart.c:2078:3
	b	.LBB31_17
.Ltmp697:
.LBB31_17:
	.loc	7 2083 7                        @ ../Library/STM32F4xx_HAL_Driver/Src/stm32f4xx_hal_uart.c:2083:7
	ldr	r0, [sp, #28]
	.loc	7 2083 14 is_stmt 0             @ ../Library/STM32F4xx_HAL_Driver/Src/stm32f4xx_hal_uart.c:2083:14
	ldr	r0, [r0, #52]
.Ltmp698:
	.loc	7 2083 7                        @ ../Library/STM32F4xx_HAL_Driver/Src/stm32f4xx_hal_uart.c:2083:7
	cbz	r0, .LBB31_22
	b	.LBB31_18
.LBB31_18:
.Ltmp699:
	.loc	7 2087 9 is_stmt 1              @ ../Library/STM32F4xx_HAL_Driver/Src/stm32f4xx_hal_uart.c:2087:9
	ldr	r0, [sp, #28]
	ldr	r0, [r0]
	ldr	r0, [r0, #20]
.Ltmp700:
	.loc	7 2087 9 is_stmt 0              @ ../Library/STM32F4xx_HAL_Driver/Src/stm32f4xx_hal_uart.c:2087:9
	lsls	r0, r0, #24
	cmp	r0, #0
	bpl	.LBB31_20
	b	.LBB31_19
.LBB31_19:
.Ltmp701:
	.loc	7 2089 7 is_stmt 1              @ ../Library/STM32F4xx_HAL_Driver/Src/stm32f4xx_hal_uart.c:2089:7
	ldr	r0, [sp, #28]
	.loc	7 2089 14 is_stmt 0             @ ../Library/STM32F4xx_HAL_Driver/Src/stm32f4xx_hal_uart.c:2089:14
	ldr	r1, [r0, #52]
	.loc	7 2089 40                       @ ../Library/STM32F4xx_HAL_Driver/Src/stm32f4xx_hal_uart.c:2089:40
	movw	r0, :lower16:UART_DMATxAbortCallback
	movt	r0, :upper16:UART_DMATxAbortCallback
	str	r0, [r1, #80]
	.loc	7 2090 5 is_stmt 1              @ ../Library/STM32F4xx_HAL_Driver/Src/stm32f4xx_hal_uart.c:2090:5
	b	.LBB31_21
.Ltmp702:
.LBB31_20:
	.loc	7 2093 7                        @ ../Library/STM32F4xx_HAL_Driver/Src/stm32f4xx_hal_uart.c:2093:7
	ldr	r0, [sp, #28]
	.loc	7 2093 14 is_stmt 0             @ ../Library/STM32F4xx_HAL_Driver/Src/stm32f4xx_hal_uart.c:2093:14
	ldr	r1, [r0, #52]
	movs	r0, #0
	.loc	7 2093 40                       @ ../Library/STM32F4xx_HAL_Driver/Src/stm32f4xx_hal_uart.c:2093:40
	str	r0, [r1, #80]
	b	.LBB31_21
.Ltmp703:
.LBB31_21:
	.loc	7 2095 3 is_stmt 1              @ ../Library/STM32F4xx_HAL_Driver/Src/stm32f4xx_hal_uart.c:2095:3
	b	.LBB31_22
.Ltmp704:
.LBB31_22:
	.loc	7 2097 7                        @ ../Library/STM32F4xx_HAL_Driver/Src/stm32f4xx_hal_uart.c:2097:7
	ldr	r0, [sp, #28]
	.loc	7 2097 14 is_stmt 0             @ ../Library/STM32F4xx_HAL_Driver/Src/stm32f4xx_hal_uart.c:2097:14
	ldr	r0, [r0, #56]
.Ltmp705:
	.loc	7 2097 7                        @ ../Library/STM32F4xx_HAL_Driver/Src/stm32f4xx_hal_uart.c:2097:7
	cbz	r0, .LBB31_27
	b	.LBB31_23
.LBB31_23:
.Ltmp706:
	.loc	7 2101 9 is_stmt 1              @ ../Library/STM32F4xx_HAL_Driver/Src/stm32f4xx_hal_uart.c:2101:9
	ldr	r0, [sp, #28]
	ldr	r0, [r0]
	ldr	r0, [r0, #20]
.Ltmp707:
	.loc	7 2101 9 is_stmt 0              @ ../Library/STM32F4xx_HAL_Driver/Src/stm32f4xx_hal_uart.c:2101:9
	lsls	r0, r0, #25
	cmp	r0, #0
	bpl	.LBB31_25
	b	.LBB31_24
.LBB31_24:
.Ltmp708:
	.loc	7 2103 7 is_stmt 1              @ ../Library/STM32F4xx_HAL_Driver/Src/stm32f4xx_hal_uart.c:2103:7
	ldr	r0, [sp, #28]
	.loc	7 2103 14 is_stmt 0             @ ../Library/STM32F4xx_HAL_Driver/Src/stm32f4xx_hal_uart.c:2103:14
	ldr	r1, [r0, #56]
	.loc	7 2103 40                       @ ../Library/STM32F4xx_HAL_Driver/Src/stm32f4xx_hal_uart.c:2103:40
	movw	r0, :lower16:UART_DMARxAbortCallback
	movt	r0, :upper16:UART_DMARxAbortCallback
	str	r0, [r1, #80]
	.loc	7 2104 5 is_stmt 1              @ ../Library/STM32F4xx_HAL_Driver/Src/stm32f4xx_hal_uart.c:2104:5
	b	.LBB31_26
.Ltmp709:
.LBB31_25:
	.loc	7 2107 7                        @ ../Library/STM32F4xx_HAL_Driver/Src/stm32f4xx_hal_uart.c:2107:7
	ldr	r0, [sp, #28]
	.loc	7 2107 14 is_stmt 0             @ ../Library/STM32F4xx_HAL_Driver/Src/stm32f4xx_hal_uart.c:2107:14
	ldr	r1, [r0, #56]
	movs	r0, #0
	.loc	7 2107 40                       @ ../Library/STM32F4xx_HAL_Driver/Src/stm32f4xx_hal_uart.c:2107:40
	str	r0, [r1, #80]
	b	.LBB31_26
.Ltmp710:
.LBB31_26:
	.loc	7 2109 3 is_stmt 1              @ ../Library/STM32F4xx_HAL_Driver/Src/stm32f4xx_hal_uart.c:2109:3
	b	.LBB31_27
.Ltmp711:
.LBB31_27:
	.loc	7 2112 7                        @ ../Library/STM32F4xx_HAL_Driver/Src/stm32f4xx_hal_uart.c:2112:7
	ldr	r0, [sp, #28]
	ldr	r0, [r0]
	ldr	r0, [r0, #20]
.Ltmp712:
	.loc	7 2112 7 is_stmt 0              @ ../Library/STM32F4xx_HAL_Driver/Src/stm32f4xx_hal_uart.c:2112:7
	lsls	r0, r0, #24
	cmp	r0, #0
	bpl	.LBB31_39
	b	.LBB31_28
.LBB31_28:
.Ltmp713:
	.loc	7 2115 5 is_stmt 1              @ ../Library/STM32F4xx_HAL_Driver/Src/stm32f4xx_hal_uart.c:2115:5
	b	.LBB31_29
.LBB31_29:
.Ltmp714:
	.loc	7 2115 5 is_stmt 0              @ ../Library/STM32F4xx_HAL_Driver/Src/stm32f4xx_hal_uart.c:2115:5
	b	.LBB31_30
.LBB31_30:                              @ =>This Inner Loop Header: Depth=1
.Ltmp715:
	.loc	7 2115 5                        @ ../Library/STM32F4xx_HAL_Driver/Src/stm32f4xx_hal_uart.c:2115:5
	ldr	r0, [sp, #28]
	ldr	r0, [r0]
	ldrex	r0, [r0, #20]
	bic	r0, r0, #128
	str	r0, [sp, #8]
	b	.LBB31_31
.Ltmp716:
.LBB31_31:                              @   in Loop: Header=BB31_30 Depth=1
	.loc	7 2115 5                        @ ../Library/STM32F4xx_HAL_Driver/Src/stm32f4xx_hal_uart.c:2115:5
	ldr	r1, [sp, #8]
	ldr	r0, [sp, #28]
	ldr	r2, [r0]
	strex	r0, r1, [r2, #20]
.Ltmp717:
	.loc	7 2115 5                        @ ../Library/STM32F4xx_HAL_Driver/Src/stm32f4xx_hal_uart.c:2115:5
	cmp	r0, #0
	bne	.LBB31_30
	b	.LBB31_32
.Ltmp718:
.LBB31_32:
	.loc	7 2115 5                        @ ../Library/STM32F4xx_HAL_Driver/Src/stm32f4xx_hal_uart.c:2115:5
	b	.LBB31_33
.Ltmp719:
.LBB31_33:
	.loc	7 2118 9 is_stmt 1              @ ../Library/STM32F4xx_HAL_Driver/Src/stm32f4xx_hal_uart.c:2118:9
	ldr	r0, [sp, #28]
	.loc	7 2118 16 is_stmt 0             @ ../Library/STM32F4xx_HAL_Driver/Src/stm32f4xx_hal_uart.c:2118:16
	ldr	r0, [r0, #52]
.Ltmp720:
	.loc	7 2118 9                        @ ../Library/STM32F4xx_HAL_Driver/Src/stm32f4xx_hal_uart.c:2118:9
	cbz	r0, .LBB31_38
	b	.LBB31_34
.LBB31_34:
.Ltmp721:
	.loc	7 2124 28 is_stmt 1             @ ../Library/STM32F4xx_HAL_Driver/Src/stm32f4xx_hal_uart.c:2124:28
	ldr	r0, [sp, #28]
	.loc	7 2124 35 is_stmt 0             @ ../Library/STM32F4xx_HAL_Driver/Src/stm32f4xx_hal_uart.c:2124:35
	ldr	r0, [r0, #52]
	.loc	7 2124 11                       @ ../Library/STM32F4xx_HAL_Driver/Src/stm32f4xx_hal_uart.c:2124:11
	bl	HAL_DMA_Abort_IT
.Ltmp722:
	.loc	7 2124 11                       @ ../Library/STM32F4xx_HAL_Driver/Src/stm32f4xx_hal_uart.c:2124:11
	cbz	r0, .LBB31_36
	b	.LBB31_35
.LBB31_35:
.Ltmp723:
	.loc	7 2126 9 is_stmt 1              @ ../Library/STM32F4xx_HAL_Driver/Src/stm32f4xx_hal_uart.c:2126:9
	ldr	r0, [sp, #28]
	.loc	7 2126 16 is_stmt 0             @ ../Library/STM32F4xx_HAL_Driver/Src/stm32f4xx_hal_uart.c:2126:16
	ldr	r1, [r0, #52]
	movs	r0, #0
	.loc	7 2126 42                       @ ../Library/STM32F4xx_HAL_Driver/Src/stm32f4xx_hal_uart.c:2126:42
	str	r0, [r1, #80]
	.loc	7 2127 7 is_stmt 1              @ ../Library/STM32F4xx_HAL_Driver/Src/stm32f4xx_hal_uart.c:2127:7
	b	.LBB31_37
.Ltmp724:
.LBB31_36:
	.loc	7 0 7 is_stmt 0                 @ ../Library/STM32F4xx_HAL_Driver/Src/stm32f4xx_hal_uart.c:0:7
	movs	r0, #0
.Ltmp725:
	.loc	7 2130 19 is_stmt 1             @ ../Library/STM32F4xx_HAL_Driver/Src/stm32f4xx_hal_uart.c:2130:19
	str	r0, [sp, #24]
	b	.LBB31_37
.Ltmp726:
.LBB31_37:
	.loc	7 2132 5                        @ ../Library/STM32F4xx_HAL_Driver/Src/stm32f4xx_hal_uart.c:2132:5
	b	.LBB31_38
.Ltmp727:
.LBB31_38:
	.loc	7 2133 3                        @ ../Library/STM32F4xx_HAL_Driver/Src/stm32f4xx_hal_uart.c:2133:3
	b	.LBB31_39
.Ltmp728:
.LBB31_39:
	.loc	7 2136 7                        @ ../Library/STM32F4xx_HAL_Driver/Src/stm32f4xx_hal_uart.c:2136:7
	ldr	r0, [sp, #28]
	ldr	r0, [r0]
	ldr	r0, [r0, #20]
.Ltmp729:
	.loc	7 2136 7 is_stmt 0              @ ../Library/STM32F4xx_HAL_Driver/Src/stm32f4xx_hal_uart.c:2136:7
	lsls	r0, r0, #25
	cmp	r0, #0
	bpl	.LBB31_51
	b	.LBB31_40
.LBB31_40:
.Ltmp730:
	.loc	7 2138 5 is_stmt 1              @ ../Library/STM32F4xx_HAL_Driver/Src/stm32f4xx_hal_uart.c:2138:5
	b	.LBB31_41
.LBB31_41:
.Ltmp731:
	.loc	7 2138 5 is_stmt 0              @ ../Library/STM32F4xx_HAL_Driver/Src/stm32f4xx_hal_uart.c:2138:5
	b	.LBB31_42
.LBB31_42:                              @ =>This Inner Loop Header: Depth=1
.Ltmp732:
	.loc	7 2138 5                        @ ../Library/STM32F4xx_HAL_Driver/Src/stm32f4xx_hal_uart.c:2138:5
	ldr	r0, [sp, #28]
	ldr	r0, [r0]
	ldrex	r0, [r0, #20]
	bic	r0, r0, #64
	str	r0, [sp, #4]
	b	.LBB31_43
.Ltmp733:
.LBB31_43:                              @   in Loop: Header=BB31_42 Depth=1
	.loc	7 2138 5                        @ ../Library/STM32F4xx_HAL_Driver/Src/stm32f4xx_hal_uart.c:2138:5
	ldr	r1, [sp, #4]
	ldr	r0, [sp, #28]
	ldr	r2, [r0]
	strex	r0, r1, [r2, #20]
.Ltmp734:
	.loc	7 2138 5                        @ ../Library/STM32F4xx_HAL_Driver/Src/stm32f4xx_hal_uart.c:2138:5
	cmp	r0, #0
	bne	.LBB31_42
	b	.LBB31_44
.Ltmp735:
.LBB31_44:
	.loc	7 2138 5                        @ ../Library/STM32F4xx_HAL_Driver/Src/stm32f4xx_hal_uart.c:2138:5
	b	.LBB31_45
.Ltmp736:
.LBB31_45:
	.loc	7 2141 9 is_stmt 1              @ ../Library/STM32F4xx_HAL_Driver/Src/stm32f4xx_hal_uart.c:2141:9
	ldr	r0, [sp, #28]
	.loc	7 2141 16 is_stmt 0             @ ../Library/STM32F4xx_HAL_Driver/Src/stm32f4xx_hal_uart.c:2141:16
	ldr	r0, [r0, #56]
.Ltmp737:
	.loc	7 2141 9                        @ ../Library/STM32F4xx_HAL_Driver/Src/stm32f4xx_hal_uart.c:2141:9
	cbz	r0, .LBB31_50
	b	.LBB31_46
.LBB31_46:
.Ltmp738:
	.loc	7 2147 28 is_stmt 1             @ ../Library/STM32F4xx_HAL_Driver/Src/stm32f4xx_hal_uart.c:2147:28
	ldr	r0, [sp, #28]
	.loc	7 2147 35 is_stmt 0             @ ../Library/STM32F4xx_HAL_Driver/Src/stm32f4xx_hal_uart.c:2147:35
	ldr	r0, [r0, #56]
	.loc	7 2147 11                       @ ../Library/STM32F4xx_HAL_Driver/Src/stm32f4xx_hal_uart.c:2147:11
	bl	HAL_DMA_Abort_IT
.Ltmp739:
	.loc	7 2147 11                       @ ../Library/STM32F4xx_HAL_Driver/Src/stm32f4xx_hal_uart.c:2147:11
	cbz	r0, .LBB31_48
	b	.LBB31_47
.LBB31_47:
.Ltmp740:
	.loc	7 2149 9 is_stmt 1              @ ../Library/STM32F4xx_HAL_Driver/Src/stm32f4xx_hal_uart.c:2149:9
	ldr	r0, [sp, #28]
	.loc	7 2149 16 is_stmt 0             @ ../Library/STM32F4xx_HAL_Driver/Src/stm32f4xx_hal_uart.c:2149:16
	ldr	r1, [r0, #56]
	movs	r0, #0
	.loc	7 2149 42                       @ ../Library/STM32F4xx_HAL_Driver/Src/stm32f4xx_hal_uart.c:2149:42
	str	r0, [r1, #80]
	movs	r0, #1
	.loc	7 2150 19 is_stmt 1             @ ../Library/STM32F4xx_HAL_Driver/Src/stm32f4xx_hal_uart.c:2150:19
	str	r0, [sp, #24]
	.loc	7 2151 7                        @ ../Library/STM32F4xx_HAL_Driver/Src/stm32f4xx_hal_uart.c:2151:7
	b	.LBB31_49
.Ltmp741:
.LBB31_48:
	.loc	7 0 7 is_stmt 0                 @ ../Library/STM32F4xx_HAL_Driver/Src/stm32f4xx_hal_uart.c:0:7
	movs	r0, #0
.Ltmp742:
	.loc	7 2154 19 is_stmt 1             @ ../Library/STM32F4xx_HAL_Driver/Src/stm32f4xx_hal_uart.c:2154:19
	str	r0, [sp, #24]
	b	.LBB31_49
.Ltmp743:
.LBB31_49:
	.loc	7 2156 5                        @ ../Library/STM32F4xx_HAL_Driver/Src/stm32f4xx_hal_uart.c:2156:5
	b	.LBB31_50
.Ltmp744:
.LBB31_50:
	.loc	7 2157 3                        @ ../Library/STM32F4xx_HAL_Driver/Src/stm32f4xx_hal_uart.c:2157:3
	b	.LBB31_51
.Ltmp745:
.LBB31_51:
	.loc	7 2160 7                        @ ../Library/STM32F4xx_HAL_Driver/Src/stm32f4xx_hal_uart.c:2160:7
	ldr	r0, [sp, #24]
.Ltmp746:
	.loc	7 2160 7 is_stmt 0              @ ../Library/STM32F4xx_HAL_Driver/Src/stm32f4xx_hal_uart.c:2160:7
	cmp	r0, #1
	bne	.LBB31_53
	b	.LBB31_52
.LBB31_52:
.Ltmp747:
	.loc	7 2163 5 is_stmt 1              @ ../Library/STM32F4xx_HAL_Driver/Src/stm32f4xx_hal_uart.c:2163:5
	ldr	r1, [sp, #28]
	movs	r0, #0
	.loc	7 2163 24 is_stmt 0             @ ../Library/STM32F4xx_HAL_Driver/Src/stm32f4xx_hal_uart.c:2163:24
	strh	r0, [r1, #38]
	.loc	7 2164 5 is_stmt 1              @ ../Library/STM32F4xx_HAL_Driver/Src/stm32f4xx_hal_uart.c:2164:5
	ldr	r1, [sp, #28]
	.loc	7 2164 24 is_stmt 0             @ ../Library/STM32F4xx_HAL_Driver/Src/stm32f4xx_hal_uart.c:2164:24
	strh	r0, [r1, #46]
	.loc	7 2167 5 is_stmt 1              @ ../Library/STM32F4xx_HAL_Driver/Src/stm32f4xx_hal_uart.c:2167:5
	ldr	r1, [sp, #28]
	.loc	7 2167 22 is_stmt 0             @ ../Library/STM32F4xx_HAL_Driver/Src/stm32f4xx_hal_uart.c:2167:22
	str	r0, [r1, #64]
	.loc	7 2170 5 is_stmt 1              @ ../Library/STM32F4xx_HAL_Driver/Src/stm32f4xx_hal_uart.c:2170:5
	ldr	r2, [sp, #28]
	movs	r1, #32
	.loc	7 2170 20 is_stmt 0             @ ../Library/STM32F4xx_HAL_Driver/Src/stm32f4xx_hal_uart.c:2170:20
	strb.w	r1, [r2, #61]
	.loc	7 2171 5 is_stmt 1              @ ../Library/STM32F4xx_HAL_Driver/Src/stm32f4xx_hal_uart.c:2171:5
	ldr	r2, [sp, #28]
	.loc	7 2171 20 is_stmt 0             @ ../Library/STM32F4xx_HAL_Driver/Src/stm32f4xx_hal_uart.c:2171:20
	strb.w	r1, [r2, #62]
	.loc	7 2172 5 is_stmt 1              @ ../Library/STM32F4xx_HAL_Driver/Src/stm32f4xx_hal_uart.c:2172:5
	ldr	r1, [sp, #28]
	.loc	7 2172 26 is_stmt 0             @ ../Library/STM32F4xx_HAL_Driver/Src/stm32f4xx_hal_uart.c:2172:26
	str	r0, [r1, #48]
	.loc	7 2180 32 is_stmt 1             @ ../Library/STM32F4xx_HAL_Driver/Src/stm32f4xx_hal_uart.c:2180:32
	ldr	r0, [sp, #28]
	.loc	7 2180 5 is_stmt 0              @ ../Library/STM32F4xx_HAL_Driver/Src/stm32f4xx_hal_uart.c:2180:5
	bl	HAL_UART_AbortCpltCallback
	.loc	7 2182 3 is_stmt 1              @ ../Library/STM32F4xx_HAL_Driver/Src/stm32f4xx_hal_uart.c:2182:3
	b	.LBB31_53
.Ltmp748:
.LBB31_53:
	.loc	7 0 3 is_stmt 0                 @ ../Library/STM32F4xx_HAL_Driver/Src/stm32f4xx_hal_uart.c:0:3
	movs	r0, #0
	.loc	7 2184 3 is_stmt 1              @ ../Library/STM32F4xx_HAL_Driver/Src/stm32f4xx_hal_uart.c:2184:3
	add	sp, #32
	pop	{r7, pc}
.Ltmp749:
.Lfunc_end31:
	.size	HAL_UART_Abort_IT, .Lfunc_end31-HAL_UART_Abort_IT
	.cfi_endproc
	.cantunwind
	.fnend
                                        @ -- End function
	.section	.text.UART_DMATxAbortCallback,"ax",%progbits
	.p2align	2                               @ -- Begin function UART_DMATxAbortCallback
	.type	UART_DMATxAbortCallback,%function
	.code	16                              @ @UART_DMATxAbortCallback
	.thumb_func
UART_DMATxAbortCallback:
.Lfunc_begin32:
	.loc	7 3356 0                        @ ../Library/STM32F4xx_HAL_Driver/Src/stm32f4xx_hal_uart.c:3356:0
	.fnstart
	.cfi_startproc
@ %bb.0:
	.save	{r7, lr}
	push	{r7, lr}
	.cfi_def_cfa_offset 8
	.cfi_offset lr, -4
	.cfi_offset r7, -8
	.pad	#8
	sub	sp, #8
	.cfi_def_cfa_offset 16
	str	r0, [sp, #4]
.Ltmp750:
	.loc	7 3357 75 prologue_end          @ ../Library/STM32F4xx_HAL_Driver/Src/stm32f4xx_hal_uart.c:3357:75
	ldr	r0, [sp, #4]
	.loc	7 3357 82 is_stmt 0             @ ../Library/STM32F4xx_HAL_Driver/Src/stm32f4xx_hal_uart.c:3357:82
	ldr	r0, [r0, #56]
	.loc	7 3357 23                       @ ../Library/STM32F4xx_HAL_Driver/Src/stm32f4xx_hal_uart.c:3357:23
	str	r0, [sp]
	.loc	7 3359 3 is_stmt 1              @ ../Library/STM32F4xx_HAL_Driver/Src/stm32f4xx_hal_uart.c:3359:3
	ldr	r0, [sp]
	.loc	7 3359 10 is_stmt 0             @ ../Library/STM32F4xx_HAL_Driver/Src/stm32f4xx_hal_uart.c:3359:10
	ldr	r1, [r0, #52]
	movs	r0, #0
	.loc	7 3359 36                       @ ../Library/STM32F4xx_HAL_Driver/Src/stm32f4xx_hal_uart.c:3359:36
	str	r0, [r1, #80]
.Ltmp751:
	.loc	7 3362 7 is_stmt 1              @ ../Library/STM32F4xx_HAL_Driver/Src/stm32f4xx_hal_uart.c:3362:7
	ldr	r0, [sp]
	.loc	7 3362 14 is_stmt 0             @ ../Library/STM32F4xx_HAL_Driver/Src/stm32f4xx_hal_uart.c:3362:14
	ldr	r0, [r0, #56]
.Ltmp752:
	.loc	7 3362 7                        @ ../Library/STM32F4xx_HAL_Driver/Src/stm32f4xx_hal_uart.c:3362:7
	cbz	r0, .LBB32_4
	b	.LBB32_1
.LBB32_1:
.Ltmp753:
	.loc	7 3364 9 is_stmt 1              @ ../Library/STM32F4xx_HAL_Driver/Src/stm32f4xx_hal_uart.c:3364:9
	ldr	r0, [sp]
	.loc	7 3364 16 is_stmt 0             @ ../Library/STM32F4xx_HAL_Driver/Src/stm32f4xx_hal_uart.c:3364:16
	ldr	r0, [r0, #56]
	.loc	7 3364 24                       @ ../Library/STM32F4xx_HAL_Driver/Src/stm32f4xx_hal_uart.c:3364:24
	ldr	r0, [r0, #80]
.Ltmp754:
	.loc	7 3364 9                        @ ../Library/STM32F4xx_HAL_Driver/Src/stm32f4xx_hal_uart.c:3364:9
	cbz	r0, .LBB32_3
	b	.LBB32_2
.LBB32_2:
.Ltmp755:
	.loc	7 3366 7 is_stmt 1              @ ../Library/STM32F4xx_HAL_Driver/Src/stm32f4xx_hal_uart.c:3366:7
	b	.LBB32_5
.Ltmp756:
.LBB32_3:
	.loc	7 3368 3                        @ ../Library/STM32F4xx_HAL_Driver/Src/stm32f4xx_hal_uart.c:3368:3
	b	.LBB32_4
.Ltmp757:
.LBB32_4:
	.loc	7 3371 3                        @ ../Library/STM32F4xx_HAL_Driver/Src/stm32f4xx_hal_uart.c:3371:3
	ldr	r1, [sp]
	movs	r0, #0
	.loc	7 3371 22 is_stmt 0             @ ../Library/STM32F4xx_HAL_Driver/Src/stm32f4xx_hal_uart.c:3371:22
	strh	r0, [r1, #38]
	.loc	7 3372 3 is_stmt 1              @ ../Library/STM32F4xx_HAL_Driver/Src/stm32f4xx_hal_uart.c:3372:3
	ldr	r1, [sp]
	.loc	7 3372 22 is_stmt 0             @ ../Library/STM32F4xx_HAL_Driver/Src/stm32f4xx_hal_uart.c:3372:22
	strh	r0, [r1, #46]
	.loc	7 3375 3 is_stmt 1              @ ../Library/STM32F4xx_HAL_Driver/Src/stm32f4xx_hal_uart.c:3375:3
	ldr	r1, [sp]
	.loc	7 3375 20 is_stmt 0             @ ../Library/STM32F4xx_HAL_Driver/Src/stm32f4xx_hal_uart.c:3375:20
	str	r0, [r1, #64]
	.loc	7 3378 3 is_stmt 1              @ ../Library/STM32F4xx_HAL_Driver/Src/stm32f4xx_hal_uart.c:3378:3
	ldr	r2, [sp]
	movs	r1, #32
	.loc	7 3378 18 is_stmt 0             @ ../Library/STM32F4xx_HAL_Driver/Src/stm32f4xx_hal_uart.c:3378:18
	strb.w	r1, [r2, #61]
	.loc	7 3379 3 is_stmt 1              @ ../Library/STM32F4xx_HAL_Driver/Src/stm32f4xx_hal_uart.c:3379:3
	ldr	r2, [sp]
	.loc	7 3379 18 is_stmt 0             @ ../Library/STM32F4xx_HAL_Driver/Src/stm32f4xx_hal_uart.c:3379:18
	strb.w	r1, [r2, #62]
	.loc	7 3380 3 is_stmt 1              @ ../Library/STM32F4xx_HAL_Driver/Src/stm32f4xx_hal_uart.c:3380:3
	ldr	r1, [sp]
	.loc	7 3380 24 is_stmt 0             @ ../Library/STM32F4xx_HAL_Driver/Src/stm32f4xx_hal_uart.c:3380:24
	str	r0, [r1, #48]
	.loc	7 3388 30 is_stmt 1             @ ../Library/STM32F4xx_HAL_Driver/Src/stm32f4xx_hal_uart.c:3388:30
	ldr	r0, [sp]
	.loc	7 3388 3 is_stmt 0              @ ../Library/STM32F4xx_HAL_Driver/Src/stm32f4xx_hal_uart.c:3388:3
	bl	HAL_UART_AbortCpltCallback
	.loc	7 3390 1 is_stmt 1              @ ../Library/STM32F4xx_HAL_Driver/Src/stm32f4xx_hal_uart.c:3390:1
	b	.LBB32_5
.LBB32_5:
	add	sp, #8
	pop	{r7, pc}
.Ltmp758:
.Lfunc_end32:
	.size	UART_DMATxAbortCallback, .Lfunc_end32-UART_DMATxAbortCallback
	.cfi_endproc
	.cantunwind
	.fnend
                                        @ -- End function
	.section	.text.UART_DMARxAbortCallback,"ax",%progbits
	.p2align	2                               @ -- Begin function UART_DMARxAbortCallback
	.type	UART_DMARxAbortCallback,%function
	.code	16                              @ @UART_DMARxAbortCallback
	.thumb_func
UART_DMARxAbortCallback:
.Lfunc_begin33:
	.loc	7 3402 0                        @ ../Library/STM32F4xx_HAL_Driver/Src/stm32f4xx_hal_uart.c:3402:0
	.fnstart
	.cfi_startproc
@ %bb.0:
	.save	{r7, lr}
	push	{r7, lr}
	.cfi_def_cfa_offset 8
	.cfi_offset lr, -4
	.cfi_offset r7, -8
	.pad	#8
	sub	sp, #8
	.cfi_def_cfa_offset 16
	str	r0, [sp, #4]
.Ltmp759:
	.loc	7 3403 75 prologue_end          @ ../Library/STM32F4xx_HAL_Driver/Src/stm32f4xx_hal_uart.c:3403:75
	ldr	r0, [sp, #4]
	.loc	7 3403 82 is_stmt 0             @ ../Library/STM32F4xx_HAL_Driver/Src/stm32f4xx_hal_uart.c:3403:82
	ldr	r0, [r0, #56]
	.loc	7 3403 23                       @ ../Library/STM32F4xx_HAL_Driver/Src/stm32f4xx_hal_uart.c:3403:23
	str	r0, [sp]
	.loc	7 3405 3 is_stmt 1              @ ../Library/STM32F4xx_HAL_Driver/Src/stm32f4xx_hal_uart.c:3405:3
	ldr	r0, [sp]
	.loc	7 3405 10 is_stmt 0             @ ../Library/STM32F4xx_HAL_Driver/Src/stm32f4xx_hal_uart.c:3405:10
	ldr	r1, [r0, #56]
	movs	r0, #0
	.loc	7 3405 36                       @ ../Library/STM32F4xx_HAL_Driver/Src/stm32f4xx_hal_uart.c:3405:36
	str	r0, [r1, #80]
.Ltmp760:
	.loc	7 3408 7 is_stmt 1              @ ../Library/STM32F4xx_HAL_Driver/Src/stm32f4xx_hal_uart.c:3408:7
	ldr	r0, [sp]
	.loc	7 3408 14 is_stmt 0             @ ../Library/STM32F4xx_HAL_Driver/Src/stm32f4xx_hal_uart.c:3408:14
	ldr	r0, [r0, #52]
.Ltmp761:
	.loc	7 3408 7                        @ ../Library/STM32F4xx_HAL_Driver/Src/stm32f4xx_hal_uart.c:3408:7
	cbz	r0, .LBB33_4
	b	.LBB33_1
.LBB33_1:
.Ltmp762:
	.loc	7 3410 9 is_stmt 1              @ ../Library/STM32F4xx_HAL_Driver/Src/stm32f4xx_hal_uart.c:3410:9
	ldr	r0, [sp]
	.loc	7 3410 16 is_stmt 0             @ ../Library/STM32F4xx_HAL_Driver/Src/stm32f4xx_hal_uart.c:3410:16
	ldr	r0, [r0, #52]
	.loc	7 3410 24                       @ ../Library/STM32F4xx_HAL_Driver/Src/stm32f4xx_hal_uart.c:3410:24
	ldr	r0, [r0, #80]
.Ltmp763:
	.loc	7 3410 9                        @ ../Library/STM32F4xx_HAL_Driver/Src/stm32f4xx_hal_uart.c:3410:9
	cbz	r0, .LBB33_3
	b	.LBB33_2
.LBB33_2:
.Ltmp764:
	.loc	7 3412 7 is_stmt 1              @ ../Library/STM32F4xx_HAL_Driver/Src/stm32f4xx_hal_uart.c:3412:7
	b	.LBB33_5
.Ltmp765:
.LBB33_3:
	.loc	7 3414 3                        @ ../Library/STM32F4xx_HAL_Driver/Src/stm32f4xx_hal_uart.c:3414:3
	b	.LBB33_4
.Ltmp766:
.LBB33_4:
	.loc	7 3417 3                        @ ../Library/STM32F4xx_HAL_Driver/Src/stm32f4xx_hal_uart.c:3417:3
	ldr	r1, [sp]
	movs	r0, #0
	.loc	7 3417 22 is_stmt 0             @ ../Library/STM32F4xx_HAL_Driver/Src/stm32f4xx_hal_uart.c:3417:22
	strh	r0, [r1, #38]
	.loc	7 3418 3 is_stmt 1              @ ../Library/STM32F4xx_HAL_Driver/Src/stm32f4xx_hal_uart.c:3418:3
	ldr	r1, [sp]
	.loc	7 3418 22 is_stmt 0             @ ../Library/STM32F4xx_HAL_Driver/Src/stm32f4xx_hal_uart.c:3418:22
	strh	r0, [r1, #46]
	.loc	7 3421 3 is_stmt 1              @ ../Library/STM32F4xx_HAL_Driver/Src/stm32f4xx_hal_uart.c:3421:3
	ldr	r1, [sp]
	.loc	7 3421 20 is_stmt 0             @ ../Library/STM32F4xx_HAL_Driver/Src/stm32f4xx_hal_uart.c:3421:20
	str	r0, [r1, #64]
	.loc	7 3424 3 is_stmt 1              @ ../Library/STM32F4xx_HAL_Driver/Src/stm32f4xx_hal_uart.c:3424:3
	ldr	r2, [sp]
	movs	r1, #32
	.loc	7 3424 18 is_stmt 0             @ ../Library/STM32F4xx_HAL_Driver/Src/stm32f4xx_hal_uart.c:3424:18
	strb.w	r1, [r2, #61]
	.loc	7 3425 3 is_stmt 1              @ ../Library/STM32F4xx_HAL_Driver/Src/stm32f4xx_hal_uart.c:3425:3
	ldr	r2, [sp]
	.loc	7 3425 18 is_stmt 0             @ ../Library/STM32F4xx_HAL_Driver/Src/stm32f4xx_hal_uart.c:3425:18
	strb.w	r1, [r2, #62]
	.loc	7 3426 3 is_stmt 1              @ ../Library/STM32F4xx_HAL_Driver/Src/stm32f4xx_hal_uart.c:3426:3
	ldr	r1, [sp]
	.loc	7 3426 24 is_stmt 0             @ ../Library/STM32F4xx_HAL_Driver/Src/stm32f4xx_hal_uart.c:3426:24
	str	r0, [r1, #48]
	.loc	7 3434 30 is_stmt 1             @ ../Library/STM32F4xx_HAL_Driver/Src/stm32f4xx_hal_uart.c:3434:30
	ldr	r0, [sp]
	.loc	7 3434 3 is_stmt 0              @ ../Library/STM32F4xx_HAL_Driver/Src/stm32f4xx_hal_uart.c:3434:3
	bl	HAL_UART_AbortCpltCallback
	.loc	7 3436 1 is_stmt 1              @ ../Library/STM32F4xx_HAL_Driver/Src/stm32f4xx_hal_uart.c:3436:1
	b	.LBB33_5
.LBB33_5:
	add	sp, #8
	pop	{r7, pc}
.Ltmp767:
.Lfunc_end33:
	.size	UART_DMARxAbortCallback, .Lfunc_end33-UART_DMARxAbortCallback
	.cfi_endproc
	.cantunwind
	.fnend
                                        @ -- End function
	.section	.text.HAL_UART_AbortCpltCallback,"ax",%progbits
	.hidden	HAL_UART_AbortCpltCallback      @ -- Begin function HAL_UART_AbortCpltCallback
	.weak	HAL_UART_AbortCpltCallback
	.p2align	2
	.type	HAL_UART_AbortCpltCallback,%function
	.code	16                              @ @HAL_UART_AbortCpltCallback
	.thumb_func
HAL_UART_AbortCpltCallback:
.Lfunc_begin34:
	.loc	7 2663 0                        @ ../Library/STM32F4xx_HAL_Driver/Src/stm32f4xx_hal_uart.c:2663:0
	.fnstart
	.cfi_startproc
@ %bb.0:
	.pad	#4
	sub	sp, #4
	.cfi_def_cfa_offset 4
	str	r0, [sp]
.Ltmp768:
	.loc	7 2670 1 prologue_end           @ ../Library/STM32F4xx_HAL_Driver/Src/stm32f4xx_hal_uart.c:2670:1
	add	sp, #4
	bx	lr
.Ltmp769:
.Lfunc_end34:
