	.text
	.syntax unified
	.eabi_attribute	67, "2.09"	@ Tag_conformance
	.cpu	cortex-m4
	.eabi_attribute	6, 13	@ Tag_CPU_arch
	.eabi_attribute	7, 77	@ Tag_CPU_arch_profile
	.eabi_attribute	8, 0	@ Tag_ARM_ISA_use
	.eabi_attribute	9, 2	@ Tag_THUMB_ISA_use
	.fpu	fpv4-sp-d16
	.eabi_attribute	27, 1	@ Tag_ABI_HardFP_use
	.eabi_attribute	36, 1	@ Tag_FP_HP_extension
	.eabi_attribute	34, 1	@ Tag_CPU_unaligned_access
	.eabi_attribute	17, 1	@ Tag_ABI_PCS_GOT_use
	.eabi_attribute	20, 2	@ Tag_ABI_FP_denormal
	.eabi_attribute	21, 0	@ Tag_ABI_FP_exceptions
	.eabi_attribute	23, 1	@ Tag_ABI_FP_number_model
	.eabi_attribute	24, 1	@ Tag_ABI_align_needed
	.eabi_attribute	25, 1	@ Tag_ABI_align_preserved
	.eabi_attribute	28, 1	@ Tag_ABI_VFP_args
	.eabi_attribute	38, 1	@ Tag_ABI_FP_16bit_format
	.eabi_attribute	18, 2	@ Tag_ABI_PCS_wchar_t
	.eabi_attribute	26, 1	@ Tag_ABI_enum_size
	.eabi_attribute	14, 0	@ Tag_ABI_PCS_R9_use
	.file	"stm32f4xx_hal_spi.c"
	.file	1 "C:\\Users\\Hyacincher\\Desktop\\HyTelectrl\\Code\\Project" "../Library/STM32F4xx_HAL_Driver/Inc/stm32f4xx_hal_def.h"
	.file	2 "C:\\Users\\Hyacincher\\Desktop\\HyTelectrl\\Code\\Project" "../Library/STM32F4xx_HAL_Driver/Inc\\stm32f4xx_hal_dma.h"
	.file	3 "C:\\Users\\Hyacincher\\Desktop\\HyTelectrl\\Code\\Project" "../Library/STM32F4xx_HAL_Driver/Inc\\stm32f4xx_hal_spi.h"
	.file	4 "C:\\Users\\Hyacincher\\Desktop\\HyTelectrl\\Code\\Project" "../Library/CMSIS\\stm32f4xx.h"
	.file	5 "D:\\Keil MDK\\ARM\\ARMCLANG\\Bin\\..\\include" "stdint.h"
	.file	6 "C:\\Users\\Hyacincher\\Desktop\\HyTelectrl\\Code\\Project" "../Library/CMSIS/stm32f429xx.h"
	.section	.text.HAL_SPI_Init,"ax",%progbits
	.hidden	HAL_SPI_Init                    @ -- Begin function HAL_SPI_Init
	.globl	HAL_SPI_Init
	.p2align	2
	.type	HAL_SPI_Init,%function
	.code	16                              @ @HAL_SPI_Init
	.thumb_func
HAL_SPI_Init:
.Lfunc_begin0:
	.file	7 "C:\\Users\\Hyacincher\\Desktop\\HyTelectrl\\Code\\Project" "../Library/STM32F4xx_HAL_Driver/Src/stm32f4xx_hal_spi.c"
	.loc	7 314 0                         @ ../Library/STM32F4xx_HAL_Driver/Src/stm32f4xx_hal_spi.c:314:0
	.fnstart
	.cfi_sections .debug_frame
	.cfi_startproc
@ %bb.0:
	.save	{r7, lr}
	push	{r7, lr}
	.cfi_def_cfa_offset 8
	.cfi_offset lr, -4
	.cfi_offset r7, -8
	.pad	#16
	sub	sp, #16
	.cfi_def_cfa_offset 24
	str	r0, [sp, #8]
.Ltmp0:
	.loc	7 316 7 prologue_end            @ ../Library/STM32F4xx_HAL_Driver/Src/stm32f4xx_hal_spi.c:316:7
	ldr	r0, [sp, #8]
.Ltmp1:
	.loc	7 316 7 is_stmt 0               @ ../Library/STM32F4xx_HAL_Driver/Src/stm32f4xx_hal_spi.c:316:7
	cbnz	r0, .LBB0_2
	b	.LBB0_1
.LBB0_1:
	.loc	7 0 7                           @ ../Library/STM32F4xx_HAL_Driver/Src/stm32f4xx_hal_spi.c:0:7
	movs	r0, #1
.Ltmp2:
	.loc	7 318 5 is_stmt 1               @ ../Library/STM32F4xx_HAL_Driver/Src/stm32f4xx_hal_spi.c:318:5
	strb.w	r0, [sp, #15]
	b	.LBB0_11
.Ltmp3:
.LBB0_2:
	.loc	7 330 7                         @ ../Library/STM32F4xx_HAL_Driver/Src/stm32f4xx_hal_spi.c:330:7
	ldr	r0, [sp, #8]
	.loc	7 330 18 is_stmt 0              @ ../Library/STM32F4xx_HAL_Driver/Src/stm32f4xx_hal_spi.c:330:18
	ldr	r0, [r0, #36]
.Ltmp4:
	.loc	7 330 7                         @ ../Library/STM32F4xx_HAL_Driver/Src/stm32f4xx_hal_spi.c:330:7
	cbnz	r0, .LBB0_7
	b	.LBB0_3
.LBB0_3:
.Ltmp5:
	.loc	7 335 9 is_stmt 1               @ ../Library/STM32F4xx_HAL_Driver/Src/stm32f4xx_hal_spi.c:335:9
	ldr	r0, [sp, #8]
	.loc	7 335 20 is_stmt 0              @ ../Library/STM32F4xx_HAL_Driver/Src/stm32f4xx_hal_spi.c:335:20
	ldr	r0, [r0, #4]
.Ltmp6:
	.loc	7 335 9                         @ ../Library/STM32F4xx_HAL_Driver/Src/stm32f4xx_hal_spi.c:335:9
	cmp.w	r0, #260
	bne	.LBB0_5
	b	.LBB0_4
.LBB0_4:
.Ltmp7:
	.loc	7 338 5 is_stmt 1               @ ../Library/STM32F4xx_HAL_Driver/Src/stm32f4xx_hal_spi.c:338:5
	b	.LBB0_6
.Ltmp8:
.LBB0_5:
	.loc	7 342 7                         @ ../Library/STM32F4xx_HAL_Driver/Src/stm32f4xx_hal_spi.c:342:7
	ldr	r1, [sp, #8]
	movs	r0, #0
	.loc	7 342 36 is_stmt 0              @ ../Library/STM32F4xx_HAL_Driver/Src/stm32f4xx_hal_spi.c:342:36
	str	r0, [r1, #28]
	b	.LBB0_6
.Ltmp9:
.LBB0_6:
	.loc	7 344 3 is_stmt 1               @ ../Library/STM32F4xx_HAL_Driver/Src/stm32f4xx_hal_spi.c:344:3
	b	.LBB0_8
.Ltmp10:
.LBB0_7:
	.loc	7 350 5                         @ ../Library/STM32F4xx_HAL_Driver/Src/stm32f4xx_hal_spi.c:350:5
	ldr	r1, [sp, #8]
	movs	r0, #0
	.loc	7 350 28 is_stmt 0              @ ../Library/STM32F4xx_HAL_Driver/Src/stm32f4xx_hal_spi.c:350:28
	str	r0, [r1, #16]
	.loc	7 351 5 is_stmt 1               @ ../Library/STM32F4xx_HAL_Driver/Src/stm32f4xx_hal_spi.c:351:5
	ldr	r1, [sp, #8]
	.loc	7 351 28 is_stmt 0              @ ../Library/STM32F4xx_HAL_Driver/Src/stm32f4xx_hal_spi.c:351:28
	str	r0, [r1, #20]
	b	.LBB0_8
.Ltmp11:
.LBB0_8:
	.loc	7 360 3 is_stmt 1               @ ../Library/STM32F4xx_HAL_Driver/Src/stm32f4xx_hal_spi.c:360:3
	ldr	r1, [sp, #8]
	movs	r0, #0
	.loc	7 360 29 is_stmt 0              @ ../Library/STM32F4xx_HAL_Driver/Src/stm32f4xx_hal_spi.c:360:29
	str	r0, [r1, #40]
.Ltmp12:
	.loc	7 363 7 is_stmt 1               @ ../Library/STM32F4xx_HAL_Driver/Src/stm32f4xx_hal_spi.c:363:7
	ldr	r0, [sp, #8]
	.loc	7 363 13 is_stmt 0              @ ../Library/STM32F4xx_HAL_Driver/Src/stm32f4xx_hal_spi.c:363:13
	ldrb.w	r0, [r0, #81]
.Ltmp13:
	.loc	7 363 7                         @ ../Library/STM32F4xx_HAL_Driver/Src/stm32f4xx_hal_spi.c:363:7
	cbnz	r0, .LBB0_10
	b	.LBB0_9
.LBB0_9:
.Ltmp14:
	.loc	7 366 5 is_stmt 1               @ ../Library/STM32F4xx_HAL_Driver/Src/stm32f4xx_hal_spi.c:366:5
	ldr	r1, [sp, #8]
	movs	r0, #0
	.loc	7 366 16 is_stmt 0              @ ../Library/STM32F4xx_HAL_Driver/Src/stm32f4xx_hal_spi.c:366:16
	strb.w	r0, [r1, #80]
	.loc	7 388 21 is_stmt 1              @ ../Library/STM32F4xx_HAL_Driver/Src/stm32f4xx_hal_spi.c:388:21
	ldr	r0, [sp, #8]
	.loc	7 388 5 is_stmt 0               @ ../Library/STM32F4xx_HAL_Driver/Src/stm32f4xx_hal_spi.c:388:5
	bl	HAL_SPI_MspInit
	.loc	7 390 3 is_stmt 1               @ ../Library/STM32F4xx_HAL_Driver/Src/stm32f4xx_hal_spi.c:390:3
	b	.LBB0_10
.Ltmp15:
.LBB0_10:
	.loc	7 392 3                         @ ../Library/STM32F4xx_HAL_Driver/Src/stm32f4xx_hal_spi.c:392:3
	ldr	r1, [sp, #8]
	movs	r0, #2
	.loc	7 392 15 is_stmt 0              @ ../Library/STM32F4xx_HAL_Driver/Src/stm32f4xx_hal_spi.c:392:15
	strb.w	r0, [r1, #81]
	.loc	7 395 3 is_stmt 1               @ ../Library/STM32F4xx_HAL_Driver/Src/stm32f4xx_hal_spi.c:395:3
	ldr	r0, [sp, #8]
	ldr	r1, [r0]
	ldr	r0, [r1]
	bic	r0, r0, #64
	str	r0, [r1]
	.loc	7 400 3                         @ ../Library/STM32F4xx_HAL_Driver/Src/stm32f4xx_hal_spi.c:400:3
	ldr	r2, [sp, #8]
	str	r2, [sp, #4]                    @ 4-byte Spill
	ldr	r1, [r2]
	ldr	r0, [r2, #4]
	ldr.w	r12, [r2, #8]
	ldr	r3, [r2, #12]
	and	r0, r0, #260
	and	r12, r12, #33792
	add	r0, r12
	and	r3, r3, #2048
	add	r0, r3
	ldr	r3, [r2, #16]
	and	r3, r3, #2
	add	r0, r3
	ldr	r3, [r2, #20]
	and	r3, r3, #1
	add	r0, r3
	ldr	r3, [r2, #24]
	and	r3, r3, #512
	add	r0, r3
	ldr	r3, [r2, #28]
	and	r3, r3, #56
	add	r0, r3
	ldr	r3, [r2, #32]
	and	r3, r3, #128
	orrs	r0, r3
	ldr	r2, [r2, #40]
	and	r2, r2, #8192
	orrs	r0, r2
	str	r0, [r1]
	.loc	7 411 3                         @ ../Library/STM32F4xx_HAL_Driver/Src/stm32f4xx_hal_spi.c:411:3
	ldr	r2, [sp, #8]
	ldrh	r0, [r2, #26]
	and	r0, r0, #4
	ldr	r1, [r2]
	ldr	r2, [r2, #36]
	and	r2, r2, #16
	add	r0, r2
	str	r0, [r1, #4]
	.loc	7 424 3                         @ ../Library/STM32F4xx_HAL_Driver/Src/stm32f4xx_hal_spi.c:424:3
	ldr	r0, [sp, #8]
	ldr	r1, [r0]
	ldr	r0, [r1, #28]
	bic	r0, r0, #2048
	str	r0, [r1, #28]
	.loc	7 427 3                         @ ../Library/STM32F4xx_HAL_Driver/Src/stm32f4xx_hal_spi.c:427:3
	ldr	r1, [sp, #8]
	movs	r0, #0
	.loc	7 427 19 is_stmt 0              @ ../Library/STM32F4xx_HAL_Driver/Src/stm32f4xx_hal_spi.c:427:19
	str	r0, [r1, #84]
	.loc	7 428 3 is_stmt 1               @ ../Library/STM32F4xx_HAL_Driver/Src/stm32f4xx_hal_spi.c:428:3
	ldr	r2, [sp, #8]
	movs	r1, #1
	.loc	7 428 19 is_stmt 0              @ ../Library/STM32F4xx_HAL_Driver/Src/stm32f4xx_hal_spi.c:428:19
	strb.w	r1, [r2, #81]
	.loc	7 430 3 is_stmt 1               @ ../Library/STM32F4xx_HAL_Driver/Src/stm32f4xx_hal_spi.c:430:3
	strb.w	r0, [sp, #15]
	b	.LBB0_11
.LBB0_11:
	.loc	7 431 1                         @ ../Library/STM32F4xx_HAL_Driver/Src/stm32f4xx_hal_spi.c:431:1
	ldrb.w	r0, [sp, #15]
	add	sp, #16
	pop	{r7, pc}
.Ltmp16:
.Lfunc_end0:
	.size	HAL_SPI_Init, .Lfunc_end0-HAL_SPI_Init
	.cfi_endproc
	.cantunwind
	.fnend
                                        @ -- End function
	.section	.text.HAL_SPI_MspInit,"ax",%progbits
	.hidden	HAL_SPI_MspInit                 @ -- Begin function HAL_SPI_MspInit
	.weak	HAL_SPI_MspInit
	.p2align	2
	.type	HAL_SPI_MspInit,%function
	.code	16                              @ @HAL_SPI_MspInit
	.thumb_func
HAL_SPI_MspInit:
.Lfunc_begin1:
	.loc	7 484 0                         @ ../Library/STM32F4xx_HAL_Driver/Src/stm32f4xx_hal_spi.c:484:0
	.fnstart
	.cfi_startproc
@ %bb.0:
	.pad	#4
	sub	sp, #4
	.cfi_def_cfa_offset 4
	str	r0, [sp]
.Ltmp17:
	.loc	7 491 1 prologue_end            @ ../Library/STM32F4xx_HAL_Driver/Src/stm32f4xx_hal_spi.c:491:1
	add	sp, #4
	bx	lr
.Ltmp18:
.Lfunc_end1:
	.size	HAL_SPI_MspInit, .Lfunc_end1-HAL_SPI_MspInit
	.cfi_endproc
	.cantunwind
	.fnend
                                        @ -- End function
	.section	.text.HAL_SPI_DeInit,"ax",%progbits
	.hidden	HAL_SPI_DeInit                  @ -- Begin function HAL_SPI_DeInit
	.globl	HAL_SPI_DeInit
	.p2align	2
	.type	HAL_SPI_DeInit,%function
	.code	16                              @ @HAL_SPI_DeInit
	.thumb_func
HAL_SPI_DeInit:
.Lfunc_begin2:
	.loc	7 440 0                         @ ../Library/STM32F4xx_HAL_Driver/Src/stm32f4xx_hal_spi.c:440:0
	.fnstart
	.cfi_startproc
@ %bb.0:
	.save	{r7, lr}
	push	{r7, lr}
	.cfi_def_cfa_offset 8
	.cfi_offset lr, -4
	.cfi_offset r7, -8
	.pad	#8
	sub	sp, #8
	.cfi_def_cfa_offset 16
	str	r0, [sp]
.Ltmp19:
	.loc	7 442 7 prologue_end            @ ../Library/STM32F4xx_HAL_Driver/Src/stm32f4xx_hal_spi.c:442:7
	ldr	r0, [sp]
.Ltmp20:
	.loc	7 442 7 is_stmt 0               @ ../Library/STM32F4xx_HAL_Driver/Src/stm32f4xx_hal_spi.c:442:7
	cbnz	r0, .LBB2_2
	b	.LBB2_1
.LBB2_1:
	.loc	7 0 7                           @ ../Library/STM32F4xx_HAL_Driver/Src/stm32f4xx_hal_spi.c:0:7
	movs	r0, #1
.Ltmp21:
	.loc	7 444 5 is_stmt 1               @ ../Library/STM32F4xx_HAL_Driver/Src/stm32f4xx_hal_spi.c:444:5
	strb.w	r0, [sp, #7]
	b	.LBB2_5
.Ltmp22:
.LBB2_2:
	.loc	7 450 3                         @ ../Library/STM32F4xx_HAL_Driver/Src/stm32f4xx_hal_spi.c:450:3
	ldr	r1, [sp]
	movs	r0, #2
	.loc	7 450 15 is_stmt 0              @ ../Library/STM32F4xx_HAL_Driver/Src/stm32f4xx_hal_spi.c:450:15
	strb.w	r0, [r1, #81]
	.loc	7 453 3 is_stmt 1               @ ../Library/STM32F4xx_HAL_Driver/Src/stm32f4xx_hal_spi.c:453:3
	ldr	r0, [sp]
	ldr	r1, [r0]
	ldr	r0, [r1]
	bic	r0, r0, #64
	str	r0, [r1]
	.loc	7 465 21                        @ ../Library/STM32F4xx_HAL_Driver/Src/stm32f4xx_hal_spi.c:465:21
	ldr	r0, [sp]
	.loc	7 465 3 is_stmt 0               @ ../Library/STM32F4xx_HAL_Driver/Src/stm32f4xx_hal_spi.c:465:3
	bl	HAL_SPI_MspDeInit
	.loc	7 468 3 is_stmt 1               @ ../Library/STM32F4xx_HAL_Driver/Src/stm32f4xx_hal_spi.c:468:3
	ldr	r1, [sp]
	movs	r0, #0
	.loc	7 468 19 is_stmt 0              @ ../Library/STM32F4xx_HAL_Driver/Src/stm32f4xx_hal_spi.c:468:19
	str	r0, [r1, #84]
	.loc	7 469 3 is_stmt 1               @ ../Library/STM32F4xx_HAL_Driver/Src/stm32f4xx_hal_spi.c:469:3
	ldr	r1, [sp]
	.loc	7 469 15 is_stmt 0              @ ../Library/STM32F4xx_HAL_Driver/Src/stm32f4xx_hal_spi.c:469:15
	strb.w	r0, [r1, #81]
	.loc	7 472 3 is_stmt 1               @ ../Library/STM32F4xx_HAL_Driver/Src/stm32f4xx_hal_spi.c:472:3
	b	.LBB2_3
.LBB2_3:
.Ltmp23:
	.loc	7 472 3 is_stmt 0               @ ../Library/STM32F4xx_HAL_Driver/Src/stm32f4xx_hal_spi.c:472:3
	ldr	r1, [sp]
	movs	r0, #0
	strb.w	r0, [r1, #80]
	b	.LBB2_4
.Ltmp24:
.LBB2_4:
	.loc	7 0 3                           @ ../Library/STM32F4xx_HAL_Driver/Src/stm32f4xx_hal_spi.c:0:3
	movs	r0, #0
	.loc	7 474 3 is_stmt 1               @ ../Library/STM32F4xx_HAL_Driver/Src/stm32f4xx_hal_spi.c:474:3
	strb.w	r0, [sp, #7]
	b	.LBB2_5
.LBB2_5:
	.loc	7 475 1                         @ ../Library/STM32F4xx_HAL_Driver/Src/stm32f4xx_hal_spi.c:475:1
	ldrb.w	r0, [sp, #7]
	add	sp, #8
	pop	{r7, pc}
.Ltmp25:
.Lfunc_end2:
	.size	HAL_SPI_DeInit, .Lfunc_end2-HAL_SPI_DeInit
	.cfi_endproc
	.cantunwind
	.fnend
                                        @ -- End function
	.section	.text.HAL_SPI_MspDeInit,"ax",%progbits
	.hidden	HAL_SPI_MspDeInit               @ -- Begin function HAL_SPI_MspDeInit
	.weak	HAL_SPI_MspDeInit
	.p2align	2
	.type	HAL_SPI_MspDeInit,%function
	.code	16                              @ @HAL_SPI_MspDeInit
	.thumb_func
HAL_SPI_MspDeInit:
.Lfunc_begin3:
	.loc	7 500 0                         @ ../Library/STM32F4xx_HAL_Driver/Src/stm32f4xx_hal_spi.c:500:0
	.fnstart
	.cfi_startproc
@ %bb.0:
	.pad	#4
	sub	sp, #4
	.cfi_def_cfa_offset 4
	str	r0, [sp]
.Ltmp26:
	.loc	7 507 1 prologue_end            @ ../Library/STM32F4xx_HAL_Driver/Src/stm32f4xx_hal_spi.c:507:1
	add	sp, #4
	bx	lr
.Ltmp27:
.Lfunc_end3:
	.size	HAL_SPI_MspDeInit, .Lfunc_end3-HAL_SPI_MspDeInit
	.cfi_endproc
	.cantunwind
	.fnend
                                        @ -- End function
	.section	.text.HAL_SPI_Transmit,"ax",%progbits
	.hidden	HAL_SPI_Transmit                @ -- Begin function HAL_SPI_Transmit
	.globl	HAL_SPI_Transmit
	.p2align	2
	.type	HAL_SPI_Transmit,%function
	.code	16                              @ @HAL_SPI_Transmit
	.thumb_func
HAL_SPI_Transmit:
.Lfunc_begin4:
	.loc	7 772 0                         @ ../Library/STM32F4xx_HAL_Driver/Src/stm32f4xx_hal_spi.c:772:0
	.fnstart
	.cfi_startproc
@ %bb.0:
	.save	{r7, lr}
	push	{r7, lr}
	.cfi_def_cfa_offset 8
	.cfi_offset lr, -4
	.cfi_offset r7, -8
	.pad	#32
	sub	sp, #32
	.cfi_def_cfa_offset 40
                                        @ kill: def $r12 killed $r2
	str	r0, [sp, #24]
	str	r1, [sp, #20]
	strh.w	r2, [sp, #18]
	str	r3, [sp, #12]
	movs	r0, #0
.Ltmp28:
	.loc	7 774 21 prologue_end           @ ../Library/STM32F4xx_HAL_Driver/Src/stm32f4xx_hal_spi.c:774:21
	strb.w	r0, [sp, #7]
	.loc	7 781 3                         @ ../Library/STM32F4xx_HAL_Driver/Src/stm32f4xx_hal_spi.c:781:3
	b	.LBB4_1
.LBB4_1:
.Ltmp29:
	.loc	7 781 3 is_stmt 0               @ ../Library/STM32F4xx_HAL_Driver/Src/stm32f4xx_hal_spi.c:781:3
	ldr	r0, [sp, #24]
	ldrb.w	r0, [r0, #80]
.Ltmp30:
	.loc	7 781 3                         @ ../Library/STM32F4xx_HAL_Driver/Src/stm32f4xx_hal_spi.c:781:3
	cmp	r0, #1
	bne	.LBB4_3
	b	.LBB4_2
.LBB4_2:
	.loc	7 0 3                           @ ../Library/STM32F4xx_HAL_Driver/Src/stm32f4xx_hal_spi.c:0:3
	movs	r0, #2
.Ltmp31:
	.loc	7 781 3                         @ ../Library/STM32F4xx_HAL_Driver/Src/stm32f4xx_hal_spi.c:781:3
	strb.w	r0, [sp, #31]
	b	.LBB4_55
.Ltmp32:
.LBB4_3:
	.loc	7 781 3                         @ ../Library/STM32F4xx_HAL_Driver/Src/stm32f4xx_hal_spi.c:781:3
	ldr	r1, [sp, #24]
	movs	r0, #1
	strb.w	r0, [r1, #80]
	b	.LBB4_4
.Ltmp33:
.LBB4_4:
	.loc	7 781 3                         @ ../Library/STM32F4xx_HAL_Driver/Src/stm32f4xx_hal_spi.c:781:3
	b	.LBB4_5
.Ltmp34:
.LBB4_5:
	.loc	7 784 15 is_stmt 1              @ ../Library/STM32F4xx_HAL_Driver/Src/stm32f4xx_hal_spi.c:784:15
	bl	HAL_GetTick
	.loc	7 784 13 is_stmt 0              @ ../Library/STM32F4xx_HAL_Driver/Src/stm32f4xx_hal_spi.c:784:13
	str	r0, [sp, #8]
	.loc	7 785 25 is_stmt 1              @ ../Library/STM32F4xx_HAL_Driver/Src/stm32f4xx_hal_spi.c:785:25
	ldrh.w	r0, [sp, #18]
	.loc	7 785 23 is_stmt 0              @ ../Library/STM32F4xx_HAL_Driver/Src/stm32f4xx_hal_spi.c:785:23
	strh.w	r0, [sp, #4]
.Ltmp35:
	.loc	7 787 7 is_stmt 1               @ ../Library/STM32F4xx_HAL_Driver/Src/stm32f4xx_hal_spi.c:787:7
	ldr	r0, [sp, #24]
	.loc	7 787 13 is_stmt 0              @ ../Library/STM32F4xx_HAL_Driver/Src/stm32f4xx_hal_spi.c:787:13
	ldrb.w	r0, [r0, #81]
.Ltmp36:
	.loc	7 787 7                         @ ../Library/STM32F4xx_HAL_Driver/Src/stm32f4xx_hal_spi.c:787:7
	cmp	r0, #1
	beq	.LBB4_7
	b	.LBB4_6
.LBB4_6:
	.loc	7 0 7                           @ ../Library/STM32F4xx_HAL_Driver/Src/stm32f4xx_hal_spi.c:0:7
	movs	r0, #2
.Ltmp37:
	.loc	7 789 15 is_stmt 1              @ ../Library/STM32F4xx_HAL_Driver/Src/stm32f4xx_hal_spi.c:789:15
	strb.w	r0, [sp, #7]
	.loc	7 790 5                         @ ../Library/STM32F4xx_HAL_Driver/Src/stm32f4xx_hal_spi.c:790:5
	b	.LBB4_52
.Ltmp38:
.LBB4_7:
	.loc	7 793 8                         @ ../Library/STM32F4xx_HAL_Driver/Src/stm32f4xx_hal_spi.c:793:8
	ldr	r0, [sp, #20]
	.loc	7 793 23 is_stmt 0              @ ../Library/STM32F4xx_HAL_Driver/Src/stm32f4xx_hal_spi.c:793:23
	cbz	r0, .LBB4_9
	b	.LBB4_8
.LBB4_8:
	.loc	7 793 27                        @ ../Library/STM32F4xx_HAL_Driver/Src/stm32f4xx_hal_spi.c:793:27
	ldrh.w	r0, [sp, #18]
.Ltmp39:
	.loc	7 793 7                         @ ../Library/STM32F4xx_HAL_Driver/Src/stm32f4xx_hal_spi.c:793:7
	cbnz	r0, .LBB4_10
	b	.LBB4_9
.LBB4_9:
	.loc	7 0 7                           @ ../Library/STM32F4xx_HAL_Driver/Src/stm32f4xx_hal_spi.c:0:7
	movs	r0, #1
.Ltmp40:
	.loc	7 795 15 is_stmt 1              @ ../Library/STM32F4xx_HAL_Driver/Src/stm32f4xx_hal_spi.c:795:15
	strb.w	r0, [sp, #7]
	.loc	7 796 5                         @ ../Library/STM32F4xx_HAL_Driver/Src/stm32f4xx_hal_spi.c:796:5
	b	.LBB4_52
.Ltmp41:
.LBB4_10:
	.loc	7 800 3                         @ ../Library/STM32F4xx_HAL_Driver/Src/stm32f4xx_hal_spi.c:800:3
	ldr	r1, [sp, #24]
	movs	r0, #3
	.loc	7 800 21 is_stmt 0              @ ../Library/STM32F4xx_HAL_Driver/Src/stm32f4xx_hal_spi.c:800:21
	strb.w	r0, [r1, #81]
	.loc	7 801 3 is_stmt 1               @ ../Library/STM32F4xx_HAL_Driver/Src/stm32f4xx_hal_spi.c:801:3
	ldr	r1, [sp, #24]
	movs	r0, #0
	.loc	7 801 21 is_stmt 0              @ ../Library/STM32F4xx_HAL_Driver/Src/stm32f4xx_hal_spi.c:801:21
	str	r0, [r1, #84]
	.loc	7 802 34 is_stmt 1              @ ../Library/STM32F4xx_HAL_Driver/Src/stm32f4xx_hal_spi.c:802:34
	ldr	r1, [sp, #20]
	.loc	7 802 3 is_stmt 0               @ ../Library/STM32F4xx_HAL_Driver/Src/stm32f4xx_hal_spi.c:802:3
	ldr	r2, [sp, #24]
	.loc	7 802 21                        @ ../Library/STM32F4xx_HAL_Driver/Src/stm32f4xx_hal_spi.c:802:21
	str	r1, [r2, #48]
	.loc	7 803 23 is_stmt 1              @ ../Library/STM32F4xx_HAL_Driver/Src/stm32f4xx_hal_spi.c:803:23
	ldrh.w	r1, [sp, #18]
	.loc	7 803 3 is_stmt 0               @ ../Library/STM32F4xx_HAL_Driver/Src/stm32f4xx_hal_spi.c:803:3
	ldr	r2, [sp, #24]
	.loc	7 803 21                        @ ../Library/STM32F4xx_HAL_Driver/Src/stm32f4xx_hal_spi.c:803:21
	strh	r1, [r2, #52]
	.loc	7 804 23 is_stmt 1              @ ../Library/STM32F4xx_HAL_Driver/Src/stm32f4xx_hal_spi.c:804:23
	ldrh.w	r1, [sp, #18]
	.loc	7 804 3 is_stmt 0               @ ../Library/STM32F4xx_HAL_Driver/Src/stm32f4xx_hal_spi.c:804:3
	ldr	r2, [sp, #24]
	.loc	7 804 21                        @ ../Library/STM32F4xx_HAL_Driver/Src/stm32f4xx_hal_spi.c:804:21
	strh	r1, [r2, #54]
	.loc	7 807 3 is_stmt 1               @ ../Library/STM32F4xx_HAL_Driver/Src/stm32f4xx_hal_spi.c:807:3
	ldr	r1, [sp, #24]
	.loc	7 807 21 is_stmt 0              @ ../Library/STM32F4xx_HAL_Driver/Src/stm32f4xx_hal_spi.c:807:21
	str	r0, [r1, #56]
	.loc	7 808 3 is_stmt 1               @ ../Library/STM32F4xx_HAL_Driver/Src/stm32f4xx_hal_spi.c:808:3
	ldr	r1, [sp, #24]
	.loc	7 808 21 is_stmt 0              @ ../Library/STM32F4xx_HAL_Driver/Src/stm32f4xx_hal_spi.c:808:21
	strh	r0, [r1, #60]
	.loc	7 809 3 is_stmt 1               @ ../Library/STM32F4xx_HAL_Driver/Src/stm32f4xx_hal_spi.c:809:3
	ldr	r1, [sp, #24]
	.loc	7 809 21 is_stmt 0              @ ../Library/STM32F4xx_HAL_Driver/Src/stm32f4xx_hal_spi.c:809:21
	strh	r0, [r1, #62]
	.loc	7 810 3 is_stmt 1               @ ../Library/STM32F4xx_HAL_Driver/Src/stm32f4xx_hal_spi.c:810:3
	ldr	r1, [sp, #24]
	.loc	7 810 21 is_stmt 0              @ ../Library/STM32F4xx_HAL_Driver/Src/stm32f4xx_hal_spi.c:810:21
	str	r0, [r1, #68]
	.loc	7 811 3 is_stmt 1               @ ../Library/STM32F4xx_HAL_Driver/Src/stm32f4xx_hal_spi.c:811:3
	ldr	r1, [sp, #24]
	.loc	7 811 21 is_stmt 0              @ ../Library/STM32F4xx_HAL_Driver/Src/stm32f4xx_hal_spi.c:811:21
	str	r0, [r1, #64]
.Ltmp42:
	.loc	7 814 7 is_stmt 1               @ ../Library/STM32F4xx_HAL_Driver/Src/stm32f4xx_hal_spi.c:814:7
	ldr	r0, [sp, #24]
	.loc	7 814 18 is_stmt 0              @ ../Library/STM32F4xx_HAL_Driver/Src/stm32f4xx_hal_spi.c:814:18
	ldr	r0, [r0, #8]
.Ltmp43:
	.loc	7 814 7                         @ ../Library/STM32F4xx_HAL_Driver/Src/stm32f4xx_hal_spi.c:814:7
	cmp.w	r0, #32768
	bne	.LBB4_12
	b	.LBB4_11
.LBB4_11:
.Ltmp44:
	.loc	7 817 5 is_stmt 1               @ ../Library/STM32F4xx_HAL_Driver/Src/stm32f4xx_hal_spi.c:817:5
	ldr	r0, [sp, #24]
	ldr	r1, [r0]
	ldr	r0, [r1]
	bic	r0, r0, #64
	str	r0, [r1]
	.loc	7 818 5                         @ ../Library/STM32F4xx_HAL_Driver/Src/stm32f4xx_hal_spi.c:818:5
	ldr	r0, [sp, #24]
	ldr	r1, [r0]
	ldr	r0, [r1]
	orr	r0, r0, #16384
	str	r0, [r1]
	.loc	7 819 3                         @ ../Library/STM32F4xx_HAL_Driver/Src/stm32f4xx_hal_spi.c:819:3
	b	.LBB4_12
.Ltmp45:
.LBB4_12:
	.loc	7 830 8                         @ ../Library/STM32F4xx_HAL_Driver/Src/stm32f4xx_hal_spi.c:830:8
	ldr	r0, [sp, #24]
	.loc	7 830 14 is_stmt 0              @ ../Library/STM32F4xx_HAL_Driver/Src/stm32f4xx_hal_spi.c:830:14
	ldr	r0, [r0]
	.loc	7 830 24                        @ ../Library/STM32F4xx_HAL_Driver/Src/stm32f4xx_hal_spi.c:830:24
	ldr	r0, [r0]
	.loc	7 830 28                        @ ../Library/STM32F4xx_HAL_Driver/Src/stm32f4xx_hal_spi.c:830:28
	and	r0, r0, #64
.Ltmp46:
	.loc	7 830 7                         @ ../Library/STM32F4xx_HAL_Driver/Src/stm32f4xx_hal_spi.c:830:7
	cmp	r0, #64
	beq	.LBB4_14
	b	.LBB4_13
.LBB4_13:
.Ltmp47:
	.loc	7 833 5 is_stmt 1               @ ../Library/STM32F4xx_HAL_Driver/Src/stm32f4xx_hal_spi.c:833:5
	ldr	r0, [sp, #24]
	ldr	r1, [r0]
	ldr	r0, [r1]
	orr	r0, r0, #64
	str	r0, [r1]
	.loc	7 834 3                         @ ../Library/STM32F4xx_HAL_Driver/Src/stm32f4xx_hal_spi.c:834:3
	b	.LBB4_14
.Ltmp48:
.LBB4_14:
	.loc	7 837 7                         @ ../Library/STM32F4xx_HAL_Driver/Src/stm32f4xx_hal_spi.c:837:7
	ldr	r0, [sp, #24]
	.loc	7 837 18 is_stmt 0              @ ../Library/STM32F4xx_HAL_Driver/Src/stm32f4xx_hal_spi.c:837:18
	ldr	r0, [r0, #12]
.Ltmp49:
	.loc	7 837 7                         @ ../Library/STM32F4xx_HAL_Driver/Src/stm32f4xx_hal_spi.c:837:7
	cmp.w	r0, #2048
	bne	.LBB4_29
	b	.LBB4_15
.LBB4_15:
.Ltmp50:
	.loc	7 839 10 is_stmt 1              @ ../Library/STM32F4xx_HAL_Driver/Src/stm32f4xx_hal_spi.c:839:10
	ldr	r0, [sp, #24]
	.loc	7 839 21 is_stmt 0              @ ../Library/STM32F4xx_HAL_Driver/Src/stm32f4xx_hal_spi.c:839:21
	ldr	r0, [r0, #4]
	.loc	7 839 45                        @ ../Library/STM32F4xx_HAL_Driver/Src/stm32f4xx_hal_spi.c:839:45
	cbz	r0, .LBB4_17
	b	.LBB4_16
.LBB4_16:
	.loc	7 839 49                        @ ../Library/STM32F4xx_HAL_Driver/Src/stm32f4xx_hal_spi.c:839:49
	ldrh.w	r0, [sp, #4]
.Ltmp51:
	.loc	7 839 9                         @ ../Library/STM32F4xx_HAL_Driver/Src/stm32f4xx_hal_spi.c:839:9
	cmp	r0, #1
	bne	.LBB4_18
	b	.LBB4_17
.LBB4_17:
.Ltmp52:
	.loc	7 841 42 is_stmt 1              @ ../Library/STM32F4xx_HAL_Driver/Src/stm32f4xx_hal_spi.c:841:42
	ldr	r0, [sp, #24]
	.loc	7 841 13 is_stmt 0              @ ../Library/STM32F4xx_HAL_Driver/Src/stm32f4xx_hal_spi.c:841:13
	ldr	r1, [r0]
	.loc	7 841 48                        @ ../Library/STM32F4xx_HAL_Driver/Src/stm32f4xx_hal_spi.c:841:48
	ldr	r0, [r0, #48]
	.loc	7 841 28                        @ ../Library/STM32F4xx_HAL_Driver/Src/stm32f4xx_hal_spi.c:841:28
	ldrh	r0, [r0]
	.loc	7 841 26                        @ ../Library/STM32F4xx_HAL_Driver/Src/stm32f4xx_hal_spi.c:841:26
	str	r0, [r1, #12]
	.loc	7 842 7 is_stmt 1               @ ../Library/STM32F4xx_HAL_Driver/Src/stm32f4xx_hal_spi.c:842:7
	ldr	r1, [sp, #24]
	.loc	7 842 24 is_stmt 0              @ ../Library/STM32F4xx_HAL_Driver/Src/stm32f4xx_hal_spi.c:842:24
	ldr	r0, [r1, #48]
	adds	r0, #2
	str	r0, [r1, #48]
	.loc	7 843 7 is_stmt 1               @ ../Library/STM32F4xx_HAL_Driver/Src/stm32f4xx_hal_spi.c:843:7
	ldr	r1, [sp, #24]
	.loc	7 843 24 is_stmt 0              @ ../Library/STM32F4xx_HAL_Driver/Src/stm32f4xx_hal_spi.c:843:24
	ldrh	r0, [r1, #54]
	subs	r0, #1
	strh	r0, [r1, #54]
	.loc	7 844 5 is_stmt 1               @ ../Library/STM32F4xx_HAL_Driver/Src/stm32f4xx_hal_spi.c:844:5
	b	.LBB4_18
.Ltmp53:
.LBB4_18:
	.loc	7 846 5                         @ ../Library/STM32F4xx_HAL_Driver/Src/stm32f4xx_hal_spi.c:846:5
	b	.LBB4_19
.LBB4_19:                               @ =>This Inner Loop Header: Depth=1
	.loc	7 846 12 is_stmt 0              @ ../Library/STM32F4xx_HAL_Driver/Src/stm32f4xx_hal_spi.c:846:12
	ldr	r0, [sp, #24]
	.loc	7 846 18                        @ ../Library/STM32F4xx_HAL_Driver/Src/stm32f4xx_hal_spi.c:846:18
	ldrh	r0, [r0, #54]
	.loc	7 846 5                         @ ../Library/STM32F4xx_HAL_Driver/Src/stm32f4xx_hal_spi.c:846:5
	cbz	r0, .LBB4_28
	b	.LBB4_20
.LBB4_20:                               @   in Loop: Header=BB4_19 Depth=1
.Ltmp54:
	.loc	7 849 11 is_stmt 1              @ ../Library/STM32F4xx_HAL_Driver/Src/stm32f4xx_hal_spi.c:849:11
	ldr	r0, [sp, #24]
	ldr	r0, [r0]
	ldr	r0, [r0, #8]
.Ltmp55:
	.loc	7 849 11 is_stmt 0              @ ../Library/STM32F4xx_HAL_Driver/Src/stm32f4xx_hal_spi.c:849:11
	lsls	r0, r0, #30
	cmp	r0, #0
	bpl	.LBB4_22
	b	.LBB4_21
.LBB4_21:                               @   in Loop: Header=BB4_19 Depth=1
.Ltmp56:
	.loc	7 851 44 is_stmt 1              @ ../Library/STM32F4xx_HAL_Driver/Src/stm32f4xx_hal_spi.c:851:44
	ldr	r0, [sp, #24]
	.loc	7 851 15 is_stmt 0              @ ../Library/STM32F4xx_HAL_Driver/Src/stm32f4xx_hal_spi.c:851:15
	ldr	r1, [r0]
	.loc	7 851 50                        @ ../Library/STM32F4xx_HAL_Driver/Src/stm32f4xx_hal_spi.c:851:50
	ldr	r0, [r0, #48]
	.loc	7 851 30                        @ ../Library/STM32F4xx_HAL_Driver/Src/stm32f4xx_hal_spi.c:851:30
	ldrh	r0, [r0]
	.loc	7 851 28                        @ ../Library/STM32F4xx_HAL_Driver/Src/stm32f4xx_hal_spi.c:851:28
	str	r0, [r1, #12]
	.loc	7 852 9 is_stmt 1               @ ../Library/STM32F4xx_HAL_Driver/Src/stm32f4xx_hal_spi.c:852:9
	ldr	r1, [sp, #24]
	.loc	7 852 26 is_stmt 0              @ ../Library/STM32F4xx_HAL_Driver/Src/stm32f4xx_hal_spi.c:852:26
	ldr	r0, [r1, #48]
	adds	r0, #2
	str	r0, [r1, #48]
	.loc	7 853 9 is_stmt 1               @ ../Library/STM32F4xx_HAL_Driver/Src/stm32f4xx_hal_spi.c:853:9
	ldr	r1, [sp, #24]
	.loc	7 853 26 is_stmt 0              @ ../Library/STM32F4xx_HAL_Driver/Src/stm32f4xx_hal_spi.c:853:26
	ldrh	r0, [r1, #54]
	subs	r0, #1
	strh	r0, [r1, #54]
	.loc	7 854 7 is_stmt 1               @ ../Library/STM32F4xx_HAL_Driver/Src/stm32f4xx_hal_spi.c:854:7
	b	.LBB4_27
.Ltmp57:
.LBB4_22:                               @   in Loop: Header=BB4_19 Depth=1
	.loc	7 858 16                        @ ../Library/STM32F4xx_HAL_Driver/Src/stm32f4xx_hal_spi.c:858:16
	bl	HAL_GetTick
	.loc	7 858 32 is_stmt 0              @ ../Library/STM32F4xx_HAL_Driver/Src/stm32f4xx_hal_spi.c:858:32
	ldr	r1, [sp, #8]
	.loc	7 858 30                        @ ../Library/STM32F4xx_HAL_Driver/Src/stm32f4xx_hal_spi.c:858:30
	subs	r0, r0, r1
	.loc	7 858 47                        @ ../Library/STM32F4xx_HAL_Driver/Src/stm32f4xx_hal_spi.c:858:47
	ldr	r1, [sp, #12]
	.loc	7 858 56                        @ ../Library/STM32F4xx_HAL_Driver/Src/stm32f4xx_hal_spi.c:858:56
	cmp	r0, r1
	blo	.LBB4_24
	b	.LBB4_23
.LBB4_23:                               @   in Loop: Header=BB4_19 Depth=1
	.loc	7 858 60                        @ ../Library/STM32F4xx_HAL_Driver/Src/stm32f4xx_hal_spi.c:858:60
	ldr	r0, [sp, #12]
	.loc	7 858 87                        @ ../Library/STM32F4xx_HAL_Driver/Src/stm32f4xx_hal_spi.c:858:87
	adds	r0, #1
	cbnz	r0, .LBB4_25
	b	.LBB4_24
.LBB4_24:                               @   in Loop: Header=BB4_19 Depth=1
	.loc	7 858 91                        @ ../Library/STM32F4xx_HAL_Driver/Src/stm32f4xx_hal_spi.c:858:91
	ldr	r0, [sp, #12]
.Ltmp58:
	.loc	7 858 13                        @ ../Library/STM32F4xx_HAL_Driver/Src/stm32f4xx_hal_spi.c:858:13
	cbnz	r0, .LBB4_26
	b	.LBB4_25
.LBB4_25:
	.loc	7 0 13                          @ ../Library/STM32F4xx_HAL_Driver/Src/stm32f4xx_hal_spi.c:0:13
	movs	r0, #3
.Ltmp59:
	.loc	7 860 21 is_stmt 1              @ ../Library/STM32F4xx_HAL_Driver/Src/stm32f4xx_hal_spi.c:860:21
	strb.w	r0, [sp, #7]
	.loc	7 861 11                        @ ../Library/STM32F4xx_HAL_Driver/Src/stm32f4xx_hal_spi.c:861:11
	b	.LBB4_52
.Ltmp60:
.LBB4_26:                               @   in Loop: Header=BB4_19 Depth=1
	.loc	7 0 11 is_stmt 0                @ ../Library/STM32F4xx_HAL_Driver/Src/stm32f4xx_hal_spi.c:0:11
	b	.LBB4_27
.LBB4_27:                               @   in Loop: Header=BB4_19 Depth=1
	.loc	7 846 5 is_stmt 1               @ ../Library/STM32F4xx_HAL_Driver/Src/stm32f4xx_hal_spi.c:846:5
	b	.LBB4_19
.LBB4_28:
	.loc	7 865 3                         @ ../Library/STM32F4xx_HAL_Driver/Src/stm32f4xx_hal_spi.c:865:3
	b	.LBB4_43
.Ltmp61:
.LBB4_29:
	.loc	7 869 10                        @ ../Library/STM32F4xx_HAL_Driver/Src/stm32f4xx_hal_spi.c:869:10
	ldr	r0, [sp, #24]
	.loc	7 869 21 is_stmt 0              @ ../Library/STM32F4xx_HAL_Driver/Src/stm32f4xx_hal_spi.c:869:21
	ldr	r0, [r0, #4]
	.loc	7 869 45                        @ ../Library/STM32F4xx_HAL_Driver/Src/stm32f4xx_hal_spi.c:869:45
	cbz	r0, .LBB4_31
	b	.LBB4_30
.LBB4_30:
	.loc	7 869 49                        @ ../Library/STM32F4xx_HAL_Driver/Src/stm32f4xx_hal_spi.c:869:49
	ldrh.w	r0, [sp, #4]
.Ltmp62:
	.loc	7 869 9                         @ ../Library/STM32F4xx_HAL_Driver/Src/stm32f4xx_hal_spi.c:869:9
	cmp	r0, #1
	bne	.LBB4_32
	b	.LBB4_31
.LBB4_31:
.Ltmp63:
	.loc	7 871 50 is_stmt 1              @ ../Library/STM32F4xx_HAL_Driver/Src/stm32f4xx_hal_spi.c:871:50
	ldr	r0, [sp, #24]
	.loc	7 871 32 is_stmt 0              @ ../Library/STM32F4xx_HAL_Driver/Src/stm32f4xx_hal_spi.c:871:32
	ldr	r1, [r0]
	.loc	7 871 56                        @ ../Library/STM32F4xx_HAL_Driver/Src/stm32f4xx_hal_spi.c:871:56
	ldr	r0, [r0, #48]
	.loc	7 871 49                        @ ../Library/STM32F4xx_HAL_Driver/Src/stm32f4xx_hal_spi.c:871:49
	ldrb	r0, [r0]
	.loc	7 871 46                        @ ../Library/STM32F4xx_HAL_Driver/Src/stm32f4xx_hal_spi.c:871:46
	strb	r0, [r1, #12]
	.loc	7 872 7 is_stmt 1               @ ../Library/STM32F4xx_HAL_Driver/Src/stm32f4xx_hal_spi.c:872:7
	ldr	r1, [sp, #24]
	.loc	7 872 24 is_stmt 0              @ ../Library/STM32F4xx_HAL_Driver/Src/stm32f4xx_hal_spi.c:872:24
	ldr	r0, [r1, #48]
	adds	r0, #1
	str	r0, [r1, #48]
	.loc	7 873 7 is_stmt 1               @ ../Library/STM32F4xx_HAL_Driver/Src/stm32f4xx_hal_spi.c:873:7
	ldr	r1, [sp, #24]
	.loc	7 873 24 is_stmt 0              @ ../Library/STM32F4xx_HAL_Driver/Src/stm32f4xx_hal_spi.c:873:24
	ldrh	r0, [r1, #54]
	subs	r0, #1
	strh	r0, [r1, #54]
	.loc	7 874 5 is_stmt 1               @ ../Library/STM32F4xx_HAL_Driver/Src/stm32f4xx_hal_spi.c:874:5
	b	.LBB4_32
.Ltmp64:
.LBB4_32:
	.loc	7 875 5                         @ ../Library/STM32F4xx_HAL_Driver/Src/stm32f4xx_hal_spi.c:875:5
	b	.LBB4_33
.LBB4_33:                               @ =>This Inner Loop Header: Depth=1
	.loc	7 875 12 is_stmt 0              @ ../Library/STM32F4xx_HAL_Driver/Src/stm32f4xx_hal_spi.c:875:12
	ldr	r0, [sp, #24]
	.loc	7 875 18                        @ ../Library/STM32F4xx_HAL_Driver/Src/stm32f4xx_hal_spi.c:875:18
	ldrh	r0, [r0, #54]
	.loc	7 875 5                         @ ../Library/STM32F4xx_HAL_Driver/Src/stm32f4xx_hal_spi.c:875:5
	cbz	r0, .LBB4_42
	b	.LBB4_34
.LBB4_34:                               @   in Loop: Header=BB4_33 Depth=1
.Ltmp65:
	.loc	7 878 11 is_stmt 1              @ ../Library/STM32F4xx_HAL_Driver/Src/stm32f4xx_hal_spi.c:878:11
	ldr	r0, [sp, #24]
	ldr	r0, [r0]
	ldr	r0, [r0, #8]
.Ltmp66:
	.loc	7 878 11 is_stmt 0              @ ../Library/STM32F4xx_HAL_Driver/Src/stm32f4xx_hal_spi.c:878:11
	lsls	r0, r0, #30
	cmp	r0, #0
	bpl	.LBB4_36
	b	.LBB4_35
.LBB4_35:                               @   in Loop: Header=BB4_33 Depth=1
.Ltmp67:
	.loc	7 880 52 is_stmt 1              @ ../Library/STM32F4xx_HAL_Driver/Src/stm32f4xx_hal_spi.c:880:52
	ldr	r0, [sp, #24]
	.loc	7 880 34 is_stmt 0              @ ../Library/STM32F4xx_HAL_Driver/Src/stm32f4xx_hal_spi.c:880:34
	ldr	r1, [r0]
	.loc	7 880 58                        @ ../Library/STM32F4xx_HAL_Driver/Src/stm32f4xx_hal_spi.c:880:58
	ldr	r0, [r0, #48]
	.loc	7 880 51                        @ ../Library/STM32F4xx_HAL_Driver/Src/stm32f4xx_hal_spi.c:880:51
	ldrb	r0, [r0]
	.loc	7 880 48                        @ ../Library/STM32F4xx_HAL_Driver/Src/stm32f4xx_hal_spi.c:880:48
	strb	r0, [r1, #12]
	.loc	7 881 9 is_stmt 1               @ ../Library/STM32F4xx_HAL_Driver/Src/stm32f4xx_hal_spi.c:881:9
	ldr	r1, [sp, #24]
	.loc	7 881 26 is_stmt 0              @ ../Library/STM32F4xx_HAL_Driver/Src/stm32f4xx_hal_spi.c:881:26
	ldr	r0, [r1, #48]
	adds	r0, #1
	str	r0, [r1, #48]
	.loc	7 882 9 is_stmt 1               @ ../Library/STM32F4xx_HAL_Driver/Src/stm32f4xx_hal_spi.c:882:9
	ldr	r1, [sp, #24]
	.loc	7 882 26 is_stmt 0              @ ../Library/STM32F4xx_HAL_Driver/Src/stm32f4xx_hal_spi.c:882:26
	ldrh	r0, [r1, #54]
	subs	r0, #1
	strh	r0, [r1, #54]
	.loc	7 883 7 is_stmt 1               @ ../Library/STM32F4xx_HAL_Driver/Src/stm32f4xx_hal_spi.c:883:7
	b	.LBB4_41
.Ltmp68:
.LBB4_36:                               @   in Loop: Header=BB4_33 Depth=1
	.loc	7 887 16                        @ ../Library/STM32F4xx_HAL_Driver/Src/stm32f4xx_hal_spi.c:887:16
	bl	HAL_GetTick
	.loc	7 887 32 is_stmt 0              @ ../Library/STM32F4xx_HAL_Driver/Src/stm32f4xx_hal_spi.c:887:32
	ldr	r1, [sp, #8]
	.loc	7 887 30                        @ ../Library/STM32F4xx_HAL_Driver/Src/stm32f4xx_hal_spi.c:887:30
	subs	r0, r0, r1
	.loc	7 887 47                        @ ../Library/STM32F4xx_HAL_Driver/Src/stm32f4xx_hal_spi.c:887:47
	ldr	r1, [sp, #12]
	.loc	7 887 56                        @ ../Library/STM32F4xx_HAL_Driver/Src/stm32f4xx_hal_spi.c:887:56
	cmp	r0, r1
	blo	.LBB4_38
	b	.LBB4_37
.LBB4_37:                               @   in Loop: Header=BB4_33 Depth=1
	.loc	7 887 60                        @ ../Library/STM32F4xx_HAL_Driver/Src/stm32f4xx_hal_spi.c:887:60
	ldr	r0, [sp, #12]
	.loc	7 887 87                        @ ../Library/STM32F4xx_HAL_Driver/Src/stm32f4xx_hal_spi.c:887:87
	adds	r0, #1
	cbnz	r0, .LBB4_39
	b	.LBB4_38
.LBB4_38:                               @   in Loop: Header=BB4_33 Depth=1
	.loc	7 887 91                        @ ../Library/STM32F4xx_HAL_Driver/Src/stm32f4xx_hal_spi.c:887:91
	ldr	r0, [sp, #12]
.Ltmp69:
	.loc	7 887 13                        @ ../Library/STM32F4xx_HAL_Driver/Src/stm32f4xx_hal_spi.c:887:13
	cbnz	r0, .LBB4_40
	b	.LBB4_39
.LBB4_39:
	.loc	7 0 13                          @ ../Library/STM32F4xx_HAL_Driver/Src/stm32f4xx_hal_spi.c:0:13
	movs	r0, #3
.Ltmp70:
	.loc	7 889 21 is_stmt 1              @ ../Library/STM32F4xx_HAL_Driver/Src/stm32f4xx_hal_spi.c:889:21
	strb.w	r0, [sp, #7]
	.loc	7 890 11                        @ ../Library/STM32F4xx_HAL_Driver/Src/stm32f4xx_hal_spi.c:890:11
	b	.LBB4_52
.Ltmp71:
.LBB4_40:                               @   in Loop: Header=BB4_33 Depth=1
	.loc	7 0 11 is_stmt 0                @ ../Library/STM32F4xx_HAL_Driver/Src/stm32f4xx_hal_spi.c:0:11
	b	.LBB4_41
.LBB4_41:                               @   in Loop: Header=BB4_33 Depth=1
	.loc	7 875 5 is_stmt 1               @ ../Library/STM32F4xx_HAL_Driver/Src/stm32f4xx_hal_spi.c:875:5
	b	.LBB4_33
.Ltmp72:
.LBB4_42:
	.loc	7 0 5 is_stmt 0                 @ ../Library/STM32F4xx_HAL_Driver/Src/stm32f4xx_hal_spi.c:0:5
	b	.LBB4_43
.LBB4_43:
.Ltmp73:
	.loc	7 904 30 is_stmt 1              @ ../Library/STM32F4xx_HAL_Driver/Src/stm32f4xx_hal_spi.c:904:30
	ldr	r0, [sp, #24]
	.loc	7 904 36 is_stmt 0              @ ../Library/STM32F4xx_HAL_Driver/Src/stm32f4xx_hal_spi.c:904:36
	ldr	r1, [sp, #12]
	.loc	7 904 45                        @ ../Library/STM32F4xx_HAL_Driver/Src/stm32f4xx_hal_spi.c:904:45
	ldr	r2, [sp, #8]
	.loc	7 904 7                         @ ../Library/STM32F4xx_HAL_Driver/Src/stm32f4xx_hal_spi.c:904:7
	bl	SPI_EndRxTxTransaction
.Ltmp74:
	.loc	7 904 7                         @ ../Library/STM32F4xx_HAL_Driver/Src/stm32f4xx_hal_spi.c:904:7
	cbz	r0, .LBB4_45
	b	.LBB4_44
.LBB4_44:
.Ltmp75:
	.loc	7 906 5 is_stmt 1               @ ../Library/STM32F4xx_HAL_Driver/Src/stm32f4xx_hal_spi.c:906:5
	ldr	r1, [sp, #24]
	movs	r0, #32
	.loc	7 906 21 is_stmt 0              @ ../Library/STM32F4xx_HAL_Driver/Src/stm32f4xx_hal_spi.c:906:21
	str	r0, [r1, #84]
	.loc	7 907 3 is_stmt 1               @ ../Library/STM32F4xx_HAL_Driver/Src/stm32f4xx_hal_spi.c:907:3
	b	.LBB4_45
.Ltmp76:
.LBB4_45:
	.loc	7 910 7                         @ ../Library/STM32F4xx_HAL_Driver/Src/stm32f4xx_hal_spi.c:910:7
	ldr	r0, [sp, #24]
	.loc	7 910 18 is_stmt 0              @ ../Library/STM32F4xx_HAL_Driver/Src/stm32f4xx_hal_spi.c:910:18
	ldr	r0, [r0, #8]
.Ltmp77:
	.loc	7 910 7                         @ ../Library/STM32F4xx_HAL_Driver/Src/stm32f4xx_hal_spi.c:910:7
	cbnz	r0, .LBB4_49
	b	.LBB4_46
.LBB4_46:
.Ltmp78:
	.loc	7 912 5 is_stmt 1               @ ../Library/STM32F4xx_HAL_Driver/Src/stm32f4xx_hal_spi.c:912:5
	b	.LBB4_47
.LBB4_47:
	.loc	7 0 5 is_stmt 0                 @ ../Library/STM32F4xx_HAL_Driver/Src/stm32f4xx_hal_spi.c:0:5
	movs	r0, #0
.Ltmp79:
	.loc	7 912 5                         @ ../Library/STM32F4xx_HAL_Driver/Src/stm32f4xx_hal_spi.c:912:5
	str	r0, [sp]
	ldr	r0, [sp, #24]
	ldr	r0, [r0]
	ldr	r0, [r0, #12]
	str	r0, [sp]
	ldr	r0, [sp, #24]
	ldr	r0, [r0]
	ldr	r0, [r0, #8]
	str	r0, [sp]
	ldr	r0, [sp]
	b	.LBB4_48
.Ltmp80:
.LBB4_48:
	.loc	7 913 3 is_stmt 1               @ ../Library/STM32F4xx_HAL_Driver/Src/stm32f4xx_hal_spi.c:913:3
	b	.LBB4_49
.Ltmp81:
.LBB4_49:
	.loc	7 915 7                         @ ../Library/STM32F4xx_HAL_Driver/Src/stm32f4xx_hal_spi.c:915:7
	ldr	r0, [sp, #24]
	.loc	7 915 13 is_stmt 0              @ ../Library/STM32F4xx_HAL_Driver/Src/stm32f4xx_hal_spi.c:915:13
	ldr	r0, [r0, #84]
.Ltmp82:
	.loc	7 915 7                         @ ../Library/STM32F4xx_HAL_Driver/Src/stm32f4xx_hal_spi.c:915:7
	cbz	r0, .LBB4_51
	b	.LBB4_50
.LBB4_50:
	.loc	7 0 7                           @ ../Library/STM32F4xx_HAL_Driver/Src/stm32f4xx_hal_spi.c:0:7
	movs	r0, #1
.Ltmp83:
	.loc	7 917 15 is_stmt 1              @ ../Library/STM32F4xx_HAL_Driver/Src/stm32f4xx_hal_spi.c:917:15
	strb.w	r0, [sp, #7]
	.loc	7 918 3                         @ ../Library/STM32F4xx_HAL_Driver/Src/stm32f4xx_hal_spi.c:918:3
	b	.LBB4_51
.Ltmp84:
.LBB4_51:
	.loc	7 915 26                        @ ../Library/STM32F4xx_HAL_Driver/Src/stm32f4xx_hal_spi.c:915:26
	b	.LBB4_52
.Ltmp85:
.LBB4_52:
	@DEBUG_LABEL: HAL_SPI_Transmit:error
	.loc	7 921 3                         @ ../Library/STM32F4xx_HAL_Driver/Src/stm32f4xx_hal_spi.c:921:3
	ldr	r1, [sp, #24]
	movs	r0, #1
	.loc	7 921 15 is_stmt 0              @ ../Library/STM32F4xx_HAL_Driver/Src/stm32f4xx_hal_spi.c:921:15
	strb.w	r0, [r1, #81]
	.loc	7 923 3 is_stmt 1               @ ../Library/STM32F4xx_HAL_Driver/Src/stm32f4xx_hal_spi.c:923:3
	b	.LBB4_53
.LBB4_53:
.Ltmp86:
	.loc	7 923 3 is_stmt 0               @ ../Library/STM32F4xx_HAL_Driver/Src/stm32f4xx_hal_spi.c:923:3
	ldr	r1, [sp, #24]
	movs	r0, #0
	strb.w	r0, [r1, #80]
	b	.LBB4_54
.Ltmp87:
.LBB4_54:
	.loc	7 924 10 is_stmt 1              @ ../Library/STM32F4xx_HAL_Driver/Src/stm32f4xx_hal_spi.c:924:10
	ldrb.w	r0, [sp, #7]
	.loc	7 924 3 is_stmt 0               @ ../Library/STM32F4xx_HAL_Driver/Src/stm32f4xx_hal_spi.c:924:3
	strb.w	r0, [sp, #31]
	b	.LBB4_55
.LBB4_55:
	.loc	7 925 1 is_stmt 1               @ ../Library/STM32F4xx_HAL_Driver/Src/stm32f4xx_hal_spi.c:925:1
	ldrb.w	r0, [sp, #31]
	add	sp, #32
	pop	{r7, pc}
.Ltmp88:
.Lfunc_end4:
	.size	HAL_SPI_Transmit, .Lfunc_end4-HAL_SPI_Transmit
	.cfi_endproc
	.cantunwind
	.fnend
                                        @ -- End function
	.section	.text.SPI_EndRxTxTransaction,"ax",%progbits
	.p2align	2                               @ -- Begin function SPI_EndRxTxTransaction
	.type	SPI_EndRxTxTransaction,%function
	.code	16                              @ @SPI_EndRxTxTransaction
	.thumb_func
SPI_EndRxTxTransaction:
.Lfunc_begin5:
	.loc	7 3599 0                        @ ../Library/STM32F4xx_HAL_Driver/Src/stm32f4xx_hal_spi.c:3599:0
	.fnstart
	.cfi_startproc
@ %bb.0:
	.save	{r7, lr}
	push	{r7, lr}
	.cfi_def_cfa_offset 8
	.cfi_offset lr, -4
	.cfi_offset r7, -8
	.pad	#24
	sub	sp, #24
	.cfi_def_cfa_offset 32
	str	r0, [sp, #16]
	str	r1, [sp, #12]
	str	r2, [sp, #8]
.Ltmp89:
	.loc	7 3601 60 prologue_end          @ ../Library/STM32F4xx_HAL_Driver/Src/stm32f4xx_hal_spi.c:3601:60
	movw	r0, :lower16:SystemCoreClock
	movt	r0, :upper16:SystemCoreClock
	ldr	r0, [r0]
	movw	r1, #43691
	movt	r1, #43690
	.loc	7 3601 76 is_stmt 0             @ ../Library/STM32F4xx_HAL_Driver/Src/stm32f4xx_hal_spi.c:3601:76
	umull	r1, r0, r0, r1
	lsrs	r0, r0, #4
	movw	r1, #56963
	movt	r1, #17179
	.loc	7 3601 82                       @ ../Library/STM32F4xx_HAL_Driver/Src/stm32f4xx_hal_spi.c:3601:82
	umull	r1, r0, r0, r1
	lsrs	r0, r0, #18
	mov.w	r1, #1000
	.loc	7 3601 57                       @ ../Library/STM32F4xx_HAL_Driver/Src/stm32f4xx_hal_spi.c:3601:57
	muls	r0, r1, r0
	.loc	7 3601 17                       @ ../Library/STM32F4xx_HAL_Driver/Src/stm32f4xx_hal_spi.c:3601:17
	str	r0, [sp, #4]
.Ltmp90:
	.loc	7 3603 7 is_stmt 1              @ ../Library/STM32F4xx_HAL_Driver/Src/stm32f4xx_hal_spi.c:3603:7
	ldr	r0, [sp, #16]
	.loc	7 3603 18 is_stmt 0             @ ../Library/STM32F4xx_HAL_Driver/Src/stm32f4xx_hal_spi.c:3603:18
	ldr	r0, [r0, #4]
.Ltmp91:
	.loc	7 3603 7                        @ ../Library/STM32F4xx_HAL_Driver/Src/stm32f4xx_hal_spi.c:3603:7
	cmp.w	r0, #260
	bne	.LBB5_4
	b	.LBB5_1
.LBB5_1:
.Ltmp92:
	.loc	7 3606 39 is_stmt 1             @ ../Library/STM32F4xx_HAL_Driver/Src/stm32f4xx_hal_spi.c:3606:39
	ldr	r0, [sp, #16]
	.loc	7 3606 66 is_stmt 0             @ ../Library/STM32F4xx_HAL_Driver/Src/stm32f4xx_hal_spi.c:3606:66
	ldr	r3, [sp, #12]
	.loc	7 3606 75                       @ ../Library/STM32F4xx_HAL_Driver/Src/stm32f4xx_hal_spi.c:3606:75
	ldr	r1, [sp, #8]
	.loc	7 3606 9                        @ ../Library/STM32F4xx_HAL_Driver/Src/stm32f4xx_hal_spi.c:3606:9
	mov	r2, sp
	str	r1, [r2]
	movs	r1, #128
	movs	r2, #0
	bl	SPI_WaitFlagStateUntilTimeout
.Ltmp93:
	.loc	7 3606 9                        @ ../Library/STM32F4xx_HAL_Driver/Src/stm32f4xx_hal_spi.c:3606:9
	cbz	r0, .LBB5_3
	b	.LBB5_2
.LBB5_2:
.Ltmp94:
	.loc	7 3608 7 is_stmt 1              @ ../Library/STM32F4xx_HAL_Driver/Src/stm32f4xx_hal_spi.c:3608:7
	ldr	r1, [sp, #16]
	ldr	r0, [r1, #84]
	orr	r0, r0, #32
	str	r0, [r1, #84]
	movs	r0, #3
	.loc	7 3609 7                        @ ../Library/STM32F4xx_HAL_Driver/Src/stm32f4xx_hal_spi.c:3609:7
	strb.w	r0, [sp, #23]
	b	.LBB5_11
.Ltmp95:
.LBB5_3:
	.loc	7 3611 3                        @ ../Library/STM32F4xx_HAL_Driver/Src/stm32f4xx_hal_spi.c:3611:3
	b	.LBB5_10
.Ltmp96:
.LBB5_4:
	.loc	7 3619 5                        @ ../Library/STM32F4xx_HAL_Driver/Src/stm32f4xx_hal_spi.c:3619:5
	b	.LBB5_5
.LBB5_5:                                @ =>This Inner Loop Header: Depth=1
.Ltmp97:
	.loc	7 3621 11                       @ ../Library/STM32F4xx_HAL_Driver/Src/stm32f4xx_hal_spi.c:3621:11
	ldr	r0, [sp, #4]
.Ltmp98:
	.loc	7 3621 11 is_stmt 0             @ ../Library/STM32F4xx_HAL_Driver/Src/stm32f4xx_hal_spi.c:3621:11
	cbnz	r0, .LBB5_7
	b	.LBB5_6
.LBB5_6:
.Ltmp99:
	.loc	7 3623 9 is_stmt 1              @ ../Library/STM32F4xx_HAL_Driver/Src/stm32f4xx_hal_spi.c:3623:9
	b	.LBB5_9
.Ltmp100:
.LBB5_7:                                @   in Loop: Header=BB5_5 Depth=1
	.loc	7 3625 12                       @ ../Library/STM32F4xx_HAL_Driver/Src/stm32f4xx_hal_spi.c:3625:12
	ldr	r0, [sp, #4]
	subs	r0, #1
	str	r0, [sp, #4]
	.loc	7 3626 5                        @ ../Library/STM32F4xx_HAL_Driver/Src/stm32f4xx_hal_spi.c:3626:5
	b	.LBB5_8
.Ltmp101:
.LBB5_8:                                @   in Loop: Header=BB5_5 Depth=1
	.loc	7 3626 14 is_stmt 0             @ ../Library/STM32F4xx_HAL_Driver/Src/stm32f4xx_hal_spi.c:3626:14
	ldr	r0, [sp, #16]
	ldr	r0, [r0]
	ldr	r0, [r0, #8]
	uxtb	r1, r0
	movs	r0, #0
.Ltmp102:
	.loc	7 3626 5                        @ ../Library/STM32F4xx_HAL_Driver/Src/stm32f4xx_hal_spi.c:3626:5
	cmp.w	r0, r1, lsr #7
	bne	.LBB5_5
	b	.LBB5_9
.Ltmp103:
.LBB5_9:
	.loc	7 0 5                           @ ../Library/STM32F4xx_HAL_Driver/Src/stm32f4xx_hal_spi.c:0:5
	b	.LBB5_10
.LBB5_10:
	movs	r0, #0
	.loc	7 3629 3 is_stmt 1              @ ../Library/STM32F4xx_HAL_Driver/Src/stm32f4xx_hal_spi.c:3629:3
	strb.w	r0, [sp, #23]
	b	.LBB5_11
.LBB5_11:
	.loc	7 3630 1                        @ ../Library/STM32F4xx_HAL_Driver/Src/stm32f4xx_hal_spi.c:3630:1
	ldrb.w	r0, [sp, #23]
	add	sp, #24
	pop	{r7, pc}
.Ltmp104:
.Lfunc_end5:
	.size	SPI_EndRxTxTransaction, .Lfunc_end5-SPI_EndRxTxTransaction
	.cfi_endproc
	.cantunwind
	.fnend
                                        @ -- End function
	.section	.text.HAL_SPI_Receive,"ax",%progbits
	.hidden	HAL_SPI_Receive                 @ -- Begin function HAL_SPI_Receive
	.globl	HAL_SPI_Receive
	.p2align	2
	.type	HAL_SPI_Receive,%function
	.code	16                              @ @HAL_SPI_Receive
	.thumb_func
HAL_SPI_Receive:
.Lfunc_begin6:
	.loc	7 937 0                         @ ../Library/STM32F4xx_HAL_Driver/Src/stm32f4xx_hal_spi.c:937:0
	.fnstart
	.cfi_startproc
@ %bb.0:
	.save	{r7, lr}
	push	{r7, lr}
	.cfi_def_cfa_offset 8
	.cfi_offset lr, -4
	.cfi_offset r7, -8
	.pad	#32
	sub	sp, #32
	.cfi_def_cfa_offset 40
                                        @ kill: def $r12 killed $r2
	str	r0, [sp, #24]
	str	r1, [sp, #20]
	strh.w	r2, [sp, #18]
	str	r3, [sp, #12]
	movs	r0, #0
.Ltmp105:
	.loc	7 942 21 prologue_end           @ ../Library/STM32F4xx_HAL_Driver/Src/stm32f4xx_hal_spi.c:942:21
	strb.w	r0, [sp, #7]
.Ltmp106:
	.loc	7 944 8                         @ ../Library/STM32F4xx_HAL_Driver/Src/stm32f4xx_hal_spi.c:944:8
	ldr	r0, [sp, #24]
	.loc	7 944 19 is_stmt 0              @ ../Library/STM32F4xx_HAL_Driver/Src/stm32f4xx_hal_spi.c:944:19
	ldr	r0, [r0, #4]
	.loc	7 944 44                        @ ../Library/STM32F4xx_HAL_Driver/Src/stm32f4xx_hal_spi.c:944:44
	cmp.w	r0, #260
	bne	.LBB6_3
	b	.LBB6_1
.LBB6_1:
	.loc	7 944 48                        @ ../Library/STM32F4xx_HAL_Driver/Src/stm32f4xx_hal_spi.c:944:48
	ldr	r0, [sp, #24]
	.loc	7 944 59                        @ ../Library/STM32F4xx_HAL_Driver/Src/stm32f4xx_hal_spi.c:944:59
	ldr	r0, [r0, #8]
.Ltmp107:
	.loc	7 944 7                         @ ../Library/STM32F4xx_HAL_Driver/Src/stm32f4xx_hal_spi.c:944:7
	cbnz	r0, .LBB6_3
	b	.LBB6_2
.LBB6_2:
.Ltmp108:
	.loc	7 946 5 is_stmt 1               @ ../Library/STM32F4xx_HAL_Driver/Src/stm32f4xx_hal_spi.c:946:5
	ldr	r1, [sp, #24]
	movs	r0, #4
	.loc	7 946 17 is_stmt 0              @ ../Library/STM32F4xx_HAL_Driver/Src/stm32f4xx_hal_spi.c:946:17
	strb.w	r0, [r1, #81]
	.loc	7 948 36 is_stmt 1              @ ../Library/STM32F4xx_HAL_Driver/Src/stm32f4xx_hal_spi.c:948:36
	ldr	r0, [sp, #24]
	.loc	7 948 42 is_stmt 0              @ ../Library/STM32F4xx_HAL_Driver/Src/stm32f4xx_hal_spi.c:948:42
	ldr	r2, [sp, #20]
	.loc	7 948 56                        @ ../Library/STM32F4xx_HAL_Driver/Src/stm32f4xx_hal_spi.c:948:56
	ldrh.w	r3, [sp, #18]
	.loc	7 948 62                        @ ../Library/STM32F4xx_HAL_Driver/Src/stm32f4xx_hal_spi.c:948:62
	ldr	r1, [sp, #12]
	.loc	7 948 12                        @ ../Library/STM32F4xx_HAL_Driver/Src/stm32f4xx_hal_spi.c:948:12
	mov	r12, sp
	str.w	r1, [r12]
	mov	r1, r2
	bl	HAL_SPI_TransmitReceive
	.loc	7 948 5                         @ ../Library/STM32F4xx_HAL_Driver/Src/stm32f4xx_hal_spi.c:948:5
	strb.w	r0, [sp, #31]
	b	.LBB6_48
.Ltmp109:
.LBB6_3:
	.loc	7 952 3 is_stmt 1               @ ../Library/STM32F4xx_HAL_Driver/Src/stm32f4xx_hal_spi.c:952:3
	b	.LBB6_4
.LBB6_4:
.Ltmp110:
	.loc	7 952 3 is_stmt 0               @ ../Library/STM32F4xx_HAL_Driver/Src/stm32f4xx_hal_spi.c:952:3
	ldr	r0, [sp, #24]
	ldrb.w	r0, [r0, #80]
.Ltmp111:
	.loc	7 952 3                         @ ../Library/STM32F4xx_HAL_Driver/Src/stm32f4xx_hal_spi.c:952:3
	cmp	r0, #1
	bne	.LBB6_6
	b	.LBB6_5
.LBB6_5:
	.loc	7 0 3                           @ ../Library/STM32F4xx_HAL_Driver/Src/stm32f4xx_hal_spi.c:0:3
	movs	r0, #2
.Ltmp112:
	.loc	7 952 3                         @ ../Library/STM32F4xx_HAL_Driver/Src/stm32f4xx_hal_spi.c:952:3
	strb.w	r0, [sp, #31]
	b	.LBB6_48
.Ltmp113:
.LBB6_6:
	.loc	7 952 3                         @ ../Library/STM32F4xx_HAL_Driver/Src/stm32f4xx_hal_spi.c:952:3
	ldr	r1, [sp, #24]
	movs	r0, #1
	strb.w	r0, [r1, #80]
	b	.LBB6_7
.Ltmp114:
.LBB6_7:
	.loc	7 952 3                         @ ../Library/STM32F4xx_HAL_Driver/Src/stm32f4xx_hal_spi.c:952:3
	b	.LBB6_8
.Ltmp115:
.LBB6_8:
	.loc	7 955 15 is_stmt 1              @ ../Library/STM32F4xx_HAL_Driver/Src/stm32f4xx_hal_spi.c:955:15
	bl	HAL_GetTick
	.loc	7 955 13 is_stmt 0              @ ../Library/STM32F4xx_HAL_Driver/Src/stm32f4xx_hal_spi.c:955:13
	str	r0, [sp, #8]
.Ltmp116:
	.loc	7 957 7 is_stmt 1               @ ../Library/STM32F4xx_HAL_Driver/Src/stm32f4xx_hal_spi.c:957:7
	ldr	r0, [sp, #24]
	.loc	7 957 13 is_stmt 0              @ ../Library/STM32F4xx_HAL_Driver/Src/stm32f4xx_hal_spi.c:957:13
	ldrb.w	r0, [r0, #81]
.Ltmp117:
	.loc	7 957 7                         @ ../Library/STM32F4xx_HAL_Driver/Src/stm32f4xx_hal_spi.c:957:7
	cmp	r0, #1
	beq	.LBB6_10
	b	.LBB6_9
.LBB6_9:
	.loc	7 0 7                           @ ../Library/STM32F4xx_HAL_Driver/Src/stm32f4xx_hal_spi.c:0:7
	movs	r0, #2
.Ltmp118:
	.loc	7 959 15 is_stmt 1              @ ../Library/STM32F4xx_HAL_Driver/Src/stm32f4xx_hal_spi.c:959:15
	strb.w	r0, [sp, #7]
	.loc	7 960 5                         @ ../Library/STM32F4xx_HAL_Driver/Src/stm32f4xx_hal_spi.c:960:5
	b	.LBB6_45
.Ltmp119:
.LBB6_10:
	.loc	7 963 8                         @ ../Library/STM32F4xx_HAL_Driver/Src/stm32f4xx_hal_spi.c:963:8
	ldr	r0, [sp, #20]
	.loc	7 963 23 is_stmt 0              @ ../Library/STM32F4xx_HAL_Driver/Src/stm32f4xx_hal_spi.c:963:23
	cbz	r0, .LBB6_12
	b	.LBB6_11
.LBB6_11:
	.loc	7 963 27                        @ ../Library/STM32F4xx_HAL_Driver/Src/stm32f4xx_hal_spi.c:963:27
	ldrh.w	r0, [sp, #18]
.Ltmp120:
	.loc	7 963 7                         @ ../Library/STM32F4xx_HAL_Driver/Src/stm32f4xx_hal_spi.c:963:7
	cbnz	r0, .LBB6_13
	b	.LBB6_12
.LBB6_12:
	.loc	7 0 7                           @ ../Library/STM32F4xx_HAL_Driver/Src/stm32f4xx_hal_spi.c:0:7
	movs	r0, #1
.Ltmp121:
	.loc	7 965 15 is_stmt 1              @ ../Library/STM32F4xx_HAL_Driver/Src/stm32f4xx_hal_spi.c:965:15
	strb.w	r0, [sp, #7]
	.loc	7 966 5                         @ ../Library/STM32F4xx_HAL_Driver/Src/stm32f4xx_hal_spi.c:966:5
	b	.LBB6_45
.Ltmp122:
.LBB6_13:
	.loc	7 970 3                         @ ../Library/STM32F4xx_HAL_Driver/Src/stm32f4xx_hal_spi.c:970:3
	ldr	r1, [sp, #24]
	movs	r0, #4
	.loc	7 970 21 is_stmt 0              @ ../Library/STM32F4xx_HAL_Driver/Src/stm32f4xx_hal_spi.c:970:21
	strb.w	r0, [r1, #81]
	.loc	7 971 3 is_stmt 1               @ ../Library/STM32F4xx_HAL_Driver/Src/stm32f4xx_hal_spi.c:971:3
	ldr	r1, [sp, #24]
	movs	r0, #0
	.loc	7 971 21 is_stmt 0              @ ../Library/STM32F4xx_HAL_Driver/Src/stm32f4xx_hal_spi.c:971:21
	str	r0, [r1, #84]
	.loc	7 972 34 is_stmt 1              @ ../Library/STM32F4xx_HAL_Driver/Src/stm32f4xx_hal_spi.c:972:34
	ldr	r1, [sp, #20]
	.loc	7 972 3 is_stmt 0               @ ../Library/STM32F4xx_HAL_Driver/Src/stm32f4xx_hal_spi.c:972:3
	ldr	r2, [sp, #24]
	.loc	7 972 21                        @ ../Library/STM32F4xx_HAL_Driver/Src/stm32f4xx_hal_spi.c:972:21
	str	r1, [r2, #56]
	.loc	7 973 23 is_stmt 1              @ ../Library/STM32F4xx_HAL_Driver/Src/stm32f4xx_hal_spi.c:973:23
	ldrh.w	r1, [sp, #18]
	.loc	7 973 3 is_stmt 0               @ ../Library/STM32F4xx_HAL_Driver/Src/stm32f4xx_hal_spi.c:973:3
	ldr	r2, [sp, #24]
	.loc	7 973 21                        @ ../Library/STM32F4xx_HAL_Driver/Src/stm32f4xx_hal_spi.c:973:21
	strh	r1, [r2, #60]
	.loc	7 974 23 is_stmt 1              @ ../Library/STM32F4xx_HAL_Driver/Src/stm32f4xx_hal_spi.c:974:23
	ldrh.w	r1, [sp, #18]
	.loc	7 974 3 is_stmt 0               @ ../Library/STM32F4xx_HAL_Driver/Src/stm32f4xx_hal_spi.c:974:3
	ldr	r2, [sp, #24]
	.loc	7 974 21                        @ ../Library/STM32F4xx_HAL_Driver/Src/stm32f4xx_hal_spi.c:974:21
	strh	r1, [r2, #62]
	.loc	7 977 3 is_stmt 1               @ ../Library/STM32F4xx_HAL_Driver/Src/stm32f4xx_hal_spi.c:977:3
	ldr	r1, [sp, #24]
	.loc	7 977 21 is_stmt 0              @ ../Library/STM32F4xx_HAL_Driver/Src/stm32f4xx_hal_spi.c:977:21
	str	r0, [r1, #48]
	.loc	7 978 3 is_stmt 1               @ ../Library/STM32F4xx_HAL_Driver/Src/stm32f4xx_hal_spi.c:978:3
	ldr	r1, [sp, #24]
	.loc	7 978 21 is_stmt 0              @ ../Library/STM32F4xx_HAL_Driver/Src/stm32f4xx_hal_spi.c:978:21
	strh	r0, [r1, #52]
	.loc	7 979 3 is_stmt 1               @ ../Library/STM32F4xx_HAL_Driver/Src/stm32f4xx_hal_spi.c:979:3
	ldr	r1, [sp, #24]
	.loc	7 979 21 is_stmt 0              @ ../Library/STM32F4xx_HAL_Driver/Src/stm32f4xx_hal_spi.c:979:21
	strh	r0, [r1, #54]
	.loc	7 980 3 is_stmt 1               @ ../Library/STM32F4xx_HAL_Driver/Src/stm32f4xx_hal_spi.c:980:3
	ldr	r1, [sp, #24]
	.loc	7 980 21 is_stmt 0              @ ../Library/STM32F4xx_HAL_Driver/Src/stm32f4xx_hal_spi.c:980:21
	str	r0, [r1, #64]
	.loc	7 981 3 is_stmt 1               @ ../Library/STM32F4xx_HAL_Driver/Src/stm32f4xx_hal_spi.c:981:3
	ldr	r1, [sp, #24]
	.loc	7 981 21 is_stmt 0              @ ../Library/STM32F4xx_HAL_Driver/Src/stm32f4xx_hal_spi.c:981:21
	str	r0, [r1, #68]
.Ltmp123:
	.loc	7 994 7 is_stmt 1               @ ../Library/STM32F4xx_HAL_Driver/Src/stm32f4xx_hal_spi.c:994:7
	ldr	r0, [sp, #24]
	.loc	7 994 18 is_stmt 0              @ ../Library/STM32F4xx_HAL_Driver/Src/stm32f4xx_hal_spi.c:994:18
	ldr	r0, [r0, #8]
.Ltmp124:
	.loc	7 994 7                         @ ../Library/STM32F4xx_HAL_Driver/Src/stm32f4xx_hal_spi.c:994:7
	cmp.w	r0, #32768
	bne	.LBB6_15
	b	.LBB6_14
.LBB6_14:
.Ltmp125:
	.loc	7 997 5 is_stmt 1               @ ../Library/STM32F4xx_HAL_Driver/Src/stm32f4xx_hal_spi.c:997:5
	ldr	r0, [sp, #24]
	ldr	r1, [r0]
	ldr	r0, [r1]
	bic	r0, r0, #64
	str	r0, [r1]
	.loc	7 998 5                         @ ../Library/STM32F4xx_HAL_Driver/Src/stm32f4xx_hal_spi.c:998:5
	ldr	r0, [sp, #24]
	ldr	r1, [r0]
	ldr	r0, [r1]
	bic	r0, r0, #16384
	str	r0, [r1]
	.loc	7 999 3                         @ ../Library/STM32F4xx_HAL_Driver/Src/stm32f4xx_hal_spi.c:999:3
	b	.LBB6_15
.Ltmp126:
.LBB6_15:
	.loc	7 1002 8                        @ ../Library/STM32F4xx_HAL_Driver/Src/stm32f4xx_hal_spi.c:1002:8
	ldr	r0, [sp, #24]
	.loc	7 1002 14 is_stmt 0             @ ../Library/STM32F4xx_HAL_Driver/Src/stm32f4xx_hal_spi.c:1002:14
	ldr	r0, [r0]
	.loc	7 1002 24                       @ ../Library/STM32F4xx_HAL_Driver/Src/stm32f4xx_hal_spi.c:1002:24
	ldr	r0, [r0]
	.loc	7 1002 28                       @ ../Library/STM32F4xx_HAL_Driver/Src/stm32f4xx_hal_spi.c:1002:28
	and	r0, r0, #64
.Ltmp127:
	.loc	7 1002 7                        @ ../Library/STM32F4xx_HAL_Driver/Src/stm32f4xx_hal_spi.c:1002:7
	cmp	r0, #64
	beq	.LBB6_17
	b	.LBB6_16
.LBB6_16:
.Ltmp128:
	.loc	7 1005 5 is_stmt 1              @ ../Library/STM32F4xx_HAL_Driver/Src/stm32f4xx_hal_spi.c:1005:5
	ldr	r0, [sp, #24]
	ldr	r1, [r0]
	ldr	r0, [r1]
	orr	r0, r0, #64
	str	r0, [r1]
	.loc	7 1006 3                        @ ../Library/STM32F4xx_HAL_Driver/Src/stm32f4xx_hal_spi.c:1006:3
	b	.LBB6_17
.Ltmp129:
.LBB6_17:
	.loc	7 1009 7                        @ ../Library/STM32F4xx_HAL_Driver/Src/stm32f4xx_hal_spi.c:1009:7
	ldr	r0, [sp, #24]
	.loc	7 1009 18 is_stmt 0             @ ../Library/STM32F4xx_HAL_Driver/Src/stm32f4xx_hal_spi.c:1009:18
	ldr	r0, [r0, #12]
.Ltmp130:
	.loc	7 1009 7                        @ ../Library/STM32F4xx_HAL_Driver/Src/stm32f4xx_hal_spi.c:1009:7
	cbnz	r0, .LBB6_29
	b	.LBB6_18
.LBB6_18:
.Ltmp131:
	.loc	7 1012 5 is_stmt 1              @ ../Library/STM32F4xx_HAL_Driver/Src/stm32f4xx_hal_spi.c:1012:5
	b	.LBB6_19
.LBB6_19:                               @ =>This Inner Loop Header: Depth=1
	.loc	7 1012 12 is_stmt 0             @ ../Library/STM32F4xx_HAL_Driver/Src/stm32f4xx_hal_spi.c:1012:12
	ldr	r0, [sp, #24]
	.loc	7 1012 18                       @ ../Library/STM32F4xx_HAL_Driver/Src/stm32f4xx_hal_spi.c:1012:18
	ldrh	r0, [r0, #62]
	.loc	7 1012 5                        @ ../Library/STM32F4xx_HAL_Driver/Src/stm32f4xx_hal_spi.c:1012:5
	cbz	r0, .LBB6_28
	b	.LBB6_20
.LBB6_20:                               @   in Loop: Header=BB6_19 Depth=1
.Ltmp132:
	.loc	7 1015 11 is_stmt 1             @ ../Library/STM32F4xx_HAL_Driver/Src/stm32f4xx_hal_spi.c:1015:11
	ldr	r0, [sp, #24]
	ldr	r0, [r0]
	ldr	r0, [r0, #8]
.Ltmp133:
	.loc	7 1015 11 is_stmt 0             @ ../Library/STM32F4xx_HAL_Driver/Src/stm32f4xx_hal_spi.c:1015:11
	lsls	r0, r0, #31
	cbz	r0, .LBB6_22
	b	.LBB6_21
.LBB6_21:                               @   in Loop: Header=BB6_19 Depth=1
.Ltmp134:
	.loc	7 1018 61 is_stmt 1             @ ../Library/STM32F4xx_HAL_Driver/Src/stm32f4xx_hal_spi.c:1018:61
	ldr	r0, [sp, #24]
	.loc	7 1018 67 is_stmt 0             @ ../Library/STM32F4xx_HAL_Driver/Src/stm32f4xx_hal_spi.c:1018:67
	ldr	r0, [r0]
	.loc	7 1018 43                       @ ../Library/STM32F4xx_HAL_Driver/Src/stm32f4xx_hal_spi.c:1018:43
	ldrb	r0, [r0, #12]
	.loc	7 1018 23                       @ ../Library/STM32F4xx_HAL_Driver/Src/stm32f4xx_hal_spi.c:1018:23
	ldr	r1, [sp, #24]
	.loc	7 1018 29                       @ ../Library/STM32F4xx_HAL_Driver/Src/stm32f4xx_hal_spi.c:1018:29
	ldr	r1, [r1, #56]
	.loc	7 1018 41                       @ ../Library/STM32F4xx_HAL_Driver/Src/stm32f4xx_hal_spi.c:1018:41
	strb	r0, [r1]
	.loc	7 1019 9 is_stmt 1              @ ../Library/STM32F4xx_HAL_Driver/Src/stm32f4xx_hal_spi.c:1019:9
	ldr	r1, [sp, #24]
	.loc	7 1019 26 is_stmt 0             @ ../Library/STM32F4xx_HAL_Driver/Src/stm32f4xx_hal_spi.c:1019:26
	ldr	r0, [r1, #56]
	adds	r0, #1
	str	r0, [r1, #56]
	.loc	7 1020 9 is_stmt 1              @ ../Library/STM32F4xx_HAL_Driver/Src/stm32f4xx_hal_spi.c:1020:9
	ldr	r1, [sp, #24]
	.loc	7 1020 26 is_stmt 0             @ ../Library/STM32F4xx_HAL_Driver/Src/stm32f4xx_hal_spi.c:1020:26
	ldrh	r0, [r1, #62]
	subs	r0, #1
	strh	r0, [r1, #62]
	.loc	7 1021 7 is_stmt 1              @ ../Library/STM32F4xx_HAL_Driver/Src/stm32f4xx_hal_spi.c:1021:7
	b	.LBB6_27
.Ltmp135:
.LBB6_22:                               @   in Loop: Header=BB6_19 Depth=1
	.loc	7 1025 16                       @ ../Library/STM32F4xx_HAL_Driver/Src/stm32f4xx_hal_spi.c:1025:16
	bl	HAL_GetTick
	.loc	7 1025 32 is_stmt 0             @ ../Library/STM32F4xx_HAL_Driver/Src/stm32f4xx_hal_spi.c:1025:32
	ldr	r1, [sp, #8]
	.loc	7 1025 30                       @ ../Library/STM32F4xx_HAL_Driver/Src/stm32f4xx_hal_spi.c:1025:30
	subs	r0, r0, r1
	.loc	7 1025 47                       @ ../Library/STM32F4xx_HAL_Driver/Src/stm32f4xx_hal_spi.c:1025:47
	ldr	r1, [sp, #12]
	.loc	7 1025 56                       @ ../Library/STM32F4xx_HAL_Driver/Src/stm32f4xx_hal_spi.c:1025:56
	cmp	r0, r1
	blo	.LBB6_24
	b	.LBB6_23
.LBB6_23:                               @   in Loop: Header=BB6_19 Depth=1
	.loc	7 1025 60                       @ ../Library/STM32F4xx_HAL_Driver/Src/stm32f4xx_hal_spi.c:1025:60
	ldr	r0, [sp, #12]
	.loc	7 1025 87                       @ ../Library/STM32F4xx_HAL_Driver/Src/stm32f4xx_hal_spi.c:1025:87
	adds	r0, #1
	cbnz	r0, .LBB6_25
	b	.LBB6_24
.LBB6_24:                               @   in Loop: Header=BB6_19 Depth=1
	.loc	7 1025 91                       @ ../Library/STM32F4xx_HAL_Driver/Src/stm32f4xx_hal_spi.c:1025:91
	ldr	r0, [sp, #12]
.Ltmp136:
	.loc	7 1025 13                       @ ../Library/STM32F4xx_HAL_Driver/Src/stm32f4xx_hal_spi.c:1025:13
	cbnz	r0, .LBB6_26
	b	.LBB6_25
.LBB6_25:
	.loc	7 0 13                          @ ../Library/STM32F4xx_HAL_Driver/Src/stm32f4xx_hal_spi.c:0:13
	movs	r0, #3
.Ltmp137:
	.loc	7 1027 21 is_stmt 1             @ ../Library/STM32F4xx_HAL_Driver/Src/stm32f4xx_hal_spi.c:1027:21
	strb.w	r0, [sp, #7]
	.loc	7 1028 11                       @ ../Library/STM32F4xx_HAL_Driver/Src/stm32f4xx_hal_spi.c:1028:11
	b	.LBB6_45
.Ltmp138:
.LBB6_26:                               @   in Loop: Header=BB6_19 Depth=1
	.loc	7 0 11 is_stmt 0                @ ../Library/STM32F4xx_HAL_Driver/Src/stm32f4xx_hal_spi.c:0:11
	b	.LBB6_27
.LBB6_27:                               @   in Loop: Header=BB6_19 Depth=1
	.loc	7 1012 5 is_stmt 1              @ ../Library/STM32F4xx_HAL_Driver/Src/stm32f4xx_hal_spi.c:1012:5
	b	.LBB6_19
.LBB6_28:
	.loc	7 1032 3                        @ ../Library/STM32F4xx_HAL_Driver/Src/stm32f4xx_hal_spi.c:1032:3
	b	.LBB6_40
.Ltmp139:
.LBB6_29:
	.loc	7 1036 5                        @ ../Library/STM32F4xx_HAL_Driver/Src/stm32f4xx_hal_spi.c:1036:5
	b	.LBB6_30
.LBB6_30:                               @ =>This Inner Loop Header: Depth=1
	.loc	7 1036 12 is_stmt 0             @ ../Library/STM32F4xx_HAL_Driver/Src/stm32f4xx_hal_spi.c:1036:12
	ldr	r0, [sp, #24]
	.loc	7 1036 18                       @ ../Library/STM32F4xx_HAL_Driver/Src/stm32f4xx_hal_spi.c:1036:18
	ldrh	r0, [r0, #62]
	.loc	7 1036 5                        @ ../Library/STM32F4xx_HAL_Driver/Src/stm32f4xx_hal_spi.c:1036:5
	cbz	r0, .LBB6_39
	b	.LBB6_31
.LBB6_31:                               @   in Loop: Header=BB6_30 Depth=1
.Ltmp140:
	.loc	7 1039 11 is_stmt 1             @ ../Library/STM32F4xx_HAL_Driver/Src/stm32f4xx_hal_spi.c:1039:11
	ldr	r0, [sp, #24]
	ldr	r0, [r0]
	ldr	r0, [r0, #8]
.Ltmp141:
	.loc	7 1039 11 is_stmt 0             @ ../Library/STM32F4xx_HAL_Driver/Src/stm32f4xx_hal_spi.c:1039:11
	lsls	r0, r0, #31
	cbz	r0, .LBB6_33
	b	.LBB6_32
.LBB6_32:                               @   in Loop: Header=BB6_30 Depth=1
.Ltmp142:
	.loc	7 1041 53 is_stmt 1             @ ../Library/STM32F4xx_HAL_Driver/Src/stm32f4xx_hal_spi.c:1041:53
	ldr	r0, [sp, #24]
	.loc	7 1041 59 is_stmt 0             @ ../Library/STM32F4xx_HAL_Driver/Src/stm32f4xx_hal_spi.c:1041:59
	ldr	r0, [r0]
	.loc	7 1041 69                       @ ../Library/STM32F4xx_HAL_Driver/Src/stm32f4xx_hal_spi.c:1041:69
	ldr	r0, [r0, #12]
	.loc	7 1041 23                       @ ../Library/STM32F4xx_HAL_Driver/Src/stm32f4xx_hal_spi.c:1041:23
	ldr	r1, [sp, #24]
	.loc	7 1041 29                       @ ../Library/STM32F4xx_HAL_Driver/Src/stm32f4xx_hal_spi.c:1041:29
	ldr	r1, [r1, #56]
	.loc	7 1041 41                       @ ../Library/STM32F4xx_HAL_Driver/Src/stm32f4xx_hal_spi.c:1041:41
	strh	r0, [r1]
	.loc	7 1042 9 is_stmt 1              @ ../Library/STM32F4xx_HAL_Driver/Src/stm32f4xx_hal_spi.c:1042:9
	ldr	r1, [sp, #24]
	.loc	7 1042 26 is_stmt 0             @ ../Library/STM32F4xx_HAL_Driver/Src/stm32f4xx_hal_spi.c:1042:26
	ldr	r0, [r1, #56]
	adds	r0, #2
	str	r0, [r1, #56]
	.loc	7 1043 9 is_stmt 1              @ ../Library/STM32F4xx_HAL_Driver/Src/stm32f4xx_hal_spi.c:1043:9
	ldr	r1, [sp, #24]
	.loc	7 1043 26 is_stmt 0             @ ../Library/STM32F4xx_HAL_Driver/Src/stm32f4xx_hal_spi.c:1043:26
	ldrh	r0, [r1, #62]
	subs	r0, #1
	strh	r0, [r1, #62]
	.loc	7 1044 7 is_stmt 1              @ ../Library/STM32F4xx_HAL_Driver/Src/stm32f4xx_hal_spi.c:1044:7
	b	.LBB6_38
.Ltmp143:
.LBB6_33:                               @   in Loop: Header=BB6_30 Depth=1
	.loc	7 1048 16                       @ ../Library/STM32F4xx_HAL_Driver/Src/stm32f4xx_hal_spi.c:1048:16
	bl	HAL_GetTick
	.loc	7 1048 32 is_stmt 0             @ ../Library/STM32F4xx_HAL_Driver/Src/stm32f4xx_hal_spi.c:1048:32
	ldr	r1, [sp, #8]
	.loc	7 1048 30                       @ ../Library/STM32F4xx_HAL_Driver/Src/stm32f4xx_hal_spi.c:1048:30
	subs	r0, r0, r1
	.loc	7 1048 47                       @ ../Library/STM32F4xx_HAL_Driver/Src/stm32f4xx_hal_spi.c:1048:47
	ldr	r1, [sp, #12]
	.loc	7 1048 56                       @ ../Library/STM32F4xx_HAL_Driver/Src/stm32f4xx_hal_spi.c:1048:56
	cmp	r0, r1
	blo	.LBB6_35
	b	.LBB6_34
.LBB6_34:                               @   in Loop: Header=BB6_30 Depth=1
	.loc	7 1048 60                       @ ../Library/STM32F4xx_HAL_Driver/Src/stm32f4xx_hal_spi.c:1048:60
	ldr	r0, [sp, #12]
	.loc	7 1048 87                       @ ../Library/STM32F4xx_HAL_Driver/Src/stm32f4xx_hal_spi.c:1048:87
	adds	r0, #1
	cbnz	r0, .LBB6_36
	b	.LBB6_35
.LBB6_35:                               @   in Loop: Header=BB6_30 Depth=1
	.loc	7 1048 91                       @ ../Library/STM32F4xx_HAL_Driver/Src/stm32f4xx_hal_spi.c:1048:91
	ldr	r0, [sp, #12]
.Ltmp144:
	.loc	7 1048 13                       @ ../Library/STM32F4xx_HAL_Driver/Src/stm32f4xx_hal_spi.c:1048:13
	cbnz	r0, .LBB6_37
	b	.LBB6_36
.LBB6_36:
	.loc	7 0 13                          @ ../Library/STM32F4xx_HAL_Driver/Src/stm32f4xx_hal_spi.c:0:13
	movs	r0, #3
.Ltmp145:
	.loc	7 1050 21 is_stmt 1             @ ../Library/STM32F4xx_HAL_Driver/Src/stm32f4xx_hal_spi.c:1050:21
	strb.w	r0, [sp, #7]
	.loc	7 1051 11                       @ ../Library/STM32F4xx_HAL_Driver/Src/stm32f4xx_hal_spi.c:1051:11
	b	.LBB6_45
.Ltmp146:
.LBB6_37:                               @   in Loop: Header=BB6_30 Depth=1
	.loc	7 0 11 is_stmt 0                @ ../Library/STM32F4xx_HAL_Driver/Src/stm32f4xx_hal_spi.c:0:11
	b	.LBB6_38
.LBB6_38:                               @   in Loop: Header=BB6_30 Depth=1
	.loc	7 1036 5 is_stmt 1              @ ../Library/STM32F4xx_HAL_Driver/Src/stm32f4xx_hal_spi.c:1036:5
	b	.LBB6_30
.Ltmp147:
.LBB6_39:
	.loc	7 0 5 is_stmt 0                 @ ../Library/STM32F4xx_HAL_Driver/Src/stm32f4xx_hal_spi.c:0:5
	b	.LBB6_40
.LBB6_40:
.Ltmp148:
	.loc	7 1099 28 is_stmt 1             @ ../Library/STM32F4xx_HAL_Driver/Src/stm32f4xx_hal_spi.c:1099:28
	ldr	r0, [sp, #24]
	.loc	7 1099 34 is_stmt 0             @ ../Library/STM32F4xx_HAL_Driver/Src/stm32f4xx_hal_spi.c:1099:34
	ldr	r1, [sp, #12]
	.loc	7 1099 43                       @ ../Library/STM32F4xx_HAL_Driver/Src/stm32f4xx_hal_spi.c:1099:43
	ldr	r2, [sp, #8]
	.loc	7 1099 7                        @ ../Library/STM32F4xx_HAL_Driver/Src/stm32f4xx_hal_spi.c:1099:7
	bl	SPI_EndRxTransaction
.Ltmp149:
	.loc	7 1099 7                        @ ../Library/STM32F4xx_HAL_Driver/Src/stm32f4xx_hal_spi.c:1099:7
	cbz	r0, .LBB6_42
	b	.LBB6_41
.LBB6_41:
.Ltmp150:
	.loc	7 1101 5 is_stmt 1              @ ../Library/STM32F4xx_HAL_Driver/Src/stm32f4xx_hal_spi.c:1101:5
	ldr	r1, [sp, #24]
	movs	r0, #32
	.loc	7 1101 21 is_stmt 0             @ ../Library/STM32F4xx_HAL_Driver/Src/stm32f4xx_hal_spi.c:1101:21
	str	r0, [r1, #84]
	.loc	7 1102 3 is_stmt 1              @ ../Library/STM32F4xx_HAL_Driver/Src/stm32f4xx_hal_spi.c:1102:3
	b	.LBB6_42
.Ltmp151:
.LBB6_42:
	.loc	7 1113 7                        @ ../Library/STM32F4xx_HAL_Driver/Src/stm32f4xx_hal_spi.c:1113:7
	ldr	r0, [sp, #24]
	.loc	7 1113 13 is_stmt 0             @ ../Library/STM32F4xx_HAL_Driver/Src/stm32f4xx_hal_spi.c:1113:13
	ldr	r0, [r0, #84]
.Ltmp152:
	.loc	7 1113 7                        @ ../Library/STM32F4xx_HAL_Driver/Src/stm32f4xx_hal_spi.c:1113:7
	cbz	r0, .LBB6_44
	b	.LBB6_43
.LBB6_43:
	.loc	7 0 7                           @ ../Library/STM32F4xx_HAL_Driver/Src/stm32f4xx_hal_spi.c:0:7
	movs	r0, #1
.Ltmp153:
	.loc	7 1115 15 is_stmt 1             @ ../Library/STM32F4xx_HAL_Driver/Src/stm32f4xx_hal_spi.c:1115:15
	strb.w	r0, [sp, #7]
	.loc	7 1116 3                        @ ../Library/STM32F4xx_HAL_Driver/Src/stm32f4xx_hal_spi.c:1116:3
	b	.LBB6_44
.Ltmp154:
.LBB6_44:
	.loc	7 1113 26                       @ ../Library/STM32F4xx_HAL_Driver/Src/stm32f4xx_hal_spi.c:1113:26
	b	.LBB6_45
.Ltmp155:
.LBB6_45:
	@DEBUG_LABEL: HAL_SPI_Receive:error
	.loc	7 1119 3                        @ ../Library/STM32F4xx_HAL_Driver/Src/stm32f4xx_hal_spi.c:1119:3
	ldr	r1, [sp, #24]
	movs	r0, #1
	.loc	7 1119 15 is_stmt 0             @ ../Library/STM32F4xx_HAL_Driver/Src/stm32f4xx_hal_spi.c:1119:15
	strb.w	r0, [r1, #81]
	.loc	7 1120 3 is_stmt 1              @ ../Library/STM32F4xx_HAL_Driver/Src/stm32f4xx_hal_spi.c:1120:3
	b	.LBB6_46
.LBB6_46:
.Ltmp156:
	.loc	7 1120 3 is_stmt 0              @ ../Library/STM32F4xx_HAL_Driver/Src/stm32f4xx_hal_spi.c:1120:3
	ldr	r1, [sp, #24]
	movs	r0, #0
	strb.w	r0, [r1, #80]
	b	.LBB6_47
.Ltmp157:
.LBB6_47:
	.loc	7 1121 10 is_stmt 1             @ ../Library/STM32F4xx_HAL_Driver/Src/stm32f4xx_hal_spi.c:1121:10
	ldrb.w	r0, [sp, #7]
	.loc	7 1121 3 is_stmt 0              @ ../Library/STM32F4xx_HAL_Driver/Src/stm32f4xx_hal_spi.c:1121:3
	strb.w	r0, [sp, #31]
	b	.LBB6_48
.LBB6_48:
	.loc	7 1122 1 is_stmt 1              @ ../Library/STM32F4xx_HAL_Driver/Src/stm32f4xx_hal_spi.c:1122:1
	ldrb.w	r0, [sp, #31]
	add	sp, #32
	pop	{r7, pc}
.Ltmp158:
.Lfunc_end6:
	.size	HAL_SPI_Receive, .Lfunc_end6-HAL_SPI_Receive
	.cfi_endproc
	.cantunwind
	.fnend
                                        @ -- End function
	.section	.text.HAL_SPI_TransmitReceive,"ax",%progbits
	.hidden	HAL_SPI_TransmitReceive         @ -- Begin function HAL_SPI_TransmitReceive
	.globl	HAL_SPI_TransmitReceive
	.p2align	2
	.type	HAL_SPI_TransmitReceive,%function
	.code	16                              @ @HAL_SPI_TransmitReceive
	.thumb_func
HAL_SPI_TransmitReceive:
.Lfunc_begin7:
	.loc	7 1136 0                        @ ../Library/STM32F4xx_HAL_Driver/Src/stm32f4xx_hal_spi.c:1136:0
	.fnstart
	.cfi_startproc
@ %bb.0:
	.save	{r7, lr}
	push	{r7, lr}
	.cfi_def_cfa_offset 8
	.cfi_offset lr, -4
	.cfi_offset r7, -8
	.pad	#56
	sub	sp, #56
	.cfi_def_cfa_offset 64
	ldr.w	r12, [sp, #64]
                                        @ kill: def $r12 killed $r3
	str	r0, [sp, #48]
	str	r1, [sp, #44]
	str	r2, [sp, #40]
	strh.w	r3, [sp, #38]
	movs	r0, #1
.Ltmp159:
	.loc	7 1146 24 prologue_end          @ ../Library/STM32F4xx_HAL_Driver/Src/stm32f4xx_hal_spi.c:1146:24
	str	r0, [sp, #20]
	movs	r0, #0
	.loc	7 1147 24                       @ ../Library/STM32F4xx_HAL_Driver/Src/stm32f4xx_hal_spi.c:1147:24
	strb.w	r0, [sp, #19]
	.loc	7 1153 3                        @ ../Library/STM32F4xx_HAL_Driver/Src/stm32f4xx_hal_spi.c:1153:3
	b	.LBB7_1
.LBB7_1:
.Ltmp160:
	.loc	7 1153 3 is_stmt 0              @ ../Library/STM32F4xx_HAL_Driver/Src/stm32f4xx_hal_spi.c:1153:3
	ldr	r0, [sp, #48]
	ldrb.w	r0, [r0, #80]
.Ltmp161:
	.loc	7 1153 3                        @ ../Library/STM32F4xx_HAL_Driver/Src/stm32f4xx_hal_spi.c:1153:3
	cmp	r0, #1
	bne	.LBB7_3
	b	.LBB7_2
.LBB7_2:
	.loc	7 0 3                           @ ../Library/STM32F4xx_HAL_Driver/Src/stm32f4xx_hal_spi.c:0:3
	movs	r0, #2
.Ltmp162:
	.loc	7 1153 3                        @ ../Library/STM32F4xx_HAL_Driver/Src/stm32f4xx_hal_spi.c:1153:3
	strb.w	r0, [sp, #55]
	b	.LBB7_68
.Ltmp163:
.LBB7_3:
	.loc	7 1153 3                        @ ../Library/STM32F4xx_HAL_Driver/Src/stm32f4xx_hal_spi.c:1153:3
	ldr	r1, [sp, #48]
	movs	r0, #1
	strb.w	r0, [r1, #80]
	b	.LBB7_4
.Ltmp164:
.LBB7_4:
	.loc	7 1153 3                        @ ../Library/STM32F4xx_HAL_Driver/Src/stm32f4xx_hal_spi.c:1153:3
	b	.LBB7_5
.Ltmp165:
.LBB7_5:
	.loc	7 1156 15 is_stmt 1             @ ../Library/STM32F4xx_HAL_Driver/Src/stm32f4xx_hal_spi.c:1156:15
	bl	HAL_GetTick
	.loc	7 1156 13 is_stmt 0             @ ../Library/STM32F4xx_HAL_Driver/Src/stm32f4xx_hal_spi.c:1156:13
	str	r0, [sp, #24]
	.loc	7 1159 25 is_stmt 1             @ ../Library/STM32F4xx_HAL_Driver/Src/stm32f4xx_hal_spi.c:1159:25
	ldr	r0, [sp, #48]
	.loc	7 1159 31 is_stmt 0             @ ../Library/STM32F4xx_HAL_Driver/Src/stm32f4xx_hal_spi.c:1159:31
	ldrb.w	r0, [r0, #81]
	.loc	7 1159 23                       @ ../Library/STM32F4xx_HAL_Driver/Src/stm32f4xx_hal_spi.c:1159:23
	strb.w	r0, [sp, #31]
	.loc	7 1160 25 is_stmt 1             @ ../Library/STM32F4xx_HAL_Driver/Src/stm32f4xx_hal_spi.c:1160:25
	ldr	r0, [sp, #48]
	.loc	7 1160 36 is_stmt 0             @ ../Library/STM32F4xx_HAL_Driver/Src/stm32f4xx_hal_spi.c:1160:36
	ldr	r0, [r0, #4]
	.loc	7 1160 23                       @ ../Library/STM32F4xx_HAL_Driver/Src/stm32f4xx_hal_spi.c:1160:23
	str	r0, [sp, #32]
	.loc	7 1161 25 is_stmt 1             @ ../Library/STM32F4xx_HAL_Driver/Src/stm32f4xx_hal_spi.c:1161:25
	ldrh.w	r0, [sp, #38]
	.loc	7 1161 23 is_stmt 0             @ ../Library/STM32F4xx_HAL_Driver/Src/stm32f4xx_hal_spi.c:1161:23
	strh.w	r0, [sp, #36]
.Ltmp166:
	.loc	7 1163 10 is_stmt 1             @ ../Library/STM32F4xx_HAL_Driver/Src/stm32f4xx_hal_spi.c:1163:10
	ldrb.w	r0, [sp, #31]
	.loc	7 1163 44 is_stmt 0             @ ../Library/STM32F4xx_HAL_Driver/Src/stm32f4xx_hal_spi.c:1163:44
	cmp	r0, #1
	beq	.LBB7_10
	b	.LBB7_6
.LBB7_6:
	.loc	7 1164 11 is_stmt 1             @ ../Library/STM32F4xx_HAL_Driver/Src/stm32f4xx_hal_spi.c:1164:11
	ldr	r0, [sp, #32]
	.loc	7 1164 40 is_stmt 0             @ ../Library/STM32F4xx_HAL_Driver/Src/stm32f4xx_hal_spi.c:1164:40
	cmp.w	r0, #260
	bne	.LBB7_9
	b	.LBB7_7
.LBB7_7:
	.loc	7 1164 44                       @ ../Library/STM32F4xx_HAL_Driver/Src/stm32f4xx_hal_spi.c:1164:44
	ldr	r0, [sp, #48]
	.loc	7 1164 55                       @ ../Library/STM32F4xx_HAL_Driver/Src/stm32f4xx_hal_spi.c:1164:55
	ldr	r0, [r0, #8]
	.loc	7 1164 90                       @ ../Library/STM32F4xx_HAL_Driver/Src/stm32f4xx_hal_spi.c:1164:90
	cbnz	r0, .LBB7_9
	b	.LBB7_8
.LBB7_8:
	.loc	7 1164 94                       @ ../Library/STM32F4xx_HAL_Driver/Src/stm32f4xx_hal_spi.c:1164:94
	ldrb.w	r0, [sp, #31]
.Ltmp167:
	.loc	7 1163 7 is_stmt 1              @ ../Library/STM32F4xx_HAL_Driver/Src/stm32f4xx_hal_spi.c:1163:7
	cmp	r0, #4
	beq	.LBB7_10
	b	.LBB7_9
.LBB7_9:
	.loc	7 0 7 is_stmt 0                 @ ../Library/STM32F4xx_HAL_Driver/Src/stm32f4xx_hal_spi.c:0:7
	movs	r0, #2
.Ltmp168:
	.loc	7 1166 15 is_stmt 1             @ ../Library/STM32F4xx_HAL_Driver/Src/stm32f4xx_hal_spi.c:1166:15
	strb.w	r0, [sp, #19]
	.loc	7 1167 5                        @ ../Library/STM32F4xx_HAL_Driver/Src/stm32f4xx_hal_spi.c:1167:5
	b	.LBB7_65
.Ltmp169:
.LBB7_10:
	.loc	7 1170 8                        @ ../Library/STM32F4xx_HAL_Driver/Src/stm32f4xx_hal_spi.c:1170:8
	ldr	r0, [sp, #44]
	.loc	7 1170 25 is_stmt 0             @ ../Library/STM32F4xx_HAL_Driver/Src/stm32f4xx_hal_spi.c:1170:25
	cbz	r0, .LBB7_13
	b	.LBB7_11
.LBB7_11:
	.loc	7 1170 29                       @ ../Library/STM32F4xx_HAL_Driver/Src/stm32f4xx_hal_spi.c:1170:29
	ldr	r0, [sp, #40]
	.loc	7 1170 46                       @ ../Library/STM32F4xx_HAL_Driver/Src/stm32f4xx_hal_spi.c:1170:46
	cbz	r0, .LBB7_13
	b	.LBB7_12
.LBB7_12:
	.loc	7 1170 50                       @ ../Library/STM32F4xx_HAL_Driver/Src/stm32f4xx_hal_spi.c:1170:50
	ldrh.w	r0, [sp, #38]
.Ltmp170:
	.loc	7 1170 7                        @ ../Library/STM32F4xx_HAL_Driver/Src/stm32f4xx_hal_spi.c:1170:7
	cbnz	r0, .LBB7_14
	b	.LBB7_13
.LBB7_13:
	.loc	7 0 7                           @ ../Library/STM32F4xx_HAL_Driver/Src/stm32f4xx_hal_spi.c:0:7
	movs	r0, #1
.Ltmp171:
	.loc	7 1172 15 is_stmt 1             @ ../Library/STM32F4xx_HAL_Driver/Src/stm32f4xx_hal_spi.c:1172:15
	strb.w	r0, [sp, #19]
	.loc	7 1173 5                        @ ../Library/STM32F4xx_HAL_Driver/Src/stm32f4xx_hal_spi.c:1173:5
	b	.LBB7_65
.Ltmp172:
.LBB7_14:
	.loc	7 1177 7                        @ ../Library/STM32F4xx_HAL_Driver/Src/stm32f4xx_hal_spi.c:1177:7
	ldr	r0, [sp, #48]
	.loc	7 1177 13 is_stmt 0             @ ../Library/STM32F4xx_HAL_Driver/Src/stm32f4xx_hal_spi.c:1177:13
	ldrb.w	r0, [r0, #81]
.Ltmp173:
	.loc	7 1177 7                        @ ../Library/STM32F4xx_HAL_Driver/Src/stm32f4xx_hal_spi.c:1177:7
	cmp	r0, #4
	beq	.LBB7_16
	b	.LBB7_15
.LBB7_15:
.Ltmp174:
	.loc	7 1179 5 is_stmt 1              @ ../Library/STM32F4xx_HAL_Driver/Src/stm32f4xx_hal_spi.c:1179:5
	ldr	r1, [sp, #48]
	movs	r0, #5
	.loc	7 1179 17 is_stmt 0             @ ../Library/STM32F4xx_HAL_Driver/Src/stm32f4xx_hal_spi.c:1179:17
	strb.w	r0, [r1, #81]
	.loc	7 1180 3 is_stmt 1              @ ../Library/STM32F4xx_HAL_Driver/Src/stm32f4xx_hal_spi.c:1180:3
	b	.LBB7_16
.Ltmp175:
.LBB7_16:
	.loc	7 1183 3                        @ ../Library/STM32F4xx_HAL_Driver/Src/stm32f4xx_hal_spi.c:1183:3
	ldr	r1, [sp, #48]
	movs	r0, #0
	.loc	7 1183 21 is_stmt 0             @ ../Library/STM32F4xx_HAL_Driver/Src/stm32f4xx_hal_spi.c:1183:21
	str	r0, [r1, #84]
	.loc	7 1184 34 is_stmt 1             @ ../Library/STM32F4xx_HAL_Driver/Src/stm32f4xx_hal_spi.c:1184:34
	ldr	r1, [sp, #40]
	.loc	7 1184 3 is_stmt 0              @ ../Library/STM32F4xx_HAL_Driver/Src/stm32f4xx_hal_spi.c:1184:3
	ldr	r2, [sp, #48]
	.loc	7 1184 21                       @ ../Library/STM32F4xx_HAL_Driver/Src/stm32f4xx_hal_spi.c:1184:21
	str	r1, [r2, #56]
	.loc	7 1185 23 is_stmt 1             @ ../Library/STM32F4xx_HAL_Driver/Src/stm32f4xx_hal_spi.c:1185:23
	ldrh.w	r1, [sp, #38]
	.loc	7 1185 3 is_stmt 0              @ ../Library/STM32F4xx_HAL_Driver/Src/stm32f4xx_hal_spi.c:1185:3
	ldr	r2, [sp, #48]
	.loc	7 1185 21                       @ ../Library/STM32F4xx_HAL_Driver/Src/stm32f4xx_hal_spi.c:1185:21
	strh	r1, [r2, #62]
	.loc	7 1186 23 is_stmt 1             @ ../Library/STM32F4xx_HAL_Driver/Src/stm32f4xx_hal_spi.c:1186:23
	ldrh.w	r1, [sp, #38]
	.loc	7 1186 3 is_stmt 0              @ ../Library/STM32F4xx_HAL_Driver/Src/stm32f4xx_hal_spi.c:1186:3
	ldr	r2, [sp, #48]
	.loc	7 1186 21                       @ ../Library/STM32F4xx_HAL_Driver/Src/stm32f4xx_hal_spi.c:1186:21
	strh	r1, [r2, #60]
	.loc	7 1187 34 is_stmt 1             @ ../Library/STM32F4xx_HAL_Driver/Src/stm32f4xx_hal_spi.c:1187:34
	ldr	r1, [sp, #44]
	.loc	7 1187 3 is_stmt 0              @ ../Library/STM32F4xx_HAL_Driver/Src/stm32f4xx_hal_spi.c:1187:3
	ldr	r2, [sp, #48]
	.loc	7 1187 21                       @ ../Library/STM32F4xx_HAL_Driver/Src/stm32f4xx_hal_spi.c:1187:21
	str	r1, [r2, #48]
	.loc	7 1188 23 is_stmt 1             @ ../Library/STM32F4xx_HAL_Driver/Src/stm32f4xx_hal_spi.c:1188:23
	ldrh.w	r1, [sp, #38]
	.loc	7 1188 3 is_stmt 0              @ ../Library/STM32F4xx_HAL_Driver/Src/stm32f4xx_hal_spi.c:1188:3
	ldr	r2, [sp, #48]
	.loc	7 1188 21                       @ ../Library/STM32F4xx_HAL_Driver/Src/stm32f4xx_hal_spi.c:1188:21
	strh	r1, [r2, #54]
	.loc	7 1189 23 is_stmt 1             @ ../Library/STM32F4xx_HAL_Driver/Src/stm32f4xx_hal_spi.c:1189:23
	ldrh.w	r1, [sp, #38]
	.loc	7 1189 3 is_stmt 0              @ ../Library/STM32F4xx_HAL_Driver/Src/stm32f4xx_hal_spi.c:1189:3
	ldr	r2, [sp, #48]
	.loc	7 1189 21                       @ ../Library/STM32F4xx_HAL_Driver/Src/stm32f4xx_hal_spi.c:1189:21
	strh	r1, [r2, #52]
	.loc	7 1192 3 is_stmt 1              @ ../Library/STM32F4xx_HAL_Driver/Src/stm32f4xx_hal_spi.c:1192:3
	ldr	r1, [sp, #48]
	.loc	7 1192 21 is_stmt 0             @ ../Library/STM32F4xx_HAL_Driver/Src/stm32f4xx_hal_spi.c:1192:21
	str	r0, [r1, #64]
	.loc	7 1193 3 is_stmt 1              @ ../Library/STM32F4xx_HAL_Driver/Src/stm32f4xx_hal_spi.c:1193:3
	ldr	r1, [sp, #48]
	.loc	7 1193 21 is_stmt 0             @ ../Library/STM32F4xx_HAL_Driver/Src/stm32f4xx_hal_spi.c:1193:21
	str	r0, [r1, #68]
.Ltmp176:
	.loc	7 1204 8 is_stmt 1              @ ../Library/STM32F4xx_HAL_Driver/Src/stm32f4xx_hal_spi.c:1204:8
	ldr	r0, [sp, #48]
	.loc	7 1204 14 is_stmt 0             @ ../Library/STM32F4xx_HAL_Driver/Src/stm32f4xx_hal_spi.c:1204:14
	ldr	r0, [r0]
	.loc	7 1204 24                       @ ../Library/STM32F4xx_HAL_Driver/Src/stm32f4xx_hal_spi.c:1204:24
	ldr	r0, [r0]
	.loc	7 1204 28                       @ ../Library/STM32F4xx_HAL_Driver/Src/stm32f4xx_hal_spi.c:1204:28
	and	r0, r0, #64
.Ltmp177:
	.loc	7 1204 7                        @ ../Library/STM32F4xx_HAL_Driver/Src/stm32f4xx_hal_spi.c:1204:7
	cmp	r0, #64
	beq	.LBB7_18
	b	.LBB7_17
.LBB7_17:
.Ltmp178:
	.loc	7 1207 5 is_stmt 1              @ ../Library/STM32F4xx_HAL_Driver/Src/stm32f4xx_hal_spi.c:1207:5
	ldr	r0, [sp, #48]
	ldr	r1, [r0]
	ldr	r0, [r1]
	orr	r0, r0, #64
	str	r0, [r1]
	.loc	7 1208 3                        @ ../Library/STM32F4xx_HAL_Driver/Src/stm32f4xx_hal_spi.c:1208:3
	b	.LBB7_18
.Ltmp179:
.LBB7_18:
	.loc	7 1211 7                        @ ../Library/STM32F4xx_HAL_Driver/Src/stm32f4xx_hal_spi.c:1211:7
	ldr	r0, [sp, #48]
	.loc	7 1211 18 is_stmt 0             @ ../Library/STM32F4xx_HAL_Driver/Src/stm32f4xx_hal_spi.c:1211:18
	ldr	r0, [r0, #12]
.Ltmp180:
	.loc	7 1211 7                        @ ../Library/STM32F4xx_HAL_Driver/Src/stm32f4xx_hal_spi.c:1211:7
	cmp.w	r0, #2048
	bne	.LBB7_38
	b	.LBB7_19
.LBB7_19:
.Ltmp181:
	.loc	7 1213 10 is_stmt 1             @ ../Library/STM32F4xx_HAL_Driver/Src/stm32f4xx_hal_spi.c:1213:10
	ldr	r0, [sp, #48]
	.loc	7 1213 21 is_stmt 0             @ ../Library/STM32F4xx_HAL_Driver/Src/stm32f4xx_hal_spi.c:1213:21
	ldr	r0, [r0, #4]
	.loc	7 1213 45                       @ ../Library/STM32F4xx_HAL_Driver/Src/stm32f4xx_hal_spi.c:1213:45
	cbz	r0, .LBB7_21
	b	.LBB7_20
.LBB7_20:
	.loc	7 1213 49                       @ ../Library/STM32F4xx_HAL_Driver/Src/stm32f4xx_hal_spi.c:1213:49
	ldrh.w	r0, [sp, #36]
.Ltmp182:
	.loc	7 1213 9                        @ ../Library/STM32F4xx_HAL_Driver/Src/stm32f4xx_hal_spi.c:1213:9
	cmp	r0, #1
	bne	.LBB7_22
	b	.LBB7_21
.LBB7_21:
.Ltmp183:
	.loc	7 1215 42 is_stmt 1             @ ../Library/STM32F4xx_HAL_Driver/Src/stm32f4xx_hal_spi.c:1215:42
	ldr	r0, [sp, #48]
	.loc	7 1215 13 is_stmt 0             @ ../Library/STM32F4xx_HAL_Driver/Src/stm32f4xx_hal_spi.c:1215:13
	ldr	r1, [r0]
	.loc	7 1215 48                       @ ../Library/STM32F4xx_HAL_Driver/Src/stm32f4xx_hal_spi.c:1215:48
	ldr	r0, [r0, #48]
	.loc	7 1215 28                       @ ../Library/STM32F4xx_HAL_Driver/Src/stm32f4xx_hal_spi.c:1215:28
	ldrh	r0, [r0]
	.loc	7 1215 26                       @ ../Library/STM32F4xx_HAL_Driver/Src/stm32f4xx_hal_spi.c:1215:26
	str	r0, [r1, #12]
	.loc	7 1216 7 is_stmt 1              @ ../Library/STM32F4xx_HAL_Driver/Src/stm32f4xx_hal_spi.c:1216:7
	ldr	r1, [sp, #48]
	.loc	7 1216 24 is_stmt 0             @ ../Library/STM32F4xx_HAL_Driver/Src/stm32f4xx_hal_spi.c:1216:24
	ldr	r0, [r1, #48]
	adds	r0, #2
	str	r0, [r1, #48]
	.loc	7 1217 7 is_stmt 1              @ ../Library/STM32F4xx_HAL_Driver/Src/stm32f4xx_hal_spi.c:1217:7
	ldr	r1, [sp, #48]
	.loc	7 1217 24 is_stmt 0             @ ../Library/STM32F4xx_HAL_Driver/Src/stm32f4xx_hal_spi.c:1217:24
	ldrh	r0, [r1, #54]
	subs	r0, #1
	strh	r0, [r1, #54]
	.loc	7 1218 5 is_stmt 1              @ ../Library/STM32F4xx_HAL_Driver/Src/stm32f4xx_hal_spi.c:1218:5
	b	.LBB7_22
.Ltmp184:
.LBB7_22:
	.loc	7 1219 5                        @ ../Library/STM32F4xx_HAL_Driver/Src/stm32f4xx_hal_spi.c:1219:5
	b	.LBB7_23
.LBB7_23:                               @ =>This Inner Loop Header: Depth=1
	.loc	7 1219 13 is_stmt 0             @ ../Library/STM32F4xx_HAL_Driver/Src/stm32f4xx_hal_spi.c:1219:13
	ldr	r0, [sp, #48]
	.loc	7 1219 19                       @ ../Library/STM32F4xx_HAL_Driver/Src/stm32f4xx_hal_spi.c:1219:19
	ldrh	r1, [r0, #54]
	movs	r0, #1
	.loc	7 1219 37                       @ ../Library/STM32F4xx_HAL_Driver/Src/stm32f4xx_hal_spi.c:1219:37
	str	r0, [sp, #8]                    @ 4-byte Spill
	cbnz	r1, .LBB7_25
	b	.LBB7_24
.LBB7_24:                               @   in Loop: Header=BB7_23 Depth=1
	.loc	7 1219 41                       @ ../Library/STM32F4xx_HAL_Driver/Src/stm32f4xx_hal_spi.c:1219:41
	ldr	r0, [sp, #48]
	.loc	7 1219 47                       @ ../Library/STM32F4xx_HAL_Driver/Src/stm32f4xx_hal_spi.c:1219:47
	ldrh	r0, [r0, #62]
	.loc	7 1219 59                       @ ../Library/STM32F4xx_HAL_Driver/Src/stm32f4xx_hal_spi.c:1219:59
	cmp	r0, #0
	it	ne
	movne	r0, #1
	.loc	7 1219 37                       @ ../Library/STM32F4xx_HAL_Driver/Src/stm32f4xx_hal_spi.c:1219:37
	str	r0, [sp, #8]                    @ 4-byte Spill
	b	.LBB7_25
.LBB7_25:                               @   in Loop: Header=BB7_23 Depth=1
	.loc	7 0 37                          @ ../Library/STM32F4xx_HAL_Driver/Src/stm32f4xx_hal_spi.c:0:37
	ldr	r0, [sp, #8]                    @ 4-byte Reload
	.loc	7 1219 5                        @ ../Library/STM32F4xx_HAL_Driver/Src/stm32f4xx_hal_spi.c:1219:5
	lsls	r0, r0, #31
	cmp	r0, #0
	beq	.LBB7_37
	b	.LBB7_26
.LBB7_26:                               @   in Loop: Header=BB7_23 Depth=1
.Ltmp185:
	.loc	7 1222 12 is_stmt 1             @ ../Library/STM32F4xx_HAL_Driver/Src/stm32f4xx_hal_spi.c:1222:12
	ldr	r0, [sp, #48]
	ldr	r0, [r0]
	ldr	r0, [r0, #8]
	.loc	7 1222 52 is_stmt 0             @ ../Library/STM32F4xx_HAL_Driver/Src/stm32f4xx_hal_spi.c:1222:52
	lsls	r0, r0, #30
	cmp	r0, #0
	bpl	.LBB7_30
	b	.LBB7_27
.LBB7_27:                               @   in Loop: Header=BB7_23 Depth=1
	.loc	7 1222 56                       @ ../Library/STM32F4xx_HAL_Driver/Src/stm32f4xx_hal_spi.c:1222:56
	ldr	r0, [sp, #48]
	.loc	7 1222 62                       @ ../Library/STM32F4xx_HAL_Driver/Src/stm32f4xx_hal_spi.c:1222:62
	ldrh	r0, [r0, #54]
	.loc	7 1222 80                       @ ../Library/STM32F4xx_HAL_Driver/Src/stm32f4xx_hal_spi.c:1222:80
	cbz	r0, .LBB7_30
	b	.LBB7_28
.LBB7_28:                               @   in Loop: Header=BB7_23 Depth=1
	.loc	7 1222 84                       @ ../Library/STM32F4xx_HAL_Driver/Src/stm32f4xx_hal_spi.c:1222:84
	ldr	r0, [sp, #20]
.Ltmp186:
	.loc	7 1222 11                       @ ../Library/STM32F4xx_HAL_Driver/Src/stm32f4xx_hal_spi.c:1222:11
	cmp	r0, #1
	bne	.LBB7_30
	b	.LBB7_29
.LBB7_29:                               @   in Loop: Header=BB7_23 Depth=1
.Ltmp187:
	.loc	7 1224 44 is_stmt 1             @ ../Library/STM32F4xx_HAL_Driver/Src/stm32f4xx_hal_spi.c:1224:44
	ldr	r0, [sp, #48]
	.loc	7 1224 15 is_stmt 0             @ ../Library/STM32F4xx_HAL_Driver/Src/stm32f4xx_hal_spi.c:1224:15
	ldr	r1, [r0]
	.loc	7 1224 50                       @ ../Library/STM32F4xx_HAL_Driver/Src/stm32f4xx_hal_spi.c:1224:50
	ldr	r0, [r0, #48]
	.loc	7 1224 30                       @ ../Library/STM32F4xx_HAL_Driver/Src/stm32f4xx_hal_spi.c:1224:30
	ldrh	r0, [r0]
	.loc	7 1224 28                       @ ../Library/STM32F4xx_HAL_Driver/Src/stm32f4xx_hal_spi.c:1224:28
	str	r0, [r1, #12]
	.loc	7 1225 9 is_stmt 1              @ ../Library/STM32F4xx_HAL_Driver/Src/stm32f4xx_hal_spi.c:1225:9
	ldr	r1, [sp, #48]
	.loc	7 1225 26 is_stmt 0             @ ../Library/STM32F4xx_HAL_Driver/Src/stm32f4xx_hal_spi.c:1225:26
	ldr	r0, [r1, #48]
	adds	r0, #2
	str	r0, [r1, #48]
	.loc	7 1226 9 is_stmt 1              @ ../Library/STM32F4xx_HAL_Driver/Src/stm32f4xx_hal_spi.c:1226:9
	ldr	r1, [sp, #48]
	.loc	7 1226 26 is_stmt 0             @ ../Library/STM32F4xx_HAL_Driver/Src/stm32f4xx_hal_spi.c:1226:26
	ldrh	r0, [r1, #54]
	subs	r0, #1
	strh	r0, [r1, #54]
	movs	r0, #0
	.loc	7 1228 19 is_stmt 1             @ ../Library/STM32F4xx_HAL_Driver/Src/stm32f4xx_hal_spi.c:1228:19
	str	r0, [sp, #20]
	.loc	7 1237 7                        @ ../Library/STM32F4xx_HAL_Driver/Src/stm32f4xx_hal_spi.c:1237:7
	b	.LBB7_30
.Ltmp188:
.LBB7_30:                               @   in Loop: Header=BB7_23 Depth=1
	.loc	7 1240 12                       @ ../Library/STM32F4xx_HAL_Driver/Src/stm32f4xx_hal_spi.c:1240:12
	ldr	r0, [sp, #48]
	ldr	r0, [r0]
	ldr	r0, [r0, #8]
	.loc	7 1240 53 is_stmt 0             @ ../Library/STM32F4xx_HAL_Driver/Src/stm32f4xx_hal_spi.c:1240:53
	lsls	r0, r0, #31
	cbz	r0, .LBB7_33
	b	.LBB7_31
.LBB7_31:                               @   in Loop: Header=BB7_23 Depth=1
	.loc	7 1240 57                       @ ../Library/STM32F4xx_HAL_Driver/Src/stm32f4xx_hal_spi.c:1240:57
	ldr	r0, [sp, #48]
	.loc	7 1240 63                       @ ../Library/STM32F4xx_HAL_Driver/Src/stm32f4xx_hal_spi.c:1240:63
	ldrh	r0, [r0, #62]
.Ltmp189:
	.loc	7 1240 11                       @ ../Library/STM32F4xx_HAL_Driver/Src/stm32f4xx_hal_spi.c:1240:11
	cbz	r0, .LBB7_33
	b	.LBB7_32
.LBB7_32:                               @   in Loop: Header=BB7_23 Depth=1
.Ltmp190:
	.loc	7 1242 53 is_stmt 1             @ ../Library/STM32F4xx_HAL_Driver/Src/stm32f4xx_hal_spi.c:1242:53
	ldr	r0, [sp, #48]
	.loc	7 1242 59 is_stmt 0             @ ../Library/STM32F4xx_HAL_Driver/Src/stm32f4xx_hal_spi.c:1242:59
	ldr	r0, [r0]
	.loc	7 1242 69                       @ ../Library/STM32F4xx_HAL_Driver/Src/stm32f4xx_hal_spi.c:1242:69
	ldr	r0, [r0, #12]
	.loc	7 1242 23                       @ ../Library/STM32F4xx_HAL_Driver/Src/stm32f4xx_hal_spi.c:1242:23
	ldr	r1, [sp, #48]
	.loc	7 1242 29                       @ ../Library/STM32F4xx_HAL_Driver/Src/stm32f4xx_hal_spi.c:1242:29
	ldr	r1, [r1, #56]
	.loc	7 1242 41                       @ ../Library/STM32F4xx_HAL_Driver/Src/stm32f4xx_hal_spi.c:1242:41
	strh	r0, [r1]
	.loc	7 1243 9 is_stmt 1              @ ../Library/STM32F4xx_HAL_Driver/Src/stm32f4xx_hal_spi.c:1243:9
	ldr	r1, [sp, #48]
	.loc	7 1243 26 is_stmt 0             @ ../Library/STM32F4xx_HAL_Driver/Src/stm32f4xx_hal_spi.c:1243:26
	ldr	r0, [r1, #56]
	adds	r0, #2
	str	r0, [r1, #56]
	.loc	7 1244 9 is_stmt 1              @ ../Library/STM32F4xx_HAL_Driver/Src/stm32f4xx_hal_spi.c:1244:9
	ldr	r1, [sp, #48]
	.loc	7 1244 26 is_stmt 0             @ ../Library/STM32F4xx_HAL_Driver/Src/stm32f4xx_hal_spi.c:1244:26
	ldrh	r0, [r1, #62]
	subs	r0, #1
	strh	r0, [r1, #62]
	movs	r0, #1
	.loc	7 1246 19 is_stmt 1             @ ../Library/STM32F4xx_HAL_Driver/Src/stm32f4xx_hal_spi.c:1246:19
	str	r0, [sp, #20]
	.loc	7 1247 7                        @ ../Library/STM32F4xx_HAL_Driver/Src/stm32f4xx_hal_spi.c:1247:7
	b	.LBB7_33
.Ltmp191:
.LBB7_33:                               @   in Loop: Header=BB7_23 Depth=1
	.loc	7 1248 13                       @ ../Library/STM32F4xx_HAL_Driver/Src/stm32f4xx_hal_spi.c:1248:13
	bl	HAL_GetTick
	.loc	7 1248 29 is_stmt 0             @ ../Library/STM32F4xx_HAL_Driver/Src/stm32f4xx_hal_spi.c:1248:29
	ldr	r1, [sp, #24]
	.loc	7 1248 27                       @ ../Library/STM32F4xx_HAL_Driver/Src/stm32f4xx_hal_spi.c:1248:27
	subs	r0, r0, r1
	.loc	7 1248 44                       @ ../Library/STM32F4xx_HAL_Driver/Src/stm32f4xx_hal_spi.c:1248:44
	ldr	r1, [sp, #64]
	.loc	7 1248 53                       @ ../Library/STM32F4xx_HAL_Driver/Src/stm32f4xx_hal_spi.c:1248:53
	cmp	r0, r1
	blo	.LBB7_36
	b	.LBB7_34
.LBB7_34:                               @   in Loop: Header=BB7_23 Depth=1
	.loc	7 1248 57                       @ ../Library/STM32F4xx_HAL_Driver/Src/stm32f4xx_hal_spi.c:1248:57
	ldr	r0, [sp, #64]
.Ltmp192:
	.loc	7 1248 11                       @ ../Library/STM32F4xx_HAL_Driver/Src/stm32f4xx_hal_spi.c:1248:11
	adds	r0, #1
	cbz	r0, .LBB7_36
	b	.LBB7_35
.LBB7_35:
	.loc	7 0 11                          @ ../Library/STM32F4xx_HAL_Driver/Src/stm32f4xx_hal_spi.c:0:11
	movs	r0, #3
.Ltmp193:
	.loc	7 1250 19 is_stmt 1             @ ../Library/STM32F4xx_HAL_Driver/Src/stm32f4xx_hal_spi.c:1250:19
	strb.w	r0, [sp, #19]
	.loc	7 1251 9                        @ ../Library/STM32F4xx_HAL_Driver/Src/stm32f4xx_hal_spi.c:1251:9
	b	.LBB7_65
.Ltmp194:
.LBB7_36:                               @   in Loop: Header=BB7_23 Depth=1
	.loc	7 1219 5                        @ ../Library/STM32F4xx_HAL_Driver/Src/stm32f4xx_hal_spi.c:1219:5
	b	.LBB7_23
.LBB7_37:
	.loc	7 1254 3                        @ ../Library/STM32F4xx_HAL_Driver/Src/stm32f4xx_hal_spi.c:1254:3
	b	.LBB7_58
.Ltmp195:
.LBB7_38:
	.loc	7 1258 10                       @ ../Library/STM32F4xx_HAL_Driver/Src/stm32f4xx_hal_spi.c:1258:10
	ldr	r0, [sp, #48]
	.loc	7 1258 21 is_stmt 0             @ ../Library/STM32F4xx_HAL_Driver/Src/stm32f4xx_hal_spi.c:1258:21
	ldr	r0, [r0, #4]
	.loc	7 1258 45                       @ ../Library/STM32F4xx_HAL_Driver/Src/stm32f4xx_hal_spi.c:1258:45
	cbz	r0, .LBB7_40
	b	.LBB7_39
.LBB7_39:
	.loc	7 1258 49                       @ ../Library/STM32F4xx_HAL_Driver/Src/stm32f4xx_hal_spi.c:1258:49
	ldrh.w	r0, [sp, #36]
.Ltmp196:
	.loc	7 1258 9                        @ ../Library/STM32F4xx_HAL_Driver/Src/stm32f4xx_hal_spi.c:1258:9
	cmp	r0, #1
	bne	.LBB7_41
	b	.LBB7_40
.LBB7_40:
.Ltmp197:
	.loc	7 1260 50 is_stmt 1             @ ../Library/STM32F4xx_HAL_Driver/Src/stm32f4xx_hal_spi.c:1260:50
	ldr	r0, [sp, #48]
	.loc	7 1260 32 is_stmt 0             @ ../Library/STM32F4xx_HAL_Driver/Src/stm32f4xx_hal_spi.c:1260:32
	ldr	r1, [r0]
	.loc	7 1260 56                       @ ../Library/STM32F4xx_HAL_Driver/Src/stm32f4xx_hal_spi.c:1260:56
	ldr	r0, [r0, #48]
	.loc	7 1260 49                       @ ../Library/STM32F4xx_HAL_Driver/Src/stm32f4xx_hal_spi.c:1260:49
	ldrb	r0, [r0]
	.loc	7 1260 46                       @ ../Library/STM32F4xx_HAL_Driver/Src/stm32f4xx_hal_spi.c:1260:46
	strb	r0, [r1, #12]
	.loc	7 1261 7 is_stmt 1              @ ../Library/STM32F4xx_HAL_Driver/Src/stm32f4xx_hal_spi.c:1261:7
	ldr	r1, [sp, #48]
	.loc	7 1261 24 is_stmt 0             @ ../Library/STM32F4xx_HAL_Driver/Src/stm32f4xx_hal_spi.c:1261:24
	ldr	r0, [r1, #48]
	adds	r0, #1
	str	r0, [r1, #48]
	.loc	7 1262 7 is_stmt 1              @ ../Library/STM32F4xx_HAL_Driver/Src/stm32f4xx_hal_spi.c:1262:7
	ldr	r1, [sp, #48]
	.loc	7 1262 24 is_stmt 0             @ ../Library/STM32F4xx_HAL_Driver/Src/stm32f4xx_hal_spi.c:1262:24
	ldrh	r0, [r1, #54]
	subs	r0, #1
	strh	r0, [r1, #54]
	.loc	7 1263 5 is_stmt 1              @ ../Library/STM32F4xx_HAL_Driver/Src/stm32f4xx_hal_spi.c:1263:5
	b	.LBB7_41
.Ltmp198:
.LBB7_41:
	.loc	7 1264 5                        @ ../Library/STM32F4xx_HAL_Driver/Src/stm32f4xx_hal_spi.c:1264:5
	b	.LBB7_42
.LBB7_42:                               @ =>This Inner Loop Header: Depth=1
	.loc	7 1264 13 is_stmt 0             @ ../Library/STM32F4xx_HAL_Driver/Src/stm32f4xx_hal_spi.c:1264:13
	ldr	r0, [sp, #48]
	.loc	7 1264 19                       @ ../Library/STM32F4xx_HAL_Driver/Src/stm32f4xx_hal_spi.c:1264:19
	ldrh	r1, [r0, #54]
	movs	r0, #1
	.loc	7 1264 37                       @ ../Library/STM32F4xx_HAL_Driver/Src/stm32f4xx_hal_spi.c:1264:37
	str	r0, [sp, #4]                    @ 4-byte Spill
	cbnz	r1, .LBB7_44
	b	.LBB7_43
.LBB7_43:                               @   in Loop: Header=BB7_42 Depth=1
	.loc	7 1264 41                       @ ../Library/STM32F4xx_HAL_Driver/Src/stm32f4xx_hal_spi.c:1264:41
	ldr	r0, [sp, #48]
	.loc	7 1264 47                       @ ../Library/STM32F4xx_HAL_Driver/Src/stm32f4xx_hal_spi.c:1264:47
	ldrh	r0, [r0, #62]
	.loc	7 1264 59                       @ ../Library/STM32F4xx_HAL_Driver/Src/stm32f4xx_hal_spi.c:1264:59
	cmp	r0, #0
	it	ne
	movne	r0, #1
	.loc	7 1264 37                       @ ../Library/STM32F4xx_HAL_Driver/Src/stm32f4xx_hal_spi.c:1264:37
	str	r0, [sp, #4]                    @ 4-byte Spill
	b	.LBB7_44
.LBB7_44:                               @   in Loop: Header=BB7_42 Depth=1
	.loc	7 0 37                          @ ../Library/STM32F4xx_HAL_Driver/Src/stm32f4xx_hal_spi.c:0:37
	ldr	r0, [sp, #4]                    @ 4-byte Reload
	.loc	7 1264 5                        @ ../Library/STM32F4xx_HAL_Driver/Src/stm32f4xx_hal_spi.c:1264:5
	lsls	r0, r0, #31
	cmp	r0, #0
	beq	.LBB7_57
	b	.LBB7_45
.LBB7_45:                               @   in Loop: Header=BB7_42 Depth=1
.Ltmp199:
	.loc	7 1267 12 is_stmt 1             @ ../Library/STM32F4xx_HAL_Driver/Src/stm32f4xx_hal_spi.c:1267:12
	ldr	r0, [sp, #48]
	ldr	r0, [r0]
	ldr	r0, [r0, #8]
	.loc	7 1267 52 is_stmt 0             @ ../Library/STM32F4xx_HAL_Driver/Src/stm32f4xx_hal_spi.c:1267:52
	lsls	r0, r0, #30
	cmp	r0, #0
	bpl	.LBB7_49
	b	.LBB7_46
.LBB7_46:                               @   in Loop: Header=BB7_42 Depth=1
	.loc	7 1267 56                       @ ../Library/STM32F4xx_HAL_Driver/Src/stm32f4xx_hal_spi.c:1267:56
	ldr	r0, [sp, #48]
	.loc	7 1267 62                       @ ../Library/STM32F4xx_HAL_Driver/Src/stm32f4xx_hal_spi.c:1267:62
	ldrh	r0, [r0, #54]
	.loc	7 1267 80                       @ ../Library/STM32F4xx_HAL_Driver/Src/stm32f4xx_hal_spi.c:1267:80
	cbz	r0, .LBB7_49
	b	.LBB7_47
.LBB7_47:                               @   in Loop: Header=BB7_42 Depth=1
	.loc	7 1267 84                       @ ../Library/STM32F4xx_HAL_Driver/Src/stm32f4xx_hal_spi.c:1267:84
	ldr	r0, [sp, #20]
.Ltmp200:
	.loc	7 1267 11                       @ ../Library/STM32F4xx_HAL_Driver/Src/stm32f4xx_hal_spi.c:1267:11
	cmp	r0, #1
	bne	.LBB7_49
	b	.LBB7_48
.LBB7_48:                               @   in Loop: Header=BB7_42 Depth=1
.Ltmp201:
	.loc	7 1269 50 is_stmt 1             @ ../Library/STM32F4xx_HAL_Driver/Src/stm32f4xx_hal_spi.c:1269:50
	ldr	r0, [sp, #48]
	.loc	7 1269 33 is_stmt 0             @ ../Library/STM32F4xx_HAL_Driver/Src/stm32f4xx_hal_spi.c:1269:33
	ldr	r1, [r0]
	.loc	7 1269 56                       @ ../Library/STM32F4xx_HAL_Driver/Src/stm32f4xx_hal_spi.c:1269:56
	ldr	r0, [r0, #48]
	.loc	7 1269 49                       @ ../Library/STM32F4xx_HAL_Driver/Src/stm32f4xx_hal_spi.c:1269:49
	ldrb	r0, [r0]
	.loc	7 1269 46                       @ ../Library/STM32F4xx_HAL_Driver/Src/stm32f4xx_hal_spi.c:1269:46
	strb	r0, [r1, #12]
	.loc	7 1270 9 is_stmt 1              @ ../Library/STM32F4xx_HAL_Driver/Src/stm32f4xx_hal_spi.c:1270:9
	ldr	r1, [sp, #48]
	.loc	7 1270 25 is_stmt 0             @ ../Library/STM32F4xx_HAL_Driver/Src/stm32f4xx_hal_spi.c:1270:25
	ldr	r0, [r1, #48]
	adds	r0, #1
	str	r0, [r1, #48]
	.loc	7 1271 9 is_stmt 1              @ ../Library/STM32F4xx_HAL_Driver/Src/stm32f4xx_hal_spi.c:1271:9
	ldr	r1, [sp, #48]
	.loc	7 1271 26 is_stmt 0             @ ../Library/STM32F4xx_HAL_Driver/Src/stm32f4xx_hal_spi.c:1271:26
	ldrh	r0, [r1, #54]
	subs	r0, #1
	strh	r0, [r1, #54]
	movs	r0, #0
	.loc	7 1273 19 is_stmt 1             @ ../Library/STM32F4xx_HAL_Driver/Src/stm32f4xx_hal_spi.c:1273:19
	str	r0, [sp, #20]
	.loc	7 1282 7                        @ ../Library/STM32F4xx_HAL_Driver/Src/stm32f4xx_hal_spi.c:1282:7
	b	.LBB7_49
.Ltmp202:
.LBB7_49:                               @   in Loop: Header=BB7_42 Depth=1
	.loc	7 1285 12                       @ ../Library/STM32F4xx_HAL_Driver/Src/stm32f4xx_hal_spi.c:1285:12
	ldr	r0, [sp, #48]
	ldr	r0, [r0]
	ldr	r0, [r0, #8]
	.loc	7 1285 53 is_stmt 0             @ ../Library/STM32F4xx_HAL_Driver/Src/stm32f4xx_hal_spi.c:1285:53
	lsls	r0, r0, #31
	cbz	r0, .LBB7_52
	b	.LBB7_50
.LBB7_50:                               @   in Loop: Header=BB7_42 Depth=1
	.loc	7 1285 57                       @ ../Library/STM32F4xx_HAL_Driver/Src/stm32f4xx_hal_spi.c:1285:57
	ldr	r0, [sp, #48]
	.loc	7 1285 63                       @ ../Library/STM32F4xx_HAL_Driver/Src/stm32f4xx_hal_spi.c:1285:63
	ldrh	r0, [r0, #62]
.Ltmp203:
	.loc	7 1285 11                       @ ../Library/STM32F4xx_HAL_Driver/Src/stm32f4xx_hal_spi.c:1285:11
	cbz	r0, .LBB7_52
	b	.LBB7_51
.LBB7_51:                               @   in Loop: Header=BB7_42 Depth=1
.Ltmp204:
	.loc	7 1287 42 is_stmt 1             @ ../Library/STM32F4xx_HAL_Driver/Src/stm32f4xx_hal_spi.c:1287:42
	ldr	r0, [sp, #48]
	.loc	7 1287 48 is_stmt 0             @ ../Library/STM32F4xx_HAL_Driver/Src/stm32f4xx_hal_spi.c:1287:48
	ldr	r0, [r0]
	.loc	7 1287 58                       @ ../Library/STM32F4xx_HAL_Driver/Src/stm32f4xx_hal_spi.c:1287:58
	ldr	r0, [r0, #12]
	.loc	7 1287 22                       @ ../Library/STM32F4xx_HAL_Driver/Src/stm32f4xx_hal_spi.c:1287:22
	ldr	r1, [sp, #48]
	.loc	7 1287 28                       @ ../Library/STM32F4xx_HAL_Driver/Src/stm32f4xx_hal_spi.c:1287:28
	ldr	r1, [r1, #56]
	.loc	7 1287 40                       @ ../Library/STM32F4xx_HAL_Driver/Src/stm32f4xx_hal_spi.c:1287:40
	strb	r0, [r1]
	.loc	7 1288 9 is_stmt 1              @ ../Library/STM32F4xx_HAL_Driver/Src/stm32f4xx_hal_spi.c:1288:9
	ldr	r1, [sp, #48]
	.loc	7 1288 25 is_stmt 0             @ ../Library/STM32F4xx_HAL_Driver/Src/stm32f4xx_hal_spi.c:1288:25
	ldr	r0, [r1, #56]
	adds	r0, #1
	str	r0, [r1, #56]
	.loc	7 1289 9 is_stmt 1              @ ../Library/STM32F4xx_HAL_Driver/Src/stm32f4xx_hal_spi.c:1289:9
	ldr	r1, [sp, #48]
	.loc	7 1289 26 is_stmt 0             @ ../Library/STM32F4xx_HAL_Driver/Src/stm32f4xx_hal_spi.c:1289:26
	ldrh	r0, [r1, #62]
	subs	r0, #1
	strh	r0, [r1, #62]
	movs	r0, #1
	.loc	7 1291 19 is_stmt 1             @ ../Library/STM32F4xx_HAL_Driver/Src/stm32f4xx_hal_spi.c:1291:19
	str	r0, [sp, #20]
	.loc	7 1292 7                        @ ../Library/STM32F4xx_HAL_Driver/Src/stm32f4xx_hal_spi.c:1292:7
	b	.LBB7_52
.Ltmp205:
.LBB7_52:                               @   in Loop: Header=BB7_42 Depth=1
	.loc	7 1293 14                       @ ../Library/STM32F4xx_HAL_Driver/Src/stm32f4xx_hal_spi.c:1293:14
	bl	HAL_GetTick
	.loc	7 1293 30 is_stmt 0             @ ../Library/STM32F4xx_HAL_Driver/Src/stm32f4xx_hal_spi.c:1293:30
	ldr	r1, [sp, #24]
	.loc	7 1293 28                       @ ../Library/STM32F4xx_HAL_Driver/Src/stm32f4xx_hal_spi.c:1293:28
	subs	r0, r0, r1
	.loc	7 1293 45                       @ ../Library/STM32F4xx_HAL_Driver/Src/stm32f4xx_hal_spi.c:1293:45
	ldr	r1, [sp, #64]
	.loc	7 1293 54                       @ ../Library/STM32F4xx_HAL_Driver/Src/stm32f4xx_hal_spi.c:1293:54
	cmp	r0, r1
	blo	.LBB7_54
	b	.LBB7_53
.LBB7_53:                               @   in Loop: Header=BB7_42 Depth=1
	.loc	7 1293 59                       @ ../Library/STM32F4xx_HAL_Driver/Src/stm32f4xx_hal_spi.c:1293:59
	ldr	r0, [sp, #64]
	.loc	7 1293 87                       @ ../Library/STM32F4xx_HAL_Driver/Src/stm32f4xx_hal_spi.c:1293:87
	adds	r0, #1
	cbnz	r0, .LBB7_55
	b	.LBB7_54
.LBB7_54:                               @   in Loop: Header=BB7_42 Depth=1
	.loc	7 1293 91                       @ ../Library/STM32F4xx_HAL_Driver/Src/stm32f4xx_hal_spi.c:1293:91
	ldr	r0, [sp, #64]
.Ltmp206:
	.loc	7 1293 11                       @ ../Library/STM32F4xx_HAL_Driver/Src/stm32f4xx_hal_spi.c:1293:11
	cbnz	r0, .LBB7_56
	b	.LBB7_55
.LBB7_55:
	.loc	7 0 11                          @ ../Library/STM32F4xx_HAL_Driver/Src/stm32f4xx_hal_spi.c:0:11
	movs	r0, #3
.Ltmp207:
	.loc	7 1295 19 is_stmt 1             @ ../Library/STM32F4xx_HAL_Driver/Src/stm32f4xx_hal_spi.c:1295:19
	strb.w	r0, [sp, #19]
	.loc	7 1296 9                        @ ../Library/STM32F4xx_HAL_Driver/Src/stm32f4xx_hal_spi.c:1296:9
	b	.LBB7_65
.Ltmp208:
.LBB7_56:                               @   in Loop: Header=BB7_42 Depth=1
	.loc	7 1264 5                        @ ../Library/STM32F4xx_HAL_Driver/Src/stm32f4xx_hal_spi.c:1264:5
	b	.LBB7_42
.Ltmp209:
.LBB7_57:
	.loc	7 0 5 is_stmt 0                 @ ../Library/STM32F4xx_HAL_Driver/Src/stm32f4xx_hal_spi.c:0:5
	b	.LBB7_58
.LBB7_58:
.Ltmp210:
	.loc	7 1331 30 is_stmt 1             @ ../Library/STM32F4xx_HAL_Driver/Src/stm32f4xx_hal_spi.c:1331:30
	ldr	r0, [sp, #48]
	.loc	7 1331 36 is_stmt 0             @ ../Library/STM32F4xx_HAL_Driver/Src/stm32f4xx_hal_spi.c:1331:36
	ldr	r1, [sp, #64]
	.loc	7 1331 45                       @ ../Library/STM32F4xx_HAL_Driver/Src/stm32f4xx_hal_spi.c:1331:45
	ldr	r2, [sp, #24]
	.loc	7 1331 7                        @ ../Library/STM32F4xx_HAL_Driver/Src/stm32f4xx_hal_spi.c:1331:7
	bl	SPI_EndRxTxTransaction
.Ltmp211:
	.loc	7 1331 7                        @ ../Library/STM32F4xx_HAL_Driver/Src/stm32f4xx_hal_spi.c:1331:7
	cbz	r0, .LBB7_60
	b	.LBB7_59
.LBB7_59:
	.loc	7 0 7                           @ ../Library/STM32F4xx_HAL_Driver/Src/stm32f4xx_hal_spi.c:0:7
	movs	r0, #1
.Ltmp212:
	.loc	7 1333 15 is_stmt 1             @ ../Library/STM32F4xx_HAL_Driver/Src/stm32f4xx_hal_spi.c:1333:15
	strb.w	r0, [sp, #19]
	.loc	7 1334 5                        @ ../Library/STM32F4xx_HAL_Driver/Src/stm32f4xx_hal_spi.c:1334:5
	ldr	r1, [sp, #48]
	movs	r0, #32
	.loc	7 1334 21 is_stmt 0             @ ../Library/STM32F4xx_HAL_Driver/Src/stm32f4xx_hal_spi.c:1334:21
	str	r0, [r1, #84]
	.loc	7 1335 5 is_stmt 1              @ ../Library/STM32F4xx_HAL_Driver/Src/stm32f4xx_hal_spi.c:1335:5
	b	.LBB7_65
.Ltmp213:
.LBB7_60:
	.loc	7 1339 7                        @ ../Library/STM32F4xx_HAL_Driver/Src/stm32f4xx_hal_spi.c:1339:7
	ldr	r0, [sp, #48]
	.loc	7 1339 18 is_stmt 0             @ ../Library/STM32F4xx_HAL_Driver/Src/stm32f4xx_hal_spi.c:1339:18
	ldr	r0, [r0, #8]
.Ltmp214:
	.loc	7 1339 7                        @ ../Library/STM32F4xx_HAL_Driver/Src/stm32f4xx_hal_spi.c:1339:7
	cbnz	r0, .LBB7_64
	b	.LBB7_61
.LBB7_61:
.Ltmp215:
	.loc	7 1341 5 is_stmt 1              @ ../Library/STM32F4xx_HAL_Driver/Src/stm32f4xx_hal_spi.c:1341:5
	b	.LBB7_62
.LBB7_62:
	.loc	7 0 5 is_stmt 0                 @ ../Library/STM32F4xx_HAL_Driver/Src/stm32f4xx_hal_spi.c:0:5
	movs	r0, #0
.Ltmp216:
	.loc	7 1341 5                        @ ../Library/STM32F4xx_HAL_Driver/Src/stm32f4xx_hal_spi.c:1341:5
	str	r0, [sp, #12]
	ldr	r0, [sp, #48]
	ldr	r0, [r0]
	ldr	r0, [r0, #12]
	str	r0, [sp, #12]
	ldr	r0, [sp, #48]
	ldr	r0, [r0]
	ldr	r0, [r0, #8]
	str	r0, [sp, #12]
	ldr	r0, [sp, #12]
	b	.LBB7_63
.Ltmp217:
.LBB7_63:
	.loc	7 1342 3 is_stmt 1              @ ../Library/STM32F4xx_HAL_Driver/Src/stm32f4xx_hal_spi.c:1342:3
	b	.LBB7_64
.Ltmp218:
.LBB7_64:
	.loc	7 1339 31                       @ ../Library/STM32F4xx_HAL_Driver/Src/stm32f4xx_hal_spi.c:1339:31
	b	.LBB7_65
.Ltmp219:
.LBB7_65:
	@DEBUG_LABEL: HAL_SPI_TransmitReceive:error
	.loc	7 1345 3                        @ ../Library/STM32F4xx_HAL_Driver/Src/stm32f4xx_hal_spi.c:1345:3
	ldr	r1, [sp, #48]
	movs	r0, #1
	.loc	7 1345 15 is_stmt 0             @ ../Library/STM32F4xx_HAL_Driver/Src/stm32f4xx_hal_spi.c:1345:15
	strb.w	r0, [r1, #81]
	.loc	7 1346 3 is_stmt 1              @ ../Library/STM32F4xx_HAL_Driver/Src/stm32f4xx_hal_spi.c:1346:3
	b	.LBB7_66
.LBB7_66:
.Ltmp220:
	.loc	7 1346 3 is_stmt 0              @ ../Library/STM32F4xx_HAL_Driver/Src/stm32f4xx_hal_spi.c:1346:3
	ldr	r1, [sp, #48]
	movs	r0, #0
	strb.w	r0, [r1, #80]
	b	.LBB7_67
.Ltmp221:
.LBB7_67:
	.loc	7 1347 10 is_stmt 1             @ ../Library/STM32F4xx_HAL_Driver/Src/stm32f4xx_hal_spi.c:1347:10
	ldrb.w	r0, [sp, #19]
	.loc	7 1347 3 is_stmt 0              @ ../Library/STM32F4xx_HAL_Driver/Src/stm32f4xx_hal_spi.c:1347:3
	strb.w	r0, [sp, #55]
	b	.LBB7_68
.LBB7_68:
	.loc	7 1348 1 is_stmt 1              @ ../Library/STM32F4xx_HAL_Driver/Src/stm32f4xx_hal_spi.c:1348:1
	ldrb.w	r0, [sp, #55]
	add	sp, #56
	pop	{r7, pc}
.Ltmp222:
.Lfunc_end7:
	.size	HAL_SPI_TransmitReceive, .Lfunc_end7-HAL_SPI_TransmitReceive
	.cfi_endproc
	.cantunwind
	.fnend
                                        @ -- End function
	.section	.text.SPI_EndRxTransaction,"ax",%progbits
	.p2align	2                               @ -- Begin function SPI_EndRxTransaction
	.type	SPI_EndRxTransaction,%function
	.code	16                              @ @SPI_EndRxTransaction
	.thumb_func
SPI_EndRxTransaction:
.Lfunc_begin8:
	.loc	7 3549 0                        @ ../Library/STM32F4xx_HAL_Driver/Src/stm32f4xx_hal_spi.c:3549:0
	.fnstart
	.cfi_startproc
@ %bb.0:
	.save	{r7, lr}
	push	{r7, lr}
	.cfi_def_cfa_offset 8
	.cfi_offset lr, -4
	.cfi_offset r7, -8
	.pad	#24
	sub	sp, #24
	.cfi_def_cfa_offset 32
	str	r0, [sp, #16]
	str	r1, [sp, #12]
	str	r2, [sp, #8]
.Ltmp223:
	.loc	7 3550 8 prologue_end           @ ../Library/STM32F4xx_HAL_Driver/Src/stm32f4xx_hal_spi.c:3550:8
	ldr	r0, [sp, #16]
	.loc	7 3550 19 is_stmt 0             @ ../Library/STM32F4xx_HAL_Driver/Src/stm32f4xx_hal_spi.c:3550:19
	ldr	r0, [r0, #4]
	.loc	7 3550 44                       @ ../Library/STM32F4xx_HAL_Driver/Src/stm32f4xx_hal_spi.c:3550:44
	cmp.w	r0, #260
	bne	.LBB8_4
	b	.LBB8_1
.LBB8_1:
	.loc	7 3550 49                       @ ../Library/STM32F4xx_HAL_Driver/Src/stm32f4xx_hal_spi.c:3550:49
	ldr	r0, [sp, #16]
	.loc	7 3550 60                       @ ../Library/STM32F4xx_HAL_Driver/Src/stm32f4xx_hal_spi.c:3550:60
	ldr	r0, [r0, #8]
	.loc	7 3551 48 is_stmt 1             @ ../Library/STM32F4xx_HAL_Driver/Src/stm32f4xx_hal_spi.c:3551:48
	cmp.w	r0, #32768
	beq	.LBB8_3
	b	.LBB8_2
.LBB8_2:
	.loc	7 3551 52 is_stmt 0             @ ../Library/STM32F4xx_HAL_Driver/Src/stm32f4xx_hal_spi.c:3551:52
	ldr	r0, [sp, #16]
	.loc	7 3551 63                       @ ../Library/STM32F4xx_HAL_Driver/Src/stm32f4xx_hal_spi.c:3551:63
	ldr	r0, [r0, #8]
.Ltmp224:
	.loc	7 3550 7 is_stmt 1              @ ../Library/STM32F4xx_HAL_Driver/Src/stm32f4xx_hal_spi.c:3550:7
	cmp.w	r0, #1024
	bne	.LBB8_4
	b	.LBB8_3
.LBB8_3:
.Ltmp225:
	.loc	7 3554 5                        @ ../Library/STM32F4xx_HAL_Driver/Src/stm32f4xx_hal_spi.c:3554:5
	ldr	r0, [sp, #16]
	ldr	r1, [r0]
	ldr	r0, [r1]
	bic	r0, r0, #64
	str	r0, [r1]
	.loc	7 3555 3                        @ ../Library/STM32F4xx_HAL_Driver/Src/stm32f4xx_hal_spi.c:3555:3
	b	.LBB8_4
.Ltmp226:
.LBB8_4:
	.loc	7 3558 7                        @ ../Library/STM32F4xx_HAL_Driver/Src/stm32f4xx_hal_spi.c:3558:7
	ldr	r0, [sp, #16]
	.loc	7 3558 18 is_stmt 0             @ ../Library/STM32F4xx_HAL_Driver/Src/stm32f4xx_hal_spi.c:3558:18
	ldr	r0, [r0, #4]
.Ltmp227:
	.loc	7 3558 7                        @ ../Library/STM32F4xx_HAL_Driver/Src/stm32f4xx_hal_spi.c:3558:7
	cmp.w	r0, #260
	bne	.LBB8_13
	b	.LBB8_5
.LBB8_5:
.Ltmp228:
	.loc	7 3560 9 is_stmt 1              @ ../Library/STM32F4xx_HAL_Driver/Src/stm32f4xx_hal_spi.c:3560:9
	ldr	r0, [sp, #16]
	.loc	7 3560 20 is_stmt 0             @ ../Library/STM32F4xx_HAL_Driver/Src/stm32f4xx_hal_spi.c:3560:20
	ldr	r0, [r0, #8]
.Ltmp229:
	.loc	7 3560 9                        @ ../Library/STM32F4xx_HAL_Driver/Src/stm32f4xx_hal_spi.c:3560:9
	cmp.w	r0, #1024
	beq	.LBB8_9
	b	.LBB8_6
.LBB8_6:
.Ltmp230:
	.loc	7 3563 41 is_stmt 1             @ ../Library/STM32F4xx_HAL_Driver/Src/stm32f4xx_hal_spi.c:3563:41
	ldr	r0, [sp, #16]
	.loc	7 3563 68 is_stmt 0             @ ../Library/STM32F4xx_HAL_Driver/Src/stm32f4xx_hal_spi.c:3563:68
	ldr	r3, [sp, #12]
	.loc	7 3563 77                       @ ../Library/STM32F4xx_HAL_Driver/Src/stm32f4xx_hal_spi.c:3563:77
	ldr	r1, [sp, #8]
	.loc	7 3563 11                       @ ../Library/STM32F4xx_HAL_Driver/Src/stm32f4xx_hal_spi.c:3563:11
	mov	r2, sp
	str	r1, [r2]
	movs	r1, #128
	movs	r2, #0
	bl	SPI_WaitFlagStateUntilTimeout
.Ltmp231:
	.loc	7 3563 11                       @ ../Library/STM32F4xx_HAL_Driver/Src/stm32f4xx_hal_spi.c:3563:11
	cbz	r0, .LBB8_8
	b	.LBB8_7
.LBB8_7:
.Ltmp232:
	.loc	7 3565 9 is_stmt 1              @ ../Library/STM32F4xx_HAL_Driver/Src/stm32f4xx_hal_spi.c:3565:9
	ldr	r1, [sp, #16]
	ldr	r0, [r1, #84]
	orr	r0, r0, #32
	str	r0, [r1, #84]
	movs	r0, #3
	.loc	7 3566 9                        @ ../Library/STM32F4xx_HAL_Driver/Src/stm32f4xx_hal_spi.c:3566:9
	strb.w	r0, [sp, #23]
	b	.LBB8_17
.Ltmp233:
.LBB8_8:
	.loc	7 3568 5                        @ ../Library/STM32F4xx_HAL_Driver/Src/stm32f4xx_hal_spi.c:3568:5
	b	.LBB8_12
.Ltmp234:
.LBB8_9:
	.loc	7 3572 41                       @ ../Library/STM32F4xx_HAL_Driver/Src/stm32f4xx_hal_spi.c:3572:41
	ldr	r0, [sp, #16]
	.loc	7 3572 69 is_stmt 0             @ ../Library/STM32F4xx_HAL_Driver/Src/stm32f4xx_hal_spi.c:3572:69
	ldr	r3, [sp, #12]
	.loc	7 3572 78                       @ ../Library/STM32F4xx_HAL_Driver/Src/stm32f4xx_hal_spi.c:3572:78
	ldr	r1, [sp, #8]
	.loc	7 3572 11                       @ ../Library/STM32F4xx_HAL_Driver/Src/stm32f4xx_hal_spi.c:3572:11
	mov	r2, sp
	str	r1, [r2]
	movs	r1, #1
	movs	r2, #0
	bl	SPI_WaitFlagStateUntilTimeout
.Ltmp235:
	.loc	7 3572 11                       @ ../Library/STM32F4xx_HAL_Driver/Src/stm32f4xx_hal_spi.c:3572:11
	cbz	r0, .LBB8_11
	b	.LBB8_10
.LBB8_10:
.Ltmp236:
	.loc	7 3574 9 is_stmt 1              @ ../Library/STM32F4xx_HAL_Driver/Src/stm32f4xx_hal_spi.c:3574:9
	ldr	r1, [sp, #16]
	ldr	r0, [r1, #84]
	orr	r0, r0, #32
	str	r0, [r1, #84]
	movs	r0, #3
	.loc	7 3575 9                        @ ../Library/STM32F4xx_HAL_Driver/Src/stm32f4xx_hal_spi.c:3575:9
	strb.w	r0, [sp, #23]
	b	.LBB8_17
.Ltmp237:
.LBB8_11:
	.loc	7 0 9 is_stmt 0                 @ ../Library/STM32F4xx_HAL_Driver/Src/stm32f4xx_hal_spi.c:0:9
	b	.LBB8_12
.LBB8_12:
	.loc	7 3578 3 is_stmt 1              @ ../Library/STM32F4xx_HAL_Driver/Src/stm32f4xx_hal_spi.c:3578:3
	b	.LBB8_16
.Ltmp238:
.LBB8_13:
	.loc	7 3582 39                       @ ../Library/STM32F4xx_HAL_Driver/Src/stm32f4xx_hal_spi.c:3582:39
	ldr	r0, [sp, #16]
	.loc	7 3582 67 is_stmt 0             @ ../Library/STM32F4xx_HAL_Driver/Src/stm32f4xx_hal_spi.c:3582:67
	ldr	r3, [sp, #12]
	.loc	7 3582 76                       @ ../Library/STM32F4xx_HAL_Driver/Src/stm32f4xx_hal_spi.c:3582:76
	ldr	r1, [sp, #8]
	.loc	7 3582 9                        @ ../Library/STM32F4xx_HAL_Driver/Src/stm32f4xx_hal_spi.c:3582:9
	mov	r2, sp
	str	r1, [r2]
	movs	r1, #1
	movs	r2, #0
	bl	SPI_WaitFlagStateUntilTimeout
.Ltmp239:
	.loc	7 3582 9                        @ ../Library/STM32F4xx_HAL_Driver/Src/stm32f4xx_hal_spi.c:3582:9
	cbz	r0, .LBB8_15
	b	.LBB8_14
.LBB8_14:
.Ltmp240:
	.loc	7 3584 7 is_stmt 1              @ ../Library/STM32F4xx_HAL_Driver/Src/stm32f4xx_hal_spi.c:3584:7
	ldr	r1, [sp, #16]
	ldr	r0, [r1, #84]
	orr	r0, r0, #32
	str	r0, [r1, #84]
	movs	r0, #3
	.loc	7 3585 7                        @ ../Library/STM32F4xx_HAL_Driver/Src/stm32f4xx_hal_spi.c:3585:7
	strb.w	r0, [sp, #23]
	b	.LBB8_17
.Ltmp241:
.LBB8_15:
	.loc	7 0 7 is_stmt 0                 @ ../Library/STM32F4xx_HAL_Driver/Src/stm32f4xx_hal_spi.c:0:7
	b	.LBB8_16
.LBB8_16:
	movs	r0, #0
	.loc	7 3588 3 is_stmt 1              @ ../Library/STM32F4xx_HAL_Driver/Src/stm32f4xx_hal_spi.c:3588:3
	strb.w	r0, [sp, #23]
	b	.LBB8_17
.LBB8_17:
	.loc	7 3589 1                        @ ../Library/STM32F4xx_HAL_Driver/Src/stm32f4xx_hal_spi.c:3589:1
	ldrb.w	r0, [sp, #23]
	add	sp, #24
	pop	{r7, pc}
.Ltmp242:
.Lfunc_end8:
	.size	SPI_EndRxTransaction, .Lfunc_end8-SPI_EndRxTransaction
	.cfi_endproc
	.cantunwind
	.fnend
                                        @ -- End function
	.section	.text.HAL_SPI_Transmit_IT,"ax",%progbits
	.hidden	HAL_SPI_Transmit_IT             @ -- Begin function HAL_SPI_Transmit_IT
	.globl	HAL_SPI_Transmit_IT
	.p2align	2
	.type	HAL_SPI_Transmit_IT,%function
	.code	16                              @ @HAL_SPI_Transmit_IT
	.thumb_func
HAL_SPI_Transmit_IT:
.Lfunc_begin9:
	.loc	7 1359 0                        @ ../Library/STM32F4xx_HAL_Driver/Src/stm32f4xx_hal_spi.c:1359:0
	.fnstart
	.cfi_startproc
@ %bb.0:
	.pad	#16
	sub	sp, #16
	.cfi_def_cfa_offset 16
                                        @ kill: def $r3 killed $r2
	str	r0, [sp, #8]
	str	r1, [sp, #4]
	strh.w	r2, [sp, #2]
	movs	r0, #0
.Ltmp243:
	.loc	7 1360 21 prologue_end          @ ../Library/STM32F4xx_HAL_Driver/Src/stm32f4xx_hal_spi.c:1360:21
	strb.w	r0, [sp, #1]
	.loc	7 1366 3                        @ ../Library/STM32F4xx_HAL_Driver/Src/stm32f4xx_hal_spi.c:1366:3
	b	.LBB9_1
.LBB9_1:
.Ltmp244:
	.loc	7 1366 3 is_stmt 0              @ ../Library/STM32F4xx_HAL_Driver/Src/stm32f4xx_hal_spi.c:1366:3
	ldr	r0, [sp, #8]
	ldrb.w	r0, [r0, #80]
.Ltmp245:
	.loc	7 1366 3                        @ ../Library/STM32F4xx_HAL_Driver/Src/stm32f4xx_hal_spi.c:1366:3
	cmp	r0, #1
	bne	.LBB9_3
	b	.LBB9_2
.LBB9_2:
	.loc	7 0 3                           @ ../Library/STM32F4xx_HAL_Driver/Src/stm32f4xx_hal_spi.c:0:3
	movs	r0, #2
.Ltmp246:
	.loc	7 1366 3                        @ ../Library/STM32F4xx_HAL_Driver/Src/stm32f4xx_hal_spi.c:1366:3
	strb.w	r0, [sp, #15]
	b	.LBB9_21
.Ltmp247:
.LBB9_3:
	.loc	7 1366 3                        @ ../Library/STM32F4xx_HAL_Driver/Src/stm32f4xx_hal_spi.c:1366:3
	ldr	r1, [sp, #8]
	movs	r0, #1
	strb.w	r0, [r1, #80]
	b	.LBB9_4
.Ltmp248:
.LBB9_4:
	.loc	7 1366 3                        @ ../Library/STM32F4xx_HAL_Driver/Src/stm32f4xx_hal_spi.c:1366:3
	b	.LBB9_5
.Ltmp249:
.LBB9_5:
	.loc	7 1368 8 is_stmt 1              @ ../Library/STM32F4xx_HAL_Driver/Src/stm32f4xx_hal_spi.c:1368:8
	ldr	r0, [sp, #4]
	.loc	7 1368 23 is_stmt 0             @ ../Library/STM32F4xx_HAL_Driver/Src/stm32f4xx_hal_spi.c:1368:23
	cbz	r0, .LBB9_7
	b	.LBB9_6
.LBB9_6:
	.loc	7 1368 27                       @ ../Library/STM32F4xx_HAL_Driver/Src/stm32f4xx_hal_spi.c:1368:27
	ldrh.w	r0, [sp, #2]
.Ltmp250:
	.loc	7 1368 7                        @ ../Library/STM32F4xx_HAL_Driver/Src/stm32f4xx_hal_spi.c:1368:7
	cbnz	r0, .LBB9_8
	b	.LBB9_7
.LBB9_7:
	.loc	7 0 7                           @ ../Library/STM32F4xx_HAL_Driver/Src/stm32f4xx_hal_spi.c:0:7
	movs	r0, #1
.Ltmp251:
	.loc	7 1370 15 is_stmt 1             @ ../Library/STM32F4xx_HAL_Driver/Src/stm32f4xx_hal_spi.c:1370:15
	strb.w	r0, [sp, #1]
	.loc	7 1371 5                        @ ../Library/STM32F4xx_HAL_Driver/Src/stm32f4xx_hal_spi.c:1371:5
	b	.LBB9_18
.Ltmp252:
.LBB9_8:
	.loc	7 1374 7                        @ ../Library/STM32F4xx_HAL_Driver/Src/stm32f4xx_hal_spi.c:1374:7
	ldr	r0, [sp, #8]
	.loc	7 1374 13 is_stmt 0             @ ../Library/STM32F4xx_HAL_Driver/Src/stm32f4xx_hal_spi.c:1374:13
	ldrb.w	r0, [r0, #81]
.Ltmp253:
	.loc	7 1374 7                        @ ../Library/STM32F4xx_HAL_Driver/Src/stm32f4xx_hal_spi.c:1374:7
	cmp	r0, #1
	beq	.LBB9_10
	b	.LBB9_9
.LBB9_9:
	.loc	7 0 7                           @ ../Library/STM32F4xx_HAL_Driver/Src/stm32f4xx_hal_spi.c:0:7
	movs	r0, #2
.Ltmp254:
	.loc	7 1376 15 is_stmt 1             @ ../Library/STM32F4xx_HAL_Driver/Src/stm32f4xx_hal_spi.c:1376:15
	strb.w	r0, [sp, #1]
	.loc	7 1377 5                        @ ../Library/STM32F4xx_HAL_Driver/Src/stm32f4xx_hal_spi.c:1377:5
	b	.LBB9_18
.Ltmp255:
.LBB9_10:
	.loc	7 1381 3                        @ ../Library/STM32F4xx_HAL_Driver/Src/stm32f4xx_hal_spi.c:1381:3
	ldr	r1, [sp, #8]
	movs	r0, #3
	.loc	7 1381 21 is_stmt 0             @ ../Library/STM32F4xx_HAL_Driver/Src/stm32f4xx_hal_spi.c:1381:21
	strb.w	r0, [r1, #81]
	.loc	7 1382 3 is_stmt 1              @ ../Library/STM32F4xx_HAL_Driver/Src/stm32f4xx_hal_spi.c:1382:3
	ldr	r1, [sp, #8]
	movs	r0, #0
	.loc	7 1382 21 is_stmt 0             @ ../Library/STM32F4xx_HAL_Driver/Src/stm32f4xx_hal_spi.c:1382:21
	str	r0, [r1, #84]
	.loc	7 1383 34 is_stmt 1             @ ../Library/STM32F4xx_HAL_Driver/Src/stm32f4xx_hal_spi.c:1383:34
	ldr	r1, [sp, #4]
	.loc	7 1383 3 is_stmt 0              @ ../Library/STM32F4xx_HAL_Driver/Src/stm32f4xx_hal_spi.c:1383:3
	ldr	r2, [sp, #8]
	.loc	7 1383 21                       @ ../Library/STM32F4xx_HAL_Driver/Src/stm32f4xx_hal_spi.c:1383:21
	str	r1, [r2, #48]
	.loc	7 1384 23 is_stmt 1             @ ../Library/STM32F4xx_HAL_Driver/Src/stm32f4xx_hal_spi.c:1384:23
	ldrh.w	r1, [sp, #2]
	.loc	7 1384 3 is_stmt 0              @ ../Library/STM32F4xx_HAL_Driver/Src/stm32f4xx_hal_spi.c:1384:3
	ldr	r2, [sp, #8]
	.loc	7 1384 21                       @ ../Library/STM32F4xx_HAL_Driver/Src/stm32f4xx_hal_spi.c:1384:21
	strh	r1, [r2, #52]
	.loc	7 1385 23 is_stmt 1             @ ../Library/STM32F4xx_HAL_Driver/Src/stm32f4xx_hal_spi.c:1385:23
	ldrh.w	r1, [sp, #2]
	.loc	7 1385 3 is_stmt 0              @ ../Library/STM32F4xx_HAL_Driver/Src/stm32f4xx_hal_spi.c:1385:3
	ldr	r2, [sp, #8]
	.loc	7 1385 21                       @ ../Library/STM32F4xx_HAL_Driver/Src/stm32f4xx_hal_spi.c:1385:21
	strh	r1, [r2, #54]
	.loc	7 1388 3 is_stmt 1              @ ../Library/STM32F4xx_HAL_Driver/Src/stm32f4xx_hal_spi.c:1388:3
	ldr	r1, [sp, #8]
	.loc	7 1388 21 is_stmt 0             @ ../Library/STM32F4xx_HAL_Driver/Src/stm32f4xx_hal_spi.c:1388:21
	str	r0, [r1, #56]
	.loc	7 1389 3 is_stmt 1              @ ../Library/STM32F4xx_HAL_Driver/Src/stm32f4xx_hal_spi.c:1389:3
	ldr	r1, [sp, #8]
	.loc	7 1389 21 is_stmt 0             @ ../Library/STM32F4xx_HAL_Driver/Src/stm32f4xx_hal_spi.c:1389:21
	strh	r0, [r1, #60]
	.loc	7 1390 3 is_stmt 1              @ ../Library/STM32F4xx_HAL_Driver/Src/stm32f4xx_hal_spi.c:1390:3
	ldr	r1, [sp, #8]
	.loc	7 1390 21 is_stmt 0             @ ../Library/STM32F4xx_HAL_Driver/Src/stm32f4xx_hal_spi.c:1390:21
	strh	r0, [r1, #62]
	.loc	7 1391 3 is_stmt 1              @ ../Library/STM32F4xx_HAL_Driver/Src/stm32f4xx_hal_spi.c:1391:3
	ldr	r1, [sp, #8]
	.loc	7 1391 21 is_stmt 0             @ ../Library/STM32F4xx_HAL_Driver/Src/stm32f4xx_hal_spi.c:1391:21
	str	r0, [r1, #64]
.Ltmp256:
	.loc	7 1394 7 is_stmt 1              @ ../Library/STM32F4xx_HAL_Driver/Src/stm32f4xx_hal_spi.c:1394:7
	ldr	r0, [sp, #8]
	.loc	7 1394 18 is_stmt 0             @ ../Library/STM32F4xx_HAL_Driver/Src/stm32f4xx_hal_spi.c:1394:18
	ldr	r0, [r0, #12]
.Ltmp257:
	.loc	7 1394 7                        @ ../Library/STM32F4xx_HAL_Driver/Src/stm32f4xx_hal_spi.c:1394:7
	cbz	r0, .LBB9_12
	b	.LBB9_11
.LBB9_11:
.Ltmp258:
	.loc	7 1396 5 is_stmt 1              @ ../Library/STM32F4xx_HAL_Driver/Src/stm32f4xx_hal_spi.c:1396:5
	ldr	r1, [sp, #8]
	.loc	7 1396 17 is_stmt 0             @ ../Library/STM32F4xx_HAL_Driver/Src/stm32f4xx_hal_spi.c:1396:17
	movw	r0, :lower16:SPI_TxISR_16BIT
	movt	r0, :upper16:SPI_TxISR_16BIT
	str	r0, [r1, #68]
	.loc	7 1397 3 is_stmt 1              @ ../Library/STM32F4xx_HAL_Driver/Src/stm32f4xx_hal_spi.c:1397:3
	b	.LBB9_13
.Ltmp259:
.LBB9_12:
	.loc	7 1400 5                        @ ../Library/STM32F4xx_HAL_Driver/Src/stm32f4xx_hal_spi.c:1400:5
	ldr	r1, [sp, #8]
	.loc	7 1400 17 is_stmt 0             @ ../Library/STM32F4xx_HAL_Driver/Src/stm32f4xx_hal_spi.c:1400:17
	movw	r0, :lower16:SPI_TxISR_8BIT
	movt	r0, :upper16:SPI_TxISR_8BIT
	str	r0, [r1, #68]
	b	.LBB9_13
.Ltmp260:
.LBB9_13:
	.loc	7 1404 7 is_stmt 1              @ ../Library/STM32F4xx_HAL_Driver/Src/stm32f4xx_hal_spi.c:1404:7
	ldr	r0, [sp, #8]
	.loc	7 1404 18 is_stmt 0             @ ../Library/STM32F4xx_HAL_Driver/Src/stm32f4xx_hal_spi.c:1404:18
	ldr	r0, [r0, #8]
.Ltmp261:
	.loc	7 1404 7                        @ ../Library/STM32F4xx_HAL_Driver/Src/stm32f4xx_hal_spi.c:1404:7
	cmp.w	r0, #32768
	bne	.LBB9_15
	b	.LBB9_14
.LBB9_14:
.Ltmp262:
	.loc	7 1407 5 is_stmt 1              @ ../Library/STM32F4xx_HAL_Driver/Src/stm32f4xx_hal_spi.c:1407:5
	ldr	r0, [sp, #8]
	ldr	r1, [r0]
	ldr	r0, [r1]
	bic	r0, r0, #64
	str	r0, [r1]
	.loc	7 1408 5                        @ ../Library/STM32F4xx_HAL_Driver/Src/stm32f4xx_hal_spi.c:1408:5
	ldr	r0, [sp, #8]
	ldr	r1, [r0]
	ldr	r0, [r1]
	orr	r0, r0, #16384
	str	r0, [r1]
	.loc	7 1409 3                        @ ../Library/STM32F4xx_HAL_Driver/Src/stm32f4xx_hal_spi.c:1409:3
	b	.LBB9_15
.Ltmp263:
.LBB9_15:
	.loc	7 1420 3                        @ ../Library/STM32F4xx_HAL_Driver/Src/stm32f4xx_hal_spi.c:1420:3
	ldr	r0, [sp, #8]
	ldr	r1, [r0]
	ldr	r0, [r1, #4]
	orr	r0, r0, #160
	str	r0, [r1, #4]
.Ltmp264:
	.loc	7 1424 8                        @ ../Library/STM32F4xx_HAL_Driver/Src/stm32f4xx_hal_spi.c:1424:8
	ldr	r0, [sp, #8]
	.loc	7 1424 14 is_stmt 0             @ ../Library/STM32F4xx_HAL_Driver/Src/stm32f4xx_hal_spi.c:1424:14
	ldr	r0, [r0]
	.loc	7 1424 24                       @ ../Library/STM32F4xx_HAL_Driver/Src/stm32f4xx_hal_spi.c:1424:24
	ldr	r0, [r0]
	.loc	7 1424 28                       @ ../Library/STM32F4xx_HAL_Driver/Src/stm32f4xx_hal_spi.c:1424:28
	and	r0, r0, #64
.Ltmp265:
	.loc	7 1424 7                        @ ../Library/STM32F4xx_HAL_Driver/Src/stm32f4xx_hal_spi.c:1424:7
	cmp	r0, #64
	beq	.LBB9_17
	b	.LBB9_16
.LBB9_16:
.Ltmp266:
	.loc	7 1427 5 is_stmt 1              @ ../Library/STM32F4xx_HAL_Driver/Src/stm32f4xx_hal_spi.c:1427:5
	ldr	r0, [sp, #8]
	ldr	r1, [r0]
	ldr	r0, [r1]
	orr	r0, r0, #64
	str	r0, [r1]
	.loc	7 1428 3                        @ ../Library/STM32F4xx_HAL_Driver/Src/stm32f4xx_hal_spi.c:1428:3
	b	.LBB9_17
.Ltmp267:
.LBB9_17:
	.loc	7 1424 46                       @ ../Library/STM32F4xx_HAL_Driver/Src/stm32f4xx_hal_spi.c:1424:46
	b	.LBB9_18
.Ltmp268:
.LBB9_18:
	@DEBUG_LABEL: HAL_SPI_Transmit_IT:error
	.loc	7 1431 3                        @ ../Library/STM32F4xx_HAL_Driver/Src/stm32f4xx_hal_spi.c:1431:3
	b	.LBB9_19
.LBB9_19:
.Ltmp269:
	.loc	7 1431 3 is_stmt 0              @ ../Library/STM32F4xx_HAL_Driver/Src/stm32f4xx_hal_spi.c:1431:3
	ldr	r1, [sp, #8]
	movs	r0, #0
	strb.w	r0, [r1, #80]
	b	.LBB9_20
.Ltmp270:
.LBB9_20:
	.loc	7 1432 10 is_stmt 1             @ ../Library/STM32F4xx_HAL_Driver/Src/stm32f4xx_hal_spi.c:1432:10
	ldrb.w	r0, [sp, #1]
	.loc	7 1432 3 is_stmt 0              @ ../Library/STM32F4xx_HAL_Driver/Src/stm32f4xx_hal_spi.c:1432:3
	strb.w	r0, [sp, #15]
	b	.LBB9_21
.LBB9_21:
	.loc	7 1433 1 is_stmt 1              @ ../Library/STM32F4xx_HAL_Driver/Src/stm32f4xx_hal_spi.c:1433:1
	ldrb.w	r0, [sp, #15]
	add	sp, #16
	bx	lr
.Ltmp271:
.Lfunc_end9:
	.size	HAL_SPI_Transmit_IT, .Lfunc_end9-HAL_SPI_Transmit_IT
	.cfi_endproc
	.cantunwind
	.fnend
                                        @ -- End function
	.section	.text.SPI_TxISR_16BIT,"ax",%progbits
	.p2align	2                               @ -- Begin function SPI_TxISR_16BIT
	.type	SPI_TxISR_16BIT,%function
	.code	16                              @ @SPI_TxISR_16BIT
	.thumb_func
SPI_TxISR_16BIT:
.Lfunc_begin10:
	.loc	7 3452 0                        @ ../Library/STM32F4xx_HAL_Driver/Src/stm32f4xx_hal_spi.c:3452:0
	.fnstart
	.cfi_startproc
@ %bb.0:
	.save	{r7, lr}
	push	{r7, lr}
	.cfi_def_cfa_offset 8
	.cfi_offset lr, -4
	.cfi_offset r7, -8
	.pad	#8
	sub	sp, #8
	.cfi_def_cfa_offset 16
	str	r0, [sp, #4]
.Ltmp272:
	.loc	7 3454 38 prologue_end          @ ../Library/STM32F4xx_HAL_Driver/Src/stm32f4xx_hal_spi.c:3454:38
	ldr	r0, [sp, #4]
	.loc	7 3454 9 is_stmt 0              @ ../Library/STM32F4xx_HAL_Driver/Src/stm32f4xx_hal_spi.c:3454:9
	ldr	r1, [r0]
	.loc	7 3454 44                       @ ../Library/STM32F4xx_HAL_Driver/Src/stm32f4xx_hal_spi.c:3454:44
	ldr	r0, [r0, #48]
	.loc	7 3454 24                       @ ../Library/STM32F4xx_HAL_Driver/Src/stm32f4xx_hal_spi.c:3454:24
	ldrh	r0, [r0]
	.loc	7 3454 22                       @ ../Library/STM32F4xx_HAL_Driver/Src/stm32f4xx_hal_spi.c:3454:22
	str	r0, [r1, #12]
	.loc	7 3455 3 is_stmt 1              @ ../Library/STM32F4xx_HAL_Driver/Src/stm32f4xx_hal_spi.c:3455:3
	ldr	r1, [sp, #4]
	.loc	7 3455 20 is_stmt 0             @ ../Library/STM32F4xx_HAL_Driver/Src/stm32f4xx_hal_spi.c:3455:20
	ldr	r0, [r1, #48]
	adds	r0, #2
	str	r0, [r1, #48]
	.loc	7 3456 3 is_stmt 1              @ ../Library/STM32F4xx_HAL_Driver/Src/stm32f4xx_hal_spi.c:3456:3
	ldr	r1, [sp, #4]
	.loc	7 3456 20 is_stmt 0             @ ../Library/STM32F4xx_HAL_Driver/Src/stm32f4xx_hal_spi.c:3456:20
	ldrh	r0, [r1, #54]
	subs	r0, #1
	strh	r0, [r1, #54]
.Ltmp273:
	.loc	7 3458 7 is_stmt 1              @ ../Library/STM32F4xx_HAL_Driver/Src/stm32f4xx_hal_spi.c:3458:7
	ldr	r0, [sp, #4]
	.loc	7 3458 13 is_stmt 0             @ ../Library/STM32F4xx_HAL_Driver/Src/stm32f4xx_hal_spi.c:3458:13
	ldrh	r0, [r0, #54]
.Ltmp274:
	.loc	7 3458 7                        @ ../Library/STM32F4xx_HAL_Driver/Src/stm32f4xx_hal_spi.c:3458:7
	cbnz	r0, .LBB10_2
	b	.LBB10_1
.LBB10_1:
.Ltmp275:
	.loc	7 3467 21 is_stmt 1             @ ../Library/STM32F4xx_HAL_Driver/Src/stm32f4xx_hal_spi.c:3467:21
	ldr	r0, [sp, #4]
	.loc	7 3467 5 is_stmt 0              @ ../Library/STM32F4xx_HAL_Driver/Src/stm32f4xx_hal_spi.c:3467:5
	bl	SPI_CloseTx_ISR
	.loc	7 3468 3 is_stmt 1              @ ../Library/STM32F4xx_HAL_Driver/Src/stm32f4xx_hal_spi.c:3468:3
	b	.LBB10_2
.Ltmp276:
.LBB10_2:
	.loc	7 3469 1                        @ ../Library/STM32F4xx_HAL_Driver/Src/stm32f4xx_hal_spi.c:3469:1
	add	sp, #8
	pop	{r7, pc}
.Ltmp277:
.Lfunc_end10:
	.size	SPI_TxISR_16BIT, .Lfunc_end10-SPI_TxISR_16BIT
	.cfi_endproc
	.cantunwind
	.fnend
                                        @ -- End function
	.section	.text.SPI_TxISR_8BIT,"ax",%progbits
	.p2align	2                               @ -- Begin function SPI_TxISR_8BIT
	.type	SPI_TxISR_8BIT,%function
	.code	16                              @ @SPI_TxISR_8BIT
	.thumb_func
SPI_TxISR_8BIT:
.Lfunc_begin11:
	.loc	7 3427 0                        @ ../Library/STM32F4xx_HAL_Driver/Src/stm32f4xx_hal_spi.c:3427:0
	.fnstart
	.cfi_startproc
@ %bb.0:
	.save	{r7, lr}
	push	{r7, lr}
	.cfi_def_cfa_offset 8
	.cfi_offset lr, -4
	.cfi_offset r7, -8
	.pad	#8
	sub	sp, #8
	.cfi_def_cfa_offset 16
	str	r0, [sp, #4]
.Ltmp278:
	.loc	7 3428 44 prologue_end          @ ../Library/STM32F4xx_HAL_Driver/Src/stm32f4xx_hal_spi.c:3428:44
	ldr	r0, [sp, #4]
	.loc	7 3428 27 is_stmt 0             @ ../Library/STM32F4xx_HAL_Driver/Src/stm32f4xx_hal_spi.c:3428:27
	ldr	r1, [r0]
	.loc	7 3428 50                       @ ../Library/STM32F4xx_HAL_Driver/Src/stm32f4xx_hal_spi.c:3428:50
	ldr	r0, [r0, #48]
	.loc	7 3428 43                       @ ../Library/STM32F4xx_HAL_Driver/Src/stm32f4xx_hal_spi.c:3428:43
	ldrb	r0, [r0]
	.loc	7 3428 40                       @ ../Library/STM32F4xx_HAL_Driver/Src/stm32f4xx_hal_spi.c:3428:40
	strb	r0, [r1, #12]
	.loc	7 3429 3 is_stmt 1              @ ../Library/STM32F4xx_HAL_Driver/Src/stm32f4xx_hal_spi.c:3429:3
	ldr	r1, [sp, #4]
	.loc	7 3429 19 is_stmt 0             @ ../Library/STM32F4xx_HAL_Driver/Src/stm32f4xx_hal_spi.c:3429:19
	ldr	r0, [r1, #48]
	adds	r0, #1
	str	r0, [r1, #48]
	.loc	7 3430 3 is_stmt 1              @ ../Library/STM32F4xx_HAL_Driver/Src/stm32f4xx_hal_spi.c:3430:3
	ldr	r1, [sp, #4]
	.loc	7 3430 20 is_stmt 0             @ ../Library/STM32F4xx_HAL_Driver/Src/stm32f4xx_hal_spi.c:3430:20
	ldrh	r0, [r1, #54]
	subs	r0, #1
	strh	r0, [r1, #54]
.Ltmp279:
	.loc	7 3432 7 is_stmt 1              @ ../Library/STM32F4xx_HAL_Driver/Src/stm32f4xx_hal_spi.c:3432:7
	ldr	r0, [sp, #4]
	.loc	7 3432 13 is_stmt 0             @ ../Library/STM32F4xx_HAL_Driver/Src/stm32f4xx_hal_spi.c:3432:13
	ldrh	r0, [r0, #54]
.Ltmp280:
	.loc	7 3432 7                        @ ../Library/STM32F4xx_HAL_Driver/Src/stm32f4xx_hal_spi.c:3432:7
	cbnz	r0, .LBB11_2
	b	.LBB11_1
.LBB11_1:
.Ltmp281:
	.loc	7 3441 21 is_stmt 1             @ ../Library/STM32F4xx_HAL_Driver/Src/stm32f4xx_hal_spi.c:3441:21
	ldr	r0, [sp, #4]
	.loc	7 3441 5 is_stmt 0              @ ../Library/STM32F4xx_HAL_Driver/Src/stm32f4xx_hal_spi.c:3441:5
	bl	SPI_CloseTx_ISR
	.loc	7 3442 3 is_stmt 1              @ ../Library/STM32F4xx_HAL_Driver/Src/stm32f4xx_hal_spi.c:3442:3
	b	.LBB11_2
.Ltmp282:
.LBB11_2:
	.loc	7 3443 1                        @ ../Library/STM32F4xx_HAL_Driver/Src/stm32f4xx_hal_spi.c:3443:1
	add	sp, #8
	pop	{r7, pc}
.Ltmp283:
.Lfunc_end11:
	.size	SPI_TxISR_8BIT, .Lfunc_end11-SPI_TxISR_8BIT
	.cfi_endproc
	.cantunwind
	.fnend
                                        @ -- End function
	.section	.text.HAL_SPI_Receive_IT,"ax",%progbits
	.hidden	HAL_SPI_Receive_IT              @ -- Begin function HAL_SPI_Receive_IT
	.globl	HAL_SPI_Receive_IT
	.p2align	2
	.type	HAL_SPI_Receive_IT,%function
	.code	16                              @ @HAL_SPI_Receive_IT
	.thumb_func
HAL_SPI_Receive_IT:
.Lfunc_begin12:
	.loc	7 1444 0                        @ ../Library/STM32F4xx_HAL_Driver/Src/stm32f4xx_hal_spi.c:1444:0
	.fnstart
	.cfi_startproc
@ %bb.0:
	.save	{r7, lr}
	push	{r7, lr}
	.cfi_def_cfa_offset 8
	.cfi_offset lr, -4
	.cfi_offset r7, -8
	.pad	#16
	sub	sp, #16
	.cfi_def_cfa_offset 24
                                        @ kill: def $r3 killed $r2
	str	r0, [sp, #8]
	str	r1, [sp, #4]
	strh.w	r2, [sp, #2]
	movs	r0, #0
.Ltmp284:
	.loc	7 1445 21 prologue_end          @ ../Library/STM32F4xx_HAL_Driver/Src/stm32f4xx_hal_spi.c:1445:21
	strb.w	r0, [sp, #1]
.Ltmp285:
	.loc	7 1447 8                        @ ../Library/STM32F4xx_HAL_Driver/Src/stm32f4xx_hal_spi.c:1447:8
	ldr	r0, [sp, #8]
	.loc	7 1447 19 is_stmt 0             @ ../Library/STM32F4xx_HAL_Driver/Src/stm32f4xx_hal_spi.c:1447:19
	ldr	r0, [r0, #8]
	.loc	7 1447 54                       @ ../Library/STM32F4xx_HAL_Driver/Src/stm32f4xx_hal_spi.c:1447:54
	cbnz	r0, .LBB12_3
	b	.LBB12_1
.LBB12_1:
	.loc	7 1447 58                       @ ../Library/STM32F4xx_HAL_Driver/Src/stm32f4xx_hal_spi.c:1447:58
	ldr	r0, [sp, #8]
	.loc	7 1447 69                       @ ../Library/STM32F4xx_HAL_Driver/Src/stm32f4xx_hal_spi.c:1447:69
	ldr	r0, [r0, #4]
.Ltmp286:
	.loc	7 1447 7                        @ ../Library/STM32F4xx_HAL_Driver/Src/stm32f4xx_hal_spi.c:1447:7
	cmp.w	r0, #260
	bne	.LBB12_3
	b	.LBB12_2
.LBB12_2:
.Ltmp287:
	.loc	7 1449 5 is_stmt 1              @ ../Library/STM32F4xx_HAL_Driver/Src/stm32f4xx_hal_spi.c:1449:5
	ldr	r1, [sp, #8]
	movs	r0, #4
	.loc	7 1449 17 is_stmt 0             @ ../Library/STM32F4xx_HAL_Driver/Src/stm32f4xx_hal_spi.c:1449:17
	strb.w	r0, [r1, #81]
	.loc	7 1451 39 is_stmt 1             @ ../Library/STM32F4xx_HAL_Driver/Src/stm32f4xx_hal_spi.c:1451:39
	ldr	r0, [sp, #8]
	.loc	7 1451 45 is_stmt 0             @ ../Library/STM32F4xx_HAL_Driver/Src/stm32f4xx_hal_spi.c:1451:45
	ldr	r2, [sp, #4]
	.loc	7 1451 59                       @ ../Library/STM32F4xx_HAL_Driver/Src/stm32f4xx_hal_spi.c:1451:59
	ldrh.w	r3, [sp, #2]
	.loc	7 1451 12                       @ ../Library/STM32F4xx_HAL_Driver/Src/stm32f4xx_hal_spi.c:1451:12
	mov	r1, r2
	bl	HAL_SPI_TransmitReceive_IT
	.loc	7 1451 5                        @ ../Library/STM32F4xx_HAL_Driver/Src/stm32f4xx_hal_spi.c:1451:5
	strb.w	r0, [sp, #15]
	b	.LBB12_24
.Ltmp288:
.LBB12_3:
	.loc	7 1455 3 is_stmt 1              @ ../Library/STM32F4xx_HAL_Driver/Src/stm32f4xx_hal_spi.c:1455:3
	b	.LBB12_4
.LBB12_4:
.Ltmp289:
	.loc	7 1455 3 is_stmt 0              @ ../Library/STM32F4xx_HAL_Driver/Src/stm32f4xx_hal_spi.c:1455:3
	ldr	r0, [sp, #8]
	ldrb.w	r0, [r0, #80]
.Ltmp290:
	.loc	7 1455 3                        @ ../Library/STM32F4xx_HAL_Driver/Src/stm32f4xx_hal_spi.c:1455:3
	cmp	r0, #1
	bne	.LBB12_6
	b	.LBB12_5
.LBB12_5:
	.loc	7 0 3                           @ ../Library/STM32F4xx_HAL_Driver/Src/stm32f4xx_hal_spi.c:0:3
	movs	r0, #2
.Ltmp291:
	.loc	7 1455 3                        @ ../Library/STM32F4xx_HAL_Driver/Src/stm32f4xx_hal_spi.c:1455:3
	strb.w	r0, [sp, #15]
	b	.LBB12_24
.Ltmp292:
.LBB12_6:
	.loc	7 1455 3                        @ ../Library/STM32F4xx_HAL_Driver/Src/stm32f4xx_hal_spi.c:1455:3
	ldr	r1, [sp, #8]
	movs	r0, #1
	strb.w	r0, [r1, #80]
	b	.LBB12_7
.Ltmp293:
.LBB12_7:
	.loc	7 1455 3                        @ ../Library/STM32F4xx_HAL_Driver/Src/stm32f4xx_hal_spi.c:1455:3
	b	.LBB12_8
.Ltmp294:
.LBB12_8:
	.loc	7 1457 7 is_stmt 1              @ ../Library/STM32F4xx_HAL_Driver/Src/stm32f4xx_hal_spi.c:1457:7
	ldr	r0, [sp, #8]
	.loc	7 1457 13 is_stmt 0             @ ../Library/STM32F4xx_HAL_Driver/Src/stm32f4xx_hal_spi.c:1457:13
	ldrb.w	r0, [r0, #81]
.Ltmp295:
	.loc	7 1457 7                        @ ../Library/STM32F4xx_HAL_Driver/Src/stm32f4xx_hal_spi.c:1457:7
	cmp	r0, #1
	beq	.LBB12_10
	b	.LBB12_9
.LBB12_9:
	.loc	7 0 7                           @ ../Library/STM32F4xx_HAL_Driver/Src/stm32f4xx_hal_spi.c:0:7
	movs	r0, #2
.Ltmp296:
	.loc	7 1459 15 is_stmt 1             @ ../Library/STM32F4xx_HAL_Driver/Src/stm32f4xx_hal_spi.c:1459:15
	strb.w	r0, [sp, #1]
	.loc	7 1460 5                        @ ../Library/STM32F4xx_HAL_Driver/Src/stm32f4xx_hal_spi.c:1460:5
	b	.LBB12_21
.Ltmp297:
.LBB12_10:
	.loc	7 1463 8                        @ ../Library/STM32F4xx_HAL_Driver/Src/stm32f4xx_hal_spi.c:1463:8
	ldr	r0, [sp, #4]
	.loc	7 1463 23 is_stmt 0             @ ../Library/STM32F4xx_HAL_Driver/Src/stm32f4xx_hal_spi.c:1463:23
	cbz	r0, .LBB12_12
	b	.LBB12_11
.LBB12_11:
	.loc	7 1463 27                       @ ../Library/STM32F4xx_HAL_Driver/Src/stm32f4xx_hal_spi.c:1463:27
	ldrh.w	r0, [sp, #2]
.Ltmp298:
	.loc	7 1463 7                        @ ../Library/STM32F4xx_HAL_Driver/Src/stm32f4xx_hal_spi.c:1463:7
	cbnz	r0, .LBB12_13
	b	.LBB12_12
.LBB12_12:
	.loc	7 0 7                           @ ../Library/STM32F4xx_HAL_Driver/Src/stm32f4xx_hal_spi.c:0:7
	movs	r0, #1
.Ltmp299:
	.loc	7 1465 15 is_stmt 1             @ ../Library/STM32F4xx_HAL_Driver/Src/stm32f4xx_hal_spi.c:1465:15
	strb.w	r0, [sp, #1]
	.loc	7 1466 5                        @ ../Library/STM32F4xx_HAL_Driver/Src/stm32f4xx_hal_spi.c:1466:5
	b	.LBB12_21
.Ltmp300:
.LBB12_13:
	.loc	7 1470 3                        @ ../Library/STM32F4xx_HAL_Driver/Src/stm32f4xx_hal_spi.c:1470:3
	ldr	r1, [sp, #8]
	movs	r0, #4
	.loc	7 1470 21 is_stmt 0             @ ../Library/STM32F4xx_HAL_Driver/Src/stm32f4xx_hal_spi.c:1470:21
	strb.w	r0, [r1, #81]
	.loc	7 1471 3 is_stmt 1              @ ../Library/STM32F4xx_HAL_Driver/Src/stm32f4xx_hal_spi.c:1471:3
	ldr	r1, [sp, #8]
	movs	r0, #0
	.loc	7 1471 21 is_stmt 0             @ ../Library/STM32F4xx_HAL_Driver/Src/stm32f4xx_hal_spi.c:1471:21
	str	r0, [r1, #84]
	.loc	7 1472 34 is_stmt 1             @ ../Library/STM32F4xx_HAL_Driver/Src/stm32f4xx_hal_spi.c:1472:34
	ldr	r1, [sp, #4]
	.loc	7 1472 3 is_stmt 0              @ ../Library/STM32F4xx_HAL_Driver/Src/stm32f4xx_hal_spi.c:1472:3
	ldr	r2, [sp, #8]
	.loc	7 1472 21                       @ ../Library/STM32F4xx_HAL_Driver/Src/stm32f4xx_hal_spi.c:1472:21
	str	r1, [r2, #56]
	.loc	7 1473 23 is_stmt 1             @ ../Library/STM32F4xx_HAL_Driver/Src/stm32f4xx_hal_spi.c:1473:23
	ldrh.w	r1, [sp, #2]
	.loc	7 1473 3 is_stmt 0              @ ../Library/STM32F4xx_HAL_Driver/Src/stm32f4xx_hal_spi.c:1473:3
	ldr	r2, [sp, #8]
	.loc	7 1473 21                       @ ../Library/STM32F4xx_HAL_Driver/Src/stm32f4xx_hal_spi.c:1473:21
	strh	r1, [r2, #60]
	.loc	7 1474 23 is_stmt 1             @ ../Library/STM32F4xx_HAL_Driver/Src/stm32f4xx_hal_spi.c:1474:23
	ldrh.w	r1, [sp, #2]
	.loc	7 1474 3 is_stmt 0              @ ../Library/STM32F4xx_HAL_Driver/Src/stm32f4xx_hal_spi.c:1474:3
	ldr	r2, [sp, #8]
	.loc	7 1474 21                       @ ../Library/STM32F4xx_HAL_Driver/Src/stm32f4xx_hal_spi.c:1474:21
	strh	r1, [r2, #62]
	.loc	7 1477 3 is_stmt 1              @ ../Library/STM32F4xx_HAL_Driver/Src/stm32f4xx_hal_spi.c:1477:3
	ldr	r1, [sp, #8]
	.loc	7 1477 21 is_stmt 0             @ ../Library/STM32F4xx_HAL_Driver/Src/stm32f4xx_hal_spi.c:1477:21
	str	r0, [r1, #48]
	.loc	7 1478 3 is_stmt 1              @ ../Library/STM32F4xx_HAL_Driver/Src/stm32f4xx_hal_spi.c:1478:3
	ldr	r1, [sp, #8]
	.loc	7 1478 21 is_stmt 0             @ ../Library/STM32F4xx_HAL_Driver/Src/stm32f4xx_hal_spi.c:1478:21
	strh	r0, [r1, #52]
	.loc	7 1479 3 is_stmt 1              @ ../Library/STM32F4xx_HAL_Driver/Src/stm32f4xx_hal_spi.c:1479:3
	ldr	r1, [sp, #8]
	.loc	7 1479 21 is_stmt 0             @ ../Library/STM32F4xx_HAL_Driver/Src/stm32f4xx_hal_spi.c:1479:21
	strh	r0, [r1, #54]
	.loc	7 1480 3 is_stmt 1              @ ../Library/STM32F4xx_HAL_Driver/Src/stm32f4xx_hal_spi.c:1480:3
	ldr	r1, [sp, #8]
	.loc	7 1480 21 is_stmt 0             @ ../Library/STM32F4xx_HAL_Driver/Src/stm32f4xx_hal_spi.c:1480:21
	str	r0, [r1, #68]
.Ltmp301:
	.loc	7 1483 7 is_stmt 1              @ ../Library/STM32F4xx_HAL_Driver/Src/stm32f4xx_hal_spi.c:1483:7
	ldr	r0, [sp, #8]
	.loc	7 1483 18 is_stmt 0             @ ../Library/STM32F4xx_HAL_Driver/Src/stm32f4xx_hal_spi.c:1483:18
	ldr	r0, [r0, #12]
.Ltmp302:
	.loc	7 1483 7                        @ ../Library/STM32F4xx_HAL_Driver/Src/stm32f4xx_hal_spi.c:1483:7
	cbz	r0, .LBB12_15
	b	.LBB12_14
.LBB12_14:
.Ltmp303:
	.loc	7 1485 5 is_stmt 1              @ ../Library/STM32F4xx_HAL_Driver/Src/stm32f4xx_hal_spi.c:1485:5
	ldr	r1, [sp, #8]
	.loc	7 1485 17 is_stmt 0             @ ../Library/STM32F4xx_HAL_Driver/Src/stm32f4xx_hal_spi.c:1485:17
	movw	r0, :lower16:SPI_RxISR_16BIT
	movt	r0, :upper16:SPI_RxISR_16BIT
	str	r0, [r1, #64]
	.loc	7 1486 3 is_stmt 1              @ ../Library/STM32F4xx_HAL_Driver/Src/stm32f4xx_hal_spi.c:1486:3
	b	.LBB12_16
.Ltmp304:
.LBB12_15:
	.loc	7 1489 5                        @ ../Library/STM32F4xx_HAL_Driver/Src/stm32f4xx_hal_spi.c:1489:5
	ldr	r1, [sp, #8]
	.loc	7 1489 17 is_stmt 0             @ ../Library/STM32F4xx_HAL_Driver/Src/stm32f4xx_hal_spi.c:1489:17
	movw	r0, :lower16:SPI_RxISR_8BIT
	movt	r0, :upper16:SPI_RxISR_8BIT
	str	r0, [r1, #64]
	b	.LBB12_16
.Ltmp305:
.LBB12_16:
	.loc	7 1493 7 is_stmt 1              @ ../Library/STM32F4xx_HAL_Driver/Src/stm32f4xx_hal_spi.c:1493:7
	ldr	r0, [sp, #8]
	.loc	7 1493 18 is_stmt 0             @ ../Library/STM32F4xx_HAL_Driver/Src/stm32f4xx_hal_spi.c:1493:18
	ldr	r0, [r0, #8]
.Ltmp306:
	.loc	7 1493 7                        @ ../Library/STM32F4xx_HAL_Driver/Src/stm32f4xx_hal_spi.c:1493:7
	cmp.w	r0, #32768
	bne	.LBB12_18
	b	.LBB12_17
.LBB12_17:
.Ltmp307:
	.loc	7 1496 5 is_stmt 1              @ ../Library/STM32F4xx_HAL_Driver/Src/stm32f4xx_hal_spi.c:1496:5
	ldr	r0, [sp, #8]
	ldr	r1, [r0]
	ldr	r0, [r1]
	bic	r0, r0, #64
	str	r0, [r1]
	.loc	7 1497 5                        @ ../Library/STM32F4xx_HAL_Driver/Src/stm32f4xx_hal_spi.c:1497:5
	ldr	r0, [sp, #8]
	ldr	r1, [r0]
	ldr	r0, [r1]
	bic	r0, r0, #16384
	str	r0, [r1]
	.loc	7 1498 3                        @ ../Library/STM32F4xx_HAL_Driver/Src/stm32f4xx_hal_spi.c:1498:3
	b	.LBB12_18
.Ltmp308:
.LBB12_18:
	.loc	7 1509 3                        @ ../Library/STM32F4xx_HAL_Driver/Src/stm32f4xx_hal_spi.c:1509:3
	ldr	r0, [sp, #8]
	ldr	r1, [r0]
	ldr	r0, [r1, #4]
	orr	r0, r0, #96
	str	r0, [r1, #4]
.Ltmp309:
	.loc	7 1516 8                        @ ../Library/STM32F4xx_HAL_Driver/Src/stm32f4xx_hal_spi.c:1516:8
	ldr	r0, [sp, #8]
	.loc	7 1516 14 is_stmt 0             @ ../Library/STM32F4xx_HAL_Driver/Src/stm32f4xx_hal_spi.c:1516:14
	ldr	r0, [r0]
	.loc	7 1516 24                       @ ../Library/STM32F4xx_HAL_Driver/Src/stm32f4xx_hal_spi.c:1516:24
	ldr	r0, [r0]
	.loc	7 1516 28                       @ ../Library/STM32F4xx_HAL_Driver/Src/stm32f4xx_hal_spi.c:1516:28
	and	r0, r0, #64
.Ltmp310:
	.loc	7 1516 7                        @ ../Library/STM32F4xx_HAL_Driver/Src/stm32f4xx_hal_spi.c:1516:7
	cmp	r0, #64
	beq	.LBB12_20
	b	.LBB12_19
.LBB12_19:
.Ltmp311:
	.loc	7 1519 5 is_stmt 1              @ ../Library/STM32F4xx_HAL_Driver/Src/stm32f4xx_hal_spi.c:1519:5
	ldr	r0, [sp, #8]
	ldr	r1, [r0]
	ldr	r0, [r1]
	orr	r0, r0, #64
	str	r0, [r1]
	.loc	7 1520 3                        @ ../Library/STM32F4xx_HAL_Driver/Src/stm32f4xx_hal_spi.c:1520:3
	b	.LBB12_20
.Ltmp312:
.LBB12_20:
	.loc	7 1516 46                       @ ../Library/STM32F4xx_HAL_Driver/Src/stm32f4xx_hal_spi.c:1516:46
	b	.LBB12_21
.Ltmp313:
.LBB12_21:
	@DEBUG_LABEL: HAL_SPI_Receive_IT:error
	.loc	7 1524 3                        @ ../Library/STM32F4xx_HAL_Driver/Src/stm32f4xx_hal_spi.c:1524:3
	b	.LBB12_22
.LBB12_22:
.Ltmp314:
	.loc	7 1524 3 is_stmt 0              @ ../Library/STM32F4xx_HAL_Driver/Src/stm32f4xx_hal_spi.c:1524:3
	ldr	r1, [sp, #8]
	movs	r0, #0
	strb.w	r0, [r1, #80]
	b	.LBB12_23
.Ltmp315:
.LBB12_23:
	.loc	7 1525 10 is_stmt 1             @ ../Library/STM32F4xx_HAL_Driver/Src/stm32f4xx_hal_spi.c:1525:10
	ldrb.w	r0, [sp, #1]
	.loc	7 1525 3 is_stmt 0              @ ../Library/STM32F4xx_HAL_Driver/Src/stm32f4xx_hal_spi.c:1525:3
	strb.w	r0, [sp, #15]
	b	.LBB12_24
.LBB12_24:
	.loc	7 1526 1 is_stmt 1              @ ../Library/STM32F4xx_HAL_Driver/Src/stm32f4xx_hal_spi.c:1526:1
	ldrb.w	r0, [sp, #15]
	add	sp, #16
	pop	{r7, pc}
.Ltmp316:
.Lfunc_end12:
	.size	HAL_SPI_Receive_IT, .Lfunc_end12-HAL_SPI_Receive_IT
	.cfi_endproc
	.cantunwind
	.fnend
                                        @ -- End function
	.section	.text.HAL_SPI_TransmitReceive_IT,"ax",%progbits
	.hidden	HAL_SPI_TransmitReceive_IT      @ -- Begin function HAL_SPI_TransmitReceive_IT
	.globl	HAL_SPI_TransmitReceive_IT
	.p2align	2
	.type	HAL_SPI_TransmitReceive_IT,%function
	.code	16                              @ @HAL_SPI_TransmitReceive_IT
	.thumb_func
HAL_SPI_TransmitReceive_IT:
.Lfunc_begin13:
	.loc	7 1538 0                        @ ../Library/STM32F4xx_HAL_Driver/Src/stm32f4xx_hal_spi.c:1538:0
	.fnstart
	.cfi_startproc
@ %bb.0:
	.pad	#28
	sub	sp, #28
	.cfi_def_cfa_offset 28
                                        @ kill: def $r12 killed $r3
	str	r0, [sp, #20]
	str	r1, [sp, #16]
	str	r2, [sp, #12]
	strh.w	r3, [sp, #10]
	movs	r0, #0
.Ltmp317:
	.loc	7 1541 24 prologue_end          @ ../Library/STM32F4xx_HAL_Driver/Src/stm32f4xx_hal_spi.c:1541:24
	strb.w	r0, [sp, #2]
	.loc	7 1547 3                        @ ../Library/STM32F4xx_HAL_Driver/Src/stm32f4xx_hal_spi.c:1547:3
	b	.LBB13_1
.LBB13_1:
.Ltmp318:
	.loc	7 1547 3 is_stmt 0              @ ../Library/STM32F4xx_HAL_Driver/Src/stm32f4xx_hal_spi.c:1547:3
	ldr	r0, [sp, #20]
	ldrb.w	r0, [r0, #80]
.Ltmp319:
	.loc	7 1547 3                        @ ../Library/STM32F4xx_HAL_Driver/Src/stm32f4xx_hal_spi.c:1547:3
	cmp	r0, #1
	bne	.LBB13_3
	b	.LBB13_2
.LBB13_2:
	.loc	7 0 3                           @ ../Library/STM32F4xx_HAL_Driver/Src/stm32f4xx_hal_spi.c:0:3
	movs	r0, #2
.Ltmp320:
	.loc	7 1547 3                        @ ../Library/STM32F4xx_HAL_Driver/Src/stm32f4xx_hal_spi.c:1547:3
	strb.w	r0, [sp, #27]
	b	.LBB13_25
.Ltmp321:
.LBB13_3:
	.loc	7 1547 3                        @ ../Library/STM32F4xx_HAL_Driver/Src/stm32f4xx_hal_spi.c:1547:3
	ldr	r1, [sp, #20]
	movs	r0, #1
	strb.w	r0, [r1, #80]
	b	.LBB13_4
.Ltmp322:
.LBB13_4:
	.loc	7 1547 3                        @ ../Library/STM32F4xx_HAL_Driver/Src/stm32f4xx_hal_spi.c:1547:3
	b	.LBB13_5
.Ltmp323:
.LBB13_5:
	.loc	7 1550 25 is_stmt 1             @ ../Library/STM32F4xx_HAL_Driver/Src/stm32f4xx_hal_spi.c:1550:25
	ldr	r0, [sp, #20]
	.loc	7 1550 31 is_stmt 0             @ ../Library/STM32F4xx_HAL_Driver/Src/stm32f4xx_hal_spi.c:1550:31
	ldrb.w	r0, [r0, #81]
	.loc	7 1550 23                       @ ../Library/STM32F4xx_HAL_Driver/Src/stm32f4xx_hal_spi.c:1550:23
	strb.w	r0, [sp, #3]
	.loc	7 1551 25 is_stmt 1             @ ../Library/STM32F4xx_HAL_Driver/Src/stm32f4xx_hal_spi.c:1551:25
	ldr	r0, [sp, #20]
	.loc	7 1551 36 is_stmt 0             @ ../Library/STM32F4xx_HAL_Driver/Src/stm32f4xx_hal_spi.c:1551:36
	ldr	r0, [r0, #4]
	.loc	7 1551 23                       @ ../Library/STM32F4xx_HAL_Driver/Src/stm32f4xx_hal_spi.c:1551:23
	str	r0, [sp, #4]
.Ltmp324:
	.loc	7 1553 10 is_stmt 1             @ ../Library/STM32F4xx_HAL_Driver/Src/stm32f4xx_hal_spi.c:1553:10
	ldrb.w	r0, [sp, #3]
	.loc	7 1553 44 is_stmt 0             @ ../Library/STM32F4xx_HAL_Driver/Src/stm32f4xx_hal_spi.c:1553:44
	cmp	r0, #1
	beq	.LBB13_10
	b	.LBB13_6
.LBB13_6:
	.loc	7 1554 11 is_stmt 1             @ ../Library/STM32F4xx_HAL_Driver/Src/stm32f4xx_hal_spi.c:1554:11
	ldr	r0, [sp, #4]
	.loc	7 1554 40 is_stmt 0             @ ../Library/STM32F4xx_HAL_Driver/Src/stm32f4xx_hal_spi.c:1554:40
	cmp.w	r0, #260
	bne	.LBB13_9
	b	.LBB13_7
.LBB13_7:
	.loc	7 1554 44                       @ ../Library/STM32F4xx_HAL_Driver/Src/stm32f4xx_hal_spi.c:1554:44
	ldr	r0, [sp, #20]
	.loc	7 1554 55                       @ ../Library/STM32F4xx_HAL_Driver/Src/stm32f4xx_hal_spi.c:1554:55
	ldr	r0, [r0, #8]
	.loc	7 1554 90                       @ ../Library/STM32F4xx_HAL_Driver/Src/stm32f4xx_hal_spi.c:1554:90
	cbnz	r0, .LBB13_9
	b	.LBB13_8
.LBB13_8:
	.loc	7 1554 94                       @ ../Library/STM32F4xx_HAL_Driver/Src/stm32f4xx_hal_spi.c:1554:94
	ldrb.w	r0, [sp, #3]
.Ltmp325:
	.loc	7 1553 7 is_stmt 1              @ ../Library/STM32F4xx_HAL_Driver/Src/stm32f4xx_hal_spi.c:1553:7
	cmp	r0, #4
	beq	.LBB13_10
	b	.LBB13_9
.LBB13_9:
	.loc	7 0 7 is_stmt 0                 @ ../Library/STM32F4xx_HAL_Driver/Src/stm32f4xx_hal_spi.c:0:7
	movs	r0, #2
.Ltmp326:
	.loc	7 1556 15 is_stmt 1             @ ../Library/STM32F4xx_HAL_Driver/Src/stm32f4xx_hal_spi.c:1556:15
	strb.w	r0, [sp, #2]
	.loc	7 1557 5                        @ ../Library/STM32F4xx_HAL_Driver/Src/stm32f4xx_hal_spi.c:1557:5
	b	.LBB13_22
.Ltmp327:
.LBB13_10:
	.loc	7 1560 8                        @ ../Library/STM32F4xx_HAL_Driver/Src/stm32f4xx_hal_spi.c:1560:8
	ldr	r0, [sp, #16]
	.loc	7 1560 25 is_stmt 0             @ ../Library/STM32F4xx_HAL_Driver/Src/stm32f4xx_hal_spi.c:1560:25
	cbz	r0, .LBB13_13
	b	.LBB13_11
.LBB13_11:
	.loc	7 1560 29                       @ ../Library/STM32F4xx_HAL_Driver/Src/stm32f4xx_hal_spi.c:1560:29
	ldr	r0, [sp, #12]
	.loc	7 1560 46                       @ ../Library/STM32F4xx_HAL_Driver/Src/stm32f4xx_hal_spi.c:1560:46
	cbz	r0, .LBB13_13
	b	.LBB13_12
.LBB13_12:
	.loc	7 1560 50                       @ ../Library/STM32F4xx_HAL_Driver/Src/stm32f4xx_hal_spi.c:1560:50
	ldrh.w	r0, [sp, #10]
.Ltmp328:
	.loc	7 1560 7                        @ ../Library/STM32F4xx_HAL_Driver/Src/stm32f4xx_hal_spi.c:1560:7
	cbnz	r0, .LBB13_14
	b	.LBB13_13
.LBB13_13:
	.loc	7 0 7                           @ ../Library/STM32F4xx_HAL_Driver/Src/stm32f4xx_hal_spi.c:0:7
	movs	r0, #1
.Ltmp329:
	.loc	7 1562 15 is_stmt 1             @ ../Library/STM32F4xx_HAL_Driver/Src/stm32f4xx_hal_spi.c:1562:15
	strb.w	r0, [sp, #2]
	.loc	7 1563 5                        @ ../Library/STM32F4xx_HAL_Driver/Src/stm32f4xx_hal_spi.c:1563:5
	b	.LBB13_22
.Ltmp330:
.LBB13_14:
	.loc	7 1567 7                        @ ../Library/STM32F4xx_HAL_Driver/Src/stm32f4xx_hal_spi.c:1567:7
	ldr	r0, [sp, #20]
	.loc	7 1567 13 is_stmt 0             @ ../Library/STM32F4xx_HAL_Driver/Src/stm32f4xx_hal_spi.c:1567:13
	ldrb.w	r0, [r0, #81]
.Ltmp331:
	.loc	7 1567 7                        @ ../Library/STM32F4xx_HAL_Driver/Src/stm32f4xx_hal_spi.c:1567:7
	cmp	r0, #4
	beq	.LBB13_16
	b	.LBB13_15
.LBB13_15:
.Ltmp332:
	.loc	7 1569 5 is_stmt 1              @ ../Library/STM32F4xx_HAL_Driver/Src/stm32f4xx_hal_spi.c:1569:5
	ldr	r1, [sp, #20]
	movs	r0, #5
	.loc	7 1569 17 is_stmt 0             @ ../Library/STM32F4xx_HAL_Driver/Src/stm32f4xx_hal_spi.c:1569:17
	strb.w	r0, [r1, #81]
	.loc	7 1570 3 is_stmt 1              @ ../Library/STM32F4xx_HAL_Driver/Src/stm32f4xx_hal_spi.c:1570:3
	b	.LBB13_16
.Ltmp333:
.LBB13_16:
	.loc	7 1573 3                        @ ../Library/STM32F4xx_HAL_Driver/Src/stm32f4xx_hal_spi.c:1573:3
	ldr	r1, [sp, #20]
	movs	r0, #0
	.loc	7 1573 21 is_stmt 0             @ ../Library/STM32F4xx_HAL_Driver/Src/stm32f4xx_hal_spi.c:1573:21
	str	r0, [r1, #84]
	.loc	7 1574 34 is_stmt 1             @ ../Library/STM32F4xx_HAL_Driver/Src/stm32f4xx_hal_spi.c:1574:34
	ldr	r0, [sp, #16]
	.loc	7 1574 3 is_stmt 0              @ ../Library/STM32F4xx_HAL_Driver/Src/stm32f4xx_hal_spi.c:1574:3
	ldr	r1, [sp, #20]
	.loc	7 1574 21                       @ ../Library/STM32F4xx_HAL_Driver/Src/stm32f4xx_hal_spi.c:1574:21
	str	r0, [r1, #48]
	.loc	7 1575 23 is_stmt 1             @ ../Library/STM32F4xx_HAL_Driver/Src/stm32f4xx_hal_spi.c:1575:23
	ldrh.w	r0, [sp, #10]
	.loc	7 1575 3 is_stmt 0              @ ../Library/STM32F4xx_HAL_Driver/Src/stm32f4xx_hal_spi.c:1575:3
	ldr	r1, [sp, #20]
	.loc	7 1575 21                       @ ../Library/STM32F4xx_HAL_Driver/Src/stm32f4xx_hal_spi.c:1575:21
	strh	r0, [r1, #52]
	.loc	7 1576 23 is_stmt 1             @ ../Library/STM32F4xx_HAL_Driver/Src/stm32f4xx_hal_spi.c:1576:23
	ldrh.w	r0, [sp, #10]
	.loc	7 1576 3 is_stmt 0              @ ../Library/STM32F4xx_HAL_Driver/Src/stm32f4xx_hal_spi.c:1576:3
	ldr	r1, [sp, #20]
	.loc	7 1576 21                       @ ../Library/STM32F4xx_HAL_Driver/Src/stm32f4xx_hal_spi.c:1576:21
	strh	r0, [r1, #54]
	.loc	7 1577 34 is_stmt 1             @ ../Library/STM32F4xx_HAL_Driver/Src/stm32f4xx_hal_spi.c:1577:34
	ldr	r0, [sp, #12]
	.loc	7 1577 3 is_stmt 0              @ ../Library/STM32F4xx_HAL_Driver/Src/stm32f4xx_hal_spi.c:1577:3
	ldr	r1, [sp, #20]
	.loc	7 1577 21                       @ ../Library/STM32F4xx_HAL_Driver/Src/stm32f4xx_hal_spi.c:1577:21
	str	r0, [r1, #56]
	.loc	7 1578 23 is_stmt 1             @ ../Library/STM32F4xx_HAL_Driver/Src/stm32f4xx_hal_spi.c:1578:23
	ldrh.w	r0, [sp, #10]
	.loc	7 1578 3 is_stmt 0              @ ../Library/STM32F4xx_HAL_Driver/Src/stm32f4xx_hal_spi.c:1578:3
	ldr	r1, [sp, #20]
	.loc	7 1578 21                       @ ../Library/STM32F4xx_HAL_Driver/Src/stm32f4xx_hal_spi.c:1578:21
	strh	r0, [r1, #60]
	.loc	7 1579 23 is_stmt 1             @ ../Library/STM32F4xx_HAL_Driver/Src/stm32f4xx_hal_spi.c:1579:23
	ldrh.w	r0, [sp, #10]
	.loc	7 1579 3 is_stmt 0              @ ../Library/STM32F4xx_HAL_Driver/Src/stm32f4xx_hal_spi.c:1579:3
	ldr	r1, [sp, #20]
	.loc	7 1579 21                       @ ../Library/STM32F4xx_HAL_Driver/Src/stm32f4xx_hal_spi.c:1579:21
	strh	r0, [r1, #62]
.Ltmp334:
	.loc	7 1582 7 is_stmt 1              @ ../Library/STM32F4xx_HAL_Driver/Src/stm32f4xx_hal_spi.c:1582:7
	ldr	r0, [sp, #20]
	.loc	7 1582 18 is_stmt 0             @ ../Library/STM32F4xx_HAL_Driver/Src/stm32f4xx_hal_spi.c:1582:18
	ldr	r0, [r0, #12]
.Ltmp335:
	.loc	7 1582 7                        @ ../Library/STM32F4xx_HAL_Driver/Src/stm32f4xx_hal_spi.c:1582:7
	cbz	r0, .LBB13_18
	b	.LBB13_17
.LBB13_17:
.Ltmp336:
	.loc	7 1584 5 is_stmt 1              @ ../Library/STM32F4xx_HAL_Driver/Src/stm32f4xx_hal_spi.c:1584:5
	ldr	r1, [sp, #20]
	.loc	7 1584 21 is_stmt 0             @ ../Library/STM32F4xx_HAL_Driver/Src/stm32f4xx_hal_spi.c:1584:21
	movw	r0, :lower16:SPI_2linesRxISR_16BIT
	movt	r0, :upper16:SPI_2linesRxISR_16BIT
	str	r0, [r1, #64]
	.loc	7 1585 5 is_stmt 1              @ ../Library/STM32F4xx_HAL_Driver/Src/stm32f4xx_hal_spi.c:1585:5
	ldr	r1, [sp, #20]
	.loc	7 1585 21 is_stmt 0             @ ../Library/STM32F4xx_HAL_Driver/Src/stm32f4xx_hal_spi.c:1585:21
	movw	r0, :lower16:SPI_2linesTxISR_16BIT
	movt	r0, :upper16:SPI_2linesTxISR_16BIT
	str	r0, [r1, #68]
	.loc	7 1586 3 is_stmt 1              @ ../Library/STM32F4xx_HAL_Driver/Src/stm32f4xx_hal_spi.c:1586:3
	b	.LBB13_19
.Ltmp337:
.LBB13_18:
	.loc	7 1589 5                        @ ../Library/STM32F4xx_HAL_Driver/Src/stm32f4xx_hal_spi.c:1589:5
	ldr	r1, [sp, #20]
	.loc	7 1589 21 is_stmt 0             @ ../Library/STM32F4xx_HAL_Driver/Src/stm32f4xx_hal_spi.c:1589:21
	movw	r0, :lower16:SPI_2linesRxISR_8BIT
	movt	r0, :upper16:SPI_2linesRxISR_8BIT
	str	r0, [r1, #64]
	.loc	7 1590 5 is_stmt 1              @ ../Library/STM32F4xx_HAL_Driver/Src/stm32f4xx_hal_spi.c:1590:5
	ldr	r1, [sp, #20]
	.loc	7 1590 21 is_stmt 0             @ ../Library/STM32F4xx_HAL_Driver/Src/stm32f4xx_hal_spi.c:1590:21
	movw	r0, :lower16:SPI_2linesTxISR_8BIT
	movt	r0, :upper16:SPI_2linesTxISR_8BIT
	str	r0, [r1, #68]
	b	.LBB13_19
.Ltmp338:
.LBB13_19:
	.loc	7 1602 3 is_stmt 1              @ ../Library/STM32F4xx_HAL_Driver/Src/stm32f4xx_hal_spi.c:1602:3
	ldr	r0, [sp, #20]
	ldr	r1, [r0]
	ldr	r0, [r1, #4]
	orr	r0, r0, #224
	str	r0, [r1, #4]
.Ltmp339:
	.loc	7 1605 8                        @ ../Library/STM32F4xx_HAL_Driver/Src/stm32f4xx_hal_spi.c:1605:8
	ldr	r0, [sp, #20]
	.loc	7 1605 14 is_stmt 0             @ ../Library/STM32F4xx_HAL_Driver/Src/stm32f4xx_hal_spi.c:1605:14
	ldr	r0, [r0]
	.loc	7 1605 24                       @ ../Library/STM32F4xx_HAL_Driver/Src/stm32f4xx_hal_spi.c:1605:24
	ldr	r0, [r0]
	.loc	7 1605 28                       @ ../Library/STM32F4xx_HAL_Driver/Src/stm32f4xx_hal_spi.c:1605:28
	and	r0, r0, #64
.Ltmp340:
	.loc	7 1605 7                        @ ../Library/STM32F4xx_HAL_Driver/Src/stm32f4xx_hal_spi.c:1605:7
	cmp	r0, #64
	beq	.LBB13_21
	b	.LBB13_20
.LBB13_20:
.Ltmp341:
	.loc	7 1608 5 is_stmt 1              @ ../Library/STM32F4xx_HAL_Driver/Src/stm32f4xx_hal_spi.c:1608:5
	ldr	r0, [sp, #20]
	ldr	r1, [r0]
	ldr	r0, [r1]
	orr	r0, r0, #64
	str	r0, [r1]
	.loc	7 1609 3                        @ ../Library/STM32F4xx_HAL_Driver/Src/stm32f4xx_hal_spi.c:1609:3
	b	.LBB13_21
.Ltmp342:
.LBB13_21:
	.loc	7 1605 46                       @ ../Library/STM32F4xx_HAL_Driver/Src/stm32f4xx_hal_spi.c:1605:46
	b	.LBB13_22
.Ltmp343:
.LBB13_22:
	@DEBUG_LABEL: HAL_SPI_TransmitReceive_IT:error
	.loc	7 1613 3                        @ ../Library/STM32F4xx_HAL_Driver/Src/stm32f4xx_hal_spi.c:1613:3
	b	.LBB13_23
.LBB13_23:
.Ltmp344:
	.loc	7 1613 3 is_stmt 0              @ ../Library/STM32F4xx_HAL_Driver/Src/stm32f4xx_hal_spi.c:1613:3
	ldr	r1, [sp, #20]
	movs	r0, #0
	strb.w	r0, [r1, #80]
	b	.LBB13_24
.Ltmp345:
.LBB13_24:
	.loc	7 1614 10 is_stmt 1             @ ../Library/STM32F4xx_HAL_Driver/Src/stm32f4xx_hal_spi.c:1614:10
	ldrb.w	r0, [sp, #2]
	.loc	7 1614 3 is_stmt 0              @ ../Library/STM32F4xx_HAL_Driver/Src/stm32f4xx_hal_spi.c:1614:3
	strb.w	r0, [sp, #27]
	b	.LBB13_25
.LBB13_25:
	.loc	7 1615 1 is_stmt 1              @ ../Library/STM32F4xx_HAL_Driver/Src/stm32f4xx_hal_spi.c:1615:1
	ldrb.w	r0, [sp, #27]
	add	sp, #28
	bx	lr
.Ltmp346:
.Lfunc_end13:
	.size	HAL_SPI_TransmitReceive_IT, .Lfunc_end13-HAL_SPI_TransmitReceive_IT
	.cfi_endproc
	.cantunwind
	.fnend
                                        @ -- End function
	.section	.text.SPI_RxISR_16BIT,"ax",%progbits
	.p2align	2                               @ -- Begin function SPI_RxISR_16BIT
	.type	SPI_RxISR_16BIT,%function
	.code	16                              @ @SPI_RxISR_16BIT
	.thumb_func
SPI_RxISR_16BIT:
.Lfunc_begin14:
	.loc	7 3394 0                        @ ../Library/STM32F4xx_HAL_Driver/Src/stm32f4xx_hal_spi.c:3394:0
	.fnstart
	.cfi_startproc
@ %bb.0:
	.save	{r7, lr}
	push	{r7, lr}
	.cfi_def_cfa_offset 8
	.cfi_offset lr, -4
	.cfi_offset r7, -8
	.pad	#8
	sub	sp, #8
	.cfi_def_cfa_offset 16
	str	r0, [sp, #4]
.Ltmp347:
	.loc	7 3395 48 prologue_end          @ ../Library/STM32F4xx_HAL_Driver/Src/stm32f4xx_hal_spi.c:3395:48
	ldr	r0, [sp, #4]
	.loc	7 3395 54 is_stmt 0             @ ../Library/STM32F4xx_HAL_Driver/Src/stm32f4xx_hal_spi.c:3395:54
	ldr	r0, [r0]
	.loc	7 3395 64                       @ ../Library/STM32F4xx_HAL_Driver/Src/stm32f4xx_hal_spi.c:3395:64
	ldr	r0, [r0, #12]
	.loc	7 3395 17                       @ ../Library/STM32F4xx_HAL_Driver/Src/stm32f4xx_hal_spi.c:3395:17
	ldr	r1, [sp, #4]
	.loc	7 3395 23                       @ ../Library/STM32F4xx_HAL_Driver/Src/stm32f4xx_hal_spi.c:3395:23
	ldr	r1, [r1, #56]
	.loc	7 3395 35                       @ ../Library/STM32F4xx_HAL_Driver/Src/stm32f4xx_hal_spi.c:3395:35
	strh	r0, [r1]
	.loc	7 3396 3 is_stmt 1              @ ../Library/STM32F4xx_HAL_Driver/Src/stm32f4xx_hal_spi.c:3396:3
	ldr	r1, [sp, #4]
	.loc	7 3396 20 is_stmt 0             @ ../Library/STM32F4xx_HAL_Driver/Src/stm32f4xx_hal_spi.c:3396:20
	ldr	r0, [r1, #56]
	adds	r0, #2
	str	r0, [r1, #56]
	.loc	7 3397 3 is_stmt 1              @ ../Library/STM32F4xx_HAL_Driver/Src/stm32f4xx_hal_spi.c:3397:3
	ldr	r1, [sp, #4]
	.loc	7 3397 20 is_stmt 0             @ ../Library/STM32F4xx_HAL_Driver/Src/stm32f4xx_hal_spi.c:3397:20
	ldrh	r0, [r1, #62]
	subs	r0, #1
	strh	r0, [r1, #62]
.Ltmp348:
	.loc	7 3407 7 is_stmt 1              @ ../Library/STM32F4xx_HAL_Driver/Src/stm32f4xx_hal_spi.c:3407:7
	ldr	r0, [sp, #4]
	.loc	7 3407 13 is_stmt 0             @ ../Library/STM32F4xx_HAL_Driver/Src/stm32f4xx_hal_spi.c:3407:13
	ldrh	r0, [r0, #62]
.Ltmp349:
	.loc	7 3407 7                        @ ../Library/STM32F4xx_HAL_Driver/Src/stm32f4xx_hal_spi.c:3407:7
	cbnz	r0, .LBB14_2
	b	.LBB14_1
.LBB14_1:
.Ltmp350:
	.loc	7 3416 21 is_stmt 1             @ ../Library/STM32F4xx_HAL_Driver/Src/stm32f4xx_hal_spi.c:3416:21
	ldr	r0, [sp, #4]
	.loc	7 3416 5 is_stmt 0              @ ../Library/STM32F4xx_HAL_Driver/Src/stm32f4xx_hal_spi.c:3416:5
	bl	SPI_CloseRx_ISR
	.loc	7 3417 3 is_stmt 1              @ ../Library/STM32F4xx_HAL_Driver/Src/stm32f4xx_hal_spi.c:3417:3
	b	.LBB14_2
.Ltmp351:
.LBB14_2:
	.loc	7 3418 1                        @ ../Library/STM32F4xx_HAL_Driver/Src/stm32f4xx_hal_spi.c:3418:1
	add	sp, #8
	pop	{r7, pc}
.Ltmp352:
.Lfunc_end14:
	.size	SPI_RxISR_16BIT, .Lfunc_end14-SPI_RxISR_16BIT
	.cfi_endproc
	.cantunwind
	.fnend
                                        @ -- End function
	.section	.text.SPI_RxISR_8BIT,"ax",%progbits
	.p2align	2                               @ -- Begin function SPI_RxISR_8BIT
	.type	SPI_RxISR_8BIT,%function
	.code	16                              @ @SPI_RxISR_8BIT
	.thumb_func
SPI_RxISR_8BIT:
.Lfunc_begin15:
	.loc	7 3338 0                        @ ../Library/STM32F4xx_HAL_Driver/Src/stm32f4xx_hal_spi.c:3338:0
	.fnstart
	.cfi_startproc
@ %bb.0:
	.save	{r7, lr}
	push	{r7, lr}
	.cfi_def_cfa_offset 8
	.cfi_offset lr, -4
	.cfi_offset r7, -8
	.pad	#8
	sub	sp, #8
	.cfi_def_cfa_offset 16
	str	r0, [sp, #4]
.Ltmp353:
	.loc	7 3339 42 prologue_end          @ ../Library/STM32F4xx_HAL_Driver/Src/stm32f4xx_hal_spi.c:3339:42
	ldr	r0, [sp, #4]
	.loc	7 3339 48 is_stmt 0             @ ../Library/STM32F4xx_HAL_Driver/Src/stm32f4xx_hal_spi.c:3339:48
	ldr	r0, [r0]
	.loc	7 3339 24                       @ ../Library/STM32F4xx_HAL_Driver/Src/stm32f4xx_hal_spi.c:3339:24
	ldrb	r0, [r0, #12]
	.loc	7 3339 4                        @ ../Library/STM32F4xx_HAL_Driver/Src/stm32f4xx_hal_spi.c:3339:4
	ldr	r1, [sp, #4]
	.loc	7 3339 10                       @ ../Library/STM32F4xx_HAL_Driver/Src/stm32f4xx_hal_spi.c:3339:10
	ldr	r1, [r1, #56]
	.loc	7 3339 21                       @ ../Library/STM32F4xx_HAL_Driver/Src/stm32f4xx_hal_spi.c:3339:21
	strb	r0, [r1]
	.loc	7 3340 3 is_stmt 1              @ ../Library/STM32F4xx_HAL_Driver/Src/stm32f4xx_hal_spi.c:3340:3
	ldr	r1, [sp, #4]
	.loc	7 3340 19 is_stmt 0             @ ../Library/STM32F4xx_HAL_Driver/Src/stm32f4xx_hal_spi.c:3340:19
	ldr	r0, [r1, #56]
	adds	r0, #1
	str	r0, [r1, #56]
	.loc	7 3341 3 is_stmt 1              @ ../Library/STM32F4xx_HAL_Driver/Src/stm32f4xx_hal_spi.c:3341:3
	ldr	r1, [sp, #4]
	.loc	7 3341 20 is_stmt 0             @ ../Library/STM32F4xx_HAL_Driver/Src/stm32f4xx_hal_spi.c:3341:20
	ldrh	r0, [r1, #62]
	subs	r0, #1
	strh	r0, [r1, #62]
.Ltmp354:
	.loc	7 3351 7 is_stmt 1              @ ../Library/STM32F4xx_HAL_Driver/Src/stm32f4xx_hal_spi.c:3351:7
	ldr	r0, [sp, #4]
	.loc	7 3351 13 is_stmt 0             @ ../Library/STM32F4xx_HAL_Driver/Src/stm32f4xx_hal_spi.c:3351:13
	ldrh	r0, [r0, #62]
.Ltmp355:
	.loc	7 3351 7                        @ ../Library/STM32F4xx_HAL_Driver/Src/stm32f4xx_hal_spi.c:3351:7
	cbnz	r0, .LBB15_2
	b	.LBB15_1
.LBB15_1:
.Ltmp356:
	.loc	7 3360 21 is_stmt 1             @ ../Library/STM32F4xx_HAL_Driver/Src/stm32f4xx_hal_spi.c:3360:21
	ldr	r0, [sp, #4]
	.loc	7 3360 5 is_stmt 0              @ ../Library/STM32F4xx_HAL_Driver/Src/stm32f4xx_hal_spi.c:3360:5
	bl	SPI_CloseRx_ISR
	.loc	7 3361 3 is_stmt 1              @ ../Library/STM32F4xx_HAL_Driver/Src/stm32f4xx_hal_spi.c:3361:3
	b	.LBB15_2
.Ltmp357:
.LBB15_2:
	.loc	7 3362 1                        @ ../Library/STM32F4xx_HAL_Driver/Src/stm32f4xx_hal_spi.c:3362:1
	add	sp, #8
	pop	{r7, pc}
.Ltmp358:
.Lfunc_end15:
	.size	SPI_RxISR_8BIT, .Lfunc_end15-SPI_RxISR_8BIT
	.cfi_endproc
	.cantunwind
	.fnend
                                        @ -- End function
	.section	.text.SPI_2linesRxISR_16BIT,"ax",%progbits
	.p2align	2                               @ -- Begin function SPI_2linesRxISR_16BIT
	.type	SPI_2linesRxISR_16BIT,%function
	.code	16                              @ @SPI_2linesRxISR_16BIT
	.thumb_func
SPI_2linesRxISR_16BIT:
.Lfunc_begin16:
	.loc	7 3222 0                        @ ../Library/STM32F4xx_HAL_Driver/Src/stm32f4xx_hal_spi.c:3222:0
	.fnstart
	.cfi_startproc
@ %bb.0:
	.save	{r7, lr}
	push	{r7, lr}
	.cfi_def_cfa_offset 8
	.cfi_offset lr, -4
	.cfi_offset r7, -8
	.pad	#8
	sub	sp, #8
	.cfi_def_cfa_offset 16
	str	r0, [sp, #4]
.Ltmp359:
	.loc	7 3224 48 prologue_end          @ ../Library/STM32F4xx_HAL_Driver/Src/stm32f4xx_hal_spi.c:3224:48
	ldr	r0, [sp, #4]
	.loc	7 3224 54 is_stmt 0             @ ../Library/STM32F4xx_HAL_Driver/Src/stm32f4xx_hal_spi.c:3224:54
	ldr	r0, [r0]
	.loc	7 3224 64                       @ ../Library/STM32F4xx_HAL_Driver/Src/stm32f4xx_hal_spi.c:3224:64
	ldr	r0, [r0, #12]
	.loc	7 3224 17                       @ ../Library/STM32F4xx_HAL_Driver/Src/stm32f4xx_hal_spi.c:3224:17
	ldr	r1, [sp, #4]
	.loc	7 3224 23                       @ ../Library/STM32F4xx_HAL_Driver/Src/stm32f4xx_hal_spi.c:3224:23
	ldr	r1, [r1, #56]
	.loc	7 3224 35                       @ ../Library/STM32F4xx_HAL_Driver/Src/stm32f4xx_hal_spi.c:3224:35
	strh	r0, [r1]
	.loc	7 3225 3 is_stmt 1              @ ../Library/STM32F4xx_HAL_Driver/Src/stm32f4xx_hal_spi.c:3225:3
	ldr	r1, [sp, #4]
	.loc	7 3225 20 is_stmt 0             @ ../Library/STM32F4xx_HAL_Driver/Src/stm32f4xx_hal_spi.c:3225:20
	ldr	r0, [r1, #56]
	adds	r0, #2
	str	r0, [r1, #56]
	.loc	7 3226 3 is_stmt 1              @ ../Library/STM32F4xx_HAL_Driver/Src/stm32f4xx_hal_spi.c:3226:3
	ldr	r1, [sp, #4]
	.loc	7 3226 20 is_stmt 0             @ ../Library/STM32F4xx_HAL_Driver/Src/stm32f4xx_hal_spi.c:3226:20
	ldrh	r0, [r1, #62]
	subs	r0, #1
	strh	r0, [r1, #62]
.Ltmp360:
	.loc	7 3228 7 is_stmt 1              @ ../Library/STM32F4xx_HAL_Driver/Src/stm32f4xx_hal_spi.c:3228:7
	ldr	r0, [sp, #4]
	.loc	7 3228 13 is_stmt 0             @ ../Library/STM32F4xx_HAL_Driver/Src/stm32f4xx_hal_spi.c:3228:13
	ldrh	r0, [r0, #62]
.Ltmp361:
	.loc	7 3228 7                        @ ../Library/STM32F4xx_HAL_Driver/Src/stm32f4xx_hal_spi.c:3228:7
	cbnz	r0, .LBB16_4
	b	.LBB16_1
.LBB16_1:
.Ltmp362:
	.loc	7 3239 5 is_stmt 1              @ ../Library/STM32F4xx_HAL_Driver/Src/stm32f4xx_hal_spi.c:3239:5
	ldr	r0, [sp, #4]
	ldr	r1, [r0]
	ldr	r0, [r1, #4]
	bic	r0, r0, #64
	str	r0, [r1, #4]
.Ltmp363:
	.loc	7 3241 9                        @ ../Library/STM32F4xx_HAL_Driver/Src/stm32f4xx_hal_spi.c:3241:9
	ldr	r0, [sp, #4]
	.loc	7 3241 15 is_stmt 0             @ ../Library/STM32F4xx_HAL_Driver/Src/stm32f4xx_hal_spi.c:3241:15
	ldrh	r0, [r0, #54]
.Ltmp364:
	.loc	7 3241 9                        @ ../Library/STM32F4xx_HAL_Driver/Src/stm32f4xx_hal_spi.c:3241:9
	cbnz	r0, .LBB16_3
	b	.LBB16_2
.LBB16_2:
.Ltmp365:
	.loc	7 3243 25 is_stmt 1             @ ../Library/STM32F4xx_HAL_Driver/Src/stm32f4xx_hal_spi.c:3243:25
	ldr	r0, [sp, #4]
	.loc	7 3243 7 is_stmt 0              @ ../Library/STM32F4xx_HAL_Driver/Src/stm32f4xx_hal_spi.c:3243:7
	bl	SPI_CloseRxTx_ISR
	.loc	7 3244 5 is_stmt 1              @ ../Library/STM32F4xx_HAL_Driver/Src/stm32f4xx_hal_spi.c:3244:5
	b	.LBB16_3
.Ltmp366:
.LBB16_3:
	.loc	7 3245 3                        @ ../Library/STM32F4xx_HAL_Driver/Src/stm32f4xx_hal_spi.c:3245:3
	b	.LBB16_4
.Ltmp367:
.LBB16_4:
	.loc	7 3246 1                        @ ../Library/STM32F4xx_HAL_Driver/Src/stm32f4xx_hal_spi.c:3246:1
	add	sp, #8
	pop	{r7, pc}
.Ltmp368:
.Lfunc_end16:
	.size	SPI_2linesRxISR_16BIT, .Lfunc_end16-SPI_2linesRxISR_16BIT
	.cfi_endproc
	.cantunwind
	.fnend
                                        @ -- End function
	.section	.text.SPI_2linesTxISR_16BIT,"ax",%progbits
	.p2align	2                               @ -- Begin function SPI_2linesTxISR_16BIT
	.type	SPI_2linesTxISR_16BIT,%function
	.code	16                              @ @SPI_2linesTxISR_16BIT
	.thumb_func
SPI_2linesTxISR_16BIT:
.Lfunc_begin17:
	.loc	7 3278 0                        @ ../Library/STM32F4xx_HAL_Driver/Src/stm32f4xx_hal_spi.c:3278:0
	.fnstart
	.cfi_startproc
@ %bb.0:
	.save	{r7, lr}
	push	{r7, lr}
	.cfi_def_cfa_offset 8
	.cfi_offset lr, -4
	.cfi_offset r7, -8
	.pad	#8
	sub	sp, #8
	.cfi_def_cfa_offset 16
	str	r0, [sp, #4]
.Ltmp369:
	.loc	7 3280 38 prologue_end          @ ../Library/STM32F4xx_HAL_Driver/Src/stm32f4xx_hal_spi.c:3280:38
	ldr	r0, [sp, #4]
	.loc	7 3280 9 is_stmt 0              @ ../Library/STM32F4xx_HAL_Driver/Src/stm32f4xx_hal_spi.c:3280:9
	ldr	r1, [r0]
	.loc	7 3280 44                       @ ../Library/STM32F4xx_HAL_Driver/Src/stm32f4xx_hal_spi.c:3280:44
	ldr	r0, [r0, #48]
	.loc	7 3280 24                       @ ../Library/STM32F4xx_HAL_Driver/Src/stm32f4xx_hal_spi.c:3280:24
	ldrh	r0, [r0]
	.loc	7 3280 22                       @ ../Library/STM32F4xx_HAL_Driver/Src/stm32f4xx_hal_spi.c:3280:22
	str	r0, [r1, #12]
	.loc	7 3281 3 is_stmt 1              @ ../Library/STM32F4xx_HAL_Driver/Src/stm32f4xx_hal_spi.c:3281:3
	ldr	r1, [sp, #4]
	.loc	7 3281 20 is_stmt 0             @ ../Library/STM32F4xx_HAL_Driver/Src/stm32f4xx_hal_spi.c:3281:20
	ldr	r0, [r1, #48]
	adds	r0, #2
	str	r0, [r1, #48]
	.loc	7 3282 3 is_stmt 1              @ ../Library/STM32F4xx_HAL_Driver/Src/stm32f4xx_hal_spi.c:3282:3
	ldr	r1, [sp, #4]
	.loc	7 3282 20 is_stmt 0             @ ../Library/STM32F4xx_HAL_Driver/Src/stm32f4xx_hal_spi.c:3282:20
	ldrh	r0, [r1, #54]
	subs	r0, #1
	strh	r0, [r1, #54]
.Ltmp370:
	.loc	7 3285 7 is_stmt 1              @ ../Library/STM32F4xx_HAL_Driver/Src/stm32f4xx_hal_spi.c:3285:7
	ldr	r0, [sp, #4]
	.loc	7 3285 13 is_stmt 0             @ ../Library/STM32F4xx_HAL_Driver/Src/stm32f4xx_hal_spi.c:3285:13
	ldrh	r0, [r0, #54]
.Ltmp371:
	.loc	7 3285 7                        @ ../Library/STM32F4xx_HAL_Driver/Src/stm32f4xx_hal_spi.c:3285:7
	cbnz	r0, .LBB17_4
	b	.LBB17_1
.LBB17_1:
.Ltmp372:
	.loc	7 3299 5 is_stmt 1              @ ../Library/STM32F4xx_HAL_Driver/Src/stm32f4xx_hal_spi.c:3299:5
	ldr	r0, [sp, #4]
	ldr	r1, [r0]
	ldr	r0, [r1, #4]
	bic	r0, r0, #128
	str	r0, [r1, #4]
.Ltmp373:
	.loc	7 3301 9                        @ ../Library/STM32F4xx_HAL_Driver/Src/stm32f4xx_hal_spi.c:3301:9
	ldr	r0, [sp, #4]
	.loc	7 3301 15 is_stmt 0             @ ../Library/STM32F4xx_HAL_Driver/Src/stm32f4xx_hal_spi.c:3301:15
	ldrh	r0, [r0, #62]
.Ltmp374:
	.loc	7 3301 9                        @ ../Library/STM32F4xx_HAL_Driver/Src/stm32f4xx_hal_spi.c:3301:9
	cbnz	r0, .LBB17_3
	b	.LBB17_2
.LBB17_2:
.Ltmp375:
	.loc	7 3303 25 is_stmt 1             @ ../Library/STM32F4xx_HAL_Driver/Src/stm32f4xx_hal_spi.c:3303:25
	ldr	r0, [sp, #4]
	.loc	7 3303 7 is_stmt 0              @ ../Library/STM32F4xx_HAL_Driver/Src/stm32f4xx_hal_spi.c:3303:7
	bl	SPI_CloseRxTx_ISR
	.loc	7 3304 5 is_stmt 1              @ ../Library/STM32F4xx_HAL_Driver/Src/stm32f4xx_hal_spi.c:3304:5
	b	.LBB17_3
.Ltmp376:
.LBB17_3:
	.loc	7 3305 3                        @ ../Library/STM32F4xx_HAL_Driver/Src/stm32f4xx_hal_spi.c:3305:3
	b	.LBB17_4
.Ltmp377:
.LBB17_4:
	.loc	7 3306 1                        @ ../Library/STM32F4xx_HAL_Driver/Src/stm32f4xx_hal_spi.c:3306:1
	add	sp, #8
	pop	{r7, pc}
.Ltmp378:
.Lfunc_end17:
	.size	SPI_2linesTxISR_16BIT, .Lfunc_end17-SPI_2linesTxISR_16BIT
	.cfi_endproc
	.cantunwind
	.fnend
                                        @ -- End function
	.section	.text.SPI_2linesRxISR_8BIT,"ax",%progbits
	.p2align	2                               @ -- Begin function SPI_2linesRxISR_8BIT
	.type	SPI_2linesRxISR_8BIT,%function
	.code	16                              @ @SPI_2linesRxISR_8BIT
	.thumb_func
SPI_2linesRxISR_8BIT:
.Lfunc_begin18:
	.loc	7 3123 0                        @ ../Library/STM32F4xx_HAL_Driver/Src/stm32f4xx_hal_spi.c:3123:0
	.fnstart
	.cfi_startproc
@ %bb.0:
	.save	{r7, lr}
	push	{r7, lr}
	.cfi_def_cfa_offset 8
	.cfi_offset lr, -4
	.cfi_offset r7, -8
	.pad	#8
	sub	sp, #8
	.cfi_def_cfa_offset 16
	str	r0, [sp, #4]
.Ltmp379:
	.loc	7 3125 42 prologue_end          @ ../Library/STM32F4xx_HAL_Driver/Src/stm32f4xx_hal_spi.c:3125:42
	ldr	r0, [sp, #4]
	.loc	7 3125 48 is_stmt 0             @ ../Library/STM32F4xx_HAL_Driver/Src/stm32f4xx_hal_spi.c:3125:48
	ldr	r0, [r0]
	.loc	7 3125 23                       @ ../Library/STM32F4xx_HAL_Driver/Src/stm32f4xx_hal_spi.c:3125:23
	ldrb	r0, [r0, #12]
	.loc	7 3125 4                        @ ../Library/STM32F4xx_HAL_Driver/Src/stm32f4xx_hal_spi.c:3125:4
	ldr	r1, [sp, #4]
	.loc	7 3125 10                       @ ../Library/STM32F4xx_HAL_Driver/Src/stm32f4xx_hal_spi.c:3125:10
	ldr	r1, [r1, #56]
	.loc	7 3125 21                       @ ../Library/STM32F4xx_HAL_Driver/Src/stm32f4xx_hal_spi.c:3125:21
	strb	r0, [r1]
	.loc	7 3126 3 is_stmt 1              @ ../Library/STM32F4xx_HAL_Driver/Src/stm32f4xx_hal_spi.c:3126:3
	ldr	r1, [sp, #4]
	.loc	7 3126 19 is_stmt 0             @ ../Library/STM32F4xx_HAL_Driver/Src/stm32f4xx_hal_spi.c:3126:19
	ldr	r0, [r1, #56]
	adds	r0, #1
	str	r0, [r1, #56]
	.loc	7 3127 3 is_stmt 1              @ ../Library/STM32F4xx_HAL_Driver/Src/stm32f4xx_hal_spi.c:3127:3
	ldr	r1, [sp, #4]
	.loc	7 3127 20 is_stmt 0             @ ../Library/STM32F4xx_HAL_Driver/Src/stm32f4xx_hal_spi.c:3127:20
	ldrh	r0, [r1, #62]
	subs	r0, #1
	strh	r0, [r1, #62]
.Ltmp380:
	.loc	7 3130 7 is_stmt 1              @ ../Library/STM32F4xx_HAL_Driver/Src/stm32f4xx_hal_spi.c:3130:7
	ldr	r0, [sp, #4]
	.loc	7 3130 13 is_stmt 0             @ ../Library/STM32F4xx_HAL_Driver/Src/stm32f4xx_hal_spi.c:3130:13
	ldrh	r0, [r0, #62]
.Ltmp381:
	.loc	7 3130 7                        @ ../Library/STM32F4xx_HAL_Driver/Src/stm32f4xx_hal_spi.c:3130:7
	cbnz	r0, .LBB18_4
	b	.LBB18_1
.LBB18_1:
.Ltmp382:
	.loc	7 3141 5 is_stmt 1              @ ../Library/STM32F4xx_HAL_Driver/Src/stm32f4xx_hal_spi.c:3141:5
	ldr	r0, [sp, #4]
	ldr	r1, [r0]
	ldr	r0, [r1, #4]
	bic	r0, r0, #96
	str	r0, [r1, #4]
.Ltmp383:
	.loc	7 3143 9                        @ ../Library/STM32F4xx_HAL_Driver/Src/stm32f4xx_hal_spi.c:3143:9
	ldr	r0, [sp, #4]
	.loc	7 3143 15 is_stmt 0             @ ../Library/STM32F4xx_HAL_Driver/Src/stm32f4xx_hal_spi.c:3143:15
	ldrh	r0, [r0, #54]
.Ltmp384:
	.loc	7 3143 9                        @ ../Library/STM32F4xx_HAL_Driver/Src/stm32f4xx_hal_spi.c:3143:9
	cbnz	r0, .LBB18_3
	b	.LBB18_2
.LBB18_2:
.Ltmp385:
	.loc	7 3145 25 is_stmt 1             @ ../Library/STM32F4xx_HAL_Driver/Src/stm32f4xx_hal_spi.c:3145:25
	ldr	r0, [sp, #4]
	.loc	7 3145 7 is_stmt 0              @ ../Library/STM32F4xx_HAL_Driver/Src/stm32f4xx_hal_spi.c:3145:7
	bl	SPI_CloseRxTx_ISR
	.loc	7 3146 5 is_stmt 1              @ ../Library/STM32F4xx_HAL_Driver/Src/stm32f4xx_hal_spi.c:3146:5
	b	.LBB18_3
.Ltmp386:
.LBB18_3:
	.loc	7 3147 3                        @ ../Library/STM32F4xx_HAL_Driver/Src/stm32f4xx_hal_spi.c:3147:3
	b	.LBB18_4
.Ltmp387:
.LBB18_4:
	.loc	7 3148 1                        @ ../Library/STM32F4xx_HAL_Driver/Src/stm32f4xx_hal_spi.c:3148:1
	add	sp, #8
	pop	{r7, pc}
.Ltmp388:
.Lfunc_end18:
	.size	SPI_2linesRxISR_8BIT, .Lfunc_end18-SPI_2linesRxISR_8BIT
	.cfi_endproc
	.cantunwind
	.fnend
                                        @ -- End function
	.section	.text.SPI_2linesTxISR_8BIT,"ax",%progbits
	.p2align	2                               @ -- Begin function SPI_2linesTxISR_8BIT
	.type	SPI_2linesTxISR_8BIT,%function
	.code	16                              @ @SPI_2linesTxISR_8BIT
	.thumb_func
SPI_2linesTxISR_8BIT:
.Lfunc_begin19:
	.loc	7 3186 0                        @ ../Library/STM32F4xx_HAL_Driver/Src/stm32f4xx_hal_spi.c:3186:0
	.fnstart
	.cfi_startproc
@ %bb.0:
	.save	{r7, lr}
	push	{r7, lr}
	.cfi_def_cfa_offset 8
	.cfi_offset lr, -4
	.cfi_offset r7, -8
	.pad	#8
	sub	sp, #8
	.cfi_def_cfa_offset 16
	str	r0, [sp, #4]
.Ltmp389:
	.loc	7 3187 44 prologue_end          @ ../Library/STM32F4xx_HAL_Driver/Src/stm32f4xx_hal_spi.c:3187:44
	ldr	r0, [sp, #4]
	.loc	7 3187 27 is_stmt 0             @ ../Library/STM32F4xx_HAL_Driver/Src/stm32f4xx_hal_spi.c:3187:27
	ldr	r1, [r0]
	.loc	7 3187 50                       @ ../Library/STM32F4xx_HAL_Driver/Src/stm32f4xx_hal_spi.c:3187:50
	ldr	r0, [r0, #48]
	.loc	7 3187 43                       @ ../Library/STM32F4xx_HAL_Driver/Src/stm32f4xx_hal_spi.c:3187:43
	ldrb	r0, [r0]
	.loc	7 3187 40                       @ ../Library/STM32F4xx_HAL_Driver/Src/stm32f4xx_hal_spi.c:3187:40
	strb	r0, [r1, #12]
	.loc	7 3188 3 is_stmt 1              @ ../Library/STM32F4xx_HAL_Driver/Src/stm32f4xx_hal_spi.c:3188:3
	ldr	r1, [sp, #4]
	.loc	7 3188 19 is_stmt 0             @ ../Library/STM32F4xx_HAL_Driver/Src/stm32f4xx_hal_spi.c:3188:19
	ldr	r0, [r1, #48]
	adds	r0, #1
	str	r0, [r1, #48]
	.loc	7 3189 3 is_stmt 1              @ ../Library/STM32F4xx_HAL_Driver/Src/stm32f4xx_hal_spi.c:3189:3
	ldr	r1, [sp, #4]
	.loc	7 3189 20 is_stmt 0             @ ../Library/STM32F4xx_HAL_Driver/Src/stm32f4xx_hal_spi.c:3189:20
	ldrh	r0, [r1, #54]
	subs	r0, #1
	strh	r0, [r1, #54]
.Ltmp390:
	.loc	7 3192 7 is_stmt 1              @ ../Library/STM32F4xx_HAL_Driver/Src/stm32f4xx_hal_spi.c:3192:7
	ldr	r0, [sp, #4]
	.loc	7 3192 13 is_stmt 0             @ ../Library/STM32F4xx_HAL_Driver/Src/stm32f4xx_hal_spi.c:3192:13
	ldrh	r0, [r0, #54]
.Ltmp391:
	.loc	7 3192 7                        @ ../Library/STM32F4xx_HAL_Driver/Src/stm32f4xx_hal_spi.c:3192:7
	cbnz	r0, .LBB19_4
	b	.LBB19_1
.LBB19_1:
.Ltmp392:
	.loc	7 3206 5 is_stmt 1              @ ../Library/STM32F4xx_HAL_Driver/Src/stm32f4xx_hal_spi.c:3206:5
	ldr	r0, [sp, #4]
	ldr	r1, [r0]
	ldr	r0, [r1, #4]
	bic	r0, r0, #128
	str	r0, [r1, #4]
.Ltmp393:
	.loc	7 3208 9                        @ ../Library/STM32F4xx_HAL_Driver/Src/stm32f4xx_hal_spi.c:3208:9
	ldr	r0, [sp, #4]
	.loc	7 3208 15 is_stmt 0             @ ../Library/STM32F4xx_HAL_Driver/Src/stm32f4xx_hal_spi.c:3208:15
	ldrh	r0, [r0, #62]
.Ltmp394:
	.loc	7 3208 9                        @ ../Library/STM32F4xx_HAL_Driver/Src/stm32f4xx_hal_spi.c:3208:9
	cbnz	r0, .LBB19_3
	b	.LBB19_2
.LBB19_2:
.Ltmp395:
	.loc	7 3210 25 is_stmt 1             @ ../Library/STM32F4xx_HAL_Driver/Src/stm32f4xx_hal_spi.c:3210:25
	ldr	r0, [sp, #4]
	.loc	7 3210 7 is_stmt 0              @ ../Library/STM32F4xx_HAL_Driver/Src/stm32f4xx_hal_spi.c:3210:7
	bl	SPI_CloseRxTx_ISR
	.loc	7 3211 5 is_stmt 1              @ ../Library/STM32F4xx_HAL_Driver/Src/stm32f4xx_hal_spi.c:3211:5
	b	.LBB19_3
.Ltmp396:
.LBB19_3:
	.loc	7 3212 3                        @ ../Library/STM32F4xx_HAL_Driver/Src/stm32f4xx_hal_spi.c:3212:3
	b	.LBB19_4
.Ltmp397:
.LBB19_4:
	.loc	7 3213 1                        @ ../Library/STM32F4xx_HAL_Driver/Src/stm32f4xx_hal_spi.c:3213:1
	add	sp, #8
	pop	{r7, pc}
.Ltmp398:
.Lfunc_end19:
	.size	SPI_2linesTxISR_8BIT, .Lfunc_end19-SPI_2linesTxISR_8BIT
	.cfi_endproc
	.cantunwind
	.fnend
                                        @ -- End function
	.section	.text.HAL_SPI_Transmit_DMA,"ax",%progbits
	.hidden	HAL_SPI_Transmit_DMA            @ -- Begin function HAL_SPI_Transmit_DMA
	.globl	HAL_SPI_Transmit_DMA
	.p2align	2
	.type	HAL_SPI_Transmit_DMA,%function
	.code	16                              @ @HAL_SPI_Transmit_DMA
	.thumb_func
HAL_SPI_Transmit_DMA:
.Lfunc_begin20:
	.loc	7 1626 0                        @ ../Library/STM32F4xx_HAL_Driver/Src/stm32f4xx_hal_spi.c:1626:0
	.fnstart
	.cfi_startproc
@ %bb.0:
	.save	{r7, lr}
	push	{r7, lr}
	.cfi_def_cfa_offset 8
	.cfi_offset lr, -4
	.cfi_offset r7, -8
	.pad	#16
	sub	sp, #16
	.cfi_def_cfa_offset 24
                                        @ kill: def $r3 killed $r2
	str	r0, [sp, #8]
	str	r1, [sp, #4]
	strh.w	r2, [sp, #2]
	movs	r0, #0
.Ltmp399:
	.loc	7 1627 21 prologue_end          @ ../Library/STM32F4xx_HAL_Driver/Src/stm32f4xx_hal_spi.c:1627:21
	strb.w	r0, [sp, #1]
	.loc	7 1636 3                        @ ../Library/STM32F4xx_HAL_Driver/Src/stm32f4xx_hal_spi.c:1636:3
	b	.LBB20_1
.LBB20_1:
.Ltmp400:
	.loc	7 1636 3 is_stmt 0              @ ../Library/STM32F4xx_HAL_Driver/Src/stm32f4xx_hal_spi.c:1636:3
	ldr	r0, [sp, #8]
	ldrb.w	r0, [r0, #80]
.Ltmp401:
	.loc	7 1636 3                        @ ../Library/STM32F4xx_HAL_Driver/Src/stm32f4xx_hal_spi.c:1636:3
	cmp	r0, #1
	bne	.LBB20_3
	b	.LBB20_2
.LBB20_2:
	.loc	7 0 3                           @ ../Library/STM32F4xx_HAL_Driver/Src/stm32f4xx_hal_spi.c:0:3
	movs	r0, #2
.Ltmp402:
	.loc	7 1636 3                        @ ../Library/STM32F4xx_HAL_Driver/Src/stm32f4xx_hal_spi.c:1636:3
	strb.w	r0, [sp, #15]
	b	.LBB20_20
.Ltmp403:
.LBB20_3:
	.loc	7 1636 3                        @ ../Library/STM32F4xx_HAL_Driver/Src/stm32f4xx_hal_spi.c:1636:3
	ldr	r1, [sp, #8]
	movs	r0, #1
	strb.w	r0, [r1, #80]
	b	.LBB20_4
.Ltmp404:
.LBB20_4:
	.loc	7 1636 3                        @ ../Library/STM32F4xx_HAL_Driver/Src/stm32f4xx_hal_spi.c:1636:3
	b	.LBB20_5
.Ltmp405:
.LBB20_5:
	.loc	7 1638 7 is_stmt 1              @ ../Library/STM32F4xx_HAL_Driver/Src/stm32f4xx_hal_spi.c:1638:7
	ldr	r0, [sp, #8]
	.loc	7 1638 13 is_stmt 0             @ ../Library/STM32F4xx_HAL_Driver/Src/stm32f4xx_hal_spi.c:1638:13
	ldrb.w	r0, [r0, #81]
.Ltmp406:
	.loc	7 1638 7                        @ ../Library/STM32F4xx_HAL_Driver/Src/stm32f4xx_hal_spi.c:1638:7
	cmp	r0, #1
	beq	.LBB20_7
	b	.LBB20_6
.LBB20_6:
	.loc	7 0 7                           @ ../Library/STM32F4xx_HAL_Driver/Src/stm32f4xx_hal_spi.c:0:7
	movs	r0, #2
.Ltmp407:
	.loc	7 1640 15 is_stmt 1             @ ../Library/STM32F4xx_HAL_Driver/Src/stm32f4xx_hal_spi.c:1640:15
	strb.w	r0, [sp, #1]
	.loc	7 1641 5                        @ ../Library/STM32F4xx_HAL_Driver/Src/stm32f4xx_hal_spi.c:1641:5
	b	.LBB20_17
.Ltmp408:
.LBB20_7:
	.loc	7 1644 8                        @ ../Library/STM32F4xx_HAL_Driver/Src/stm32f4xx_hal_spi.c:1644:8
	ldr	r0, [sp, #4]
	.loc	7 1644 23 is_stmt 0             @ ../Library/STM32F4xx_HAL_Driver/Src/stm32f4xx_hal_spi.c:1644:23
	cbz	r0, .LBB20_9
	b	.LBB20_8
.LBB20_8:
	.loc	7 1644 27                       @ ../Library/STM32F4xx_HAL_Driver/Src/stm32f4xx_hal_spi.c:1644:27
	ldrh.w	r0, [sp, #2]
.Ltmp409:
	.loc	7 1644 7                        @ ../Library/STM32F4xx_HAL_Driver/Src/stm32f4xx_hal_spi.c:1644:7
	cbnz	r0, .LBB20_10
	b	.LBB20_9
.LBB20_9:
	.loc	7 0 7                           @ ../Library/STM32F4xx_HAL_Driver/Src/stm32f4xx_hal_spi.c:0:7
	movs	r0, #1
.Ltmp410:
	.loc	7 1646 15 is_stmt 1             @ ../Library/STM32F4xx_HAL_Driver/Src/stm32f4xx_hal_spi.c:1646:15
	strb.w	r0, [sp, #1]
	.loc	7 1647 5                        @ ../Library/STM32F4xx_HAL_Driver/Src/stm32f4xx_hal_spi.c:1647:5
	b	.LBB20_17
.Ltmp411:
.LBB20_10:
	.loc	7 1651 3                        @ ../Library/STM32F4xx_HAL_Driver/Src/stm32f4xx_hal_spi.c:1651:3
	ldr	r1, [sp, #8]
	movs	r0, #3
	.loc	7 1651 21 is_stmt 0             @ ../Library/STM32F4xx_HAL_Driver/Src/stm32f4xx_hal_spi.c:1651:21
	strb.w	r0, [r1, #81]
	.loc	7 1652 3 is_stmt 1              @ ../Library/STM32F4xx_HAL_Driver/Src/stm32f4xx_hal_spi.c:1652:3
	ldr	r1, [sp, #8]
	movs	r0, #0
	.loc	7 1652 21 is_stmt 0             @ ../Library/STM32F4xx_HAL_Driver/Src/stm32f4xx_hal_spi.c:1652:21
	str	r0, [r1, #84]
	.loc	7 1653 34 is_stmt 1             @ ../Library/STM32F4xx_HAL_Driver/Src/stm32f4xx_hal_spi.c:1653:34
	ldr	r1, [sp, #4]
	.loc	7 1653 3 is_stmt 0              @ ../Library/STM32F4xx_HAL_Driver/Src/stm32f4xx_hal_spi.c:1653:3
	ldr	r2, [sp, #8]
	.loc	7 1653 21                       @ ../Library/STM32F4xx_HAL_Driver/Src/stm32f4xx_hal_spi.c:1653:21
	str	r1, [r2, #48]
	.loc	7 1654 23 is_stmt 1             @ ../Library/STM32F4xx_HAL_Driver/Src/stm32f4xx_hal_spi.c:1654:23
	ldrh.w	r1, [sp, #2]
	.loc	7 1654 3 is_stmt 0              @ ../Library/STM32F4xx_HAL_Driver/Src/stm32f4xx_hal_spi.c:1654:3
	ldr	r2, [sp, #8]
	.loc	7 1654 21                       @ ../Library/STM32F4xx_HAL_Driver/Src/stm32f4xx_hal_spi.c:1654:21
	strh	r1, [r2, #52]
	.loc	7 1655 23 is_stmt 1             @ ../Library/STM32F4xx_HAL_Driver/Src/stm32f4xx_hal_spi.c:1655:23
	ldrh.w	r1, [sp, #2]
	.loc	7 1655 3 is_stmt 0              @ ../Library/STM32F4xx_HAL_Driver/Src/stm32f4xx_hal_spi.c:1655:3
	ldr	r2, [sp, #8]
	.loc	7 1655 21                       @ ../Library/STM32F4xx_HAL_Driver/Src/stm32f4xx_hal_spi.c:1655:21
	strh	r1, [r2, #54]
	.loc	7 1658 3 is_stmt 1              @ ../Library/STM32F4xx_HAL_Driver/Src/stm32f4xx_hal_spi.c:1658:3
	ldr	r1, [sp, #8]
	.loc	7 1658 21 is_stmt 0             @ ../Library/STM32F4xx_HAL_Driver/Src/stm32f4xx_hal_spi.c:1658:21
	str	r0, [r1, #56]
	.loc	7 1659 3 is_stmt 1              @ ../Library/STM32F4xx_HAL_Driver/Src/stm32f4xx_hal_spi.c:1659:3
	ldr	r1, [sp, #8]
	.loc	7 1659 21 is_stmt 0             @ ../Library/STM32F4xx_HAL_Driver/Src/stm32f4xx_hal_spi.c:1659:21
	str	r0, [r1, #68]
	.loc	7 1660 3 is_stmt 1              @ ../Library/STM32F4xx_HAL_Driver/Src/stm32f4xx_hal_spi.c:1660:3
	ldr	r1, [sp, #8]
	.loc	7 1660 21 is_stmt 0             @ ../Library/STM32F4xx_HAL_Driver/Src/stm32f4xx_hal_spi.c:1660:21
	str	r0, [r1, #64]
	.loc	7 1661 3 is_stmt 1              @ ../Library/STM32F4xx_HAL_Driver/Src/stm32f4xx_hal_spi.c:1661:3
	ldr	r1, [sp, #8]
	.loc	7 1661 21 is_stmt 0             @ ../Library/STM32F4xx_HAL_Driver/Src/stm32f4xx_hal_spi.c:1661:21
	strh	r0, [r1, #60]
	.loc	7 1662 3 is_stmt 1              @ ../Library/STM32F4xx_HAL_Driver/Src/stm32f4xx_hal_spi.c:1662:3
	ldr	r1, [sp, #8]
	.loc	7 1662 21 is_stmt 0             @ ../Library/STM32F4xx_HAL_Driver/Src/stm32f4xx_hal_spi.c:1662:21
	strh	r0, [r1, #62]
.Ltmp412:
	.loc	7 1665 7 is_stmt 1              @ ../Library/STM32F4xx_HAL_Driver/Src/stm32f4xx_hal_spi.c:1665:7
	ldr	r0, [sp, #8]
	.loc	7 1665 18 is_stmt 0             @ ../Library/STM32F4xx_HAL_Driver/Src/stm32f4xx_hal_spi.c:1665:18
	ldr	r0, [r0, #8]
.Ltmp413:
	.loc	7 1665 7                        @ ../Library/STM32F4xx_HAL_Driver/Src/stm32f4xx_hal_spi.c:1665:7
	cmp.w	r0, #32768
	bne	.LBB20_12
	b	.LBB20_11
.LBB20_11:
.Ltmp414:
	.loc	7 1668 5 is_stmt 1              @ ../Library/STM32F4xx_HAL_Driver/Src/stm32f4xx_hal_spi.c:1668:5
	ldr	r0, [sp, #8]
	ldr	r1, [r0]
	ldr	r0, [r1]
	bic	r0, r0, #64
	str	r0, [r1]
	.loc	7 1669 5                        @ ../Library/STM32F4xx_HAL_Driver/Src/stm32f4xx_hal_spi.c:1669:5
	ldr	r0, [sp, #8]
	ldr	r1, [r0]
	ldr	r0, [r1]
	orr	r0, r0, #16384
	str	r0, [r1]
	.loc	7 1670 3                        @ ../Library/STM32F4xx_HAL_Driver/Src/stm32f4xx_hal_spi.c:1670:3
	b	.LBB20_12
.Ltmp415:
.LBB20_12:
	.loc	7 1681 3                        @ ../Library/STM32F4xx_HAL_Driver/Src/stm32f4xx_hal_spi.c:1681:3
	ldr	r0, [sp, #8]
	.loc	7 1681 9 is_stmt 0              @ ../Library/STM32F4xx_HAL_Driver/Src/stm32f4xx_hal_spi.c:1681:9
	ldr	r1, [r0, #72]
	.loc	7 1681 38                       @ ../Library/STM32F4xx_HAL_Driver/Src/stm32f4xx_hal_spi.c:1681:38
	movw	r0, :lower16:SPI_DMAHalfTransmitCplt
	movt	r0, :upper16:SPI_DMAHalfTransmitCplt
	str	r0, [r1, #64]
	.loc	7 1684 3 is_stmt 1              @ ../Library/STM32F4xx_HAL_Driver/Src/stm32f4xx_hal_spi.c:1684:3
	ldr	r0, [sp, #8]
	.loc	7 1684 9 is_stmt 0              @ ../Library/STM32F4xx_HAL_Driver/Src/stm32f4xx_hal_spi.c:1684:9
	ldr	r1, [r0, #72]
	.loc	7 1684 34                       @ ../Library/STM32F4xx_HAL_Driver/Src/stm32f4xx_hal_spi.c:1684:34
	movw	r0, :lower16:SPI_DMATransmitCplt
	movt	r0, :upper16:SPI_DMATransmitCplt
	str	r0, [r1, #60]
	.loc	7 1687 3 is_stmt 1              @ ../Library/STM32F4xx_HAL_Driver/Src/stm32f4xx_hal_spi.c:1687:3
	ldr	r0, [sp, #8]
	.loc	7 1687 9 is_stmt 0              @ ../Library/STM32F4xx_HAL_Driver/Src/stm32f4xx_hal_spi.c:1687:9
	ldr	r1, [r0, #72]
	.loc	7 1687 35                       @ ../Library/STM32F4xx_HAL_Driver/Src/stm32f4xx_hal_spi.c:1687:35
	movw	r0, :lower16:SPI_DMAError
	movt	r0, :upper16:SPI_DMAError
	str	r0, [r1, #76]
	.loc	7 1690 3 is_stmt 1              @ ../Library/STM32F4xx_HAL_Driver/Src/stm32f4xx_hal_spi.c:1690:3
	ldr	r0, [sp, #8]
	.loc	7 1690 9 is_stmt 0              @ ../Library/STM32F4xx_HAL_Driver/Src/stm32f4xx_hal_spi.c:1690:9
	ldr	r1, [r0, #72]
	movs	r0, #0
	.loc	7 1690 35                       @ ../Library/STM32F4xx_HAL_Driver/Src/stm32f4xx_hal_spi.c:1690:35
	str	r0, [r1, #80]
.Ltmp416:
	.loc	7 1693 34 is_stmt 1             @ ../Library/STM32F4xx_HAL_Driver/Src/stm32f4xx_hal_spi.c:1693:34
	ldr	r3, [sp, #8]
	.loc	7 1693 93 is_stmt 0             @ ../Library/STM32F4xx_HAL_Driver/Src/stm32f4xx_hal_spi.c:1693:93
	ldr	r2, [r3]
	.loc	7 1693 64                       @ ../Library/STM32F4xx_HAL_Driver/Src/stm32f4xx_hal_spi.c:1693:64
	ldr	r1, [r3, #48]
	.loc	7 1693 40                       @ ../Library/STM32F4xx_HAL_Driver/Src/stm32f4xx_hal_spi.c:1693:40
	ldr	r0, [r3, #72]
	.loc	7 1693 103                      @ ../Library/STM32F4xx_HAL_Driver/Src/stm32f4xx_hal_spi.c:1693:103
	adds	r2, #12
	.loc	7 1694 40 is_stmt 1             @ ../Library/STM32F4xx_HAL_Driver/Src/stm32f4xx_hal_spi.c:1694:40
	ldrh	r3, [r3, #54]
	.loc	7 1693 17                       @ ../Library/STM32F4xx_HAL_Driver/Src/stm32f4xx_hal_spi.c:1693:17
	bl	HAL_DMA_Start_IT
.Ltmp417:
	.loc	7 1693 7 is_stmt 0              @ ../Library/STM32F4xx_HAL_Driver/Src/stm32f4xx_hal_spi.c:1693:7
	cbz	r0, .LBB20_14
	b	.LBB20_13
.LBB20_13:
.Ltmp418:
	.loc	7 1697 5 is_stmt 1              @ ../Library/STM32F4xx_HAL_Driver/Src/stm32f4xx_hal_spi.c:1697:5
	ldr	r1, [sp, #8]
	ldr	r0, [r1, #84]
	orr	r0, r0, #16
	str	r0, [r1, #84]
	movs	r0, #1
	.loc	7 1698 15                       @ ../Library/STM32F4xx_HAL_Driver/Src/stm32f4xx_hal_spi.c:1698:15
	strb.w	r0, [sp, #1]
	.loc	7 1700 5                        @ ../Library/STM32F4xx_HAL_Driver/Src/stm32f4xx_hal_spi.c:1700:5
	ldr	r1, [sp, #8]
	.loc	7 1700 17 is_stmt 0             @ ../Library/STM32F4xx_HAL_Driver/Src/stm32f4xx_hal_spi.c:1700:17
	strb.w	r0, [r1, #81]
	.loc	7 1701 5 is_stmt 1              @ ../Library/STM32F4xx_HAL_Driver/Src/stm32f4xx_hal_spi.c:1701:5
	b	.LBB20_17
.Ltmp419:
.LBB20_14:
	.loc	7 1705 8                        @ ../Library/STM32F4xx_HAL_Driver/Src/stm32f4xx_hal_spi.c:1705:8
	ldr	r0, [sp, #8]
	.loc	7 1705 14 is_stmt 0             @ ../Library/STM32F4xx_HAL_Driver/Src/stm32f4xx_hal_spi.c:1705:14
	ldr	r0, [r0]
	.loc	7 1705 24                       @ ../Library/STM32F4xx_HAL_Driver/Src/stm32f4xx_hal_spi.c:1705:24
	ldr	r0, [r0]
	.loc	7 1705 28                       @ ../Library/STM32F4xx_HAL_Driver/Src/stm32f4xx_hal_spi.c:1705:28
	and	r0, r0, #64
.Ltmp420:
	.loc	7 1705 7                        @ ../Library/STM32F4xx_HAL_Driver/Src/stm32f4xx_hal_spi.c:1705:7
	cmp	r0, #64
	beq	.LBB20_16
	b	.LBB20_15
.LBB20_15:
.Ltmp421:
	.loc	7 1708 5 is_stmt 1              @ ../Library/STM32F4xx_HAL_Driver/Src/stm32f4xx_hal_spi.c:1708:5
	ldr	r0, [sp, #8]
	ldr	r1, [r0]
	ldr	r0, [r1]
	orr	r0, r0, #64
	str	r0, [r1]
	.loc	7 1709 3                        @ ../Library/STM32F4xx_HAL_Driver/Src/stm32f4xx_hal_spi.c:1709:3
	b	.LBB20_16
.Ltmp422:
.LBB20_16:
	.loc	7 1712 3                        @ ../Library/STM32F4xx_HAL_Driver/Src/stm32f4xx_hal_spi.c:1712:3
	ldr	r0, [sp, #8]
	ldr	r1, [r0]
	ldr	r0, [r1, #4]
	orr	r0, r0, #32
	str	r0, [r1, #4]
	.loc	7 1715 3                        @ ../Library/STM32F4xx_HAL_Driver/Src/stm32f4xx_hal_spi.c:1715:3
	ldr	r0, [sp, #8]
	ldr	r1, [r0]
	ldr	r0, [r1, #4]
	orr	r0, r0, #2
	str	r0, [r1, #4]
	b	.LBB20_17
.LBB20_17:
.Ltmp423:
	@DEBUG_LABEL: HAL_SPI_Transmit_DMA:error
	.loc	7 1719 3                        @ ../Library/STM32F4xx_HAL_Driver/Src/stm32f4xx_hal_spi.c:1719:3
	b	.LBB20_18
.LBB20_18:
.Ltmp424:
	.loc	7 1719 3 is_stmt 0              @ ../Library/STM32F4xx_HAL_Driver/Src/stm32f4xx_hal_spi.c:1719:3
	ldr	r1, [sp, #8]
	movs	r0, #0
	strb.w	r0, [r1, #80]
	b	.LBB20_19
.Ltmp425:
.LBB20_19:
	.loc	7 1720 10 is_stmt 1             @ ../Library/STM32F4xx_HAL_Driver/Src/stm32f4xx_hal_spi.c:1720:10
	ldrb.w	r0, [sp, #1]
	.loc	7 1720 3 is_stmt 0              @ ../Library/STM32F4xx_HAL_Driver/Src/stm32f4xx_hal_spi.c:1720:3
	strb.w	r0, [sp, #15]
	b	.LBB20_20
.LBB20_20:
	.loc	7 1721 1 is_stmt 1              @ ../Library/STM32F4xx_HAL_Driver/Src/stm32f4xx_hal_spi.c:1721:1
	ldrb.w	r0, [sp, #15]
	add	sp, #16
	pop	{r7, pc}
.Ltmp426:
.Lfunc_end20:
	.size	HAL_SPI_Transmit_DMA, .Lfunc_end20-HAL_SPI_Transmit_DMA
	.cfi_endproc
	.cantunwind
	.fnend
                                        @ -- End function
	.section	.text.SPI_DMAHalfTransmitCplt,"ax",%progbits
	.p2align	2                               @ -- Begin function SPI_DMAHalfTransmitCplt
	.type	SPI_DMAHalfTransmitCplt,%function
	.code	16                              @ @SPI_DMAHalfTransmitCplt
	.thumb_func
SPI_DMAHalfTransmitCplt:
.Lfunc_begin21:
	.loc	7 2900 0                        @ ../Library/STM32F4xx_HAL_Driver/Src/stm32f4xx_hal_spi.c:2900:0
	.fnstart
	.cfi_startproc
@ %bb.0:
	.save	{r7, lr}
	push	{r7, lr}
	.cfi_def_cfa_offset 8
	.cfi_offset lr, -4
	.cfi_offset r7, -8
	.pad	#8
	sub	sp, #8
	.cfi_def_cfa_offset 16
	str	r0, [sp, #4]
.Ltmp427:
	.loc	7 2901 73 prologue_end          @ ../Library/STM32F4xx_HAL_Driver/Src/stm32f4xx_hal_spi.c:2901:73
	ldr	r0, [sp, #4]
	.loc	7 2901 80 is_stmt 0             @ ../Library/STM32F4xx_HAL_Driver/Src/stm32f4xx_hal_spi.c:2901:80
	ldr	r0, [r0, #56]
	.loc	7 2901 22                       @ ../Library/STM32F4xx_HAL_Driver/Src/stm32f4xx_hal_spi.c:2901:22
	str	r0, [sp]
	.loc	7 2907 30 is_stmt 1             @ ../Library/STM32F4xx_HAL_Driver/Src/stm32f4xx_hal_spi.c:2907:30
	ldr	r0, [sp]
	.loc	7 2907 3 is_stmt 0              @ ../Library/STM32F4xx_HAL_Driver/Src/stm32f4xx_hal_spi.c:2907:3
	bl	HAL_SPI_TxHalfCpltCallback
	.loc	7 2909 1 is_stmt 1              @ ../Library/STM32F4xx_HAL_Driver/Src/stm32f4xx_hal_spi.c:2909:1
	add	sp, #8
	pop	{r7, pc}
.Ltmp428:
.Lfunc_end21:
	.size	SPI_DMAHalfTransmitCplt, .Lfunc_end21-SPI_DMAHalfTransmitCplt
	.cfi_endproc
	.cantunwind
	.fnend
                                        @ -- End function
	.section	.text.SPI_DMATransmitCplt,"ax",%progbits
	.p2align	2                               @ -- Begin function SPI_DMATransmitCplt
	.type	SPI_DMATransmitCplt,%function
	.code	16                              @ @SPI_DMATransmitCplt
	.thumb_func
SPI_DMATransmitCplt:
.Lfunc_begin22:
	.loc	7 2674 0                        @ ../Library/STM32F4xx_HAL_Driver/Src/stm32f4xx_hal_spi.c:2674:0
	.fnstart
	.cfi_startproc
@ %bb.0:
	.save	{r7, lr}
	push	{r7, lr}
	.cfi_def_cfa_offset 8
	.cfi_offset lr, -4
	.cfi_offset r7, -8
	.pad	#16
	sub	sp, #16
	.cfi_def_cfa_offset 24
	str	r0, [sp, #12]
.Ltmp429:
	.loc	7 2675 73 prologue_end          @ ../Library/STM32F4xx_HAL_Driver/Src/stm32f4xx_hal_spi.c:2675:73
	ldr	r0, [sp, #12]
	.loc	7 2675 80 is_stmt 0             @ ../Library/STM32F4xx_HAL_Driver/Src/stm32f4xx_hal_spi.c:2675:80
	ldr	r0, [r0, #56]
	.loc	7 2675 22                       @ ../Library/STM32F4xx_HAL_Driver/Src/stm32f4xx_hal_spi.c:2675:22
	str	r0, [sp, #8]
	.loc	7 2679 15 is_stmt 1             @ ../Library/STM32F4xx_HAL_Driver/Src/stm32f4xx_hal_spi.c:2679:15
	bl	HAL_GetTick
	.loc	7 2679 13 is_stmt 0             @ ../Library/STM32F4xx_HAL_Driver/Src/stm32f4xx_hal_spi.c:2679:13
	str	r0, [sp, #4]
.Ltmp430:
	.loc	7 2682 8 is_stmt 1              @ ../Library/STM32F4xx_HAL_Driver/Src/stm32f4xx_hal_spi.c:2682:8
	ldr	r0, [sp, #12]
	.loc	7 2682 14 is_stmt 0             @ ../Library/STM32F4xx_HAL_Driver/Src/stm32f4xx_hal_spi.c:2682:14
	ldr	r0, [r0]
	.loc	7 2682 24                       @ ../Library/STM32F4xx_HAL_Driver/Src/stm32f4xx_hal_spi.c:2682:24
	ldr	r0, [r0]
	.loc	7 2682 27                       @ ../Library/STM32F4xx_HAL_Driver/Src/stm32f4xx_hal_spi.c:2682:27
	and	r0, r0, #256
.Ltmp431:
	.loc	7 2682 7                        @ ../Library/STM32F4xx_HAL_Driver/Src/stm32f4xx_hal_spi.c:2682:7
	cmp.w	r0, #256
	beq	.LBB22_10
	b	.LBB22_1
.LBB22_1:
.Ltmp432:
	.loc	7 2685 5 is_stmt 1              @ ../Library/STM32F4xx_HAL_Driver/Src/stm32f4xx_hal_spi.c:2685:5
	ldr	r0, [sp, #8]
	ldr	r1, [r0]
	ldr	r0, [r1, #4]
	bic	r0, r0, #32
	str	r0, [r1, #4]
	.loc	7 2688 5                        @ ../Library/STM32F4xx_HAL_Driver/Src/stm32f4xx_hal_spi.c:2688:5
	ldr	r0, [sp, #8]
	ldr	r1, [r0]
	ldr	r0, [r1, #4]
	bic	r0, r0, #2
	str	r0, [r1, #4]
.Ltmp433:
	.loc	7 2691 32                       @ ../Library/STM32F4xx_HAL_Driver/Src/stm32f4xx_hal_spi.c:2691:32
	ldr	r0, [sp, #8]
	.loc	7 2691 59 is_stmt 0             @ ../Library/STM32F4xx_HAL_Driver/Src/stm32f4xx_hal_spi.c:2691:59
	ldr	r2, [sp, #4]
	movs	r1, #100
	.loc	7 2691 9                        @ ../Library/STM32F4xx_HAL_Driver/Src/stm32f4xx_hal_spi.c:2691:9
	bl	SPI_EndRxTxTransaction
.Ltmp434:
	.loc	7 2691 9                        @ ../Library/STM32F4xx_HAL_Driver/Src/stm32f4xx_hal_spi.c:2691:9
	cbz	r0, .LBB22_3
	b	.LBB22_2
.LBB22_2:
.Ltmp435:
	.loc	7 2693 7 is_stmt 1              @ ../Library/STM32F4xx_HAL_Driver/Src/stm32f4xx_hal_spi.c:2693:7
	ldr	r1, [sp, #8]
	ldr	r0, [r1, #84]
	orr	r0, r0, #32
	str	r0, [r1, #84]
	.loc	7 2694 5                        @ ../Library/STM32F4xx_HAL_Driver/Src/stm32f4xx_hal_spi.c:2694:5
	b	.LBB22_3
.Ltmp436:
.LBB22_3:
	.loc	7 2697 9                        @ ../Library/STM32F4xx_HAL_Driver/Src/stm32f4xx_hal_spi.c:2697:9
	ldr	r0, [sp, #8]
	.loc	7 2697 20 is_stmt 0             @ ../Library/STM32F4xx_HAL_Driver/Src/stm32f4xx_hal_spi.c:2697:20
	ldr	r0, [r0, #8]
.Ltmp437:
	.loc	7 2697 9                        @ ../Library/STM32F4xx_HAL_Driver/Src/stm32f4xx_hal_spi.c:2697:9
	cbnz	r0, .LBB22_7
	b	.LBB22_4
.LBB22_4:
.Ltmp438:
	.loc	7 2699 7 is_stmt 1              @ ../Library/STM32F4xx_HAL_Driver/Src/stm32f4xx_hal_spi.c:2699:7
	b	.LBB22_5
.LBB22_5:
	.loc	7 0 7 is_stmt 0                 @ ../Library/STM32F4xx_HAL_Driver/Src/stm32f4xx_hal_spi.c:0:7
	movs	r0, #0
.Ltmp439:
	.loc	7 2699 7                        @ ../Library/STM32F4xx_HAL_Driver/Src/stm32f4xx_hal_spi.c:2699:7
	str	r0, [sp]
	ldr	r0, [sp, #8]
	ldr	r0, [r0]
	ldr	r0, [r0, #12]
	str	r0, [sp]
	ldr	r0, [sp, #8]
	ldr	r0, [r0]
	ldr	r0, [r0, #8]
	str	r0, [sp]
	ldr	r0, [sp]
	b	.LBB22_6
.Ltmp440:
.LBB22_6:
	.loc	7 2700 5 is_stmt 1              @ ../Library/STM32F4xx_HAL_Driver/Src/stm32f4xx_hal_spi.c:2700:5
	b	.LBB22_7
.Ltmp441:
.LBB22_7:
	.loc	7 2702 5                        @ ../Library/STM32F4xx_HAL_Driver/Src/stm32f4xx_hal_spi.c:2702:5
	ldr	r1, [sp, #8]
	movs	r0, #0
	.loc	7 2702 23 is_stmt 0             @ ../Library/STM32F4xx_HAL_Driver/Src/stm32f4xx_hal_spi.c:2702:23
	strh	r0, [r1, #54]
	.loc	7 2703 5 is_stmt 1              @ ../Library/STM32F4xx_HAL_Driver/Src/stm32f4xx_hal_spi.c:2703:5
	ldr	r1, [sp, #8]
	movs	r0, #1
	.loc	7 2703 17 is_stmt 0             @ ../Library/STM32F4xx_HAL_Driver/Src/stm32f4xx_hal_spi.c:2703:17
	strb.w	r0, [r1, #81]
.Ltmp442:
	.loc	7 2705 9 is_stmt 1              @ ../Library/STM32F4xx_HAL_Driver/Src/stm32f4xx_hal_spi.c:2705:9
	ldr	r0, [sp, #8]
	.loc	7 2705 15 is_stmt 0             @ ../Library/STM32F4xx_HAL_Driver/Src/stm32f4xx_hal_spi.c:2705:15
	ldr	r0, [r0, #84]
.Ltmp443:
	.loc	7 2705 9                        @ ../Library/STM32F4xx_HAL_Driver/Src/stm32f4xx_hal_spi.c:2705:9
	cbz	r0, .LBB22_9
	b	.LBB22_8
.LBB22_8:
.Ltmp444:
	.loc	7 2711 29 is_stmt 1             @ ../Library/STM32F4xx_HAL_Driver/Src/stm32f4xx_hal_spi.c:2711:29
	ldr	r0, [sp, #8]
	.loc	7 2711 7 is_stmt 0              @ ../Library/STM32F4xx_HAL_Driver/Src/stm32f4xx_hal_spi.c:2711:7
	bl	HAL_SPI_ErrorCallback
	.loc	7 2713 7 is_stmt 1              @ ../Library/STM32F4xx_HAL_Driver/Src/stm32f4xx_hal_spi.c:2713:7
	b	.LBB22_11
.Ltmp445:
.LBB22_9:
	.loc	7 2715 3                        @ ../Library/STM32F4xx_HAL_Driver/Src/stm32f4xx_hal_spi.c:2715:3
	b	.LBB22_10
.Ltmp446:
.LBB22_10:
	.loc	7 2720 26                       @ ../Library/STM32F4xx_HAL_Driver/Src/stm32f4xx_hal_spi.c:2720:26
	ldr	r0, [sp, #8]
	.loc	7 2720 3 is_stmt 0              @ ../Library/STM32F4xx_HAL_Driver/Src/stm32f4xx_hal_spi.c:2720:3
	bl	HAL_SPI_TxCpltCallback
	.loc	7 2722 1 is_stmt 1              @ ../Library/STM32F4xx_HAL_Driver/Src/stm32f4xx_hal_spi.c:2722:1
	b	.LBB22_11
.LBB22_11:
	add	sp, #16
	pop	{r7, pc}
.Ltmp447:
.Lfunc_end22:
	.size	SPI_DMATransmitCplt, .Lfunc_end22-SPI_DMATransmitCplt
	.cfi_endproc
	.cantunwind
	.fnend
                                        @ -- End function
	.section	.text.SPI_DMAError,"ax",%progbits
	.p2align	2                               @ -- Begin function SPI_DMAError
	.type	SPI_DMAError,%function
	.code	16                              @ @SPI_DMAError
	.thumb_func
SPI_DMAError:
.Lfunc_begin23:
	.loc	7 2954 0                        @ ../Library/STM32F4xx_HAL_Driver/Src/stm32f4xx_hal_spi.c:2954:0
	.fnstart
	.cfi_startproc
@ %bb.0:
	.save	{r7, lr}
	push	{r7, lr}
	.cfi_def_cfa_offset 8
	.cfi_offset lr, -4
	.cfi_offset r7, -8
	.pad	#8
	sub	sp, #8
	.cfi_def_cfa_offset 16
	str	r0, [sp, #4]
.Ltmp448:
	.loc	7 2955 73 prologue_end          @ ../Library/STM32F4xx_HAL_Driver/Src/stm32f4xx_hal_spi.c:2955:73
	ldr	r0, [sp, #4]
	.loc	7 2955 80 is_stmt 0             @ ../Library/STM32F4xx_HAL_Driver/Src/stm32f4xx_hal_spi.c:2955:80
	ldr	r0, [r0, #56]
	.loc	7 2955 22                       @ ../Library/STM32F4xx_HAL_Driver/Src/stm32f4xx_hal_spi.c:2955:22
	str	r0, [sp]
	.loc	7 2958 3 is_stmt 1              @ ../Library/STM32F4xx_HAL_Driver/Src/stm32f4xx_hal_spi.c:2958:3
	ldr	r0, [sp]
	ldr	r1, [r0]
	ldr	r0, [r1, #4]
	bic	r0, r0, #3
	str	r0, [r1, #4]
	.loc	7 2960 3                        @ ../Library/STM32F4xx_HAL_Driver/Src/stm32f4xx_hal_spi.c:2960:3
	ldr	r1, [sp]
	ldr	r0, [r1, #84]
	orr	r0, r0, #16
	str	r0, [r1, #84]
	.loc	7 2961 3                        @ ../Library/STM32F4xx_HAL_Driver/Src/stm32f4xx_hal_spi.c:2961:3
	ldr	r1, [sp]
	movs	r0, #1
	.loc	7 2961 15 is_stmt 0             @ ../Library/STM32F4xx_HAL_Driver/Src/stm32f4xx_hal_spi.c:2961:15
	strb.w	r0, [r1, #81]
	.loc	7 2966 25 is_stmt 1             @ ../Library/STM32F4xx_HAL_Driver/Src/stm32f4xx_hal_spi.c:2966:25
	ldr	r0, [sp]
	.loc	7 2966 3 is_stmt 0              @ ../Library/STM32F4xx_HAL_Driver/Src/stm32f4xx_hal_spi.c:2966:3
	bl	HAL_SPI_ErrorCallback
	.loc	7 2968 1 is_stmt 1              @ ../Library/STM32F4xx_HAL_Driver/Src/stm32f4xx_hal_spi.c:2968:1
	add	sp, #8
	pop	{r7, pc}
.Ltmp449:
.Lfunc_end23:
	.size	SPI_DMAError, .Lfunc_end23-SPI_DMAError
	.cfi_endproc
	.cantunwind
	.fnend
                                        @ -- End function
	.section	.text.HAL_SPI_Receive_DMA,"ax",%progbits
	.hidden	HAL_SPI_Receive_DMA             @ -- Begin function HAL_SPI_Receive_DMA
	.globl	HAL_SPI_Receive_DMA
	.p2align	2
	.type	HAL_SPI_Receive_DMA,%function
	.code	16                              @ @HAL_SPI_Receive_DMA
	.thumb_func
HAL_SPI_Receive_DMA:
.Lfunc_begin24:
	.loc	7 1734 0                        @ ../Library/STM32F4xx_HAL_Driver/Src/stm32f4xx_hal_spi.c:1734:0
	.fnstart
	.cfi_startproc
@ %bb.0:
	.save	{r7, lr}
	push	{r7, lr}
	.cfi_def_cfa_offset 8
	.cfi_offset lr, -4
	.cfi_offset r7, -8
	.pad	#16
	sub	sp, #16
	.cfi_def_cfa_offset 24
                                        @ kill: def $r3 killed $r2
	str	r0, [sp, #8]
	str	r1, [sp, #4]
	strh.w	r2, [sp, #2]
	movs	r0, #0
.Ltmp450:
	.loc	7 1735 21 prologue_end          @ ../Library/STM32F4xx_HAL_Driver/Src/stm32f4xx_hal_spi.c:1735:21
	strb.w	r0, [sp, #1]
.Ltmp451:
	.loc	7 1740 8                        @ ../Library/STM32F4xx_HAL_Driver/Src/stm32f4xx_hal_spi.c:1740:8
	ldr	r0, [sp, #8]
	.loc	7 1740 19 is_stmt 0             @ ../Library/STM32F4xx_HAL_Driver/Src/stm32f4xx_hal_spi.c:1740:19
	ldr	r0, [r0, #8]
	.loc	7 1740 54                       @ ../Library/STM32F4xx_HAL_Driver/Src/stm32f4xx_hal_spi.c:1740:54
	cbnz	r0, .LBB24_3
	b	.LBB24_1
.LBB24_1:
	.loc	7 1740 58                       @ ../Library/STM32F4xx_HAL_Driver/Src/stm32f4xx_hal_spi.c:1740:58
	ldr	r0, [sp, #8]
	.loc	7 1740 69                       @ ../Library/STM32F4xx_HAL_Driver/Src/stm32f4xx_hal_spi.c:1740:69
	ldr	r0, [r0, #4]
.Ltmp452:
	.loc	7 1740 7                        @ ../Library/STM32F4xx_HAL_Driver/Src/stm32f4xx_hal_spi.c:1740:7
	cmp.w	r0, #260
	bne	.LBB24_3
	b	.LBB24_2
.LBB24_2:
.Ltmp453:
	.loc	7 1742 5 is_stmt 1              @ ../Library/STM32F4xx_HAL_Driver/Src/stm32f4xx_hal_spi.c:1742:5
	ldr	r1, [sp, #8]
	movs	r0, #4
	.loc	7 1742 17 is_stmt 0             @ ../Library/STM32F4xx_HAL_Driver/Src/stm32f4xx_hal_spi.c:1742:17
	strb.w	r0, [r1, #81]
	.loc	7 1748 40 is_stmt 1             @ ../Library/STM32F4xx_HAL_Driver/Src/stm32f4xx_hal_spi.c:1748:40
	ldr	r0, [sp, #8]
	.loc	7 1748 46 is_stmt 0             @ ../Library/STM32F4xx_HAL_Driver/Src/stm32f4xx_hal_spi.c:1748:46
	ldr	r2, [sp, #4]
	.loc	7 1748 60                       @ ../Library/STM32F4xx_HAL_Driver/Src/stm32f4xx_hal_spi.c:1748:60
	ldrh.w	r3, [sp, #2]
	.loc	7 1748 12                       @ ../Library/STM32F4xx_HAL_Driver/Src/stm32f4xx_hal_spi.c:1748:12
	mov	r1, r2
	bl	HAL_SPI_TransmitReceive_DMA
	.loc	7 1748 5                        @ ../Library/STM32F4xx_HAL_Driver/Src/stm32f4xx_hal_spi.c:1748:5
	strb.w	r0, [sp, #15]
	b	.LBB24_23
.Ltmp454:
.LBB24_3:
	.loc	7 1752 3 is_stmt 1              @ ../Library/STM32F4xx_HAL_Driver/Src/stm32f4xx_hal_spi.c:1752:3
	b	.LBB24_4
.LBB24_4:
.Ltmp455:
	.loc	7 1752 3 is_stmt 0              @ ../Library/STM32F4xx_HAL_Driver/Src/stm32f4xx_hal_spi.c:1752:3
	ldr	r0, [sp, #8]
	ldrb.w	r0, [r0, #80]
.Ltmp456:
	.loc	7 1752 3                        @ ../Library/STM32F4xx_HAL_Driver/Src/stm32f4xx_hal_spi.c:1752:3
	cmp	r0, #1
	bne	.LBB24_6
	b	.LBB24_5
.LBB24_5:
	.loc	7 0 3                           @ ../Library/STM32F4xx_HAL_Driver/Src/stm32f4xx_hal_spi.c:0:3
	movs	r0, #2
.Ltmp457:
	.loc	7 1752 3                        @ ../Library/STM32F4xx_HAL_Driver/Src/stm32f4xx_hal_spi.c:1752:3
	strb.w	r0, [sp, #15]
	b	.LBB24_23
.Ltmp458:
.LBB24_6:
	.loc	7 1752 3                        @ ../Library/STM32F4xx_HAL_Driver/Src/stm32f4xx_hal_spi.c:1752:3
	ldr	r1, [sp, #8]
	movs	r0, #1
	strb.w	r0, [r1, #80]
	b	.LBB24_7
.Ltmp459:
.LBB24_7:
	.loc	7 1752 3                        @ ../Library/STM32F4xx_HAL_Driver/Src/stm32f4xx_hal_spi.c:1752:3
	b	.LBB24_8
.Ltmp460:
.LBB24_8:
	.loc	7 1754 7 is_stmt 1              @ ../Library/STM32F4xx_HAL_Driver/Src/stm32f4xx_hal_spi.c:1754:7
	ldr	r0, [sp, #8]
	.loc	7 1754 13 is_stmt 0             @ ../Library/STM32F4xx_HAL_Driver/Src/stm32f4xx_hal_spi.c:1754:13
	ldrb.w	r0, [r0, #81]
.Ltmp461:
	.loc	7 1754 7                        @ ../Library/STM32F4xx_HAL_Driver/Src/stm32f4xx_hal_spi.c:1754:7
	cmp	r0, #1
	beq	.LBB24_10
	b	.LBB24_9
.LBB24_9:
	.loc	7 0 7                           @ ../Library/STM32F4xx_HAL_Driver/Src/stm32f4xx_hal_spi.c:0:7
	movs	r0, #2
.Ltmp462:
	.loc	7 1756 15 is_stmt 1             @ ../Library/STM32F4xx_HAL_Driver/Src/stm32f4xx_hal_spi.c:1756:15
	strb.w	r0, [sp, #1]
	.loc	7 1757 5                        @ ../Library/STM32F4xx_HAL_Driver/Src/stm32f4xx_hal_spi.c:1757:5
	b	.LBB24_20
.Ltmp463:
.LBB24_10:
	.loc	7 1760 8                        @ ../Library/STM32F4xx_HAL_Driver/Src/stm32f4xx_hal_spi.c:1760:8
	ldr	r0, [sp, #4]
	.loc	7 1760 23 is_stmt 0             @ ../Library/STM32F4xx_HAL_Driver/Src/stm32f4xx_hal_spi.c:1760:23
	cbz	r0, .LBB24_12
	b	.LBB24_11
.LBB24_11:
	.loc	7 1760 27                       @ ../Library/STM32F4xx_HAL_Driver/Src/stm32f4xx_hal_spi.c:1760:27
	ldrh.w	r0, [sp, #2]
.Ltmp464:
	.loc	7 1760 7                        @ ../Library/STM32F4xx_HAL_Driver/Src/stm32f4xx_hal_spi.c:1760:7
	cbnz	r0, .LBB24_13
	b	.LBB24_12
.LBB24_12:
	.loc	7 0 7                           @ ../Library/STM32F4xx_HAL_Driver/Src/stm32f4xx_hal_spi.c:0:7
	movs	r0, #1
.Ltmp465:
	.loc	7 1762 15 is_stmt 1             @ ../Library/STM32F4xx_HAL_Driver/Src/stm32f4xx_hal_spi.c:1762:15
	strb.w	r0, [sp, #1]
	.loc	7 1763 5                        @ ../Library/STM32F4xx_HAL_Driver/Src/stm32f4xx_hal_spi.c:1763:5
	b	.LBB24_20
.Ltmp466:
.LBB24_13:
	.loc	7 1767 3                        @ ../Library/STM32F4xx_HAL_Driver/Src/stm32f4xx_hal_spi.c:1767:3
	ldr	r1, [sp, #8]
	movs	r0, #4
	.loc	7 1767 21 is_stmt 0             @ ../Library/STM32F4xx_HAL_Driver/Src/stm32f4xx_hal_spi.c:1767:21
	strb.w	r0, [r1, #81]
	.loc	7 1768 3 is_stmt 1              @ ../Library/STM32F4xx_HAL_Driver/Src/stm32f4xx_hal_spi.c:1768:3
	ldr	r1, [sp, #8]
	movs	r0, #0
	.loc	7 1768 21 is_stmt 0             @ ../Library/STM32F4xx_HAL_Driver/Src/stm32f4xx_hal_spi.c:1768:21
	str	r0, [r1, #84]
	.loc	7 1769 34 is_stmt 1             @ ../Library/STM32F4xx_HAL_Driver/Src/stm32f4xx_hal_spi.c:1769:34
	ldr	r1, [sp, #4]
	.loc	7 1769 3 is_stmt 0              @ ../Library/STM32F4xx_HAL_Driver/Src/stm32f4xx_hal_spi.c:1769:3
	ldr	r2, [sp, #8]
	.loc	7 1769 21                       @ ../Library/STM32F4xx_HAL_Driver/Src/stm32f4xx_hal_spi.c:1769:21
	str	r1, [r2, #56]
	.loc	7 1770 23 is_stmt 1             @ ../Library/STM32F4xx_HAL_Driver/Src/stm32f4xx_hal_spi.c:1770:23
	ldrh.w	r1, [sp, #2]
	.loc	7 1770 3 is_stmt 0              @ ../Library/STM32F4xx_HAL_Driver/Src/stm32f4xx_hal_spi.c:1770:3
	ldr	r2, [sp, #8]
	.loc	7 1770 21                       @ ../Library/STM32F4xx_HAL_Driver/Src/stm32f4xx_hal_spi.c:1770:21
	strh	r1, [r2, #60]
	.loc	7 1771 23 is_stmt 1             @ ../Library/STM32F4xx_HAL_Driver/Src/stm32f4xx_hal_spi.c:1771:23
	ldrh.w	r1, [sp, #2]
	.loc	7 1771 3 is_stmt 0              @ ../Library/STM32F4xx_HAL_Driver/Src/stm32f4xx_hal_spi.c:1771:3
	ldr	r2, [sp, #8]
	.loc	7 1771 21                       @ ../Library/STM32F4xx_HAL_Driver/Src/stm32f4xx_hal_spi.c:1771:21
	strh	r1, [r2, #62]
	.loc	7 1774 3 is_stmt 1              @ ../Library/STM32F4xx_HAL_Driver/Src/stm32f4xx_hal_spi.c:1774:3
	ldr	r1, [sp, #8]
	.loc	7 1774 21 is_stmt 0             @ ../Library/STM32F4xx_HAL_Driver/Src/stm32f4xx_hal_spi.c:1774:21
	str	r0, [r1, #64]
	.loc	7 1775 3 is_stmt 1              @ ../Library/STM32F4xx_HAL_Driver/Src/stm32f4xx_hal_spi.c:1775:3
	ldr	r1, [sp, #8]
	.loc	7 1775 21 is_stmt 0             @ ../Library/STM32F4xx_HAL_Driver/Src/stm32f4xx_hal_spi.c:1775:21
	str	r0, [r1, #68]
	.loc	7 1776 3 is_stmt 1              @ ../Library/STM32F4xx_HAL_Driver/Src/stm32f4xx_hal_spi.c:1776:3
	ldr	r1, [sp, #8]
	.loc	7 1776 21 is_stmt 0             @ ../Library/STM32F4xx_HAL_Driver/Src/stm32f4xx_hal_spi.c:1776:21
	strh	r0, [r1, #52]
	.loc	7 1777 3 is_stmt 1              @ ../Library/STM32F4xx_HAL_Driver/Src/stm32f4xx_hal_spi.c:1777:3
	ldr	r1, [sp, #8]
	.loc	7 1777 21 is_stmt 0             @ ../Library/STM32F4xx_HAL_Driver/Src/stm32f4xx_hal_spi.c:1777:21
	strh	r0, [r1, #54]
.Ltmp467:
	.loc	7 1780 7 is_stmt 1              @ ../Library/STM32F4xx_HAL_Driver/Src/stm32f4xx_hal_spi.c:1780:7
	ldr	r0, [sp, #8]
	.loc	7 1780 18 is_stmt 0             @ ../Library/STM32F4xx_HAL_Driver/Src/stm32f4xx_hal_spi.c:1780:18
	ldr	r0, [r0, #8]
.Ltmp468:
	.loc	7 1780 7                        @ ../Library/STM32F4xx_HAL_Driver/Src/stm32f4xx_hal_spi.c:1780:7
	cmp.w	r0, #32768
	bne	.LBB24_15
	b	.LBB24_14
.LBB24_14:
.Ltmp469:
	.loc	7 1783 5 is_stmt 1              @ ../Library/STM32F4xx_HAL_Driver/Src/stm32f4xx_hal_spi.c:1783:5
	ldr	r0, [sp, #8]
	ldr	r1, [r0]
	ldr	r0, [r1]
	bic	r0, r0, #64
	str	r0, [r1]
	.loc	7 1784 5                        @ ../Library/STM32F4xx_HAL_Driver/Src/stm32f4xx_hal_spi.c:1784:5
	ldr	r0, [sp, #8]
	ldr	r1, [r0]
	ldr	r0, [r1]
	bic	r0, r0, #16384
	str	r0, [r1]
	.loc	7 1785 3                        @ ../Library/STM32F4xx_HAL_Driver/Src/stm32f4xx_hal_spi.c:1785:3
	b	.LBB24_15
.Ltmp470:
.LBB24_15:
	.loc	7 1796 3                        @ ../Library/STM32F4xx_HAL_Driver/Src/stm32f4xx_hal_spi.c:1796:3
	ldr	r0, [sp, #8]
	.loc	7 1796 9 is_stmt 0              @ ../Library/STM32F4xx_HAL_Driver/Src/stm32f4xx_hal_spi.c:1796:9
	ldr	r1, [r0, #76]
	.loc	7 1796 38                       @ ../Library/STM32F4xx_HAL_Driver/Src/stm32f4xx_hal_spi.c:1796:38
	movw	r0, :lower16:SPI_DMAHalfReceiveCplt
	movt	r0, :upper16:SPI_DMAHalfReceiveCplt
	str	r0, [r1, #64]
	.loc	7 1799 3 is_stmt 1              @ ../Library/STM32F4xx_HAL_Driver/Src/stm32f4xx_hal_spi.c:1799:3
	ldr	r0, [sp, #8]
	.loc	7 1799 9 is_stmt 0              @ ../Library/STM32F4xx_HAL_Driver/Src/stm32f4xx_hal_spi.c:1799:9
	ldr	r1, [r0, #76]
	.loc	7 1799 34                       @ ../Library/STM32F4xx_HAL_Driver/Src/stm32f4xx_hal_spi.c:1799:34
	movw	r0, :lower16:SPI_DMAReceiveCplt
	movt	r0, :upper16:SPI_DMAReceiveCplt
	str	r0, [r1, #60]
	.loc	7 1802 3 is_stmt 1              @ ../Library/STM32F4xx_HAL_Driver/Src/stm32f4xx_hal_spi.c:1802:3
	ldr	r0, [sp, #8]
	.loc	7 1802 9 is_stmt 0              @ ../Library/STM32F4xx_HAL_Driver/Src/stm32f4xx_hal_spi.c:1802:9
	ldr	r1, [r0, #76]
	.loc	7 1802 35                       @ ../Library/STM32F4xx_HAL_Driver/Src/stm32f4xx_hal_spi.c:1802:35
	movw	r0, :lower16:SPI_DMAError
	movt	r0, :upper16:SPI_DMAError
	str	r0, [r1, #76]
	.loc	7 1805 3 is_stmt 1              @ ../Library/STM32F4xx_HAL_Driver/Src/stm32f4xx_hal_spi.c:1805:3
	ldr	r0, [sp, #8]
	.loc	7 1805 9 is_stmt 0              @ ../Library/STM32F4xx_HAL_Driver/Src/stm32f4xx_hal_spi.c:1805:9
	ldr	r1, [r0, #76]
	movs	r0, #0
	.loc	7 1805 35                       @ ../Library/STM32F4xx_HAL_Driver/Src/stm32f4xx_hal_spi.c:1805:35
	str	r0, [r1, #80]
.Ltmp471:
	.loc	7 1808 34 is_stmt 1             @ ../Library/STM32F4xx_HAL_Driver/Src/stm32f4xx_hal_spi.c:1808:34
	ldr	r3, [sp, #8]
	.loc	7 1808 65 is_stmt 0             @ ../Library/STM32F4xx_HAL_Driver/Src/stm32f4xx_hal_spi.c:1808:65
	ldr	r1, [r3]
	.loc	7 1808 95                       @ ../Library/STM32F4xx_HAL_Driver/Src/stm32f4xx_hal_spi.c:1808:95
	ldr	r2, [r3, #56]
	.loc	7 1808 40                       @ ../Library/STM32F4xx_HAL_Driver/Src/stm32f4xx_hal_spi.c:1808:40
	ldr	r0, [r3, #76]
	.loc	7 1808 75                       @ ../Library/STM32F4xx_HAL_Driver/Src/stm32f4xx_hal_spi.c:1808:75
	adds	r1, #12
	.loc	7 1809 40 is_stmt 1             @ ../Library/STM32F4xx_HAL_Driver/Src/stm32f4xx_hal_spi.c:1809:40
	ldrh	r3, [r3, #62]
	.loc	7 1808 17                       @ ../Library/STM32F4xx_HAL_Driver/Src/stm32f4xx_hal_spi.c:1808:17
	bl	HAL_DMA_Start_IT
.Ltmp472:
	.loc	7 1808 7 is_stmt 0              @ ../Library/STM32F4xx_HAL_Driver/Src/stm32f4xx_hal_spi.c:1808:7
	cbz	r0, .LBB24_17
	b	.LBB24_16
.LBB24_16:
.Ltmp473:
	.loc	7 1812 5 is_stmt 1              @ ../Library/STM32F4xx_HAL_Driver/Src/stm32f4xx_hal_spi.c:1812:5
	ldr	r1, [sp, #8]
	ldr	r0, [r1, #84]
	orr	r0, r0, #16
	str	r0, [r1, #84]
	movs	r0, #1
	.loc	7 1813 15                       @ ../Library/STM32F4xx_HAL_Driver/Src/stm32f4xx_hal_spi.c:1813:15
	strb.w	r0, [sp, #1]
	.loc	7 1815 5                        @ ../Library/STM32F4xx_HAL_Driver/Src/stm32f4xx_hal_spi.c:1815:5
	ldr	r1, [sp, #8]
	.loc	7 1815 17 is_stmt 0             @ ../Library/STM32F4xx_HAL_Driver/Src/stm32f4xx_hal_spi.c:1815:17
	strb.w	r0, [r1, #81]
	.loc	7 1816 5 is_stmt 1              @ ../Library/STM32F4xx_HAL_Driver/Src/stm32f4xx_hal_spi.c:1816:5
	b	.LBB24_20
.Ltmp474:
.LBB24_17:
	.loc	7 1820 8                        @ ../Library/STM32F4xx_HAL_Driver/Src/stm32f4xx_hal_spi.c:1820:8
	ldr	r0, [sp, #8]
	.loc	7 1820 14 is_stmt 0             @ ../Library/STM32F4xx_HAL_Driver/Src/stm32f4xx_hal_spi.c:1820:14
	ldr	r0, [r0]
	.loc	7 1820 24                       @ ../Library/STM32F4xx_HAL_Driver/Src/stm32f4xx_hal_spi.c:1820:24
	ldr	r0, [r0]
	.loc	7 1820 28                       @ ../Library/STM32F4xx_HAL_Driver/Src/stm32f4xx_hal_spi.c:1820:28
	and	r0, r0, #64
.Ltmp475:
	.loc	7 1820 7                        @ ../Library/STM32F4xx_HAL_Driver/Src/stm32f4xx_hal_spi.c:1820:7
	cmp	r0, #64
	beq	.LBB24_19
	b	.LBB24_18
.LBB24_18:
.Ltmp476:
	.loc	7 1823 5 is_stmt 1              @ ../Library/STM32F4xx_HAL_Driver/Src/stm32f4xx_hal_spi.c:1823:5
	ldr	r0, [sp, #8]
	ldr	r1, [r0]
	ldr	r0, [r1]
	orr	r0, r0, #64
	str	r0, [r1]
	.loc	7 1824 3                        @ ../Library/STM32F4xx_HAL_Driver/Src/stm32f4xx_hal_spi.c:1824:3
	b	.LBB24_19
.Ltmp477:
.LBB24_19:
	.loc	7 1827 3                        @ ../Library/STM32F4xx_HAL_Driver/Src/stm32f4xx_hal_spi.c:1827:3
	ldr	r0, [sp, #8]
	ldr	r1, [r0]
	ldr	r0, [r1, #4]
	orr	r0, r0, #32
	str	r0, [r1, #4]
	.loc	7 1830 3                        @ ../Library/STM32F4xx_HAL_Driver/Src/stm32f4xx_hal_spi.c:1830:3
	ldr	r0, [sp, #8]
	ldr	r1, [r0]
	ldr	r0, [r1, #4]
	orr	r0, r0, #1
	str	r0, [r1, #4]
	b	.LBB24_20
.LBB24_20:
.Ltmp478:
	@DEBUG_LABEL: HAL_SPI_Receive_DMA:error
	.loc	7 1834 3                        @ ../Library/STM32F4xx_HAL_Driver/Src/stm32f4xx_hal_spi.c:1834:3
	b	.LBB24_21
.LBB24_21:
.Ltmp479:
	.loc	7 1834 3 is_stmt 0              @ ../Library/STM32F4xx_HAL_Driver/Src/stm32f4xx_hal_spi.c:1834:3
	ldr	r1, [sp, #8]
	movs	r0, #0
	strb.w	r0, [r1, #80]
	b	.LBB24_22
.Ltmp480:
.LBB24_22:
	.loc	7 1835 10 is_stmt 1             @ ../Library/STM32F4xx_HAL_Driver/Src/stm32f4xx_hal_spi.c:1835:10
	ldrb.w	r0, [sp, #1]
	.loc	7 1835 3 is_stmt 0              @ ../Library/STM32F4xx_HAL_Driver/Src/stm32f4xx_hal_spi.c:1835:3
	strb.w	r0, [sp, #15]
	b	.LBB24_23
.LBB24_23:
	.loc	7 1836 1 is_stmt 1              @ ../Library/STM32F4xx_HAL_Driver/Src/stm32f4xx_hal_spi.c:1836:1
	ldrb.w	r0, [sp, #15]
	add	sp, #16
	pop	{r7, pc}
.Ltmp481:
.Lfunc_end24:
	.size	HAL_SPI_Receive_DMA, .Lfunc_end24-HAL_SPI_Receive_DMA
	.cfi_endproc
	.cantunwind
	.fnend
                                        @ -- End function
	.section	.text.HAL_SPI_TransmitReceive_DMA,"ax",%progbits
	.hidden	HAL_SPI_TransmitReceive_DMA     @ -- Begin function HAL_SPI_TransmitReceive_DMA
	.globl	HAL_SPI_TransmitReceive_DMA
	.p2align	2
	.type	HAL_SPI_TransmitReceive_DMA,%function
	.code	16                              @ @HAL_SPI_TransmitReceive_DMA
	.thumb_func
HAL_SPI_TransmitReceive_DMA:
.Lfunc_begin25:
	.loc	7 1850 0                        @ ../Library/STM32F4xx_HAL_Driver/Src/stm32f4xx_hal_spi.c:1850:0
	.fnstart
	.cfi_startproc
@ %bb.0:
	.save	{r7, lr}
	push	{r7, lr}
	.cfi_def_cfa_offset 8
	.cfi_offset lr, -4
	.cfi_offset r7, -8
	.pad	#32
	sub	sp, #32
	.cfi_def_cfa_offset 40
                                        @ kill: def $r12 killed $r3
	str	r0, [sp, #24]
	str	r1, [sp, #20]
	str	r2, [sp, #16]
	strh.w	r3, [sp, #14]
	movs	r0, #0
.Ltmp482:
	.loc	7 1853 21 prologue_end          @ ../Library/STM32F4xx_HAL_Driver/Src/stm32f4xx_hal_spi.c:1853:21
	strb.w	r0, [sp, #6]
	.loc	7 1863 3                        @ ../Library/STM32F4xx_HAL_Driver/Src/stm32f4xx_hal_spi.c:1863:3
	b	.LBB25_1
.LBB25_1:
.Ltmp483:
	.loc	7 1863 3 is_stmt 0              @ ../Library/STM32F4xx_HAL_Driver/Src/stm32f4xx_hal_spi.c:1863:3
	ldr	r0, [sp, #24]
	ldrb.w	r0, [r0, #80]
.Ltmp484:
	.loc	7 1863 3                        @ ../Library/STM32F4xx_HAL_Driver/Src/stm32f4xx_hal_spi.c:1863:3
	cmp	r0, #1
	bne	.LBB25_3
	b	.LBB25_2
.LBB25_2:
	.loc	7 0 3                           @ ../Library/STM32F4xx_HAL_Driver/Src/stm32f4xx_hal_spi.c:0:3
	movs	r0, #2
.Ltmp485:
	.loc	7 1863 3                        @ ../Library/STM32F4xx_HAL_Driver/Src/stm32f4xx_hal_spi.c:1863:3
	strb.w	r0, [sp, #31]
	b	.LBB25_29
.Ltmp486:
.LBB25_3:
	.loc	7 1863 3                        @ ../Library/STM32F4xx_HAL_Driver/Src/stm32f4xx_hal_spi.c:1863:3
	ldr	r1, [sp, #24]
	movs	r0, #1
	strb.w	r0, [r1, #80]
	b	.LBB25_4
.Ltmp487:
.LBB25_4:
	.loc	7 1863 3                        @ ../Library/STM32F4xx_HAL_Driver/Src/stm32f4xx_hal_spi.c:1863:3
	b	.LBB25_5
.Ltmp488:
.LBB25_5:
	.loc	7 1866 25 is_stmt 1             @ ../Library/STM32F4xx_HAL_Driver/Src/stm32f4xx_hal_spi.c:1866:25
	ldr	r0, [sp, #24]
	.loc	7 1866 31 is_stmt 0             @ ../Library/STM32F4xx_HAL_Driver/Src/stm32f4xx_hal_spi.c:1866:31
	ldrb.w	r0, [r0, #81]
	.loc	7 1866 23                       @ ../Library/STM32F4xx_HAL_Driver/Src/stm32f4xx_hal_spi.c:1866:23
	strb.w	r0, [sp, #7]
	.loc	7 1867 25 is_stmt 1             @ ../Library/STM32F4xx_HAL_Driver/Src/stm32f4xx_hal_spi.c:1867:25
	ldr	r0, [sp, #24]
	.loc	7 1867 36 is_stmt 0             @ ../Library/STM32F4xx_HAL_Driver/Src/stm32f4xx_hal_spi.c:1867:36
	ldr	r0, [r0, #4]
	.loc	7 1867 23                       @ ../Library/STM32F4xx_HAL_Driver/Src/stm32f4xx_hal_spi.c:1867:23
	str	r0, [sp, #8]
.Ltmp489:
	.loc	7 1869 10 is_stmt 1             @ ../Library/STM32F4xx_HAL_Driver/Src/stm32f4xx_hal_spi.c:1869:10
	ldrb.w	r0, [sp, #7]
	.loc	7 1869 44 is_stmt 0             @ ../Library/STM32F4xx_HAL_Driver/Src/stm32f4xx_hal_spi.c:1869:44
	cmp	r0, #1
	beq	.LBB25_10
	b	.LBB25_6
.LBB25_6:
	.loc	7 1870 11 is_stmt 1             @ ../Library/STM32F4xx_HAL_Driver/Src/stm32f4xx_hal_spi.c:1870:11
	ldr	r0, [sp, #8]
	.loc	7 1870 40 is_stmt 0             @ ../Library/STM32F4xx_HAL_Driver/Src/stm32f4xx_hal_spi.c:1870:40
	cmp.w	r0, #260
	bne	.LBB25_9
	b	.LBB25_7
.LBB25_7:
	.loc	7 1870 44                       @ ../Library/STM32F4xx_HAL_Driver/Src/stm32f4xx_hal_spi.c:1870:44
	ldr	r0, [sp, #24]
	.loc	7 1870 55                       @ ../Library/STM32F4xx_HAL_Driver/Src/stm32f4xx_hal_spi.c:1870:55
	ldr	r0, [r0, #8]
	.loc	7 1870 90                       @ ../Library/STM32F4xx_HAL_Driver/Src/stm32f4xx_hal_spi.c:1870:90
	cbnz	r0, .LBB25_9
	b	.LBB25_8
.LBB25_8:
	.loc	7 1870 94                       @ ../Library/STM32F4xx_HAL_Driver/Src/stm32f4xx_hal_spi.c:1870:94
	ldrb.w	r0, [sp, #7]
.Ltmp490:
	.loc	7 1869 7 is_stmt 1              @ ../Library/STM32F4xx_HAL_Driver/Src/stm32f4xx_hal_spi.c:1869:7
	cmp	r0, #4
	beq	.LBB25_10
	b	.LBB25_9
.LBB25_9:
	.loc	7 0 7 is_stmt 0                 @ ../Library/STM32F4xx_HAL_Driver/Src/stm32f4xx_hal_spi.c:0:7
	movs	r0, #2
.Ltmp491:
	.loc	7 1872 15 is_stmt 1             @ ../Library/STM32F4xx_HAL_Driver/Src/stm32f4xx_hal_spi.c:1872:15
	strb.w	r0, [sp, #6]
	.loc	7 1873 5                        @ ../Library/STM32F4xx_HAL_Driver/Src/stm32f4xx_hal_spi.c:1873:5
	b	.LBB25_26
.Ltmp492:
.LBB25_10:
	.loc	7 1876 8                        @ ../Library/STM32F4xx_HAL_Driver/Src/stm32f4xx_hal_spi.c:1876:8
	ldr	r0, [sp, #20]
	.loc	7 1876 25 is_stmt 0             @ ../Library/STM32F4xx_HAL_Driver/Src/stm32f4xx_hal_spi.c:1876:25
	cbz	r0, .LBB25_13
	b	.LBB25_11
.LBB25_11:
	.loc	7 1876 29                       @ ../Library/STM32F4xx_HAL_Driver/Src/stm32f4xx_hal_spi.c:1876:29
	ldr	r0, [sp, #16]
	.loc	7 1876 46                       @ ../Library/STM32F4xx_HAL_Driver/Src/stm32f4xx_hal_spi.c:1876:46
	cbz	r0, .LBB25_13
	b	.LBB25_12
.LBB25_12:
	.loc	7 1876 50                       @ ../Library/STM32F4xx_HAL_Driver/Src/stm32f4xx_hal_spi.c:1876:50
	ldrh.w	r0, [sp, #14]
.Ltmp493:
	.loc	7 1876 7                        @ ../Library/STM32F4xx_HAL_Driver/Src/stm32f4xx_hal_spi.c:1876:7
	cbnz	r0, .LBB25_14
	b	.LBB25_13
.LBB25_13:
	.loc	7 0 7                           @ ../Library/STM32F4xx_HAL_Driver/Src/stm32f4xx_hal_spi.c:0:7
	movs	r0, #1
.Ltmp494:
	.loc	7 1878 15 is_stmt 1             @ ../Library/STM32F4xx_HAL_Driver/Src/stm32f4xx_hal_spi.c:1878:15
	strb.w	r0, [sp, #6]
	.loc	7 1879 5                        @ ../Library/STM32F4xx_HAL_Driver/Src/stm32f4xx_hal_spi.c:1879:5
	b	.LBB25_26
.Ltmp495:
.LBB25_14:
	.loc	7 1883 7                        @ ../Library/STM32F4xx_HAL_Driver/Src/stm32f4xx_hal_spi.c:1883:7
	ldr	r0, [sp, #24]
	.loc	7 1883 13 is_stmt 0             @ ../Library/STM32F4xx_HAL_Driver/Src/stm32f4xx_hal_spi.c:1883:13
	ldrb.w	r0, [r0, #81]
.Ltmp496:
	.loc	7 1883 7                        @ ../Library/STM32F4xx_HAL_Driver/Src/stm32f4xx_hal_spi.c:1883:7
	cmp	r0, #4
	beq	.LBB25_16
	b	.LBB25_15
.LBB25_15:
.Ltmp497:
	.loc	7 1885 5 is_stmt 1              @ ../Library/STM32F4xx_HAL_Driver/Src/stm32f4xx_hal_spi.c:1885:5
	ldr	r1, [sp, #24]
	movs	r0, #5
	.loc	7 1885 17 is_stmt 0             @ ../Library/STM32F4xx_HAL_Driver/Src/stm32f4xx_hal_spi.c:1885:17
	strb.w	r0, [r1, #81]
	.loc	7 1886 3 is_stmt 1              @ ../Library/STM32F4xx_HAL_Driver/Src/stm32f4xx_hal_spi.c:1886:3
	b	.LBB25_16
.Ltmp498:
.LBB25_16:
	.loc	7 1889 3                        @ ../Library/STM32F4xx_HAL_Driver/Src/stm32f4xx_hal_spi.c:1889:3
	ldr	r1, [sp, #24]
	movs	r0, #0
	.loc	7 1889 21 is_stmt 0             @ ../Library/STM32F4xx_HAL_Driver/Src/stm32f4xx_hal_spi.c:1889:21
	str	r0, [r1, #84]
	.loc	7 1890 34 is_stmt 1             @ ../Library/STM32F4xx_HAL_Driver/Src/stm32f4xx_hal_spi.c:1890:34
	ldr	r1, [sp, #20]
	.loc	7 1890 3 is_stmt 0              @ ../Library/STM32F4xx_HAL_Driver/Src/stm32f4xx_hal_spi.c:1890:3
	ldr	r2, [sp, #24]
	.loc	7 1890 21                       @ ../Library/STM32F4xx_HAL_Driver/Src/stm32f4xx_hal_spi.c:1890:21
	str	r1, [r2, #48]
	.loc	7 1891 23 is_stmt 1             @ ../Library/STM32F4xx_HAL_Driver/Src/stm32f4xx_hal_spi.c:1891:23
	ldrh.w	r1, [sp, #14]
	.loc	7 1891 3 is_stmt 0              @ ../Library/STM32F4xx_HAL_Driver/Src/stm32f4xx_hal_spi.c:1891:3
	ldr	r2, [sp, #24]
	.loc	7 1891 21                       @ ../Library/STM32F4xx_HAL_Driver/Src/stm32f4xx_hal_spi.c:1891:21
	strh	r1, [r2, #52]
	.loc	7 1892 23 is_stmt 1             @ ../Library/STM32F4xx_HAL_Driver/Src/stm32f4xx_hal_spi.c:1892:23
	ldrh.w	r1, [sp, #14]
	.loc	7 1892 3 is_stmt 0              @ ../Library/STM32F4xx_HAL_Driver/Src/stm32f4xx_hal_spi.c:1892:3
	ldr	r2, [sp, #24]
	.loc	7 1892 21                       @ ../Library/STM32F4xx_HAL_Driver/Src/stm32f4xx_hal_spi.c:1892:21
	strh	r1, [r2, #54]
	.loc	7 1893 34 is_stmt 1             @ ../Library/STM32F4xx_HAL_Driver/Src/stm32f4xx_hal_spi.c:1893:34
	ldr	r1, [sp, #16]
	.loc	7 1893 3 is_stmt 0              @ ../Library/STM32F4xx_HAL_Driver/Src/stm32f4xx_hal_spi.c:1893:3
	ldr	r2, [sp, #24]
	.loc	7 1893 21                       @ ../Library/STM32F4xx_HAL_Driver/Src/stm32f4xx_hal_spi.c:1893:21
	str	r1, [r2, #56]
	.loc	7 1894 23 is_stmt 1             @ ../Library/STM32F4xx_HAL_Driver/Src/stm32f4xx_hal_spi.c:1894:23
	ldrh.w	r1, [sp, #14]
	.loc	7 1894 3 is_stmt 0              @ ../Library/STM32F4xx_HAL_Driver/Src/stm32f4xx_hal_spi.c:1894:3
	ldr	r2, [sp, #24]
	.loc	7 1894 21                       @ ../Library/STM32F4xx_HAL_Driver/Src/stm32f4xx_hal_spi.c:1894:21
	strh	r1, [r2, #60]
	.loc	7 1895 23 is_stmt 1             @ ../Library/STM32F4xx_HAL_Driver/Src/stm32f4xx_hal_spi.c:1895:23
	ldrh.w	r1, [sp, #14]
	.loc	7 1895 3 is_stmt 0              @ ../Library/STM32F4xx_HAL_Driver/Src/stm32f4xx_hal_spi.c:1895:3
	ldr	r2, [sp, #24]
	.loc	7 1895 21                       @ ../Library/STM32F4xx_HAL_Driver/Src/stm32f4xx_hal_spi.c:1895:21
	strh	r1, [r2, #62]
	.loc	7 1898 3 is_stmt 1              @ ../Library/STM32F4xx_HAL_Driver/Src/stm32f4xx_hal_spi.c:1898:3
	ldr	r1, [sp, #24]
	.loc	7 1898 21 is_stmt 0             @ ../Library/STM32F4xx_HAL_Driver/Src/stm32f4xx_hal_spi.c:1898:21
	str	r0, [r1, #64]
	.loc	7 1899 3 is_stmt 1              @ ../Library/STM32F4xx_HAL_Driver/Src/stm32f4xx_hal_spi.c:1899:3
	ldr	r1, [sp, #24]
	.loc	7 1899 21 is_stmt 0             @ ../Library/STM32F4xx_HAL_Driver/Src/stm32f4xx_hal_spi.c:1899:21
	str	r0, [r1, #68]
.Ltmp499:
	.loc	7 1910 7 is_stmt 1              @ ../Library/STM32F4xx_HAL_Driver/Src/stm32f4xx_hal_spi.c:1910:7
	ldr	r0, [sp, #24]
	.loc	7 1910 13 is_stmt 0             @ ../Library/STM32F4xx_HAL_Driver/Src/stm32f4xx_hal_spi.c:1910:13
	ldrb.w	r0, [r0, #81]
.Ltmp500:
	.loc	7 1910 7                        @ ../Library/STM32F4xx_HAL_Driver/Src/stm32f4xx_hal_spi.c:1910:7
	cmp	r0, #4
	bne	.LBB25_18
	b	.LBB25_17
.LBB25_17:
.Ltmp501:
	.loc	7 1913 5 is_stmt 1              @ ../Library/STM32F4xx_HAL_Driver/Src/stm32f4xx_hal_spi.c:1913:5
	ldr	r0, [sp, #24]
	.loc	7 1913 11 is_stmt 0             @ ../Library/STM32F4xx_HAL_Driver/Src/stm32f4xx_hal_spi.c:1913:11
	ldr	r1, [r0, #76]
	.loc	7 1913 40                       @ ../Library/STM32F4xx_HAL_Driver/Src/stm32f4xx_hal_spi.c:1913:40
	movw	r0, :lower16:SPI_DMAHalfReceiveCplt
	movt	r0, :upper16:SPI_DMAHalfReceiveCplt
	str	r0, [r1, #64]
	.loc	7 1914 5 is_stmt 1              @ ../Library/STM32F4xx_HAL_Driver/Src/stm32f4xx_hal_spi.c:1914:5
	ldr	r0, [sp, #24]
	.loc	7 1914 11 is_stmt 0             @ ../Library/STM32F4xx_HAL_Driver/Src/stm32f4xx_hal_spi.c:1914:11
	ldr	r1, [r0, #76]
	.loc	7 1914 40                       @ ../Library/STM32F4xx_HAL_Driver/Src/stm32f4xx_hal_spi.c:1914:40
	movw	r0, :lower16:SPI_DMAReceiveCplt
	movt	r0, :upper16:SPI_DMAReceiveCplt
	str	r0, [r1, #60]
	.loc	7 1915 3 is_stmt 1              @ ../Library/STM32F4xx_HAL_Driver/Src/stm32f4xx_hal_spi.c:1915:3
	b	.LBB25_19
.Ltmp502:
.LBB25_18:
	.loc	7 1919 5                        @ ../Library/STM32F4xx_HAL_Driver/Src/stm32f4xx_hal_spi.c:1919:5
	ldr	r0, [sp, #24]
	.loc	7 1919 11 is_stmt 0             @ ../Library/STM32F4xx_HAL_Driver/Src/stm32f4xx_hal_spi.c:1919:11
	ldr	r1, [r0, #76]
	.loc	7 1919 40                       @ ../Library/STM32F4xx_HAL_Driver/Src/stm32f4xx_hal_spi.c:1919:40
	movw	r0, :lower16:SPI_DMAHalfTransmitReceiveCplt
	movt	r0, :upper16:SPI_DMAHalfTransmitReceiveCplt
	str	r0, [r1, #64]
	.loc	7 1920 5 is_stmt 1              @ ../Library/STM32F4xx_HAL_Driver/Src/stm32f4xx_hal_spi.c:1920:5
	ldr	r0, [sp, #24]
	.loc	7 1920 11 is_stmt 0             @ ../Library/STM32F4xx_HAL_Driver/Src/stm32f4xx_hal_spi.c:1920:11
	ldr	r1, [r0, #76]
	.loc	7 1920 40                       @ ../Library/STM32F4xx_HAL_Driver/Src/stm32f4xx_hal_spi.c:1920:40
	movw	r0, :lower16:SPI_DMATransmitReceiveCplt
	movt	r0, :upper16:SPI_DMATransmitReceiveCplt
	str	r0, [r1, #60]
	b	.LBB25_19
.Ltmp503:
.LBB25_19:
	.loc	7 1924 3 is_stmt 1              @ ../Library/STM32F4xx_HAL_Driver/Src/stm32f4xx_hal_spi.c:1924:3
	ldr	r0, [sp, #24]
	.loc	7 1924 9 is_stmt 0              @ ../Library/STM32F4xx_HAL_Driver/Src/stm32f4xx_hal_spi.c:1924:9
	ldr	r1, [r0, #76]
	.loc	7 1924 35                       @ ../Library/STM32F4xx_HAL_Driver/Src/stm32f4xx_hal_spi.c:1924:35
	movw	r0, :lower16:SPI_DMAError
	movt	r0, :upper16:SPI_DMAError
	str	r0, [r1, #76]
	.loc	7 1927 3 is_stmt 1              @ ../Library/STM32F4xx_HAL_Driver/Src/stm32f4xx_hal_spi.c:1927:3
	ldr	r0, [sp, #24]
	.loc	7 1927 9 is_stmt 0              @ ../Library/STM32F4xx_HAL_Driver/Src/stm32f4xx_hal_spi.c:1927:9
	ldr	r1, [r0, #76]
	movs	r0, #0
	.loc	7 1927 35                       @ ../Library/STM32F4xx_HAL_Driver/Src/stm32f4xx_hal_spi.c:1927:35
	str	r0, [r1, #80]
.Ltmp504:
	.loc	7 1930 34 is_stmt 1             @ ../Library/STM32F4xx_HAL_Driver/Src/stm32f4xx_hal_spi.c:1930:34
	ldr	r3, [sp, #24]
	.loc	7 1930 65 is_stmt 0             @ ../Library/STM32F4xx_HAL_Driver/Src/stm32f4xx_hal_spi.c:1930:65
	ldr	r1, [r3]
	.loc	7 1930 95                       @ ../Library/STM32F4xx_HAL_Driver/Src/stm32f4xx_hal_spi.c:1930:95
	ldr	r2, [r3, #56]
	.loc	7 1930 40                       @ ../Library/STM32F4xx_HAL_Driver/Src/stm32f4xx_hal_spi.c:1930:40
	ldr	r0, [r3, #76]
	.loc	7 1930 75                       @ ../Library/STM32F4xx_HAL_Driver/Src/stm32f4xx_hal_spi.c:1930:75
	adds	r1, #12
	.loc	7 1931 40 is_stmt 1             @ ../Library/STM32F4xx_HAL_Driver/Src/stm32f4xx_hal_spi.c:1931:40
	ldrh	r3, [r3, #62]
	.loc	7 1930 17                       @ ../Library/STM32F4xx_HAL_Driver/Src/stm32f4xx_hal_spi.c:1930:17
	bl	HAL_DMA_Start_IT
.Ltmp505:
	.loc	7 1930 7 is_stmt 0              @ ../Library/STM32F4xx_HAL_Driver/Src/stm32f4xx_hal_spi.c:1930:7
	cbz	r0, .LBB25_21
	b	.LBB25_20
.LBB25_20:
.Ltmp506:
	.loc	7 1934 5 is_stmt 1              @ ../Library/STM32F4xx_HAL_Driver/Src/stm32f4xx_hal_spi.c:1934:5
	ldr	r1, [sp, #24]
	ldr	r0, [r1, #84]
	orr	r0, r0, #16
	str	r0, [r1, #84]
	movs	r0, #1
	.loc	7 1935 15                       @ ../Library/STM32F4xx_HAL_Driver/Src/stm32f4xx_hal_spi.c:1935:15
	strb.w	r0, [sp, #6]
	.loc	7 1937 5                        @ ../Library/STM32F4xx_HAL_Driver/Src/stm32f4xx_hal_spi.c:1937:5
	ldr	r1, [sp, #24]
	.loc	7 1937 17 is_stmt 0             @ ../Library/STM32F4xx_HAL_Driver/Src/stm32f4xx_hal_spi.c:1937:17
	strb.w	r0, [r1, #81]
	.loc	7 1938 5 is_stmt 1              @ ../Library/STM32F4xx_HAL_Driver/Src/stm32f4xx_hal_spi.c:1938:5
	b	.LBB25_26
.Ltmp507:
.LBB25_21:
	.loc	7 1942 3                        @ ../Library/STM32F4xx_HAL_Driver/Src/stm32f4xx_hal_spi.c:1942:3
	ldr	r0, [sp, #24]
	ldr	r1, [r0]
	ldr	r0, [r1, #4]
	orr	r0, r0, #1
	str	r0, [r1, #4]
	.loc	7 1946 3                        @ ../Library/STM32F4xx_HAL_Driver/Src/stm32f4xx_hal_spi.c:1946:3
	ldr	r0, [sp, #24]
	.loc	7 1946 9 is_stmt 0              @ ../Library/STM32F4xx_HAL_Driver/Src/stm32f4xx_hal_spi.c:1946:9
	ldr	r1, [r0, #72]
	movs	r0, #0
	.loc	7 1946 38                       @ ../Library/STM32F4xx_HAL_Driver/Src/stm32f4xx_hal_spi.c:1946:38
	str	r0, [r1, #64]
	.loc	7 1947 3 is_stmt 1              @ ../Library/STM32F4xx_HAL_Driver/Src/stm32f4xx_hal_spi.c:1947:3
	ldr	r1, [sp, #24]
	.loc	7 1947 9 is_stmt 0              @ ../Library/STM32F4xx_HAL_Driver/Src/stm32f4xx_hal_spi.c:1947:9
	ldr	r1, [r1, #72]
	.loc	7 1947 38                       @ ../Library/STM32F4xx_HAL_Driver/Src/stm32f4xx_hal_spi.c:1947:38
	str	r0, [r1, #60]
	.loc	7 1948 3 is_stmt 1              @ ../Library/STM32F4xx_HAL_Driver/Src/stm32f4xx_hal_spi.c:1948:3
	ldr	r1, [sp, #24]
	.loc	7 1948 9 is_stmt 0              @ ../Library/STM32F4xx_HAL_Driver/Src/stm32f4xx_hal_spi.c:1948:9
	ldr	r1, [r1, #72]
	.loc	7 1948 38                       @ ../Library/STM32F4xx_HAL_Driver/Src/stm32f4xx_hal_spi.c:1948:38
	str	r0, [r1, #76]
	.loc	7 1949 3 is_stmt 1              @ ../Library/STM32F4xx_HAL_Driver/Src/stm32f4xx_hal_spi.c:1949:3
	ldr	r1, [sp, #24]
	.loc	7 1949 9 is_stmt 0              @ ../Library/STM32F4xx_HAL_Driver/Src/stm32f4xx_hal_spi.c:1949:9
	ldr	r1, [r1, #72]
	.loc	7 1949 38                       @ ../Library/STM32F4xx_HAL_Driver/Src/stm32f4xx_hal_spi.c:1949:38
	str	r0, [r1, #80]
.Ltmp508:
	.loc	7 1952 34 is_stmt 1             @ ../Library/STM32F4xx_HAL_Driver/Src/stm32f4xx_hal_spi.c:1952:34
	ldr	r3, [sp, #24]
	.loc	7 1952 93 is_stmt 0             @ ../Library/STM32F4xx_HAL_Driver/Src/stm32f4xx_hal_spi.c:1952:93
	ldr	r2, [r3]
	.loc	7 1952 64                       @ ../Library/STM32F4xx_HAL_Driver/Src/stm32f4xx_hal_spi.c:1952:64
	ldr	r1, [r3, #48]
	.loc	7 1952 40                       @ ../Library/STM32F4xx_HAL_Driver/Src/stm32f4xx_hal_spi.c:1952:40
	ldr	r0, [r3, #72]
	.loc	7 1952 103                      @ ../Library/STM32F4xx_HAL_Driver/Src/stm32f4xx_hal_spi.c:1952:103
	adds	r2, #12
	.loc	7 1953 40 is_stmt 1             @ ../Library/STM32F4xx_HAL_Driver/Src/stm32f4xx_hal_spi.c:1953:40
	ldrh	r3, [r3, #54]
	.loc	7 1952 17                       @ ../Library/STM32F4xx_HAL_Driver/Src/stm32f4xx_hal_spi.c:1952:17
	bl	HAL_DMA_Start_IT
.Ltmp509:
	.loc	7 1952 7 is_stmt 0              @ ../Library/STM32F4xx_HAL_Driver/Src/stm32f4xx_hal_spi.c:1952:7
	cbz	r0, .LBB25_23
	b	.LBB25_22
.LBB25_22:
.Ltmp510:
	.loc	7 1956 5 is_stmt 1              @ ../Library/STM32F4xx_HAL_Driver/Src/stm32f4xx_hal_spi.c:1956:5
	ldr	r1, [sp, #24]
	ldr	r0, [r1, #84]
	orr	r0, r0, #16
	str	r0, [r1, #84]
	movs	r0, #1
	.loc	7 1957 15                       @ ../Library/STM32F4xx_HAL_Driver/Src/stm32f4xx_hal_spi.c:1957:15
	strb.w	r0, [sp, #6]
	.loc	7 1959 5                        @ ../Library/STM32F4xx_HAL_Driver/Src/stm32f4xx_hal_spi.c:1959:5
	ldr	r1, [sp, #24]
	.loc	7 1959 17 is_stmt 0             @ ../Library/STM32F4xx_HAL_Driver/Src/stm32f4xx_hal_spi.c:1959:17
	strb.w	r0, [r1, #81]
	.loc	7 1960 5 is_stmt 1              @ ../Library/STM32F4xx_HAL_Driver/Src/stm32f4xx_hal_spi.c:1960:5
	b	.LBB25_26
.Ltmp511:
.LBB25_23:
	.loc	7 1964 8                        @ ../Library/STM32F4xx_HAL_Driver/Src/stm32f4xx_hal_spi.c:1964:8
	ldr	r0, [sp, #24]
	.loc	7 1964 14 is_stmt 0             @ ../Library/STM32F4xx_HAL_Driver/Src/stm32f4xx_hal_spi.c:1964:14
	ldr	r0, [r0]
	.loc	7 1964 24                       @ ../Library/STM32F4xx_HAL_Driver/Src/stm32f4xx_hal_spi.c:1964:24
	ldr	r0, [r0]
	.loc	7 1964 28                       @ ../Library/STM32F4xx_HAL_Driver/Src/stm32f4xx_hal_spi.c:1964:28
	and	r0, r0, #64
.Ltmp512:
	.loc	7 1964 7                        @ ../Library/STM32F4xx_HAL_Driver/Src/stm32f4xx_hal_spi.c:1964:7
	cmp	r0, #64
	beq	.LBB25_25
	b	.LBB25_24
.LBB25_24:
.Ltmp513:
	.loc	7 1967 5 is_stmt 1              @ ../Library/STM32F4xx_HAL_Driver/Src/stm32f4xx_hal_spi.c:1967:5
	ldr	r0, [sp, #24]
	ldr	r1, [r0]
	ldr	r0, [r1]
	orr	r0, r0, #64
	str	r0, [r1]
	.loc	7 1968 3                        @ ../Library/STM32F4xx_HAL_Driver/Src/stm32f4xx_hal_spi.c:1968:3
	b	.LBB25_25
.Ltmp514:
.LBB25_25:
	.loc	7 1970 3                        @ ../Library/STM32F4xx_HAL_Driver/Src/stm32f4xx_hal_spi.c:1970:3
	ldr	r0, [sp, #24]
	ldr	r1, [r0]
	ldr	r0, [r1, #4]
	orr	r0, r0, #32
	str	r0, [r1, #4]
	.loc	7 1973 3                        @ ../Library/STM32F4xx_HAL_Driver/Src/stm32f4xx_hal_spi.c:1973:3
	ldr	r0, [sp, #24]
	ldr	r1, [r0]
	ldr	r0, [r1, #4]
	orr	r0, r0, #2
	str	r0, [r1, #4]
	b	.LBB25_26
.LBB25_26:
.Ltmp515:
	@DEBUG_LABEL: HAL_SPI_TransmitReceive_DMA:error
	.loc	7 1977 3                        @ ../Library/STM32F4xx_HAL_Driver/Src/stm32f4xx_hal_spi.c:1977:3
	b	.LBB25_27
.LBB25_27:
.Ltmp516:
	.loc	7 1977 3 is_stmt 0              @ ../Library/STM32F4xx_HAL_Driver/Src/stm32f4xx_hal_spi.c:1977:3
	ldr	r1, [sp, #24]
	movs	r0, #0
	strb.w	r0, [r1, #80]
	b	.LBB25_28
.Ltmp517:
.LBB25_28:
	.loc	7 1978 10 is_stmt 1             @ ../Library/STM32F4xx_HAL_Driver/Src/stm32f4xx_hal_spi.c:1978:10
	ldrb.w	r0, [sp, #6]
	.loc	7 1978 3 is_stmt 0              @ ../Library/STM32F4xx_HAL_Driver/Src/stm32f4xx_hal_spi.c:1978:3
	strb.w	r0, [sp, #31]
	b	.LBB25_29
.LBB25_29:
	.loc	7 1979 1 is_stmt 1              @ ../Library/STM32F4xx_HAL_Driver/Src/stm32f4xx_hal_spi.c:1979:1
	ldrb.w	r0, [sp, #31]
	add	sp, #32
	pop	{r7, pc}
.Ltmp518:
.Lfunc_end25:
	.size	HAL_SPI_TransmitReceive_DMA, .Lfunc_end25-HAL_SPI_TransmitReceive_DMA
	.cfi_endproc
	.cantunwind
	.fnend
                                        @ -- End function
	.section	.text.SPI_DMAHalfReceiveCplt,"ax",%progbits
	.p2align	2                               @ -- Begin function SPI_DMAHalfReceiveCplt
	.type	SPI_DMAHalfReceiveCplt,%function
	.code	16                              @ @SPI_DMAHalfReceiveCplt
	.thumb_func
SPI_DMAHalfReceiveCplt:
.Lfunc_begin26:
	.loc	7 2918 0                        @ ../Library/STM32F4xx_HAL_Driver/Src/stm32f4xx_hal_spi.c:2918:0
	.fnstart
	.cfi_startproc
@ %bb.0:
	.save	{r7, lr}
	push	{r7, lr}
	.cfi_def_cfa_offset 8
	.cfi_offset lr, -4
	.cfi_offset r7, -8
	.pad	#8
	sub	sp, #8
	.cfi_def_cfa_offset 16
	str	r0, [sp, #4]
.Ltmp519:
	.loc	7 2919 73 prologue_end          @ ../Library/STM32F4xx_HAL_Driver/Src/stm32f4xx_hal_spi.c:2919:73
	ldr	r0, [sp, #4]
	.loc	7 2919 80 is_stmt 0             @ ../Library/STM32F4xx_HAL_Driver/Src/stm32f4xx_hal_spi.c:2919:80
	ldr	r0, [r0, #56]
	.loc	7 2919 22                       @ ../Library/STM32F4xx_HAL_Driver/Src/stm32f4xx_hal_spi.c:2919:22
	str	r0, [sp]
	.loc	7 2925 30 is_stmt 1             @ ../Library/STM32F4xx_HAL_Driver/Src/stm32f4xx_hal_spi.c:2925:30
	ldr	r0, [sp]
	.loc	7 2925 3 is_stmt 0              @ ../Library/STM32F4xx_HAL_Driver/Src/stm32f4xx_hal_spi.c:2925:3
	bl	HAL_SPI_RxHalfCpltCallback
	.loc	7 2927 1 is_stmt 1              @ ../Library/STM32F4xx_HAL_Driver/Src/stm32f4xx_hal_spi.c:2927:1
	add	sp, #8
	pop	{r7, pc}
.Ltmp520:
.Lfunc_end26:
	.size	SPI_DMAHalfReceiveCplt, .Lfunc_end26-SPI_DMAHalfReceiveCplt
	.cfi_endproc
	.cantunwind
	.fnend
                                        @ -- End function
	.section	.text.SPI_DMAReceiveCplt,"ax",%progbits
	.p2align	2                               @ -- Begin function SPI_DMAReceiveCplt
	.type	SPI_DMAReceiveCplt,%function
	.code	16                              @ @SPI_DMAReceiveCplt
	.thumb_func
SPI_DMAReceiveCplt:
.Lfunc_begin27:
	.loc	7 2731 0                        @ ../Library/STM32F4xx_HAL_Driver/Src/stm32f4xx_hal_spi.c:2731:0
	.fnstart
	.cfi_startproc
@ %bb.0:
	.save	{r7, lr}
	push	{r7, lr}
	.cfi_def_cfa_offset 8
	.cfi_offset lr, -4
	.cfi_offset r7, -8
	.pad	#16
	sub	sp, #16
	.cfi_def_cfa_offset 24
	str	r0, [sp, #12]
.Ltmp521:
	.loc	7 2732 73 prologue_end          @ ../Library/STM32F4xx_HAL_Driver/Src/stm32f4xx_hal_spi.c:2732:73
	ldr	r0, [sp, #12]
	.loc	7 2732 80 is_stmt 0             @ ../Library/STM32F4xx_HAL_Driver/Src/stm32f4xx_hal_spi.c:2732:80
	ldr	r0, [r0, #56]
	.loc	7 2732 22                       @ ../Library/STM32F4xx_HAL_Driver/Src/stm32f4xx_hal_spi.c:2732:22
	str	r0, [sp, #8]
	.loc	7 2739 15 is_stmt 1             @ ../Library/STM32F4xx_HAL_Driver/Src/stm32f4xx_hal_spi.c:2739:15
	bl	HAL_GetTick
	.loc	7 2739 13 is_stmt 0             @ ../Library/STM32F4xx_HAL_Driver/Src/stm32f4xx_hal_spi.c:2739:13
	str	r0, [sp, #4]
.Ltmp522:
	.loc	7 2742 8 is_stmt 1              @ ../Library/STM32F4xx_HAL_Driver/Src/stm32f4xx_hal_spi.c:2742:8
	ldr	r0, [sp, #12]
	.loc	7 2742 14 is_stmt 0             @ ../Library/STM32F4xx_HAL_Driver/Src/stm32f4xx_hal_spi.c:2742:14
	ldr	r0, [r0]
	.loc	7 2742 24                       @ ../Library/STM32F4xx_HAL_Driver/Src/stm32f4xx_hal_spi.c:2742:24
	ldr	r0, [r0]
	.loc	7 2742 27                       @ ../Library/STM32F4xx_HAL_Driver/Src/stm32f4xx_hal_spi.c:2742:27
	and	r0, r0, #256
.Ltmp523:
	.loc	7 2742 7                        @ ../Library/STM32F4xx_HAL_Driver/Src/stm32f4xx_hal_spi.c:2742:7
	cmp.w	r0, #256
	beq	.LBB27_10
	b	.LBB27_1
.LBB27_1:
.Ltmp524:
	.loc	7 2745 5 is_stmt 1              @ ../Library/STM32F4xx_HAL_Driver/Src/stm32f4xx_hal_spi.c:2745:5
	ldr	r0, [sp, #8]
	ldr	r1, [r0]
	ldr	r0, [r1, #4]
	bic	r0, r0, #32
	str	r0, [r1, #4]
.Ltmp525:
	.loc	7 2765 10                       @ ../Library/STM32F4xx_HAL_Driver/Src/stm32f4xx_hal_spi.c:2765:10
	ldr	r0, [sp, #8]
	.loc	7 2765 21 is_stmt 0             @ ../Library/STM32F4xx_HAL_Driver/Src/stm32f4xx_hal_spi.c:2765:21
	ldr	r0, [r0, #8]
	.loc	7 2765 56                       @ ../Library/STM32F4xx_HAL_Driver/Src/stm32f4xx_hal_spi.c:2765:56
	cbnz	r0, .LBB27_4
	b	.LBB27_2
.LBB27_2:
	.loc	7 2765 60                       @ ../Library/STM32F4xx_HAL_Driver/Src/stm32f4xx_hal_spi.c:2765:60
	ldr	r0, [sp, #8]
	.loc	7 2765 71                       @ ../Library/STM32F4xx_HAL_Driver/Src/stm32f4xx_hal_spi.c:2765:71
	ldr	r0, [r0, #4]
.Ltmp526:
	.loc	7 2765 9                        @ ../Library/STM32F4xx_HAL_Driver/Src/stm32f4xx_hal_spi.c:2765:9
	cmp.w	r0, #260
	bne	.LBB27_4
	b	.LBB27_3
.LBB27_3:
.Ltmp527:
	.loc	7 2768 7 is_stmt 1              @ ../Library/STM32F4xx_HAL_Driver/Src/stm32f4xx_hal_spi.c:2768:7
	ldr	r0, [sp, #8]
	ldr	r1, [r0]
	ldr	r0, [r1, #4]
	bic	r0, r0, #3
	str	r0, [r1, #4]
	.loc	7 2769 5                        @ ../Library/STM32F4xx_HAL_Driver/Src/stm32f4xx_hal_spi.c:2769:5
	b	.LBB27_5
.Ltmp528:
.LBB27_4:
	.loc	7 2773 7                        @ ../Library/STM32F4xx_HAL_Driver/Src/stm32f4xx_hal_spi.c:2773:7
	ldr	r0, [sp, #8]
	ldr	r1, [r0]
	ldr	r0, [r1, #4]
	bic	r0, r0, #1
	str	r0, [r1, #4]
	b	.LBB27_5
.Ltmp529:
.LBB27_5:
	.loc	7 2777 30                       @ ../Library/STM32F4xx_HAL_Driver/Src/stm32f4xx_hal_spi.c:2777:30
	ldr	r0, [sp, #8]
	.loc	7 2777 57 is_stmt 0             @ ../Library/STM32F4xx_HAL_Driver/Src/stm32f4xx_hal_spi.c:2777:57
	ldr	r2, [sp, #4]
	movs	r1, #100
	.loc	7 2777 9                        @ ../Library/STM32F4xx_HAL_Driver/Src/stm32f4xx_hal_spi.c:2777:9
	bl	SPI_EndRxTransaction
.Ltmp530:
	.loc	7 2777 9                        @ ../Library/STM32F4xx_HAL_Driver/Src/stm32f4xx_hal_spi.c:2777:9
	cbz	r0, .LBB27_7
	b	.LBB27_6
.LBB27_6:
.Ltmp531:
	.loc	7 2779 7 is_stmt 1              @ ../Library/STM32F4xx_HAL_Driver/Src/stm32f4xx_hal_spi.c:2779:7
	ldr	r1, [sp, #8]
	movs	r0, #32
	.loc	7 2779 23 is_stmt 0             @ ../Library/STM32F4xx_HAL_Driver/Src/stm32f4xx_hal_spi.c:2779:23
	str	r0, [r1, #84]
	.loc	7 2780 5 is_stmt 1              @ ../Library/STM32F4xx_HAL_Driver/Src/stm32f4xx_hal_spi.c:2780:5
	b	.LBB27_7
.Ltmp532:
.LBB27_7:
	.loc	7 2782 5                        @ ../Library/STM32F4xx_HAL_Driver/Src/stm32f4xx_hal_spi.c:2782:5
	ldr	r1, [sp, #8]
	movs	r0, #0
	.loc	7 2782 23 is_stmt 0             @ ../Library/STM32F4xx_HAL_Driver/Src/stm32f4xx_hal_spi.c:2782:23
	strh	r0, [r1, #62]
	.loc	7 2783 5 is_stmt 1              @ ../Library/STM32F4xx_HAL_Driver/Src/stm32f4xx_hal_spi.c:2783:5
	ldr	r1, [sp, #8]
	movs	r0, #1
	.loc	7 2783 17 is_stmt 0             @ ../Library/STM32F4xx_HAL_Driver/Src/stm32f4xx_hal_spi.c:2783:17
	strb.w	r0, [r1, #81]
.Ltmp533:
	.loc	7 2794 9 is_stmt 1              @ ../Library/STM32F4xx_HAL_Driver/Src/stm32f4xx_hal_spi.c:2794:9
	ldr	r0, [sp, #8]
	.loc	7 2794 15 is_stmt 0             @ ../Library/STM32F4xx_HAL_Driver/Src/stm32f4xx_hal_spi.c:2794:15
	ldr	r0, [r0, #84]
.Ltmp534:
	.loc	7 2794 9                        @ ../Library/STM32F4xx_HAL_Driver/Src/stm32f4xx_hal_spi.c:2794:9
	cbz	r0, .LBB27_9
	b	.LBB27_8
.LBB27_8:
.Ltmp535:
	.loc	7 2800 29 is_stmt 1             @ ../Library/STM32F4xx_HAL_Driver/Src/stm32f4xx_hal_spi.c:2800:29
	ldr	r0, [sp, #8]
	.loc	7 2800 7 is_stmt 0              @ ../Library/STM32F4xx_HAL_Driver/Src/stm32f4xx_hal_spi.c:2800:7
	bl	HAL_SPI_ErrorCallback
	.loc	7 2802 7 is_stmt 1              @ ../Library/STM32F4xx_HAL_Driver/Src/stm32f4xx_hal_spi.c:2802:7
	b	.LBB27_11
.Ltmp536:
.LBB27_9:
	.loc	7 2804 3                        @ ../Library/STM32F4xx_HAL_Driver/Src/stm32f4xx_hal_spi.c:2804:3
	b	.LBB27_10
.Ltmp537:
.LBB27_10:
	.loc	7 2809 26                       @ ../Library/STM32F4xx_HAL_Driver/Src/stm32f4xx_hal_spi.c:2809:26
	ldr	r0, [sp, #8]
	.loc	7 2809 3 is_stmt 0              @ ../Library/STM32F4xx_HAL_Driver/Src/stm32f4xx_hal_spi.c:2809:3
	bl	HAL_SPI_RxCpltCallback
	.loc	7 2811 1 is_stmt 1              @ ../Library/STM32F4xx_HAL_Driver/Src/stm32f4xx_hal_spi.c:2811:1
	b	.LBB27_11
.LBB27_11:
	add	sp, #16
	pop	{r7, pc}
.Ltmp538:
.Lfunc_end27:
	.size	SPI_DMAReceiveCplt, .Lfunc_end27-SPI_DMAReceiveCplt
	.cfi_endproc
	.cantunwind
	.fnend
                                        @ -- End function
	.section	.text.SPI_DMAHalfTransmitReceiveCplt,"ax",%progbits
	.p2align	2                               @ -- Begin function SPI_DMAHalfTransmitReceiveCplt
	.type	SPI_DMAHalfTransmitReceiveCplt,%function
	.code	16                              @ @SPI_DMAHalfTransmitReceiveCplt
	.thumb_func
SPI_DMAHalfTransmitReceiveCplt:
.Lfunc_begin28:
	.loc	7 2936 0                        @ ../Library/STM32F4xx_HAL_Driver/Src/stm32f4xx_hal_spi.c:2936:0
	.fnstart
	.cfi_startproc
@ %bb.0:
	.save	{r7, lr}
	push	{r7, lr}
	.cfi_def_cfa_offset 8
	.cfi_offset lr, -4
	.cfi_offset r7, -8
	.pad	#8
	sub	sp, #8
	.cfi_def_cfa_offset 16
	str	r0, [sp, #4]
.Ltmp539:
	.loc	7 2937 73 prologue_end          @ ../Library/STM32F4xx_HAL_Driver/Src/stm32f4xx_hal_spi.c:2937:73
	ldr	r0, [sp, #4]
	.loc	7 2937 80 is_stmt 0             @ ../Library/STM32F4xx_HAL_Driver/Src/stm32f4xx_hal_spi.c:2937:80
	ldr	r0, [r0, #56]
	.loc	7 2937 22                       @ ../Library/STM32F4xx_HAL_Driver/Src/stm32f4xx_hal_spi.c:2937:22
	str	r0, [sp]
	.loc	7 2943 32 is_stmt 1             @ ../Library/STM32F4xx_HAL_Driver/Src/stm32f4xx_hal_spi.c:2943:32
	ldr	r0, [sp]
	.loc	7 2943 3 is_stmt 0              @ ../Library/STM32F4xx_HAL_Driver/Src/stm32f4xx_hal_spi.c:2943:3
	bl	HAL_SPI_TxRxHalfCpltCallback
	.loc	7 2945 1 is_stmt 1              @ ../Library/STM32F4xx_HAL_Driver/Src/stm32f4xx_hal_spi.c:2945:1
	add	sp, #8
	pop	{r7, pc}
.Ltmp540:
.Lfunc_end28:
	.size	SPI_DMAHalfTransmitReceiveCplt, .Lfunc_end28-SPI_DMAHalfTransmitReceiveCplt
	.cfi_endproc
	.cantunwind
	.fnend
                                        @ -- End function
	.section	.text.SPI_DMATransmitReceiveCplt,"ax",%progbits
	.p2align	2                               @ -- Begin function SPI_DMATransmitReceiveCplt
	.type	SPI_DMATransmitReceiveCplt,%function
	.code	16                              @ @SPI_DMATransmitReceiveCplt
	.thumb_func
SPI_DMATransmitReceiveCplt:
.Lfunc_begin29:
	.loc	7 2820 0                        @ ../Library/STM32F4xx_HAL_Driver/Src/stm32f4xx_hal_spi.c:2820:0
	.fnstart
	.cfi_startproc
@ %bb.0:
	.save	{r7, lr}
	push	{r7, lr}
	.cfi_def_cfa_offset 8
	.cfi_offset lr, -4
	.cfi_offset r7, -8
	.pad	#16
	sub	sp, #16
	.cfi_def_cfa_offset 24
	str	r0, [sp, #12]
.Ltmp541:
	.loc	7 2821 73 prologue_end          @ ../Library/STM32F4xx_HAL_Driver/Src/stm32f4xx_hal_spi.c:2821:73
	ldr	r0, [sp, #12]
	.loc	7 2821 80 is_stmt 0             @ ../Library/STM32F4xx_HAL_Driver/Src/stm32f4xx_hal_spi.c:2821:80
	ldr	r0, [r0, #56]
	.loc	7 2821 22                       @ ../Library/STM32F4xx_HAL_Driver/Src/stm32f4xx_hal_spi.c:2821:22
	str	r0, [sp, #8]
	.loc	7 2828 15 is_stmt 1             @ ../Library/STM32F4xx_HAL_Driver/Src/stm32f4xx_hal_spi.c:2828:15
	bl	HAL_GetTick
	.loc	7 2828 13 is_stmt 0             @ ../Library/STM32F4xx_HAL_Driver/Src/stm32f4xx_hal_spi.c:2828:13
	str	r0, [sp, #4]
.Ltmp542:
	.loc	7 2831 8 is_stmt 1              @ ../Library/STM32F4xx_HAL_Driver/Src/stm32f4xx_hal_spi.c:2831:8
	ldr	r0, [sp, #12]
	.loc	7 2831 14 is_stmt 0             @ ../Library/STM32F4xx_HAL_Driver/Src/stm32f4xx_hal_spi.c:2831:14
	ldr	r0, [r0]
	.loc	7 2831 24                       @ ../Library/STM32F4xx_HAL_Driver/Src/stm32f4xx_hal_spi.c:2831:24
	ldr	r0, [r0]
	.loc	7 2831 27                       @ ../Library/STM32F4xx_HAL_Driver/Src/stm32f4xx_hal_spi.c:2831:27
	and	r0, r0, #256
.Ltmp543:
	.loc	7 2831 7                        @ ../Library/STM32F4xx_HAL_Driver/Src/stm32f4xx_hal_spi.c:2831:7
	cmp.w	r0, #256
	beq	.LBB29_6
	b	.LBB29_1
.LBB29_1:
.Ltmp544:
	.loc	7 2834 5 is_stmt 1              @ ../Library/STM32F4xx_HAL_Driver/Src/stm32f4xx_hal_spi.c:2834:5
	ldr	r0, [sp, #8]
	ldr	r1, [r0]
	ldr	r0, [r1, #4]
	bic	r0, r0, #32
	str	r0, [r1, #4]
.Ltmp545:
	.loc	7 2853 32                       @ ../Library/STM32F4xx_HAL_Driver/Src/stm32f4xx_hal_spi.c:2853:32
	ldr	r0, [sp, #8]
	.loc	7 2853 59 is_stmt 0             @ ../Library/STM32F4xx_HAL_Driver/Src/stm32f4xx_hal_spi.c:2853:59
	ldr	r2, [sp, #4]
	movs	r1, #100
	.loc	7 2853 9                        @ ../Library/STM32F4xx_HAL_Driver/Src/stm32f4xx_hal_spi.c:2853:9
	bl	SPI_EndRxTxTransaction
.Ltmp546:
	.loc	7 2853 9                        @ ../Library/STM32F4xx_HAL_Driver/Src/stm32f4xx_hal_spi.c:2853:9
	cbz	r0, .LBB29_3
	b	.LBB29_2
.LBB29_2:
.Ltmp547:
	.loc	7 2855 7 is_stmt 1              @ ../Library/STM32F4xx_HAL_Driver/Src/stm32f4xx_hal_spi.c:2855:7
	ldr	r1, [sp, #8]
	ldr	r0, [r1, #84]
	orr	r0, r0, #32
	str	r0, [r1, #84]
	.loc	7 2856 5                        @ ../Library/STM32F4xx_HAL_Driver/Src/stm32f4xx_hal_spi.c:2856:5
	b	.LBB29_3
.Ltmp548:
.LBB29_3:
	.loc	7 2859 5                        @ ../Library/STM32F4xx_HAL_Driver/Src/stm32f4xx_hal_spi.c:2859:5
	ldr	r0, [sp, #8]
	ldr	r1, [r0]
	ldr	r0, [r1, #4]
	bic	r0, r0, #3
	str	r0, [r1, #4]
	.loc	7 2861 5                        @ ../Library/STM32F4xx_HAL_Driver/Src/stm32f4xx_hal_spi.c:2861:5
	ldr	r1, [sp, #8]
	movs	r0, #0
	.loc	7 2861 23 is_stmt 0             @ ../Library/STM32F4xx_HAL_Driver/Src/stm32f4xx_hal_spi.c:2861:23
	strh	r0, [r1, #54]
	.loc	7 2862 5 is_stmt 1              @ ../Library/STM32F4xx_HAL_Driver/Src/stm32f4xx_hal_spi.c:2862:5
	ldr	r1, [sp, #8]
	.loc	7 2862 23 is_stmt 0             @ ../Library/STM32F4xx_HAL_Driver/Src/stm32f4xx_hal_spi.c:2862:23
	strh	r0, [r1, #62]
	.loc	7 2863 5 is_stmt 1              @ ../Library/STM32F4xx_HAL_Driver/Src/stm32f4xx_hal_spi.c:2863:5
	ldr	r1, [sp, #8]
	movs	r0, #1
	.loc	7 2863 17 is_stmt 0             @ ../Library/STM32F4xx_HAL_Driver/Src/stm32f4xx_hal_spi.c:2863:17
	strb.w	r0, [r1, #81]
.Ltmp549:
	.loc	7 2874 9 is_stmt 1              @ ../Library/STM32F4xx_HAL_Driver/Src/stm32f4xx_hal_spi.c:2874:9
	ldr	r0, [sp, #8]
	.loc	7 2874 15 is_stmt 0             @ ../Library/STM32F4xx_HAL_Driver/Src/stm32f4xx_hal_spi.c:2874:15
	ldr	r0, [r0, #84]
.Ltmp550:
	.loc	7 2874 9                        @ ../Library/STM32F4xx_HAL_Driver/Src/stm32f4xx_hal_spi.c:2874:9
	cbz	r0, .LBB29_5
	b	.LBB29_4
.LBB29_4:
.Ltmp551:
	.loc	7 2880 29 is_stmt 1             @ ../Library/STM32F4xx_HAL_Driver/Src/stm32f4xx_hal_spi.c:2880:29
	ldr	r0, [sp, #8]
	.loc	7 2880 7 is_stmt 0              @ ../Library/STM32F4xx_HAL_Driver/Src/stm32f4xx_hal_spi.c:2880:7
	bl	HAL_SPI_ErrorCallback
	.loc	7 2882 7 is_stmt 1              @ ../Library/STM32F4xx_HAL_Driver/Src/stm32f4xx_hal_spi.c:2882:7
	b	.LBB29_7
.Ltmp552:
.LBB29_5:
	.loc	7 2884 3                        @ ../Library/STM32F4xx_HAL_Driver/Src/stm32f4xx_hal_spi.c:2884:3
	b	.LBB29_6
.Ltmp553:
.LBB29_6:
	.loc	7 2889 28                       @ ../Library/STM32F4xx_HAL_Driver/Src/stm32f4xx_hal_spi.c:2889:28
	ldr	r0, [sp, #8]
	.loc	7 2889 3 is_stmt 0              @ ../Library/STM32F4xx_HAL_Driver/Src/stm32f4xx_hal_spi.c:2889:3
	bl	HAL_SPI_TxRxCpltCallback
	.loc	7 2891 1 is_stmt 1              @ ../Library/STM32F4xx_HAL_Driver/Src/stm32f4xx_hal_spi.c:2891:1
	b	.LBB29_7
.LBB29_7:
	add	sp, #16
	pop	{r7, pc}
.Ltmp554:
.Lfunc_end29:
	.size	SPI_DMATransmitReceiveCplt, .Lfunc_end29-SPI_DMATransmitReceiveCplt
	.cfi_endproc
	.cantunwind
	.fnend
                                        @ -- End function
	.section	.text.HAL_SPI_Abort,"ax",%progbits
	.hidden	HAL_SPI_Abort                   @ -- Begin function HAL_SPI_Abort
	.globl	HAL_SPI_Abort
	.p2align	2
	.type	HAL_SPI_Abort,%function
	.code	16                              @ @HAL_SPI_Abort
	.thumb_func
HAL_SPI_Abort:
.Lfunc_begin30:
	.loc	7 1995 0                        @ ../Library/STM32F4xx_HAL_Driver/Src/stm32f4xx_hal_spi.c:1995:0
	.fnstart
	.cfi_startproc
@ %bb.0:
	.save	{r7, lr}
	push	{r7, lr}
	.cfi_def_cfa_offset 8
	.cfi_offset lr, -4
	.cfi_offset r7, -8
	.pad	#24
	sub	sp, #24
	.cfi_def_cfa_offset 32
	str	r0, [sp, #20]
	movs	r0, #0
.Ltmp555:
	.loc	7 2001 13 prologue_end          @ ../Library/STM32F4xx_HAL_Driver/Src/stm32f4xx_hal_spi.c:2001:13
	strb.w	r0, [sp, #19]
	.loc	7 2002 39                       @ ../Library/STM32F4xx_HAL_Driver/Src/stm32f4xx_hal_spi.c:2002:39
	movw	r0, :lower16:SystemCoreClock
	movt	r0, :upper16:SystemCoreClock
	ldr	r0, [r0]
	movw	r1, #43691
	movt	r1, #43690
	.loc	7 2002 55 is_stmt 0             @ ../Library/STM32F4xx_HAL_Driver/Src/stm32f4xx_hal_spi.c:2002:55
	umull	r1, r0, r0, r1
	lsrs	r0, r0, #4
	movw	r1, #19923
	movt	r1, #4194
	.loc	7 2002 61                       @ ../Library/STM32F4xx_HAL_Driver/Src/stm32f4xx_hal_spi.c:2002:61
	umull	r1, r0, r0, r1
	lsrs	r0, r0, #6
	movs	r1, #100
	.loc	7 2002 36                       @ ../Library/STM32F4xx_HAL_Driver/Src/stm32f4xx_hal_spi.c:2002:36
	muls	r0, r1, r0
	.loc	7 2002 14                       @ ../Library/STM32F4xx_HAL_Driver/Src/stm32f4xx_hal_spi.c:2002:14
	str	r0, [sp, #8]
	.loc	7 2003 11 is_stmt 1             @ ../Library/STM32F4xx_HAL_Driver/Src/stm32f4xx_hal_spi.c:2003:11
	ldr	r0, [sp, #8]
	.loc	7 2003 9 is_stmt 0              @ ../Library/STM32F4xx_HAL_Driver/Src/stm32f4xx_hal_spi.c:2003:9
	str	r0, [sp, #12]
	.loc	7 2006 3 is_stmt 1              @ ../Library/STM32F4xx_HAL_Driver/Src/stm32f4xx_hal_spi.c:2006:3
	ldr	r0, [sp, #20]
	ldr	r1, [r0]
	ldr	r0, [r1, #4]
	bic	r0, r0, #32
	str	r0, [r1, #4]
.Ltmp556:
	.loc	7 2009 7                        @ ../Library/STM32F4xx_HAL_Driver/Src/stm32f4xx_hal_spi.c:2009:7
	ldr	r0, [sp, #20]
	ldr	r0, [r0]
	ldr	r0, [r0, #4]
.Ltmp557:
	.loc	7 2009 7 is_stmt 0              @ ../Library/STM32F4xx_HAL_Driver/Src/stm32f4xx_hal_spi.c:2009:7
	lsls	r0, r0, #24
	cmp	r0, #0
	bpl	.LBB30_7
	b	.LBB30_1
.LBB30_1:
.Ltmp558:
	.loc	7 2011 5 is_stmt 1              @ ../Library/STM32F4xx_HAL_Driver/Src/stm32f4xx_hal_spi.c:2011:5
	ldr	r1, [sp, #20]
	.loc	7 2011 17 is_stmt 0             @ ../Library/STM32F4xx_HAL_Driver/Src/stm32f4xx_hal_spi.c:2011:17
	movw	r0, :lower16:SPI_AbortTx_ISR
	movt	r0, :upper16:SPI_AbortTx_ISR
	str	r0, [r1, #68]
