	.text
	.syntax unified
	.eabi_attribute	67, "2.09"	@ Tag_conformance
	.cpu	cortex-m4
	.eabi_attribute	6, 13	@ Tag_CPU_arch
	.eabi_attribute	7, 77	@ Tag_CPU_arch_profile
	.eabi_attribute	8, 0	@ Tag_ARM_ISA_use
	.eabi_attribute	9, 2	@ Tag_THUMB_ISA_use
	.fpu	fpv4-sp-d16
	.eabi_attribute	27, 1	@ Tag_ABI_HardFP_use
	.eabi_attribute	36, 1	@ Tag_FP_HP_extension
	.eabi_attribute	34, 1	@ Tag_CPU_unaligned_access
	.eabi_attribute	17, 1	@ Tag_ABI_PCS_GOT_use
	.eabi_attribute	20, 2	@ Tag_ABI_FP_denormal
	.eabi_attribute	21, 0	@ Tag_ABI_FP_exceptions
	.eabi_attribute	23, 1	@ Tag_ABI_FP_number_model
	.eabi_attribute	24, 1	@ Tag_ABI_align_needed
	.eabi_attribute	25, 1	@ Tag_ABI_align_preserved
	.eabi_attribute	28, 1	@ Tag_ABI_VFP_args
	.eabi_attribute	38, 1	@ Tag_ABI_FP_16bit_format
	.eabi_attribute	18, 2	@ Tag_ABI_PCS_wchar_t
	.eabi_attribute	26, 1	@ Tag_ABI_enum_size
	.eabi_attribute	14, 0	@ Tag_ABI_PCS_R9_use
	.file	"stm32f4xx_hal_exti.c"
	.file	1 "C:\\Users\\Hyacincher\\Desktop\\HyTelectrl\\Code\\Project" "../Library/STM32F4xx_HAL_Driver/Inc/stm32f4xx_hal_def.h"
	.file	2 "C:\\Users\\Hyacincher\\Desktop\\HyTelectrl\\Code\\Project" "../Library/STM32F4xx_HAL_Driver/Inc\\stm32f4xx_hal_exti.h"
	.file	3 "D:\\Keil MDK\\ARM\\ARMCLANG\\Bin\\..\\include" "stdint.h"
	.file	4 "C:\\Users\\Hyacincher\\Desktop\\HyTelectrl\\Code\\Project" "../Library/CMSIS/stm32f429xx.h"
	.section	.text.HAL_EXTI_SetConfigLine,"ax",%progbits
	.hidden	HAL_EXTI_SetConfigLine          @ -- Begin function HAL_EXTI_SetConfigLine
	.globl	HAL_EXTI_SetConfigLine
	.p2align	1
	.type	HAL_EXTI_SetConfigLine,%function
	.code	16                              @ @HAL_EXTI_SetConfigLine
	.thumb_func
HAL_EXTI_SetConfigLine:
.Lfunc_begin0:
	.file	5 "C:\\Users\\Hyacincher\\Desktop\\HyTelectrl\\Code\\Project" "../Library/STM32F4xx_HAL_Driver/Src/stm32f4xx_hal_exti.c"
	.loc	5 144 0                         @ ../Library/STM32F4xx_HAL_Driver/Src/stm32f4xx_hal_exti.c:144:0
	.fnstart
	.cfi_sections .debug_frame
	.cfi_startproc
@ %bb.0:
	@DEBUG_VALUE: HAL_EXTI_SetConfigLine:hexti <- $r0
	@DEBUG_VALUE: HAL_EXTI_SetConfigLine:pExtiConfig <- $r1
	mov	r2, r0
	@DEBUG_VALUE: HAL_EXTI_SetConfigLine:pExtiConfig <- $r1
.Ltmp0:
	@DEBUG_VALUE: HAL_EXTI_SetConfigLine:hexti <- $r2
	.loc	5 150 23 prologue_end           @ ../Library/STM32F4xx_HAL_Driver/Src/stm32f4xx_hal_exti.c:150:23
	cmp	r0, #0
	mov.w	r0, #1
	it	ne
	cmpne	r1, #0
	bne	.LBB0_2
.Ltmp1:
@ %bb.1:
	@DEBUG_VALUE: HAL_EXTI_SetConfigLine:hexti <- $r2
	@DEBUG_VALUE: HAL_EXTI_SetConfigLine:pExtiConfig <- $r1
	.loc	5 230 1                         @ ../Library/STM32F4xx_HAL_Driver/Src/stm32f4xx_hal_exti.c:230:1
	bx	lr
.Ltmp2:
.LBB0_2:
	@DEBUG_VALUE: HAL_EXTI_SetConfigLine:hexti <- $r2
	@DEBUG_VALUE: HAL_EXTI_SetConfigLine:pExtiConfig <- $r1
	.save	{r4, r5, r6, lr}
	push	{r4, r5, r6, lr}
	.cfi_def_cfa_offset 16
	.cfi_offset lr, -4
	.cfi_offset r6, -8
	.cfi_offset r5, -12
	.cfi_offset r4, -16
	.loc	5 160 30                        @ ../Library/STM32F4xx_HAL_Driver/Src/stm32f4xx_hal_exti.c:160:30
	ldr	r3, [r1]
	movw	r12, #15360
	.loc	5 160 15 is_stmt 0              @ ../Library/STM32F4xx_HAL_Driver/Src/stm32f4xx_hal_exti.c:160:15
	str	r3, [r2]
	.loc	5 163 32 is_stmt 1              @ ../Library/STM32F4xx_HAL_Driver/Src/stm32f4xx_hal_exti.c:163:32
	and	r0, r3, #31
.Ltmp3:
	@DEBUG_VALUE: HAL_EXTI_SetConfigLine:linepos <- $r0
	.loc	5 0 32 is_stmt 0                @ ../Library/STM32F4xx_HAL_Driver/Src/stm32f4xx_hal_exti.c:0:32
	movs	r2, #1
.Ltmp4:
	movt	r12, #16385
	.loc	5 167 7 is_stmt 1               @ ../Library/STM32F4xx_HAL_Driver/Src/stm32f4xx_hal_exti.c:167:7
	lsls	r5, r3, #6
	.loc	5 164 19                        @ ../Library/STM32F4xx_HAL_Driver/Src/stm32f4xx_hal_exti.c:164:19
	lsl.w	r2, r2, r0
.Ltmp5:
	@DEBUG_VALUE: HAL_EXTI_SetConfigLine:maskline <- $r2
	.loc	5 167 7                         @ ../Library/STM32F4xx_HAL_Driver/Src/stm32f4xx_hal_exti.c:167:7
	bpl	.LBB0_5
.Ltmp6:
@ %bb.3:
	@DEBUG_VALUE: HAL_EXTI_SetConfigLine:maskline <- $r2
	@DEBUG_VALUE: HAL_EXTI_SetConfigLine:pExtiConfig <- $r1
	@DEBUG_VALUE: HAL_EXTI_SetConfigLine:linepos <- $r0
	.loc	5 173 23                        @ ../Library/STM32F4xx_HAL_Driver/Src/stm32f4xx_hal_exti.c:173:23
	ldr	r4, [r1, #8]
	movw	lr, #15372
.Ltmp7:
	.loc	5 173 9 is_stmt 0               @ ../Library/STM32F4xx_HAL_Driver/Src/stm32f4xx_hal_exti.c:173:9
	lsls	r5, r4, #31
.Ltmp8:
	.loc	5 179 18 is_stmt 1              @ ../Library/STM32F4xx_HAL_Driver/Src/stm32f4xx_hal_exti.c:179:18
	ldr.w	r5, [r12, #8]
	ite	eq
	biceq	r5, r2
.Ltmp9:
	.loc	5 175 18                        @ ../Library/STM32F4xx_HAL_Driver/Src/stm32f4xx_hal_exti.c:175:18
	orrne	r5, r2
	movt	lr, #16385
.Ltmp10:
	.loc	5 184 9                         @ ../Library/STM32F4xx_HAL_Driver/Src/stm32f4xx_hal_exti.c:184:9
	lsls	r4, r4, #30
.Ltmp11:
	.loc	5 0 0 is_stmt 0                 @ ../Library/STM32F4xx_HAL_Driver/Src/stm32f4xx_hal_exti.c:0:0
	str.w	r5, [r12, #8]
.Ltmp12:
	.loc	5 190 18 is_stmt 1              @ ../Library/STM32F4xx_HAL_Driver/Src/stm32f4xx_hal_exti.c:190:18
	ldr.w	r4, [lr]
.Ltmp13:
	.loc	5 195 28                        @ ../Library/STM32F4xx_HAL_Driver/Src/stm32f4xx_hal_exti.c:195:28
	and	r5, r3, #100663296
.Ltmp14:
	.loc	5 190 18                        @ ../Library/STM32F4xx_HAL_Driver/Src/stm32f4xx_hal_exti.c:190:18
	ite	pl
	bicpl	r4, r2
.Ltmp15:
	.loc	5 186 18                        @ ../Library/STM32F4xx_HAL_Driver/Src/stm32f4xx_hal_exti.c:186:18
	orrmi	r4, r2
.Ltmp16:
	.loc	5 195 9                         @ ../Library/STM32F4xx_HAL_Driver/Src/stm32f4xx_hal_exti.c:195:9
	cmp.w	r5, #100663296
.Ltmp17:
	.loc	5 0 0 is_stmt 0                 @ ../Library/STM32F4xx_HAL_Driver/Src/stm32f4xx_hal_exti.c:0:0
	str.w	r4, [lr]
.Ltmp18:
	.loc	5 195 9                         @ ../Library/STM32F4xx_HAL_Driver/Src/stm32f4xx_hal_exti.c:195:9
	bne	.LBB0_5
.Ltmp19:
@ %bb.4:
	@DEBUG_VALUE: HAL_EXTI_SetConfigLine:maskline <- $r2
	@DEBUG_VALUE: HAL_EXTI_SetConfigLine:pExtiConfig <- $r1
	@DEBUG_VALUE: HAL_EXTI_SetConfigLine:linepos <- $r0
	.loc	5 200 39 is_stmt 1              @ ../Library/STM32F4xx_HAL_Driver/Src/stm32f4xx_hal_exti.c:200:39
	and	r0, r0, #28
.Ltmp20:
	.loc	5 0 39 is_stmt 0                @ ../Library/STM32F4xx_HAL_Driver/Src/stm32f4xx_hal_exti.c:0:39
	movw	lr, #64520
	.loc	5 200 16                        @ ../Library/STM32F4xx_HAL_Driver/Src/stm32f4xx_hal_exti.c:200:16
	add	r0, r12
	movt	lr, #65535
	movs	r5, #12
	ldr.w	r4, [r0, lr]
.Ltmp21:
	@DEBUG_VALUE: HAL_EXTI_SetConfigLine:regval <- $r4
	.loc	5 201 69 is_stmt 1              @ ../Library/STM32F4xx_HAL_Driver/Src/stm32f4xx_hal_exti.c:201:69
	and.w	r3, r5, r3, lsl #2
	movs	r5, #15
	.loc	5 202 31                        @ ../Library/STM32F4xx_HAL_Driver/Src/stm32f4xx_hal_exti.c:202:31
	ldr	r6, [r1, #12]
	.loc	5 201 40                        @ ../Library/STM32F4xx_HAL_Driver/Src/stm32f4xx_hal_exti.c:201:40
	lsls	r5, r3
	.loc	5 201 14 is_stmt 0              @ ../Library/STM32F4xx_HAL_Driver/Src/stm32f4xx_hal_exti.c:201:14
	bics	r4, r5
.Ltmp22:
	@DEBUG_VALUE: HAL_EXTI_SetConfigLine:regval <- $r4
	.loc	5 202 39 is_stmt 1              @ ../Library/STM32F4xx_HAL_Driver/Src/stm32f4xx_hal_exti.c:202:39
	lsl.w	r3, r6, r3
	.loc	5 202 14 is_stmt 0              @ ../Library/STM32F4xx_HAL_Driver/Src/stm32f4xx_hal_exti.c:202:14
	orrs	r3, r4
.Ltmp23:
	@DEBUG_VALUE: HAL_EXTI_SetConfigLine:regval <- $r3
	.loc	5 203 37 is_stmt 1              @ ../Library/STM32F4xx_HAL_Driver/Src/stm32f4xx_hal_exti.c:203:37
	str.w	r3, [r0, lr]
.Ltmp24:
.LBB0_5:
	@DEBUG_VALUE: HAL_EXTI_SetConfigLine:maskline <- $r2
	@DEBUG_VALUE: HAL_EXTI_SetConfigLine:pExtiConfig <- $r1
	.loc	5 209 21                        @ ../Library/STM32F4xx_HAL_Driver/Src/stm32f4xx_hal_exti.c:209:21
	ldr	r0, [r1, #4]
.Ltmp25:
	.loc	5 209 7 is_stmt 0               @ ../Library/STM32F4xx_HAL_Driver/Src/stm32f4xx_hal_exti.c:209:7
	lsls	r1, r0, #31
.Ltmp26:
	@DEBUG_VALUE: HAL_EXTI_SetConfigLine:pExtiConfig <- [DW_OP_LLVM_entry_value 1] $r1
	.loc	5 215 15 is_stmt 1              @ ../Library/STM32F4xx_HAL_Driver/Src/stm32f4xx_hal_exti.c:215:15
	ldr.w	r1, [r12]
	ite	eq
	biceq	r1, r2
.Ltmp27:
	.loc	5 211 15                        @ ../Library/STM32F4xx_HAL_Driver/Src/stm32f4xx_hal_exti.c:211:15
	orrne	r1, r2
.Ltmp28:
	.loc	5 220 7                         @ ../Library/STM32F4xx_HAL_Driver/Src/stm32f4xx_hal_exti.c:220:7
	lsls	r0, r0, #30
.Ltmp29:
	.loc	5 0 0 is_stmt 0                 @ ../Library/STM32F4xx_HAL_Driver/Src/stm32f4xx_hal_exti.c:0:0
	str.w	r1, [r12]
.Ltmp30:
	.loc	5 226 15 is_stmt 1              @ ../Library/STM32F4xx_HAL_Driver/Src/stm32f4xx_hal_exti.c:226:15
	ldr.w	r0, [r12, #4]
	ite	pl
	bicpl	r0, r2
.Ltmp31:
	.loc	5 222 15                        @ ../Library/STM32F4xx_HAL_Driver/Src/stm32f4xx_hal_exti.c:222:15
	orrmi	r0, r2
.Ltmp32:
	.loc	5 0 0 is_stmt 0                 @ ../Library/STM32F4xx_HAL_Driver/Src/stm32f4xx_hal_exti.c:0:0
	str.w	r0, [r12, #4]
	movs	r0, #0
	pop.w	{r4, r5, r6, lr}
.Ltmp33:
	.loc	5 230 1 is_stmt 1               @ ../Library/STM32F4xx_HAL_Driver/Src/stm32f4xx_hal_exti.c:230:1
	bx	lr
.Ltmp34:
.Lfunc_end0:
	.size	HAL_EXTI_SetConfigLine, .Lfunc_end0-HAL_EXTI_SetConfigLine
	.cfi_endproc
	.cantunwind
	.fnend
                                        @ -- End function
	.section	.text.HAL_EXTI_GetConfigLine,"ax",%progbits
	.hidden	HAL_EXTI_GetConfigLine          @ -- Begin function HAL_EXTI_GetConfigLine
	.globl	HAL_EXTI_GetConfigLine
	.p2align	1
	.type	HAL_EXTI_GetConfigLine,%function
	.code	16                              @ @HAL_EXTI_GetConfigLine
	.thumb_func
HAL_EXTI_GetConfigLine:
.Lfunc_begin1:
	.loc	5 239 0                         @ ../Library/STM32F4xx_HAL_Driver/Src/stm32f4xx_hal_exti.c:239:0
	.fnstart
	.cfi_startproc
@ %bb.0:
	@DEBUG_VALUE: HAL_EXTI_GetConfigLine:hexti <- $r0
	@DEBUG_VALUE: HAL_EXTI_GetConfigLine:pExtiConfig <- $r1
	.save	{r4, lr}
	push	{r4, lr}
	.cfi_def_cfa_offset 8
	.cfi_offset lr, -4
	.cfi_offset r4, -8
	mov	r2, r0
	@DEBUG_VALUE: HAL_EXTI_GetConfigLine:pExtiConfig <- $r1
.Ltmp35:
	@DEBUG_VALUE: HAL_EXTI_GetConfigLine:hexti <- $r2
	.loc	5 245 23 prologue_end           @ ../Library/STM32F4xx_HAL_Driver/Src/stm32f4xx_hal_exti.c:245:23
	cmp	r0, #0
	mov.w	r0, #1
	it	ne
	cmpne	r1, #0
	bne	.LBB1_2
.Ltmp36:
@ %bb.1:
	@DEBUG_VALUE: HAL_EXTI_GetConfigLine:hexti <- $r2
	@DEBUG_VALUE: HAL_EXTI_GetConfigLine:pExtiConfig <- $r1
	.loc	5 310 1                         @ ../Library/STM32F4xx_HAL_Driver/Src/stm32f4xx_hal_exti.c:310:1
	pop	{r4, pc}
.Ltmp37:
.LBB1_2:
	@DEBUG_VALUE: HAL_EXTI_GetConfigLine:hexti <- $r2
	@DEBUG_VALUE: HAL_EXTI_GetConfigLine:pExtiConfig <- $r1
	.loc	5 254 30                        @ ../Library/STM32F4xx_HAL_Driver/Src/stm32f4xx_hal_exti.c:254:30
	ldr	r2, [r2]
.Ltmp38:
	.loc	5 0 30 is_stmt 0                @ ../Library/STM32F4xx_HAL_Driver/Src/stm32f4xx_hal_exti.c:0:30
	movw	r12, #15360
	movt	r12, #16385
	.loc	5 254 21                        @ ../Library/STM32F4xx_HAL_Driver/Src/stm32f4xx_hal_exti.c:254:21
	str	r2, [r1]
	.loc	5 257 32 is_stmt 1              @ ../Library/STM32F4xx_HAL_Driver/Src/stm32f4xx_hal_exti.c:257:32
	and	lr, r2, #31
.Ltmp39:
	@DEBUG_VALUE: HAL_EXTI_GetConfigLine:linepos <- $lr
	.loc	5 0 32 is_stmt 0                @ ../Library/STM32F4xx_HAL_Driver/Src/stm32f4xx_hal_exti.c:0:32
	movs	r0, #1
.Ltmp40:
	.loc	5 263 14 is_stmt 1              @ ../Library/STM32F4xx_HAL_Driver/Src/stm32f4xx_hal_exti.c:263:14
	ldr.w	r4, [r12]
.Ltmp41:
	.loc	5 258 19                        @ ../Library/STM32F4xx_HAL_Driver/Src/stm32f4xx_hal_exti.c:258:19
	lsl.w	r3, r0, lr
.Ltmp42:
	@DEBUG_VALUE: HAL_EXTI_GetConfigLine:maskline <- $r3
	.loc	5 263 18                        @ ../Library/STM32F4xx_HAL_Driver/Src/stm32f4xx_hal_exti.c:263:18
	ands.w	r0, r4, r3
	.loc	5 263 30 is_stmt 0              @ ../Library/STM32F4xx_HAL_Driver/Src/stm32f4xx_hal_exti.c:263:30
	it	ne
	movne	r0, #1
.Ltmp43:
	.loc	5 269 23 is_stmt 1              @ ../Library/STM32F4xx_HAL_Driver/Src/stm32f4xx_hal_exti.c:269:23
	str	r0, [r1, #4]
.Ltmp44:
	.loc	5 274 14                        @ ../Library/STM32F4xx_HAL_Driver/Src/stm32f4xx_hal_exti.c:274:14
	ldr.w	r4, [r12, #4]
.Ltmp45:
	.loc	5 274 7 is_stmt 0               @ ../Library/STM32F4xx_HAL_Driver/Src/stm32f4xx_hal_exti.c:274:7
	tst	r4, r3
.Ltmp46:
	.loc	5 276 23 is_stmt 1              @ ../Library/STM32F4xx_HAL_Driver/Src/stm32f4xx_hal_exti.c:276:23
	itt	ne
	addne	r0, #2
	strne	r0, [r1, #4]
	movs	r0, #0
.Ltmp47:
	.loc	5 284 7                         @ ../Library/STM32F4xx_HAL_Driver/Src/stm32f4xx_hal_exti.c:284:7
	lsls	r4, r2, #6
	.loc	5 280 24                        @ ../Library/STM32F4xx_HAL_Driver/Src/stm32f4xx_hal_exti.c:280:24
	str	r0, [r1, #8]
	.loc	5 281 24                        @ ../Library/STM32F4xx_HAL_Driver/Src/stm32f4xx_hal_exti.c:281:24
	str	r0, [r1, #12]
	.loc	5 310 1                         @ ../Library/STM32F4xx_HAL_Driver/Src/stm32f4xx_hal_exti.c:310:1
	it	pl
	poppl	{r4, pc}
.Ltmp48:
.LBB1_3:
	@DEBUG_VALUE: HAL_EXTI_GetConfigLine:maskline <- $r3
	@DEBUG_VALUE: HAL_EXTI_GetConfigLine:pExtiConfig <- $r1
	@DEBUG_VALUE: HAL_EXTI_GetConfigLine:linepos <- $lr
	.loc	5 287 16                        @ ../Library/STM32F4xx_HAL_Driver/Src/stm32f4xx_hal_exti.c:287:16
	ldr.w	r0, [r12, #8]
	movw	r4, #15372
.Ltmp49:
	.loc	5 287 9 is_stmt 0               @ ../Library/STM32F4xx_HAL_Driver/Src/stm32f4xx_hal_exti.c:287:9
	tst	r0, r3
	iteee	eq
	moveq	r0, #2
	movne	r0, #1
.Ltmp50:
	.loc	5 289 28 is_stmt 1              @ ../Library/STM32F4xx_HAL_Driver/Src/stm32f4xx_hal_exti.c:289:28
	strne	r0, [r1, #8]
	movne	r0, #3
	movt	r4, #16385
.Ltmp51:
	.loc	5 294 16                        @ ../Library/STM32F4xx_HAL_Driver/Src/stm32f4xx_hal_exti.c:294:16
	ldr	r4, [r4]
.Ltmp52:
	.loc	5 294 9 is_stmt 0               @ ../Library/STM32F4xx_HAL_Driver/Src/stm32f4xx_hal_exti.c:294:9
	tst	r4, r3
.Ltmp53:
	.loc	5 296 28 is_stmt 1              @ ../Library/STM32F4xx_HAL_Driver/Src/stm32f4xx_hal_exti.c:296:28
	it	ne
	strne	r0, [r1, #8]
.Ltmp54:
	.loc	5 300 28                        @ ../Library/STM32F4xx_HAL_Driver/Src/stm32f4xx_hal_exti.c:300:28
	and	r0, r2, #100663296
.Ltmp55:
	.loc	5 300 9 is_stmt 0               @ ../Library/STM32F4xx_HAL_Driver/Src/stm32f4xx_hal_exti.c:300:9
	cmp.w	r0, #100663296
	bne	.LBB1_5
.Ltmp56:
@ %bb.4:
	@DEBUG_VALUE: HAL_EXTI_GetConfigLine:maskline <- $r3
	@DEBUG_VALUE: HAL_EXTI_GetConfigLine:pExtiConfig <- $r1
	@DEBUG_VALUE: HAL_EXTI_GetConfigLine:linepos <- $lr
	.loc	5 304 39 is_stmt 1              @ ../Library/STM32F4xx_HAL_Driver/Src/stm32f4xx_hal_exti.c:304:39
	and	r0, lr, #28
	movw	r3, #64520
.Ltmp57:
	.loc	5 304 16 is_stmt 0              @ ../Library/STM32F4xx_HAL_Driver/Src/stm32f4xx_hal_exti.c:304:16
	add	r0, r12
	movt	r3, #65535
	ldr	r0, [r0, r3]
.Ltmp58:
	@DEBUG_VALUE: HAL_EXTI_GetConfigLine:regval <- $r0
	.loc	5 0 16                          @ ../Library/STM32F4xx_HAL_Driver/Src/stm32f4xx_hal_exti.c:0:16
	movs	r3, #12
	.loc	5 305 68 is_stmt 1              @ ../Library/STM32F4xx_HAL_Driver/Src/stm32f4xx_hal_exti.c:305:68
	bic.w	r2, r3, r2, lsl #2
	.loc	5 305 39 is_stmt 0              @ ../Library/STM32F4xx_HAL_Driver/Src/stm32f4xx_hal_exti.c:305:39
	lsls	r0, r2
.Ltmp59:
	.loc	5 305 98                        @ ../Library/STM32F4xx_HAL_Driver/Src/stm32f4xx_hal_exti.c:305:98
	lsrs	r0, r0, #24
	.loc	5 305 28                        @ ../Library/STM32F4xx_HAL_Driver/Src/stm32f4xx_hal_exti.c:305:28
	str	r0, [r1, #12]
.Ltmp60:
.LBB1_5:
	@DEBUG_VALUE: HAL_EXTI_GetConfigLine:pExtiConfig <- $r1
	@DEBUG_VALUE: HAL_EXTI_GetConfigLine:linepos <- $lr
	.loc	5 0 28                          @ ../Library/STM32F4xx_HAL_Driver/Src/stm32f4xx_hal_exti.c:0:28
	movs	r0, #0
	.loc	5 310 1 is_stmt 1               @ ../Library/STM32F4xx_HAL_Driver/Src/stm32f4xx_hal_exti.c:310:1
	pop	{r4, pc}
.Ltmp61:
.Lfunc_end1:
	.size	HAL_EXTI_GetConfigLine, .Lfunc_end1-HAL_EXTI_GetConfigLine
	.cfi_endproc
	.cantunwind
	.fnend
                                        @ -- End function
	.section	.text.HAL_EXTI_ClearConfigLine,"ax",%progbits
	.hidden	HAL_EXTI_ClearConfigLine        @ -- Begin function HAL_EXTI_ClearConfigLine
	.globl	HAL_EXTI_ClearConfigLine
	.p2align	1
	.type	HAL_EXTI_ClearConfigLine,%function
	.code	16                              @ @HAL_EXTI_ClearConfigLine
	.thumb_func
HAL_EXTI_ClearConfigLine:
.Lfunc_begin2:
	.loc	5 318 0                         @ ../Library/STM32F4xx_HAL_Driver/Src/stm32f4xx_hal_exti.c:318:0
	.fnstart
	.cfi_startproc
@ %bb.0:
	@DEBUG_VALUE: HAL_EXTI_ClearConfigLine:hexti <- $r0
	.save	{r7, lr}
	push	{r7, lr}
	.cfi_def_cfa_offset 8
	.cfi_offset lr, -4
	.cfi_offset r7, -8
	mov	r1, r0
.Ltmp62:
	@DEBUG_VALUE: HAL_EXTI_ClearConfigLine:hexti <- $r1
	.loc	5 324 7 prologue_end            @ ../Library/STM32F4xx_HAL_Driver/Src/stm32f4xx_hal_exti.c:324:7
	cmp	r0, #0
	mov.w	r0, #1
	.loc	5 360 1                         @ ../Library/STM32F4xx_HAL_Driver/Src/stm32f4xx_hal_exti.c:360:1
	it	eq
	popeq	{r7, pc}
.Ltmp63:
.LBB2_1:
	@DEBUG_VALUE: HAL_EXTI_ClearConfigLine:hexti <- $r1
	.loc	5 333 21                        @ ../Library/STM32F4xx_HAL_Driver/Src/stm32f4xx_hal_exti.c:333:21
	ldr	r1, [r1]
.Ltmp64:
	.loc	5 0 21 is_stmt 0                @ ../Library/STM32F4xx_HAL_Driver/Src/stm32f4xx_hal_exti.c:0:21
	movw	lr, #15360
	movt	lr, #16385
	.loc	5 333 26                        @ ../Library/STM32F4xx_HAL_Driver/Src/stm32f4xx_hal_exti.c:333:26
	and	r12, r1, #31
.Ltmp65:
	@DEBUG_VALUE: HAL_EXTI_ClearConfigLine:linepos <- $r12
	.loc	5 337 22 is_stmt 1              @ ../Library/STM32F4xx_HAL_Driver/Src/stm32f4xx_hal_exti.c:337:22
	ldr.w	r3, [lr]
	.loc	5 334 19                        @ ../Library/STM32F4xx_HAL_Driver/Src/stm32f4xx_hal_exti.c:334:19
	lsl.w	r0, r0, r12
.Ltmp66:
	@DEBUG_VALUE: HAL_EXTI_ClearConfigLine:maskline <- $r0
	.loc	5 337 26                        @ ../Library/STM32F4xx_HAL_Driver/Src/stm32f4xx_hal_exti.c:337:26
	bics	r3, r0
	.loc	5 337 13 is_stmt 0              @ ../Library/STM32F4xx_HAL_Driver/Src/stm32f4xx_hal_exti.c:337:13
	str.w	r3, [lr]
	.loc	5 340 22 is_stmt 1              @ ../Library/STM32F4xx_HAL_Driver/Src/stm32f4xx_hal_exti.c:340:22
	ldr.w	r3, [lr, #4]
	.loc	5 343 7                         @ ../Library/STM32F4xx_HAL_Driver/Src/stm32f4xx_hal_exti.c:343:7
	lsls	r2, r1, #6
	.loc	5 340 26                        @ ../Library/STM32F4xx_HAL_Driver/Src/stm32f4xx_hal_exti.c:340:26
	bic.w	r3, r3, r0
	.loc	5 340 13 is_stmt 0              @ ../Library/STM32F4xx_HAL_Driver/Src/stm32f4xx_hal_exti.c:340:13
	str.w	r3, [lr, #4]
	.loc	5 343 7 is_stmt 1               @ ../Library/STM32F4xx_HAL_Driver/Src/stm32f4xx_hal_exti.c:343:7
	bpl	.LBB2_4
.Ltmp67:
@ %bb.2:
	@DEBUG_VALUE: HAL_EXTI_ClearConfigLine:linepos <- $r12
	@DEBUG_VALUE: HAL_EXTI_ClearConfigLine:maskline <- $r0
	.loc	5 345 25                        @ ../Library/STM32F4xx_HAL_Driver/Src/stm32f4xx_hal_exti.c:345:25
	ldr.w	r2, [lr, #8]
.Ltmp68:
	.loc	5 0 0 is_stmt 0                 @ ../Library/STM32F4xx_HAL_Driver/Src/stm32f4xx_hal_exti.c:0:0
	mvns	r0, r0
.Ltmp69:
	.loc	5 345 30                        @ ../Library/STM32F4xx_HAL_Driver/Src/stm32f4xx_hal_exti.c:345:30
	ands	r2, r0
	.loc	5 345 16                        @ ../Library/STM32F4xx_HAL_Driver/Src/stm32f4xx_hal_exti.c:345:16
	str.w	r2, [lr, #8]
	movw	r2, #15372
	movt	r2, #16385
	.loc	5 346 25 is_stmt 1              @ ../Library/STM32F4xx_HAL_Driver/Src/stm32f4xx_hal_exti.c:346:25
	ldr	r3, [r2]
	.loc	5 346 30 is_stmt 0              @ ../Library/STM32F4xx_HAL_Driver/Src/stm32f4xx_hal_exti.c:346:30
	ands	r0, r3
.Ltmp70:
	.loc	5 349 22 is_stmt 1              @ ../Library/STM32F4xx_HAL_Driver/Src/stm32f4xx_hal_exti.c:349:22
	and	r3, r1, #100663296
.Ltmp71:
	.loc	5 349 9 is_stmt 0               @ ../Library/STM32F4xx_HAL_Driver/Src/stm32f4xx_hal_exti.c:349:9
	cmp.w	r3, #100663296
	.loc	5 346 16 is_stmt 1              @ ../Library/STM32F4xx_HAL_Driver/Src/stm32f4xx_hal_exti.c:346:16
	str	r0, [r2]
	.loc	5 349 9                         @ ../Library/STM32F4xx_HAL_Driver/Src/stm32f4xx_hal_exti.c:349:9
	bne	.LBB2_4
.Ltmp72:
@ %bb.3:
	@DEBUG_VALUE: HAL_EXTI_ClearConfigLine:linepos <- $r12
	.loc	5 353 39                        @ ../Library/STM32F4xx_HAL_Driver/Src/stm32f4xx_hal_exti.c:353:39
	and	r0, r12, #28
	movw	r12, #64520
.Ltmp73:
	.loc	5 353 16 is_stmt 0              @ ../Library/STM32F4xx_HAL_Driver/Src/stm32f4xx_hal_exti.c:353:16
	add	r0, lr
	movt	r12, #65535
	movs	r2, #12
	ldr.w	r3, [r0, r12]
.Ltmp74:
	@DEBUG_VALUE: HAL_EXTI_ClearConfigLine:regval <- $r3
	.loc	5 354 69 is_stmt 1              @ ../Library/STM32F4xx_HAL_Driver/Src/stm32f4xx_hal_exti.c:354:69
	and.w	r1, r2, r1, lsl #2
	movs	r2, #15
	.loc	5 354 40 is_stmt 0              @ ../Library/STM32F4xx_HAL_Driver/Src/stm32f4xx_hal_exti.c:354:40
	lsl.w	r1, r2, r1
	.loc	5 354 14                        @ ../Library/STM32F4xx_HAL_Driver/Src/stm32f4xx_hal_exti.c:354:14
	bic.w	r1, r3, r1
.Ltmp75:
	@DEBUG_VALUE: HAL_EXTI_ClearConfigLine:regval <- $r1
	.loc	5 355 37 is_stmt 1              @ ../Library/STM32F4xx_HAL_Driver/Src/stm32f4xx_hal_exti.c:355:37
	str.w	r1, [r0, r12]
.Ltmp76:
.LBB2_4:
	.loc	5 0 37 is_stmt 0                @ ../Library/STM32F4xx_HAL_Driver/Src/stm32f4xx_hal_exti.c:0:37
	movs	r0, #0
	.loc	5 360 1 is_stmt 1               @ ../Library/STM32F4xx_HAL_Driver/Src/stm32f4xx_hal_exti.c:360:1
	pop	{r7, pc}
.Ltmp77:
.Lfunc_end2:
	.size	HAL_EXTI_ClearConfigLine, .Lfunc_end2-HAL_EXTI_ClearConfigLine
	.cfi_endproc
	.cantunwind
	.fnend
                                        @ -- End function
	.section	.text.HAL_EXTI_RegisterCallback,"ax",%progbits
	.hidden	HAL_EXTI_RegisterCallback       @ -- Begin function HAL_EXTI_RegisterCallback
	.globl	HAL_EXTI_RegisterCallback
	.p2align	1
	.type	HAL_EXTI_RegisterCallback,%function
	.code	16                              @ @HAL_EXTI_RegisterCallback
	.thumb_func
HAL_EXTI_RegisterCallback:
.Lfunc_begin3:
	.loc	5 371 0                         @ ../Library/STM32F4xx_HAL_Driver/Src/stm32f4xx_hal_exti.c:371:0
	.fnstart
	.cfi_startproc
@ %bb.0:
	@DEBUG_VALUE: HAL_EXTI_RegisterCallback:hexti <- $r0
	@DEBUG_VALUE: HAL_EXTI_RegisterCallback:CallbackID <- $r1
	@DEBUG_VALUE: HAL_EXTI_RegisterCallback:CallbackID <- $r1
	@DEBUG_VALUE: HAL_EXTI_RegisterCallback:pPendingCbfn <- $r2
	@DEBUG_VALUE: HAL_EXTI_RegisterCallback:pPendingCbfn <- $r2
	.loc	5 374 3 prologue_end            @ ../Library/STM32F4xx_HAL_Driver/Src/stm32f4xx_hal_exti.c:374:3
	cmp	r1, #0
.Ltmp78:
	@DEBUG_VALUE: HAL_EXTI_RegisterCallback:status <- 0
	@DEBUG_VALUE: HAL_EXTI_RegisterCallback:hexti <- $r0
	.loc	5 0 3 is_stmt 0                 @ ../Library/STM32F4xx_HAL_Driver/Src/stm32f4xx_hal_exti.c:0:3
	itee	ne
	movne	r0, #1
.Ltmp79:
	@DEBUG_VALUE: HAL_EXTI_RegisterCallback:hexti <- [DW_OP_LLVM_entry_value 1] $r0
	@DEBUG_VALUE: HAL_EXTI_RegisterCallback:status <- $r0
	.loc	5 377 30 is_stmt 1              @ ../Library/STM32F4xx_HAL_Driver/Src/stm32f4xx_hal_exti.c:377:30
	streq	r2, [r0, #4]
	moveq	r0, #0
.Ltmp80:
	@DEBUG_VALUE: HAL_EXTI_RegisterCallback:status <- $r0
	.loc	5 385 3                         @ ../Library/STM32F4xx_HAL_Driver/Src/stm32f4xx_hal_exti.c:385:3
	bx	lr
.Ltmp81:
.Lfunc_end3:
	.size	HAL_EXTI_RegisterCallback, .Lfunc_end3-HAL_EXTI_RegisterCallback
	.cfi_endproc
	.cantunwind
	.fnend
                                        @ -- End function
	.section	.text.HAL_EXTI_GetHandle,"ax",%progbits
	.hidden	HAL_EXTI_GetHandle              @ -- Begin function HAL_EXTI_GetHandle
	.globl	HAL_EXTI_GetHandle
	.p2align	1
	.type	HAL_EXTI_GetHandle,%function
	.code	16                              @ @HAL_EXTI_GetHandle
	.thumb_func
HAL_EXTI_GetHandle:
.Lfunc_begin4:
	.loc	5 396 0                         @ ../Library/STM32F4xx_HAL_Driver/Src/stm32f4xx_hal_exti.c:396:0
	.fnstart
	.cfi_startproc
@ %bb.0:
	@DEBUG_VALUE: HAL_EXTI_GetHandle:hexti <- $r0
	@DEBUG_VALUE: HAL_EXTI_GetHandle:hexti <- $r0
	@DEBUG_VALUE: HAL_EXTI_GetHandle:ExtiLine <- $r1
	.loc	5 401 7 prologue_end            @ ../Library/STM32F4xx_HAL_Driver/Src/stm32f4xx_hal_exti.c:401:7
	cmp	r0, #0
	@DEBUG_VALUE: HAL_EXTI_GetHandle:ExtiLine <- $r1
	itee	eq
	moveq	r0, #1
.Ltmp82:
	@DEBUG_VALUE: HAL_EXTI_GetHandle:hexti <- [DW_OP_LLVM_entry_value 1] $r0
	.loc	5 408 17                        @ ../Library/STM32F4xx_HAL_Driver/Src/stm32f4xx_hal_exti.c:408:17
	strne	r1, [r0]
	movne	r0, #0
.Ltmp83:
	.loc	5 412 1                         @ ../Library/STM32F4xx_HAL_Driver/Src/stm32f4xx_hal_exti.c:412:1
	bx	lr
.Ltmp84:
.Lfunc_end4:
	.size	HAL_EXTI_GetHandle, .Lfunc_end4-HAL_EXTI_GetHandle
	.cfi_endproc
	.cantunwind
	.fnend
                                        @ -- End function
	.section	.text.HAL_EXTI_IRQHandler,"ax",%progbits
	.hidden	HAL_EXTI_IRQHandler             @ -- Begin function HAL_EXTI_IRQHandler
	.globl	HAL_EXTI_IRQHandler
	.p2align	1
	.type	HAL_EXTI_IRQHandler,%function
	.code	16                              @ @HAL_EXTI_IRQHandler
	.thumb_func
HAL_EXTI_IRQHandler:
.Lfunc_begin5:
	.loc	5 436 0                         @ ../Library/STM32F4xx_HAL_Driver/Src/stm32f4xx_hal_exti.c:436:0
	.fnstart
	.cfi_startproc
@ %bb.0:
	@DEBUG_VALUE: HAL_EXTI_IRQHandler:hexti <- $r0
	@DEBUG_VALUE: HAL_EXTI_IRQHandler:hexti <- $r0
	.loc	5 441 30 prologue_end           @ ../Library/STM32F4xx_HAL_Driver/Src/stm32f4xx_hal_exti.c:441:30
	ldr	r2, [r0]
	movw	r1, #15380
	movt	r1, #16385
	.loc	5 441 35 is_stmt 0              @ ../Library/STM32F4xx_HAL_Driver/Src/stm32f4xx_hal_exti.c:441:35
	and	r2, r2, #31
	mov.w	r12, #1
	.loc	5 444 19 is_stmt 1              @ ../Library/STM32F4xx_HAL_Driver/Src/stm32f4xx_hal_exti.c:444:19
	ldr	r3, [r1]
.Ltmp85:
	@DEBUG_VALUE: HAL_EXTI_IRQHandler:regval <- undef
	.loc	5 441 19                        @ ../Library/STM32F4xx_HAL_Driver/Src/stm32f4xx_hal_exti.c:441:19
	lsl.w	r2, r12, r2
.Ltmp86:
	@DEBUG_VALUE: HAL_EXTI_IRQHandler:maskline <- $r2
	.loc	5 445 7                         @ ../Library/STM32F4xx_HAL_Driver/Src/stm32f4xx_hal_exti.c:445:7
	tst	r2, r3
	.loc	5 456 1                         @ ../Library/STM32F4xx_HAL_Driver/Src/stm32f4xx_hal_exti.c:456:1
	it	eq
	bxeq	lr
.Ltmp87:
.LBB5_1:
	@DEBUG_VALUE: HAL_EXTI_IRQHandler:maskline <- $r2
	@DEBUG_VALUE: HAL_EXTI_IRQHandler:hexti <- $r0
	.loc	5 448 14                        @ ../Library/STM32F4xx_HAL_Driver/Src/stm32f4xx_hal_exti.c:448:14
	str	r2, [r1]
.Ltmp88:
	.loc	5 451 16                        @ ../Library/STM32F4xx_HAL_Driver/Src/stm32f4xx_hal_exti.c:451:16
	ldr	r0, [r0, #4]
.Ltmp89:
	@DEBUG_VALUE: HAL_EXTI_IRQHandler:hexti <- [DW_OP_LLVM_entry_value 1] $r0
	.loc	5 451 9 is_stmt 0               @ ../Library/STM32F4xx_HAL_Driver/Src/stm32f4xx_hal_exti.c:451:9
	cbz	r0, .LBB5_3
.Ltmp90:
@ %bb.2:
	@DEBUG_VALUE: HAL_EXTI_IRQHandler:maskline <- $r2
	@DEBUG_VALUE: HAL_EXTI_IRQHandler:hexti <- [DW_OP_LLVM_entry_value 1] $r0
	.loc	5 453 7 is_stmt 1               @ ../Library/STM32F4xx_HAL_Driver/Src/stm32f4xx_hal_exti.c:453:7
	bx	r0
.Ltmp91:
.LBB5_3:
	@DEBUG_VALUE: HAL_EXTI_IRQHandler:maskline <- $r2
	@DEBUG_VALUE: HAL_EXTI_IRQHandler:hexti <- [DW_OP_LLVM_entry_value 1] $r0
	.loc	5 456 1                         @ ../Library/STM32F4xx_HAL_Driver/Src/stm32f4xx_hal_exti.c:456:1
	bx	lr
.Ltmp92:
.Lfunc_end5:
	.size	HAL_EXTI_IRQHandler, .Lfunc_end5-HAL_EXTI_IRQHandler
	.cfi_endproc
	.cantunwind
	.fnend
                                        @ -- End function
	.section	.text.HAL_EXTI_GetPending,"ax",%progbits
	.hidden	HAL_EXTI_GetPending             @ -- Begin function HAL_EXTI_GetPending
	.globl	HAL_EXTI_GetPending
	.p2align	1
	.type	HAL_EXTI_GetPending,%function
	.code	16                              @ @HAL_EXTI_GetPending
	.thumb_func
HAL_EXTI_GetPending:
.Lfunc_begin6:
	.loc	5 468 0                         @ ../Library/STM32F4xx_HAL_Driver/Src/stm32f4xx_hal_exti.c:468:0
	.fnstart
	.cfi_startproc
@ %bb.0:
	@DEBUG_VALUE: HAL_EXTI_GetPending:hexti <- $r0
	@DEBUG_VALUE: HAL_EXTI_GetPending:hexti <- $r0
	@DEBUG_VALUE: HAL_EXTI_GetPending:Edge <- $r1
	.loc	5 479 21 prologue_end           @ ../Library/STM32F4xx_HAL_Driver/Src/stm32f4xx_hal_exti.c:479:21
	ldr	r0, [r0]
.Ltmp93:
	@DEBUG_VALUE: HAL_EXTI_GetPending:hexti <- [DW_OP_LLVM_entry_value 1] $r0
	.loc	5 0 21 is_stmt 0                @ ../Library/STM32F4xx_HAL_Driver/Src/stm32f4xx_hal_exti.c:0:21
	movw	r2, #15380
	movt	r2, #16385
	.loc	5 479 26                        @ ../Library/STM32F4xx_HAL_Driver/Src/stm32f4xx_hal_exti.c:479:26
	and	r0, r0, #31
.Ltmp94:
	@DEBUG_VALUE: HAL_EXTI_GetPending:linepos <- $r0
	.loc	5 0 26                          @ ../Library/STM32F4xx_HAL_Driver/Src/stm32f4xx_hal_exti.c:0:26
	movs	r1, #1
.Ltmp95:
	@DEBUG_VALUE: HAL_EXTI_GetPending:Edge <- [DW_OP_LLVM_entry_value 1] $r1
	.loc	5 483 20 is_stmt 1              @ ../Library/STM32F4xx_HAL_Driver/Src/stm32f4xx_hal_exti.c:483:20
	ldr	r2, [r2]
	.loc	5 480 19                        @ ../Library/STM32F4xx_HAL_Driver/Src/stm32f4xx_hal_exti.c:480:19
	lsls	r1, r0
.Ltmp96:
	@DEBUG_VALUE: HAL_EXTI_GetPending:maskline <- $r1
	.loc	5 483 23                        @ ../Library/STM32F4xx_HAL_Driver/Src/stm32f4xx_hal_exti.c:483:23
	ands	r1, r2
.Ltmp97:
	.loc	5 483 35 is_stmt 0              @ ../Library/STM32F4xx_HAL_Driver/Src/stm32f4xx_hal_exti.c:483:35
	lsr.w	r0, r1, r0
.Ltmp98:
	@DEBUG_VALUE: HAL_EXTI_GetPending:regval <- $r0
	.loc	5 484 3 is_stmt 1               @ ../Library/STM32F4xx_HAL_Driver/Src/stm32f4xx_hal_exti.c:484:3
	bx	lr
.Ltmp99:
.Lfunc_end6:
	.size	HAL_EXTI_GetPending, .Lfunc_end6-HAL_EXTI_GetPending
	.cfi_endproc
	.cantunwind
	.fnend
                                        @ -- End function
	.section	.text.HAL_EXTI_ClearPending,"ax",%progbits
	.hidden	HAL_EXTI_ClearPending           @ -- Begin function HAL_EXTI_ClearPending
	.globl	HAL_EXTI_ClearPending
	.p2align	1
	.type	HAL_EXTI_ClearPending,%function
	.code	16                              @ @HAL_EXTI_ClearPending
	.thumb_func
HAL_EXTI_ClearPending:
.Lfunc_begin7:
	.loc	5 497 0                         @ ../Library/STM32F4xx_HAL_Driver/Src/stm32f4xx_hal_exti.c:497:0
	.fnstart
	.cfi_startproc
@ %bb.0:
	@DEBUG_VALUE: HAL_EXTI_ClearPending:hexti <- $r0
	@DEBUG_VALUE: HAL_EXTI_ClearPending:hexti <- $r0
	@DEBUG_VALUE: HAL_EXTI_ClearPending:Edge <- $r1
	.loc	5 506 30 prologue_end           @ ../Library/STM32F4xx_HAL_Driver/Src/stm32f4xx_hal_exti.c:506:30
	ldr	r0, [r0]
.Ltmp100:
	@DEBUG_VALUE: HAL_EXTI_ClearPending:hexti <- [DW_OP_LLVM_entry_value 1] $r0
	.loc	5 0 30 is_stmt 0                @ ../Library/STM32F4xx_HAL_Driver/Src/stm32f4xx_hal_exti.c:0:30
	movs	r1, #1
.Ltmp101:
	@DEBUG_VALUE: HAL_EXTI_ClearPending:Edge <- [DW_OP_LLVM_entry_value 1] $r1
	.loc	5 506 35                        @ ../Library/STM32F4xx_HAL_Driver/Src/stm32f4xx_hal_exti.c:506:35
	and	r0, r0, #31
	.loc	5 506 19                        @ ../Library/STM32F4xx_HAL_Driver/Src/stm32f4xx_hal_exti.c:506:19
	lsl.w	r0, r1, r0
.Ltmp102:
	@DEBUG_VALUE: HAL_EXTI_ClearPending:maskline <- $r0
	.loc	5 0 19                          @ ../Library/STM32F4xx_HAL_Driver/Src/stm32f4xx_hal_exti.c:0:19
	movw	r1, #15380
	movt	r1, #16385
	.loc	5 509 12 is_stmt 1              @ ../Library/STM32F4xx_HAL_Driver/Src/stm32f4xx_hal_exti.c:509:12
	str	r0, [r1]
	.loc	5 510 1                         @ ../Library/STM32F4xx_HAL_Driver/Src/stm32f4xx_hal_exti.c:510:1
	bx	lr
.Ltmp103:
.Lfunc_end7:
	.size	HAL_EXTI_ClearPending, .Lfunc_end7-HAL_EXTI_ClearPending
	.cfi_endproc
	.cantunwind
	.fnend
                                        @ -- End function
	.section	.text.HAL_EXTI_GenerateSWI,"ax",%progbits
	.hidden	HAL_EXTI_GenerateSWI            @ -- Begin function HAL_EXTI_GenerateSWI
	.globl	HAL_EXTI_GenerateSWI
	.p2align	1
	.type	HAL_EXTI_GenerateSWI,%function
	.code	16                              @ @HAL_EXTI_GenerateSWI
	.thumb_func
HAL_EXTI_GenerateSWI:
.Lfunc_begin8:
	.loc	5 518 0                         @ ../Library/STM32F4xx_HAL_Driver/Src/stm32f4xx_hal_exti.c:518:0
	.fnstart
	.cfi_startproc
@ %bb.0:
	@DEBUG_VALUE: HAL_EXTI_GenerateSWI:hexti <- $r0
	@DEBUG_VALUE: HAL_EXTI_GenerateSWI:hexti <- $r0
	.loc	5 526 30 prologue_end           @ ../Library/STM32F4xx_HAL_Driver/Src/stm32f4xx_hal_exti.c:526:30
	ldr	r0, [r0]
.Ltmp104:
	@DEBUG_VALUE: HAL_EXTI_GenerateSWI:hexti <- [DW_OP_LLVM_entry_value 1] $r0
	.loc	5 0 30 is_stmt 0                @ ../Library/STM32F4xx_HAL_Driver/Src/stm32f4xx_hal_exti.c:0:30
	movs	r1, #1
	.loc	5 526 35                        @ ../Library/STM32F4xx_HAL_Driver/Src/stm32f4xx_hal_exti.c:526:35
	and	r0, r0, #31
	.loc	5 526 19                        @ ../Library/STM32F4xx_HAL_Driver/Src/stm32f4xx_hal_exti.c:526:19
	lsl.w	r0, r1, r0
.Ltmp105:
	@DEBUG_VALUE: HAL_EXTI_GenerateSWI:maskline <- $r0
	.loc	5 0 19                          @ ../Library/STM32F4xx_HAL_Driver/Src/stm32f4xx_hal_exti.c:0:19
	movw	r1, #15376
	movt	r1, #16385
	.loc	5 529 15 is_stmt 1              @ ../Library/STM32F4xx_HAL_Driver/Src/stm32f4xx_hal_exti.c:529:15
	str	r0, [r1]
	.loc	5 530 1                         @ ../Library/STM32F4xx_HAL_Driver/Src/stm32f4xx_hal_exti.c:530:1
	bx	lr
.Ltmp106:
.Lfunc_end8:
	.size	HAL_EXTI_GenerateSWI, .Lfunc_end8-HAL_EXTI_GenerateSWI
	.cfi_endproc
	.cantunwind
	.fnend
                                        @ -- End function
	.section	".note.GNU-stack","",%progbits
	.eabi_attribute	30, 3	@ Tag_ABI_optimization_goals
	.ARM_attribute	16, 1	@ Tag_AV_eba