	.text
	.syntax unified
	.eabi_attribute	67, "2.09"	@ Tag_conformance
	.cpu	cortex-m4
	.eabi_attribute	6, 13	@ Tag_CPU_arch
	.eabi_attribute	7, 77	@ Tag_CPU_arch_profile
	.eabi_attribute	8, 0	@ Tag_ARM_ISA_use
	.eabi_attribute	9, 2	@ Tag_THUMB_ISA_use
	.fpu	fpv4-sp-d16
	.eabi_attribute	27, 1	@ Tag_ABI_HardFP_use
	.eabi_attribute	36, 1	@ Tag_FP_HP_extension
	.eabi_attribute	34, 1	@ Tag_CPU_unaligned_access
	.eabi_attribute	17, 1	@ Tag_ABI_PCS_GOT_use
	.eabi_attribute	20, 2	@ Tag_ABI_FP_denormal
	.eabi_attribute	21, 0	@ Tag_ABI_FP_exceptions
	.eabi_attribute	23, 1	@ Tag_ABI_FP_number_model
	.eabi_attribute	24, 1	@ Tag_ABI_align_needed
	.eabi_attribute	25, 1	@ Tag_ABI_align_preserved
	.eabi_attribute	28, 1	@ Tag_ABI_VFP_args
	.eabi_attribute	38, 1	@ Tag_ABI_FP_16bit_format
	.eabi_attribute	18, 2	@ Tag_ABI_PCS_wchar_t
	.eabi_attribute	26, 1	@ Tag_ABI_enum_size
	.eabi_attribute	14, 0	@ Tag_ABI_PCS_R9_use
	.file	"stm32f4xx_hal_tim_ex.c"
	.file	1 "C:\\Users\\Hyacincher\\Desktop\\HyTelectrl\\Code\\Project" "../Library/STM32F4xx_HAL_Driver/Inc/stm32f4xx_hal_def.h"
	.file	2 "C:\\Users\\Hyacincher\\Desktop\\HyTelectrl\\Code\\Project" "../Library/STM32F4xx_HAL_Driver/Inc\\stm32f4xx_hal_tim.h"
	.file	3 "C:\\Users\\Hyacincher\\Desktop\\HyTelectrl\\Code\\Project" "../Library/STM32F4xx_HAL_Driver/Inc\\stm32f4xx_hal_dma.h"
	.file	4 "C:\\Users\\Hyacincher\\Desktop\\HyTelectrl\\Code\\Project" "../Library/CMSIS\\stm32f4xx.h"
	.file	5 "D:\\Keil MDK\\ARM\\ARMCLANG\\Bin\\..\\include" "stdint.h"
	.file	6 "C:\\Users\\Hyacincher\\Desktop\\HyTelectrl\\Code\\Project" "../Library/CMSIS/stm32f429xx.h"
	.section	.text.HAL_TIMEx_HallSensor_Init,"ax",%progbits
	.hidden	HAL_TIMEx_HallSensor_Init       @ -- Begin function HAL_TIMEx_HallSensor_Init
	.globl	HAL_TIMEx_HallSensor_Init
	.p2align	1
	.type	HAL_TIMEx_HallSensor_Init,%function
	.code	16                              @ @HAL_TIMEx_HallSensor_Init
	.thumb_func
HAL_TIMEx_HallSensor_Init:
.Lfunc_begin0:
	.file	7 "C:\\Users\\Hyacincher\\Desktop\\HyTelectrl\\Code\\Project" "../Library/STM32F4xx_HAL_Driver/Src/stm32f4xx_hal_tim_ex.c"
	.loc	7 139 0                         @ ../Library/STM32F4xx_HAL_Driver/Src/stm32f4xx_hal_tim_ex.c:139:0
	.fnstart
	.cfi_sections .debug_frame
	.cfi_startproc
@ %bb.0:
	@DEBUG_VALUE: HAL_TIMEx_HallSensor_Init:htim <- $r0
	@DEBUG_VALUE: HAL_TIMEx_HallSensor_Init:sConfig <- $r1
	@DEBUG_VALUE: HAL_TIMEx_HallSensor_Init:htim <- $r0
	.save	{r4, r5, r6, lr}
	push	{r4, r5, r6, lr}
	.cfi_def_cfa_offset 16
	.cfi_offset lr, -4
	.cfi_offset r6, -8
	.cfi_offset r5, -12
	.cfi_offset r4, -16
	.pad	#32
	sub	sp, #32
	.cfi_def_cfa_offset 48
.Ltmp0:
	.loc	7 143 7 prologue_end            @ ../Library/STM32F4xx_HAL_Driver/Src/stm32f4xx_hal_tim_ex.c:143:7
	cmp	r0, #0
	@DEBUG_VALUE: HAL_TIMEx_HallSensor_Init:sConfig <- $r1
	beq	.LBB0_4
.Ltmp1:
@ %bb.1:
	@DEBUG_VALUE: HAL_TIMEx_HallSensor_Init:sConfig <- $r1
	@DEBUG_VALUE: HAL_TIMEx_HallSensor_Init:htim <- $r0
	.loc	7 0 7 is_stmt 0                 @ ../Library/STM32F4xx_HAL_Driver/Src/stm32f4xx_hal_tim_ex.c:0:7
	mov	r4, r0
.Ltmp2:
	@DEBUG_VALUE: HAL_TIMEx_HallSensor_Init:htim <- $r4
	.loc	7 157 13 is_stmt 1              @ ../Library/STM32F4xx_HAL_Driver/Src/stm32f4xx_hal_tim_ex.c:157:13
	ldrb.w	r0, [r0, #61]
	mov	r5, r1
.Ltmp3:
	@DEBUG_VALUE: HAL_TIMEx_HallSensor_Init:sConfig <- $r5
	@DEBUG_VALUE: HAL_TIMEx_HallSensor_Init:sConfig <- $r5
	.loc	7 157 7 is_stmt 0               @ ../Library/STM32F4xx_HAL_Driver/Src/stm32f4xx_hal_tim_ex.c:157:7
	cbnz	r0, .LBB0_3
.Ltmp4:
@ %bb.2:
	@DEBUG_VALUE: HAL_TIMEx_HallSensor_Init:sConfig <- $r5
	@DEBUG_VALUE: HAL_TIMEx_HallSensor_Init:htim <- $r4
	.loc	7 0 7                           @ ../Library/STM32F4xx_HAL_Driver/Src/stm32f4xx_hal_tim_ex.c:0:7
	movs	r0, #0
.Ltmp5:
	.loc	7 160 16 is_stmt 1              @ ../Library/STM32F4xx_HAL_Driver/Src/stm32f4xx_hal_tim_ex.c:160:16
	strb.w	r0, [r4, #60]
	.loc	7 174 5                         @ ../Library/STM32F4xx_HAL_Driver/Src/stm32f4xx_hal_tim_ex.c:174:5
	mov	r0, r4
	bl	HAL_TIMEx_HallSensor_MspInit
.Ltmp6:
.LBB0_3:
	@DEBUG_VALUE: HAL_TIMEx_HallSensor_Init:sConfig <- $r5
	@DEBUG_VALUE: HAL_TIMEx_HallSensor_Init:htim <- $r4
	.loc	7 0 5 is_stmt 0                 @ ../Library/STM32F4xx_HAL_Driver/Src/stm32f4xx_hal_tim_ex.c:0:5
	movs	r0, #2
	.loc	7 179 15 is_stmt 1              @ ../Library/STM32F4xx_HAL_Driver/Src/stm32f4xx_hal_tim_ex.c:179:15
	strb.w	r0, [r4, #61]
	.loc	7 182 28                        @ ../Library/STM32F4xx_HAL_Driver/Src/stm32f4xx_hal_tim_ex.c:182:28
	ldr	r0, [r4]
	.loc	7 182 45 is_stmt 0              @ ../Library/STM32F4xx_HAL_Driver/Src/stm32f4xx_hal_tim_ex.c:182:45
	adds	r1, r4, #4
	.loc	7 182 3                         @ ../Library/STM32F4xx_HAL_Driver/Src/stm32f4xx_hal_tim_ex.c:182:3
	bl	TIM_Base_SetConfig
.Ltmp7:
	.loc	7 185 27 is_stmt 1              @ ../Library/STM32F4xx_HAL_Driver/Src/stm32f4xx_hal_tim_ex.c:185:27
	ldr	r0, [r4]
	.loc	7 185 46 is_stmt 0              @ ../Library/STM32F4xx_HAL_Driver/Src/stm32f4xx_hal_tim_ex.c:185:46
	ldr	r1, [r5]
	.loc	7 185 89                        @ ../Library/STM32F4xx_HAL_Driver/Src/stm32f4xx_hal_tim_ex.c:185:89
	ldr	r3, [r5, #8]
	.loc	7 185 3                         @ ../Library/STM32F4xx_HAL_Driver/Src/stm32f4xx_hal_tim_ex.c:185:3
	movs	r2, #3
	bl	TIM_TI1_SetConfig
.Ltmp8:
	.loc	7 188 9 is_stmt 1               @ ../Library/STM32F4xx_HAL_Driver/Src/stm32f4xx_hal_tim_ex.c:188:9
	ldr	r0, [r4]
	movs	r6, #0
	.loc	7 188 25 is_stmt 0              @ ../Library/STM32F4xx_HAL_Driver/Src/stm32f4xx_hal_tim_ex.c:188:25
	ldr	r1, [r0, #24]
	bic	r1, r1, #12
	str	r1, [r0, #24]
	.loc	7 190 37 is_stmt 1              @ ../Library/STM32F4xx_HAL_Driver/Src/stm32f4xx_hal_tim_ex.c:190:37
	ldr	r1, [r5, #4]
	.loc	7 190 25 is_stmt 0              @ ../Library/STM32F4xx_HAL_Driver/Src/stm32f4xx_hal_tim_ex.c:190:25
	ldr	r2, [r0, #24]
	orrs	r1, r2
	str	r1, [r0, #24]
	.loc	7 193 23 is_stmt 1              @ ../Library/STM32F4xx_HAL_Driver/Src/stm32f4xx_hal_tim_ex.c:193:23
	ldr	r1, [r0, #4]
	orr	r1, r1, #128
	str	r1, [r0, #4]
	.loc	7 196 24                        @ ../Library/STM32F4xx_HAL_Driver/Src/stm32f4xx_hal_tim_ex.c:196:24
	ldr	r1, [r0, #8]
	bic	r1, r1, #112
	str	r1, [r0, #8]
	.loc	7 197 24                        @ ../Library/STM32F4xx_HAL_Driver/Src/stm32f4xx_hal_tim_ex.c:197:24
	ldr	r1, [r0, #8]
	orr	r1, r1, #64
	str	r1, [r0, #8]
	.loc	7 200 24                        @ ../Library/STM32F4xx_HAL_Driver/Src/stm32f4xx_hal_tim_ex.c:200:24
	ldr	r1, [r0, #8]
	bic	r1, r1, #7
	str	r1, [r0, #8]
	.loc	7 201 24                        @ ../Library/STM32F4xx_HAL_Driver/Src/stm32f4xx_hal_tim_ex.c:201:24
	ldr	r1, [r0, #8]
	orr	r1, r1, #4
	str	r1, [r0, #8]
	movs	r1, #112
	.loc	7 206 20                        @ ../Library/STM32F4xx_HAL_Driver/Src/stm32f4xx_hal_tim_ex.c:206:20
	str	r1, [sp, #4]
	.loc	7 210 30                        @ ../Library/STM32F4xx_HAL_Driver/Src/stm32f4xx_hal_tim_ex.c:210:30
	ldr	r1, [r5, #12]
	.loc	7 204 24                        @ ../Library/STM32F4xx_HAL_Driver/Src/stm32f4xx_hal_tim_ex.c:204:24
	strd	r6, r6, [sp, #20]
	.loc	7 210 19                        @ ../Library/STM32F4xx_HAL_Driver/Src/stm32f4xx_hal_tim_ex.c:210:19
	strd	r1, r6, [sp, #8]
	add	r1, sp, #4
	.loc	7 207 26                        @ ../Library/STM32F4xx_HAL_Driver/Src/stm32f4xx_hal_tim_ex.c:207:26
	str	r6, [sp, #28]
	.loc	7 208 25                        @ ../Library/STM32F4xx_HAL_Driver/Src/stm32f4xx_hal_tim_ex.c:208:25
	str	r6, [sp, #16]
	.loc	7 212 3                         @ ../Library/STM32F4xx_HAL_Driver/Src/stm32f4xx_hal_tim_ex.c:212:3
	bl	TIM_OC2_SetConfig
.Ltmp9:
	.loc	7 216 9                         @ ../Library/STM32F4xx_HAL_Driver/Src/stm32f4xx_hal_tim_ex.c:216:9
	ldr	r0, [r4]
	.loc	7 216 23 is_stmt 0              @ ../Library/STM32F4xx_HAL_Driver/Src/stm32f4xx_hal_tim_ex.c:216:23
	ldr	r1, [r0, #4]
	bic	r1, r1, #112
	str	r1, [r0, #4]
	.loc	7 217 23 is_stmt 1              @ ../Library/STM32F4xx_HAL_Driver/Src/stm32f4xx_hal_tim_ex.c:217:23
	ldr	r1, [r0, #4]
	orr	r1, r1, #80
	str	r1, [r0, #4]
	movs	r0, #1
	.loc	7 220 23                        @ ../Library/STM32F4xx_HAL_Driver/Src/stm32f4xx_hal_tim_ex.c:220:23
	strb.w	r0, [r4, #70]
	.loc	7 223 3                         @ ../Library/STM32F4xx_HAL_Driver/Src/stm32f4xx_hal_tim_ex.c:223:3
	strb.w	r0, [r4, #62]
	.loc	7 224 3                         @ ../Library/STM32F4xx_HAL_Driver/Src/stm32f4xx_hal_tim_ex.c:224:3
	strb.w	r0, [r4, #63]
	.loc	7 225 3                         @ ../Library/STM32F4xx_HAL_Driver/Src/stm32f4xx_hal_tim_ex.c:225:3
	strb.w	r0, [r4, #66]
	.loc	7 226 3                         @ ../Library/STM32F4xx_HAL_Driver/Src/stm32f4xx_hal_tim_ex.c:226:3
	strb.w	r0, [r4, #67]
	.loc	7 229 15                        @ ../Library/STM32F4xx_HAL_Driver/Src/stm32f4xx_hal_tim_ex.c:229:15
	strb.w	r0, [r4, #61]
	b	.LBB0_5
.Ltmp10:
.LBB0_4:
	@DEBUG_VALUE: HAL_TIMEx_HallSensor_Init:sConfig <- $r1
	@DEBUG_VALUE: HAL_TIMEx_HallSensor_Init:htim <- $r0
	.loc	7 0 15 is_stmt 0                @ ../Library/STM32F4xx_HAL_Driver/Src/stm32f4xx_hal_tim_ex.c:0:15
	movs	r6, #1
.Ltmp11:
.LBB0_5:
	.loc	7 232 1 is_stmt 1               @ ../Library/STM32F4xx_HAL_Driver/Src/stm32f4xx_hal_tim_ex.c:232:1
	mov	r0, r6
	add	sp, #32
	pop	{r4, r5, r6, pc}
.Ltmp12:
.Lfunc_end0:
	.size	HAL_TIMEx_HallSensor_Init, .Lfunc_end0-HAL_TIMEx_HallSensor_Init
	.cfi_endproc
	.cantunwind
	.fnend
                                        @ -- End function
	.section	.text.HAL_TIMEx_HallSensor_MspInit,"ax",%progbits
	.hidden	HAL_TIMEx_HallSensor_MspInit    @ -- Begin function HAL_TIMEx_HallSensor_MspInit
	.weak	HAL_TIMEx_HallSensor_MspInit
	.p2align	1
	.type	HAL_TIMEx_HallSensor_MspInit,%function
	.code	16                              @ @HAL_TIMEx_HallSensor_MspInit
	.thumb_func
HAL_TIMEx_HallSensor_MspInit:
.Lfunc_begin1:
	.loc	7 285 0                         @ ../Library/STM32F4xx_HAL_Driver/Src/stm32f4xx_hal_tim_ex.c:285:0
	.fnstart
	.cfi_startproc
@ %bb.0:
	@DEBUG_VALUE: HAL_TIMEx_HallSensor_MspInit:htim <- $r0
	.loc	7 292 1 prologue_end            @ ../Library/STM32F4xx_HAL_Driver/Src/stm32f4xx_hal_tim_ex.c:292:1
	bx	lr
.Ltmp13:
.Lfunc_end1:
	.size	HAL_TIMEx_HallSensor_MspInit, .Lfunc_end1-HAL_TIMEx_HallSensor_MspInit
	.cfi_endproc
	.cantunwind
	.fnend
                                        @ -- End function
	.section	.text.HAL_TIMEx_HallSensor_DeInit,"ax",%progbits
	.hidden	HAL_TIMEx_HallSensor_DeInit     @ -- Begin function HAL_TIMEx_HallSensor_DeInit
	.globl	HAL_TIMEx_HallSensor_DeInit
	.p2align	1
	.type	HAL_TIMEx_HallSensor_DeInit,%function
	.code	16                              @ @HAL_TIMEx_HallSensor_DeInit
	.thumb_func
HAL_TIMEx_HallSensor_DeInit:
.Lfunc_begin2:
	.loc	7 240 0                         @ ../Library/STM32F4xx_HAL_Driver/Src/stm32f4xx_hal_tim_ex.c:240:0
	.fnstart
	.cfi_startproc
@ %bb.0:
	@DEBUG_VALUE: HAL_TIMEx_HallSensor_DeInit:htim <- $r0
	.save	{r4, lr}
	push	{r4, lr}
	.cfi_def_cfa_offset 8
	.cfi_offset lr, -4
	.cfi_offset r4, -8
	mov	r4, r0
.Ltmp14:
	@DEBUG_VALUE: HAL_TIMEx_HallSensor_DeInit:htim <- $r4
	movs	r0, #2
	@DEBUG_VALUE: HAL_TIMEx_HallSensor_DeInit:htim <- $r4
.Ltmp15:
	.loc	7 244 15 prologue_end           @ ../Library/STM32F4xx_HAL_Driver/Src/stm32f4xx_hal_tim_ex.c:244:15
	strb.w	r0, [r4, #61]
.Ltmp16:
	.loc	7 247 3                         @ ../Library/STM32F4xx_HAL_Driver/Src/stm32f4xx_hal_tim_ex.c:247:3
	ldr	r0, [r4]
	movw	r2, #4369
	ldr	r1, [r0, #32]
.Ltmp17:
	.loc	7 247 3 is_stmt 0               @ ../Library/STM32F4xx_HAL_Driver/Src/stm32f4xx_hal_tim_ex.c:247:3
	tst	r1, r2
	bne	.LBB2_3
.Ltmp18:
@ %bb.1:
	@DEBUG_VALUE: HAL_TIMEx_HallSensor_DeInit:htim <- $r4
	.loc	7 247 3                         @ ../Library/STM32F4xx_HAL_Driver/Src/stm32f4xx_hal_tim_ex.c:247:3
	ldr	r1, [r0, #32]
	movw	r2, #1092
.Ltmp19:
	.loc	7 247 3                         @ ../Library/STM32F4xx_HAL_Driver/Src/stm32f4xx_hal_tim_ex.c:247:3
	tst	r1, r2
	bne	.LBB2_3
.Ltmp20:
@ %bb.2:
	@DEBUG_VALUE: HAL_TIMEx_HallSensor_DeInit:htim <- $r4
	.loc	7 247 3                         @ ../Library/STM32F4xx_HAL_Driver/Src/stm32f4xx_hal_tim_ex.c:247:3
	ldr	r1, [r0]
	bic	r1, r1, #1
	str	r1, [r0]
.Ltmp21:
.LBB2_3:
	@DEBUG_VALUE: HAL_TIMEx_HallSensor_DeInit:htim <- $r4
	.loc	7 258 3 is_stmt 1               @ ../Library/STM32F4xx_HAL_Driver/Src/stm32f4xx_hal_tim_ex.c:258:3
	mov	r0, r4
	bl	HAL_TIMEx_HallSensor_MspDeInit
.Ltmp22:
	.loc	7 0 3 is_stmt 0                 @ ../Library/STM32F4xx_HAL_Driver/Src/stm32f4xx_hal_tim_ex.c:0:3
	movs	r1, #0
	.loc	7 276 3 is_stmt 1               @ ../Library/STM32F4xx_HAL_Driver/Src/stm32f4xx_hal_tim_ex.c:276:3
	movs	r0, #0
	.loc	7 262 23                        @ ../Library/STM32F4xx_HAL_Driver/Src/stm32f4xx_hal_tim_ex.c:262:23
	strb.w	r1, [r4, #70]
	.loc	7 265 3                         @ ../Library/STM32F4xx_HAL_Driver/Src/stm32f4xx_hal_tim_ex.c:265:3
	strb.w	r1, [r4, #62]
	.loc	7 266 3                         @ ../Library/STM32F4xx_HAL_Driver/Src/stm32f4xx_hal_tim_ex.c:266:3
	strb.w	r1, [r4, #63]
	.loc	7 267 3                         @ ../Library/STM32F4xx_HAL_Driver/Src/stm32f4xx_hal_tim_ex.c:267:3
	strb.w	r1, [r4, #66]
	.loc	7 268 3                         @ ../Library/STM32F4xx_HAL_Driver/Src/stm32f4xx_hal_tim_ex.c:268:3
	strb.w	r1, [r4, #67]
	.loc	7 271 15                        @ ../Library/STM32F4xx_HAL_Driver/Src/stm32f4xx_hal_tim_ex.c:271:15
	strb.w	r1, [r4, #61]
.Ltmp23:
	.loc	7 274 3                         @ ../Library/STM32F4xx_HAL_Driver/Src/stm32f4xx_hal_tim_ex.c:274:3
	strb.w	r1, [r4, #60]
.Ltmp24:
	.loc	7 276 3                         @ ../Library/STM32F4xx_HAL_Driver/Src/stm32f4xx_hal_tim_ex.c:276:3
	pop	{r4, pc}
.Ltmp25:
.Lfunc_end2:
	.size	HAL_TIMEx_HallSensor_DeInit, .Lfunc_end2-HAL_TIMEx_HallSensor_DeInit
	.cfi_endproc
	.cantunwind
	.fnend
                                        @ -- End function
	.section	.text.HAL_TIMEx_HallSensor_MspDeInit,"ax",%progbits
	.hidden	HAL_TIMEx_HallSensor_MspDeInit  @ -- Begin function HAL_TIMEx_HallSensor_MspDeInit
	.weak	HAL_TIMEx_HallSensor_MspDeInit
	.p2align	1
	.type	HAL_TIMEx_HallSensor_MspDeInit,%function
	.code	16                              @ @HAL_TIMEx_HallSensor_MspDeInit
	.thumb_func
HAL_TIMEx_HallSensor_MspDeInit:
.Lfunc_begin3:
	.loc	7 300 0                         @ ../Library/STM32F4xx_HAL_Driver/Src/stm32f4xx_hal_tim_ex.c:300:0
	.fnstart
	.cfi_startproc
@ %bb.0:
	@DEBUG_VALUE: HAL_TIMEx_HallSensor_MspDeInit:htim <- $r0
	.loc	7 307 1 prologue_end            @ ../Library/STM32F4xx_HAL_Driver/Src/stm32f4xx_hal_tim_ex.c:307:1
	bx	lr
.Ltmp26:
.Lfunc_end3:
	.size	HAL_TIMEx_HallSensor_MspDeInit, .Lfunc_end3-HAL_TIMEx_HallSensor_MspDeInit
	.cfi_endproc
	.cantunwind
	.fnend
                                        @ -- End function
	.section	.text.HAL_TIMEx_HallSensor_Start,"ax",%progbits
	.hidden	HAL_TIMEx_HallSensor_Start      @ -- Begin function HAL_TIMEx_HallSensor_Start
	.globl	HAL_TIMEx_HallSensor_Start
	.p2align	1
	.type	HAL_TIMEx_HallSensor_Start,%function
	.code	16                              @ @HAL_TIMEx_HallSensor_Start
	.thumb_func
HAL_TIMEx_HallSensor_Start:
.Lfunc_begin4:
	.loc	7 315 0                         @ ../Library/STM32F4xx_HAL_Driver/Src/stm32f4xx_hal_tim_ex.c:315:0
	.fnstart
	.cfi_startproc
@ %bb.0:
	@DEBUG_VALUE: HAL_TIMEx_HallSensor_Start:htim <- $r0
	.save	{r4, lr}
	push	{r4, lr}
	.cfi_def_cfa_offset 8
	.cfi_offset lr, -4
	.cfi_offset r4, -8
	mov	r4, r0
.Ltmp27:
	@DEBUG_VALUE: HAL_TIMEx_HallSensor_Start:htim <- $r4
	.loc	7 317 49 prologue_end           @ ../Library/STM32F4xx_HAL_Driver/Src/stm32f4xx_hal_tim_ex.c:317:49
	ldrb.w	r0, [r0, #62]
.Ltmp28:
	@DEBUG_VALUE: HAL_TIMEx_HallSensor_Start:channel_1_state <- $r0
	.loc	7 318 49                        @ ../Library/STM32F4xx_HAL_Driver/Src/stm32f4xx_hal_tim_ex.c:318:49
	ldrb.w	r3, [r4, #63]
.Ltmp29:
	@DEBUG_VALUE: HAL_TIMEx_HallSensor_Start:channel_2_state <- undef
	.loc	7 319 63                        @ ../Library/STM32F4xx_HAL_Driver/Src/stm32f4xx_hal_tim_ex.c:319:63
	ldrb.w	r2, [r4, #66]
.Ltmp30:
	@DEBUG_VALUE: HAL_TIMEx_HallSensor_Start:complementary_channel_1_state <- undef
	.loc	7 320 63                        @ ../Library/STM32F4xx_HAL_Driver/Src/stm32f4xx_hal_tim_ex.c:320:63
	ldrb.w	r1, [r4, #67]
.Ltmp31:
	.loc	7 327 7                         @ ../Library/STM32F4xx_HAL_Driver/Src/stm32f4xx_hal_tim_ex.c:327:7
	cmp	r0, #1
	mov.w	r0, #1
.Ltmp32:
	@DEBUG_VALUE: HAL_TIMEx_HallSensor_Start:complementary_channel_2_state <- undef
	it	eq
	cmpeq	r3, #1
	beq	.LBB4_2
.Ltmp33:
.LBB4_1:
	@DEBUG_VALUE: HAL_TIMEx_HallSensor_Start:htim <- $r4
	.loc	7 361 1                         @ ../Library/STM32F4xx_HAL_Driver/Src/stm32f4xx_hal_tim_ex.c:361:1
	pop	{r4, pc}
.Ltmp34:
.LBB4_2:
	@DEBUG_VALUE: HAL_TIMEx_HallSensor_Start:htim <- $r4
	.loc	7 327 7                         @ ../Library/STM32F4xx_HAL_Driver/Src/stm32f4xx_hal_tim_ex.c:327:7
	cmp	r2, #1
	bne	.LBB4_1
.Ltmp35:
@ %bb.3:
	@DEBUG_VALUE: HAL_TIMEx_HallSensor_Start:htim <- $r4
	cmp	r1, #1
.Ltmp36:
	.loc	7 361 1                         @ ../Library/STM32F4xx_HAL_Driver/Src/stm32f4xx_hal_tim_ex.c:361:1
	it	ne
	popne	{r4, pc}
.Ltmp37:
.LBB4_4:
	.loc	7 0 1 is_stmt 0                 @ ../Library/STM32F4xx_HAL_Driver/Src/stm32f4xx_hal_tim_ex.c:0:1
	movs	r0, #2
	.loc	7 335 3 is_stmt 1               @ ../Library/STM32F4xx_HAL_Driver/Src/stm32f4xx_hal_tim_ex.c:335:3
	strb.w	r0, [r4, #62]
	.loc	7 336 3                         @ ../Library/STM32F4xx_HAL_Driver/Src/stm32f4xx_hal_tim_ex.c:336:3
	strb.w	r0, [r4, #63]
	.loc	7 337 3                         @ ../Library/STM32F4xx_HAL_Driver/Src/stm32f4xx_hal_tim_ex.c:337:3
	strb.w	r0, [r4, #66]
	.loc	7 338 3                         @ ../Library/STM32F4xx_HAL_Driver/Src/stm32f4xx_hal_tim_ex.c:338:3
	strb.w	r0, [r4, #67]
	.loc	7 343 27                        @ ../Library/STM32F4xx_HAL_Driver/Src/stm32f4xx_hal_tim_ex.c:343:27
	ldr	r0, [r4]
	.loc	7 343 3 is_stmt 0               @ ../Library/STM32F4xx_HAL_Driver/Src/stm32f4xx_hal_tim_ex.c:343:3
	movs	r1, #0
	movs	r2, #1
	bl	TIM_CCxChannelCmd
.Ltmp38:
	.loc	7 346 7 is_stmt 1               @ ../Library/STM32F4xx_HAL_Driver/Src/stm32f4xx_hal_tim_ex.c:346:7
	ldr	r0, [r4]
	movw	r1, #6143
	movt	r1, #16384
	cmp	r0, r1
	bgt	.LBB4_8
@ %bb.5:
	.loc	7 0 7 is_stmt 0                 @ ../Library/STM32F4xx_HAL_Driver/Src/stm32f4xx_hal_tim_ex.c:0:7
	movw	r1, #2047
	movt	r1, #16384
	.loc	7 346 7                         @ ../Library/STM32F4xx_HAL_Driver/Src/stm32f4xx_hal_tim_ex.c:346:7
	cmp	r0, r1
	bgt	.LBB4_11
@ %bb.6:
	cmp.w	r0, #1073741824
	beq	.LBB4_18
@ %bb.7:
	.loc	7 0 7                           @ ../Library/STM32F4xx_HAL_Driver/Src/stm32f4xx_hal_tim_ex.c:0:7
	movw	r1, #1024
	b	.LBB4_13
.LBB4_8:
	movw	r1, #1023
	movt	r1, #16385
	.loc	7 346 7                         @ ../Library/STM32F4xx_HAL_Driver/Src/stm32f4xx_hal_tim_ex.c:346:7
	cmp	r0, r1
	bgt	.LBB4_14
@ %bb.9:
	.loc	7 0 7                           @ ../Library/STM32F4xx_HAL_Driver/Src/stm32f4xx_hal_tim_ex.c:0:7
	movw	r1, #6144
	movt	r1, #16384
	.loc	7 346 7                         @ ../Library/STM32F4xx_HAL_Driver/Src/stm32f4xx_hal_tim_ex.c:346:7
	cmp	r0, r1
	beq	.LBB4_18
@ %bb.10:
	.loc	7 0 7                           @ ../Library/STM32F4xx_HAL_Driver/Src/stm32f4xx_hal_tim_ex.c:0:7
	movs	r1, #0
	b	.LBB4_16
.LBB4_11:
	movw	r1, #2048
	movt	r1, #16384
	.loc	7 346 7                         @ ../Library/STM32F4xx_HAL_Driver/Src/stm32f4xx_hal_tim_ex.c:346:7
	cmp	r0, r1
	beq	.LBB4_18
@ %bb.12:
	.loc	7 0 7                           @ ../Library/STM32F4xx_HAL_Driver/Src/stm32f4xx_hal_tim_ex.c:0:7
	movw	r1, #3072
.LBB4_13:
	movt	r1, #16384
	b	.LBB4_17
.LBB4_14:
	movw	r1, #16384
	movt	r1, #16385
	.loc	7 346 7                         @ ../Library/STM32F4xx_HAL_Driver/Src/stm32f4xx_hal_tim_ex.c:346:7
	cmp	r0, r1
	beq	.LBB4_18
@ %bb.15:
	.loc	7 0 7                           @ ../Library/STM32F4xx_HAL_Driver/Src/stm32f4xx_hal_tim_ex.c:0:7
	movw	r1, #1024
.LBB4_16:
	movt	r1, #16385
.LBB4_17:
	.loc	7 346 7                         @ ../Library/STM32F4xx_HAL_Driver/Src/stm32f4xx_hal_tim_ex.c:346:7
	cmp	r0, r1
	bne	.LBB4_19
.LBB4_18:
.Ltmp39:
	.loc	7 348 31 is_stmt 1              @ ../Library/STM32F4xx_HAL_Driver/Src/stm32f4xx_hal_tim_ex.c:348:31
	ldr	r1, [r0, #8]
	.loc	7 348 36 is_stmt 0              @ ../Library/STM32F4xx_HAL_Driver/Src/stm32f4xx_hal_tim_ex.c:348:36
	and	r1, r1, #7
.Ltmp40:
	@DEBUG_VALUE: HAL_TIMEx_HallSensor_Start:tmpsmcr <- $r1
	.loc	7 349 9 is_stmt 1               @ ../Library/STM32F4xx_HAL_Driver/Src/stm32f4xx_hal_tim_ex.c:349:9
	cmp	r1, #6
	beq	.LBB4_20
.Ltmp41:
.LBB4_19:
	.loc	7 0 0 is_stmt 0                 @ ../Library/STM32F4xx_HAL_Driver/Src/stm32f4xx_hal_tim_ex.c:0:0
	ldr	r1, [r0]
	orr	r1, r1, #1
	str	r1, [r0]
.Ltmp42:
.LBB4_20:
	movs	r0, #0
	.loc	7 361 1 is_stmt 1               @ ../Library/STM32F4xx_HAL_Driver/Src/stm32f4xx_hal_tim_ex.c:361:1
	pop	{r4, pc}
.Ltmp43:
.Lfunc_end4:
	.size	HAL_TIMEx_HallSensor_Start, .Lfunc_end4-HAL_TIMEx_HallSensor_Start
	.cfi_endproc
	.cantunwind
	.fnend
                                        @ -- End function
	.section	.text.HAL_TIMEx_HallSensor_Stop,"ax",%progbits
	.hidden	HAL_TIMEx_HallSensor_Stop       @ -- Begin function HAL_TIMEx_HallSensor_Stop
	.globl	HAL_TIMEx_HallSensor_Stop
	.p2align	1
	.type	HAL_TIMEx_HallSensor_Stop,%function
	.code	16                              @ @HAL_TIMEx_HallSensor_Stop
	.thumb_func
HAL_TIMEx_HallSensor_Stop:
.Lfunc_begin5:
	.loc	7 369 0                         @ ../Library/STM32F4xx_HAL_Driver/Src/stm32f4xx_hal_tim_ex.c:369:0
	.fnstart
	.cfi_startproc
@ %bb.0:
	@DEBUG_VALUE: HAL_TIMEx_HallSensor_Stop:htim <- $r0
	.save	{r4, lr}
	push	{r4, lr}
	.cfi_def_cfa_offset 8
	.cfi_offset lr, -4
	.cfi_offset r4, -8
	mov	r4, r0
.Ltmp44:
	@DEBUG_VALUE: HAL_TIMEx_HallSensor_Stop:htim <- $r4
	.loc	7 376 27 prologue_end           @ ../Library/STM32F4xx_HAL_Driver/Src/stm32f4xx_hal_tim_ex.c:376:27
	ldr	r0, [r0]
	.loc	7 376 3 is_stmt 0               @ ../Library/STM32F4xx_HAL_Driver/Src/stm32f4xx_hal_tim_ex.c:376:3
	movs	r1, #0
	movs	r2, #0
	bl	TIM_CCxChannelCmd
.Ltmp45:
	.loc	7 379 3 is_stmt 1               @ ../Library/STM32F4xx_HAL_Driver/Src/stm32f4xx_hal_tim_ex.c:379:3
	ldr	r0, [r4]
	movw	r2, #4369
	ldr	r1, [r0, #32]
.Ltmp46:
	.loc	7 379 3 is_stmt 0               @ ../Library/STM32F4xx_HAL_Driver/Src/stm32f4xx_hal_tim_ex.c:379:3
	tst	r1, r2
	bne	.LBB5_3
.Ltmp47:
@ %bb.1:
	@DEBUG_VALUE: HAL_TIMEx_HallSensor_Stop:htim <- $r4
	.loc	7 379 3                         @ ../Library/STM32F4xx_HAL_Driver/Src/stm32f4xx_hal_tim_ex.c:379:3
	ldr	r1, [r0, #32]
	movw	r2, #1092
.Ltmp48:
	.loc	7 379 3                         @ ../Library/STM32F4xx_HAL_Driver/Src/stm32f4xx_hal_tim_ex.c:379:3
	tst	r1, r2
	bne	.LBB5_3
.Ltmp49:
@ %bb.2:
	@DEBUG_VALUE: HAL_TIMEx_HallSensor_Stop:htim <- $r4
	.loc	7 379 3                         @ ../Library/STM32F4xx_HAL_Driver/Src/stm32f4xx_hal_tim_ex.c:379:3
	ldr	r1, [r0]
	bic	r1, r1, #1
	str	r1, [r0]
.Ltmp50:
.LBB5_3:
	@DEBUG_VALUE: HAL_TIMEx_HallSensor_Stop:htim <- $r4
	.loc	7 0 3                           @ ../Library/STM32F4xx_HAL_Driver/Src/stm32f4xx_hal_tim_ex.c:0:3
	movs	r1, #1
	.loc	7 388 3 is_stmt 1               @ ../Library/STM32F4xx_HAL_Driver/Src/stm32f4xx_hal_tim_ex.c:388:3
	movs	r0, #0
	.loc	7 382 3                         @ ../Library/STM32F4xx_HAL_Driver/Src/stm32f4xx_hal_tim_ex.c:382:3
	strb.w	r1, [r4, #62]
	.loc	7 383 3                         @ ../Library/STM32F4xx_HAL_Driver/Src/stm32f4xx_hal_tim_ex.c:383:3
	strb.w	r1, [r4, #63]
	.loc	7 384 3                         @ ../Library/STM32F4xx_HAL_Driver/Src/stm32f4xx_hal_tim_ex.c:384:3
	strb.w	r1, [r4, #66]
	.loc	7 385 3                         @ ../Library/STM32F4xx_HAL_Driver/Src/stm32f4xx_hal_tim_ex.c:385:3
	strb.w	r1, [r4, #67]
	.loc	7 388 3                         @ ../Library/STM32F4xx_HAL_Driver/Src/stm32f4xx_hal_tim_ex.c:388:3
	pop	{r4, pc}
.Ltmp51:
.Lfunc_end5:
	.size	HAL_TIMEx_HallSensor_Stop, .Lfunc_end5-HAL_TIMEx_HallSensor_Stop
	.cfi_endproc
	.cantunwind
	.fnend
                                        @ -- End function
	.section	.text.HAL_TIMEx_HallSensor_Start_IT,"ax",%progbits
	.hidden	HAL_TIMEx_HallSensor_Start_IT   @ -- Begin function HAL_TIMEx_HallSensor_Start_IT
	.globl	HAL_TIMEx_HallSensor_Start_IT
	.p2align	1
	.type	HAL_TIMEx_HallSensor_Start_IT,%function
	.code	16                              @ @HAL_TIMEx_HallSensor_Start_IT
	.thumb_func
HAL_TIMEx_HallSensor_Start_IT:
.Lfunc_begin6:
	.loc	7 397 0                         @ ../Library/STM32F4xx_HAL_Driver/Src/stm32f4xx_hal_tim_ex.c:397:0
	.fnstart
	.cfi_startproc
@ %bb.0:
	@DEBUG_VALUE: HAL_TIMEx_HallSensor_Start_IT:htim <- $r0
	.save	{r4, lr}
	push	{r4, lr}
	.cfi_def_cfa_offset 8
	.cfi_offset lr, -4
	.cfi_offset r4, -8
	mov	r4, r0
.Ltmp52:
	@DEBUG_VALUE: HAL_TIMEx_HallSensor_Start_IT:htim <- $r4
	.loc	7 399 49 prologue_end           @ ../Library/STM32F4xx_HAL_Driver/Src/stm32f4xx_hal_tim_ex.c:399:49
	ldrb.w	r0, [r0, #62]
.Ltmp53:
	@DEBUG_VALUE: HAL_TIMEx_HallSensor_Start_IT:channel_1_state <- $r0
	.loc	7 400 49                        @ ../Library/STM32F4xx_HAL_Driver/Src/stm32f4xx_hal_tim_ex.c:400:49
	ldrb.w	r3, [r4, #63]
.Ltmp54:
	@DEBUG_VALUE: HAL_TIMEx_HallSensor_Start_IT:channel_2_state <- undef
	.loc	7 401 63                        @ ../Library/STM32F4xx_HAL_Driver/Src/stm32f4xx_hal_tim_ex.c:401:63
	ldrb.w	r2, [r4, #66]
.Ltmp55:
	@DEBUG_VALUE: HAL_TIMEx_HallSensor_Start_IT:complementary_channel_1_state <- undef
	.loc	7 402 63                        @ ../Library/STM32F4xx_HAL_Driver/Src/stm32f4xx_hal_tim_ex.c:402:63
	ldrb.w	r1, [r4, #67]
.Ltmp56:
	.loc	7 409 7                         @ ../Library/STM32F4xx_HAL_Driver/Src/stm32f4xx_hal_tim_ex.c:409:7
	cmp	r0, #1
	mov.w	r0, #1
.Ltmp57:
	@DEBUG_VALUE: HAL_TIMEx_HallSensor_Start_IT:complementary_channel_2_state <- undef
	it	eq
	cmpeq	r3, #1
	beq	.LBB6_2
.Ltmp58:
.LBB6_1:
	@DEBUG_VALUE: HAL_TIMEx_HallSensor_Start_IT:htim <- $r4
	.loc	7 446 1                         @ ../Library/STM32F4xx_HAL_Driver/Src/stm32f4xx_hal_tim_ex.c:446:1
	pop	{r4, pc}
.Ltmp59:
.LBB6_2:
	@DEBUG_VALUE: HAL_TIMEx_HallSensor_Start_IT:htim <- $r4
	.loc	7 409 7                         @ ../Library/STM32F4xx_HAL_Driver/Src/stm32f4xx_hal_tim_ex.c:409:7
	cmp	r2, #1
	bne	.LBB6_1
.Ltmp60:
@ %bb.3:
	@DEBUG_VALUE: HAL_TIMEx_HallSensor_Start_IT:htim <- $r4
	cmp	r1, #1
.Ltmp61:
	.loc	7 446 1                         @ ../Library/STM32F4xx_HAL_Driver/Src/stm32f4xx_hal_tim_ex.c:446:1
	it	ne
	popne	{r4, pc}
.Ltmp62:
.LBB6_4:
	.loc	7 0 1 is_stmt 0                 @ ../Library/STM32F4xx_HAL_Driver/Src/stm32f4xx_hal_tim_ex.c:0:1
	movs	r0, #2
	.loc	7 417 3 is_stmt 1               @ ../Library/STM32F4xx_HAL_Driver/Src/stm32f4xx_hal_tim_ex.c:417:3
	strb.w	r0, [r4, #62]
	.loc	7 418 3                         @ ../Library/STM32F4xx_HAL_Driver/Src/stm32f4xx_hal_tim_ex.c:418:3
	strb.w	r0, [r4, #63]
	.loc	7 419 3                         @ ../Library/STM32F4xx_HAL_Driver/Src/stm32f4xx_hal_tim_ex.c:419:3
	strb.w	r0, [r4, #66]
	.loc	7 420 3                         @ ../Library/STM32F4xx_HAL_Driver/Src/stm32f4xx_hal_tim_ex.c:420:3
	strb.w	r0, [r4, #67]
	.loc	7 423 3                         @ ../Library/STM32F4xx_HAL_Driver/Src/stm32f4xx_hal_tim_ex.c:423:3
	ldr	r0, [r4]
	.loc	7 428 3                         @ ../Library/STM32F4xx_HAL_Driver/Src/stm32f4xx_hal_tim_ex.c:428:3
	movs	r2, #1
	.loc	7 423 3                         @ ../Library/STM32F4xx_HAL_Driver/Src/stm32f4xx_hal_tim_ex.c:423:3
	ldr	r1, [r0, #12]
	orr	r1, r1, #2
	str	r1, [r0, #12]
	.loc	7 428 3                         @ ../Library/STM32F4xx_HAL_Driver/Src/stm32f4xx_hal_tim_ex.c:428:3
	movs	r1, #0
	bl	TIM_CCxChannelCmd
.Ltmp63:
	.loc	7 431 7                         @ ../Library/STM32F4xx_HAL_Driver/Src/stm32f4xx_hal_tim_ex.c:431:7
	ldr	r0, [r4]
	movw	r1, #6143
	movt	r1, #16384
	cmp	r0, r1
	bgt	.LBB6_8
@ %bb.5:
	.loc	7 0 7 is_stmt 0                 @ ../Library/STM32F4xx_HAL_Driver/Src/stm32f4xx_hal_tim_ex.c:0:7
	movw	r1, #2047
	movt	r1, #16384
	.loc	7 431 7                         @ ../Library/STM32F4xx_HAL_Driver/Src/stm32f4xx_hal_tim_ex.c:431:7
	cmp	r0, r1
	bgt	.LBB6_11
@ %bb.6:
	cmp.w	r0, #1073741824
	beq	.LBB6_18
@ %bb.7:
	.loc	7 0 7                           @ ../Library/STM32F4xx_HAL_Driver/Src/stm32f4xx_hal_tim_ex.c:0:7
	movw	r1, #1024
	b	.LBB6_13
.LBB6_8:
	movw	r1, #1023
	movt	r1, #16385
	.loc	7 431 7                         @ ../Library/STM32F4xx_HAL_Driver/Src/stm32f4xx_hal_tim_ex.c:431:7
	cmp	r0, r1
	bgt	.LBB6_14
@ %bb.9:
	.loc	7 0 7                           @ ../Library/STM32F4xx_HAL_Driver/Src/stm32f4xx_hal_tim_ex.c:0:7
	movw	r1, #6144
	movt	r1, #16384
	.loc	7 431 7                         @ ../Library/STM32F4xx_HAL_Driver/Src/stm32f4xx_hal_tim_ex.c:431:7
	cmp	r0, r1
	beq	.LBB6_18
@ %bb.10:
	.loc	7 0 7                           @ ../Library/STM32F4xx_HAL_Driver/Src/stm32f4xx_hal_tim_ex.c:0:7
	movs	r1, #0
	b	.LBB6_16
.LBB6_11:
	movw	r1, #2048
	movt	r1, #16384
	.loc	7 431 7                         @ ../Library/STM32F4xx_HAL_Driver/Src/stm32f4xx_hal_tim_ex.c:431:7
	cmp	r0, r1
	beq	.LBB6_18
@ %bb.12:
	.loc	7 0 7                           @ ../Library/STM32F4xx_HAL_Driver/Src/stm32f4xx_hal_tim_ex.c:0:7
	movw	r1, #3072
.LBB6_13:
	movt	r1, #16384
	b	.LBB6_17
.LBB6_14:
	movw	r1, #16384
	movt	r1, #16385
	.loc	7 431 7                         @ ../Library/STM32F4xx_HAL_Driver/Src/stm32f4xx_hal_tim_ex.c:431:7
	cmp	r0, r1
	beq	.LBB6_18
@ %bb.15:
	.loc	7 0 7                           @ ../Library/STM32F4xx_HAL_Driver/Src/stm32f4xx_hal_tim_ex.c:0:7
	movw	r1, #1024
.LBB6_16:
	movt	r1, #16385
.LBB6_17:
	.loc	7 431 7                         @ ../Library/STM32F4xx_HAL_Driver/Src/stm32f4xx_hal_tim_ex.c:431:7
	cmp	r0, r1
	bne	.LBB6_19
.LBB6_18:
.Ltmp64:
	.loc	7 433 31 is_stmt 1              @ ../Library/STM32F4xx_HAL_Driver/Src/stm32f4xx_hal_tim_ex.c:433:31
	ldr	r1, [r0, #8]
	.loc	7 433 36 is_stmt 0              @ ../Library/STM32F4xx_HAL_Driver/Src/stm32f4xx_hal_tim_ex.c:433:36
	and	r1, r1, #7
.Ltmp65:
	@DEBUG_VALUE: HAL_TIMEx_HallSensor_Start_IT:tmpsmcr <- $r1
	.loc	7 434 9 is_stmt 1               @ ../Library/STM32F4xx_HAL_Driver/Src/stm32f4xx_hal_tim_ex.c:434:9
	cmp	r1, #6
	beq	.LBB6_20
.Ltmp66:
.LBB6_19:
	.loc	7 0 0 is_stmt 0                 @ ../Library/STM32F4xx_HAL_Driver/Src/stm32f4xx_hal_tim_ex.c:0:0
	ldr	r1, [r0]
	orr	r1, r1, #1
	str	r1, [r0]
.Ltmp67:
.LBB6_20:
	movs	r0, #0
	.loc	7 446 1 is_stmt 1               @ ../Library/STM32F4xx_HAL_Driver/Src/stm32f4xx_hal_tim_ex.c:446:1
	pop	{r4, pc}
.Ltmp68:
.Lfunc_end6:
	.size	HAL_TIMEx_HallSensor_Start_IT, .Lfunc_end6-HAL_TIMEx_HallSensor_Start_IT
	.cfi_endproc
	.cantunwind
	.fnend
                                        @ -- End function
	.section	.text.HAL_TIMEx_HallSensor_Stop_IT,"ax",%progbits
	.hidden	HAL_TIMEx_HallSensor_Stop_IT    @ -- Begin function HAL_TIMEx_HallSensor_Stop_IT
	.globl	HAL_TIMEx_HallSensor_Stop_IT
	.p2align	1
	.type	HAL_TIMEx_HallSensor_Stop_IT,%function
	.code	16                              @ @HAL_TIMEx_HallSensor_Stop_IT
	.thumb_func
HAL_TIMEx_HallSensor_Stop_IT:
.Lfunc_begin7:
	.loc	7 454 0                         @ ../Library/STM32F4xx_HAL_Driver/Src/stm32f4xx_hal_tim_ex.c:454:0
	.fnstart
	.cfi_startproc
@ %bb.0:
	@DEBUG_VALUE: HAL_TIMEx_HallSensor_Stop_IT:htim <- $r0
	.save	{r4, lr}
	push	{r4, lr}
	.cfi_def_cfa_offset 8
	.cfi_offset lr, -4
	.cfi_offset r4, -8
	mov	r4, r0
.Ltmp69:
	@DEBUG_VALUE: HAL_TIMEx_HallSensor_Stop_IT:htim <- $r4
	.loc	7 461 27 prologue_end           @ ../Library/STM32F4xx_HAL_Driver/Src/stm32f4xx_hal_tim_ex.c:461:27
	ldr	r0, [r0]
	.loc	7 461 3 is_stmt 0               @ ../Library/STM32F4xx_HAL_Driver/Src/stm32f4xx_hal_tim_ex.c:461:3
	movs	r1, #0
	movs	r2, #0
	bl	TIM_CCxChannelCmd
.Ltmp70:
	.loc	7 464 3 is_stmt 1               @ ../Library/STM32F4xx_HAL_Driver/Src/stm32f4xx_hal_tim_ex.c:464:3
	ldr	r0, [r4]
	movw	r2, #4369
	ldr	r1, [r0, #12]
	bic	r1, r1, #2
	str	r1, [r0, #12]
.Ltmp71:
	.loc	7 467 3                         @ ../Library/STM32F4xx_HAL_Driver/Src/stm32f4xx_hal_tim_ex.c:467:3
	ldr	r1, [r0, #32]
.Ltmp72:
	.loc	7 467 3 is_stmt 0               @ ../Library/STM32F4xx_HAL_Driver/Src/stm32f4xx_hal_tim_ex.c:467:3
	tst	r1, r2
	bne	.LBB7_3
.Ltmp73:
@ %bb.1:
	@DEBUG_VALUE: HAL_TIMEx_HallSensor_Stop_IT:htim <- $r4
	.loc	7 467 3                         @ ../Library/STM32F4xx_HAL_Driver/Src/stm32f4xx_hal_tim_ex.c:467:3
	ldr	r1, [r0, #32]
	movw	r2, #1092
.Ltmp74:
	.loc	7 467 3                         @ ../Library/STM32F4xx_HAL_Driver/Src/stm32f4xx_hal_tim_ex.c:467:3
	tst	r1, r2
	bne	.LBB7_3
.Ltmp75:
@ %bb.2:
	@DEBUG_VALUE: HAL_TIMEx_HallSensor_Stop_IT:htim <- $r4
	.loc	7 467 3                         @ ../Library/STM32F4xx_HAL_Driver/Src/stm32f4xx_hal_tim_ex.c:467:3
	ldr	r1, [r0]
	bic	r1, r1, #1
	str	r1, [r0]
.Ltmp76:
.LBB7_3:
	@DEBUG_VALUE: HAL_TIMEx_HallSensor_Stop_IT:htim <- $r4
	.loc	7 0 3                           @ ../Library/STM32F4xx_HAL_Driver/Src/stm32f4xx_hal_tim_ex.c:0:3
	movs	r1, #1
	.loc	7 476 3 is_stmt 1               @ ../Library/STM32F4xx_HAL_Driver/Src/stm32f4xx_hal_tim_ex.c:476:3
	movs	r0, #0
	.loc	7 470 3                         @ ../Library/STM32F4xx_HAL_Driver/Src/stm32f4xx_hal_tim_ex.c:470:3
	strb.w	r1, [r4, #62]
	.loc	7 471 3                         @ ../Library/STM32F4xx_HAL_Driver/Src/stm32f4xx_hal_tim_ex.c:471:3
	strb.w	r1, [r4, #63]
	.loc	7 472 3                         @ ../Library/STM32F4xx_HAL_Driver/Src/stm32f4xx_hal_tim_ex.c:472:3
	strb.w	r1, [r4, #66]
	.loc	7 473 3                         @ ../Library/STM32F4xx_HAL_Driver/Src/stm32f4xx_hal_tim_ex.c:473:3
	strb.w	r1, [r4, #67]
	.loc	7 476 3                         @ ../Library/STM32F4xx_HAL_Driver/Src/stm32f4xx_hal_tim_ex.c:476:3
	pop	{r4, pc}
.Ltmp77:
.Lfunc_end7:
	.size	HAL_TIMEx_HallSensor_Stop_IT, .Lfunc_end7-HAL_TIMEx_HallSensor_Stop_IT
	.cfi_endproc
	.cantunwind
	.fnend
                                        @ -- End function
	.section	.text.HAL_TIMEx_HallSensor_Start_DMA,"ax",%progbits
	.hidden	HAL_TIMEx_HallSensor_Start_DMA  @ -- Begin function HAL_TIMEx_HallSensor_Start_DMA
	.globl	HAL_TIMEx_HallSensor_Start_DMA
	.p2align	1
	.type	HAL_TIMEx_HallSensor_Start_DMA,%function
	.code	16                              @ @HAL_TIMEx_HallSensor_Start_DMA
	.thumb_func
HAL_TIMEx_HallSensor_Start_DMA:
.Lfunc_begin8:
	.loc	7 487 0                         @ ../Library/STM32F4xx_HAL_Driver/Src/stm32f4xx_hal_tim_ex.c:487:0
	.fnstart
	.cfi_startproc
@ %bb.0:
	@DEBUG_VALUE: HAL_TIMEx_HallSensor_Start_DMA:htim <- $r0
	@DEBUG_VALUE: HAL_TIMEx_HallSensor_Start_DMA:pData <- $r1
	@DEBUG_VALUE: HAL_TIMEx_HallSensor_Start_DMA:Length <- $r2
	.save	{r4, r5, r6, r7, lr}
	push	{r4, r5, r6, r7, lr}
	.cfi_def_cfa_offset 20
	.cfi_offset lr, -4
	.cfi_offset r7, -8
	.cfi_offset r6, -12
	.cfi_offset r5, -16
	.cfi_offset r4, -20
	.pad	#4
	sub	sp, #4
	.cfi_def_cfa_offset 24
	mov	r7, r1
.Ltmp78:
	@DEBUG_VALUE: HAL_TIMEx_HallSensor_Start_DMA:pData <- $r7
	.loc	7 489 49 prologue_end           @ ../Library/STM32F4xx_HAL_Driver/Src/stm32f4xx_hal_tim_ex.c:489:49
	ldrb.w	r1, [r0, #62]
.Ltmp79:
	@DEBUG_VALUE: HAL_TIMEx_HallSensor_Start_DMA:channel_1_state <- $r1
	.loc	7 0 49 is_stmt 0                @ ../Library/STM32F4xx_HAL_Driver/Src/stm32f4xx_hal_tim_ex.c:0:49
	mov	r4, r0
	@DEBUG_VALUE: HAL_TIMEx_HallSensor_Start_DMA:Length <- $r2
	@DEBUG_VALUE: HAL_TIMEx_HallSensor_Start_DMA:pData <- $r7
.Ltmp80:
	@DEBUG_VALUE: HAL_TIMEx_HallSensor_Start_DMA:htim <- $r4
	.loc	7 490 63 is_stmt 1              @ ../Library/STM32F4xx_HAL_Driver/Src/stm32f4xx_hal_tim_ex.c:490:63
	ldrb.w	r0, [r0, #66]
.Ltmp81:
	.loc	7 497 7                         @ ../Library/STM32F4xx_HAL_Driver/Src/stm32f4xx_hal_tim_ex.c:497:7
	cmp	r1, #2
	mov.w	r5, #2
.Ltmp82:
	@DEBUG_VALUE: HAL_TIMEx_HallSensor_Start_DMA:complementary_channel_1_state <- undef
	@DEBUG_VALUE: HAL_TIMEx_HallSensor_Start_DMA:Length <- $r2
	@DEBUG_VALUE: HAL_TIMEx_HallSensor_Start_DMA:Length <- $r2
	it	ne
	cmpne	r0, #2
	beq	.LBB8_2
.Ltmp83:
@ %bb.1:
	@DEBUG_VALUE: HAL_TIMEx_HallSensor_Start_DMA:pData <- $r7
	@DEBUG_VALUE: HAL_TIMEx_HallSensor_Start_DMA:htim <- $r4
	@DEBUG_VALUE: HAL_TIMEx_HallSensor_Start_DMA:Length <- $r2
	@DEBUG_VALUE: HAL_TIMEx_HallSensor_Start_DMA:channel_1_state <- $r1
	@DEBUG_VALUE: HAL_TIMEx_HallSensor_Start_DMA:Length <- $r2
	@DEBUG_VALUE: HAL_TIMEx_HallSensor_Start_DMA:Length <- $r2
	@DEBUG_VALUE: HAL_TIMEx_HallSensor_Start_DMA:Length <- $r2
	.loc	7 502 12                        @ ../Library/STM32F4xx_HAL_Driver/Src/stm32f4xx_hal_tim_ex.c:502:12
	cmp	r1, #1
	mov.w	r5, #1
	@DEBUG_VALUE: HAL_TIMEx_HallSensor_Start_DMA:Length <- $r2
	@DEBUG_VALUE: HAL_TIMEx_HallSensor_Start_DMA:Length <- $r2
	@DEBUG_VALUE: HAL_TIMEx_HallSensor_Start_DMA:Length <- $r2
	@DEBUG_VALUE: HAL_TIMEx_HallSensor_Start_DMA:Length <- $r2
	it	eq
	cmpeq	r0, #1
	beq	.LBB8_3
.Ltmp84:
.LBB8_2:
	@DEBUG_VALUE: HAL_TIMEx_HallSensor_Start_DMA:pData <- $r7
	@DEBUG_VALUE: HAL_TIMEx_HallSensor_Start_DMA:htim <- $r4
	.loc	7 555 1                         @ ../Library/STM32F4xx_HAL_Driver/Src/stm32f4xx_hal_tim_ex.c:555:1
	mov	r0, r5
	add	sp, #4
	pop	{r4, r5, r6, r7, pc}
.Ltmp85:
.LBB8_3:
	@DEBUG_VALUE: HAL_TIMEx_HallSensor_Start_DMA:pData <- $r7
	@DEBUG_VALUE: HAL_TIMEx_HallSensor_Start_DMA:htim <- $r4
	@DEBUG_VALUE: HAL_TIMEx_HallSensor_Start_DMA:Length <- $r2
	@DEBUG_VALUE: HAL_TIMEx_HallSensor_Start_DMA:channel_1_state <- $r1
	.loc	7 0 1 is_stmt 0                 @ ../Library/STM32F4xx_HAL_Driver/Src/stm32f4xx_hal_tim_ex.c:0:1
	mov	r6, r2
.Ltmp86:
	@DEBUG_VALUE: HAL_TIMEx_HallSensor_Start_DMA:Length <- $r6
	@DEBUG_VALUE: HAL_TIMEx_HallSensor_Start_DMA:Length <- $r6
	@DEBUG_VALUE: HAL_TIMEx_HallSensor_Start_DMA:Length <- $r6
	@DEBUG_VALUE: HAL_TIMEx_HallSensor_Start_DMA:Length <- $r6
	@DEBUG_VALUE: HAL_TIMEx_HallSensor_Start_DMA:Length <- $r6
	@DEBUG_VALUE: HAL_TIMEx_HallSensor_Start_DMA:Length <- $r6
	.loc	7 504 25 is_stmt 1              @ ../Library/STM32F4xx_HAL_Driver/Src/stm32f4xx_hal_tim_ex.c:504:25
	cbnz	r7, .LBB8_6
.Ltmp87:
@ %bb.4:
	@DEBUG_VALUE: HAL_TIMEx_HallSensor_Start_DMA:pData <- $r7
	@DEBUG_VALUE: HAL_TIMEx_HallSensor_Start_DMA:Length <- $r6
	@DEBUG_VALUE: HAL_TIMEx_HallSensor_Start_DMA:htim <- $r4
	@DEBUG_VALUE: HAL_TIMEx_HallSensor_Start_DMA:channel_1_state <- $r1
	cbz	r6, .LBB8_6
.Ltmp88:
@ %bb.5:
	@DEBUG_VALUE: HAL_TIMEx_HallSensor_Start_DMA:pData <- $r7
	@DEBUG_VALUE: HAL_TIMEx_HallSensor_Start_DMA:Length <- $r6
	@DEBUG_VALUE: HAL_TIMEx_HallSensor_Start_DMA:htim <- $r4
	@DEBUG_VALUE: HAL_TIMEx_HallSensor_Start_DMA:channel_1_state <- $r1
	.loc	7 0 25 is_stmt 0                @ ../Library/STM32F4xx_HAL_Driver/Src/stm32f4xx_hal_tim_ex.c:0:25
	movs	r5, #1
	b	.LBB8_2
.Ltmp89:
.LBB8_6:
	@DEBUG_VALUE: HAL_TIMEx_HallSensor_Start_DMA:pData <- $r7
	@DEBUG_VALUE: HAL_TIMEx_HallSensor_Start_DMA:Length <- $r6
	@DEBUG_VALUE: HAL_TIMEx_HallSensor_Start_DMA:htim <- $r4
	@DEBUG_VALUE: HAL_TIMEx_HallSensor_Start_DMA:channel_1_state <- $r1
	@DEBUG_VALUE: HAL_TIMEx_HallSensor_Start_DMA:Length <- $r6
	movs	r0, #2
.Ltmp90:
	.loc	7 510 7 is_stmt 1               @ ../Library/STM32F4xx_HAL_Driver/Src/stm32f4xx_hal_tim_ex.c:510:7
	strb.w	r0, [r4, #62]
	.loc	7 511 7                         @ ../Library/STM32F4xx_HAL_Driver/Src/stm32f4xx_hal_tim_ex.c:511:7
	strb.w	r0, [r4, #66]
.Ltmp91:
	.loc	7 522 27                        @ ../Library/STM32F4xx_HAL_Driver/Src/stm32f4xx_hal_tim_ex.c:522:27
	ldr	r0, [r4]
	.loc	7 522 3 is_stmt 0               @ ../Library/STM32F4xx_HAL_Driver/Src/stm32f4xx_hal_tim_ex.c:522:3
	movs	r1, #0
.Ltmp92:
	movs	r2, #1
	movs	r5, #1
	bl	TIM_CCxChannelCmd
.Ltmp93:
	.loc	7 525 3 is_stmt 1               @ ../Library/STM32F4xx_HAL_Driver/Src/stm32f4xx_hal_tim_ex.c:525:3
	ldr	r0, [r4, #36]
	.loc	7 525 48 is_stmt 0              @ ../Library/STM32F4xx_HAL_Driver/Src/stm32f4xx_hal_tim_ex.c:525:48
	movw	r2, :lower16:TIM_DMACaptureCplt
	movt	r2, :upper16:TIM_DMACaptureCplt
	str	r2, [r0, #60]
	.loc	7 526 3 is_stmt 1               @ ../Library/STM32F4xx_HAL_Driver/Src/stm32f4xx_hal_tim_ex.c:526:3
	ldr	r0, [r4, #36]
	.loc	7 526 52 is_stmt 0              @ ../Library/STM32F4xx_HAL_Driver/Src/stm32f4xx_hal_tim_ex.c:526:52
	movw	r2, :lower16:TIM_DMACaptureHalfCplt
	movt	r2, :upper16:TIM_DMACaptureHalfCplt
	str	r2, [r0, #64]
	.loc	7 528 3 is_stmt 1               @ ../Library/STM32F4xx_HAL_Driver/Src/stm32f4xx_hal_tim_ex.c:528:3
	ldr	r0, [r4, #36]
	.loc	7 528 49 is_stmt 0              @ ../Library/STM32F4xx_HAL_Driver/Src/stm32f4xx_hal_tim_ex.c:528:49
	movw	r2, :lower16:TIM_DMAError
	movt	r2, :upper16:TIM_DMAError
.Ltmp94:
	.loc	7 531 69 is_stmt 1              @ ../Library/STM32F4xx_HAL_Driver/Src/stm32f4xx_hal_tim_ex.c:531:69
	ldr	r1, [r4]
.Ltmp95:
	.loc	7 528 49                        @ ../Library/STM32F4xx_HAL_Driver/Src/stm32f4xx_hal_tim_ex.c:528:49
	str	r2, [r0, #76]
.Ltmp96:
	.loc	7 531 24                        @ ../Library/STM32F4xx_HAL_Driver/Src/stm32f4xx_hal_tim_ex.c:531:24
	ldr	r0, [r4, #36]
	.loc	7 531 79 is_stmt 0              @ ../Library/STM32F4xx_HAL_Driver/Src/stm32f4xx_hal_tim_ex.c:531:79
	adds	r1, #52
	.loc	7 531 7                         @ ../Library/STM32F4xx_HAL_Driver/Src/stm32f4xx_hal_tim_ex.c:531:7
	mov	r2, r7
	mov	r3, r6
	bl	HAL_DMA_Start_IT
.Ltmp97:
	.loc	7 531 7                         @ ../Library/STM32F4xx_HAL_Driver/Src/stm32f4xx_hal_tim_ex.c:531:7
	cmp	r0, #0
	bne	.LBB8_2
.Ltmp98:
@ %bb.7:
	@DEBUG_VALUE: HAL_TIMEx_HallSensor_Start_DMA:pData <- $r7
	@DEBUG_VALUE: HAL_TIMEx_HallSensor_Start_DMA:Length <- $r6
	@DEBUG_VALUE: HAL_TIMEx_HallSensor_Start_DMA:htim <- $r4
	.loc	7 537 3 is_stmt 1               @ ../Library/STM32F4xx_HAL_Driver/Src/stm32f4xx_hal_tim_ex.c:537:3
	ldr	r0, [r4]
	movw	r2, #6143
	ldr	r1, [r0, #12]
	movt	r2, #16384
	orr	r1, r1, #512
.Ltmp99:
	.loc	7 540 7                         @ ../Library/STM32F4xx_HAL_Driver/Src/stm32f4xx_hal_tim_ex.c:540:7
	cmp	r0, r2
.Ltmp100:
	.loc	7 537 3                         @ ../Library/STM32F4xx_HAL_Driver/Src/stm32f4xx_hal_tim_ex.c:537:3
	str	r1, [r0, #12]
.Ltmp101:
	.loc	7 540 7                         @ ../Library/STM32F4xx_HAL_Driver/Src/stm32f4xx_hal_tim_ex.c:540:7
	bgt	.LBB8_11
.Ltmp102:
@ %bb.8:
	@DEBUG_VALUE: HAL_TIMEx_HallSensor_Start_DMA:pData <- $r7
	@DEBUG_VALUE: HAL_TIMEx_HallSensor_Start_DMA:Length <- $r6
	@DEBUG_VALUE: HAL_TIMEx_HallSensor_Start_DMA:htim <- $r4
	.loc	7 0 7 is_stmt 0                 @ ../Library/STM32F4xx_HAL_Driver/Src/stm32f4xx_hal_tim_ex.c:0:7
	movw	r1, #2047
	movt	r1, #16384
	.loc	7 540 7                         @ ../Library/STM32F4xx_HAL_Driver/Src/stm32f4xx_hal_tim_ex.c:540:7
	cmp	r0, r1
	bgt	.LBB8_14
.Ltmp103:
@ %bb.9:
	@DEBUG_VALUE: HAL_TIMEx_HallSensor_Start_DMA:pData <- $r7
	@DEBUG_VALUE: HAL_TIMEx_HallSensor_Start_DMA:Length <- $r6
	@DEBUG_VALUE: HAL_TIMEx_HallSensor_Start_DMA:htim <- $r4
	cmp.w	r0, #1073741824
	beq	.LBB8_21
.Ltmp104:
@ %bb.10:
	@DEBUG_VALUE: HAL_TIMEx_HallSensor_Start_DMA:pData <- $r7
	@DEBUG_VALUE: HAL_TIMEx_HallSensor_Start_DMA:Length <- $r6
	@DEBUG_VALUE: HAL_TIMEx_HallSensor_Start_DMA:htim <- $r4
	.loc	7 0 7                           @ ../Library/STM32F4xx_HAL_Driver/Src/stm32f4xx_hal_tim_ex.c:0:7
	movw	r1, #1024
	b	.LBB8_16
.Ltmp105:
.LBB8_11:
	@DEBUG_VALUE: HAL_TIMEx_HallSensor_Start_DMA:pData <- $r7
	@DEBUG_VALUE: HAL_TIMEx_HallSensor_Start_DMA:Length <- $r6
	@DEBUG_VALUE: HAL_TIMEx_HallSensor_Start_DMA:htim <- $r4
	movw	r1, #1023
	movt	r1, #16385
	.loc	7 540 7                         @ ../Library/STM32F4xx_HAL_Driver/Src/stm32f4xx_hal_tim_ex.c:540:7
	cmp	r0, r1
	bgt	.LBB8_17
.Ltmp106:
@ %bb.12:
	@DEBUG_VALUE: HAL_TIMEx_HallSensor_Start_DMA:pData <- $r7
	@DEBUG_VALUE: HAL_TIMEx_HallSensor_Start_DMA:Length <- $r6
	@DEBUG_VALUE: HAL_TIMEx_HallSensor_Start_DMA:htim <- $r4
	.loc	7 0 7                           @ ../Library/STM32F4xx_HAL_Driver/Src/stm32f4xx_hal_tim_ex.c:0:7
	movw	r1, #6144
	movt	r1, #16384
	.loc	7 540 7                         @ ../Library/STM32F4xx_HAL_Driver/Src/stm32f4xx_hal_tim_ex.c:540:7
	cmp	r0, r1
	beq	.LBB8_21
.Ltmp107:
@ %bb.13:
	@DEBUG_VALUE: HAL_TIMEx_HallSensor_Start_DMA:pData <- $r7
	@DEBUG_VALUE: HAL_TIMEx_HallSensor_Start_DMA:Length <- $r6
	@DEBUG_VALUE: HAL_TIMEx_HallSensor_Start_DMA:htim <- $r4
	.loc	7 0 7                           @ ../Library/STM32F4xx_HAL_Driver/Src/stm32f4xx_hal_tim_ex.c:0:7
	movs	r1, #0
	b	.LBB8_19
.Ltmp108:
.LBB8_14:
	@DEBUG_VALUE: HAL_TIMEx_HallSensor_Start_DMA:pData <- $r7
	@DEBUG_VALUE: HAL_TIMEx_HallSensor_Start_DMA:Length <- $r6
	@DEBUG_VALUE: HAL_TIMEx_HallSensor_Start_DMA:htim <- $r4
	movw	r1, #2048
	movt	r1, #16384
	.loc	7 540 7                         @ ../Library/STM32F4xx_HAL_Driver/Src/stm32f4xx_hal_tim_ex.c:540:7
	cmp	r0, r1
	beq	.LBB8_21
.Ltmp109:
@ %bb.15:
	@DEBUG_VALUE: HAL_TIMEx_HallSensor_Start_DMA:pData <- $r7
	@DEBUG_VALUE: HAL_TIMEx_HallSensor_Start_DMA:Length <- $r6
	@DEBUG_VALUE: HAL_TIMEx_HallSensor_Start_DMA:htim <- $r4
	.loc	7 0 7                           @ ../Library/STM32F4xx_HAL_Driver/Src/stm32f4xx_hal_tim_ex.c:0:7
	movw	r1, #3072
.Ltmp110:
.LBB8_16:
	@DEBUG_VALUE: HAL_TIMEx_HallSensor_Start_DMA:pData <- $r7
	@DEBUG_VALUE: HAL_TIMEx_HallSensor_Start_DMA:Length <- $r6
	@DEBUG_VALUE: HAL_TIMEx_HallSensor_Start_DMA:htim <- $r4
	movt	r1, #16384
	b	.LBB8_20
.Ltmp111:
.LBB8_17:
	@DEBUG_VALUE: HAL_TIMEx_HallSensor_Start_DMA:pData <- $r7
	@DEBUG_VALUE: HAL_TIMEx_HallSensor_Start_DMA:Length <- $r6
	@DEBUG_VALUE: HAL_TIMEx_HallSensor_Start_DMA:htim <- $r4
	movw	r1, #16384
	movt	r1, #16385
	.loc	7 540 7                         @ ../Library/STM32F4xx_HAL_Driver/Src/stm32f4xx_hal_tim_ex.c:540:7
	cmp	r0, r1
	beq	.LBB8_21
.Ltmp112:
@ %bb.18:
	@DEBUG_VALUE: HAL_TIMEx_HallSensor_Start_DMA:pData <- $r7
	@DEBUG_VALUE: HAL_TIMEx_HallSensor_Start_DMA:Length <- $r6
	@DEBUG_VALUE: HAL_TIMEx_HallSensor_Start_DMA:htim <- $r4
	.loc	7 0 7                           @ ../Library/STM32F4xx_HAL_Driver/Src/stm32f4xx_hal_tim_ex.c:0:7
	movw	r1, #1024
.Ltmp113:
.LBB8_19:
	@DEBUG_VALUE: HAL_TIMEx_HallSensor_Start_DMA:pData <- $r7
	@DEBUG_VALUE: HAL_TIMEx_HallSensor_Start_DMA:Length <- $r6
	@DEBUG_VALUE: HAL_TIMEx_HallSensor_Start_DMA:htim <- $r4
	movt	r1, #16385
.Ltmp114:
.LBB8_20:
	@DEBUG_VALUE: HAL_TIMEx_HallSensor_Start_DMA:pData <- $r7
	@DEBUG_VALUE: HAL_TIMEx_HallSensor_Start_DMA:Length <- $r6
	@DEBUG_VALUE: HAL_TIMEx_HallSensor_Start_DMA:htim <- $r4
	.loc	7 540 7                         @ ../Library/STM32F4xx_HAL_Driver/Src/stm32f4xx_hal_tim_ex.c:540:7
	cmp	r0, r1
	bne	.LBB8_22
.Ltmp115:
.LBB8_21:
	@DEBUG_VALUE: HAL_TIMEx_HallSensor_Start_DMA:pData <- $r7
	@DEBUG_VALUE: HAL_TIMEx_HallSensor_Start_DMA:Length <- $r6
	@DEBUG_VALUE: HAL_TIMEx_HallSensor_Start_DMA:htim <- $r4
	.loc	7 542 31 is_stmt 1              @ ../Library/STM32F4xx_HAL_Driver/Src/stm32f4xx_hal_tim_ex.c:542:31
	ldr	r1, [r0, #8]
	.loc	7 542 36 is_stmt 0              @ ../Library/STM32F4xx_HAL_Driver/Src/stm32f4xx_hal_tim_ex.c:542:36
	and	r1, r1, #7
.Ltmp116:
	@DEBUG_VALUE: HAL_TIMEx_HallSensor_Start_DMA:tmpsmcr <- $r1
	.loc	7 543 9 is_stmt 1               @ ../Library/STM32F4xx_HAL_Driver/Src/stm32f4xx_hal_tim_ex.c:543:9
	cmp	r1, #6
	beq	.LBB8_23
.Ltmp117:
.LBB8_22:
	@DEBUG_VALUE: HAL_TIMEx_HallSensor_Start_DMA:pData <- $r7
	@DEBUG_VALUE: HAL_TIMEx_HallSensor_Start_DMA:Length <- $r6
	@DEBUG_VALUE: HAL_TIMEx_HallSensor_Start_DMA:htim <- $r4
	.loc	7 0 0 is_stmt 0                 @ ../Library/STM32F4xx_HAL_Driver/Src/stm32f4xx_hal_tim_ex.c:0:0
	ldr	r1, [r0]
	orr	r1, r1, #1
	str	r1, [r0]
.Ltmp118:
.LBB8_23:
	@DEBUG_VALUE: HAL_TIMEx_HallSensor_Start_DMA:pData <- $r7
	@DEBUG_VALUE: HAL_TIMEx_HallSensor_Start_DMA:Length <- $r6
	@DEBUG_VALUE: HAL_TIMEx_HallSensor_Start_DMA:htim <- $r4
	movs	r5, #0
	b	.LBB8_2
.Lfunc_end8:
	.size	HAL_TIMEx_HallSensor_Start_DMA, .Lfunc_end8-HAL_TIMEx_HallSensor_Start_DMA
	.cfi_endproc
	.cantunwind
	.fnend
                                        @ -- End function
	.section	.text.HAL_TIMEx_HallSensor_Stop_DMA,"ax",%progbits
	.hidden	HAL_TIMEx_HallSensor_Stop_DMA   @ -- Begin function HAL_TIMEx_HallSensor_Stop_DMA
	.globl	HAL_TIMEx_HallSensor_Stop_DMA
	.p2align	1
	.type	HAL_TIMEx_HallSensor_Stop_DMA,%function
	.code	16                              @ @HAL_TIMEx_HallSensor_Stop_DMA
	.thumb_func
HAL_TIMEx_HallSensor_Stop_DMA:
.Lfunc_begin9:
	.loc	7 563 0 is_stmt 1               @ ../Library/STM32F4xx_HAL_Driver/Src/stm32f4xx_hal_tim_ex.c:563:0
	.fnstart
	.cfi_startproc
@ %bb.0:
	@DEBUG_VALUE: HAL_TIMEx_HallSensor_Stop_DMA:htim <- $r0
	.save	{r4, lr}
	push	{r4, lr}
	.cfi_def_cfa_offset 8
	.cfi_offset lr, -4
	.cfi_offset r4, -8
	mov	r4, r0
.Ltmp119:
	@DEBUG_VALUE: HAL_TIMEx_HallSensor_Stop_DMA:htim <- $r4
	.loc	7 570 27 prologue_end           @ ../Library/STM32F4xx_HAL_Driver/Src/stm32f4xx_hal_tim_ex.c:570:27
	ldr	r0, [r0]
	.loc	7 570 3 is_stmt 0               @ ../Library/STM32F4xx_HAL_Driver/Src/stm32f4xx_hal_tim_ex.c:570:3
	movs	r1, #0
	movs	r2, #0
	bl	TIM_CCxChannelCmd
.Ltmp120:
	.loc	7 574 3 is_stmt 1               @ ../Library/STM32F4xx_HAL_Driver/Src/stm32f4xx_hal_tim_ex.c:574:3
	ldr	r1, [r4]
	.loc	7 576 26                        @ ../Library/STM32F4xx_HAL_Driver/Src/stm32f4xx_hal_tim_ex.c:576:26
	ldr	r0, [r4, #36]
	.loc	7 574 3                         @ ../Library/STM32F4xx_HAL_Driver/Src/stm32f4xx_hal_tim_ex.c:574:3
	ldr	r2, [r1, #12]
	bic	r2, r2, #512
	str	r2, [r1, #12]
	.loc	7 576 9                         @ ../Library/STM32F4xx_HAL_Driver/Src/stm32f4xx_hal_tim_ex.c:576:9
	bl	HAL_DMA_Abort_IT
.Ltmp121:
	.loc	7 579 3                         @ ../Library/STM32F4xx_HAL_Driver/Src/stm32f4xx_hal_tim_ex.c:579:3
	ldr	r0, [r4]
	movw	r2, #4369
	ldr	r1, [r0, #32]
.Ltmp122:
	.loc	7 579 3 is_stmt 0               @ ../Library/STM32F4xx_HAL_Driver/Src/stm32f4xx_hal_tim_ex.c:579:3
	tst	r1, r2
	bne	.LBB9_3
.Ltmp123:
@ %bb.1:
	@DEBUG_VALUE: HAL_TIMEx_HallSensor_Stop_DMA:htim <- $r4
	.loc	7 579 3                         @ ../Library/STM32F4xx_HAL_Driver/Src/stm32f4xx_hal_tim_ex.c:579:3
	ldr	r1, [r0, #32]
	movw	r2, #1092
.Ltmp124:
	.loc	7 579 3                         @ ../Library/STM32F4xx_HAL_Driver/Src/stm32f4xx_hal_tim_ex.c:579:3
	tst	r1, r2
	bne	.LBB9_3
.Ltmp125:
@ %bb.2:
	@DEBUG_VALUE: HAL_TIMEx_HallSensor_Stop_DMA:htim <- $r4
	.loc	7 579 3                         @ ../Library/STM32F4xx_HAL_Driver/Src/stm32f4xx_hal_tim_ex.c:579:3
	ldr	r1, [r0]
	bic	r1, r1, #1
	str	r1, [r0]
.Ltmp126:
.LBB9_3:
	@DEBUG_VALUE: HAL_TIMEx_HallSensor_Stop_DMA:htim <- $r4
	.loc	7 0 3                           @ ../Library/STM32F4xx_HAL_Driver/Src/stm32f4xx_hal_tim_ex.c:0:3
	movs	r1, #1
	.loc	7 586 3 is_stmt 1               @ ../Library/STM32F4xx_HAL_Driver/Src/stm32f4xx_hal_tim_ex.c:586:3
	movs	r0, #0
	.loc	7 582 3                         @ ../Library/STM32F4xx_HAL_Driver/Src/stm32f4xx_hal_tim_ex.c:582:3
	strb.w	r1, [r4, #62]
	.loc	7 583 3                         @ ../Library/STM32F4xx_HAL_Driver/Src/stm32f4xx_hal_tim_ex.c:583:3
	strb.w	r1, [r4, #66]
	.loc	7 586 3                         @ ../Library/STM32F4xx_HAL_Driver/Src/stm32f4xx_hal_tim_ex.c:586:3
	pop	{r4, pc}
.Ltmp127:
.Lfunc_end9:
	.size	HAL_TIMEx_HallSensor_Stop_DMA, .Lfunc_end9-HAL_TIMEx_HallSensor_Stop_DMA
	.cfi_endproc
	.cantunwind
	.fnend
                                        @ -- End function
	.section	.text.HAL_TIMEx_OCN_Start,"ax",%progbits
	.hidden	HAL_TIMEx_OCN_Start             @ -- Begin function HAL_TIMEx_OCN_Start
	.globl	HAL_TIMEx_OCN_Start
	.p2align	1
	.type	HAL_TIMEx_OCN_Start,%function
	.code	16                              @ @HAL_TIMEx_OCN_Start
	.thumb_func
HAL_TIMEx_OCN_Start:
.Lfunc_begin10:
	.loc	7 625 0                         @ ../Library/STM32F4xx_HAL_Driver/Src/stm32f4xx_hal_tim_ex.c:625:0
	.fnstart
	.cfi_startproc
@ %bb.0:
	@DEBUG_VALUE: HAL_TIMEx_OCN_Start:htim <- $r0
	@DEBUG_VALUE: HAL_TIMEx_OCN_Start:Channel <- $r1
	@DEBUG_VALUE: HAL_TIMEx_OCN_Start:Channel <- $r1
	@DEBUG_VALUE: HAL_TIMEx_OCN_Start:htim <- $r0
	.loc	7 632 7 prologue_end            @ ../Library/STM32F4xx_HAL_Driver/Src/stm32f4xx_hal_tim_ex.c:632:7
	cbz	r1, .LBB10_3
.Ltmp128:
@ %bb.1:
	@DEBUG_VALUE: HAL_TIMEx_OCN_Start:Channel <- $r1
	@DEBUG_VALUE: HAL_TIMEx_OCN_Start:htim <- $r0
	cmp	r1, #8
	beq	.LBB10_5
.Ltmp129:
@ %bb.2:
	@DEBUG_VALUE: HAL_TIMEx_OCN_Start:Channel <- $r1
	@DEBUG_VALUE: HAL_TIMEx_OCN_Start:htim <- $r0
	cmp	r1, #4
	ite	ne
	addne.w	r2, r0, #69
	addeq.w	r2, r0, #67
	b	.LBB10_6
.Ltmp130:
.LBB10_3:
	@DEBUG_VALUE: HAL_TIMEx_OCN_Start:Channel <- $r1
	@DEBUG_VALUE: HAL_TIMEx_OCN_Start:htim <- $r0
	ldrb.w	r2, [r0, #66]
.Ltmp131:
	.loc	7 632 7 is_stmt 0               @ ../Library/STM32F4xx_HAL_Driver/Src/stm32f4xx_hal_tim_ex.c:632:7
	cmp	r2, #1
	bne	.LBB10_9
.Ltmp132:
@ %bb.4:
	@DEBUG_VALUE: HAL_TIMEx_OCN_Start:Channel <- $r1
	@DEBUG_VALUE: HAL_TIMEx_OCN_Start:htim <- $r0
	.loc	7 0 7                           @ ../Library/STM32F4xx_HAL_Driver/Src/stm32f4xx_hal_tim_ex.c:0:7
	movs	r2, #2
	.loc	7 638 3 is_stmt 1               @ ../Library/STM32F4xx_HAL_Driver/Src/stm32f4xx_hal_tim_ex.c:638:3
	strb.w	r2, [r0, #66]
	b	.LBB10_11
.Ltmp133:
.LBB10_5:
	@DEBUG_VALUE: HAL_TIMEx_OCN_Start:Channel <- $r1
	@DEBUG_VALUE: HAL_TIMEx_OCN_Start:htim <- $r0
	.loc	7 632 7                         @ ../Library/STM32F4xx_HAL_Driver/Src/stm32f4xx_hal_tim_ex.c:632:7
	add.w	r2, r0, #68
.Ltmp134:
.LBB10_6:
	@DEBUG_VALUE: HAL_TIMEx_OCN_Start:Channel <- $r1
	@DEBUG_VALUE: HAL_TIMEx_OCN_Start:htim <- $r0
	ldrb	r2, [r2]
.Ltmp135:
	.loc	7 632 7 is_stmt 0               @ ../Library/STM32F4xx_HAL_Driver/Src/stm32f4xx_hal_tim_ex.c:632:7
	cmp	r2, #1
	bne	.LBB10_9
.Ltmp136:
@ %bb.7:
	@DEBUG_VALUE: HAL_TIMEx_OCN_Start:Channel <- $r1
	@DEBUG_VALUE: HAL_TIMEx_OCN_Start:htim <- $r0
	.loc	7 0 7                           @ ../Library/STM32F4xx_HAL_Driver/Src/stm32f4xx_hal_tim_ex.c:0:7
	movs	r2, #2
	.loc	7 638 3 is_stmt 1               @ ../Library/STM32F4xx_HAL_Driver/Src/stm32f4xx_hal_tim_ex.c:638:3
	cmp	r1, #8
	beq	.LBB10_10
.Ltmp137:
@ %bb.8:
	@DEBUG_VALUE: HAL_TIMEx_OCN_Start:Channel <- $r1
	@DEBUG_VALUE: HAL_TIMEx_OCN_Start:htim <- $r0
	cmp	r1, #4
	ite	ne
	strbne.w	r2, [r0, #69]
	strbeq.w	r2, [r0, #67]
	b	.LBB10_11
.Ltmp138:
.LBB10_9:
	@DEBUG_VALUE: HAL_TIMEx_OCN_Start:Channel <- $r1
	@DEBUG_VALUE: HAL_TIMEx_OCN_Start:htim <- $r0
	.loc	7 0 3 is_stmt 0                 @ ../Library/STM32F4xx_HAL_Driver/Src/stm32f4xx_hal_tim_ex.c:0:3
	movs	r0, #1
.Ltmp139:
	@DEBUG_VALUE: HAL_TIMEx_OCN_Start:htim <- [DW_OP_LLVM_entry_value 1] $r0
	.loc	7 662 1 is_stmt 1               @ ../Library/STM32F4xx_HAL_Driver/Src/stm32f4xx_hal_tim_ex.c:662:1
	bx	lr
.Ltmp140:
.LBB10_10:
	@DEBUG_VALUE: HAL_TIMEx_OCN_Start:Channel <- $r1
	@DEBUG_VALUE: HAL_TIMEx_OCN_Start:htim <- $r0
	.loc	7 638 3                         @ ../Library/STM32F4xx_HAL_Driver/Src/stm32f4xx_hal_tim_ex.c:638:3
	strb.w	r2, [r0, #68]
.Ltmp141:
.LBB10_11:
	@DEBUG_VALUE: HAL_TIMEx_OCN_Start:Channel <- $r1
	@DEBUG_VALUE: HAL_TIMEx_OCN_Start:htim <- $r0
	.loc	7 641 28                        @ ../Library/STM32F4xx_HAL_Driver/Src/stm32f4xx_hal_tim_ex.c:641:28
	ldr	r0, [r0]
.Ltmp142:
	@DEBUG_VALUE: HAL_TIMEx_OCN_Start:htim <- [DW_OP_LLVM_entry_value 1] $r0
	@DEBUG_VALUE: TIM_CCxNChannelCmd:ChannelNState <- 4
	@DEBUG_VALUE: TIM_CCxNChannelCmd:Channel <- $r1
	@DEBUG_VALUE: TIM_CCxNChannelCmd:TIMx <- $r0
	.loc	7 2408 36                       @ ../Library/STM32F4xx_HAL_Driver/Src/stm32f4xx_hal_tim_ex.c:2408:36
	and	r1, r1, #31
.Ltmp143:
	@DEBUG_VALUE: HAL_TIMEx_OCN_Start:Channel <- [DW_OP_LLVM_entry_value 1] $r1
	.loc	7 0 36 is_stmt 0                @ ../Library/STM32F4xx_HAL_Driver/Src/stm32f4xx_hal_tim_ex.c:0:36
	movs	r2, #4
	.loc	7 2411 14 is_stmt 1             @ ../Library/STM32F4xx_HAL_Driver/Src/stm32f4xx_hal_tim_ex.c:2411:14
	ldr	r3, [r0, #32]
	.loc	7 2408 24                       @ ../Library/STM32F4xx_HAL_Driver/Src/stm32f4xx_hal_tim_ex.c:2408:24
	lsl.w	r1, r2, r1
.Ltmp144:
	@DEBUG_VALUE: TIM_CCxNChannelCmd:tmp <- $r1
	.loc	7 2411 14                       @ ../Library/STM32F4xx_HAL_Driver/Src/stm32f4xx_hal_tim_ex.c:2411:14
	bic.w	r2, r3, r1
	str	r2, [r0, #32]
	.loc	7 2414 14                       @ ../Library/STM32F4xx_HAL_Driver/Src/stm32f4xx_hal_tim_ex.c:2414:14
	ldr	r2, [r0, #32]
	orrs	r1, r2
.Ltmp145:
	str	r1, [r0, #32]
.Ltmp146:
	.loc	7 644 3                         @ ../Library/STM32F4xx_HAL_Driver/Src/stm32f4xx_hal_tim_ex.c:644:3
	ldr	r1, [r0, #68]
	movw	r2, #6143
	movt	r2, #16384
	orr	r1, r1, #32768
.Ltmp147:
	.loc	7 647 7                         @ ../Library/STM32F4xx_HAL_Driver/Src/stm32f4xx_hal_tim_ex.c:647:7
	cmp	r0, r2
.Ltmp148:
	.loc	7 644 3                         @ ../Library/STM32F4xx_HAL_Driver/Src/stm32f4xx_hal_tim_ex.c:644:3
	str	r1, [r0, #68]
.Ltmp149:
	.loc	7 647 7                         @ ../Library/STM32F4xx_HAL_Driver/Src/stm32f4xx_hal_tim_ex.c:647:7
	bgt	.LBB10_15
.Ltmp150:
@ %bb.12:
	@DEBUG_VALUE: HAL_TIMEx_OCN_Start:Channel <- [DW_OP_LLVM_entry_value 1] $r1
	@DEBUG_VALUE: HAL_TIMEx_OCN_Start:htim <- [DW_OP_LLVM_entry_value 1] $r0
	.loc	7 0 7 is_stmt 0                 @ ../Library/STM32F4xx_HAL_Driver/Src/stm32f4xx_hal_tim_ex.c:0:7
	movw	r1, #2047
	movt	r1, #16384
	.loc	7 647 7                         @ ../Library/STM32F4xx_HAL_Driver/Src/stm32f4xx_hal_tim_ex.c:647:7
	cmp	r0, r1
	bgt	.LBB10_18
.Ltmp151:
@ %bb.13:
	@DEBUG_VALUE: HAL_TIMEx_OCN_Start:Channel <- [DW_OP_LLVM_entry_value 1] $r1
	@DEBUG_VALUE: HAL_TIMEx_OCN_Start:htim <- [DW_OP_LLVM_entry_value 1] $r0
	cmp.w	r0, #1073741824
	beq	.LBB10_25
.Ltmp152:
@ %bb.14:
	@DEBUG_VALUE: HAL_TIMEx_OCN_Start:Channel <- [DW_OP_LLVM_entry_value 1] $r1
	@DEBUG_VALUE: HAL_TIMEx_OCN_Start:htim <- [DW_OP_LLVM_entry_value 1] $r0
	.loc	7 0 7                           @ ../Library/STM32F4xx_HAL_Driver/Src/stm32f4xx_hal_tim_ex.c:0:7
	movw	r1, #1024
	b	.LBB10_20
.Ltmp153:
.LBB10_15:
	@DEBUG_VALUE: HAL_TIMEx_OCN_Start:Channel <- [DW_OP_LLVM_entry_value 1] $r1
	@DEBUG_VALUE: HAL_TIMEx_OCN_Start:htim <- [DW_OP_LLVM_entry_value 1] $r0
	movw	r1, #1023
	movt	r1, #16385
	.loc	7 647 7                         @ ../Library/STM32F4xx_HAL_Driver/Src/stm32f4xx_hal_tim_ex.c:647:7
	cmp	r0, r1
	bgt	.LBB10_21
.Ltmp154:
@ %bb.16:
	@DEBUG_VALUE: HAL_TIMEx_OCN_Start:Channel <- [DW_OP_LLVM_entry_value 1] $r1
	@DEBUG_VALUE: HAL_TIMEx_OCN_Start:htim <- [DW_OP_LLVM_entry_value 1] $r0
	.loc	7 0 7                           @ ../Library/STM32F4xx_HAL_Driver/Src/stm32f4xx_hal_tim_ex.c:0:7
	movw	r1, #6144
	movt	r1, #16384
	.loc	7 647 7                         @ ../Library/STM32F4xx_HAL_Driver/Src/stm32f4xx_hal_tim_ex.c:647:7
	cmp	r0, r1
	beq	.LBB10_25
.Ltmp155:
@ %bb.17:
	@DEBUG_VALUE: HAL_TIMEx_OCN_Start:Channel <- [DW_OP_LLVM_entry_value 1] $r1
	@DEBUG_VALUE: HAL_TIMEx_OCN_Start:htim <- [DW_OP_LLVM_entry_value 1] $r0
	.loc	7 0 7                           @ ../Library/STM32F4xx_HAL_Driver/Src/stm32f4xx_hal_tim_ex.c:0:7
	movs	r1, #0
	b	.LBB10_23
.Ltmp156:
.LBB10_18:
	@DEBUG_VALUE: HAL_TIMEx_OCN_Start:Channel <- [DW_OP_LLVM_entry_value 1] $r1
	@DEBUG_VALUE: HAL_TIMEx_OCN_Start:htim <- [DW_OP_LLVM_entry_value 1] $r0
	movw	r1, #2048
	movt	r1, #16384
	.loc	7 647 7                         @ ../Library/STM32F4xx_HAL_Driver/Src/stm32f4xx_hal_tim_ex.c:647:7
	cmp	r0, r1
	beq	.LBB10_25
.Ltmp157:
@ %bb.19:
	@DEBUG_VALUE: HAL_TIMEx_OCN_Start:Channel <- [DW_OP_LLVM_entry_value 1] $r1
	@DEBUG_VALUE: HAL_TIMEx_OCN_Start:htim <- [DW_OP_LLVM_entry_value 1] $r0
	.loc	7 0 7                           @ ../Library/STM32F4xx_HAL_Driver/Src/stm32f4xx_hal_tim_ex.c:0:7
	movw	r1, #3072
.Ltmp158:
.LBB10_20:
	@DEBUG_VALUE: HAL_TIMEx_OCN_Start:Channel <- [DW_OP_LLVM_entry_value 1] $r1
	@DEBUG_VALUE: HAL_TIMEx_OCN_Start:htim <- [DW_OP_LLVM_entry_value 1] $r0
	movt	r1, #16384
	b	.LBB10_24
.Ltmp159:
.LBB10_21:
	@DEBUG_VALUE: HAL_TIMEx_OCN_Start:Channel <- [DW_OP_LLVM_entry_value 1] $r1
	@DEBUG_VALUE: HAL_TIMEx_OCN_Start:htim <- [DW_OP_LLVM_entry_value 1] $r0
	movw	r1, #16384
	movt	r1, #16385
	.loc	7 647 7                         @ ../Library/STM32F4xx_HAL_Driver/Src/stm32f4xx_hal_tim_ex.c:647:7
	cmp	r0, r1
	beq	.LBB10_25
.Ltmp160:
@ %bb.22:
	@DEBUG_VALUE: HAL_TIMEx_OCN_Start:Channel <- [DW_OP_LLVM_entry_value 1] $r1
	@DEBUG_VALUE: HAL_TIMEx_OCN_Start:htim <- [DW_OP_LLVM_entry_value 1] $r0
	.loc	7 0 7                           @ ../Library/STM32F4xx_HAL_Driver/Src/stm32f4xx_hal_tim_ex.c:0:7
	movw	r1, #1024
.Ltmp161:
.LBB10_23:
	@DEBUG_VALUE: HAL_TIMEx_OCN_Start:Channel <- [DW_OP_LLVM_entry_value 1] $r1
	@DEBUG_VALUE: HAL_TIMEx_OCN_Start:htim <- [DW_OP_LLVM_entry_value 1] $r0
	movt	r1, #16385
.Ltmp162:
.LBB10_24:
	@DEBUG_VALUE: HAL_TIMEx_OCN_Start:Channel <- [DW_OP_LLVM_entry_value 1] $r1
	@DEBUG_VALUE: HAL_TIMEx_OCN_Start:htim <- [DW_OP_LLVM_entry_value 1] $r0
	.loc	7 647 7                         @ ../Library/STM32F4xx_HAL_Driver/Src/stm32f4xx_hal_tim_ex.c:647:7
	cmp	r0, r1
	bne	.LBB10_26
.Ltmp163:
.LBB10_25:
	@DEBUG_VALUE: HAL_TIMEx_OCN_Start:Channel <- [DW_OP_LLVM_entry_value 1] $r1
	@DEBUG_VALUE: HAL_TIMEx_OCN_Start:htim <- [DW_OP_LLVM_entry_value 1] $r0
	.loc	7 649 31 is_stmt 1              @ ../Library/STM32F4xx_HAL_Driver/Src/stm32f4xx_hal_tim_ex.c:649:31
	ldr	r1, [r0, #8]
	.loc	7 649 36 is_stmt 0              @ ../Library/STM32F4xx_HAL_Driver/Src/stm32f4xx_hal_tim_ex.c:649:36
	and	r1, r1, #7
.Ltmp164:
	@DEBUG_VALUE: HAL_TIMEx_OCN_Start:tmpsmcr <- $r1
	.loc	7 650 9 is_stmt 1               @ ../Library/STM32F4xx_HAL_Driver/Src/stm32f4xx_hal_tim_ex.c:650:9
	cmp	r1, #6
	beq	.LBB10_27
.Ltmp165:
.LBB10_26:
	@DEBUG_VALUE: HAL_TIMEx_OCN_Start:Channel <- [DW_OP_LLVM_entry_value 1] $r1
	@DEBUG_VALUE: HAL_TIMEx_OCN_Start:htim <- [DW_OP_LLVM_entry_value 1] $r0
	.loc	7 0 0 is_stmt 0                 @ ../Library/STM32F4xx_HAL_Driver/Src/stm32f4xx_hal_tim_ex.c:0:0
	ldr	r1, [r0]
	orr	r1, r1, #1
	str	r1, [r0]
.Ltmp166:
.LBB10_27:
	@DEBUG_VALUE: HAL_TIMEx_OCN_Start:Channel <- [DW_OP_LLVM_entry_value 1] $r1
	@DEBUG_VALUE: HAL_TIMEx_OCN_Start:htim <- [DW_OP_LLVM_entry_value 1] $r0
	movs	r0, #0
	.loc	7 662 1 is_stmt 1               @ ../Library/STM32F4xx_HAL_Driver/Src/stm32f4xx_hal_tim_ex.c:662:1
	bx	lr
.Ltmp167:
.Lfunc_end10:
	.size	HAL_TIMEx_OCN_Start, .Lfunc_end10-HAL_TIMEx_OCN_Start
	.cfi_endproc
	.cantunwind
	.fnend
                                        @ -- End function
	.section	.text.HAL_TIMEx_OCN_Stop,"ax",%progbits
	.hidden	HAL_TIMEx_OCN_Stop              @ -- Begin function HAL_TIMEx_OCN_Stop
	.globl	HAL_TIMEx_OCN_Stop
	.p2align	1
	.type	HAL_TIMEx_OCN_Stop,%function
	.code	16                              @ @HAL_TIMEx_OCN_Stop
	.thumb_func
HAL_TIMEx_OCN_Stop:
.Lfunc_begin11:
	.loc	7 676 0                         @ ../Library/STM32F4xx_HAL_Driver/Src/stm32f4xx_hal_tim_ex.c:676:0
	.fnstart
	.cfi_startproc
@ %bb.0:
	@DEBUG_VALUE: HAL_TIMEx_OCN_Stop:htim <- $r0
	@DEBUG_VALUE: HAL_TIMEx_OCN_Stop:htim <- $r0
	@DEBUG_VALUE: HAL_TIMEx_OCN_Stop:Channel <- $r1
	@DEBUG_VALUE: HAL_TIMEx_OCN_Stop:Channel <- $r1
	.save	{r4, lr}
	push	{r4, lr}
	.cfi_def_cfa_offset 8
	.cfi_offset lr, -4
	.cfi_offset r4, -8
.Ltmp168:
	.loc	7 681 28 prologue_end           @ ../Library/STM32F4xx_HAL_Driver/Src/stm32f4xx_hal_tim_ex.c:681:28
	ldr	r2, [r0]
.Ltmp169:
	@DEBUG_VALUE: TIM_CCxNChannelCmd:ChannelNState <- 0
	@DEBUG_VALUE: TIM_CCxNChannelCmd:Channel <- $r1
	@DEBUG_VALUE: TIM_CCxNChannelCmd:TIMx <- $r2
	.loc	7 2408 36                       @ ../Library/STM32F4xx_HAL_Driver/Src/stm32f4xx_hal_tim_ex.c:2408:36
	and	lr, r1, #31
	mov.w	r12, #4
	.loc	7 2411 14                       @ ../Library/STM32F4xx_HAL_Driver/Src/stm32f4xx_hal_tim_ex.c:2411:14
	ldr	r4, [r2, #32]
	.loc	7 2408 24                       @ ../Library/STM32F4xx_HAL_Driver/Src/stm32f4xx_hal_tim_ex.c:2408:24
	lsl.w	r3, r12, lr
.Ltmp170:
	@DEBUG_VALUE: TIM_CCxNChannelCmd:tmp <- $r3
	.loc	7 2411 14                       @ ../Library/STM32F4xx_HAL_Driver/Src/stm32f4xx_hal_tim_ex.c:2411:14
	bic.w	r3, r4, r3
.Ltmp171:
	str	r3, [r2, #32]
	.loc	7 2414 14                       @ ../Library/STM32F4xx_HAL_Driver/Src/stm32f4xx_hal_tim_ex.c:2414:14
	ldr	r3, [r2, #32]
	str	r3, [r2, #32]
.Ltmp172:
	.loc	7 684 3                         @ ../Library/STM32F4xx_HAL_Driver/Src/stm32f4xx_hal_tim_ex.c:684:3
	ldr	r4, [r2, #32]
	movw	r3, #4369
.Ltmp173:
	.loc	7 684 3 is_stmt 0               @ ../Library/STM32F4xx_HAL_Driver/Src/stm32f4xx_hal_tim_ex.c:684:3
	tst	r4, r3
	bne	.LBB11_3
.Ltmp174:
@ %bb.1:
	@DEBUG_VALUE: HAL_TIMEx_OCN_Stop:Channel <- $r1
	@DEBUG_VALUE: HAL_TIMEx_OCN_Stop:htim <- $r0
	.loc	7 684 3                         @ ../Library/STM32F4xx_HAL_Driver/Src/stm32f4xx_hal_tim_ex.c:684:3
	ldr.w	r12, [r2, #32]
	movw	r4, #1092
.Ltmp175:
	.loc	7 684 3                         @ ../Library/STM32F4xx_HAL_Driver/Src/stm32f4xx_hal_tim_ex.c:684:3
	tst.w	r12, r4
	bne	.LBB11_3
.Ltmp176:
@ %bb.2:
	@DEBUG_VALUE: HAL_TIMEx_OCN_Stop:Channel <- $r1
	@DEBUG_VALUE: HAL_TIMEx_OCN_Stop:htim <- $r0
	.loc	7 684 3                         @ ../Library/STM32F4xx_HAL_Driver/Src/stm32f4xx_hal_tim_ex.c:684:3
	ldr	r4, [r2, #68]
	bic	r4, r4, #32768
	str	r4, [r2, #68]
.Ltmp177:
.LBB11_3:
	@DEBUG_VALUE: HAL_TIMEx_OCN_Stop:Channel <- $r1
	@DEBUG_VALUE: HAL_TIMEx_OCN_Stop:htim <- $r0
	.loc	7 687 3 is_stmt 1               @ ../Library/STM32F4xx_HAL_Driver/Src/stm32f4xx_hal_tim_ex.c:687:3
	ldr	r4, [r2, #32]
.Ltmp178:
	.loc	7 687 3 is_stmt 0               @ ../Library/STM32F4xx_HAL_Driver/Src/stm32f4xx_hal_tim_ex.c:687:3
	tst	r4, r3
	bne	.LBB11_6
.Ltmp179:
@ %bb.4:
	@DEBUG_VALUE: HAL_TIMEx_OCN_Stop:Channel <- $r1
	@DEBUG_VALUE: HAL_TIMEx_OCN_Stop:htim <- $r0
	.loc	7 687 3                         @ ../Library/STM32F4xx_HAL_Driver/Src/stm32f4xx_hal_tim_ex.c:687:3
	ldr	r3, [r2, #32]
	movw	r4, #1092
.Ltmp180:
	.loc	7 687 3                         @ ../Library/STM32F4xx_HAL_Driver/Src/stm32f4xx_hal_tim_ex.c:687:3
	tst	r3, r4
	bne	.LBB11_6
.Ltmp181:
@ %bb.5:
	@DEBUG_VALUE: HAL_TIMEx_OCN_Stop:Channel <- $r1
	@DEBUG_VALUE: HAL_TIMEx_OCN_Stop:htim <- $r0
	.loc	7 687 3                         @ ../Library/STM32F4xx_HAL_Driver/Src/stm32f4xx_hal_tim_ex.c:687:3
	ldr	r3, [r2]
	bic	r3, r3, #1
	str	r3, [r2]
.Ltmp182:
.LBB11_6:
	@DEBUG_VALUE: HAL_TIMEx_OCN_Stop:Channel <- $r1
	@DEBUG_VALUE: HAL_TIMEx_OCN_Stop:htim <- $r0
	.loc	7 690 3 is_stmt 1               @ ../Library/STM32F4xx_HAL_Driver/Src/stm32f4xx_hal_tim_ex.c:690:3
	cmp	r1, #8
	beq	.LBB11_9
.Ltmp183:
@ %bb.7:
	@DEBUG_VALUE: HAL_TIMEx_OCN_Stop:Channel <- $r1
	@DEBUG_VALUE: HAL_TIMEx_OCN_Stop:htim <- $r0
	cmp	r1, #4
	beq	.LBB11_10
.Ltmp184:
@ %bb.8:
	@DEBUG_VALUE: HAL_TIMEx_OCN_Stop:Channel <- $r1
	@DEBUG_VALUE: HAL_TIMEx_OCN_Stop:htim <- $r0
	cmp	r1, #0
	mov.w	r1, #1
.Ltmp185:
	@DEBUG_VALUE: HAL_TIMEx_OCN_Stop:Channel <- [DW_OP_LLVM_entry_value 1] $r1
	ite	ne
	strbne.w	r1, [r0, #69]
	strbeq.w	r1, [r0, #66]
	b	.LBB11_11
.Ltmp186:
.LBB11_9:
	@DEBUG_VALUE: HAL_TIMEx_OCN_Stop:Channel <- $r1
	@DEBUG_VALUE: HAL_TIMEx_OCN_Stop:htim <- $r0
	.loc	7 0 3 is_stmt 0                 @ ../Library/STM32F4xx_HAL_Driver/Src/stm32f4xx_hal_tim_ex.c:0:3
	movs	r1, #1
.Ltmp187:
	@DEBUG_VALUE: HAL_TIMEx_OCN_Stop:Channel <- [DW_OP_LLVM_entry_value 1] $r1
	.loc	7 690 3                         @ ../Library/STM32F4xx_HAL_Driver/Src/stm32f4xx_hal_tim_ex.c:690:3
	strb.w	r1, [r0, #68]
	b	.LBB11_11
.Ltmp188:
.LBB11_10:
	@DEBUG_VALUE: HAL_TIMEx_OCN_Stop:Channel <- $r1
	@DEBUG_VALUE: HAL_TIMEx_OCN_Stop:htim <- $r0
	.loc	7 0 3                           @ ../Library/STM32F4xx_HAL_Driver/Src/stm32f4xx_hal_tim_ex.c:0:3
	movs	r1, #1
.Ltmp189:
	@DEBUG_VALUE: HAL_TIMEx_OCN_Stop:Channel <- [DW_OP_LLVM_entry_value 1] $r1
	.loc	7 690 3                         @ ../Library/STM32F4xx_HAL_Driver/Src/stm32f4xx_hal_tim_ex.c:690:3
	strb.w	r1, [r0, #67]
.Ltmp190:
.LBB11_11:
	@DEBUG_VALUE: HAL_TIMEx_OCN_Stop:htim <- $r0
	@DEBUG_VALUE: HAL_TIMEx_OCN_Stop:Channel <- [DW_OP_LLVM_entry_value 1] $r1
	.loc	7 693 3 is_stmt 1               @ ../Library/STM32F4xx_HAL_Driver/Src/stm32f4xx_hal_tim_ex.c:693:3
	movs	r0, #0
.Ltmp191:
	@DEBUG_VALUE: HAL_TIMEx_OCN_Stop:htim <- [DW_OP_LLVM_entry_value 1] $r0
	pop	{r4, pc}
.Ltmp192:
.Lfunc_end11:
	.size	HAL_TIMEx_OCN_Stop, .Lfunc_end11-HAL_TIMEx_OCN_Stop
	.cfi_endproc
	.cantunwind
	.fnend
                                        @ -- End function
	.section	.text.HAL_TIMEx_OCN_Start_IT,"ax",%progbits
	.hidden	HAL_TIMEx_OCN_Start_IT          @ -- Begin function HAL_TIMEx_OCN_Start_IT
	.globl	HAL_TIMEx_OCN_Start_IT
	.p2align	1
	.type	HAL_TIMEx_OCN_Start_IT,%function
	.code	16                              @ @HAL_TIMEx_OCN_Start_IT
	.thumb_func
HAL_TIMEx_OCN_Start_IT:
.Lfunc_begin12:
	.loc	7 708 0                         @ ../Library/STM32F4xx_HAL_Driver/Src/stm32f4xx_hal_tim_ex.c:708:0
	.fnstart
	.cfi_startproc
@ %bb.0:
	@DEBUG_VALUE: HAL_TIMEx_OCN_Start_IT:htim <- $r0
	@DEBUG_VALUE: HAL_TIMEx_OCN_Start_IT:Channel <- $r1
	@DEBUG_VALUE: HAL_TIMEx_OCN_Start_IT:Channel <- $r1
	@DEBUG_VALUE: HAL_TIMEx_OCN_Start_IT:status <- 0
	@DEBUG_VALUE: HAL_TIMEx_OCN_Start_IT:htim <- $r0
	.loc	7 716 7 prologue_end            @ ../Library/STM32F4xx_HAL_Driver/Src/stm32f4xx_hal_tim_ex.c:716:7
	cbz	r1, .LBB12_3
.Ltmp193:
@ %bb.1:
	@DEBUG_VALUE: HAL_TIMEx_OCN_Start_IT:Channel <- $r1
	@DEBUG_VALUE: HAL_TIMEx_OCN_Start_IT:htim <- $r0
	@DEBUG_VALUE: HAL_TIMEx_OCN_Start_IT:status <- 0
	cmp	r1, #8
	beq	.LBB12_5
.Ltmp194:
@ %bb.2:
	@DEBUG_VALUE: HAL_TIMEx_OCN_Start_IT:Channel <- $r1
	@DEBUG_VALUE: HAL_TIMEx_OCN_Start_IT:htim <- $r0
	@DEBUG_VALUE: HAL_TIMEx_OCN_Start_IT:status <- 0
	cmp	r1, #4
	ite	ne
	addne.w	r2, r0, #69
	addeq.w	r2, r0, #67
	b	.LBB12_6
.Ltmp195:
.LBB12_3:
	@DEBUG_VALUE: HAL_TIMEx_OCN_Start_IT:Channel <- $r1
	@DEBUG_VALUE: HAL_TIMEx_OCN_Start_IT:htim <- $r0
	@DEBUG_VALUE: HAL_TIMEx_OCN_Start_IT:status <- 0
	ldrb.w	r2, [r0, #66]
.Ltmp196:
	.loc	7 716 7 is_stmt 0               @ ../Library/STM32F4xx_HAL_Driver/Src/stm32f4xx_hal_tim_ex.c:716:7
	cmp	r2, #1
	bne	.LBB12_19
.Ltmp197:
@ %bb.4:
	@DEBUG_VALUE: HAL_TIMEx_OCN_Start_IT:Channel <- $r1
	@DEBUG_VALUE: HAL_TIMEx_OCN_Start_IT:htim <- $r0
	@DEBUG_VALUE: HAL_TIMEx_OCN_Start_IT:status <- 0
	.loc	7 0 7                           @ ../Library/STM32F4xx_HAL_Driver/Src/stm32f4xx_hal_tim_ex.c:0:7
	movs	r2, #2
	.loc	7 722 3 is_stmt 1               @ ../Library/STM32F4xx_HAL_Driver/Src/stm32f4xx_hal_tim_ex.c:722:3
	strb.w	r2, [r0, #66]
	b	.LBB12_11
.Ltmp198:
.LBB12_5:
	@DEBUG_VALUE: HAL_TIMEx_OCN_Start_IT:Channel <- $r1
	@DEBUG_VALUE: HAL_TIMEx_OCN_Start_IT:htim <- $r0
	@DEBUG_VALUE: HAL_TIMEx_OCN_Start_IT:status <- 0
	.loc	7 716 7                         @ ../Library/STM32F4xx_HAL_Driver/Src/stm32f4xx_hal_tim_ex.c:716:7
	add.w	r2, r0, #68
.Ltmp199:
.LBB12_6:
	@DEBUG_VALUE: HAL_TIMEx_OCN_Start_IT:Channel <- $r1
	@DEBUG_VALUE: HAL_TIMEx_OCN_Start_IT:htim <- $r0
	@DEBUG_VALUE: HAL_TIMEx_OCN_Start_IT:status <- 0
	ldrb	r2, [r2]
.Ltmp200:
	.loc	7 716 7 is_stmt 0               @ ../Library/STM32F4xx_HAL_Driver/Src/stm32f4xx_hal_tim_ex.c:716:7
	cmp	r2, #1
	bne	.LBB12_19
.Ltmp201:
@ %bb.7:
	@DEBUG_VALUE: HAL_TIMEx_OCN_Start_IT:Channel <- $r1
	@DEBUG_VALUE: HAL_TIMEx_OCN_Start_IT:htim <- $r0
	@DEBUG_VALUE: HAL_TIMEx_OCN_Start_IT:status <- 0
	.loc	7 722 3 is_stmt 1               @ ../Library/STM32F4xx_HAL_Driver/Src/stm32f4xx_hal_tim_ex.c:722:3
	cmp	r1, #8
	beq	.LBB12_10
.Ltmp202:
@ %bb.8:
	@DEBUG_VALUE: HAL_TIMEx_OCN_Start_IT:Channel <- $r1
	@DEBUG_VALUE: HAL_TIMEx_OCN_Start_IT:htim <- $r0
	@DEBUG_VALUE: HAL_TIMEx_OCN_Start_IT:status <- 0
	cmp	r1, #4
	bne	.LBB12_18
.Ltmp203:
@ %bb.9:
	@DEBUG_VALUE: HAL_TIMEx_OCN_Start_IT:Channel <- $r1
	@DEBUG_VALUE: HAL_TIMEx_OCN_Start_IT:htim <- $r0
	@DEBUG_VALUE: HAL_TIMEx_OCN_Start_IT:status <- 0
	.loc	7 0 3 is_stmt 0                 @ ../Library/STM32F4xx_HAL_Driver/Src/stm32f4xx_hal_tim_ex.c:0:3
	movs	r2, #2
	.loc	7 722 3                         @ ../Library/STM32F4xx_HAL_Driver/Src/stm32f4xx_hal_tim_ex.c:722:3
	strb.w	r2, [r0, #67]
	movs	r2, #4
	b	.LBB12_11
.Ltmp204:
.LBB12_10:
	@DEBUG_VALUE: HAL_TIMEx_OCN_Start_IT:Channel <- $r1
	@DEBUG_VALUE: HAL_TIMEx_OCN_Start_IT:htim <- $r0
	@DEBUG_VALUE: HAL_TIMEx_OCN_Start_IT:status <- 0
	.loc	7 0 3                           @ ../Library/STM32F4xx_HAL_Driver/Src/stm32f4xx_hal_tim_ex.c:0:3
	movs	r2, #2
	.loc	7 722 3                         @ ../Library/STM32F4xx_HAL_Driver/Src/stm32f4xx_hal_tim_ex.c:722:3
	strb.w	r2, [r0, #68]
	movs	r2, #8
.Ltmp205:
.LBB12_11:
	@DEBUG_VALUE: HAL_TIMEx_OCN_Start_IT:Channel <- $r1
	@DEBUG_VALUE: HAL_TIMEx_OCN_Start_IT:htim <- $r0
	@DEBUG_VALUE: HAL_TIMEx_OCN_Start_IT:status <- 0
	.loc	7 0 0                           @ ../Library/STM32F4xx_HAL_Driver/Src/stm32f4xx_hal_tim_ex.c:0:0
	ldr	r0, [r0]
.Ltmp206:
	@DEBUG_VALUE: HAL_TIMEx_OCN_Start_IT:htim <- [DW_OP_LLVM_entry_value 1] $r0
	ldr	r3, [r0, #12]
	orrs	r2, r3
	str	r2, [r0, #12]
.Ltmp207:
	@DEBUG_VALUE: HAL_TIMEx_OCN_Start_IT:status <- undef
	.loc	7 756 5 is_stmt 1               @ ../Library/STM32F4xx_HAL_Driver/Src/stm32f4xx_hal_tim_ex.c:756:5
	ldr	r2, [r0, #12]
	orr	r2, r2, #128
	str	r2, [r0, #12]
	movs	r2, #4
.Ltmp208:
	@DEBUG_VALUE: TIM_CCxNChannelCmd:ChannelNState <- 4
	@DEBUG_VALUE: TIM_CCxNChannelCmd:Channel <- $r1
	@DEBUG_VALUE: TIM_CCxNChannelCmd:TIMx <- $r0
	.loc	7 2411 14                       @ ../Library/STM32F4xx_HAL_Driver/Src/stm32f4xx_hal_tim_ex.c:2411:14
	ldr	r3, [r0, #32]
	.loc	7 2408 24                       @ ../Library/STM32F4xx_HAL_Driver/Src/stm32f4xx_hal_tim_ex.c:2408:24
	lsl.w	r1, r2, r1
.Ltmp209:
	@DEBUG_VALUE: HAL_TIMEx_OCN_Start_IT:Channel <- [DW_OP_LLVM_entry_value 1] $r1
	@DEBUG_VALUE: TIM_CCxNChannelCmd:tmp <- $r1
	.loc	7 2411 14                       @ ../Library/STM32F4xx_HAL_Driver/Src/stm32f4xx_hal_tim_ex.c:2411:14
	bic.w	r2, r3, r1
	str	r2, [r0, #32]
	.loc	7 2414 14                       @ ../Library/STM32F4xx_HAL_Driver/Src/stm32f4xx_hal_tim_ex.c:2414:14
	ldr	r2, [r0, #32]
	orrs	r1, r2
.Ltmp210:
	str	r1, [r0, #32]
.Ltmp211:
	.loc	7 762 5                         @ ../Library/STM32F4xx_HAL_Driver/Src/stm32f4xx_hal_tim_ex.c:762:5
	ldr	r1, [r0, #68]
	movw	r2, #6143
	movt	r2, #16384
	orr	r1, r1, #32768
.Ltmp212:
	.loc	7 765 9                         @ ../Library/STM32F4xx_HAL_Driver/Src/stm32f4xx_hal_tim_ex.c:765:9
	cmp	r0, r2
.Ltmp213:
	.loc	7 762 5                         @ ../Library/STM32F4xx_HAL_Driver/Src/stm32f4xx_hal_tim_ex.c:762:5
	str	r1, [r0, #68]
.Ltmp214:
	.loc	7 765 9                         @ ../Library/STM32F4xx_HAL_Driver/Src/stm32f4xx_hal_tim_ex.c:765:9
	bgt	.LBB12_15
.Ltmp215:
@ %bb.12:
	@DEBUG_VALUE: HAL_TIMEx_OCN_Start_IT:htim <- [DW_OP_LLVM_entry_value 1] $r0
	@DEBUG_VALUE: HAL_TIMEx_OCN_Start_IT:Channel <- [DW_OP_LLVM_entry_value 1] $r1
	.loc	7 0 9 is_stmt 0                 @ ../Library/STM32F4xx_HAL_Driver/Src/stm32f4xx_hal_tim_ex.c:0:9
	movw	r1, #2047
	movt	r1, #16384
	.loc	7 765 9                         @ ../Library/STM32F4xx_HAL_Driver/Src/stm32f4xx_hal_tim_ex.c:765:9
	cmp	r0, r1
	bgt	.LBB12_20
.Ltmp216:
@ %bb.13:
	@DEBUG_VALUE: HAL_TIMEx_OCN_Start_IT:htim <- [DW_OP_LLVM_entry_value 1] $r0
	@DEBUG_VALUE: HAL_TIMEx_OCN_Start_IT:Channel <- [DW_OP_LLVM_entry_value 1] $r1
	cmp.w	r0, #1073741824
	beq	.LBB12_27
.Ltmp217:
@ %bb.14:
	@DEBUG_VALUE: HAL_TIMEx_OCN_Start_IT:htim <- [DW_OP_LLVM_entry_value 1] $r0
	@DEBUG_VALUE: HAL_TIMEx_OCN_Start_IT:Channel <- [DW_OP_LLVM_entry_value 1] $r1
	.loc	7 0 9                           @ ../Library/STM32F4xx_HAL_Driver/Src/stm32f4xx_hal_tim_ex.c:0:9
	movw	r1, #1024
	b	.LBB12_22
.Ltmp218:
.LBB12_15:
	@DEBUG_VALUE: HAL_TIMEx_OCN_Start_IT:htim <- [DW_OP_LLVM_entry_value 1] $r0
	@DEBUG_VALUE: HAL_TIMEx_OCN_Start_IT:Channel <- [DW_OP_LLVM_entry_value 1] $r1
	movw	r1, #1023
	movt	r1, #16385
	.loc	7 765 9                         @ ../Library/STM32F4xx_HAL_Driver/Src/stm32f4xx_hal_tim_ex.c:765:9
	cmp	r0, r1
	bgt	.LBB12_23
.Ltmp219:
@ %bb.16:
	@DEBUG_VALUE: HAL_TIMEx_OCN_Start_IT:htim <- [DW_OP_LLVM_entry_value 1] $r0
	@DEBUG_VALUE: HAL_TIMEx_OCN_Start_IT:Channel <- [DW_OP_LLVM_entry_value 1] $r1
	.loc	7 0 9                           @ ../Library/STM32F4xx_HAL_Driver/Src/stm32f4xx_hal_tim_ex.c:0:9
	movw	r1, #6144
	movt	r1, #16384
	.loc	7 765 9                         @ ../Library/STM32F4xx_HAL_Driver/Src/stm32f4xx_hal_tim_ex.c:765:9
	cmp	r0, r1
	beq	.LBB12_27
.Ltmp220:
@ %bb.17:
	@DEBUG_VALUE: HAL_TIMEx_OCN_Start_IT:htim <- [DW_OP_LLVM_entry_value 1] $r0
	@DEBUG_VALUE: HAL_TIMEx_OCN_Start_IT:Channel <- [DW_OP_LLVM_entry_value 1] $r1
	.loc	7 0 9                           @ ../Library/STM32F4xx_HAL_Driver/Src/stm32f4xx_hal_tim_ex.c:0:9
	movs	r1, #0
	b	.LBB12_25
.Ltmp221:
.LBB12_18:
	@DEBUG_VALUE: HAL_TIMEx_OCN_Start_IT:Channel <- $r1
	@DEBUG_VALUE: HAL_TIMEx_OCN_Start_IT:htim <- $r0
	@DEBUG_VALUE: HAL_TIMEx_OCN_Start_IT:status <- 0
	movs	r1, #2
.Ltmp222:
	@DEBUG_VALUE: HAL_TIMEx_OCN_Start_IT:Channel <- [DW_OP_LLVM_entry_value 1] $r1
	.loc	7 722 3 is_stmt 1               @ ../Library/STM32F4xx_HAL_Driver/Src/stm32f4xx_hal_tim_ex.c:722:3
	strb.w	r1, [r0, #69]
.Ltmp223:
.LBB12_19:
	@DEBUG_VALUE: HAL_TIMEx_OCN_Start_IT:htim <- $r0
	@DEBUG_VALUE: HAL_TIMEx_OCN_Start_IT:status <- 0
	.loc	7 0 3 is_stmt 0                 @ ../Library/STM32F4xx_HAL_Driver/Src/stm32f4xx_hal_tim_ex.c:0:3
	movs	r0, #1
.Ltmp224:
	@DEBUG_VALUE: HAL_TIMEx_OCN_Start_IT:htim <- [DW_OP_LLVM_entry_value 1] $r0
	.loc	7 781 1 is_stmt 1               @ ../Library/STM32F4xx_HAL_Driver/Src/stm32f4xx_hal_tim_ex.c:781:1
	bx	lr
.Ltmp225:
.LBB12_20:
	@DEBUG_VALUE: HAL_TIMEx_OCN_Start_IT:htim <- [DW_OP_LLVM_entry_value 1] $r0
	@DEBUG_VALUE: HAL_TIMEx_OCN_Start_IT:Channel <- [DW_OP_LLVM_entry_value 1] $r1
	.loc	7 0 1 is_stmt 0                 @ ../Library/STM32F4xx_HAL_Driver/Src/stm32f4xx_hal_tim_ex.c:0:1
	movw	r1, #2048
	movt	r1, #16384
.Ltmp226:
	.loc	7 765 9 is_stmt 1               @ ../Library/STM32F4xx_HAL_Driver/Src/stm32f4xx_hal_tim_ex.c:765:9
	cmp	r0, r1
	beq	.LBB12_27
.Ltmp227:
@ %bb.21:
	@DEBUG_VALUE: HAL_TIMEx_OCN_Start_IT:htim <- [DW_OP_LLVM_entry_value 1] $r0
	@DEBUG_VALUE: HAL_TIMEx_OCN_Start_IT:Channel <- [DW_OP_LLVM_entry_value 1] $r1
	.loc	7 0 9 is_stmt 0                 @ ../Library/STM32F4xx_HAL_Driver/Src/stm32f4xx_hal_tim_ex.c:0:9
	movw	r1, #3072
.Ltmp228:
.LBB12_22:
	@DEBUG_VALUE: HAL_TIMEx_OCN_Start_IT:htim <- [DW_OP_LLVM_entry_value 1] $r0
	@DEBUG_VALUE: HAL_TIMEx_OCN_Start_IT:Channel <- [DW_OP_LLVM_entry_value 1] $r1
	movt	r1, #16384
	b	.LBB12_26
.Ltmp229:
.LBB12_23:
	@DEBUG_VALUE: HAL_TIMEx_OCN_Start_IT:htim <- [DW_OP_LLVM_entry_value 1] $r0
	@DEBUG_VALUE: HAL_TIMEx_OCN_Start_IT:Channel <- [DW_OP_LLVM_entry_value 1] $r1
	movw	r1, #16384
	movt	r1, #16385
	.loc	7 765 9                         @ ../Library/STM32F4xx_HAL_Driver/Src/stm32f4xx_hal_tim_ex.c:765:9
	cmp	r0, r1
	beq	.LBB12_27
.Ltmp230:
@ %bb.24:
	@DEBUG_VALUE: HAL_TIMEx_OCN_Start_IT:htim <- [DW_OP_LLVM_entry_value 1] $r0
	@DEBUG_VALUE: HAL_TIMEx_OCN_Start_IT:Channel <- [DW_OP_LLVM_entry_value 1] $r1
	.loc	7 0 9                           @ ../Library/STM32F4xx_HAL_Driver/Src/stm32f4xx_hal_tim_ex.c:0:9
	movw	r1, #1024
.Ltmp231:
.LBB12_25:
	@DEBUG_VALUE: HAL_TIMEx_OCN_Start_IT:htim <- [DW_OP_LLVM_entry_value 1] $r0
	@DEBUG_VALUE: HAL_TIMEx_OCN_Start_IT:Channel <- [DW_OP_LLVM_entry_value 1] $r1
	movt	r1, #16385
.Ltmp232:
.LBB12_26:
	@DEBUG_VALUE: HAL_TIMEx_OCN_Start_IT:htim <- [DW_OP_LLVM_entry_value 1] $r0
	@DEBUG_VALUE: HAL_TIMEx_OCN_Start_IT:Channel <- [DW_OP_LLVM_entry_value 1] $r1
	.loc	7 765 9                         @ ../Library/STM32F4xx_HAL_Driver/Src/stm32f4xx_hal_tim_ex.c:765:9
	cmp	r0, r1
	bne	.LBB12_28
.Ltmp233:
.LBB12_27:
	@DEBUG_VALUE: HAL_TIMEx_OCN_Start_IT:htim <- [DW_OP_LLVM_entry_value 1] $r0
	@DEBUG_VALUE: HAL_TIMEx_OCN_Start_IT:Channel <- [DW_OP_LLVM_entry_value 1] $r1
	.loc	7 767 33 is_stmt 1              @ ../Library/STM32F4xx_HAL_Driver/Src/stm32f4xx_hal_tim_ex.c:767:33
	ldr	r1, [r0, #8]
	.loc	7 767 38 is_stmt 0              @ ../Library/STM32F4xx_HAL_Driver/Src/stm32f4xx_hal_tim_ex.c:767:38
	and	r1, r1, #7
.Ltmp234:
	@DEBUG_VALUE: HAL_TIMEx_OCN_Start_IT:tmpsmcr <- $r1
	.loc	7 768 11 is_stmt 1              @ ../Library/STM32F4xx_HAL_Driver/Src/stm32f4xx_hal_tim_ex.c:768:11
	cmp	r1, #6
	beq	.LBB12_29
.Ltmp235:
.LBB12_28:
	@DEBUG_VALUE: HAL_TIMEx_OCN_Start_IT:htim <- [DW_OP_LLVM_entry_value 1] $r0
	@DEBUG_VALUE: HAL_TIMEx_OCN_Start_IT:Channel <- [DW_OP_LLVM_entry_value 1] $r1
	.loc	7 0 0 is_stmt 0                 @ ../Library/STM32F4xx_HAL_Driver/Src/stm32f4xx_hal_tim_ex.c:0:0
	ldr	r1, [r0]
	orr	r1, r1, #1
	str	r1, [r0]
.Ltmp236:
.LBB12_29:
	@DEBUG_VALUE: HAL_TIMEx_OCN_Start_IT:htim <- [DW_OP_LLVM_entry_value 1] $r0
	@DEBUG_VALUE: HAL_TIMEx_OCN_Start_IT:Channel <- [DW_OP_LLVM_entry_value 1] $r1
	movs	r0, #0
	.loc	7 781 1 is_stmt 1               @ ../Library/STM32F4xx_HAL_Driver/Src/stm32f4xx_hal_tim_ex.c:781:1
	bx	lr
.Ltmp237:
.Lfunc_end12:
	.size	HAL_TIMEx_OCN_Start_IT, .Lfunc_end12-HAL_TIMEx_OCN_Start_IT
	.cfi_endproc
	.cantunwind
	.fnend
                                        @ -- End function
	.section	.text.HAL_TIMEx_OCN_Stop_IT,"ax",%progbits
	.hidden	HAL_TIMEx_OCN_Stop_IT           @ -- Begin function HAL_TIMEx_OCN_Stop_IT
	.globl	HAL_TIMEx_OCN_Stop_IT
	.p2align	1
	.type	HAL_TIMEx_OCN_Stop_IT,%function
	.code	16                              @ @HAL_TIMEx_OCN_Stop_IT
	.thumb_func
HAL_TIMEx_OCN_Stop_IT:
.Lfunc_begin13:
	.loc	7 795 0                         @ ../Library/STM32F4xx_HAL_Driver/Src/stm32f4xx_hal_tim_ex.c:795:0
	.fnstart
	.cfi_startproc
@ %bb.0:
	@DEBUG_VALUE: HAL_TIMEx_OCN_Stop_IT:htim <- $r0
	@DEBUG_VALUE: HAL_TIMEx_OCN_Stop_IT:Channel <- $r1
	@DEBUG_VALUE: HAL_TIMEx_OCN_Stop_IT:Channel <- $r1
	.save	{r7, lr}
	push	{r7, lr}
	.cfi_def_cfa_offset 8
	.cfi_offset lr, -4
	.cfi_offset r7, -8
.Ltmp238:
	@DEBUG_VALUE: HAL_TIMEx_OCN_Stop_IT:status <- 0
	@DEBUG_VALUE: HAL_TIMEx_OCN_Stop_IT:htim <- $r0
	.loc	7 802 3 prologue_end            @ ../Library/STM32F4xx_HAL_Driver/Src/stm32f4xx_hal_tim_ex.c:802:3
	cbz	r1, .LBB13_4
.Ltmp239:
@ %bb.1:
	@DEBUG_VALUE: HAL_TIMEx_OCN_Stop_IT:Channel <- $r1
	@DEBUG_VALUE: HAL_TIMEx_OCN_Stop_IT:htim <- $r0
	@DEBUG_VALUE: HAL_TIMEx_OCN_Stop_IT:status <- 0
	cmp	r1, #8
	beq	.LBB13_5
.Ltmp240:
@ %bb.2:
	@DEBUG_VALUE: HAL_TIMEx_OCN_Stop_IT:Channel <- $r1
	@DEBUG_VALUE: HAL_TIMEx_OCN_Stop_IT:htim <- $r0
	@DEBUG_VALUE: HAL_TIMEx_OCN_Stop_IT:status <- 0
	cmp	r1, #4
	itt	ne
	movne	r0, #1
.Ltmp241:
	@DEBUG_VALUE: HAL_TIMEx_OCN_Stop_IT:htim <- [DW_OP_LLVM_entry_value 1] $r0
	.loc	7 853 3                         @ ../Library/STM32F4xx_HAL_Driver/Src/stm32f4xx_hal_tim_ex.c:853:3
	popne	{r7, pc}
.Ltmp242:
.LBB13_3:
	@DEBUG_VALUE: HAL_TIMEx_OCN_Stop_IT:Channel <- $r1
	@DEBUG_VALUE: HAL_TIMEx_OCN_Stop_IT:htim <- [DW_OP_LLVM_entry_value 1] $r0
	@DEBUG_VALUE: HAL_TIMEx_OCN_Stop_IT:status <- 0
	.loc	7 0 3 is_stmt 0                 @ ../Library/STM32F4xx_HAL_Driver/Src/stm32f4xx_hal_tim_ex.c:0:3
	mvn	r12, #4
	b	.LBB13_6
.Ltmp243:
.LBB13_4:
	@DEBUG_VALUE: HAL_TIMEx_OCN_Stop_IT:Channel <- $r1
	@DEBUG_VALUE: HAL_TIMEx_OCN_Stop_IT:htim <- $r0
	@DEBUG_VALUE: HAL_TIMEx_OCN_Stop_IT:status <- 0
	mvn	r12, #2
	b	.LBB13_6
.Ltmp244:
.LBB13_5:
	@DEBUG_VALUE: HAL_TIMEx_OCN_Stop_IT:Channel <- $r1
	@DEBUG_VALUE: HAL_TIMEx_OCN_Stop_IT:htim <- $r0
	@DEBUG_VALUE: HAL_TIMEx_OCN_Stop_IT:status <- 0
	mvn	r12, #8
.Ltmp245:
.LBB13_6:
	@DEBUG_VALUE: HAL_TIMEx_OCN_Stop_IT:Channel <- $r1
	@DEBUG_VALUE: HAL_TIMEx_OCN_Stop_IT:status <- 0
	ldr	r2, [r0]
	ldr	r3, [r2, #12]
	and.w	r3, r3, r12
	str	r3, [r2, #12]
	mov.w	r12, #4
.Ltmp246:
	@DEBUG_VALUE: TIM_CCxNChannelCmd:ChannelNState <- 0
	@DEBUG_VALUE: TIM_CCxNChannelCmd:Channel <- $r1
	@DEBUG_VALUE: TIM_CCxNChannelCmd:TIMx <- $r2
	@DEBUG_VALUE: HAL_TIMEx_OCN_Stop_IT:status <- undef
	.loc	7 2411 14 is_stmt 1             @ ../Library/STM32F4xx_HAL_Driver/Src/stm32f4xx_hal_tim_ex.c:2411:14
	ldr.w	lr, [r2, #32]
	.loc	7 2408 24                       @ ../Library/STM32F4xx_HAL_Driver/Src/stm32f4xx_hal_tim_ex.c:2408:24
	lsl.w	r3, r12, r1
.Ltmp247:
	@DEBUG_VALUE: TIM_CCxNChannelCmd:tmp <- $r3
	.loc	7 2411 14                       @ ../Library/STM32F4xx_HAL_Driver/Src/stm32f4xx_hal_tim_ex.c:2411:14
	bic.w	r3, lr, r3
.Ltmp248:
	str	r3, [r2, #32]
	.loc	7 2414 14                       @ ../Library/STM32F4xx_HAL_Driver/Src/stm32f4xx_hal_tim_ex.c:2414:14
	ldr	r3, [r2, #32]
	str	r3, [r2, #32]
.Ltmp249:
	.loc	7 836 31                        @ ../Library/STM32F4xx_HAL_Driver/Src/stm32f4xx_hal_tim_ex.c:836:31
	ldr.w	r12, [r2, #32]
.Ltmp250:
	@DEBUG_VALUE: HAL_TIMEx_OCN_Stop_IT:tmpccer <- $r12
	.loc	7 0 31 is_stmt 0                @ ../Library/STM32F4xx_HAL_Driver/Src/stm32f4xx_hal_tim_ex.c:0:31
	movw	r3, #1092
	.loc	7 837 9 is_stmt 1               @ ../Library/STM32F4xx_HAL_Driver/Src/stm32f4xx_hal_tim_ex.c:837:9
	tst.w	r12, r3
	bne	.LBB13_8
.Ltmp251:
@ %bb.7:
	@DEBUG_VALUE: HAL_TIMEx_OCN_Stop_IT:tmpccer <- $r12
	@DEBUG_VALUE: HAL_TIMEx_OCN_Stop_IT:Channel <- $r1
	.loc	7 839 7                         @ ../Library/STM32F4xx_HAL_Driver/Src/stm32f4xx_hal_tim_ex.c:839:7
	ldr	r3, [r2, #12]
	bic	r3, r3, #128
	str	r3, [r2, #12]
.Ltmp252:
.LBB13_8:
	@DEBUG_VALUE: HAL_TIMEx_OCN_Stop_IT:tmpccer <- $r12
	@DEBUG_VALUE: HAL_TIMEx_OCN_Stop_IT:Channel <- $r1
	.loc	7 843 5                         @ ../Library/STM32F4xx_HAL_Driver/Src/stm32f4xx_hal_tim_ex.c:843:5
	ldr	r3, [r2, #32]
	movw	r12, #4369
.Ltmp253:
	.loc	7 843 5 is_stmt 0               @ ../Library/STM32F4xx_HAL_Driver/Src/stm32f4xx_hal_tim_ex.c:843:5
	tst.w	r3, r12
	bne	.LBB13_11
.Ltmp254:
@ %bb.9:
	@DEBUG_VALUE: HAL_TIMEx_OCN_Stop_IT:Channel <- $r1
	.loc	7 843 5                         @ ../Library/STM32F4xx_HAL_Driver/Src/stm32f4xx_hal_tim_ex.c:843:5
	ldr.w	lr, [r2, #32]
	movw	r3, #1092
.Ltmp255:
	.loc	7 843 5                         @ ../Library/STM32F4xx_HAL_Driver/Src/stm32f4xx_hal_tim_ex.c:843:5
	tst.w	lr, r3
	bne	.LBB13_11
.Ltmp256:
@ %bb.10:
	@DEBUG_VALUE: HAL_TIMEx_OCN_Stop_IT:Channel <- $r1
	.loc	7 843 5                         @ ../Library/STM32F4xx_HAL_Driver/Src/stm32f4xx_hal_tim_ex.c:843:5
	ldr	r3, [r2, #68]
	bic	r3, r3, #32768
	str	r3, [r2, #68]
.Ltmp257:
.LBB13_11:
	@DEBUG_VALUE: HAL_TIMEx_OCN_Stop_IT:Channel <- $r1
	.loc	7 846 5 is_stmt 1               @ ../Library/STM32F4xx_HAL_Driver/Src/stm32f4xx_hal_tim_ex.c:846:5
	ldr	r3, [r2, #32]
.Ltmp258:
	.loc	7 846 5 is_stmt 0               @ ../Library/STM32F4xx_HAL_Driver/Src/stm32f4xx_hal_tim_ex.c:846:5
	tst.w	r3, r12
	bne	.LBB13_14
.Ltmp259:
@ %bb.12:
	@DEBUG_VALUE: HAL_TIMEx_OCN_Stop_IT:Channel <- $r1
	.loc	7 846 5                         @ ../Library/STM32F4xx_HAL_Driver/Src/stm32f4xx_hal_tim_ex.c:846:5
	ldr.w	r12, [r2, #32]
	movw	r3, #1092
.Ltmp260:
	.loc	7 846 5                         @ ../Library/STM32F4xx_HAL_Driver/Src/stm32f4xx_hal_tim_ex.c:846:5
	tst.w	r12, r3
	bne	.LBB13_14
.Ltmp261:
@ %bb.13:
	@DEBUG_VALUE: HAL_TIMEx_OCN_Stop_IT:Channel <- $r1
	.loc	7 846 5                         @ ../Library/STM32F4xx_HAL_Driver/Src/stm32f4xx_hal_tim_ex.c:846:5
	ldr	r3, [r2]
	bic	r3, r3, #1
	str	r3, [r2]
.Ltmp262:
.LBB13_14:
	@DEBUG_VALUE: HAL_TIMEx_OCN_Stop_IT:Channel <- $r1
	.loc	7 849 5 is_stmt 1               @ ../Library/STM32F4xx_HAL_Driver/Src/stm32f4xx_hal_tim_ex.c:849:5
	cmp	r1, #8
	beq	.LBB13_17
.Ltmp263:
@ %bb.15:
	@DEBUG_VALUE: HAL_TIMEx_OCN_Stop_IT:Channel <- $r1
	cmp	r1, #4
	beq	.LBB13_18
.Ltmp264:
@ %bb.16:
	@DEBUG_VALUE: HAL_TIMEx_OCN_Stop_IT:Channel <- $r1
	cmp	r1, #0
	mov.w	r1, #1
.Ltmp265:
	@DEBUG_VALUE: HAL_TIMEx_OCN_Stop_IT:Channel <- [DW_OP_LLVM_entry_value 1] $r1
	ite	ne
	strbne.w	r1, [r0, #69]
	strbeq.w	r1, [r0, #66]
	b	.LBB13_19
.Ltmp266:
.LBB13_17:
	@DEBUG_VALUE: HAL_TIMEx_OCN_Stop_IT:Channel <- $r1
	.loc	7 0 5 is_stmt 0                 @ ../Library/STM32F4xx_HAL_Driver/Src/stm32f4xx_hal_tim_ex.c:0:5
	movs	r1, #1
.Ltmp267:
	@DEBUG_VALUE: HAL_TIMEx_OCN_Stop_IT:Channel <- [DW_OP_LLVM_entry_value 1] $r1
	.loc	7 849 5                         @ ../Library/STM32F4xx_HAL_Driver/Src/stm32f4xx_hal_tim_ex.c:849:5
	strb.w	r1, [r0, #68]
	b	.LBB13_19
.Ltmp268:
.LBB13_18:
	@DEBUG_VALUE: HAL_TIMEx_OCN_Stop_IT:Channel <- $r1
	.loc	7 0 5                           @ ../Library/STM32F4xx_HAL_Driver/Src/stm32f4xx_hal_tim_ex.c:0:5
	movs	r1, #1
.Ltmp269:
	@DEBUG_VALUE: HAL_TIMEx_OCN_Stop_IT:Channel <- [DW_OP_LLVM_entry_value 1] $r1
	.loc	7 849 5                         @ ../Library/STM32F4xx_HAL_Driver/Src/stm32f4xx_hal_tim_ex.c:849:5
	strb.w	r1, [r0, #67]
.Ltmp270:
.LBB13_19:
	@DEBUG_VALUE: HAL_TIMEx_OCN_Stop_IT:Channel <- [DW_OP_LLVM_entry_value 1] $r1
	.loc	7 0 5                           @ ../Library/STM32F4xx_HAL_Driver/Src/stm32f4xx_hal_tim_ex.c:0:5
	movs	r0, #0
	.loc	7 853 3 is_stmt 1               @ ../Library/STM32F4xx_HAL_Driver/Src/stm32f4xx_hal_tim_ex.c:853:3
	pop	{r7, pc}
.Ltmp271:
.Lfunc_end13:
	.size	HAL_TIMEx_OCN_Stop_IT, .Lfunc_end13-HAL_TIMEx_OCN_Stop_IT
	.cfi_endproc
	.cantunwind
	.fnend
                                        @ -- End function
	.section	.text.HAL_TIMEx_OCN_Start_DMA,"ax",%progbits
	.hidden	HAL_TIMEx_OCN_Start_DMA         @ -- Begin function HAL_TIMEx_OCN_Start_DMA
	.globl	HAL_TIMEx_OCN_Start_DMA
	.p2align	1
	.type	HAL_TIMEx_OCN_Start_DMA,%function
	.code	16                              @ @HAL_TIMEx_OCN_Start_DMA
	.thumb_func
HAL_TIMEx_OCN_Start_DMA:
.Lfunc_begin14:
	.loc	7 870 0                         @ ../Library/STM32F4xx_HAL_Driver/Src/stm32f4xx_hal_tim_ex.c:870:0
	.fnstart
	.cfi_startproc
@ %bb.0:
	@DEBUG_VALUE: HAL_TIMEx_OCN_Start_DMA:htim <- $r0
	@DEBUG_VALUE: HAL_TIMEx_OCN_Start_DMA:Channel <- $r1
	@DEBUG_VALUE: HAL_TIMEx_OCN_Start_DMA:pData <- $r2
	@DEBUG_VALUE: HAL_TIMEx_OCN_Start_DMA:Length <- $r3
	.save	{r4, r5, r7, lr}
	push	{r4, r5, r7, lr}
	.cfi_def_cfa_offset 16
	.cfi_offset lr, -4
	.cfi_offset r7, -8
	.cfi_offset r5, -12
	.cfi_offset r4, -16
	mov	r4, r1
	@DEBUG_VALUE: HAL_TIMEx_OCN_Start_DMA:Length <- $r3
	@DEBUG_VALUE: HAL_TIMEx_OCN_Start_DMA:pData <- $r2
.Ltmp272:
	@DEBUG_VALUE: HAL_TIMEx_OCN_Start_DMA:Channel <- $r4
	mov	r5, r0
.Ltmp273:
	@DEBUG_VALUE: HAL_TIMEx_OCN_Start_DMA:htim <- $r5
	@DEBUG_VALUE: HAL_TIMEx_OCN_Start_DMA:status <- 0
	@DEBUG_VALUE: HAL_TIMEx_OCN_Start_DMA:htim <- $r5
	.loc	7 878 7 prologue_end            @ ../Library/STM32F4xx_HAL_Driver/Src/stm32f4xx_hal_tim_ex.c:878:7
	cbz	r1, .LBB14_3
.Ltmp274:
@ %bb.1:
	@DEBUG_VALUE: HAL_TIMEx_OCN_Start_DMA:htim <- $r5
	@DEBUG_VALUE: HAL_TIMEx_OCN_Start_DMA:Channel <- $r4
	@DEBUG_VALUE: HAL_TIMEx_OCN_Start_DMA:Length <- $r3
	@DEBUG_VALUE: HAL_TIMEx_OCN_Start_DMA:pData <- $r2
	@DEBUG_VALUE: HAL_TIMEx_OCN_Start_DMA:status <- 0
	cmp	r4, #8
	beq	.LBB14_5
.Ltmp275:
@ %bb.2:
	@DEBUG_VALUE: HAL_TIMEx_OCN_Start_DMA:htim <- $r5
	@DEBUG_VALUE: HAL_TIMEx_OCN_Start_DMA:Channel <- $r4
	@DEBUG_VALUE: HAL_TIMEx_OCN_Start_DMA:Length <- $r3
	@DEBUG_VALUE: HAL_TIMEx_OCN_Start_DMA:pData <- $r2
	@DEBUG_VALUE: HAL_TIMEx_OCN_Start_DMA:status <- 0
	cmp	r4, #4
	ite	ne
	addne.w	r0, r5, #69
	addeq.w	r0, r5, #67
	b	.LBB14_6
.Ltmp276:
.LBB14_3:
	@DEBUG_VALUE: HAL_TIMEx_OCN_Start_DMA:htim <- $r5
	@DEBUG_VALUE: HAL_TIMEx_OCN_Start_DMA:Channel <- $r4
	@DEBUG_VALUE: HAL_TIMEx_OCN_Start_DMA:Length <- $r3
	@DEBUG_VALUE: HAL_TIMEx_OCN_Start_DMA:pData <- $r2
	@DEBUG_VALUE: HAL_TIMEx_OCN_Start_DMA:status <- 0
	ldrb.w	r0, [r5, #66]
.Ltmp277:
	.loc	7 878 7 is_stmt 0               @ ../Library/STM32F4xx_HAL_Driver/Src/stm32f4xx_hal_tim_ex.c:878:7
	cmp	r0, #2
	beq	.LBB14_7
.Ltmp278:
@ %bb.4:
	@DEBUG_VALUE: HAL_TIMEx_OCN_Start_DMA:htim <- $r5
	@DEBUG_VALUE: HAL_TIMEx_OCN_Start_DMA:Channel <- $r4
	@DEBUG_VALUE: HAL_TIMEx_OCN_Start_DMA:Length <- $r3
	@DEBUG_VALUE: HAL_TIMEx_OCN_Start_DMA:pData <- $r2
	@DEBUG_VALUE: HAL_TIMEx_OCN_Start_DMA:status <- 0
	.loc	7 882 12 is_stmt 1              @ ../Library/STM32F4xx_HAL_Driver/Src/stm32f4xx_hal_tim_ex.c:882:12
	add.w	r0, r5, #66
	b	.LBB14_11
.Ltmp279:
.LBB14_5:
	@DEBUG_VALUE: HAL_TIMEx_OCN_Start_DMA:htim <- $r5
	@DEBUG_VALUE: HAL_TIMEx_OCN_Start_DMA:Channel <- $r4
	@DEBUG_VALUE: HAL_TIMEx_OCN_Start_DMA:Length <- $r3
	@DEBUG_VALUE: HAL_TIMEx_OCN_Start_DMA:pData <- $r2
	@DEBUG_VALUE: HAL_TIMEx_OCN_Start_DMA:status <- 0
	.loc	7 878 7                         @ ../Library/STM32F4xx_HAL_Driver/Src/stm32f4xx_hal_tim_ex.c:878:7
	add.w	r0, r5, #68
.Ltmp280:
.LBB14_6:
	@DEBUG_VALUE: HAL_TIMEx_OCN_Start_DMA:htim <- $r5
	@DEBUG_VALUE: HAL_TIMEx_OCN_Start_DMA:Channel <- $r4
	@DEBUG_VALUE: HAL_TIMEx_OCN_Start_DMA:Length <- $r3
	@DEBUG_VALUE: HAL_TIMEx_OCN_Start_DMA:pData <- $r2
	@DEBUG_VALUE: HAL_TIMEx_OCN_Start_DMA:status <- 0
	ldrb	r0, [r0]
.Ltmp281:
	.loc	7 878 7 is_stmt 0               @ ../Library/STM32F4xx_HAL_Driver/Src/stm32f4xx_hal_tim_ex.c:878:7
	cmp	r0, #2
	bne	.LBB14_8
.Ltmp282:
.LBB14_7:
	@DEBUG_VALUE: HAL_TIMEx_OCN_Start_DMA:htim <- $r5
	@DEBUG_VALUE: HAL_TIMEx_OCN_Start_DMA:Channel <- $r4
	@DEBUG_VALUE: HAL_TIMEx_OCN_Start_DMA:Length <- $r3
	@DEBUG_VALUE: HAL_TIMEx_OCN_Start_DMA:pData <- $r2
	@DEBUG_VALUE: HAL_TIMEx_OCN_Start_DMA:status <- 0
	.loc	7 0 7                           @ ../Library/STM32F4xx_HAL_Driver/Src/stm32f4xx_hal_tim_ex.c:0:7
	movs	r0, #2
	.loc	7 993 1 is_stmt 1               @ ../Library/STM32F4xx_HAL_Driver/Src/stm32f4xx_hal_tim_ex.c:993:1
	pop	{r4, r5, r7, pc}
.Ltmp283:
.LBB14_8:
	@DEBUG_VALUE: HAL_TIMEx_OCN_Start_DMA:htim <- $r5
	@DEBUG_VALUE: HAL_TIMEx_OCN_Start_DMA:Channel <- $r4
	@DEBUG_VALUE: HAL_TIMEx_OCN_Start_DMA:Length <- $r3
	@DEBUG_VALUE: HAL_TIMEx_OCN_Start_DMA:pData <- $r2
	@DEBUG_VALUE: HAL_TIMEx_OCN_Start_DMA:status <- 0
	.loc	7 882 12                        @ ../Library/STM32F4xx_HAL_Driver/Src/stm32f4xx_hal_tim_ex.c:882:12
	cmp	r4, #8
	beq	.LBB14_10
.Ltmp284:
@ %bb.9:
	@DEBUG_VALUE: HAL_TIMEx_OCN_Start_DMA:htim <- $r5
	@DEBUG_VALUE: HAL_TIMEx_OCN_Start_DMA:Channel <- $r4
	@DEBUG_VALUE: HAL_TIMEx_OCN_Start_DMA:Length <- $r3
	@DEBUG_VALUE: HAL_TIMEx_OCN_Start_DMA:pData <- $r2
	@DEBUG_VALUE: HAL_TIMEx_OCN_Start_DMA:status <- 0
	cmp	r4, #4
	ite	ne
	addne.w	r0, r5, #69
	addeq.w	r0, r5, #67
	b	.LBB14_11
.Ltmp285:
.LBB14_10:
	@DEBUG_VALUE: HAL_TIMEx_OCN_Start_DMA:htim <- $r5
	@DEBUG_VALUE: HAL_TIMEx_OCN_Start_DMA:Channel <- $r4
	@DEBUG_VALUE: HAL_TIMEx_OCN_Start_DMA:Length <- $r3
	@DEBUG_VALUE: HAL_TIMEx_OCN_Start_DMA:pData <- $r2
	@DEBUG_VALUE: HAL_TIMEx_OCN_Start_DMA:status <- 0
	add.w	r0, r5, #68
.Ltmp286:
.LBB14_11:
	@DEBUG_VALUE: HAL_TIMEx_OCN_Start_DMA:htim <- $r5
	@DEBUG_VALUE: HAL_TIMEx_OCN_Start_DMA:Channel <- $r4
	@DEBUG_VALUE: HAL_TIMEx_OCN_Start_DMA:Length <- $r3
	@DEBUG_VALUE: HAL_TIMEx_OCN_Start_DMA:pData <- $r2
	@DEBUG_VALUE: HAL_TIMEx_OCN_Start_DMA:status <- 0
	@DEBUG_VALUE: HAL_TIMEx_OCN_Start_DMA:Length <- $r3
	ldrb	r0, [r0]
.Ltmp287:
	.loc	7 882 12 is_stmt 0              @ ../Library/STM32F4xx_HAL_Driver/Src/stm32f4xx_hal_tim_ex.c:882:12
	cmp	r0, #1
	bne	.LBB14_14
.Ltmp288:
@ %bb.12:
	@DEBUG_VALUE: HAL_TIMEx_OCN_Start_DMA:htim <- $r5
	@DEBUG_VALUE: HAL_TIMEx_OCN_Start_DMA:Channel <- $r4
	@DEBUG_VALUE: HAL_TIMEx_OCN_Start_DMA:Length <- $r3
	@DEBUG_VALUE: HAL_TIMEx_OCN_Start_DMA:pData <- $r2
	@DEBUG_VALUE: HAL_TIMEx_OCN_Start_DMA:status <- 0
	@DEBUG_VALUE: HAL_TIMEx_OCN_Start_DMA:Length <- $r3
	.loc	7 884 25 is_stmt 1              @ ../Library/STM32F4xx_HAL_Driver/Src/stm32f4xx_hal_tim_ex.c:884:25
	cbnz	r2, .LBB14_15
.Ltmp289:
@ %bb.13:
	@DEBUG_VALUE: HAL_TIMEx_OCN_Start_DMA:htim <- $r5
	@DEBUG_VALUE: HAL_TIMEx_OCN_Start_DMA:Channel <- $r4
	@DEBUG_VALUE: HAL_TIMEx_OCN_Start_DMA:Length <- $r3
	@DEBUG_VALUE: HAL_TIMEx_OCN_Start_DMA:pData <- $r2
	@DEBUG_VALUE: HAL_TIMEx_OCN_Start_DMA:status <- 0
	cbz	r3, .LBB14_15
.Ltmp290:
.LBB14_14:
	@DEBUG_VALUE: HAL_TIMEx_OCN_Start_DMA:htim <- $r5
	@DEBUG_VALUE: HAL_TIMEx_OCN_Start_DMA:Channel <- $r4
	@DEBUG_VALUE: HAL_TIMEx_OCN_Start_DMA:status <- 0
	.loc	7 0 25 is_stmt 0                @ ../Library/STM32F4xx_HAL_Driver/Src/stm32f4xx_hal_tim_ex.c:0:25
	movs	r0, #1
	.loc	7 993 1 is_stmt 1               @ ../Library/STM32F4xx_HAL_Driver/Src/stm32f4xx_hal_tim_ex.c:993:1
	pop	{r4, r5, r7, pc}
.Ltmp291:
.LBB14_15:
	@DEBUG_VALUE: HAL_TIMEx_OCN_Start_DMA:htim <- $r5
	@DEBUG_VALUE: HAL_TIMEx_OCN_Start_DMA:Channel <- $r4
	@DEBUG_VALUE: HAL_TIMEx_OCN_Start_DMA:Length <- $r3
	@DEBUG_VALUE: HAL_TIMEx_OCN_Start_DMA:pData <- $r2
	@DEBUG_VALUE: HAL_TIMEx_OCN_Start_DMA:status <- 0
	@DEBUG_VALUE: HAL_TIMEx_OCN_Start_DMA:Length <- $r3
	.loc	7 0 1 is_stmt 0                 @ ../Library/STM32F4xx_HAL_Driver/Src/stm32f4xx_hal_tim_ex.c:0:1
	movs	r0, #2
.Ltmp292:
	.loc	7 890 7 is_stmt 1               @ ../Library/STM32F4xx_HAL_Driver/Src/stm32f4xx_hal_tim_ex.c:890:7
	cbz	r4, .LBB14_20
.Ltmp293:
@ %bb.16:
	@DEBUG_VALUE: HAL_TIMEx_OCN_Start_DMA:htim <- $r5
	@DEBUG_VALUE: HAL_TIMEx_OCN_Start_DMA:Channel <- $r4
	@DEBUG_VALUE: HAL_TIMEx_OCN_Start_DMA:Length <- $r3
	@DEBUG_VALUE: HAL_TIMEx_OCN_Start_DMA:pData <- $r2
	@DEBUG_VALUE: HAL_TIMEx_OCN_Start_DMA:status <- 0
	cmp	r4, #8
	beq	.LBB14_22
.Ltmp294:
@ %bb.17:
	@DEBUG_VALUE: HAL_TIMEx_OCN_Start_DMA:htim <- $r5
	@DEBUG_VALUE: HAL_TIMEx_OCN_Start_DMA:Channel <- $r4
	@DEBUG_VALUE: HAL_TIMEx_OCN_Start_DMA:Length <- $r3
	@DEBUG_VALUE: HAL_TIMEx_OCN_Start_DMA:pData <- $r2
	@DEBUG_VALUE: HAL_TIMEx_OCN_Start_DMA:status <- 0
	cmp	r4, #4
	bne.w	.LBB14_28
.Ltmp295:
@ %bb.18:
	@DEBUG_VALUE: HAL_TIMEx_OCN_Start_DMA:htim <- $r5
	@DEBUG_VALUE: HAL_TIMEx_OCN_Start_DMA:Channel <- $r4
	@DEBUG_VALUE: HAL_TIMEx_OCN_Start_DMA:Length <- $r3
	@DEBUG_VALUE: HAL_TIMEx_OCN_Start_DMA:pData <- $r2
	@DEBUG_VALUE: HAL_TIMEx_OCN_Start_DMA:status <- 0
	strb.w	r0, [r5, #67]
.Ltmp296:
	.loc	7 924 7                         @ ../Library/STM32F4xx_HAL_Driver/Src/stm32f4xx_hal_tim_ex.c:924:7
	ldr	r0, [r5, #40]
	.loc	7 924 52 is_stmt 0              @ ../Library/STM32F4xx_HAL_Driver/Src/stm32f4xx_hal_tim_ex.c:924:52
	movw	r1, :lower16:TIM_DMADelayPulseNCplt
	movt	r1, :upper16:TIM_DMADelayPulseNCplt
	str	r1, [r0, #60]
	.loc	7 925 7 is_stmt 1               @ ../Library/STM32F4xx_HAL_Driver/Src/stm32f4xx_hal_tim_ex.c:925:7
	ldr	r0, [r5, #40]
	.loc	7 925 56 is_stmt 0              @ ../Library/STM32F4xx_HAL_Driver/Src/stm32f4xx_hal_tim_ex.c:925:56
	movw	r1, :lower16:TIM_DMADelayPulseHalfCplt
	movt	r1, :upper16:TIM_DMADelayPulseHalfCplt
	str	r1, [r0, #64]
	.loc	7 928 7 is_stmt 1               @ ../Library/STM32F4xx_HAL_Driver/Src/stm32f4xx_hal_tim_ex.c:928:7
	ldr	r0, [r5, #40]
	.loc	7 928 53 is_stmt 0              @ ../Library/STM32F4xx_HAL_Driver/Src/stm32f4xx_hal_tim_ex.c:928:53
	movw	r1, :lower16:TIM_DMAErrorCCxN
.Ltmp297:
	.loc	7 931 90 is_stmt 1              @ ../Library/STM32F4xx_HAL_Driver/Src/stm32f4xx_hal_tim_ex.c:931:90
	ldr.w	r12, [r5]
.Ltmp298:
	.loc	7 928 53                        @ ../Library/STM32F4xx_HAL_Driver/Src/stm32f4xx_hal_tim_ex.c:928:53
	movt	r1, :upper16:TIM_DMAErrorCCxN
	str	r1, [r0, #76]
.Ltmp299:
	.loc	7 931 28                        @ ../Library/STM32F4xx_HAL_Driver/Src/stm32f4xx_hal_tim_ex.c:931:28
	ldr	r0, [r5, #40]
	.loc	7 931 100 is_stmt 0             @ ../Library/STM32F4xx_HAL_Driver/Src/stm32f4xx_hal_tim_ex.c:931:100
	add.w	r12, r12, #56
	.loc	7 931 11                        @ ../Library/STM32F4xx_HAL_Driver/Src/stm32f4xx_hal_tim_ex.c:931:11
	mov	r1, r2
	mov	r2, r12
.Ltmp300:
	@DEBUG_VALUE: HAL_TIMEx_OCN_Start_DMA:pData <- [DW_OP_LLVM_entry_value 1] $r2
	bl	HAL_DMA_Start_IT
.Ltmp301:
	@DEBUG_VALUE: HAL_TIMEx_OCN_Start_DMA:Length <- [DW_OP_LLVM_entry_value 1] $r3
	.loc	7 931 11                        @ ../Library/STM32F4xx_HAL_Driver/Src/stm32f4xx_hal_tim_ex.c:931:11
	cmp	r0, #0
	bne	.LBB14_14
.Ltmp302:
@ %bb.19:
	@DEBUG_VALUE: HAL_TIMEx_OCN_Start_DMA:htim <- $r5
	@DEBUG_VALUE: HAL_TIMEx_OCN_Start_DMA:Channel <- $r4
	@DEBUG_VALUE: HAL_TIMEx_OCN_Start_DMA:Length <- [DW_OP_LLVM_entry_value 1] $r3
	@DEBUG_VALUE: HAL_TIMEx_OCN_Start_DMA:pData <- [DW_OP_LLVM_entry_value 1] $r2
	@DEBUG_VALUE: HAL_TIMEx_OCN_Start_DMA:status <- 0
	.loc	7 0 11                          @ ../Library/STM32F4xx_HAL_Driver/Src/stm32f4xx_hal_tim_ex.c:0:11
	mov.w	r1, #1024
	b	.LBB14_24
.Ltmp303:
.LBB14_20:
	@DEBUG_VALUE: HAL_TIMEx_OCN_Start_DMA:htim <- $r5
	@DEBUG_VALUE: HAL_TIMEx_OCN_Start_DMA:Channel <- $r4
	@DEBUG_VALUE: HAL_TIMEx_OCN_Start_DMA:Length <- $r3
	@DEBUG_VALUE: HAL_TIMEx_OCN_Start_DMA:pData <- $r2
	@DEBUG_VALUE: HAL_TIMEx_OCN_Start_DMA:status <- 0
	.loc	7 890 7 is_stmt 1               @ ../Library/STM32F4xx_HAL_Driver/Src/stm32f4xx_hal_tim_ex.c:890:7
	strb.w	r0, [r5, #66]
.Ltmp304:
	.loc	7 903 7                         @ ../Library/STM32F4xx_HAL_Driver/Src/stm32f4xx_hal_tim_ex.c:903:7
	ldr	r0, [r5, #36]
	.loc	7 903 52 is_stmt 0              @ ../Library/STM32F4xx_HAL_Driver/Src/stm32f4xx_hal_tim_ex.c:903:52
	movw	r1, :lower16:TIM_DMADelayPulseNCplt
	movt	r1, :upper16:TIM_DMADelayPulseNCplt
	str	r1, [r0, #60]
	.loc	7 904 7 is_stmt 1               @ ../Library/STM32F4xx_HAL_Driver/Src/stm32f4xx_hal_tim_ex.c:904:7
	ldr	r0, [r5, #36]
	.loc	7 904 56 is_stmt 0              @ ../Library/STM32F4xx_HAL_Driver/Src/stm32f4xx_hal_tim_ex.c:904:56
	movw	r1, :lower16:TIM_DMADelayPulseHalfCplt
	movt	r1, :upper16:TIM_DMADelayPulseHalfCplt
	str	r1, [r0, #64]
	.loc	7 907 7 is_stmt 1               @ ../Library/STM32F4xx_HAL_Driver/Src/stm32f4xx_hal_tim_ex.c:907:7
	ldr	r0, [r5, #36]
	.loc	7 907 53 is_stmt 0              @ ../Library/STM32F4xx_HAL_Driver/Src/stm32f4xx_hal_tim_ex.c:907:53
	movw	r1, :lower16:TIM_DMAErrorCCxN
.Ltmp305:
	.loc	7 910 90 is_stmt 1              @ ../Library/STM32F4xx_HAL_Driver/Src/stm32f4xx_hal_tim_ex.c:910:90
	ldr.w	r12, [r5]
.Ltmp306:
	.loc	7 907 53                        @ ../Library/STM32F4xx_HAL_Driver/Src/stm32f4xx_hal_tim_ex.c:907:53
	movt	r1, :upper16:TIM_DMAErrorCCxN
	str	r1, [r0, #76]
.Ltmp307:
	.loc	7 910 28                        @ ../Library/STM32F4xx_HAL_Driver/Src/stm32f4xx_hal_tim_ex.c:910:28
	ldr	r0, [r5, #36]
	.loc	7 910 100 is_stmt 0             @ ../Library/STM32F4xx_HAL_Driver/Src/stm32f4xx_hal_tim_ex.c:910:100
	add.w	r12, r12, #52
	.loc	7 910 11                        @ ../Library/STM32F4xx_HAL_Driver/Src/stm32f4xx_hal_tim_ex.c:910:11
	mov	r1, r2
	mov	r2, r12
.Ltmp308:
	@DEBUG_VALUE: HAL_TIMEx_OCN_Start_DMA:pData <- [DW_OP_LLVM_entry_value 1] $r2
	bl	HAL_DMA_Start_IT
.Ltmp309:
	@DEBUG_VALUE: HAL_TIMEx_OCN_Start_DMA:Length <- [DW_OP_LLVM_entry_value 1] $r3
	.loc	7 910 11                        @ ../Library/STM32F4xx_HAL_Driver/Src/stm32f4xx_hal_tim_ex.c:910:11
	cmp	r0, #0
	bne	.LBB14_14
.Ltmp310:
@ %bb.21:
	@DEBUG_VALUE: HAL_TIMEx_OCN_Start_DMA:htim <- $r5
	@DEBUG_VALUE: HAL_TIMEx_OCN_Start_DMA:Channel <- $r4
	@DEBUG_VALUE: HAL_TIMEx_OCN_Start_DMA:Length <- [DW_OP_LLVM_entry_value 1] $r3
	@DEBUG_VALUE: HAL_TIMEx_OCN_Start_DMA:pData <- [DW_OP_LLVM_entry_value 1] $r2
	@DEBUG_VALUE: HAL_TIMEx_OCN_Start_DMA:status <- 0
	.loc	7 0 11                          @ ../Library/STM32F4xx_HAL_Driver/Src/stm32f4xx_hal_tim_ex.c:0:11
	mov.w	r1, #512
	b	.LBB14_24
.Ltmp311:
.LBB14_22:
	@DEBUG_VALUE: HAL_TIMEx_OCN_Start_DMA:htim <- $r5
	@DEBUG_VALUE: HAL_TIMEx_OCN_Start_DMA:Channel <- $r4
	@DEBUG_VALUE: HAL_TIMEx_OCN_Start_DMA:Length <- $r3
	@DEBUG_VALUE: HAL_TIMEx_OCN_Start_DMA:pData <- $r2
	@DEBUG_VALUE: HAL_TIMEx_OCN_Start_DMA:status <- 0
	.loc	7 890 7 is_stmt 1               @ ../Library/STM32F4xx_HAL_Driver/Src/stm32f4xx_hal_tim_ex.c:890:7
	strb.w	r0, [r5, #68]
.Ltmp312:
	.loc	7 945 7                         @ ../Library/STM32F4xx_HAL_Driver/Src/stm32f4xx_hal_tim_ex.c:945:7
	ldr	r0, [r5, #44]
	.loc	7 945 52 is_stmt 0              @ ../Library/STM32F4xx_HAL_Driver/Src/stm32f4xx_hal_tim_ex.c:945:52
	movw	r1, :lower16:TIM_DMADelayPulseNCplt
	movt	r1, :upper16:TIM_DMADelayPulseNCplt
	str	r1, [r0, #60]
	.loc	7 946 7 is_stmt 1               @ ../Library/STM32F4xx_HAL_Driver/Src/stm32f4xx_hal_tim_ex.c:946:7
	ldr	r0, [r5, #44]
	.loc	7 946 56 is_stmt 0              @ ../Library/STM32F4xx_HAL_Driver/Src/stm32f4xx_hal_tim_ex.c:946:56
	movw	r1, :lower16:TIM_DMADelayPulseHalfCplt
	movt	r1, :upper16:TIM_DMADelayPulseHalfCplt
	str	r1, [r0, #64]
	.loc	7 949 7 is_stmt 1               @ ../Library/STM32F4xx_HAL_Driver/Src/stm32f4xx_hal_tim_ex.c:949:7
	ldr	r0, [r5, #44]
	.loc	7 949 53 is_stmt 0              @ ../Library/STM32F4xx_HAL_Driver/Src/stm32f4xx_hal_tim_ex.c:949:53
	movw	r1, :lower16:TIM_DMAErrorCCxN
.Ltmp313:
	.loc	7 952 90 is_stmt 1              @ ../Library/STM32F4xx_HAL_Driver/Src/stm32f4xx_hal_tim_ex.c:952:90
	ldr.w	r12, [r5]
.Ltmp314:
	.loc	7 949 53                        @ ../Library/STM32F4xx_HAL_Driver/Src/stm32f4xx_hal_tim_ex.c:949:53
	movt	r1, :upper16:TIM_DMAErrorCCxN
	str	r1, [r0, #76]
.Ltmp315:
	.loc	7 952 28                        @ ../Library/STM32F4xx_HAL_Driver/Src/stm32f4xx_hal_tim_ex.c:952:28
	ldr	r0, [r5, #44]
	.loc	7 952 100 is_stmt 0             @ ../Library/STM32F4xx_HAL_Driver/Src/stm32f4xx_hal_tim_ex.c:952:100
	add.w	r12, r12, #60
	.loc	7 952 11                        @ ../Library/STM32F4xx_HAL_Driver/Src/stm32f4xx_hal_tim_ex.c:952:11
	mov	r1, r2
	mov	r2, r12
.Ltmp316:
	@DEBUG_VALUE: HAL_TIMEx_OCN_Start_DMA:pData <- [DW_OP_LLVM_entry_value 1] $r2
	bl	HAL_DMA_Start_IT
.Ltmp317:
	@DEBUG_VALUE: HAL_TIMEx_OCN_Start_DMA:Length <- [DW_OP_LLVM_entry_value 1] $r3
	.loc	7 952 11                        @ ../Library/STM32F4xx_HAL_Driver/Src/stm32f4xx_hal_tim_ex.c:952:11
	cmp	r0, #0
	bne	.LBB14_14
.Ltmp318:
@ %bb.23:
	@DEBUG_VALUE: HAL_TIMEx_OCN_Start_DMA:htim <- $r5
	@DEBUG_VALUE: HAL_TIMEx_OCN_Start_DMA:Channel <- $r4
	@DEBUG_VALUE: HAL_TIMEx_OCN_Start_DMA:Length <- [DW_OP_LLVM_entry_value 1] $r3
	@DEBUG_VALUE: HAL_TIMEx_OCN_Start_DMA:pData <- [DW_OP_LLVM_entry_value 1] $r2
	@DEBUG_VALUE: HAL_TIMEx_OCN_Start_DMA:status <- 0
	.loc	7 0 11                          @ ../Library/STM32F4xx_HAL_Driver/Src/stm32f4xx_hal_tim_ex.c:0:11
	mov.w	r1, #2048
.Ltmp319:
.LBB14_24:
	@DEBUG_VALUE: HAL_TIMEx_OCN_Start_DMA:htim <- $r5
	@DEBUG_VALUE: HAL_TIMEx_OCN_Start_DMA:Channel <- $r4
	@DEBUG_VALUE: HAL_TIMEx_OCN_Start_DMA:Length <- [DW_OP_LLVM_entry_value 1] $r3
	@DEBUG_VALUE: HAL_TIMEx_OCN_Start_DMA:pData <- [DW_OP_LLVM_entry_value 1] $r2
	@DEBUG_VALUE: HAL_TIMEx_OCN_Start_DMA:status <- 0
	ldr	r0, [r5]
	ldr	r2, [r0, #12]
	orrs	r1, r2
	str	r1, [r0, #12]
	movs	r1, #4
.Ltmp320:
	@DEBUG_VALUE: TIM_CCxNChannelCmd:ChannelNState <- 4
	@DEBUG_VALUE: TIM_CCxNChannelCmd:Channel <- $r4
	@DEBUG_VALUE: TIM_CCxNChannelCmd:TIMx <- $r0
	@DEBUG_VALUE: HAL_TIMEx_OCN_Start_DMA:status <- undef
	.loc	7 2411 14 is_stmt 1             @ ../Library/STM32F4xx_HAL_Driver/Src/stm32f4xx_hal_tim_ex.c:2411:14
	ldr	r2, [r0, #32]
	.loc	7 2408 24                       @ ../Library/STM32F4xx_HAL_Driver/Src/stm32f4xx_hal_tim_ex.c:2408:24
	lsls	r1, r4
.Ltmp321:
	@DEBUG_VALUE: TIM_CCxNChannelCmd:tmp <- $r1
	.loc	7 2411 14                       @ ../Library/STM32F4xx_HAL_Driver/Src/stm32f4xx_hal_tim_ex.c:2411:14
	bics	r2, r1
	str	r2, [r0, #32]
	.loc	7 2414 14                       @ ../Library/STM32F4xx_HAL_Driver/Src/stm32f4xx_hal_tim_ex.c:2414:14
	ldr	r2, [r0, #32]
	orrs	r1, r2
.Ltmp322:
	str	r1, [r0, #32]
.Ltmp323:
	.loc	7 974 5                         @ ../Library/STM32F4xx_HAL_Driver/Src/stm32f4xx_hal_tim_ex.c:974:5
	ldr	r1, [r0, #68]
	movw	r2, #6143
	movt	r2, #16384
	orr	r1, r1, #32768
.Ltmp324:
	.loc	7 977 9                         @ ../Library/STM32F4xx_HAL_Driver/Src/stm32f4xx_hal_tim_ex.c:977:9
	cmp	r0, r2
.Ltmp325:
	.loc	7 974 5                         @ ../Library/STM32F4xx_HAL_Driver/Src/stm32f4xx_hal_tim_ex.c:974:5
	str	r1, [r0, #68]
.Ltmp326:
	.loc	7 977 9                         @ ../Library/STM32F4xx_HAL_Driver/Src/stm32f4xx_hal_tim_ex.c:977:9
	bgt	.LBB14_29
.Ltmp327:
@ %bb.25:
	@DEBUG_VALUE: HAL_TIMEx_OCN_Start_DMA:htim <- $r5
	@DEBUG_VALUE: HAL_TIMEx_OCN_Start_DMA:Channel <- $r4
	@DEBUG_VALUE: HAL_TIMEx_OCN_Start_DMA:Length <- [DW_OP_LLVM_entry_value 1] $r3
	@DEBUG_VALUE: HAL_TIMEx_OCN_Start_DMA:pData <- [DW_OP_LLVM_entry_value 1] $r2
	.loc	7 0 9 is_stmt 0                 @ ../Library/STM32F4xx_HAL_Driver/Src/stm32f4xx_hal_tim_ex.c:0:9
	movw	r1, #2047
	movt	r1, #16384
	.loc	7 977 9                         @ ../Library/STM32F4xx_HAL_Driver/Src/stm32f4xx_hal_tim_ex.c:977:9
	cmp	r0, r1
	bgt	.LBB14_32
.Ltmp328:
@ %bb.26:
	@DEBUG_VALUE: HAL_TIMEx_OCN_Start_DMA:htim <- $r5
	@DEBUG_VALUE: HAL_TIMEx_OCN_Start_DMA:Channel <- $r4
	@DEBUG_VALUE: HAL_TIMEx_OCN_Start_DMA:Length <- [DW_OP_LLVM_entry_value 1] $r3
	@DEBUG_VALUE: HAL_TIMEx_OCN_Start_DMA:pData <- [DW_OP_LLVM_entry_value 1] $r2
	cmp.w	r0, #1073741824
	beq	.LBB14_39
.Ltmp329:
@ %bb.27:
	@DEBUG_VALUE: HAL_TIMEx_OCN_Start_DMA:htim <- $r5
	@DEBUG_VALUE: HAL_TIMEx_OCN_Start_DMA:Channel <- $r4
	@DEBUG_VALUE: HAL_TIMEx_OCN_Start_DMA:Length <- [DW_OP_LLVM_entry_value 1] $r3
	@DEBUG_VALUE: HAL_TIMEx_OCN_Start_DMA:pData <- [DW_OP_LLVM_entry_value 1] $r2
	.loc	7 0 9                           @ ../Library/STM32F4xx_HAL_Driver/Src/stm32f4xx_hal_tim_ex.c:0:9
	movw	r1, #1024
	b	.LBB14_34
.Ltmp330:
.LBB14_28:
	@DEBUG_VALUE: HAL_TIMEx_OCN_Start_DMA:htim <- $r5
	@DEBUG_VALUE: HAL_TIMEx_OCN_Start_DMA:Channel <- $r4
	@DEBUG_VALUE: HAL_TIMEx_OCN_Start_DMA:Length <- $r3
	@DEBUG_VALUE: HAL_TIMEx_OCN_Start_DMA:pData <- $r2
	@DEBUG_VALUE: HAL_TIMEx_OCN_Start_DMA:status <- 0
	.loc	7 890 7 is_stmt 1               @ ../Library/STM32F4xx_HAL_Driver/Src/stm32f4xx_hal_tim_ex.c:890:7
	strb.w	r0, [r5, #69]
	b	.LBB14_14
.Ltmp331:
.LBB14_29:
	@DEBUG_VALUE: HAL_TIMEx_OCN_Start_DMA:htim <- $r5
	@DEBUG_VALUE: HAL_TIMEx_OCN_Start_DMA:Channel <- $r4
	@DEBUG_VALUE: HAL_TIMEx_OCN_Start_DMA:Length <- [DW_OP_LLVM_entry_value 1] $r3
	@DEBUG_VALUE: HAL_TIMEx_OCN_Start_DMA:pData <- [DW_OP_LLVM_entry_value 1] $r2
	.loc	7 0 7 is_stmt 0                 @ ../Library/STM32F4xx_HAL_Driver/Src/stm32f4xx_hal_tim_ex.c:0:7
	movw	r1, #1023
	movt	r1, #16385
.Ltmp332:
	.loc	7 977 9 is_stmt 1               @ ../Library/STM32F4xx_HAL_Driver/Src/stm32f4xx_hal_tim_ex.c:977:9
	cmp	r0, r1
	bgt	.LBB14_35
.Ltmp333:
@ %bb.30:
	@DEBUG_VALUE: HAL_TIMEx_OCN_Start_DMA:htim <- $r5
	@DEBUG_VALUE: HAL_TIMEx_OCN_Start_DMA:Channel <- $r4
	@DEBUG_VALUE: HAL_TIMEx_OCN_Start_DMA:Length <- [DW_OP_LLVM_entry_value 1] $r3
	@DEBUG_VALUE: HAL_TIMEx_OCN_Start_DMA:pData <- [DW_OP_LLVM_entry_value 1] $r2
	.loc	7 0 9 is_stmt 0                 @ ../Library/STM32F4xx_HAL_Driver/Src/stm32f4xx_hal_tim_ex.c:0:9
	movw	r1, #6144
	movt	r1, #16384
	.loc	7 977 9                         @ ../Library/STM32F4xx_HAL_Driver/Src/stm32f4xx_hal_tim_ex.c:977:9
	cmp	r0, r1
	beq	.LBB14_39
.Ltmp334:
@ %bb.31:
	@DEBUG_VALUE: HAL_TIMEx_OCN_Start_DMA:htim <- $r5
	@DEBUG_VALUE: HAL_TIMEx_OCN_Start_DMA:Channel <- $r4
	@DEBUG_VALUE: HAL_TIMEx_OCN_Start_DMA:Length <- [DW_OP_LLVM_entry_value 1] $r3
	@DEBUG_VALUE: HAL_TIMEx_OCN_Start_DMA:pData <- [DW_OP_LLVM_entry_value 1] $r2
	.loc	7 0 9                           @ ../Library/STM32F4xx_HAL_Driver/Src/stm32f4xx_hal_tim_ex.c:0:9
	movs	r1, #0
	b	.LBB14_37
.Ltmp335:
.LBB14_32:
	@DEBUG_VALUE: HAL_TIMEx_OCN_Start_DMA:htim <- $r5
	@DEBUG_VALUE: HAL_TIMEx_OCN_Start_DMA:Channel <- $r4
	@DEBUG_VALUE: HAL_TIMEx_OCN_Start_DMA:Length <- [DW_OP_LLVM_entry_value 1] $r3
	@DEBUG_VALUE: HAL_TIMEx_OCN_Start_DMA:pData <- [DW_OP_LLVM_entry_value 1] $r2
	movw	r1, #2048
	movt	r1, #16384
	.loc	7 977 9                         @ ../Library/STM32F4xx_HAL_Driver/Src/stm32f4xx_hal_tim_ex.c:977:9
	cmp	r0, r1
	beq	.LBB14_39
.Ltmp336:
@ %bb.33:
	@DEBUG_VALUE: HAL_TIMEx_OCN_Start_DMA:htim <- $r5
	@DEBUG_VALUE: HAL_TIMEx_OCN_Start_DMA:Channel <- $r4
	@DEBUG_VALUE: HAL_TIMEx_OCN_Start_DMA:Length <- [DW_OP_LLVM_entry_value 1] $r3
	@DEBUG_VALUE: HAL_TIMEx_OCN_Start_DMA:pData <- [DW_OP_LLVM_entry_value 1] $r2
	.loc	7 0 9                           @ ../Library/STM32F4xx_HAL_Driver/Src/stm32f4xx_hal_tim_ex.c:0:9
	movw	r1, #3072
.Ltmp337:
.LBB14_34:
	@DEBUG_VALUE: HAL_TIMEx_OCN_Start_DMA:htim <- $r5
	@DEBUG_VALUE: HAL_TIMEx_OCN_Start_DMA:Channel <- $r4
	@DEBUG_VALUE: HAL_TIMEx_OCN_Start_DMA:Length <- [DW_OP_LLVM_entry_value 1] $r3
	@DEBUG_VALUE: HAL_TIMEx_OCN_Start_DMA:pData <- [DW_OP_LLVM_entry_value 1] $r2
	movt	r1, #16384
	b	.LBB14_38
.Ltmp338:
.LBB14_35:
	@DEBUG_VALUE: HAL_TIMEx_OCN_Start_DMA:htim <- $r5
	@DEBUG_VALUE: HAL_TIMEx_OCN_Start_DMA:Channel <- $r4
	@DEBUG_VALUE: HAL_TIMEx_OCN_Start_DMA:Length <- [DW_OP_LLVM_entry_value 1] $r3
	@DEBUG_VALUE: HAL_TIMEx_OCN_Start_DMA:pData <- [DW_OP_LLVM_entry_value 1] $r2
	movw	r1, #16384
	movt	r1, #16385
	.loc	7 977 9                         @ ../Library/STM32F4xx_HAL_Driver/Src/stm32f4xx_hal_tim_ex.c:977:9
	cmp	r0, r1
	beq	.LBB14_39
.Ltmp339:
@ %bb.36:
	@DEBUG_VALUE: HAL_TIMEx_OCN_Start_DMA:htim <- $r5
	@DEBUG_VALUE: HAL_TIMEx_OCN_Start_DMA:Channel <- $r4
	@DEBUG_VALUE: HAL_TIMEx_OCN_Start_DMA:Length <- [DW_OP_LLVM_entry_value 1] $r3
	@DEBUG_VALUE: HAL_TIMEx_OCN_Start_DMA:pData <- [DW_OP_LLVM_entry_value 1] $r2
	.loc	7 0 9                           @ ../Library/STM32F4xx_HAL_Driver/Src/stm32f4xx_hal_tim_ex.c:0:9
	movw	r1, #1024
.Ltmp340:
.LBB14_37:
	@DEBUG_VALUE: HAL_TIMEx_OCN_Start_DMA:htim <- $r5
	@DEBUG_VALUE: HAL_TIMEx_OCN_Start_DMA:Channel <- $r4
	@DEBUG_VALUE: HAL_TIMEx_OCN_Start_DMA:Length <- [DW_OP_LLVM_entry_value 1] $r3
	@DEBUG_VALUE: HAL_TIMEx_OCN_Start_DMA:pData <- [DW_OP_LLVM_entry_value 1] $r2
	movt	r1, #16385
.Ltmp341:
.LBB14_38:
	@DEBUG_VALUE: HAL_TIMEx_OCN_Start_DMA:htim <- $r5
	@DEBUG_VALUE: HAL_TIMEx_OCN_Start_DMA:Channel <- $r4
	@DEBUG_VALUE: HAL_TIMEx_OCN_Start_DMA:Length <- [DW_OP_LLVM_entry_value 1] $r3
	@DEBUG_VALUE: HAL_TIMEx_OCN_Start_DMA:pData <- [DW_OP_LLVM_entry_value 1] $r2
	.loc	7 977 9                         @ ../Library/STM32F4xx_HAL_Driver/Src/stm32f4xx_hal_tim_ex.c:977:9
	cmp	r0, r1
	bne	.LBB14_40
.Ltmp342:
.LBB14_39:
	@DEBUG_VALUE: HAL_TIMEx_OCN_Start_DMA:htim <- $r5
	@DEBUG_VALUE: HAL_TIMEx_OCN_Start_DMA:Channel <- $r4
	@DEBUG_VALUE: HAL_TIMEx_OCN_Start_DMA:Length <- [DW_OP_LLVM_entry_value 1] $r3
	@DEBUG_VALUE: HAL_TIMEx_OCN_Start_DMA:pData <- [DW_OP_LLVM_entry_value 1] $r2
	.loc	7 979 33 is_stmt 1              @ ../Library/STM32F4xx_HAL_Driver/Src/stm32f4xx_hal_tim_ex.c:979:33
	ldr	r1, [r0, #8]
	.loc	7 979 38 is_stmt 0              @ ../Library/STM32F4xx_HAL_Driver/Src/stm32f4xx_hal_tim_ex.c:979:38
	and	r1, r1, #7
.Ltmp343:
	@DEBUG_VALUE: HAL_TIMEx_OCN_Start_DMA:tmpsmcr <- $r1
	.loc	7 980 11 is_stmt 1              @ ../Library/STM32F4xx_HAL_Driver/Src/stm32f4xx_hal_tim_ex.c:980:11
	cmp	r1, #6
	beq	.LBB14_41
.Ltmp344:
.LBB14_40:
	@DEBUG_VALUE: HAL_TIMEx_OCN_Start_DMA:htim <- $r5
	@DEBUG_VALUE: HAL_TIMEx_OCN_Start_DMA:Channel <- $r4
	@DEBUG_VALUE: HAL_TIMEx_OCN_Start_DMA:Length <- [DW_OP_LLVM_entry_value 1] $r3
	@DEBUG_VALUE: HAL_TIMEx_OCN_Start_DMA:pData <- [DW_OP_LLVM_entry_value 1] $r2
	.loc	7 0 0 is_stmt 0                 @ ../Library/STM32F4xx_HAL_Driver/Src/stm32f4xx_hal_tim_ex.c:0:0
	ldr	r1, [r0]
	orr	r1, r1, #1
	str	r1, [r0]
.Ltmp345:
.LBB14_41:
	@DEBUG_VALUE: HAL_TIMEx_OCN_Start_DMA:htim <- $r5
	@DEBUG_VALUE: HAL_TIMEx_OCN_Start_DMA:Channel <- $r4
	@DEBUG_VALUE: HAL_TIMEx_OCN_Start_DMA:Length <- [DW_OP_LLVM_entry_value 1] $r3
	@DEBUG_VALUE: HAL_TIMEx_OCN_Start_DMA:pData <- [DW_OP_LLVM_entry_value 1] $r2
	movs	r0, #0
	.loc	7 993 1 is_stmt 1               @ ../Library/STM32F4xx_HAL_Driver/Src/stm32f4xx_hal_tim_ex.c:993:1
	pop	{r4, r5, r7, pc}
.Ltmp346:
.Lfunc_end14:
	.size	HAL_TIMEx_OCN_Start_DMA, .Lfunc_end14-HAL_TIMEx_OCN_Start_DMA
	.cfi_endproc
	.cantunwind
	.fnend
                                        @ -- End function
	.section	.text.TIM_DMADelayPulseNCplt,"ax",%progbits
	.p2align	1                               @ -- Begin function TIM_DMADelayPulseNCplt
	.type	TIM_DMADelayPulseNCplt,%function
	.code	16                              @ @TIM_DMADelayPulseNCplt
	.thumb_func
TIM_DMADelayPulseNCplt:
.Lfunc_begin15:
	.loc	7 2301 0                        @ ../Library/STM32F4xx_HAL_Driver/Src/stm32f4xx_hal_tim_ex.c:2301:0
	.fnstart
	.cfi_startproc
@ %bb.0:
	@DEBUG_VALUE: TIM_DMADelayPulseNCplt:hdma <- $r0
	@DEBUG_VALUE: TIM_DMADelayPulseNCplt:hdma <- $r0
	.save	{r4, lr}
	push	{r4, lr}
	.cfi_def_cfa_offset 8
	.cfi_offset lr, -4
	.cfi_offset r4, -8
.Ltmp347:
	.loc	7 2302 79 prologue_end          @ ../Library/STM32F4xx_HAL_Driver/Src/stm32f4xx_hal_tim_ex.c:2302:79
	ldr	r4, [r0, #56]
.Ltmp348:
	@DEBUG_VALUE: TIM_DMADelayPulseNCplt:htim <- $r4
	.loc	7 2304 15                       @ ../Library/STM32F4xx_HAL_Driver/Src/stm32f4xx_hal_tim_ex.c:2304:15
	ldr	r1, [r4, #36]
.Ltmp349:
	.loc	7 2304 7 is_stmt 0              @ ../Library/STM32F4xx_HAL_Driver/Src/stm32f4xx_hal_tim_ex.c:2304:7
	cmp	r1, r0
	beq	.LBB15_6
.Ltmp350:
@ %bb.1:
	@DEBUG_VALUE: TIM_DMADelayPulseNCplt:htim <- $r4
	@DEBUG_VALUE: TIM_DMADelayPulseNCplt:hdma <- $r0
	.loc	7 2313 20 is_stmt 1             @ ../Library/STM32F4xx_HAL_Driver/Src/stm32f4xx_hal_tim_ex.c:2313:20
	ldr	r1, [r4, #40]
.Ltmp351:
	.loc	7 2313 12 is_stmt 0             @ ../Library/STM32F4xx_HAL_Driver/Src/stm32f4xx_hal_tim_ex.c:2313:12
	cmp	r1, r0
	beq	.LBB15_8
.Ltmp352:
@ %bb.2:
	@DEBUG_VALUE: TIM_DMADelayPulseNCplt:htim <- $r4
	@DEBUG_VALUE: TIM_DMADelayPulseNCplt:hdma <- $r0
	.loc	7 2322 20 is_stmt 1             @ ../Library/STM32F4xx_HAL_Driver/Src/stm32f4xx_hal_tim_ex.c:2322:20
	ldr	r1, [r4, #44]
.Ltmp353:
	.loc	7 2322 12 is_stmt 0             @ ../Library/STM32F4xx_HAL_Driver/Src/stm32f4xx_hal_tim_ex.c:2322:12
	cmp	r1, r0
	beq	.LBB15_10
.Ltmp354:
@ %bb.3:
	@DEBUG_VALUE: TIM_DMADelayPulseNCplt:htim <- $r4
	@DEBUG_VALUE: TIM_DMADelayPulseNCplt:hdma <- $r0
	.loc	7 2331 20 is_stmt 1             @ ../Library/STM32F4xx_HAL_Driver/Src/stm32f4xx_hal_tim_ex.c:2331:20
	ldr	r1, [r4, #48]
.Ltmp355:
	.loc	7 2331 12 is_stmt 0             @ ../Library/STM32F4xx_HAL_Driver/Src/stm32f4xx_hal_tim_ex.c:2331:12
	cmp	r1, r0
	bne	.LBB15_12
.Ltmp356:
@ %bb.4:
	@DEBUG_VALUE: TIM_DMADelayPulseNCplt:htim <- $r4
	@DEBUG_VALUE: TIM_DMADelayPulseNCplt:hdma <- $r0
	.loc	7 2335 20 is_stmt 1             @ ../Library/STM32F4xx_HAL_Driver/Src/stm32f4xx_hal_tim_ex.c:2335:20
	ldr	r0, [r0, #28]
.Ltmp357:
	@DEBUG_VALUE: TIM_DMADelayPulseNCplt:hdma <- [DW_OP_LLVM_entry_value 1] $r0
	.loc	7 0 20 is_stmt 0                @ ../Library/STM32F4xx_HAL_Driver/Src/stm32f4xx_hal_tim_ex.c:0:20
	movs	r1, #8
.Ltmp358:
	.loc	7 2333 19 is_stmt 1             @ ../Library/STM32F4xx_HAL_Driver/Src/stm32f4xx_hal_tim_ex.c:2333:19
	strb	r1, [r4, #28]
	.loc	7 2335 9                        @ ../Library/STM32F4xx_HAL_Driver/Src/stm32f4xx_hal_tim_ex.c:2335:9
	cbnz	r0, .LBB15_12
.Ltmp359:
@ %bb.5:
	@DEBUG_VALUE: TIM_DMADelayPulseNCplt:htim <- $r4
	@DEBUG_VALUE: TIM_DMADelayPulseNCplt:hdma <- [DW_OP_LLVM_entry_value 1] $r0
	.loc	7 0 9 is_stmt 0                 @ ../Library/STM32F4xx_HAL_Driver/Src/stm32f4xx_hal_tim_ex.c:0:9
	movs	r0, #1
.Ltmp360:
	.loc	7 2337 7 is_stmt 1              @ ../Library/STM32F4xx_HAL_Driver/Src/stm32f4xx_hal_tim_ex.c:2337:7
	strb.w	r0, [r4, #69]
	b	.LBB15_12
.Ltmp361:
.LBB15_6:
	@DEBUG_VALUE: TIM_DMADelayPulseNCplt:htim <- $r4
	@DEBUG_VALUE: TIM_DMADelayPulseNCplt:hdma <- $r0
	.loc	7 2308 20                       @ ../Library/STM32F4xx_HAL_Driver/Src/stm32f4xx_hal_tim_ex.c:2308:20
	ldr	r1, [r0, #28]
	movs	r0, #1
.Ltmp362:
	@DEBUG_VALUE: TIM_DMADelayPulseNCplt:hdma <- [DW_OP_LLVM_entry_value 1] $r0
	.loc	7 2306 19                       @ ../Library/STM32F4xx_HAL_Driver/Src/stm32f4xx_hal_tim_ex.c:2306:19
	strb	r0, [r4, #28]
	.loc	7 2308 9                        @ ../Library/STM32F4xx_HAL_Driver/Src/stm32f4xx_hal_tim_ex.c:2308:9
	cbnz	r1, .LBB15_12
.Ltmp363:
@ %bb.7:
	@DEBUG_VALUE: TIM_DMADelayPulseNCplt:htim <- $r4
	@DEBUG_VALUE: TIM_DMADelayPulseNCplt:hdma <- [DW_OP_LLVM_entry_value 1] $r0
	.loc	7 2310 7                        @ ../Library/STM32F4xx_HAL_Driver/Src/stm32f4xx_hal_tim_ex.c:2310:7
	strb.w	r0, [r4, #66]
	b	.LBB15_12
.Ltmp364:
.LBB15_8:
	@DEBUG_VALUE: TIM_DMADelayPulseNCplt:htim <- $r4
	@DEBUG_VALUE: TIM_DMADelayPulseNCplt:hdma <- $r0
	.loc	7 2317 20                       @ ../Library/STM32F4xx_HAL_Driver/Src/stm32f4xx_hal_tim_ex.c:2317:20
	ldr	r0, [r0, #28]
.Ltmp365:
	@DEBUG_VALUE: TIM_DMADelayPulseNCplt:hdma <- [DW_OP_LLVM_entry_value 1] $r0
	.loc	7 0 20 is_stmt 0                @ ../Library/STM32F4xx_HAL_Driver/Src/stm32f4xx_hal_tim_ex.c:0:20
	movs	r1, #2
.Ltmp366:
	.loc	7 2315 19 is_stmt 1             @ ../Library/STM32F4xx_HAL_Driver/Src/stm32f4xx_hal_tim_ex.c:2315:19
	strb	r1, [r4, #28]
	.loc	7 2317 9                        @ ../Library/STM32F4xx_HAL_Driver/Src/stm32f4xx_hal_tim_ex.c:2317:9
	cbnz	r0, .LBB15_12
.Ltmp367:
@ %bb.9:
	@DEBUG_VALUE: TIM_DMADelayPulseNCplt:htim <- $r4
	@DEBUG_VALUE: TIM_DMADelayPulseNCplt:hdma <- [DW_OP_LLVM_entry_value 1] $r0
	.loc	7 0 9 is_stmt 0                 @ ../Library/STM32F4xx_HAL_Driver/Src/stm32f4xx_hal_tim_ex.c:0:9
	movs	r0, #1
.Ltmp368:
	.loc	7 2319 7 is_stmt 1              @ ../Library/STM32F4xx_HAL_Driver/Src/stm32f4xx_hal_tim_ex.c:2319:7
	strb.w	r0, [r4, #67]
	b	.LBB15_12
.Ltmp369:
.LBB15_10:
	@DEBUG_VALUE: TIM_DMADelayPulseNCplt:htim <- $r4
	@DEBUG_VALUE: TIM_DMADelayPulseNCplt:hdma <- $r0
	.loc	7 2326 20                       @ ../Library/STM32F4xx_HAL_Driver/Src/stm32f4xx_hal_tim_ex.c:2326:20
	ldr	r0, [r0, #28]
.Ltmp370:
	@DEBUG_VALUE: TIM_DMADelayPulseNCplt:hdma <- [DW_OP_LLVM_entry_value 1] $r0
	.loc	7 0 20 is_stmt 0                @ ../Library/STM32F4xx_HAL_Driver/Src/stm32f4xx_hal_tim_ex.c:0:20
	movs	r1, #4
.Ltmp371:
	.loc	7 2324 19 is_stmt 1             @ ../Library/STM32F4xx_HAL_Driver/Src/stm32f4xx_hal_tim_ex.c:2324:19
	strb	r1, [r4, #28]
	.loc	7 2326 9                        @ ../Library/STM32F4xx_HAL_Driver/Src/stm32f4xx_hal_tim_ex.c:2326:9
	cbnz	r0, .LBB15_12
.Ltmp372:
@ %bb.11:
	@DEBUG_VALUE: TIM_DMADelayPulseNCplt:htim <- $r4
	@DEBUG_VALUE: TIM_DMADelayPulseNCplt:hdma <- [DW_OP_LLVM_entry_value 1] $r0
	.loc	7 0 9 is_stmt 0                 @ ../Library/STM32F4xx_HAL_Driver/Src/stm32f4xx_hal_tim_ex.c:0:9
	movs	r0, #1
.Ltmp373:
	.loc	7 2328 7 is_stmt 1              @ ../Library/STM32F4xx_HAL_Driver/Src/stm32f4xx_hal_tim_ex.c:2328:7
	strb.w	r0, [r4, #68]
.Ltmp374:
.LBB15_12:
	@DEBUG_VALUE: TIM_DMADelayPulseNCplt:htim <- $r4
	.loc	7 2348 3                        @ ../Library/STM32F4xx_HAL_Driver/Src/stm32f4xx_hal_tim_ex.c:2348:3
	mov	r0, r4
	bl	HAL_TIM_PWM_PulseFinishedCallback
.Ltmp375:
	.loc	7 0 3 is_stmt 0                 @ ../Library/STM32F4xx_HAL_Driver/Src/stm32f4xx_hal_tim_ex.c:0:3
	movs	r0, #0
	.loc	7 2351 17 is_stmt 1             @ ../Library/STM32F4xx_HAL_Driver/Src/stm32f4xx_hal_tim_ex.c:2351:17
	strb	r0, [r4, #28]
	.loc	7 2352 1                        @ ../Library/STM32F4xx_HAL_Driver/Src/stm32f4xx_hal_tim_ex.c:2352:1
	pop	{r4, pc}
.Ltmp376:
.Lfunc_end15:
	.size	TIM_DMADelayPulseNCplt, .Lfunc_end15-TIM_DMADelayPulseNCplt
	.cfi_endproc
	.cantunwind
	.fnend
                                        @ -- End function
	.section	.text.TIM_DMAErrorCCxN,"ax",%progbits
	.p2align	1                               @ -- Begin function TIM_DMAErrorCCxN
	.type	TIM_DMAErrorCCxN,%function
	.code	16                              @ @TIM_DMAErrorCCxN
	.thumb_func
TIM_DMAErrorCCxN:
.Lfunc_begin16:
	.loc	7 2360 0                        @ ../Library/STM32F4xx_HAL_Driver/Src/stm32f4xx_hal_tim_ex.c:2360:0
	.fnstart
	.cfi_startproc
@ %bb.0:
	@DEBUG_VALUE: TIM_DMAErrorCCxN:hdma <- $r0
	@DEBUG_VALUE: TIM_DMAErrorCCxN:hdma <- $r0
	.save	{r4, lr}
	push	{r4, lr}
	.cfi_def_cfa_offset 8
	.cfi_offset lr, -4
	.cfi_offset r4, -8
.Ltmp377:
	.loc	7 2361 79 prologue_end          @ ../Library/STM32F4xx_HAL_Driver/Src/stm32f4xx_hal_tim_ex.c:2361:79
	ldr	r4, [r0, #56]
.Ltmp378:
	@DEBUG_VALUE: TIM_DMAErrorCCxN:htim <- $r4
	.loc	7 2363 15                       @ ../Library/STM32F4xx_HAL_Driver/Src/stm32f4xx_hal_tim_ex.c:2363:15
	ldr	r1, [r4, #36]
.Ltmp379:
	.loc	7 2363 7 is_stmt 0              @ ../Library/STM32F4xx_HAL_Driver/Src/stm32f4xx_hal_tim_ex.c:2363:7
	cmp	r1, r0
	beq	.LBB16_4
.Ltmp380:
@ %bb.1:
	@DEBUG_VALUE: TIM_DMAErrorCCxN:htim <- $r4
	@DEBUG_VALUE: TIM_DMAErrorCCxN:hdma <- $r0
	.loc	7 2368 20 is_stmt 1             @ ../Library/STM32F4xx_HAL_Driver/Src/stm32f4xx_hal_tim_ex.c:2368:20
	ldr	r1, [r4, #40]
.Ltmp381:
	.loc	7 2368 12 is_stmt 0             @ ../Library/STM32F4xx_HAL_Driver/Src/stm32f4xx_hal_tim_ex.c:2368:12
	cmp	r1, r0
	beq	.LBB16_5
.Ltmp382:
@ %bb.2:
	@DEBUG_VALUE: TIM_DMAErrorCCxN:htim <- $r4
	@DEBUG_VALUE: TIM_DMAErrorCCxN:hdma <- $r0
	.loc	7 2373 20 is_stmt 1             @ ../Library/STM32F4xx_HAL_Driver/Src/stm32f4xx_hal_tim_ex.c:2373:20
	ldr	r1, [r4, #44]
.Ltmp383:
	.loc	7 2373 12 is_stmt 0             @ ../Library/STM32F4xx_HAL_Driver/Src/stm32f4xx_hal_tim_ex.c:2373:12
	cmp	r1, r0
	bne	.LBB16_6
.Ltmp384:
@ %bb.3:
	@DEBUG_VALUE: TIM_DMAErrorCCxN:htim <- $r4
	@DEBUG_VALUE: TIM_DMAErrorCCxN:hdma <- $r0
	.loc	7 0 12                          @ ../Library/STM32F4xx_HAL_Driver/Src/stm32f4xx_hal_tim_ex.c:0:12
	movs	r0, #4
.Ltmp385:
	@DEBUG_VALUE: TIM_DMAErrorCCxN:hdma <- [DW_OP_LLVM_entry_value 1] $r0
	.loc	7 2375 19 is_stmt 1             @ ../Library/STM32F4xx_HAL_Driver/Src/stm32f4xx_hal_tim_ex.c:2375:19
	strb	r0, [r4, #28]
	movs	r0, #1
	.loc	7 2376 5                        @ ../Library/STM32F4xx_HAL_Driver/Src/stm32f4xx_hal_tim_ex.c:2376:5
	strb.w	r0, [r4, #68]
	b	.LBB16_6
.Ltmp386:
.LBB16_4:
	@DEBUG_VALUE: TIM_DMAErrorCCxN:htim <- $r4
	@DEBUG_VALUE: TIM_DMAErrorCCxN:hdma <- $r0
	.loc	7 0 5 is_stmt 0                 @ ../Library/STM32F4xx_HAL_Driver/Src/stm32f4xx_hal_tim_ex.c:0:5
	movs	r0, #1
.Ltmp387:
	@DEBUG_VALUE: TIM_DMAErrorCCxN:hdma <- [DW_OP_LLVM_entry_value 1] $r0
	.loc	7 2365 19 is_stmt 1             @ ../Library/STM32F4xx_HAL_Driver/Src/stm32f4xx_hal_tim_ex.c:2365:19
	strb	r0, [r4, #28]
	.loc	7 2366 5                        @ ../Library/STM32F4xx_HAL_Driver/Src/stm32f4xx_hal_tim_ex.c:2366:5
	strb.w	r0, [r4, #66]
	b	.LBB16_6
.Ltmp388:
.LBB16_5:
	@DEBUG_VALUE: TIM_DMAErrorCCxN:htim <- $r4
	@DEBUG_VALUE: TIM_DMAErrorCCxN:hdma <- $r0
	.loc	7 0 5 is_stmt 0                 @ ../Library/STM32F4xx_HAL_Driver/Src/stm32f4xx_hal_tim_ex.c:0:5
	movs	r0, #2
.Ltmp389:
	@DEBUG_VALUE: TIM_DMAErrorCCxN:hdma <- [DW_OP_LLVM_entry_value 1] $r0
	.loc	7 2370 19 is_stmt 1             @ ../Library/STM32F4xx_HAL_Driver/Src/stm32f4xx_hal_tim_ex.c:2370:19
	strb	r0, [r4, #28]
	movs	r0, #1
	.loc	7 2371 5                        @ ../Library/STM32F4xx_HAL_Driver/Src/stm32f4xx_hal_tim_ex.c:2371:5
	strb.w	r0, [r4, #67]
.Ltmp390:
.LBB16_6:
	@DEBUG_VALUE: TIM_DMAErrorCCxN:htim <- $r4
	.loc	7 2386 3                        @ ../Library/STM32F4xx_HAL_Driver/Src/stm32f4xx_hal_tim_ex.c:2386:3
	mov	r0, r4
	bl	HAL_TIM_ErrorCallback
.Ltmp391:
	.loc	7 0 3 is_stmt 0                 @ ../Library/STM32F4xx_HAL_Driver/Src/stm32f4xx_hal_tim_ex.c:0:3
	movs	r0, #0
	.loc	7 2389 17 is_stmt 1             @ ../Library/STM32F4xx_HAL_Driver/Src/stm32f4xx_hal_tim_ex.c:2389:17
	strb	r0, [r4, #28]
	.loc	7 2390 1                        @ ../Library/STM32F4xx_HAL_Driver/Src/stm32f4xx_hal_tim_ex.c:2390:1
	pop	{r4, pc}
.Ltmp392:
.Lfunc_end16:
	.size	TIM_DMAErrorCCxN, .Lfunc_end16-TIM_DMAErrorCCxN
	.cfi_endproc
	.cantunwind
	.fnend
                                        @ -- End function
	.section	.text.HAL_TIMEx_OCN_Stop_DMA,"ax",%progbits
	.hidden	HAL_TIMEx_OCN_Stop_DMA          @ -- Begin function HAL_TIMEx_OCN_Stop_DMA
	.globl	HAL_TIMEx_OCN_Stop_DMA
	.p2align	1
	.type	HAL_TIMEx_OCN_Stop_DMA,%function
	.code	16                              @ @HAL_TIMEx_OCN_Stop_DMA
	.thumb_func
HAL_TIMEx_OCN_Stop_DMA:
.Lfunc_begin17:
	.loc	7 1007 0                        @ ../Library/STM32F4xx_HAL_Driver/Src/stm32f4xx_hal_tim_ex.c:1007:0
	.fnstart
	.cfi_startproc
@ %bb.0:
	@DEBUG_VALUE: HAL_TIMEx_OCN_Stop_DMA:htim <- $r0
	@DEBUG_VALUE: HAL_TIMEx_OCN_Stop_DMA:Channel <- $r1
	.save	{r4, r5, r7, lr}
	push	{r4, r5, r7, lr}
	.cfi_def_cfa_offset 16
	.cfi_offset lr, -4
	.cfi_offset r7, -8
	.cfi_offset r5, -12
	.cfi_offset r4, -16
	mov	r5, r1
.Ltmp393:
	@DEBUG_VALUE: HAL_TIMEx_OCN_Stop_DMA:Channel <- $r5
	.loc	7 1013 3 prologue_end           @ ../Library/STM32F4xx_HAL_Driver/Src/stm32f4xx_hal_tim_ex.c:1013:3
	cmp	r1, #8
	mov	r4, r0
.Ltmp394:
	@DEBUG_VALUE: HAL_TIMEx_OCN_Stop_DMA:htim <- $r4
	@DEBUG_VALUE: HAL_TIMEx_OCN_Stop_DMA:status <- 0
	@DEBUG_VALUE: HAL_TIMEx_OCN_Stop_DMA:htim <- $r4
	beq	.LBB17_4
.Ltmp395:
@ %bb.1:
	@DEBUG_VALUE: HAL_TIMEx_OCN_Stop_DMA:Channel <- $r5
	@DEBUG_VALUE: HAL_TIMEx_OCN_Stop_DMA:htim <- $r4
	@DEBUG_VALUE: HAL_TIMEx_OCN_Stop_DMA:status <- 0
	cmp	r5, #4
	beq	.LBB17_5
.Ltmp396:
@ %bb.2:
	@DEBUG_VALUE: HAL_TIMEx_OCN_Stop_DMA:Channel <- $r5
	@DEBUG_VALUE: HAL_TIMEx_OCN_Stop_DMA:htim <- $r4
	@DEBUG_VALUE: HAL_TIMEx_OCN_Stop_DMA:status <- 0
	cmp	r5, #0
	bne	.LBB17_15
.Ltmp397:
@ %bb.3:
	@DEBUG_VALUE: HAL_TIMEx_OCN_Stop_DMA:Channel <- $r5
	@DEBUG_VALUE: HAL_TIMEx_OCN_Stop_DMA:htim <- $r4
	@DEBUG_VALUE: HAL_TIMEx_OCN_Stop_DMA:status <- 0
	.loc	7 1018 7                        @ ../Library/STM32F4xx_HAL_Driver/Src/stm32f4xx_hal_tim_ex.c:1018:7
	mov	r0, r4
	ldr	r1, [r0], #36
	ldr	r2, [r1, #12]
	bic	r2, r2, #512
	b	.LBB17_6
.Ltmp398:
.LBB17_4:
	@DEBUG_VALUE: HAL_TIMEx_OCN_Stop_DMA:Channel <- $r5
	@DEBUG_VALUE: HAL_TIMEx_OCN_Stop_DMA:htim <- $r4
	@DEBUG_VALUE: HAL_TIMEx_OCN_Stop_DMA:status <- 0
	.loc	7 1034 7                        @ ../Library/STM32F4xx_HAL_Driver/Src/stm32f4xx_hal_tim_ex.c:1034:7
	mov	r0, r4
	ldr	r1, [r0], #44
	ldr	r2, [r1, #12]
	bic	r2, r2, #2048
	b	.LBB17_6
.Ltmp399:
.LBB17_5:
	@DEBUG_VALUE: HAL_TIMEx_OCN_Stop_DMA:Channel <- $r5
	@DEBUG_VALUE: HAL_TIMEx_OCN_Stop_DMA:htim <- $r4
	@DEBUG_VALUE: HAL_TIMEx_OCN_Stop_DMA:status <- 0
	.loc	7 1026 7                        @ ../Library/STM32F4xx_HAL_Driver/Src/stm32f4xx_hal_tim_ex.c:1026:7
	mov	r0, r4
	ldr	r1, [r0], #40
	ldr	r2, [r1, #12]
	bic	r2, r2, #1024
.Ltmp400:
.LBB17_6:
	@DEBUG_VALUE: HAL_TIMEx_OCN_Stop_DMA:Channel <- $r5
	@DEBUG_VALUE: HAL_TIMEx_OCN_Stop_DMA:htim <- $r4
	@DEBUG_VALUE: HAL_TIMEx_OCN_Stop_DMA:status <- 0
	.loc	7 0 0 is_stmt 0                 @ ../Library/STM32F4xx_HAL_Driver/Src/stm32f4xx_hal_tim_ex.c:0:0
	str	r2, [r1, #12]
	ldr	r0, [r0]
	bl	HAL_DMA_Abort_IT
.Ltmp401:
	@DEBUG_VALUE: HAL_TIMEx_OCN_Stop_DMA:status <- undef
	.loc	7 1047 30 is_stmt 1             @ ../Library/STM32F4xx_HAL_Driver/Src/stm32f4xx_hal_tim_ex.c:1047:30
	ldr	r0, [r4]
	movs	r1, #4
.Ltmp402:
	@DEBUG_VALUE: TIM_CCxNChannelCmd:ChannelNState <- 0
	@DEBUG_VALUE: TIM_CCxNChannelCmd:Channel <- $r5
	@DEBUG_VALUE: TIM_CCxNChannelCmd:TIMx <- $r0
	.loc	7 2411 14                       @ ../Library/STM32F4xx_HAL_Driver/Src/stm32f4xx_hal_tim_ex.c:2411:14
	ldr	r2, [r0, #32]
	.loc	7 2408 24                       @ ../Library/STM32F4xx_HAL_Driver/Src/stm32f4xx_hal_tim_ex.c:2408:24
	lsls	r1, r5
.Ltmp403:
	@DEBUG_VALUE: TIM_CCxNChannelCmd:tmp <- $r1
	.loc	7 2411 14                       @ ../Library/STM32F4xx_HAL_Driver/Src/stm32f4xx_hal_tim_ex.c:2411:14
	bic.w	r1, r2, r1
.Ltmp404:
	str	r1, [r0, #32]
	.loc	7 2414 14                       @ ../Library/STM32F4xx_HAL_Driver/Src/stm32f4xx_hal_tim_ex.c:2414:14
	ldr	r1, [r0, #32]
	str	r1, [r0, #32]
.Ltmp405:
	.loc	7 1050 5                        @ ../Library/STM32F4xx_HAL_Driver/Src/stm32f4xx_hal_tim_ex.c:1050:5
	ldr	r2, [r0, #32]
	movw	r1, #4369
.Ltmp406:
	.loc	7 1050 5 is_stmt 0              @ ../Library/STM32F4xx_HAL_Driver/Src/stm32f4xx_hal_tim_ex.c:1050:5
	tst	r2, r1
	bne	.LBB17_9
.Ltmp407:
@ %bb.7:
	@DEBUG_VALUE: HAL_TIMEx_OCN_Stop_DMA:Channel <- $r5
	@DEBUG_VALUE: HAL_TIMEx_OCN_Stop_DMA:htim <- $r4
	.loc	7 1050 5                        @ ../Library/STM32F4xx_HAL_Driver/Src/stm32f4xx_hal_tim_ex.c:1050:5
	ldr	r2, [r0, #32]
	movw	r3, #1092
.Ltmp408:
	.loc	7 1050 5                        @ ../Library/STM32F4xx_HAL_Driver/Src/stm32f4xx_hal_tim_ex.c:1050:5
	tst	r2, r3
	bne	.LBB17_9
.Ltmp409:
@ %bb.8:
	@DEBUG_VALUE: HAL_TIMEx_OCN_Stop_DMA:Channel <- $r5
	@DEBUG_VALUE: HAL_TIMEx_OCN_Stop_DMA:htim <- $r4
	.loc	7 1050 5                        @ ../Library/STM32F4xx_HAL_Driver/Src/stm32f4xx_hal_tim_ex.c:1050:5
	ldr	r2, [r0, #68]
	bic	r2, r2, #32768
	str	r2, [r0, #68]
.Ltmp410:
.LBB17_9:
	@DEBUG_VALUE: HAL_TIMEx_OCN_Stop_DMA:Channel <- $r5
	@DEBUG_VALUE: HAL_TIMEx_OCN_Stop_DMA:htim <- $r4
	.loc	7 1053 5 is_stmt 1              @ ../Library/STM32F4xx_HAL_Driver/Src/stm32f4xx_hal_tim_ex.c:1053:5
	ldr	r2, [r0, #32]
.Ltmp411:
	.loc	7 1053 5 is_stmt 0              @ ../Library/STM32F4xx_HAL_Driver/Src/stm32f4xx_hal_tim_ex.c:1053:5
	tst	r2, r1
	bne	.LBB17_12
.Ltmp412:
@ %bb.10:
	@DEBUG_VALUE: HAL_TIMEx_OCN_Stop_DMA:Channel <- $r5
	@DEBUG_VALUE: HAL_TIMEx_OCN_Stop_DMA:htim <- $r4
	.loc	7 1053 5                        @ ../Library/STM32F4xx_HAL_Driver/Src/stm32f4xx_hal_tim_ex.c:1053:5
	ldr	r1, [r0, #32]
	movw	r2, #1092
.Ltmp413:
	.loc	7 1053 5                        @ ../Library/STM32F4xx_HAL_Driver/Src/stm32f4xx_hal_tim_ex.c:1053:5
	tst	r1, r2
	bne	.LBB17_12
.Ltmp414:
@ %bb.11:
	@DEBUG_VALUE: HAL_TIMEx_OCN_Stop_DMA:Channel <- $r5
	@DEBUG_VALUE: HAL_TIMEx_OCN_Stop_DMA:htim <- $r4
	.loc	7 1053 5                        @ ../Library/STM32F4xx_HAL_Driver/Src/stm32f4xx_hal_tim_ex.c:1053:5
	ldr	r1, [r0]
	bic	r1, r1, #1
	str	r1, [r0]
.Ltmp415:
.LBB17_12:
	@DEBUG_VALUE: HAL_TIMEx_OCN_Stop_DMA:Channel <- $r5
	@DEBUG_VALUE: HAL_TIMEx_OCN_Stop_DMA:htim <- $r4
	.loc	7 0 5                           @ ../Library/STM32F4xx_HAL_Driver/Src/stm32f4xx_hal_tim_ex.c:0:5
	movs	r0, #1
	.loc	7 1056 5 is_stmt 1              @ ../Library/STM32F4xx_HAL_Driver/Src/stm32f4xx_hal_tim_ex.c:1056:5
	cmp	r5, #8
	beq	.LBB17_16
.Ltmp416:
@ %bb.13:
	@DEBUG_VALUE: HAL_TIMEx_OCN_Stop_DMA:Channel <- $r5
	@DEBUG_VALUE: HAL_TIMEx_OCN_Stop_DMA:htim <- $r4
	cmp	r5, #4
	beq	.LBB17_17
.Ltmp417:
@ %bb.14:
	@DEBUG_VALUE: HAL_TIMEx_OCN_Stop_DMA:Channel <- $r5
	@DEBUG_VALUE: HAL_TIMEx_OCN_Stop_DMA:htim <- $r4
	cmp	r5, #0
	ite	ne
	strbne.w	r0, [r4, #69]
	strbeq.w	r0, [r4, #66]
	b	.LBB17_18
.Ltmp418:
.LBB17_15:
	@DEBUG_VALUE: HAL_TIMEx_OCN_Stop_DMA:Channel <- $r5
	@DEBUG_VALUE: HAL_TIMEx_OCN_Stop_DMA:htim <- $r4
	@DEBUG_VALUE: HAL_TIMEx_OCN_Stop_DMA:status <- 0
	.loc	7 0 5 is_stmt 0                 @ ../Library/STM32F4xx_HAL_Driver/Src/stm32f4xx_hal_tim_ex.c:0:5
	movs	r0, #1
	.loc	7 1060 3 is_stmt 1              @ ../Library/STM32F4xx_HAL_Driver/Src/stm32f4xx_hal_tim_ex.c:1060:3
	pop	{r4, r5, r7, pc}
.Ltmp419:
.LBB17_16:
	@DEBUG_VALUE: HAL_TIMEx_OCN_Stop_DMA:Channel <- $r5
	@DEBUG_VALUE: HAL_TIMEx_OCN_Stop_DMA:htim <- $r4
	.loc	7 1056 5                        @ ../Library/STM32F4xx_HAL_Driver/Src/stm32f4xx_hal_tim_ex.c:1056:5
	strb.w	r0, [r4, #68]
	b	.LBB17_18
.Ltmp420:
.LBB17_17:
	@DEBUG_VALUE: HAL_TIMEx_OCN_Stop_DMA:Channel <- $r5
	@DEBUG_VALUE: HAL_TIMEx_OCN_Stop_DMA:htim <- $r4
	strb.w	r0, [r4, #67]
.Ltmp421:
.LBB17_18:
	@DEBUG_VALUE: HAL_TIMEx_OCN_Stop_DMA:Channel <- $r5
	@DEBUG_VALUE: HAL_TIMEx_OCN_Stop_DMA:htim <- $r4
	.loc	7 0 5 is_stmt 0                 @ ../Library/STM32F4xx_HAL_Driver/Src/stm32f4xx_hal_tim_ex.c:0:5
	movs	r0, #0
	.loc	7 1060 3 is_stmt 1              @ ../Library/STM32F4xx_HAL_Driver/Src/stm32f4xx_hal_tim_ex.c:1060:3
	pop	{r4, r5, r7, pc}
.Ltmp422:
.Lfunc_end17:
	.size	HAL_TIMEx_OCN_Stop_DMA, .Lfunc_end17-HAL_TIMEx_OCN_Stop_DMA
	.cfi_endproc
	.cantunwind
	.fnend
                                        @ -- End function
	.section	.text.HAL_TIMEx_PWMN_Start,"ax",%progbits
	.hidden	HAL_TIMEx_PWMN_Start            @ -- Begin function HAL_TIMEx_PWMN_Start
	.globl	HAL_TIMEx_PWMN_Start
	.p2align	1
	.type	HAL_TIMEx_PWMN_Start,%function
	.code	16                              @ @HAL_TIMEx_PWMN_Start
	.thumb_func
HAL_TIMEx_PWMN_Start:
.Lfunc_begin18:
	.loc	7 1108 0                        @ ../Library/STM32F4xx_HAL_Driver/Src/stm32f4xx_hal_tim_ex.c:1108:0
	.fnstart
	.cfi_startproc
@ %bb.0:
	@DEBUG_VALUE: HAL_TIMEx_PWMN_Start:htim <- $r0
	@DEBUG_VALUE: HAL_TIMEx_PWMN_Start:Channel <- $r1
	@DEBUG_VALUE: HAL_TIMEx_PWMN_Start:Channel <- $r1
	@DEBUG_VALUE: HAL_TIMEx_PWMN_Start:htim <- $r0
	.loc	7 1115 7 prologue_end           @ ../Library/STM32F4xx_HAL_Driver/Src/stm32f4xx_hal_tim_ex.c:1115:7
	cbz	r1, .LBB18_3
.Ltmp423:
@ %bb.1:
	@DEBUG_VALUE: HAL_TIMEx_PWMN_Start:Channel <- $r1
	@DEBUG_VALUE: HAL_TIMEx_PWMN_Start:htim <- $r0
	cmp	r1, #8
	beq	.LBB18_5
.Ltmp424:
@ %bb.2:
	@DEBUG_VALUE: HAL_TIMEx_PWMN_Start:Channel <- $r1
	@DEBUG_VALUE: HAL_TIMEx_PWMN_Start:htim <- $r0
	cmp	r1, #4
	ite	ne
	addne.w	r2, r0, #69
	addeq.w	r2, r0, #67
	b	.LBB18_6
.Ltmp425:
.LBB18_3:
	@DEBUG_VALUE: HAL_TIMEx_PWMN_Start:Channel <- $r1
	@DEBUG_VALUE: HAL_TIMEx_PWMN_Start:htim <- $r0
	ldrb.w	r2, [r0, #66]
.Ltmp426:
	.loc	7 1115 7 is_stmt 0              @ ../Library/STM32F4xx_HAL_Driver/Src/stm32f4xx_hal_tim_ex.c:1115:7
	cmp	r2, #1
	bne	.LBB18_9
.Ltmp427:
@ %bb.4:
	@DEBUG_VALUE: HAL_TIMEx_PWMN_Start:Channel <- $r1
	@DEBUG_VALUE: HAL_TIMEx_PWMN_Start:htim <- $r0
	.loc	7 0 7                           @ ../Library/STM32F4xx_HAL_Driver/Src/stm32f4xx_hal_tim_ex.c:0:7
	movs	r2, #2
	.loc	7 1121 3 is_stmt 1              @ ../Library/STM32F4xx_HAL_Driver/Src/stm32f4xx_hal_tim_ex.c:1121:3
	strb.w	r2, [r0, #66]
	b	.LBB18_11
.Ltmp428:
.LBB18_5:
	@DEBUG_VALUE: HAL_TIMEx_PWMN_Start:Channel <- $r1
	@DEBUG_VALUE: HAL_TIMEx_PWMN_Start:htim <- $r0
	.loc	7 1115 7                        @ ../Library/STM32F4xx_HAL_Driver/Src/stm32f4xx_hal_tim_ex.c:1115:7
	add.w	r2, r0, #68
.Ltmp429:
.LBB18_6:
	@DEBUG_VALUE: HAL_TIMEx_PWMN_Start:Channel <- $r1
	@DEBUG_VALUE: HAL_TIMEx_PWMN_Start:htim <- $r0
	ldrb	r2, [r2]
.Ltmp430:
	.loc	7 1115 7 is_stmt 0              @ ../Library/STM32F4xx_HAL_Driver/Src/stm32f4xx_hal_tim_ex.c:1115:7
	cmp	r2, #1
	bne	.LBB18_9
.Ltmp431:
@ %bb.7:
	@DEBUG_VALUE: HAL_TIMEx_PWMN_Start:Channel <- $r1
	@DEBUG_VALUE: HAL_TIMEx_PWMN_Start:htim <- $r0
	.loc	7 0 7                           @ ../Library/STM32F4xx_HAL_Driver/Src/stm32f4xx_hal_tim_ex.c:0:7
	movs	r2, #2
	.loc	7 1121 3 is_stmt 1              @ ../Library/STM32F4xx_HAL_Driver/Src/stm32f4xx_hal_tim_ex.c:1121:3
	cmp	r1, #8
	beq	.LBB18_10
.Ltmp432:
@ %bb.8:
	@DEBUG_VALUE: HAL_TIMEx_PWMN_Start:Channel <- $r1
	@DEBUG_VALUE: HAL_TIMEx_PWMN_Start:htim <- $r0
	cmp	r1, #4
	ite	ne
	strbne.w	r2, [r0, #69]
	strbeq.w	r2, [r0, #67]
	b	.LBB18_11
.Ltmp433:
.LBB18_9:
	@DEBUG_VALUE: HAL_TIMEx_PWMN_Start:Channel <- $r1
	@DEBUG_VALUE: HAL_TIMEx_PWMN_Start:htim <- $r0
	.loc	7 0 3 is_stmt 0                 @ ../Library/STM32F4xx_HAL_Driver/Src/stm32f4xx_hal_tim_ex.c:0:3
	movs	r0, #1
.Ltmp434:
	@DEBUG_VALUE: HAL_TIMEx_PWMN_Start:htim <- [DW_OP_LLVM_entry_value 1] $r0
	.loc	7 1145 1 is_stmt 1              @ ../Library/STM32F4xx_HAL_Driver/Src/stm32f4xx_hal_tim_ex.c:1145:1
	bx	lr
.Ltmp435:
.LBB18_10:
	@DEBUG_VALUE: HAL_TIMEx_PWMN_Start:Channel <- $r1
	@DEBUG_VALUE: HAL_TIMEx_PWMN_Start:htim <- $r0
	.loc	7 1121 3                        @ ../Library/STM32F4xx_HAL_Driver/Src/stm32f4xx_hal_tim_ex.c:1121:3
	strb.w	r2, [r0, #68]
.Ltmp436:
.LBB18_11:
	@DEBUG_VALUE: HAL_TIMEx_PWMN_Start:Channel <- $r1
	@DEBUG_VALUE: HAL_TIMEx_PWMN_Start:htim <- $r0
	.loc	7 1124 28                       @ ../Library/STM32F4xx_HAL_Driver/Src/stm32f4xx_hal_tim_ex.c:1124:28
	ldr	r0, [r0]
.Ltmp437:
	@DEBUG_VALUE: HAL_TIMEx_PWMN_Start:htim <- [DW_OP_LLVM_entry_value 1] $r0
	@DEBUG_VALUE: TIM_CCxNChannelCmd:ChannelNState <- 4
	@DEBUG_VALUE: TIM_CCxNChannelCmd:Channel <- $r1
	@DEBUG_VALUE: TIM_CCxNChannelCmd:TIMx <- $r0
	.loc	7 2408 36                       @ ../Library/STM32F4xx_HAL_Driver/Src/stm32f4xx_hal_tim_ex.c:2408:36
	and	r1, r1, #31
.Ltmp438:
	@DEBUG_VALUE: HAL_TIMEx_PWMN_Start:Channel <- [DW_OP_LLVM_entry_value 1] $r1
	.loc	7 0 36 is_stmt 0                @ ../Library/STM32F4xx_HAL_Driver/Src/stm32f4xx_hal_tim_ex.c:0:36
	movs	r2, #4
	.loc	7 2411 14 is_stmt 1             @ ../Library/STM32F4xx_HAL_Driver/Src/stm32f4xx_hal_tim_ex.c:2411:14
	ldr	r3, [r0, #32]
	.loc	7 2408 24                       @ ../Library/STM32F4xx_HAL_Driver/Src/stm32f4xx_hal_tim_ex.c:2408:24
	lsl.w	r1, r2, r1
.Ltmp439:
	@DEBUG_VALUE: TIM_CCxNChannelCmd:tmp <- $r1
	.loc	7 2411 14                       @ ../Library/STM32F4xx_HAL_Driver/Src/stm32f4xx_hal_tim_ex.c:2411:14
	bic.w	r2, r3, r1
	str	r2, [r0, #32]
	.loc	7 2414 14                       @ ../Library/STM32F4xx_HAL_Driver/Src/stm32f4xx_hal_tim_ex.c:2414:14
	ldr	r2, [r0, #32]
	orrs	r1, r2
.Ltmp440:
	str	r1, [r0, #32]
.Ltmp441:
	.loc	7 1127 3                        @ ../Library/STM32F4xx_HAL_Driver/Src/stm32f4xx_hal_tim_ex.c:1127:3
	ldr	r1, [r0, #68]
	movw	r2, #6143
	movt	r2, #16384
	orr	r1, r1, #32768
.Ltmp442:
	.loc	7 1130 7                        @ ../Library/STM32F4xx_HAL_Driver/Src/stm32f4xx_hal_tim_ex.c:1130:7
	cmp	r0, r2
.Ltmp443:
	.loc	7 1127 3                        @ ../Library/STM32F4xx_HAL_Driver/Src/stm32f4xx_hal_tim_ex.c:1127:3
	str	r1, [r0, #68]
.Ltmp444:
	.loc	7 1130 7                        @ ../Library/STM32F4xx_HAL_Driver/Src/stm32f4xx_hal_tim_ex.c:1130:7
	bgt	.LBB18_15
.Ltmp445:
@ %bb.12:
	@DEBUG_VALUE: HAL_TIMEx_PWMN_Start:Channel <- [DW_OP_LLVM_entry_value 1] $r1
	@DEBUG_VALUE: HAL_TIMEx_PWMN_Start:htim <- [DW_OP_LLVM_entry_value 1] $r0
	.loc	7 0 7 is_stmt 0                 @ ../Library/STM32F4xx_HAL_Driver/Src/stm32f4xx_hal_tim_ex.c:0:7
	movw	r1, #2047
	movt	r1, #16384
	.loc	7 1130 7                        @ ../Library/STM32F4xx_HAL_Driver/Src/stm32f4xx_hal_tim_ex.c:1130:7
	cmp	r0, r1
	bgt	.LBB18_18
.Ltmp446:
@ %bb.13:
	@DEBUG_VALUE: HAL_TIMEx_PWMN_Start:Channel <- [DW_OP_LLVM_entry_value 1] $r1
	@DEBUG_VALUE: HAL_TIMEx_PWMN_Start:htim <- [DW_OP_LLVM_entry_value 1] $r0
	cmp.w	r0, #1073741824
	beq	.LBB18_25
.Ltmp447:
@ %bb.14:
	@DEBUG_VALUE: HAL_TIMEx_PWMN_Start:Channel <- [DW_OP_LLVM_entry_value 1] $r1
	@DEBUG_VALUE: HAL_TIMEx_PWMN_Start:htim <- [DW_OP_LLVM_entry_value 1] $r0
	.loc	7 0 7                           @ ../Library/STM32F4xx_HAL_Driver/Src/stm32f4xx_hal_tim_ex.c:0:7
	movw	r1, #1024
	b	.LBB18_20
.Ltmp448:
.LBB18_15:
	@DEBUG_VALUE: HAL_TIMEx_PWMN_Start:Channel <- [DW_OP_LLVM_entry_value 1] $r1
	@DEBUG_VALUE: HAL_TIMEx_PWMN_Start:htim <- [DW_OP_LLVM_entry_value 1] $r0
	movw	r1, #1023
	movt	r1, #16385
	.loc	7 1130 7                        @ ../Library/STM32F4xx_HAL_Driver/Src/stm32f4xx_hal_tim_ex.c:1130:7
	cmp	r0, r1
	bgt	.LBB18_21
.Ltmp449:
@ %bb.16:
	@DEBUG_VALUE: HAL_TIMEx_PWMN_Start:Channel <- [DW_OP_LLVM_entry_value 1] $r1
	@DEBUG_VALUE: HAL_TIMEx_PWMN_Start:htim <- [DW_OP_LLVM_entry_value 1] $r0
	.loc	7 0 7                           @ ../Library/STM32F4xx_HAL_Driver/Src/stm32f4xx_hal_tim_ex.c:0:7
	movw	r1, #6144
	movt	r1, #16384
	.loc	7 1130 7                        @ ../Library/STM32F4xx_HAL_Driver/Src/stm32f4xx_hal_tim_ex.c:1130:7
	cmp	r0, r1
	beq	.LBB18_25
.Ltmp450:
@ %bb.17:
	@DEBUG_VALUE: HAL_TIMEx_PWMN_Start:Channel <- [DW_OP_LLVM_entry_value 1] $r1
	@DEBUG_VALUE: HAL_TIMEx_PWMN_Start:htim <- [DW_OP_LLVM_entry_value 1] $r0
	.loc	7 0 7                           @ ../Library/STM32F4xx_HAL_Driver/Src/stm32f4xx_hal_tim_ex.c:0:7
	movs	r1, #0
	b	.LBB18_23
.Ltmp451:
.LBB18_18:
	@DEBUG_VALUE: HAL_TIMEx_PWMN_Start:Channel <- [DW_OP_LLVM_entry_value 1] $r1
	@DEBUG_VALUE: HAL_TIMEx_PWMN_Start:htim <- [DW_OP_LLVM_entry_value 1] $r0
	movw	r1, #2048
	movt	r1, #16384
	.loc	7 1130 7                        @ ../Library/STM32F4xx_HAL_Driver/Src/stm32f4xx_hal_tim_ex.c:1130:7
	cmp	r0, r1
	beq	.LBB18_25
.Ltmp452:
@ %bb.19:
	@DEBUG_VALUE: HAL_TIMEx_PWMN_Start:Channel <- [DW_OP_LLVM_entry_value 1] $r1
	@DEBUG_VALUE: HAL_TIMEx_PWMN_Start:htim <- [DW_OP_LLVM_entry_value 1] $r0
	.loc	7 0 7                           @ ../Library/STM32F4xx_HAL_Driver/Src/stm32f4xx_hal_tim_ex.c:0:7
	movw	r1, #3072
.Ltmp453:
.LBB18_20:
	@DEBUG_VALUE: HAL_TIMEx_PWMN_Start:Channel <- [DW_OP_LLVM_entry_value 1] $r1
	@DEBUG_VALUE: HAL_TIMEx_PWMN_Start:htim <- [DW_OP_LLVM_entry_value 1] $r0
	movt	r1, #16384
	b	.LBB18_24
.Ltmp454:
.LBB18_21:
	@DEBUG_VALUE: HAL_TIMEx_PWMN_Start:Channel <- [DW_OP_LLVM_entry_value 1] $r1
	@DEBUG_VALUE: HAL_TIMEx_PWMN_Start:htim <- [DW_OP_LLVM_entry_value 1] $r0
	movw	r1, #16384
	movt	r1, #16385
	.loc	7 1130 7                        @ ../Library/STM32F4xx_HAL_Driver/Src/stm32f4xx_hal_tim_ex.c:1130:7
	cmp	r0, r1
	beq	.LBB18_25
.Ltmp455:
@ %bb.22:
	@DEBUG_VALUE: HAL_TIMEx_PWMN_Start:Channel <- [DW_OP_LLVM_entry_value 1] $r1
	@DEBUG_VALUE: HAL_TIMEx_PWMN_Start:htim <- [DW_OP_LLVM_entry_value 1] $r0
	.loc	7 0 7                           @ ../Library/STM32F4xx_HAL_Driver/Src/stm32f4xx_hal_tim_ex.c:0:7
	movw	r1, #1024
.Ltmp456:
.LBB18_23:
	@DEBUG_VALUE: HAL_TIMEx_PWMN_Start:Channel <- [DW_OP_LLVM_entry_value 1] $r1
	@DEBUG_VALUE: HAL_TIMEx_PWMN_Start:htim <- [DW_OP_LLVM_entry_value 1] $r0
	movt	r1, #16385
.Ltmp457:
.LBB18_24:
	@DEBUG_VALUE: HAL_TIMEx_PWMN_Start:Channel <- [DW_OP_LLVM_entry_value 1] $r1
	@DEBUG_VALUE: HAL_TIMEx_PWMN_Start:htim <- [DW_OP_LLVM_entry_value 1] $r0
	.loc	7 1130 7                        @ ../Library/STM32F4xx_HAL_Driver/Src/stm32f4xx_hal_tim_ex.c:1130:7
	cmp	r0, r1
	bne	.LBB18_26
.Ltmp458:
.LBB18_25:
	@DEBUG_VALUE: HAL_TIMEx_PWMN_Start:Channel <- [DW_OP_LLVM_entry_value 1] $r1
	@DEBUG_VALUE: HAL_TIMEx_PWMN_Start:htim <- [DW_OP_LLVM_entry_value 1] $r0
	.loc	7 1132 31 is_stmt 1             @ ../Library/STM32F4xx_HAL_Driver/Src/stm32f4xx_hal_tim_ex.c:1132:31
	ldr	r1, [r0, #8]
	.loc	7 1132 36 is_stmt 0             @ ../Library/STM32F4xx_HAL_Driver/Src/stm32f4xx_hal_tim_ex.c:1132:36
	and	r1, r1, #7
.Ltmp459:
	@DEBUG_VALUE: HAL_TIMEx_PWMN_Start:tmpsmcr <- $r1
	.loc	7 1133 9 is_stmt 1              @ ../Library/STM32F4xx_HAL_Driver/Src/stm32f4xx_hal_tim_ex.c:1133:9
	cmp	r1, #6
	beq	.LBB18_27
.Ltmp460:
.LBB18_26:
	@DEBUG_VALUE: HAL_TIMEx_PWMN_Start:Channel <- [DW_OP_LLVM_entry_value 1] $r1
	@DEBUG_VALUE: HAL_TIMEx_PWMN_Start:htim <- [DW_OP_LLVM_entry_value 1] $r0
	.loc	7 0 0 is_stmt 0                 @ ../Library/STM32F4xx_HAL_Driver/Src/stm32f4xx_hal_tim_ex.c:0:0
	ldr	r1, [r0]
	orr	r1, r1, #1
	str	r1, [r0]
.Ltmp461:
.LBB18_27:
	@DEBUG_VALUE: HAL_TIMEx_PWMN_Start:Channel <- [DW_OP_LLVM_entry_value 1] $r1
	@DEBUG_VALUE: HAL_TIMEx_PWMN_Start:htim <- [DW_OP_LLVM_entry_value 1] $r0
	movs	r0, #0
	.loc	7 1145 1 is_stmt 1              @ ../Library/STM32F4xx_HAL_Driver/Src/stm32f4xx_hal_tim_ex.c:1145:1
	bx	lr
.Ltmp462:
.Lfunc_end18:
	.size	HAL_TIMEx_PWMN_Start, .Lfunc_end18-HAL_TIMEx_PWMN_Start
	.cfi_endproc
	.cantunwind
	.fnend
                                        @ -- End function
	.section	.text.HAL_TIMEx_PWMN_Stop,"ax",%progbits
	.hidden	HAL_TIMEx_PWMN_Stop             @ -- Begin function HAL_TIMEx_PWMN_Stop
	.globl	HAL_TIMEx_PWMN_Stop
	.p2align	1
	.type	HAL_TIMEx_PWMN_Stop,%function
	.code	16                              @ @HAL_TIMEx_PWMN_Stop
	.thumb_func
HAL_TIMEx_PWMN_Stop:
.Lfunc_begin19:
	.loc	7 1158 0                        @ ../Library/STM32F4xx_HAL_Driver/Src/stm32f4xx_hal_tim_ex.c:1158:0
	.fnstart
	.cfi_startproc
@ %bb.0:
	@DEBUG_VALUE: HAL_TIMEx_PWMN_Stop:htim <- $r0
	@DEBUG_VALUE: HAL_TIMEx_PWMN_Stop:htim <- $r0
	@DEBUG_VALUE: HAL_TIMEx_PWMN_Stop:Channel <- $r1
	@DEBUG_VALUE: HAL_TIMEx_PWMN_Stop:Channel <- $r1
	.save	{r4, lr}
	push	{r4, lr}
	.cfi_def_cfa_offset 8
	.cfi_offset lr, -4
	.cfi_offset r4, -8
.Ltmp463:
	.loc	7 1163 28 prologue_end          @ ../Library/STM32F4xx_HAL_Driver/Src/stm32f4xx_hal_tim_ex.c:1163:28
	ldr	r2, [r0]
.Ltmp464:
	@DEBUG_VALUE: TIM_CCxNChannelCmd:ChannelNState <- 0
	@DEBUG_VALUE: TIM_CCxNChannelCmd:Channel <- $r1
	@DEBUG_VALUE: TIM_CCxNChannelCmd:TIMx <- $r2
	.loc	7 2408 36                       @ ../Library/STM32F4xx_HAL_Driver/Src/stm32f4xx_hal_tim_ex.c:2408:36
	and	lr, r1, #31
	mov.w	r12, #4
	.loc	7 2411 14                       @ ../Library/STM32F4xx_HAL_Driver/Src/stm32f4xx_hal_tim_ex.c:2411:14
	ldr	r4, [r2, #32]
	.loc	7 2408 24                       @ ../Library/STM32F4xx_HAL_Driver/Src/stm32f4xx_hal_tim_ex.c:2408:24
	lsl.w	r3, r12, lr
.Ltmp465:
	@DEBUG_VALUE: TIM_CCxNChannelCmd:tmp <- $r3
	.loc	7 2411 14                       @ ../Library/STM32F4xx_HAL_Driver/Src/stm32f4xx_hal_tim_ex.c:2411:14
	bic.w	r3, r4, r3
.Ltmp466:
	str	r3, [r2, #32]
	.loc	7 2414 14                       @ ../Library/STM32F4xx_HAL_Driver/Src/stm32f4xx_hal_tim_ex.c:2414:14
	ldr	r3, [r2, #32]
	str	r3, [r2, #32]
.Ltmp467:
	.loc	7 1166 3                        @ ../Library/STM32F4xx_HAL_Driver/Src/stm32f4xx_hal_tim_ex.c:1166:3
	ldr	r4, [r2, #32]
	movw	r3, #4369
.Ltmp468:
	.loc	7 1166 3 is_stmt 0              @ ../Library/STM32F4xx_HAL_Driver/Src/stm32f4xx_hal_tim_ex.c:1166:3
	tst	r4, r3
	bne	.LBB19_3
.Ltmp469:
@ %bb.1:
	@DEBUG_VALUE: HAL_TIMEx_PWMN_Stop:Channel <- $r1
	@DEBUG_VALUE: HAL_TIMEx_PWMN_Stop:htim <- $r0
	.loc	7 1166 3                        @ ../Library/STM32F4xx_HAL_Driver/Src/stm32f4xx_hal_tim_ex.c:1166:3
	ldr.w	r12, [r2, #32]
	movw	r4, #1092
.Ltmp470:
	.loc	7 1166 3                        @ ../Library/STM32F4xx_HAL_Driver/Src/stm32f4xx_hal_tim_ex.c:1166:3
	tst.w	r12, r4
	bne	.LBB19_3
.Ltmp471:
@ %bb.2:
	@DEBUG_VALUE: HAL_TIMEx_PWMN_Stop:Channel <- $r1
	@DEBUG_VALUE: HAL_TIMEx_PWMN_Stop:htim <- $r0
	.loc	7 1166 3                        @ ../Library/STM32F4xx_HAL_Driver/Src/stm32f4xx_hal_tim_ex.c:1166:3
	ldr	r4, [r2, #68]
	bic	r4, r4, #32768
	str	r4, [r2, #68]
.Ltmp472:
.LBB19_3:
	@DEBUG_VALUE: HAL_TIMEx_PWMN_Stop:Channel <- $r1
	@DEBUG_VALUE: HAL_TIMEx_PWMN_Stop:htim <- $r0
	.loc	7 1169 3 is_stmt 1              @ ../Library/STM32F4xx_HAL_Driver/Src/stm32f4xx_hal_tim_ex.c:1169:3
	ldr	r4, [r2, #32]
.Ltmp473:
	.loc	7 1169 3 is_stmt 0              @ ../Library/STM32F4xx_HAL_Driver/Src/stm32f4xx_hal_tim_ex.c:1169:3
	tst	r4, r3
	bne	.LBB19_6
.Ltmp474:
@ %bb.4:
	@DEBUG_VALUE: HAL_TIMEx_PWMN_Stop:Channel <- $r1
	@DEBUG_VALUE: HAL_TIMEx_PWMN_Stop:htim <- $r0
	.loc	7 1169 3                        @ ../Library/STM32F4xx_HAL_Driver/Src/stm32f4xx_hal_tim_ex.c:1169:3
	ldr	r3, [r2, #32]
	movw	r4, #1092
.Ltmp475:
	.loc	7 1169 3                        @ ../Library/STM32F4xx_HAL_Driver/Src/stm32f4xx_hal_tim_ex.c:1169:3
	tst	r3, r4
	bne	.LBB19_6
.Ltmp476:
@ %bb.5:
	@DEBUG_VALUE: HAL_TIMEx_PWMN_Stop:Channel <- $r1
	@DEBUG_VALUE: HAL_TIMEx_PWMN_Stop:htim <- $r0
	.loc	7 1169 3                        @ ../Library/STM32F4xx_HAL_Driver/Src/stm32f4xx_hal_tim_ex.c:1169:3
	ldr	r3, [r2]
	bic	r3, r3, #1
	str	r3, [r2]
.Ltmp477:
.LBB19_6:
	@DEBUG_VALUE: HAL_TIMEx_PWMN_Stop:Channel <- $r1
	@DEBUG_VALUE: HAL_TIMEx_PWMN_Stop:htim <- $r0
	.loc	7 1172 3 is_stmt 1              @ ../Library/STM32F4xx_HAL_Driver/Src/stm32f4xx_hal_tim_ex.c:1172:3
	cmp	r1, #8
	beq	.LBB19_9
.Ltmp478:
@ %bb.7:
	@DEBUG_VALUE: HAL_TIMEx_PWMN_Stop:Channel <- $r1
	@DEBUG_VALUE: HAL_TIMEx_PWMN_Stop:htim <- $r0
	cmp	r1, #4
	beq	.LBB19_10
.Ltmp479:
@ %bb.8:
	@DEBUG_VALUE: HAL_TIMEx_PWMN_Stop:Channel <- $r1
	@DEBUG_VALUE: HAL_TIMEx_PWMN_Stop:htim <- $r0
	cmp	r1, #0
	mov.w	r1, #1
.Ltmp480:
	@DEBUG_VALUE: HAL_TIMEx_PWMN_Stop:Channel <- [DW_OP_LLVM_entry_value 1] $r1
	ite	ne
	strbne.w	r1, [r0, #69]
	strbeq.w	r1, [r0, #66]
	b	.LBB19_11
.Ltmp481:
.LBB19_9:
	@DEBUG_VALUE: HAL_TIMEx_PWMN_Stop:Channel <- $r1
	@DEBUG_VALUE: HAL_TIMEx_PWMN_Stop:htim <- $r0
	.loc	7 0 3 is_stmt 0                 @ ../Library/STM32F4xx_HAL_Driver/Src/stm32f4xx_hal_tim_ex.c:0:3
	movs	r1, #1
.Ltmp482:
	@DEBUG_VALUE: HAL_TIMEx_PWMN_Stop:Channel <- [DW_OP_LLVM_entry_value 1] $r1
	.loc	7 1172 3                        @ ../Library/STM32F4xx_HAL_Driver/Src/stm32f4xx_hal_tim_ex.c:1172:3
	strb.w	r1, [r0, #68]
	b	.LBB19_11
.Ltmp483:
.LBB19_10:
	@DEBUG_VALUE: HAL_TIMEx_PWMN_Stop:Channel <- $r1
	@DEBUG_VALUE: HAL_TIMEx_PWMN_Stop:htim <- $r0
	.loc	7 0 3                           @ ../Library/STM32F4xx_HAL_Driver/Src/stm32f4xx_hal_tim_ex.c:0:3
	movs	r1, #1
.Ltmp484:
	@DEBUG_VALUE: HAL_TIMEx_PWMN_Stop:Channel <- [DW_OP_LLVM_entry_value 1] $r1
	.loc	7 1172 3                        @ ../Library/STM32F4xx_HAL_Driver/Src/stm32f4xx_hal_tim_ex.c:1172:3
	strb.w	r1, [r0, #67]
.Ltmp485:
.LBB19_11:
	@DEBUG_VALUE: HAL_TIMEx_PWMN_Stop:htim <- $r0
	@DEBUG_VALUE: HAL_TIMEx_PWMN_Stop:Channel <- [DW_OP_LLVM_entry_value 1] $r1
	.loc	7 1175 3 is_stmt 1              @ ../Library/STM32F4xx_HAL_Driver/Src/stm32f4xx_hal_tim_ex.c:1175:3
	movs	r0, #0
.Ltmp486:
	@DEBUG_VALUE: HAL_TIMEx_PWMN_Stop:htim <- [DW_OP_LLVM_entry_value 1] $r0
	pop	{r4, pc}
.Ltmp487:
.Lfunc_end19:
	.size	HAL_TIMEx_PWMN_Stop, .Lfunc_end19-HAL_TIMEx_PWMN_Stop
	.cfi_endproc
	.cantunwind
	.fnend
                                        @ -- End function
	.section	.text.HAL_TIMEx_PWMN_Start_IT,"ax",%progbits
	.hidden	HAL_TIMEx_PWMN_Start_IT         @ -- Begin function HAL_TIMEx_PWMN_Start_IT
	.globl	HAL_TIMEx_PWMN_Start_IT
	.p2align	1
	.type	HAL_TIMEx_PWMN_Start_IT,%function
	.code	16                              @ @HAL_TIMEx_PWMN_Start_IT
	.thumb_func
HAL_TIMEx_PWMN_Start_IT:
.Lfunc_begin20:
	.loc	7 1190 0                        @ ../Library/STM32F4xx_HAL_Driver/Src/stm32f4xx_hal_tim_ex.c:1190:0
	.fnstart
	.cfi_startproc
@ %bb.0:
	@DEBUG_VALUE: HAL_TIMEx_PWMN_Start_IT:htim <- $r0
	@DEBUG_VALUE: HAL_TIMEx_PWMN_Start_IT:Channel <- $r1
	@DEBUG_VALUE: HAL_TIMEx_PWMN_Start_IT:Channel <- $r1
	@DEBUG_VALUE: HAL_TIMEx_PWMN_Start_IT:status <- 0
	@DEBUG_VALUE: HAL_TIMEx_PWMN_Start_IT:htim <- $r0
	.loc	7 1198 7 prologue_end           @ ../Library/STM32F4xx_HAL_Driver/Src/stm32f4xx_hal_tim_ex.c:1198:7
	cbz	r1, .LBB20_3
.Ltmp488:
@ %bb.1:
	@DEBUG_VALUE: HAL_TIMEx_PWMN_Start_IT:Channel <- $r1
	@DEBUG_VALUE: HAL_TIMEx_PWMN_Start_IT:htim <- $r0
	@DEBUG_VALUE: HAL_TIMEx_PWMN_Start_IT:status <- 0
	cmp	r1, #8
	beq	.LBB20_5
.Ltmp489:
@ %bb.2:
	@DEBUG_VALUE: HAL_TIMEx_PWMN_Start_IT:Channel <- $r1
	@DEBUG_VALUE: HAL_TIMEx_PWMN_Start_IT:htim <- $r0
	@DEBUG_VALUE: HAL_TIMEx_PWMN_Start_IT:status <- 0
	cmp	r1, #4
	ite	ne
	addne.w	r2, r0, #69
	addeq.w	r2, r0, #67
	b	.LBB20_6
.Ltmp490:
.LBB20_3:
	@DEBUG_VALUE: HAL_TIMEx_PWMN_Start_IT:Channel <- $r1
	@DEBUG_VALUE: HAL_TIMEx_PWMN_Start_IT:htim <- $r0
	@DEBUG_VALUE: HAL_TIMEx_PWMN_Start_IT:status <- 0
	ldrb.w	r2, [r0, #66]
.Ltmp491:
	.loc	7 1198 7 is_stmt 0              @ ../Library/STM32F4xx_HAL_Driver/Src/stm32f4xx_hal_tim_ex.c:1198:7
	cmp	r2, #1
	bne	.LBB20_19
.Ltmp492:
@ %bb.4:
	@DEBUG_VALUE: HAL_TIMEx_PWMN_Start_IT:Channel <- $r1
	@DEBUG_VALUE: HAL_TIMEx_PWMN_Start_IT:htim <- $r0
	@DEBUG_VALUE: HAL_TIMEx_PWMN_Start_IT:status <- 0
	.loc	7 0 7                           @ ../Library/STM32F4xx_HAL_Driver/Src/stm32f4xx_hal_tim_ex.c:0:7
	movs	r2, #2
	.loc	7 1204 3 is_stmt 1              @ ../Library/STM32F4xx_HAL_Driver/Src/stm32f4xx_hal_tim_ex.c:1204:3
	strb.w	r2, [r0, #66]
	b	.LBB20_11
.Ltmp493:
.LBB20_5:
	@DEBUG_VALUE: HAL_TIMEx_PWMN_Start_IT:Channel <- $r1
	@DEBUG_VALUE: HAL_TIMEx_PWMN_Start_IT:htim <- $r0
	@DEBUG_VALUE: HAL_TIMEx_PWMN_Start_IT:status <- 0
	.loc	7 1198 7                        @ ../Library/STM32F4xx_HAL_Driver/Src/stm32f4xx_hal_tim_ex.c:1198:7
	add.w	r2, r0, #68
.Ltmp494:
.LBB20_6:
	@DEBUG_VALUE: HAL_TIMEx_PWMN_Start_IT:Channel <- $r1
	@DEBUG_VALUE: HAL_TIMEx_PWMN_Start_IT:htim <- $r0
	@DEBUG_VALUE: HAL_TIMEx_PWMN_Start_IT:status <- 0
	ldrb	r2, [r2]
.Ltmp495:
	.loc	7 1198 7 is_stmt 0              @ ../Library/STM32F4xx_HAL_Driver/Src/stm32f4xx_hal_tim_ex.c:1198:7
	cmp	r2, #1
	bne	.LBB20_19
.Ltmp496:
@ %bb.7:
	@DEBUG_VALUE: HAL_TIMEx_PWMN_Start_IT:Channel <- $r1
	@DEBUG_VALUE: HAL_TIMEx_PWMN_Start_IT:htim <- $r0
	@DEBUG_VALUE: HAL_TIMEx_PWMN_Start_IT:status <- 0
	.loc	7 1204 3 is_stmt 1              @ ../Library/STM32F4xx_HAL_Driver/Src/stm32f4xx_hal_tim_ex.c:1204:3
	cmp	r1, #8
	beq	.LBB20_10
.Ltmp497:
@ %bb.8:
	@DEBUG_VALUE: HAL_TIMEx_PWMN_Start_IT:Channel <- $r1
	@DEBUG_VALUE: HAL_TIMEx_PWMN_Start_IT:htim <- $r0
	@DEBUG_VALUE: HAL_TIMEx_PWMN_Start_IT:status <- 0
	cmp	r1, #4
	bne	.LBB20_18
.Ltmp498:
@ %bb.9:
	@DEBUG_VALUE: HAL_TIMEx_PWMN_Start_IT:Channel <- $r1
	@DEBUG_VALUE: HAL_TIMEx_PWMN_Start_IT:htim <- $r0
	@DEBUG_VALUE: HAL_TIMEx_PWMN_Start_IT:status <- 0
	.loc	7 0 3 is_stmt 0                 @ ../Library/STM32F4xx_HAL_Driver/Src/stm32f4xx_hal_tim_ex.c:0:3
	movs	r2, #2
	.loc	7 1204 3                        @ ../Library/STM32F4xx_HAL_Driver/Src/stm32f4xx_hal_tim_ex.c:1204:3
	strb.w	r2, [r0, #67]
	movs	r2, #4
	b	.LBB20_11
.Ltmp499:
.LBB20_10:
	@DEBUG_VALUE: HAL_TIMEx_PWMN_Start_IT:Channel <- $r1
	@DEBUG_VALUE: HAL_TIMEx_PWMN_Start_IT:htim <- $r0
	@DEBUG_VALUE: HAL_TIMEx_PWMN_Start_IT:status <- 0
	.loc	7 0 3                           @ ../Library/STM32F4xx_HAL_Driver/Src/stm32f4xx_hal_tim_ex.c:0:3
	movs	r2, #2
	.loc	7 1204 3                        @ ../Library/STM32F4xx_HAL_Driver/Src/stm32f4xx_hal_tim_ex.c:1204:3
	strb.w	r2, [r0, #68]
	movs	r2, #8
.Ltmp500:
.LBB20_11:
	@DEBUG_VALUE: HAL_TIMEx_PWMN_Start_IT:Channel <- $r1
	@DEBUG_VALUE: HAL_TIMEx_PWMN_Start_IT:htim <- $r0
	@DEBUG_VALUE: HAL_TIMEx_PWMN_Start_IT:status <- 0
	.loc	7 0 0                           @ ../Library/STM32F4xx_HAL_Driver/Src/stm32f4xx_hal_tim_ex.c:0:0
	ldr	r0, [r0]
.Ltmp501:
	@DEBUG_VALUE: HAL_TIMEx_PWMN_Start_IT:htim <- [DW_OP_LLVM_entry_value 1] $r0
	ldr	r3, [r0, #12]
	orrs	r2, r3
	str	r2, [r0, #12]
.Ltmp502:
	@DEBUG_VALUE: HAL_TIMEx_PWMN_Start_IT:status <- undef
	.loc	7 1237 5 is_stmt 1              @ ../Library/STM32F4xx_HAL_Driver/Src/stm32f4xx_hal_tim_ex.c:1237:5
	ldr	r2, [r0, #12]
	orr	r2, r2, #128
	str	r2, [r0, #12]
	movs	r2, #4
.Ltmp503:
	@DEBUG_VALUE: TIM_CCxNChannelCmd:ChannelNState <- 4
	@DEBUG_VALUE: TIM_CCxNChannelCmd:Channel <- $r1
	@DEBUG_VALUE: TIM_CCxNChannelCmd:TIMx <- $r0
	.loc	7 2411 14                       @ ../Library/STM32F4xx_HAL_Driver/Src/stm32f4xx_hal_tim_ex.c:2411:14
	ldr	r3, [r0, #32]
	.loc	7 2408 24                       @ ../Library/STM32F4xx_HAL_Driver/Src/stm32f4xx_hal_tim_ex.c:2408:24
	lsl.w	r1, r2, r1
.Ltmp504:
	@DEBUG_VALUE: HAL_TIMEx_PWMN_Start_IT:Channel <- [DW_OP_LLVM_entry_value 1] $r1
	@DEBUG_VALUE: TIM_CCxNChannelCmd:tmp <- $r1
	.loc	7 2411 14                       @ ../Library/STM32F4xx_HAL_Driver/Src/stm32f4xx_hal_tim_ex.c:2411:14
	bic.w	r2, r3, r1
	str	r2, [r0, #32]
	.loc	7 2414 14                       @ ../Library/STM32F4xx_HAL_Driver/Src/stm32f4xx_hal_tim_ex.c:2414:14
	ldr	r2, [r0, #32]
	orrs	r1, r2
.Ltmp505:
	str	r1, [r0, #32]
.Ltmp506:
	.loc	7 1243 5                        @ ../Library/STM32F4xx_HAL_Driver/Src/stm32f4xx_hal_tim_ex.c:1243:5
	ldr	r1, [r0, #68]
	movw	r2, #6143
	movt	r2, #16384
	orr	r1, r1, #32768
.Ltmp507:
	.loc	7 1246 9                        @ ../Library/STM32F4xx_HAL_Driver/Src/stm32f4xx_hal_tim_ex.c:1246:9
	cmp	r0, r2
.Ltmp508:
	.loc	7 1243 5                        @ ../Library/STM32F4xx_HAL_Driver/Src/stm32f4xx_hal_tim_ex.c:1243:5
	str	r1, [r0, #68]
.Ltmp509:
	.loc	7 1246 9                        @ ../Library/STM32F4xx_HAL_Driver/Src/stm32f4xx_hal_tim_ex.c:1246:9
	bgt	.LBB20_15
.Ltmp510:
@ %bb.12:
	@DEBUG_VALUE: HAL_TIMEx_PWMN_Start_IT:htim <- [DW_OP_LLVM_entry_value 1] $r0
	@DEBUG_VALUE: HAL_TIMEx_PWMN_Start_IT:Channel <- [DW_OP_LLVM_entry_value 1] $r1
	.loc	7 0 9 is_stmt 0                 @ ../Library/STM32F4xx_HAL_Driver/Src/stm32f4xx_hal_tim_ex.c:0:9
	movw	r1, #2047
	movt	r1, #16384
	.loc	7 1246 9                        @ ../Library/STM32F4xx_HAL_Driver/Src/stm32f4xx_hal_tim_ex.c:1246:9
	cmp	r0, r1
	bgt	.LBB20_20
.Ltmp511:
@ %bb.13:
	@DEBUG_VALUE: HAL_TIMEx_PWMN_Start_IT:htim <- [DW_OP_LLVM_entry_value 1] $r0
	@DEBUG_VALUE: HAL_TIMEx_PWMN_Start_IT:Channel <- [DW_OP_LLVM_entry_value 1] $r1
	cmp.w	r0, #1073741824
	beq	.LBB20_27
.Ltmp512:
@ %bb.14:
	@DEBUG_VALUE: HAL_TIMEx_PWMN_Start_IT:htim <- [DW_OP_LLVM_entry_value 1] $r0
	@DEBUG_VALUE: HAL_TIMEx_PWMN_Start_IT:Channel <- [DW_OP_LLVM_entry_value 1] $r1
	.loc	7 0 9                           @ ../Library/STM32F4xx_HAL_Driver/Src/stm32f4xx_hal_tim_ex.c:0:9
	movw	r1, #1024
	b	.LBB20_22
.Ltmp513:
.LBB20_15:
	@DEBUG_VALUE: HAL_TIMEx_PWMN_Start_IT:htim <- [DW_OP_LLVM_entry_value 1] $r0
	@DEBUG_VALUE: HAL_TIMEx_PWMN_Start_IT:Channel <- [DW_OP_LLVM_entry_value 1] $r1
	movw	r1, #1023
	movt	r1, #16385
	.loc	7 1246 9                        @ ../Library/STM32F4xx_HAL_Driver/Src/stm32f4xx_hal_tim_ex.c:1246:9
	cmp	r0, r1
	bgt	.LBB20_23
.Ltmp514:
@ %bb.16:
	@DEBUG_VALUE: HAL_TIMEx_PWMN_Start_IT:htim <- [DW_OP_LLVM_entry_value 1] $r0
	@DEBUG_VALUE: HAL_TIMEx_PWMN_Start_IT:Channel <- [DW_OP_LLVM_entry_value 1] $r1
	.loc	7 0 9                           @ ../Library/STM32F4xx_HAL_Driver/Src/stm32f4xx_hal_tim_ex.c:0:9
	movw	r1, #6144
	movt	r1, #16384
	.loc	7 1246 9                        @ ../Library/STM32F4xx_HAL_Driver/Src/stm32f4xx_hal_tim_ex.c:1246:9
	cmp	r0, r1
	beq	.LBB20_27
.Ltmp515:
@ %bb.17:
	@DEBUG_VALUE: HAL_TIMEx_PWMN_Start_IT:htim <- [DW_OP_LLVM_entry_value 1] $r0
	@DEBUG_VALUE: HAL_TIMEx_PWMN_Start_IT:Channel <- [DW_OP_LLVM_entry_value 1] $r1
	.loc	7 0 9                           @ ../Library/STM32F4xx_HAL_Driver/Src/stm32f4xx_hal_tim_ex.c:0:9
	movs	r1, #0
	b	.LBB20_25
.Ltmp516:
.LBB20_18:
	@DEBUG_VALUE: HAL_TIMEx_PWMN_Start_IT:Channel <- $r1
	@DEBUG_VALUE: HAL_TIMEx_PWMN_Start_IT:htim <- $r0
	@DEBUG_VALUE: HAL_TIMEx_PWMN_Start_IT:status <- 0
	movs	r1, #2
.Ltmp517:
	@DEBUG_VALUE: HAL_TIMEx_PWMN_Start_IT:Channel <- [DW_OP_LLVM_entry_value 1] $r1
	.loc	7 1204 3 is_stmt 1              @ ../Library/STM32F4xx_HAL_Driver/Src/stm32f4xx_hal_tim_ex.c:1204:3
	strb.w	r1, [r0, #69]
.Ltmp518:
.LBB20_19:
	@DEBUG_VALUE: HAL_TIMEx_PWMN_Start_IT:htim <- $r0
	@DEBUG_VALUE: HAL_TIMEx_PWMN_Start_IT:status <- 0
	.loc	7 0 3 is_stmt 0                 @ ../Library/STM32F4xx_HAL_Driver/Src/stm32f4xx_hal_tim_ex.c:0:3
	movs	r0, #1
.Ltmp519:
	@DEBUG_VALUE: HAL_TIMEx_PWMN_Start_IT:htim <- [DW_OP_LLVM_entry_value 1] $r0
	.loc	7 1262 1 is_stmt 1              @ ../Library/STM32F4xx_HAL_Driver/Src/stm32f4xx_hal_tim_ex.c:1262:1
	bx	lr
.Ltmp520:
.LBB20_20:
	@DEBUG_VALUE: HAL_TIMEx_PWMN_Start_IT:htim <- [DW_OP_LLVM_entry_value 1] $r0
	@DEBUG_VALUE: HAL_TIMEx_PWMN_Start_IT:Channel <- [DW_OP_LLVM_entry_value 1] $r1
	.loc	7 0 1 is_stmt 0                 @ ../Library/STM32F4xx_HAL_Driver/Src/stm32f4xx_hal_tim_ex.c:0:1
	movw	r1, #2048
	movt	r1, #16384
.Ltmp521:
	.loc	7 1246 9 is_stmt 1              @ ../Library/STM32F4xx_HAL_Driver/Src/stm32f4xx_hal_tim_ex.c:1246:9
	cmp	r0, r1
	beq	.LBB20_27
.Ltmp522:
@ %bb.21:
	@DEBUG_VALUE: HAL_TIMEx_PWMN_Start_IT:htim <- [DW_OP_LLVM_entry_value 1] $r0
	@DEBUG_VALUE: HAL_TIMEx_PWMN_Start_IT:Channel <- [DW_OP_LLVM_entry_value 1] $r1
	.loc	7 0 9 is_stmt 0                 @ ../Library/STM32F4xx_HAL_Driver/Src/stm32f4xx_hal_tim_ex.c:0:9
	movw	r1, #3072
.Ltmp523:
.LBB20_22:
	@DEBUG_VALUE: HAL_TIMEx_PWMN_Start_IT:htim <- [DW_OP_LLVM_entry_value 1] $r0
	@DEBUG_VALUE: HAL_TIMEx_PWMN_Start_IT:Channel <- [DW_OP_LLVM_entry_value 1] $r1
	movt	r1, #16384
	b	.LBB20_26
.Ltmp524:
.LBB20_23:
	@DEBUG_VALUE: HAL_TIMEx_PWMN_Start_IT:htim <- [DW_OP_LLVM_entry_value 1] $r0
	@DEBUG_VALUE: HAL_TIMEx_PWMN_Start_IT:Channel <- [DW_OP_LLVM_entry_value 1] $r1
	movw	r1, #16384
	movt	r1, #16385
	.loc	7 1246 9                        @ ../Library/STM32F4xx_HAL_Driver/Src/stm32f4xx_hal_tim_ex.c:1246:9
	cmp	r0, r1
	beq	.LBB20_27
.Ltmp525:
@ %bb.24:
	@DEBUG_VALUE: HAL_TIMEx_PWMN_Start_IT:htim <- [DW_OP_LLVM_entry_value 1] $r0
	@DEBUG_VALUE: HAL_TIMEx_PWMN_Start_IT:Channel <- [DW_OP_LLVM_entry_value 1] $r1
	.loc	7 0 9                           @ ../Library/STM32F4xx_HAL_Driver/Src/stm32f4xx_hal_tim_ex.c:0:9
	movw	r1, #1024
.Ltmp526:
.LBB20_25:
	@DEBUG_VALUE: HAL_TIMEx_PWMN_Start_IT:htim <- [DW_OP_LLVM_entry_value 1] $r0
	@DEBUG_VALUE: HAL_TIMEx_PWMN_Start_IT:Channel <- [DW_OP_LLVM_entry_value 1] $r1
	movt	r1, #16385
.Ltmp527:
.LBB20_26:
	@DEBUG_VALUE: HAL_TIMEx_PWMN_Start_IT:htim <- [DW_OP_LLVM_entry_value 1] $r0
	@DEBUG_VALUE: HAL_TIMEx_PWMN_Start_IT:Channel <- [DW_OP_LLVM_entry_value 1] $r1
	.loc	7 1246 9                        @ ../Library/STM32F4xx_HAL_Driver/Src/stm32f4xx_hal_tim_ex.c:1246:9
	cmp	r0, r1
	bne	.LBB20_28
.Ltmp528:
.LBB20_27:
	@DEBUG_VALUE: HAL_TIMEx_PWMN_Start_IT:htim <- [DW_OP_LLVM_entry_value 1] $r0
	@DEBUG_VALUE: HAL_TIMEx_PWMN_Start_IT:Channel <- [DW_OP_LLVM_entry_value 1] $r1
	.loc	7 1248 33 is_stmt 1             @ ../Library/STM32F4xx_HAL_Driver/Src/stm32f4xx_hal_tim_ex.c:1248:33
	ldr	r1, [r0, #8]
	.loc	7 1248 38 is_stmt 0             @ ../Library/STM32F4xx_HAL_Driver/Src/stm32f4xx_hal_tim_ex.c:1248:38
	and	r1, r1, #7
.Ltmp529:
	@DEBUG_VALUE: HAL_TIMEx_PWMN_Start_IT:tmpsmcr <- $r1
	.loc	7 1249 11 is_stmt 1             @ ../Library/STM32F4xx_HAL_Driver/Src/stm32f4xx_hal_tim_ex.c:1249:11
	cmp	r1, #6
	beq	.LBB20_29
.Ltmp530:
.LBB20_28:
	@DEBUG_VALUE: HAL_TIMEx_PWMN_Start_IT:htim <- [DW_OP_LLVM_entry_value 1] $r0
	@DEBUG_VALUE: HAL_TIMEx_PWMN_Start_IT:Channel <- [DW_OP_LLVM_entry_value 1] $r1
	.loc	7 0 0 is_stmt 0                 @ ../Library/STM32F4xx_HAL_Driver/Src/stm32f4xx_hal_tim_ex.c:0:0
	ldr	r1, [r0]
	orr	r1, r1, #1
	str	r1, [r0]
.Ltmp531:
.LBB20_29:
	@DEBUG_VALUE: HAL_TIMEx_PWMN_Start_IT:htim <- [DW_OP_LLVM_entry_value 1] $r0
	@DEBUG_VALUE: HAL_TIMEx_PWMN_Start_IT:Channel <- [DW_OP_LLVM_entry_value 1] $r1
	movs	r0, #0
	.loc	7 1262 1 is_stmt 1              @ ../Library/STM32F4xx_HAL_Driver/Src/stm32f4xx_hal_tim_ex.c:1262:1
	bx	lr
.Ltmp532:
.Lfunc_end20:
	.size	HAL_TIMEx_PWMN_Start_IT, .Lfunc_end20-HAL_TIMEx_PWMN_Start_IT
	.cfi_endproc
	.cantunwind
	.fnend
                                        @ -- End function
	.section	.text.HAL_TIMEx_PWMN_Stop_IT,"ax",%progbits
	.hidden	HAL_TIMEx_PWMN_Stop_IT          @ -- Begin function HAL_TIMEx_PWMN_Stop_IT
	.globl	HAL_TIMEx_PWMN_Stop_IT
	.p2align	1
	.type	HAL_TIMEx_PWMN_Stop_IT,%function
	.code	16                              @ @HAL_TIMEx_PWMN_Stop_IT
	.thumb_func
HAL_TIMEx_PWMN_Stop_IT:
.Lfunc_begin21:
	.loc	7 1276 0                        @ ../Library/STM32F4xx_HAL_Driver/Src/stm32f4xx_hal_tim_ex.c:1276:0
	.fnstart
	.cfi_startproc
@ %bb.0:
	@DEBUG_VALUE: HAL_TIMEx_PWMN_Stop_IT:htim <- $r0
	@DEBUG_VALUE: HAL_TIMEx_PWMN_Stop_IT:Channel <- $r1
	@DEBUG_VALUE: HAL_TIMEx_PWMN_Stop_IT:Channel <- $r1
	.save	{r7, lr}
	push	{r7, lr}
	.cfi_def_cfa_offset 8
	.cfi_offset lr, -4
	.cfi_offset r7, -8
.Ltmp533:
	@DEBUG_VALUE: HAL_TIMEx_PWMN_Stop_IT:status <- 0
	@DEBUG_VALUE: HAL_TIMEx_PWMN_Stop_IT:htim <- $r0
	.loc	7 1283 3 prologue_end           @ ../Library/STM32F4xx_HAL_Driver/Src/stm32f4xx_hal_tim_ex.c:1283:3
	cbz	r1, .LBB21_4
.Ltmp534:
@ %bb.1:
	@DEBUG_VALUE: HAL_TIMEx_PWMN_Stop_IT:Channel <- $r1
	@DEBUG_VALUE: HAL_TIMEx_PWMN_Stop_IT:htim <- $r0
	@DEBUG_VALUE: HAL_TIMEx_PWMN_Stop_IT:status <- 0
	cmp	r1, #8
	beq	.LBB21_5
.Ltmp535:
@ %bb.2:
	@DEBUG_VALUE: HAL_TIMEx_PWMN_Stop_IT:Channel <- $r1
	@DEBUG_VALUE: HAL_TIMEx_PWMN_Stop_IT:htim <- $r0
	@DEBUG_VALUE: HAL_TIMEx_PWMN_Stop_IT:status <- 0
	cmp	r1, #4
	itt	ne
	movne	r0, #1
.Ltmp536:
	@DEBUG_VALUE: HAL_TIMEx_PWMN_Stop_IT:htim <- [DW_OP_LLVM_entry_value 1] $r0
	.loc	7 1334 3                        @ ../Library/STM32F4xx_HAL_Driver/Src/stm32f4xx_hal_tim_ex.c:1334:3
	popne	{r7, pc}
.Ltmp537:
.LBB21_3:
	@DEBUG_VALUE: HAL_TIMEx_PWMN_Stop_IT:Channel <- $r1
	@DEBUG_VALUE: HAL_TIMEx_PWMN_Stop_IT:htim <- [DW_OP_LLVM_entry_value 1] $r0
	@DEBUG_VALUE: HAL_TIMEx_PWMN_Stop_IT:status <- 0
	.loc	7 0 3 is_stmt 0                 @ ../Library/STM32F4xx_HAL_Driver/Src/stm32f4xx_hal_tim_ex.c:0:3
	mvn	r12, #4
	b	.LBB21_6
.Ltmp538:
.LBB21_4:
	@DEBUG_VALUE: HAL_TIMEx_PWMN_Stop_IT:Channel <- $r1
	@DEBUG_VALUE: HAL_TIMEx_PWMN_Stop_IT:htim <- $r0
	@DEBUG_VALUE: HAL_TIMEx_PWMN_Stop_IT:status <- 0
	mvn	r12, #2
	b	.LBB21_6
.Ltmp539:
.LBB21_5:
	@DEBUG_VALUE: HAL_TIMEx_PWMN_Stop_IT:Channel <- $r1
	@DEBUG_VALUE: HAL_TIMEx_PWMN_Stop_IT:htim <- $r0
	@DEBUG_VALUE: HAL_TIMEx_PWMN_Stop_IT:status <- 0
	mvn	r12, #8
.Ltmp540:
.LBB21_6:
	@DEBUG_VALUE: HAL_TIMEx_PWMN_Stop_IT:Channel <- $r1
	@DEBUG_VALUE: HAL_TIMEx_PWMN_Stop_IT:status <- 0
	ldr	r2, [r0]
	ldr	r3, [r2, #12]
	and.w	r3, r3, r12
	str	r3, [r2, #12]
	mov.w	r12, #4
.Ltmp541:
	@DEBUG_VALUE: TIM_CCxNChannelCmd:ChannelNState <- 0
	@DEBUG_VALUE: TIM_CCxNChannelCmd:Channel <- $r1
	@DEBUG_VALUE: TIM_CCxNChannelCmd:TIMx <- $r2
	@DEBUG_VALUE: HAL_TIMEx_PWMN_Stop_IT:status <- undef
	.loc	7 2411 14 is_stmt 1             @ ../Library/STM32F4xx_HAL_Driver/Src/stm32f4xx_hal_tim_ex.c:2411:14
	ldr.w	lr, [r2, #32]
	.loc	7 2408 24                       @ ../Library/STM32F4xx_HAL_Driver/Src/stm32f4xx_hal_tim_ex.c:2408:24
	lsl.w	r3, r12, r1
.Ltmp542:
	@DEBUG_VALUE: TIM_CCxNChannelCmd:tmp <- $r3
	.loc	7 2411 14                       @ ../Library/STM32F4xx_HAL_Driver/Src/stm32f4xx_hal_tim_ex.c:2411:14
	bic.w	r3, lr, r3
.Ltmp543:
	str	r3, [r2, #32]
	.loc	7 2414 14                       @ ../Library/STM32F4xx_HAL_Driver/Src/stm32f4xx_hal_tim_ex.c:2414:14
	ldr	r3, [r2, #32]
	str	r3, [r2, #32]
.Ltmp544:
	.loc	7 1317 31                       @ ../Library/STM32F4xx_HAL_Driver/Src/stm32f4xx_hal_tim_ex.c:1317:31
	ldr.w	r12, [r2, #32]
.Ltmp545:
	@DEBUG_VALUE: HAL_TIMEx_PWMN_Stop_IT:tmpccer <- $r12
	.loc	7 0 31 is_stmt 0                @ ../Library/STM32F4xx_HAL_Driver/Src/stm32f4xx_hal_tim_ex.c:0:31
	movw	r3, #1092
	.loc	7 1318 9 is_stmt 1              @ ../Library/STM32F4xx_HAL_Driver/Src/stm32f4xx_hal_tim_ex.c:1318:9
	tst.w	r12, r3
	bne	.LBB21_8
.Ltmp546:
@ %bb.7:
	@DEBUG_VALUE: HAL_TIMEx_PWMN_Stop_IT:tmpccer <- $r12
	@DEBUG_VALUE: HAL_TIMEx_PWMN_Stop_IT:Channel <- $r1
	.loc	7 1320 7                        @ ../Library/STM32F4xx_HAL_Driver/Src/stm32f4xx_hal_tim_ex.c:1320:7
	ldr	r3, [r2, #12]
	bic	r3, r3, #128
	str	r3, [r2, #12]
.Ltmp547:
.LBB21_8:
	@DEBUG_VALUE: HAL_TIMEx_PWMN_Stop_IT:tmpccer <- $r12
	@DEBUG_VALUE: HAL_TIMEx_PWMN_Stop_IT:Channel <- $r1
	.loc	7 1324 5                        @ ../Library/STM32F4xx_HAL_Driver/Src/stm32f4xx_hal_tim_ex.c:1324:5
	ldr	r3, [r2, #32]
	movw	r12, #4369
.Ltmp548:
	.loc	7 1324 5 is_stmt 0              @ ../Library/STM32F4xx_HAL_Driver/Src/stm32f4xx_hal_tim_ex.c:1324:5
	tst.w	r3, r12
	bne	.LBB21_11
.Ltmp549:
@ %bb.9:
	@DEBUG_VALUE: HAL_TIMEx_PWMN_Stop_IT:Channel <- $r1
	.loc	7 1324 5                        @ ../Library/STM32F4xx_HAL_Driver/Src/stm32f4xx_hal_tim_ex.c:1324:5
	ldr.w	lr, [r2, #32]
	movw	r3, #1092
.Ltmp550:
	.loc	7 1324 5                        @ ../Library/STM32F4xx_HAL_Driver/Src/stm32f4xx_hal_tim_ex.c:1324:5
	tst.w	lr, r3
	bne	.LBB21_11
.Ltmp551:
@ %bb.10:
	@DEBUG_VALUE: HAL_TIMEx_PWMN_Stop_IT:Channel <- $r1
	.loc	7 1324 5                        @ ../Library/STM32F4xx_HAL_Driver/Src/stm32f4xx_hal_tim_ex.c:1324:5
	ldr	r3, [r2, #68]
	bic	r3, r3, #32768
	str	r3, [r2, #68]
.Ltmp552:
.LBB21_11:
	@DEBUG_VALUE: HAL_TIMEx_PWMN_Stop_IT:Channel <- $r1
	.loc	7 1327 5 is_stmt 1              @ ../Library/STM32F4xx_HAL_Driver/Src/stm32f4xx_hal_tim_ex.c:1327:5
	ldr	r3, [r2, #32]
.Ltmp553:
	.loc	7 1327 5 is_stmt 0              @ ../Library/STM32F4xx_HAL_Driver/Src/stm32f4xx_hal_tim_ex.c:1327:5
	tst.w	r3, r12
	bne	.LBB21_14
.Ltmp554:
@ %bb.12:
	@DEBUG_VALUE: HAL_TIMEx_PWMN_Stop_IT:Channel <- $r1
	.loc	7 1327 5                        @ ../Library/STM32F4xx_HAL_Driver/Src/stm32f4xx_hal_tim_ex.c:1327:5
	ldr.w	r12, [r2, #32]
	movw	r3, #1092
.Ltmp555:
	.loc	7 1327 5                        @ ../Library/STM32F4xx_HAL_Driver/Src/stm32f4xx_hal_tim_ex.c:1327:5
	tst.w	r12, r3
	bne	.LBB21_14
.Ltmp556:
@ %bb.13:
	@DEBUG_VALUE: HAL_TIMEx_PWMN_Stop_IT:Channel <- $r1
	.loc	7 1327 5                        @ ../Library/STM32F4xx_HAL_Driver/Src/stm32f4xx_hal_tim_ex.c:1327:5
	ldr	r3, [r2]
	bic	r3, r3, #1
	str	r3, [r2]
.Ltmp557:
.LBB21_14:
	@DEBUG_VALUE: HAL_TIMEx_PWMN_Stop_IT:Channel <- $r1
	.loc	7 1330 5 is_stmt 1              @ ../Library/STM32F4xx_HAL_Driver/Src/stm32f4xx_hal_tim_ex.c:1330:5
	cmp	r1, #8
	beq	.LBB21_17
.Ltmp558:
@ %bb.15:
	@DEBUG_VALUE: HAL_TIMEx_PWMN_Stop_IT:Channel <- $r1
	cmp	r1, #4
	beq	.LBB21_18
.Ltmp559:
@ %bb.16:
	@DEBUG_VALUE: HAL_TIMEx_PWMN_Stop_IT:Channel <- $r1
	cmp	r1, #0
	mov.w	r1, #1
.Ltmp560:
	@DEBUG_VALUE: HAL_TIMEx_PWMN_Stop_IT:Channel <- [DW_OP_LLVM_entry_value 1] $r1
	ite	ne
	strbne.w	r1, [r0, #69]
	strbeq.w	r1, [r0, #66]
	b	.LBB21_19
.Ltmp561:
.LBB21_17:
	@DEBUG_VALUE: HAL_TIMEx_PWMN_Stop_IT:Channel <- $r1
	.loc	7 0 5 is_stmt 0                 @ ../Library/STM32F4xx_HAL_Driver/Src/stm32f4xx_hal_tim_ex.c:0:5
	movs	r1, #1
.Ltmp562:
	@DEBUG_VALUE: HAL_TIMEx_PWMN_Stop_IT:Channel <- [DW_OP_LLVM_entry_value 1] $r1
	.loc	7 1330 5                        @ ../Library/STM32F4xx_HAL_Driver/Src/stm32f4xx_hal_tim_ex.c:1330:5
	strb.w	r1, [r0, #68]
	b	.LBB21_19
.Ltmp563:
.LBB21_18:
	@DEBUG_VALUE: HAL_TIMEx_PWMN_Stop_IT:Channel <- $r1
	.loc	7 0 5                           @ ../Library/STM32F4xx_HAL_Driver/Src/stm32f4xx_hal_tim_ex.c:0:5
	movs	r1, #1
.Ltmp564:
	@DEBUG_VALUE: HAL_TIMEx_PWMN_Stop_IT:Channel <- [DW_OP_LLVM_entry_value 1] $r1
	.loc	7 1330 5                        @ ../Library/STM32F4xx_HAL_Driver/Src/stm32f4xx_hal_tim_ex.c:1330:5
	strb.w	r1, [r0, #67]
.Ltmp565:
.LBB21_19:
	@DEBUG_VALUE: HAL_TIMEx_PWMN_Stop_IT:Channel <- [DW_OP_LLVM_entry_value 1] $r1
	.loc	7 0 5                           @ ../Library/STM32F4xx_HAL_Driver/Src/stm32f4xx_hal_tim_ex.c:0:5
	movs	r0, #0
	.loc	7 1334 3 is_stmt 1              @ ../Library/STM32F4xx_HAL_Driver/Src/stm32f4xx_hal_tim_ex.c:1334:3
	pop	{r7, pc}
.Ltmp566:
.Lfunc_end21:
	.size	HAL_TIMEx_PWMN_Stop_IT, .Lfunc_end21-HAL_TIMEx_PWMN_Stop_IT
	.cfi_endproc
	.cantunwind
	.fnend
                                        @ -- End function
	.section	.text.HAL_TIMEx_PWMN_Start_DMA,"ax",%progbits
	.hidden	HAL_TIMEx_PWMN_Start_DMA        @ -- Begin function HAL_TIMEx_PWMN_Start_DMA
	.globl	HAL_TIMEx_PWMN_Start_DMA
	.p2align	1
	.type	HAL_TIMEx_PWMN_Start_DMA,%function
	.code	16                              @ @HAL_TIMEx_PWMN_Start_DMA
	.thumb_func
HAL_TIMEx_PWMN_Start_DMA:
.Lfunc_begin22:
	.loc	7 1351 0                        @ ../Library/STM32F4xx_HAL_Driver/Src/stm32f4xx_hal_tim_ex.c:1351:0
	.fnstart
	.cfi_startproc
@ %bb.0:
	@DEBUG_VALUE: HAL_TIMEx_PWMN_Start_DMA:htim <- $r0
	@DEBUG_VALUE: HAL_TIMEx_PWMN_Start_DMA:Channel <- $r1
	@DEBUG_VALUE: HAL_TIMEx_PWMN_Start_DMA:pData <- $r2
	@DEBUG_VALUE: HAL_TIMEx_PWMN_Start_DMA:Length <- $r3
	.save	{r4, r5, r7, lr}
	push	{r4, r5, r7, lr}
	.cfi_def_cfa_offset 16
	.cfi_offset lr, -4
	.cfi_offset r7, -8
	.cfi_offset r5, -12
	.cfi_offset r4, -16
	mov	r4, r1
	@DEBUG_VALUE: HAL_TIMEx_PWMN_Start_DMA:Length <- $r3
	@DEBUG_VALUE: HAL_TIMEx_PWMN_Start_DMA:pData <- $r2
.Ltmp567:
	@DEBUG_VALUE: HAL_TIMEx_PWMN_Start_DMA:Channel <- $r4
	mov	r5, r0
.Ltmp568:
	@DEBUG_VALUE: HAL_TIMEx_PWMN_Start_DMA:htim <- $r5
	@DEBUG_VALUE: HAL_TIMEx_PWMN_Start_DMA:status <- 0
	@DEBUG_VALUE: HAL_TIMEx_PWMN_Start_DMA:htim <- $r5
	.loc	7 1359 7 prologue_end           @ ../Library/STM32F4xx_HAL_Driver/Src/stm32f4xx_hal_tim_ex.c:1359:7
	cbz	r1, .LBB22_3
.Ltmp569:
@ %bb.1:
	@DEBUG_VALUE: HAL_TIMEx_PWMN_Start_DMA:htim <- $r5
	@DEBUG_VALUE: HAL_TIMEx_PWMN_Start_DMA:Channel <- $r4
	@DEBUG_VALUE: HAL_TIMEx_PWMN_Start_DMA:Length <- $r3
	@DEBUG_VALUE: HAL_TIMEx_PWMN_Start_DMA:pData <- $r2
	@DEBUG_VALUE: HAL_TIMEx_PWMN_Start_DMA:status <- 0
	cmp	r4, #8
	beq	.LBB22_5
.Ltmp570:
@ %bb.2:
	@DEBUG_VALUE: HAL_TIMEx_PWMN_Start_DMA:htim <- $r5
	@DEBUG_VALUE: HAL_TIMEx_PWMN_Start_DMA:Channel <- $r4
	@DEBUG_VALUE: HAL_TIMEx_PWMN_Start_DMA:Length <- $r3
	@DEBUG_VALUE: HAL_TIMEx_PWMN_Start_DMA:pData <- $r2
	@DEBUG_VALUE: HAL_TIMEx_PWMN_Start_DMA:status <- 0
	cmp	r4, #4
	ite	ne
	addne.w	r0, r5, #69
	addeq.w	r0, r5, #67
	b	.LBB22_6
.Ltmp571:
.LBB22_3:
	@DEBUG_VALUE: HAL_TIMEx_PWMN_Start_DMA:htim <- $r5
	@DEBUG_VALUE: HAL_TIMEx_PWMN_Start_DMA:Channel <- $r4
	@DEBUG_VALUE: HAL_TIMEx_PWMN_Start_DMA:Length <- $r3
	@DEBUG_VALUE: HAL_TIMEx_PWMN_Start_DMA:pData <- $r2
	@DEBUG_VALUE: HAL_TIMEx_PWMN_Start_DMA:status <- 0
	ldrb.w	r0, [r5, #66]
.Ltmp572:
	.loc	7 1359 7 is_stmt 0              @ ../Library/STM32F4xx_HAL_Driver/Src/stm32f4xx_hal_tim_ex.c:1359:7
	cmp	r0, #2
	beq	.LBB22_7
.Ltmp573:
@ %bb.4:
	@DEBUG_VALUE: HAL_TIMEx_PWMN_Start_DMA:htim <- $r5
	@DEBUG_VALUE: HAL_TIMEx_PWMN_Start_DMA:Channel <- $r4
	@DEBUG_VALUE: HAL_TIMEx_PWMN_Start_DMA:Length <- $r3
	@DEBUG_VALUE: HAL_TIMEx_PWMN_Start_DMA:pData <- $r2
	@DEBUG_VALUE: HAL_TIMEx_PWMN_Start_DMA:status <- 0
	.loc	7 1363 12 is_stmt 1             @ ../Library/STM32F4xx_HAL_Driver/Src/stm32f4xx_hal_tim_ex.c:1363:12
	add.w	r0, r5, #66
	b	.LBB22_11
.Ltmp574:
.LBB22_5:
	@DEBUG_VALUE: HAL_TIMEx_PWMN_Start_DMA:htim <- $r5
	@DEBUG_VALUE: HAL_TIMEx_PWMN_Start_DMA:Channel <- $r4
	@DEBUG_VALUE: HAL_TIMEx_PWMN_Start_DMA:Length <- $r3
	@DEBUG_VALUE: HAL_TIMEx_PWMN_Start_DMA:pData <- $r2
	@DEBUG_VALUE: HAL_TIMEx_PWMN_Start_DMA:status <- 0
	.loc	7 1359 7                        @ ../Library/STM32F4xx_HAL_Driver/Src/stm32f4xx_hal_tim_ex.c:1359:7
	add.w	r0, r5, #68
.Ltmp575:
.LBB22_6:
	@DEBUG_VALUE: HAL_TIMEx_PWMN_Start_DMA:htim <- $r5
	@DEBUG_VALUE: HAL_TIMEx_PWMN_Start_DMA:Channel <- $r4
	@DEBUG_VALUE: HAL_TIMEx_PWMN_Start_DMA:Length <- $r3
	@DEBUG_VALUE: HAL_TIMEx_PWMN_Start_DMA:pData <- $r2
	@DEBUG_VALUE: HAL_TIMEx_PWMN_Start_DMA:status <- 0
	ldrb	r0, [r0]
.Ltmp576:
	.loc	7 1359 7 is_stmt 0              @ ../Library/STM32F4xx_HAL_Driver/Src/stm32f4xx_hal_tim_ex.c:1359:7
	cmp	r0, #2
	bne	.LBB22_8
.Ltmp577:
.LBB22_7:
	@DEBUG_VALUE: HAL_TIMEx_PWMN_Start_DMA:htim <- $r5
	@DEBUG_VALUE: HAL_TIMEx_PWMN_Start_DMA:Channel <- $r4
	@DEBUG_VALUE: HAL_TIMEx_PWMN_Start_DMA:Length <- $r3
	@DEBUG_VALUE: HAL_TIMEx_PWMN_Start_DMA:pData <- $r2
	@DEBUG_VALUE: HAL_TIMEx_PWMN_Start_DMA:status <- 0
	.loc	7 0 7                           @ ../Library/STM32F4xx_HAL_Driver/Src/stm32f4xx_hal_tim_ex.c:0:7
	movs	r0, #2
	.loc	7 1474 1 is_stmt 1              @ ../Library/STM32F4xx_HAL_Driver/Src/stm32f4xx_hal_tim_ex.c:1474:1
	pop	{r4, r5, r7, pc}
.Ltmp578:
.LBB22_8:
	@DEBUG_VALUE: HAL_TIMEx_PWMN_Start_DMA:htim <- $r5
	@DEBUG_VALUE: HAL_TIMEx_PWMN_Start_DMA:Channel <- $r4
	@DEBUG_VALUE: HAL_TIMEx_PWMN_Start_DMA:Length <- $r3
	@DEBUG_VALUE: HAL_TIMEx_PWMN_Start_DMA:pData <- $r2
	@DEBUG_VALUE: HAL_TIMEx_PWMN_Start_DMA:status <- 0
	.loc	7 1363 12                       @ ../Library/STM32F4xx_HAL_Driver/Src/stm32f4xx_hal_tim_ex.c:1363:12
	cmp	r4, #8
	beq	.LBB22_10
.Ltmp579:
@ %bb.9:
	@DEBUG_VALUE: HAL_TIMEx_PWMN_Start_DMA:htim <- $r5
	@DEBUG_VALUE: HAL_TIMEx_PWMN_Start_DMA:Channel <- $r4
	@DEBUG_VALUE: HAL_TIMEx_PWMN_Start_DMA:Length <- $r3
	@DEBUG_VALUE: HAL_TIMEx_PWMN_Start_DMA:pData <- $r2
	@DEBUG_VALUE: HAL_TIMEx_PWMN_Start_DMA:status <- 0
	cmp	r4, #4
	ite	ne
	addne.w	r0, r5, #69
	addeq.w	r0, r5, #67
	b	.LBB22_11
.Ltmp580:
.LBB22_10:
	@DEBUG_VALUE: HAL_TIMEx_PWMN_Start_DMA:htim <- $r5
	@DEBUG_VALUE: HAL_TIMEx_PWMN_Start_DMA:Channel <- $r4
	@DEBUG_VALUE: HAL_TIMEx_PWMN_Start_DMA:Length <- $r3
	@DEBUG_VALUE: HAL_TIMEx_PWMN_Start_DMA:pData <- $r2
	@DEBUG_VALUE: HAL_TIMEx_PWMN_Start_DMA:status <- 0
	add.w	r0, r5, #68
.Ltmp581:
.LBB22_11:
	@DEBUG_VALUE: HAL_TIMEx_PWMN_Start_DMA:htim <- $r5
	@DEBUG_VALUE: HAL_TIMEx_PWMN_Start_DMA:Channel <- $r4
	@DEBUG_VALUE: HAL_TIMEx_PWMN_Start_DMA:Length <- $r3
	@DEBUG_VALUE: HAL_TIMEx_PWMN_Start_DMA:pData <- $r2
	@DEBUG_VALUE: HAL_TIMEx_PWMN_Start_DMA:status <- 0
	@DEBUG_VALUE: HAL_TIMEx_PWMN_Start_DMA:Length <- $r3
	ldrb	r0, [r0]
.Ltmp582:
	.loc	7 1363 12 is_stmt 0             @ ../Library/STM32F4xx_HAL_Driver/Src/stm32f4xx_hal_tim_ex.c:1363:12
	cmp	r0, #1
	bne	.LBB22_14
.Ltmp583:
@ %bb.12:
	@DEBUG_VALUE: HAL_TIMEx_PWMN_Start_DMA:htim <- $r5
	@DEBUG_VALUE: HAL_TIMEx_PWMN_Start_DMA:Channel <- $r4
	@DEBUG_VALUE: HAL_TIMEx_PWMN_Start_DMA:Length <- $r3
	@DEBUG_VALUE: HAL_TIMEx_PWMN_Start_DMA:pData <- $r2
	@DEBUG_VALUE: HAL_TIMEx_PWMN_Start_DMA:status <- 0
	@DEBUG_VALUE: HAL_TIMEx_PWMN_Start_DMA:Length <- $r3
	.loc	7 1365 25 is_stmt 1             @ ../Library/STM32F4xx_HAL_Driver/Src/stm32f4xx_hal_tim_ex.c:1365:25
	cbnz	r2, .LBB22_15
.Ltmp584:
@ %bb.13:
	@DEBUG_VALUE: HAL_TIMEx_PWMN_Start_DMA:htim <- $r5
	@DEBUG_VALUE: HAL_TIMEx_PWMN_Start_DMA:Channel <- $r4
	@DEBUG_VALUE: HAL_TIMEx_PWMN_Start_DMA:Length <- $r3
	@DEBUG_VALUE: HAL_TIMEx_PWMN_Start_DMA:pData <- $r2
	@DEBUG_VALUE: HAL_TIMEx_PWMN_Start_DMA:status <- 0
	cbz	r3, .LBB22_15
.Ltmp585:
.LBB22_14:
	@DEBUG_VALUE: HAL_TIMEx_PWMN_Start_DMA:htim <- $r5
	@DEBUG_VALUE: HAL_TIMEx_PWMN_Start_DMA:Channel <- $r4
	@DEBUG_VALUE: HAL_TIMEx_PWMN_Start_DMA:status <- 0
	.loc	7 0 25 is_stmt 0                @ ../Library/STM32F4xx_HAL_Driver/Src/stm32f4xx_hal_tim_ex.c:0:25
	movs	r0, #1
	.loc	7 1474 1 is_stmt 1              @ ../Library/STM32F4xx_HAL_Driver/Src/stm32f4xx_hal_tim_ex.c:1474:1
	pop	{r4, r5, r7, pc}
.Ltmp586:
.LBB22_15:
	@DEBUG_VALUE: HAL_TIMEx_PWMN_Start_DMA:htim <- $r5
	@DEBUG_VALUE: HAL_TIMEx_PWMN_Start_DMA:Channel <- $r4
	@DEBUG_VALUE: HAL_TIMEx_PWMN_Start_DMA:Length <- $r3
	@DEBUG_VALUE: HAL_TIMEx_PWMN_Start_DMA:pData <- $r2
	@DEBUG_VALUE: HAL_TIMEx_PWMN_Start_DMA:status <- 0
	@DEBUG_VALUE: HAL_TIMEx_PWMN_Start_DMA:Length <- $r3
	.loc	7 0 1 is_stmt 0                 @ ../Library/STM32F4xx_HAL_Driver/Src/stm32f4xx_hal_tim_ex.c:0:1
	movs	r0, #2
.Ltmp587:
	.loc	7 1371 7 is_stmt 1              @ ../Library/STM32F4xx_HAL_Driver/Src/stm32f4xx_hal_tim_ex.c:1371:7
	cbz	r4, .LBB22_20
.Ltmp588:
@ %bb.16:
	@DEBUG_VALUE: HAL_TIMEx_PWMN_Start_DMA:htim <- $r5
	@DEBUG_VALUE: HAL_TIMEx_PWMN_Start_DMA:Channel <- $r4
	@DEBUG_VALUE: HAL_TIMEx_PWMN_Start_DMA:Length <- $r3
	@DEBUG_VALUE: HAL_TIMEx_PWMN_Start_DMA:pData <- $r2
	@DEBUG_VALUE: HAL_TIMEx_PWMN_Start_DMA:status <- 0
	cmp	r4, #8
	beq	.LBB22_22
.Ltmp589:
@ %bb.17:
	@DEBUG_VALUE: HAL_TIMEx_PWMN_Start_DMA:htim <- $r5
	@DEBUG_VALUE: HAL_TIMEx_PWMN_Start_DMA:Channel <- $r4
	@DEBUG_VALUE: HAL_TIMEx_PWMN_Start_DMA:Length <- $r3
	@DEBUG_VALUE: HAL_TIMEx_PWMN_Start_DMA:pData <- $r2
	@DEBUG_VALUE: HAL_TIMEx_PWMN_Start_DMA:status <- 0
	cmp	r4, #4
	bne.w	.LBB22_28
.Ltmp590:
@ %bb.18:
	@DEBUG_VALUE: HAL_TIMEx_PWMN_Start_DMA:htim <- $r5
	@DEBUG_VALUE: HAL_TIMEx_PWMN_Start_DMA:Channel <- $r4
	@DEBUG_VALUE: HAL_TIMEx_PWMN_Start_DMA:Length <- $r3
	@DEBUG_VALUE: HAL_TIMEx_PWMN_Start_DMA:pData <- $r2
	@DEBUG_VALUE: HAL_TIMEx_PWMN_Start_DMA:status <- 0
	strb.w	r0, [r5, #67]
.Ltmp591:
	.loc	7 1405 7                        @ ../Library/STM32F4xx_HAL_Driver/Src/stm32f4xx_hal_tim_ex.c:1405:7
	ldr	r0, [r5, #40]
	.loc	7 1405 52 is_stmt 0             @ ../Library/STM32F4xx_HAL_Driver/Src/stm32f4xx_hal_tim_ex.c:1405:52
	movw	r1, :lower16:TIM_DMADelayPulseNCplt
	movt	r1, :upper16:TIM_DMADelayPulseNCplt
	str	r1, [r0, #60]
	.loc	7 1406 7 is_stmt 1              @ ../Library/STM32F4xx_HAL_Driver/Src/stm32f4xx_hal_tim_ex.c:1406:7
	ldr	r0, [r5, #40]
	.loc	7 1406 56 is_stmt 0             @ ../Library/STM32F4xx_HAL_Driver/Src/stm32f4xx_hal_tim_ex.c:1406:56
	movw	r1, :lower16:TIM_DMADelayPulseHalfCplt
	movt	r1, :upper16:TIM_DMADelayPulseHalfCplt
	str	r1, [r0, #64]
	.loc	7 1409 7 is_stmt 1              @ ../Library/STM32F4xx_HAL_Driver/Src/stm32f4xx_hal_tim_ex.c:1409:7
	ldr	r0, [r5, #40]
	.loc	7 1409 53 is_stmt 0             @ ../Library/STM32F4xx_HAL_Driver/Src/stm32f4xx_hal_tim_ex.c:1409:53
	movw	r1, :lower16:TIM_DMAErrorCCxN
.Ltmp592:
	.loc	7 1412 90 is_stmt 1             @ ../Library/STM32F4xx_HAL_Driver/Src/stm32f4xx_hal_tim_ex.c:1412:90
	ldr.w	r12, [r5]
.Ltmp593:
	.loc	7 1409 53                       @ ../Library/STM32F4xx_HAL_Driver/Src/stm32f4xx_hal_tim_ex.c:1409:53
	movt	r1, :upper16:TIM_DMAErrorCCxN
	str	r1, [r0, #76]
.Ltmp594:
	.loc	7 1412 28                       @ ../Library/STM32F4xx_HAL_Driver/Src/stm32f4xx_hal_tim_ex.c:1412:28
	ldr	r0, [r5, #40]
	.loc	7 1412 100 is_stmt 0            @ ../Library/STM32F4xx_HAL_Driver/Src/stm32f4xx_hal_tim_ex.c:1412:100
	add.w	r12, r12, #56
	.loc	7 1412 11                       @ ../Library/STM32F4xx_HAL_Driver/Src/stm32f4xx_hal_tim_ex.c:1412:11
	mov	r1, r2
	mov	r2, r12
.Ltmp595:
	@DEBUG_VALUE: HAL_TIMEx_PWMN_Start_DMA:pData <- [DW_OP_LLVM_entry_value 1] $r2
	bl	HAL_DMA_Start_IT
.Ltmp596:
	@DEBUG_VALUE: HAL_TIMEx_PWMN_Start_DMA:Length <- [DW_OP_LLVM_entry_value 1] $r3
	.loc	7 1412 11                       @ ../Library/STM32F4xx_HAL_Driver/Src/stm32f4xx_hal_tim_ex.c:1412:11
	cmp	r0, #0
	bne	.LBB22_14
.Ltmp597:
@ %bb.19:
	@DEBUG_VALUE: HAL_TIMEx_PWMN_Start_DMA:htim <- $r5
	@DEBUG_VALUE: HAL_TIMEx_PWMN_Start_DMA:Channel <- $r4
	@DEBUG_VALUE: HAL_TIMEx_PWMN_Start_DMA:Length <- [DW_OP_LLVM_entry_value 1] $r3
	@DEBUG_VALUE: HAL_TIMEx_PWMN_Start_DMA:pData <- [DW_OP_LLVM_entry_value 1] $r2
	@DEBUG_VALUE: HAL_TIMEx_PWMN_Start_DMA:status <- 0
	.loc	7 0 11                          @ ../Library/STM32F4xx_HAL_Driver/Src/stm32f4xx_hal_tim_ex.c:0:11
	mov.w	r1, #1024
	b	.LBB22_24
.Ltmp598:
.LBB22_20:
	@DEBUG_VALUE: HAL_TIMEx_PWMN_Start_DMA:htim <- $r5
	@DEBUG_VALUE: HAL_TIMEx_PWMN_Start_DMA:Channel <- $r4
	@DEBUG_VALUE: HAL_TIMEx_PWMN_Start_DMA:Length <- $r3
	@DEBUG_VALUE: HAL_TIMEx_PWMN_Start_DMA:pData <- $r2
	@DEBUG_VALUE: HAL_TIMEx_PWMN_Start_DMA:status <- 0
	.loc	7 1371 7 is_stmt 1              @ ../Library/STM32F4xx_HAL_Driver/Src/stm32f4xx_hal_tim_ex.c:1371:7
	strb.w	r0, [r5, #66]
.Ltmp599:
	.loc	7 1384 7                        @ ../Library/STM32F4xx_HAL_Driver/Src/stm32f4xx_hal_tim_ex.c:1384:7
	ldr	r0, [r5, #36]
	.loc	7 1384 52 is_stmt 0             @ ../Library/STM32F4xx_HAL_Driver/Src/stm32f4xx_hal_tim_ex.c:1384:52
	movw	r1, :lower16:TIM_DMADelayPulseNCplt
	movt	r1, :upper16:TIM_DMADelayPulseNCplt
	str	r1, [r0, #60]
	.loc	7 1385 7 is_stmt 1              @ ../Library/STM32F4xx_HAL_Driver/Src/stm32f4xx_hal_tim_ex.c:1385:7
	ldr	r0, [r5, #36]
	.loc	7 1385 56 is_stmt 0             @ ../Library/STM32F4xx_HAL_Driver/Src/stm32f4xx_hal_tim_ex.c:1385:56
	movw	r1, :lower16:TIM_DMADelayPulseHalfCplt
	movt	r1, :upper16:TIM_DMADelayPulseHalfCplt
	str	r1, [r0, #64]
	.loc	7 1388 7 is_stmt 1              @ ../Library/STM32F4xx_HAL_Driver/Src/stm32f4xx_hal_tim_ex.c:1388:7
	ldr	r0, [r5, #36]
	.loc	7 1388 53 is_stmt 0             @ ../Library/STM32F4xx_HAL_Driver/Src/stm32f4xx_hal_tim_ex.c:1388:53
	movw	r1, :lower16:TIM_DMAErrorCCxN
.Ltmp600:
	.loc	7 1391 90 is_stmt 1             @ ../Library/STM32F4xx_HAL_Driver/Src/stm32f4xx_hal_tim_ex.c:1391:90
	ldr.w	r12, [r5]
.Ltmp601:
	.loc	7 1388 53                       @ ../Library/STM32F4xx_HAL_Driver/Src/stm32f4xx_hal_tim_ex.c:1388:53
	movt	r1, :upper16:TIM_DMAErrorCCxN
	str	r1, [r0, #76]
.Ltmp602:
	.loc	7 1391 28                       @ ../Library/STM32F4xx_HAL_Driver/Src/stm32f4xx_hal_tim_ex.c:1391:28
	ldr	r0, [r5, #36]
	.loc	7 1391 100 is_stmt 0            @ ../Library/STM32F4xx_HAL_Driver/Src/stm32f4xx_hal_tim_ex.c:1391:100
	add.w	r12, r12, #52
	.loc	7 1391 11                       @ ../Library/STM32F4xx_HAL_Driver/Src/stm32f4xx_hal_tim_ex.c:1391:11
	mov	r1, r2
	mov	r2, r12
.Ltmp603:
	@DEBUG_VALUE: HAL_TIMEx_PWMN_Start_DMA:pData <- [DW_OP_LLVM_entry_value 1] $r2
	bl	HAL_DMA_Start_IT
.Ltmp604:
	@DEBUG_VALUE: HAL_TIMEx_PWMN_Start_DMA:Length <- [DW_OP_LLVM_entry_value 1] $r3
	.loc	7 1391 11                       @ ../Library/STM32F4xx_HAL_Driver/Src/stm32f4xx_hal_tim_ex.c:1391:11
	cmp	r0, #0
	bne	.LBB22_14
.Ltmp605:
@ %bb.21:
	@DEBUG_VALUE: HAL_TIMEx_PWMN_Start_DMA:htim <- $r5
	@DEBUG_VALUE: HAL_TIMEx_PWMN_Start_DMA:Channel <- $r4
	@DEBUG_VALUE: HAL_TIMEx_PWMN_Start_DMA:Length <- [DW_OP_LLVM_entry_value 1] $r3
	@DEBUG_VALUE: HAL_TIMEx_PWMN_Start_DMA:pData <- [DW_OP_LLVM_entry_value 1] $r2
	@DEBUG_VALUE: HAL_TIMEx_PWMN_Start_DMA:status <- 0
	.loc	7 0 11                          @ ../Library/STM32F4xx_HAL_Driver/Src/stm32f4xx_hal_tim_ex.c:0:11
	mov.w	r1, #512
	b	.LBB22_24
.Ltmp606:
.LBB22_22:
	@DEBUG_VALUE: HAL_TIMEx_PWMN_Start_DMA:htim <- $r5
	@DEBUG_VALUE: HAL_TIMEx_PWMN_Start_DMA:Channel <- $r4
	@DEBUG_VALUE: HAL_TIMEx_PWMN_Start_DMA:Length <- $r3
	@DEBUG_VALUE: HAL_TIMEx_PWMN_Start_DMA:pData <- $r2
	@DEBUG_VALUE: HAL_TIMEx_PWMN_Start_DMA:status <- 0
	.loc	7 1371 7 is_stmt 1              @ ../Library/STM32F4xx_HAL_Driver/Src/stm32f4xx_hal_tim_ex.c:1371:7
	strb.w	r0, [r5, #68]
.Ltmp607:
	.loc	7 1426 7                        @ ../Library/STM32F4xx_HAL_Driver/Src/stm32f4xx_hal_tim_ex.c:1426:7
	ldr	r0, [r5, #44]
	.loc	7 1426 52 is_stmt 0             @ ../Library/STM32F4xx_HAL_Driver/Src/stm32f4xx_hal_tim_ex.c:1426:52
	movw	r1, :lower16:TIM_DMADelayPulseNCplt
	movt	r1, :upper16:TIM_DMADelayPulseNCplt
	str	r1, [r0, #60]
	.loc	7 1427 7 is_stmt 1              @ ../Library/STM32F4xx_HAL_Driver/Src/stm32f4xx_hal_tim_ex.c:1427:7
	ldr	r0, [r5, #44]
	.loc	7 1427 56 is_stmt 0             @ ../Library/STM32F4xx_HAL_Driver/Src/stm32f4xx_hal_tim_ex.c:1427:56
	movw	r1, :lower16:TIM_DMADelayPulseHalfCplt
	movt	r1, :upper16:TIM_DMADelayPulseHalfCplt
	str	r1, [r0, #64]
	.loc	7 1430 7 is_stmt 1              @ ../Library/STM32F4xx_HAL_Driver/Src/stm32f4xx_hal_tim_ex.c:1430:7
	ldr	r0, [r5, #44]
	.loc	7 1430 53 is_stmt 0             @ ../Library/STM32F4xx_HAL_Driver/Src/stm32f4xx_hal_tim_ex.c:1430:53
	movw	r1, :lower16:TIM_DMAErrorCCxN
.Ltmp608:
	.loc	7 1433 90 is_stmt 1             @ ../Library/STM32F4xx_HAL_Driver/Src/stm32f4xx_hal_tim_ex.c:1433:90
	ldr.w	r12, [r5]
.Ltmp609:
	.loc	7 1430 53                       @ ../Library/STM32F4xx_HAL_Driver/Src/stm32f4xx_hal_tim_ex.c:1430:53
	movt	r1, :upper16:TIM_DMAErrorCCxN
	str	r1, [r0, #76]
.Ltmp610:
	.loc	7 1433 28                       @ ../Library/STM32F4xx_HAL_Driver/Src/stm32f4xx_hal_tim_ex.c:1433:28
	ldr	r0, [r5, #44]
	.loc	7 1433 100 is_stmt 0            @ ../Library/STM32F4xx_HAL_Driver/Src/stm32f4xx_hal_tim_ex.c:1433:100
	add.w	r12, r12, #60
	.loc	7 1433 11                       @ ../Library/STM32F4xx_HAL_Driver/Src/stm32f4xx_hal_tim_ex.c:1433:11
	mov	r1, r2
	mov	r2, r12
.Ltmp611:
	@DEBUG_VALUE: HAL_TIMEx_PWMN_Start_DMA:pData <- [DW_OP_LLVM_entry_value 1] $r2
	bl	HAL_DMA_Start_IT
.Ltmp612:
	@DEBUG_VALUE: HAL_TIMEx_PWMN_Start_DMA:Length <- [DW_OP_LLVM_entry_value 1] $r3
	.loc	7 1433 11                       @ ../Library/STM32F4xx_HAL_Driver/Src/stm32f4xx_hal_tim_ex.c:1433:11
	cmp	r0, #0
	bne	.LBB22_14
.Ltmp613:
@ %bb.23:
	@DEBUG_VALUE: HAL_TIMEx_PWMN_Start_DMA:htim <- $r5
	@DEBUG_VALUE: HAL_TIMEx_PWMN_Start_DMA:Channel <- $r4
	@DEBUG_VALUE: HAL_TIMEx_PWMN_Start_DMA:Length <- [DW_OP_LLVM_entry_value 1] $r3
	@DEBUG_VALUE: HAL_TIMEx_PWMN_Start_DMA:pData <- [DW_OP_LLVM_entry_value 1] $r2
	@DEBUG_VALUE: HAL_TIMEx_PWMN_Start_DMA:status <- 0
	.loc	7 0 11                          @ ../Library/STM32F4xx_HAL_Driver/Src/stm32f4xx_hal_tim_ex.c:0:11
	mov.w	r1, #2048
.Ltmp614:
.LBB22_24:
	@DEBUG_VALUE: HAL_TIMEx_PWMN_Start_DMA:htim <- $r5
	@DEBUG_VALUE: HAL_TIMEx_PWMN_Start_DMA:Channel <- $r4
	@DEBUG_VALUE: HAL_TIMEx_PWMN_Start_DMA:Length <- [DW_OP_LLVM_entry_value 1] $r3
	@DEBUG_VALUE: HAL_TIMEx_PWMN_Start_DMA:pData <- [DW_OP_LLVM_entry_value 1] $r2
	@DEBUG_VALUE: HAL_TIMEx_PWMN_Start_DMA:status <- 0
	ldr	r0, [r5]
	ldr	r2, [r0, #12]
	orrs	r1, r2
	str	r1, [r0, #12]
	movs	r1, #4
.Ltmp615:
	@DEBUG_VALUE: TIM_CCxNChannelCmd:ChannelNState <- 4
	@DEBUG_VALUE: TIM_CCxNChannelCmd:Channel <- $r4
	@DEBUG_VALUE: TIM_CCxNChannelCmd:TIMx <- $r0
	@DEBUG_VALUE: HAL_TIMEx_PWMN_Start_DMA:status <- undef
	.loc	7 2411 14 is_stmt 1             @ ../Library/STM32F4xx_HAL_Driver/Src/stm32f4xx_hal_tim_ex.c:2411:14
	ldr	r2, [r0, #32]
	.loc	7 2408 24                       @ ../Library/STM32F4xx_HAL_Driver/Src/stm32f4xx_hal_tim_ex.c:2408:24
	lsls	r1, r4
.Ltmp616:
	@DEBUG_VALUE: TIM_CCxNChannelCmd:tmp <- $r1
	.loc	7 2411 14                       @ ../Library/STM32F4xx_HAL_Driver/Src/stm32f4xx_hal_tim_ex.c:2411:14
	bics	r2, r1
	str	r2, [r0, #32]
	.loc	7 2414 14                       @ ../Library/STM32F4xx_HAL_Driver/Src/stm32f4xx_hal_tim_ex.c:2414:14
	ldr	r2, [r0, #32]
	orrs	r1, r2
.Ltmp617:
	str	r1, [r0, #32]
.Ltmp618:
	.loc	7 1455 5                        @ ../Library/STM32F4xx_HAL_Driver/Src/stm32f4xx_hal_tim_ex.c:1455:5
	ldr	r1, [r0, #68]
	movw	r2, #6143
	movt	r2, #16384
	orr	r1, r1, #32768
.Ltmp619:
	.loc	7 1458 9                        @ ../Library/STM32F4xx_HAL_Driver/Src/stm32f4xx_hal_tim_ex.c:1458:9
	cmp	r0, r2
.Ltmp620:
	.loc	7 1455 5                        @ ../Library/STM32F4xx_HAL_Driver/Src/stm32f4xx_hal_tim_ex.c:1455:5
	str	r1, [r0, #68]
.Ltmp621:
	.loc	7 1458 9                        @ ../Library/STM32F4xx_HAL_Driver/Src/stm32f4xx_hal_tim_ex.c:1458:9
	bgt	.LBB22_29
.Ltmp622:
@ %bb.25:
	@DEBUG_VALUE: HAL_TIMEx_PWMN_Start_DMA:htim <- $r5
	@DEBUG_VALUE: HAL_TIMEx_PWMN_Start_DMA:Channel <- $r4
	@DEBUG_VALUE: HAL_TIMEx_PWMN_Start_DMA:Length <- [DW_OP_LLVM_entry_value 1] $r3
	@DEBUG_VALUE: HAL_TIMEx_PWMN_Start_DMA:pData <- [DW_OP_LLVM_entry_value 1] $r2
	.loc	7 0 9 is_stmt 0                 @ ../Library/STM32F4xx_HAL_Driver/Src/stm32f4xx_hal_tim_ex.c:0:9
	movw	r1, #2047
	movt	r1, #16384
	.loc	7 1458 9                        @ ../Library/STM32F4xx_HAL_Driver/Src/stm32f4xx_hal_tim_ex.c:1458:9
	cmp	r0, r1
	bgt	.LBB22_32
.Ltmp623:
@ %bb.26:
	@DEBUG_VALUE: HAL_TIMEx_PWMN_Start_DMA:htim <- $r5
	@DEBUG_VALUE: HAL_TIMEx_PWMN_Start_DMA:Channel <- $r4
	@DEBUG_VALUE: HAL_TIMEx_PWMN_Start_DMA:Length <- [DW_OP_LLVM_entry_value 1] $r3
	@DEBUG_VALUE: HAL_TIMEx_PWMN_Start_DMA:pData <- [DW_OP_LLVM_entry_value 1] $r2
	cmp.w	r0, #1073741824
	beq	.LBB22_39
.Ltmp624:
@ %bb.27:
	@DEBUG_VALUE: HAL_TIMEx_PWMN_Start_DMA:htim <- $r5
	@DEBUG_VALUE: HAL_TIMEx_PWMN_Start_DMA:Channel <- $r4
	@DEBUG_VALUE: HAL_TIMEx_PWMN_Start_DMA:Length <- [DW_OP_LLVM_entry_value 1] $r3
	@DEBUG_VALUE: HAL_TIMEx_PWMN_Start_DMA:pData <- [DW_OP_LLVM_entry_value 1] $r2
	.loc	7 0 9                           @ ../Library/STM32F4xx_HAL_Driver/Src/stm32f4xx_hal_tim_ex.c:0:9
	movw	r1, #1024
	b	.LBB22_34
.Ltmp625:
.LBB22_28:
	@DEBUG_VALUE: HAL_TIMEx_PWMN_Start_DMA:htim <- $r5
	@DEBUG_VALUE: HAL_TIMEx_PWMN_Start_DMA:Channel <- $r4
	@DEBUG_VALUE: HAL_TIMEx_PWMN_Start_DMA:Length <- $r3
	@DEBUG_VALUE: HAL_TIMEx_PWMN_Start_DMA:pData <- $r2
	@DEBUG_VALUE: HAL_TIMEx_PWMN_Start_DMA:status <- 0
	.loc	7 1371 7 is_stmt 1              @ ../Library/STM32F4xx_HAL_Driver/Src/stm32f4xx_hal_tim_ex.c:1371:7
	strb.w	r0, [r5, #69]
	b	.LBB22_14
.Ltmp626:
.LBB22_29:
	@DEBUG_VALUE: HAL_TIMEx_PWMN_Start_DMA:htim <- $r5
	@DEBUG_VALUE: HAL_TIMEx_PWMN_Start_DMA:Channel <- $r4
	@DEBUG_VALUE: HAL_TIMEx_PWMN_Start_DMA:Length <- [DW_OP_LLVM_entry_value 1] $r3
	@DEBUG_VALUE: HAL_TIMEx_PWMN_Start_DMA:pData <- [DW_OP_LLVM_entry_value 1] $r2
	.loc	7 0 7 is_stmt 0                 @ ../Library/STM32F4xx_HAL_Driver/Src/stm32f4xx_hal_tim_ex.c:0:7
	movw	r1, #1023
	movt	r1, #16385
.Ltmp627:
	.loc	7 1458 9 is_stmt 1              @ ../Library/STM32F4xx_HAL_Driver/Src/stm32f4xx_hal_tim_ex.c:1458:9
	cmp	r0, r1
	bgt	.LBB22_35
.Ltmp628:
@ %bb.30:
	@DEBUG_VALUE: HAL_TIMEx_PWMN_Start_DMA:htim <- $r5
	@DEBUG_VALUE: HAL_TIMEx_PWMN_Start_DMA:Channel <- $r4
	@DEBUG_VALUE: HAL_TIMEx_PWMN_Start_DMA:Length <- [DW_OP_LLVM_entry_value 1] $r3
	@DEBUG_VALUE: HAL_TIMEx_PWMN_Start_DMA:pData <- [DW_OP_LLVM_entry_value 1] $r2
	.loc	7 0 9 is_stmt 0                 @ ../Library/STM32F4xx_HAL_Driver/Src/stm32f4xx_hal_tim_ex.c:0:9
	movw	r1, #6144
	movt	r1, #16384
	.loc	7 1458 9                        @ ../Library/STM32F4xx_HAL_Driver/Src/stm32f4xx_hal_tim_ex.c:1458:9
	cmp	r0, r1
	beq	.LBB22_39
.Ltmp629:
@ %bb.31:
	@DEBUG_VALUE: HAL_TIMEx_PWMN_Start_DMA:htim <- $r5
	@DEBUG_VALUE: HAL_TIMEx_PWMN_Start_DMA:Channel <- $r4
	@DEBUG_VALUE: HAL_TIMEx_PWMN_Start_DMA:Length <- [DW_OP_LLVM_entry_value 1] $r3
	@DEBUG_VALUE: HAL_TIMEx_PWMN_Start_DMA:pData <- [DW_OP_LLVM_entry_value 1] $r2
	.loc	7 0 9                           @ ../Library/STM32F4xx_HAL_Driver/Src/stm32f4xx_hal_tim_ex.c:0:9
	movs	r1, #0
	b	.LBB22_37
.Ltmp630:
.LBB22_32:
	@DEBUG_VALUE: HAL_TIMEx_PWMN_Start_DMA:htim <- $r5
	@DEBUG_VALUE: HAL_TIMEx_PWMN_Start_DMA:Channel <- $r4
	@DEBUG_VALUE: HAL_TIMEx_PWMN_Start_DMA:Length <- [DW_OP_LLVM_entry_value 1] $r3
	@DEBUG_VALUE: HAL_TIMEx_PWMN_Start_DMA:pData <- [DW_OP_LLVM_entry_value 1] $r2
	movw	r1, #2048
	movt	r1, #16384
	.loc	7 1458 9                        @ ../Library/STM32F4xx_HAL_Driver/Src/stm32f4xx_hal_tim_ex.c:1458:9
	cmp	r0, r1
	beq	.LBB22_39
.Ltmp631:
@ %bb.33:
	@DEBUG_VALUE: HAL_TIMEx_PWMN_Start_DMA:htim <- $r5
	@DEBUG_VALUE: HAL_TIMEx_PWMN_Start_DMA:Channel <- $r4
	@DEBUG_VALUE: HAL_TIMEx_PWMN_Start_DMA:Length <- [DW_OP_LLVM_entry_value 1] $r3
	@DEBUG_VALUE: HAL_TIMEx_PWMN_Start_DMA:pData <- [DW_OP_LLVM_entry_value 1] $r2
	.loc	7 0 9                           @ ../Library/STM32F4xx_HAL_Driver/Src/stm32f4xx_hal_tim_ex.c:0:9
	movw	r1, #3072
.Ltmp632:
.LBB22_34:
	@DEBUG_VALUE: HAL_TIMEx_PWMN_Start_DMA:htim <- $r5
	@DEBUG_VALUE: HAL_TIMEx_PWMN_Start_DMA:Channel <- $r4
	@DEBUG_VALUE: HAL_TIMEx_PWMN_Start_DMA:Length <- [DW_OP_LLVM_entry_value 1] $r3
	@DEBUG_VALUE: HAL_TIMEx_PWMN_Start_DMA:pData <- [DW_OP_LLVM_entry_value 1] $r2
	movt	r1, #16384
	b	.LBB22_38
.Ltmp633:
.LBB22_35:
	@DEBUG_VALUE: HAL_TIMEx_PWMN_Start_DMA:htim <- $r5
	@DEBUG_VALUE: HAL_TIMEx_PWMN_Start_DMA:Channel <- $r4
	@DEBUG_VALUE: HAL_TIMEx_PWMN_Start_DMA:Length <- [DW_OP_LLVM_entry_value 1] $r3
	@DEBUG_VALUE: HAL_TIMEx_PWMN_Start_DMA:pData <- [DW_OP_LLVM_entry_value 1] $r2
	movw	r1, #16384
	movt	r1, #16385
	.loc	7 1458 9                        @ ../Library/STM32F4xx_HAL_Driver/Src/stm32f4xx_hal_tim_ex.c:1458:9
	cmp	r0, r1
	beq	.LBB22_39
.Ltmp634:
@ %bb.36:
	@DEBUG_VALUE: HAL_TIMEx_PWMN_Start_DMA:htim <- $r5
	@DEBUG_VALUE: HAL_TIMEx_PWMN_Start_DMA:Channel <- $r4
	@DEBUG_VALUE: HAL_TIMEx_PWMN_Start_DMA:Length <- [DW_OP_LLVM_entry_value 1] $r3
	@DEBUG_VALUE: HAL_TIMEx_PWMN_Start_DMA:pData <- [DW_OP_LLVM_entry_value 1] $r2
	.loc	7 0 9                           @ ../Library/STM32F4xx_HAL_Driver/Src/stm32f4xx_hal_tim_ex.c:0:9
	movw	r1, #1024
.Ltmp635:
.LBB22_37:
	@DEBUG_VALUE: HAL_TIMEx_PWMN_Start_DMA:htim <- $r5
	@DEBUG_VALUE: HAL_TIMEx_PWMN_Start_DMA:Channel <- $r4
	@DEBUG_VALUE: HAL_TIMEx_PWMN_Start_DMA:Length <- [DW_OP_LLVM_entry_value 1] $r3
	@DEBUG_VALUE: HAL_TIMEx_PWMN_Start_DMA:pData <- [DW_OP_LLVM_entry_value 1] $r2
	movt	r1, #16385
.Ltmp636:
.LBB22_38:
	@DEBUG_VALUE: HAL_TIMEx_PWMN_Start_DMA:htim <- $r5
	@DEBUG_VALUE: HAL_TIMEx_PWMN_Start_DMA:Channel <- $r4
	@DEBUG_VALUE: HAL_TIMEx_PWMN_Start_DMA:Length <- [DW_OP_LLVM_entry_value 1] $r3
	@DEBUG_VALUE: HAL_TIMEx_PWMN_Start_DMA:pData <- [DW_OP_LLVM_entry_value 1] $r2
	.loc	7 1458 9                        @ ../Library/STM32F4xx_HAL_Driver/Src/stm32f4xx_hal_tim_ex.c:1458:9
	cmp	r0, r1
	bne	.LBB22_40
.Ltmp637:
.LBB22_39:
	@DEBUG_VALUE: HAL_TIMEx_PWMN_Start_DMA:htim <- $r5
	@DEBUG_VALUE: HAL_TIMEx_PWMN_Start_DMA:Channel <- $r4
	@DEBUG_VALUE: HAL_TIMEx_PWMN_Start_DMA:Length <- [DW_OP_LLVM_entry_value 1] $r3
	@DEBUG_VALUE: HAL_TIMEx_PWMN_Start_DMA:pData <- [DW_OP_LLVM_entry_value 1] $r2
	.loc	7 1460 33 is_stmt 1             @ ../Library/STM32F4xx_HAL_Driver/Src/stm32f4xx_hal_tim_ex.c:1460:33
	ldr	r1, [r0, #8]
	.loc	7 1460 38 is_stmt 0             @ ../Library/STM32F4xx_HAL_Driver/Src/stm32f4xx_hal_tim_ex.c:1460:38
	and	r1, r1, #7
.Ltmp638:
	@DEBUG_VALUE: HAL_TIMEx_PWMN_Start_DMA:tmpsmcr <- $r1
	.loc	7 1461 11 is_stmt 1             @ ../Library/STM32F4xx_HAL_Driver/Src/stm32f4xx_hal_tim_ex.c:1461:11
	cmp	r1, #6
	beq	.LBB22_41
.Ltmp639:
.LBB22_40:
	@DEBUG_VALUE: HAL_TIMEx_PWMN_Start_DMA:htim <- $r5
	@DEBUG_VALUE: HAL_TIMEx_PWMN_Start_DMA:Channel <- $r4
	@DEBUG_VALUE: HAL_TIMEx_PWMN_Start_DMA:Length <- [DW_OP_LLVM_entry_value 1] $r3
	@DEBUG_VALUE: HAL_TIMEx_PWMN_Start_DMA:pData <- [DW_OP_LLVM_entry_value 1] $r2
	.loc	7 0 0 is_stmt 0                 @ ../Library/STM32F4xx_HAL_Driver/Src/stm32f4xx_hal_tim_ex.c:0:0
	ldr	r1, [r0]
	orr	r1, r1, #1
	str	r1, [r0]
.Ltmp640:
.LBB22_41:
	@DEBUG_VALUE: HAL_TIMEx_PWMN_Start_DMA:htim <- $r5
	@DEBUG_VALUE: HAL_TIMEx_PWMN_Start_DMA:Channel <- $r4
	@DEBUG_VALUE: HAL_TIMEx_PWMN_Start_DMA:Length <- [DW_OP_LLVM_entry_value 1] $r3
	@DEBUG_VALUE: HAL_TIMEx_PWMN_Start_DMA:pData <- [DW_OP_LLVM_entry_value 1] $r2
	movs	r0, #0
	.loc	7 1474 1 is_stmt 1              @ ../Library/STM32F4xx_HAL_Driver/Src/stm32f4xx_hal_tim_ex.c:1474:1
	pop	{r4, r5, r7, pc}
.Ltmp641:
.Lfunc_end22:
	.size	HAL_TIMEx_PWMN_Start_DMA, .Lfunc_end22-HAL_TIMEx_PWMN_Start_DMA
	.cfi_endproc
	.cantunwind
	.fnend
                                        @ -- End function
	.section	.text.HAL_TIMEx_PWMN_Stop_DMA,"ax",%progbits
	.hidden	HAL_TIMEx_PWMN_Stop_DMA         @ -- Begin function HAL_TIMEx_PWMN_Stop_DMA
	.globl	HAL_TIMEx_PWMN_Stop_DMA
	.p2align	1
	.type	HAL_TIMEx_PWMN_Stop_DMA,%function
	.code	16                              @ @HAL_TIMEx_PWMN_Stop_DMA
	.thumb_func
HAL_TIMEx_PWMN_Stop_DMA:
.Lfunc_begin23:
	.loc	7 1488 0                        @ ../Library/STM32F4xx_HAL_Driver/Src/stm32f4xx_hal_tim_ex.c:1488:0
	.fnstart
	.cfi_startproc
@ %bb.0:
	@DEBUG_VALUE: HAL_TIMEx_PWMN_Stop_DMA:htim <- $r0
	@DEBUG_VALUE: HAL_TIMEx_PWMN_Stop_DMA:Channel <- $r1
	.save	{r4, r5, r7, lr}
	push	{r4, r5, r7, lr}
	.cfi_def_cfa_offset 16
	.cfi_offset lr, -4
	.cfi_offset r7, -8
	.cfi_offset r5, -12
	.cfi_offset r4, -16
	mov	r5, r1
.Ltmp642:
	@DEBUG_VALUE: HAL_TIMEx_PWMN_Stop_DMA:Channel <- $r5
	.loc	7 1494 3 prologue_end           @ ../Library/STM32F4xx_HAL_Driver/Src/stm32f4xx_hal_tim_ex.c:1494:3
	cmp	r1, #8
	mov	r4, r0
.Ltmp643:
	@DEBUG_VALUE: HAL_TIMEx_PWMN_Stop_DMA:htim <- $r4
	@DEBUG_VALUE: HAL_TIMEx_PWMN_Stop_DMA:status <- 0
	@DEBUG_VALUE: HAL_TIMEx_PWMN_Stop_DMA:htim <- $r4
	beq	.LBB23_4
.Ltmp644:
@ %bb.1:
	@DEBUG_VALUE: HAL_TIMEx_PWMN_Stop_DMA:Channel <- $r5
	@DEBUG_VALUE: HAL_TIMEx_PWMN_Stop_DMA:htim <- $r4
	@DEBUG_VALUE: HAL_TIMEx_PWMN_Stop_DMA:status <- 0
	cmp	r5, #4
	beq	.LBB23_5
.Ltmp645:
@ %bb.2:
	@DEBUG_VALUE: HAL_TIMEx_PWMN_Stop_DMA:Channel <- $r5
	@DEBUG_VALUE: HAL_TIMEx_PWMN_Stop_DMA:htim <- $r4
	@DEBUG_VALUE: HAL_TIMEx_PWMN_Stop_DMA:status <- 0
	cmp	r5, #0
	bne	.LBB23_15
.Ltmp646:
@ %bb.3:
	@DEBUG_VALUE: HAL_TIMEx_PWMN_Stop_DMA:Channel <- $r5
	@DEBUG_VALUE: HAL_TIMEx_PWMN_Stop_DMA:htim <- $r4
	@DEBUG_VALUE: HAL_TIMEx_PWMN_Stop_DMA:status <- 0
	.loc	7 1499 7                        @ ../Library/STM32F4xx_HAL_Driver/Src/stm32f4xx_hal_tim_ex.c:1499:7
	mov	r0, r4
	ldr	r1, [r0], #36
	ldr	r2, [r1, #12]
	bic	r2, r2, #512
	b	.LBB23_6
.Ltmp647:
.LBB23_4:
	@DEBUG_VALUE: HAL_TIMEx_PWMN_Stop_DMA:Channel <- $r5
	@DEBUG_VALUE: HAL_TIMEx_PWMN_Stop_DMA:htim <- $r4
	@DEBUG_VALUE: HAL_TIMEx_PWMN_Stop_DMA:status <- 0
	.loc	7 1515 7                        @ ../Library/STM32F4xx_HAL_Driver/Src/stm32f4xx_hal_tim_ex.c:1515:7
	mov	r0, r4
	ldr	r1, [r0], #44
	ldr	r2, [r1, #12]
	bic	r2, r2, #2048
	b	.LBB23_6
.Ltmp648:
.LBB23_5:
	@DEBUG_VALUE: HAL_TIMEx_PWMN_Stop_DMA:Channel <- $r5
	@DEBUG_VALUE: HAL_TIMEx_PWMN_Stop_DMA:htim <- $r4
	@DEBUG_VALUE: HAL_TIMEx_PWMN_Stop_DMA:status <- 0
	.loc	7 1507 7                        @ ../Library/STM32F4xx_HAL_Driver/Src/stm32f4xx_hal_tim_ex.c:1507:7
	mov	r0, r4
	ldr	r1, [r0], #40
	ldr	r2, [r1, #12]
	bic	r2, r2, #1024
.Ltmp649:
.LBB23_6:
	@DEBUG_VALUE: HAL_TIMEx_PWMN_Stop_DMA:Channel <- $r5
	@DEBUG_VALUE: HAL_TIMEx_PWMN_Stop_DMA:htim <- $r4
	@DEBUG_VALUE: HAL_TIMEx_PWMN_Stop_DMA:status <- 0
	.loc	7 0 0 is_stmt 0                 @ ../Library/STM32F4xx_HAL_Driver/Src/stm32f4xx_hal_tim_ex.c:0:0
	str	r2, [r1, #12]
	ldr	r0, [r0]
	bl	HAL_DMA_Abort_IT
.Ltmp650:
	@DEBUG_VALUE: HAL_TIMEx_PWMN_Stop_DMA:status <- undef
	.loc	7 1528 30 is_stmt 1             @ ../Library/STM32F4xx_HAL_Driver/Src/stm32f4xx_hal_tim_ex.c:1528:30
	ldr	r0, [r4]
	movs	r1, #4
.Ltmp651:
	@DEBUG_VALUE: TIM_CCxNChannelCmd:ChannelNState <- 0
	@DEBUG_VALUE: TIM_CCxNChannelCmd:Channel <- $r5
	@DEBUG_VALUE: TIM_CCxNChannelCmd:TIMx <- $r0
	.loc	7 2411 14                       @ ../Library/STM32F4xx_HAL_Driver/Src/stm32f4xx_hal_tim_ex.c:2411:14
	ldr	r2, [r0, #32]
	.loc	7 2408 24                       @ ../Library/STM32F4xx_HAL_Driver/Src/stm32f4xx_hal_tim_ex.c:2408:24
	lsls	r1, r5
.Ltmp652:
	@DEBUG_VALUE: TIM_CCxNChannelCmd:tmp <- $r1
	.loc	7 2411 14                       @ ../Library/STM32F4xx_HAL_Driver/Src/stm32f4xx_hal_tim_ex.c:2411:14
	bic.w	r1, r2, r1
.Ltmp653:
	str	r1, [r0, #32]
	.loc	7 2414 14                       @ ../Library/STM32F4xx_HAL_Driver/Src/stm32f4xx_hal_tim_ex.c:2414:14
	ldr	r1, [r0, #32]
	str	r1, [r0, #32]
.Ltmp654:
	.loc	7 1531 5                        @ ../Library/STM32F4xx_HAL_Driver/Src/stm32f4xx_hal_tim_ex.c:1531:5
	ldr	r2, [r0, #32]
	movw	r1, #4369
.Ltmp655:
	.loc	7 1531 5 is_stmt 0              @ ../Library/STM32F4xx_HAL_Driver/Src/stm32f4xx_hal_tim_ex.c:1531:5
	tst	r2, r1
	bne	.LBB23_9
.Ltmp656:
@ %bb.7:
	@DEBUG_VALUE: HAL_TIMEx_PWMN_Stop_DMA:Channel <- $r5
	@DEBUG_VALUE: HAL_TIMEx_PWMN_Stop_DMA:htim <- $r4
	.loc	7 1531 5                        @ ../Library/STM32F4xx_HAL_Driver/Src/stm32f4xx_hal_tim_ex.c:1531:5
	ldr	r2, [r0, #32]
	movw	r3, #1092
.Ltmp657:
	.loc	7 1531 5                        @ ../Library/STM32F4xx_HAL_Driver/Src/stm32f4xx_hal_tim_ex.c:1531:5
	tst	r2, r3
	bne	.LBB23_9
.Ltmp658:
@ %bb.8:
	@DEBUG_VALUE: HAL_TIMEx_PWMN_Stop_DMA:Channel <- $r5
	@DEBUG_VALUE: HAL_TIMEx_PWMN_Stop_DMA:htim <- $r4
	.loc	7 1531 5                        @ ../Library/STM32F4xx_HAL_Driver/Src/stm32f4xx_hal_tim_ex.c:1531:5
	ldr	r2, [r0, #68]
	bic	r2, r2, #32768
	str	r2, [r0, #68]
.Ltmp659:
.LBB23_9:
	@DEBUG_VALUE: HAL_TIMEx_PWMN_Stop_DMA:Channel <- $r5
	@DEBUG_VALUE: HAL_TIMEx_PWMN_Stop_DMA:htim <- $r4
	.loc	7 1534 5 is_stmt 1              @ ../Library/STM32F4xx_HAL_Driver/Src/stm32f4xx_hal_tim_ex.c:1534:5
	ldr	r2, [r0, #32]
.Ltmp660:
	.loc	7 1534 5 is_stmt 0              @ ../Library/STM32F4xx_HAL_Driver/Src/stm32f4xx_hal_tim_ex.c:1534:5
	tst	r2, r1
	bne	.LBB23_12
.Ltmp661:
@ %bb.10:
	@DEBUG_VALUE: HAL_TIMEx_PWMN_Stop_DMA:Channel <- $r5
	@DEBUG_VALUE: HAL_TIMEx_PWMN_Stop_DMA:htim <- $r4
	.loc	7 1534 5                        @ ../Library/STM32F4xx_HAL_Driver/Src/stm32f4xx_hal_tim_ex.c:1534:5
	ldr	r1, [r0, #32]
	movw	r2, #1092
.Ltmp662:
	.loc	7 1534 5                        @ ../Library/STM32F4xx_HAL_Driver/Src/stm32f4xx_hal_tim_ex.c:1534:5
	tst	r1, r2
	bne	.LBB23_12
.Ltmp663:
@ %bb.11:
	@DEBUG_VALUE: HAL_TIMEx_PWMN_Stop_DMA:Channel <- $r5
	@DEBUG_VALUE: HAL_TIMEx_PWMN_Stop_DMA:htim <- $r4
	.loc	7 1534 5                        @ ../Library/STM32F4xx_HAL_Driver/Src/stm32f4xx_hal_tim_ex.c:1534:5
	ldr	r1, [r0]
	bic	r1, r1, #1
	str	r1, [r0]
.Ltmp664:
.LBB23_12:
	@DEBUG_VALUE: HAL_TIMEx_PWMN_Stop_DMA:Channel <- $r5
	@DEBUG_VALUE: HAL_TIMEx_PWMN_Stop_DMA:htim <- $r4
	.loc	7 0 5                           @ ../Library/STM32F4xx_HAL_Driver/Src/stm32f4xx_hal_tim_ex.c:0:5
	movs	r0, #1
	.loc	7 1537 5 is_stmt 1              @ ../Library/STM32F4xx_HAL_Driver/Src/stm32f4xx_hal_tim_ex.c:1537:5
	cmp	r5, #8
	beq	.LBB23_16
.Ltmp665:
@ %bb.13:
	@DEBUG_VALUE: HAL_TIMEx_PWMN_Stop_DMA:Channel <- $r5
	@DEBUG_VALUE: HAL_TIMEx_PWMN_Stop_DMA:htim <- $r4
	cmp	r5, #4
	beq	.LBB23_17
.Ltmp666:
@ %bb.14:
	@DEBUG_VALUE: HAL_TIMEx_PWMN_Stop_DMA:Channel <- $r5
	@DEBUG_VALUE: HAL_TIMEx_PWMN_Stop_DMA:htim <- $r4
	cmp	r5, #0
	ite	ne
	strbne.w	r0, [r4, #69]
	strbeq.w	r0, [r4, #66]
	b	.LBB23_18
.Ltmp667:
.LBB23_15:
	@DEBUG_VALUE: HAL_TIMEx_PWMN_Stop_DMA:Channel <- $r5
	@DEBUG_VALUE: HAL_TIMEx_PWMN_Stop_DMA:htim <- $r4
	@DEBUG_VALUE: HAL_TIMEx_PWMN_Stop_DMA:status <- 0
	.loc	7 0 5 is_stmt 0                 @ ../Library/STM32F4xx_HAL_Driver/Src/stm32f4xx_hal_tim_ex.c:0:5
	movs	r0, #1
	.loc	7 1541 3 is_stmt 1              @ ../Library/STM32F4xx_HAL_Driver/Src/stm32f4xx_hal_tim_ex.c:1541:3
	pop	{r4, r5, r7, pc}
.Ltmp668:
.LBB23_16:
	@DEBUG_VALUE: HAL_TIMEx_PWMN_Stop_DMA:Channel <- $r5
	@DEBUG_VALUE: HAL_TIMEx_PWMN_Stop_DMA:htim <- $r4
	.loc	7 1537 5                        @ ../Library/STM32F4xx_HAL_Driver/Src/stm32f4xx_hal_tim_ex.c:1537:5
	strb.w	r0, [r4, #68]
	b	.LBB23_18
.Ltmp669:
.LBB23_17:
	@DEBUG_VALUE: HAL_TIMEx_PWMN_Stop_DMA:Channel <- $r5
	@DEBUG_VALUE: HAL_TIMEx_PWMN_Stop_DMA:htim <- $r4
	strb.w	r0, [r4, #67]
.Ltmp670:
.LBB23_18:
	@DEBUG_VALUE: HAL_TIMEx_PWMN_Stop_DMA:Channel <- $r5
	@DEBUG_VALUE: HAL_TIMEx_PWMN_Stop_DMA:htim <- $r4
	.loc	7 0 5 is_stmt 0                 @ ../Library/STM32F4xx_HAL_Driver/Src/stm32f4xx_hal_tim_ex.c:0:5
	movs	r0, #0
	.loc	7 1541 3 is_stmt 1              @ ../Library/STM32F4xx_HAL_Driver/Src/stm32f4xx_hal_tim_ex.c:1541:3
	pop	{r4, r5, r7, pc}
.Ltmp671:
.Lfunc_end23:
	.size	HAL_TIMEx_PWMN_Stop_DMA, .Lfunc_end23-HAL_TIMEx_PWMN_Stop_DMA
	.cfi_endproc
	.cantunwind
	.fnend
                                        @ -- End function
	.section	.text.HAL_TIMEx_OnePulseN_Start,"ax",%progbits
	.hidden	HAL_TIMEx_OnePulseN_Start       @ -- Begin function HAL_TIMEx_OnePulseN_Start
	.globl	HAL_TIMEx_OnePulseN_Start
	.p2align	1
	.type	HAL_TIMEx_OnePulseN_Start,%function
	.code	16                              @ @HAL_TIMEx_OnePulseN_Start
	.thumb_func
HAL_TIMEx_OnePulseN_Start:
.Lfunc_begin24:
	.loc	7 1579 0                        @ ../Library/STM32F4xx_HAL_Driver/Src/stm32f4xx_hal_tim_ex.c:1579:0
	.fnstart
	.cfi_startproc
@ %bb.0:
	@DEBUG_VALUE: HAL_TIMEx_OnePulseN_Start:htim <- $r0
	@DEBUG_VALUE: HAL_TIMEx_OnePulseN_Start:OutputChannel <- $r1
	.save	{r4, lr}
	push	{r4, lr}
	.cfi_def_cfa_offset 8
	.cfi_offset lr, -4
	.cfi_offset r4, -8
	mov	r4, r0
.Ltmp672:
	@DEBUG_VALUE: HAL_TIMEx_OnePulseN_Start:input_channel <- undef
	@DEBUG_VALUE: HAL_TIMEx_OnePulseN_Start:OutputChannel <- $r1
	@DEBUG_VALUE: HAL_TIMEx_OnePulseN_Start:htim <- $r4
	.loc	7 1581 49 prologue_end          @ ../Library/STM32F4xx_HAL_Driver/Src/stm32f4xx_hal_tim_ex.c:1581:49
	ldrb.w	r0, [r0, #62]
.Ltmp673:
	@DEBUG_VALUE: HAL_TIMEx_OnePulseN_Start:channel_1_state <- $r0
	.loc	7 1582 49                       @ ../Library/STM32F4xx_HAL_Driver/Src/stm32f4xx_hal_tim_ex.c:1582:49
	ldrb.w	r2, [r4, #63]
.Ltmp674:
	@DEBUG_VALUE: HAL_TIMEx_OnePulseN_Start:channel_2_state <- undef
	.loc	7 1583 63                       @ ../Library/STM32F4xx_HAL_Driver/Src/stm32f4xx_hal_tim_ex.c:1583:63
	ldrb.w	r3, [r4, #66]
.Ltmp675:
	@DEBUG_VALUE: HAL_TIMEx_OnePulseN_Start:complementary_channel_1_state <- undef
	.loc	7 1584 63                       @ ../Library/STM32F4xx_HAL_Driver/Src/stm32f4xx_hal_tim_ex.c:1584:63
	ldrb.w	r12, [r4, #67]
.Ltmp676:
	.loc	7 1591 7                        @ ../Library/STM32F4xx_HAL_Driver/Src/stm32f4xx_hal_tim_ex.c:1591:7
	cmp	r0, #1
	mov.w	r0, #1
.Ltmp677:
	@DEBUG_VALUE: HAL_TIMEx_OnePulseN_Start:complementary_channel_2_state <- undef
	it	eq
	cmpeq	r2, #1
	beq	.LBB24_2
.Ltmp678:
.LBB24_1:
	@DEBUG_VALUE: HAL_TIMEx_OnePulseN_Start:htim <- $r4
	@DEBUG_VALUE: HAL_TIMEx_OnePulseN_Start:OutputChannel <- $r1
	.loc	7 1613 1                        @ ../Library/STM32F4xx_HAL_Driver/Src/stm32f4xx_hal_tim_ex.c:1613:1
	pop	{r4, pc}
.Ltmp679:
.LBB24_2:
	@DEBUG_VALUE: HAL_TIMEx_OnePulseN_Start:htim <- $r4
	@DEBUG_VALUE: HAL_TIMEx_OnePulseN_Start:OutputChannel <- $r1
	.loc	7 1591 7                        @ ../Library/STM32F4xx_HAL_Driver/Src/stm32f4xx_hal_tim_ex.c:1591:7
	cmp	r3, #1
	bne	.LBB24_1
.Ltmp680:
@ %bb.3:
	@DEBUG_VALUE: HAL_TIMEx_OnePulseN_Start:htim <- $r4
	@DEBUG_VALUE: HAL_TIMEx_OnePulseN_Start:OutputChannel <- $r1
	cmp.w	r12, #1
.Ltmp681:
	.loc	7 1613 1                        @ ../Library/STM32F4xx_HAL_Driver/Src/stm32f4xx_hal_tim_ex.c:1613:1
	it	ne
	popne	{r4, pc}
.Ltmp682:
.LBB24_4:
	@DEBUG_VALUE: HAL_TIMEx_OnePulseN_Start:OutputChannel <- $r1
	.loc	7 0 1 is_stmt 0                 @ ../Library/STM32F4xx_HAL_Driver/Src/stm32f4xx_hal_tim_ex.c:0:1
	movs	r0, #2
	.loc	7 1599 3 is_stmt 1              @ ../Library/STM32F4xx_HAL_Driver/Src/stm32f4xx_hal_tim_ex.c:1599:3
	strb.w	r0, [r4, #62]
	.loc	7 1600 3                        @ ../Library/STM32F4xx_HAL_Driver/Src/stm32f4xx_hal_tim_ex.c:1600:3
	strb.w	r0, [r4, #63]
	.loc	7 1601 3                        @ ../Library/STM32F4xx_HAL_Driver/Src/stm32f4xx_hal_tim_ex.c:1601:3
	strb.w	r0, [r4, #66]
	.loc	7 1602 3                        @ ../Library/STM32F4xx_HAL_Driver/Src/stm32f4xx_hal_tim_ex.c:1602:3
	strb.w	r0, [r4, #67]
	.loc	7 1605 28                       @ ../Library/STM32F4xx_HAL_Driver/Src/stm32f4xx_hal_tim_ex.c:1605:28
	ldr	r0, [r4]
.Ltmp683:
	@DEBUG_VALUE: TIM_CCxNChannelCmd:ChannelNState <- 4
	@DEBUG_VALUE: TIM_CCxNChannelCmd:Channel <- $r1
	@DEBUG_VALUE: TIM_CCxNChannelCmd:TIMx <- $r0
	.loc	7 1580 43                       @ ../Library/STM32F4xx_HAL_Driver/Src/stm32f4xx_hal_tim_ex.c:1580:43
	clz	r2, r1
.Ltmp684:
	.loc	7 2408 36                       @ ../Library/STM32F4xx_HAL_Driver/Src/stm32f4xx_hal_tim_ex.c:2408:36
	and	r1, r1, #31
.Ltmp685:
	@DEBUG_VALUE: HAL_TIMEx_OnePulseN_Start:OutputChannel <- [DW_OP_LLVM_entry_value 1] $r1
	.loc	7 0 36 is_stmt 0                @ ../Library/STM32F4xx_HAL_Driver/Src/stm32f4xx_hal_tim_ex.c:0:36
	movs	r3, #4
	.loc	7 2408 24                       @ ../Library/STM32F4xx_HAL_Driver/Src/stm32f4xx_hal_tim_ex.c:2408:24
	lsls	r3, r1
.Ltmp686:
	@DEBUG_VALUE: TIM_CCxNChannelCmd:tmp <- $r3
	.loc	7 2411 14 is_stmt 1             @ ../Library/STM32F4xx_HAL_Driver/Src/stm32f4xx_hal_tim_ex.c:2411:14
	ldr	r1, [r0, #32]
.Ltmp687:
	.loc	7 1580 43                       @ ../Library/STM32F4xx_HAL_Driver/Src/stm32f4xx_hal_tim_ex.c:1580:43
	lsr.w	r12, r2, #5
.Ltmp688:
	.loc	7 2411 14                       @ ../Library/STM32F4xx_HAL_Driver/Src/stm32f4xx_hal_tim_ex.c:2411:14
	bics	r1, r3
	@DEBUG_VALUE: TIM_CCxNChannelCmd:tmp <- $r3
	@DEBUG_VALUE: TIM_CCxNChannelCmd:ChannelNState <- 4
	@DEBUG_VALUE: TIM_CCxNChannelCmd:TIMx <- $r0
	str	r1, [r0, #32]
	.loc	7 2414 14                       @ ../Library/STM32F4xx_HAL_Driver/Src/stm32f4xx_hal_tim_ex.c:2414:14
	ldr	r2, [r0, #32]
.Ltmp689:
	.loc	7 1580 28                       @ ../Library/STM32F4xx_HAL_Driver/Src/stm32f4xx_hal_tim_ex.c:1580:28
	lsl.w	r1, r12, #2
.Ltmp690:
	@DEBUG_VALUE: HAL_TIMEx_OnePulseN_Start:input_channel <- $r1
	.loc	7 2414 14                       @ ../Library/STM32F4xx_HAL_Driver/Src/stm32f4xx_hal_tim_ex.c:2414:14
	orrs	r2, r3
	@DEBUG_VALUE: TIM_CCxNChannelCmd:tmp <- $r3
	@DEBUG_VALUE: TIM_CCxNChannelCmd:ChannelNState <- 4
	@DEBUG_VALUE: TIM_CCxNChannelCmd:TIMx <- $r0
	str	r2, [r0, #32]
.Ltmp691:
	.loc	7 1606 3                        @ ../Library/STM32F4xx_HAL_Driver/Src/stm32f4xx_hal_tim_ex.c:1606:3
	movs	r2, #1
	bl	TIM_CCxChannelCmd
.Ltmp692:
	.loc	7 1609 3                        @ ../Library/STM32F4xx_HAL_Driver/Src/stm32f4xx_hal_tim_ex.c:1609:3
	ldr	r0, [r4]
	ldr	r1, [r0, #68]
	orr	r1, r1, #32768
	str	r1, [r0, #68]
	movs	r0, #0
	.loc	7 1613 1                        @ ../Library/STM32F4xx_HAL_Driver/Src/stm32f4xx_hal_tim_ex.c:1613:1
	pop	{r4, pc}
.Ltmp693:
.Lfunc_end24:
	.size	HAL_TIMEx_OnePulseN_Start, .Lfunc_end24-HAL_TIMEx_OnePulseN_Start
	.cfi_endproc
	.cantunwind
	.fnend
                                        @ -- End function
	.section	.text.HAL_TIMEx_OnePulseN_Stop,"ax",%progbits
	.hidden	HAL_TIMEx_OnePulseN_Stop        @ -- Begin function HAL_TIMEx_OnePulseN_Stop
	.globl	HAL_TIMEx_OnePulseN_Stop
	.p2align	1
	.type	HAL_TIMEx_OnePulseN_Stop,%function
	.code	16                              @ @HAL_TIMEx_OnePulseN_Stop
	.thumb_func
HAL_TIMEx_OnePulseN_Stop:
.Lfunc_begin25:
	.loc	7 1628 0                        @ ../Library/STM32F4xx_HAL_Driver/Src/stm32f4xx_hal_tim_ex.c:1628:0
	.fnstart
	.cfi_startproc
@ %bb.0:
	@DEBUG_VALUE: HAL_TIMEx_OnePulseN_Stop:htim <- $r0
	@DEBUG_VALUE: HAL_TIMEx_OnePulseN_Stop:OutputChannel <- $r1
	.save	{r4, lr}
	push	{r4, lr}
	.cfi_def_cfa_offset 8
	.cfi_offset lr, -4
	.cfi_offset r4, -8
	mov	r4, r0
.Ltmp694:
	.loc	7 1635 28 prologue_end          @ ../Library/STM32F4xx_HAL_Driver/Src/stm32f4xx_hal_tim_ex.c:1635:28
	ldr	r0, [r0]
.Ltmp695:
	@DEBUG_VALUE: HAL_TIMEx_OnePulseN_Stop:htim <- [DW_OP_LLVM_entry_value 1] $r0
	@DEBUG_VALUE: TIM_CCxNChannelCmd:ChannelNState <- 0
	@DEBUG_VALUE: TIM_CCxNChannelCmd:Channel <- $r1
	@DEBUG_VALUE: TIM_CCxNChannelCmd:TIMx <- $r0
	.loc	7 0 28 is_stmt 0                @ ../Library/STM32F4xx_HAL_Driver/Src/stm32f4xx_hal_tim_ex.c:0:28
	clz	r2, r1
	@DEBUG_VALUE: HAL_TIMEx_OnePulseN_Stop:OutputChannel <- $r1
.Ltmp696:
	@DEBUG_VALUE: HAL_TIMEx_OnePulseN_Stop:htim <- $r4
	.loc	7 2408 36 is_stmt 1             @ ../Library/STM32F4xx_HAL_Driver/Src/stm32f4xx_hal_tim_ex.c:2408:36
	and	r1, r1, #31
.Ltmp697:
	@DEBUG_VALUE: HAL_TIMEx_OnePulseN_Stop:OutputChannel <- [DW_OP_LLVM_entry_value 1] $r1
	.loc	7 0 36 is_stmt 0                @ ../Library/STM32F4xx_HAL_Driver/Src/stm32f4xx_hal_tim_ex.c:0:36
	movs	r3, #4
	.loc	7 2408 24                       @ ../Library/STM32F4xx_HAL_Driver/Src/stm32f4xx_hal_tim_ex.c:2408:24
	lsl.w	r1, r3, r1
.Ltmp698:
	@DEBUG_VALUE: TIM_CCxNChannelCmd:tmp <- $r1
	.loc	7 2411 14 is_stmt 1             @ ../Library/STM32F4xx_HAL_Driver/Src/stm32f4xx_hal_tim_ex.c:2411:14
	ldr	r3, [r0, #32]
	lsrs	r2, r2, #5
	bic.w	r1, r3, r1
.Ltmp699:
	str	r1, [r0, #32]
	.loc	7 2414 14                       @ ../Library/STM32F4xx_HAL_Driver/Src/stm32f4xx_hal_tim_ex.c:2414:14
	ldr	r3, [r0, #32]
.Ltmp700:
	.loc	7 1629 28                       @ ../Library/STM32F4xx_HAL_Driver/Src/stm32f4xx_hal_tim_ex.c:1629:28
	lsls	r1, r2, #2
.Ltmp701:
	@DEBUG_VALUE: HAL_TIMEx_OnePulseN_Stop:input_channel <- $r1
	.loc	7 1636 3                        @ ../Library/STM32F4xx_HAL_Driver/Src/stm32f4xx_hal_tim_ex.c:1636:3
	movs	r2, #0
.Ltmp702:
	.loc	7 2414 14                       @ ../Library/STM32F4xx_HAL_Driver/Src/stm32f4xx_hal_tim_ex.c:2414:14
	str	r3, [r0, #32]
.Ltmp703:
	@DEBUG_VALUE: TIM_CCxNChannelCmd:ChannelNState <- 0
	@DEBUG_VALUE: TIM_CCxNChannelCmd:TIMx <- $r0
	.loc	7 1636 3                        @ ../Library/STM32F4xx_HAL_Driver/Src/stm32f4xx_hal_tim_ex.c:1636:3
	bl	TIM_CCxChannelCmd
.Ltmp704:
	.loc	7 1639 3                        @ ../Library/STM32F4xx_HAL_Driver/Src/stm32f4xx_hal_tim_ex.c:1639:3
	ldr	r0, [r4]
	movw	r1, #4369
	ldr	r2, [r0, #32]
.Ltmp705:
	.loc	7 1639 3 is_stmt 0              @ ../Library/STM32F4xx_HAL_Driver/Src/stm32f4xx_hal_tim_ex.c:1639:3
	tst	r2, r1
	bne	.LBB25_3
.Ltmp706:
@ %bb.1:
	@DEBUG_VALUE: HAL_TIMEx_OnePulseN_Stop:htim <- $r4
	@DEBUG_VALUE: HAL_TIMEx_OnePulseN_Stop:OutputChannel <- [DW_OP_LLVM_entry_value 1] $r1
	.loc	7 1639 3                        @ ../Library/STM32F4xx_HAL_Driver/Src/stm32f4xx_hal_tim_ex.c:1639:3
	ldr	r2, [r0, #32]
	movw	r3, #1092
.Ltmp707:
	.loc	7 1639 3                        @ ../Library/STM32F4xx_HAL_Driver/Src/stm32f4xx_hal_tim_ex.c:1639:3
	tst	r2, r3
	bne	.LBB25_3
.Ltmp708:
@ %bb.2:
	@DEBUG_VALUE: HAL_TIMEx_OnePulseN_Stop:htim <- $r4
	@DEBUG_VALUE: HAL_TIMEx_OnePulseN_Stop:OutputChannel <- [DW_OP_LLVM_entry_value 1] $r1
	.loc	7 1639 3                        @ ../Library/STM32F4xx_HAL_Driver/Src/stm32f4xx_hal_tim_ex.c:1639:3
	ldr	r2, [r0, #68]
	bic	r2, r2, #32768
	str	r2, [r0, #68]
.Ltmp709:
.LBB25_3:
	@DEBUG_VALUE: HAL_TIMEx_OnePulseN_Stop:htim <- $r4
	@DEBUG_VALUE: HAL_TIMEx_OnePulseN_Stop:OutputChannel <- [DW_OP_LLVM_entry_value 1] $r1
	.loc	7 1642 3 is_stmt 1              @ ../Library/STM32F4xx_HAL_Driver/Src/stm32f4xx_hal_tim_ex.c:1642:3
	ldr	r2, [r0, #32]
.Ltmp710:
	.loc	7 1642 3 is_stmt 0              @ ../Library/STM32F4xx_HAL_Driver/Src/stm32f4xx_hal_tim_ex.c:1642:3
	tst	r2, r1
	bne	.LBB25_6
.Ltmp711:
@ %bb.4:
	@DEBUG_VALUE: HAL_TIMEx_OnePulseN_Stop:htim <- $r4
	@DEBUG_VALUE: HAL_TIMEx_OnePulseN_Stop:OutputChannel <- [DW_OP_LLVM_entry_value 1] $r1
	.loc	7 1642 3                        @ ../Library/STM32F4xx_HAL_Driver/Src/stm32f4xx_hal_tim_ex.c:1642:3
	ldr	r1, [r0, #32]
	movw	r2, #1092
.Ltmp712:
	.loc	7 1642 3                        @ ../Library/STM32F4xx_HAL_Driver/Src/stm32f4xx_hal_tim_ex.c:1642:3
	tst	r1, r2
	bne	.LBB25_6
.Ltmp713:
@ %bb.5:
	@DEBUG_VALUE: HAL_TIMEx_OnePulseN_Stop:htim <- $r4
	@DEBUG_VALUE: HAL_TIMEx_OnePulseN_Stop:OutputChannel <- [DW_OP_LLVM_entry_value 1] $r1
	.loc	7 1642 3                        @ ../Library/STM32F4xx_HAL_Driver/Src/stm32f4xx_hal_tim_ex.c:1642:3
	ldr	r1, [r0]
	bic	r1, r1, #1
	str	r1, [r0]
.Ltmp714:
.LBB25_6:
	@DEBUG_VALUE: HAL_TIMEx_OnePulseN_Stop:htim <- $r4
	@DEBUG_VALUE: HAL_TIMEx_OnePulseN_Stop:OutputChannel <- [DW_OP_LLVM_entry_value 1] $r1
	.loc	7 0 3                           @ ../Library/STM32F4xx_HAL_Driver/Src/stm32f4xx_hal_tim_ex.c:0:3
	movs	r1, #1
	.loc	7 1651 3 is_stmt 1              @ ../Library/STM32F4xx_HAL_Driver/Src/stm32f4xx_hal_tim_ex.c:1651:3
	movs	r0, #0
	.loc	7 1645 3                        @ ../Library/STM32F4xx_HAL_Driver/Src/stm32f4xx_hal_tim_ex.c:1645:3
	strb.w	r1, [r4, #62]
	.loc	7 1646 3                        @ ../Library/STM32F4xx_HAL_Driver/Src/stm32f4xx_hal_tim_ex.c:1646:3
	strb.w	r1, [r4, #63]
	.loc	7 1647 3                        @ ../Library/STM32F4xx_HAL_Driver/Src/stm32f4xx_hal_tim_ex.c:1647:3
	strb.w	r1, [r4, #66]
	.loc	7 1648 3                        @ ../Library/STM32F4xx_HAL_Driver/Src/stm32f4xx_hal_tim_ex.c:1648:3
	strb.w	r1, [r4, #67]
	.loc	7 1651 3                        @ ../Library/STM32F4xx_HAL_Driver/Src/stm32f4xx_hal_tim_ex.c:1651:3
	pop	{r4, pc}
.Ltmp715:
.Lfunc_end25:
	.size	HAL_TIMEx_OnePulseN_Stop, .Lfunc_end25-HAL_TIMEx_OnePulseN_Stop
	.cfi_endproc
	.cantunwind
	.fnend
                                        @ -- End function
	.section	.text.HAL_TIMEx_OnePulseN_Start_IT,"ax",%progbits
	.hidden	HAL_TIMEx_OnePulseN_Start_IT    @ -- Begin function HAL_TIMEx_OnePulseN_Start_IT
	.globl	HAL_TIMEx_OnePulseN_Start_IT
	.p2align	1
	.type	HAL_TIMEx_OnePulseN_Start_IT,%function
	.code	16                              @ @HAL_TIMEx_OnePulseN_Start_IT
	.thumb_func
HAL_TIMEx_OnePulseN_Start_IT:
.Lfunc_begin26:
	.loc	7 1667 0                        @ ../Library/STM32F4xx_HAL_Driver/Src/stm32f4xx_hal_tim_ex.c:1667:0
	.fnstart
	.cfi_startproc
@ %bb.0:
	@DEBUG_VALUE: HAL_TIMEx_OnePulseN_Start_IT:htim <- $r0
	@DEBUG_VALUE: HAL_TIMEx_OnePulseN_Start_IT:OutputChannel <- $r1
	.save	{r4, lr}
	push	{r4, lr}
	.cfi_def_cfa_offset 8
	.cfi_offset lr, -4
	.cfi_offset r4, -8
	mov	r4, r0
.Ltmp716:
	@DEBUG_VALUE: HAL_TIMEx_OnePulseN_Start_IT:input_channel <- undef
	@DEBUG_VALUE: HAL_TIMEx_OnePulseN_Start_IT:OutputChannel <- $r1
	@DEBUG_VALUE: HAL_TIMEx_OnePulseN_Start_IT:htim <- $r4
	.loc	7 1669 49 prologue_end          @ ../Library/STM32F4xx_HAL_Driver/Src/stm32f4xx_hal_tim_ex.c:1669:49
	ldrb.w	r0, [r0, #62]
.Ltmp717:
	@DEBUG_VALUE: HAL_TIMEx_OnePulseN_Start_IT:channel_1_state <- $r0
	.loc	7 1670 49                       @ ../Library/STM32F4xx_HAL_Driver/Src/stm32f4xx_hal_tim_ex.c:1670:49
	ldrb.w	r2, [r4, #63]
.Ltmp718:
	@DEBUG_VALUE: HAL_TIMEx_OnePulseN_Start_IT:channel_2_state <- undef
	.loc	7 1671 63                       @ ../Library/STM32F4xx_HAL_Driver/Src/stm32f4xx_hal_tim_ex.c:1671:63
	ldrb.w	r3, [r4, #66]
.Ltmp719:
	@DEBUG_VALUE: HAL_TIMEx_OnePulseN_Start_IT:complementary_channel_1_state <- undef
	.loc	7 1672 63                       @ ../Library/STM32F4xx_HAL_Driver/Src/stm32f4xx_hal_tim_ex.c:1672:63
	ldrb.w	r12, [r4, #67]
.Ltmp720:
	.loc	7 1679 7                        @ ../Library/STM32F4xx_HAL_Driver/Src/stm32f4xx_hal_tim_ex.c:1679:7
	cmp	r0, #1
	mov.w	r0, #1
.Ltmp721:
	@DEBUG_VALUE: HAL_TIMEx_OnePulseN_Start_IT:complementary_channel_2_state <- undef
	it	eq
	cmpeq	r2, #1
	beq	.LBB26_2
.Ltmp722:
.LBB26_1:
	@DEBUG_VALUE: HAL_TIMEx_OnePulseN_Start_IT:htim <- $r4
	@DEBUG_VALUE: HAL_TIMEx_OnePulseN_Start_IT:OutputChannel <- $r1
	.loc	7 1707 1                        @ ../Library/STM32F4xx_HAL_Driver/Src/stm32f4xx_hal_tim_ex.c:1707:1
	pop	{r4, pc}
.Ltmp723:
.LBB26_2:
	@DEBUG_VALUE: HAL_TIMEx_OnePulseN_Start_IT:htim <- $r4
	@DEBUG_VALUE: HAL_TIMEx_OnePulseN_Start_IT:OutputChannel <- $r1
	.loc	7 1679 7                        @ ../Library/STM32F4xx_HAL_Driver/Src/stm32f4xx_hal_tim_ex.c:1679:7
	cmp	r3, #1
	bne	.LBB26_1
.Ltmp724:
@ %bb.3:
	@DEBUG_VALUE: HAL_TIMEx_OnePulseN_Start_IT:htim <- $r4
	@DEBUG_VALUE: HAL_TIMEx_OnePulseN_Start_IT:OutputChannel <- $r1
	cmp.w	r12, #1
.Ltmp725:
	.loc	7 1707 1                        @ ../Library/STM32F4xx_HAL_Driver/Src/stm32f4xx_hal_tim_ex.c:1707:1
	it	ne
	popne	{r4, pc}
.Ltmp726:
.LBB26_4:
	@DEBUG_VALUE: HAL_TIMEx_OnePulseN_Start_IT:OutputChannel <- $r1
	.loc	7 0 1 is_stmt 0                 @ ../Library/STM32F4xx_HAL_Driver/Src/stm32f4xx_hal_tim_ex.c:0:1
	movs	r0, #2
	.loc	7 1687 3 is_stmt 1              @ ../Library/STM32F4xx_HAL_Driver/Src/stm32f4xx_hal_tim_ex.c:1687:3
	strb.w	r0, [r4, #62]
	.loc	7 1688 3                        @ ../Library/STM32F4xx_HAL_Driver/Src/stm32f4xx_hal_tim_ex.c:1688:3
	strb.w	r0, [r4, #63]
	.loc	7 1689 3                        @ ../Library/STM32F4xx_HAL_Driver/Src/stm32f4xx_hal_tim_ex.c:1689:3
	strb.w	r0, [r4, #66]
	.loc	7 1690 3                        @ ../Library/STM32F4xx_HAL_Driver/Src/stm32f4xx_hal_tim_ex.c:1690:3
	strb.w	r0, [r4, #67]
	.loc	7 1693 3                        @ ../Library/STM32F4xx_HAL_Driver/Src/stm32f4xx_hal_tim_ex.c:1693:3
	ldr	r0, [r4]
	.loc	7 1668 43                       @ ../Library/STM32F4xx_HAL_Driver/Src/stm32f4xx_hal_tim_ex.c:1668:43
	clz	r3, r1
	.loc	7 1693 3                        @ ../Library/STM32F4xx_HAL_Driver/Src/stm32f4xx_hal_tim_ex.c:1693:3
	ldr	r2, [r0, #12]
.Ltmp727:
	.loc	7 2408 36                       @ ../Library/STM32F4xx_HAL_Driver/Src/stm32f4xx_hal_tim_ex.c:2408:36
	and	r1, r1, #31
.Ltmp728:
	@DEBUG_VALUE: HAL_TIMEx_OnePulseN_Start_IT:OutputChannel <- [DW_OP_LLVM_entry_value 1] $r1
	.loc	7 1693 3                        @ ../Library/STM32F4xx_HAL_Driver/Src/stm32f4xx_hal_tim_ex.c:1693:3
	orr	r2, r2, #2
	str	r2, [r0, #12]
	.loc	7 1696 3                        @ ../Library/STM32F4xx_HAL_Driver/Src/stm32f4xx_hal_tim_ex.c:1696:3
	ldr	r2, [r0, #12]
	.loc	7 1668 43                       @ ../Library/STM32F4xx_HAL_Driver/Src/stm32f4xx_hal_tim_ex.c:1668:43
	lsr.w	r12, r3, #5
	.loc	7 1696 3                        @ ../Library/STM32F4xx_HAL_Driver/Src/stm32f4xx_hal_tim_ex.c:1696:3
	orr	r2, r2, #4
	str	r2, [r0, #12]
.Ltmp729:
	@DEBUG_VALUE: TIM_CCxNChannelCmd:TIMx <- $r0
	@DEBUG_VALUE: TIM_CCxNChannelCmd:ChannelNState <- 4
	@DEBUG_VALUE: TIM_CCxNChannelCmd:Channel <- $r1
	.loc	7 0 3 is_stmt 0                 @ ../Library/STM32F4xx_HAL_Driver/Src/stm32f4xx_hal_tim_ex.c:0:3
	movs	r2, #4
.Ltmp730:
	.loc	7 2408 24 is_stmt 1             @ ../Library/STM32F4xx_HAL_Driver/Src/stm32f4xx_hal_tim_ex.c:2408:24
	lsls	r2, r1
.Ltmp731:
	@DEBUG_VALUE: TIM_CCxNChannelCmd:tmp <- $r2
	.loc	7 2411 14                       @ ../Library/STM32F4xx_HAL_Driver/Src/stm32f4xx_hal_tim_ex.c:2411:14
	ldr	r1, [r0, #32]
.Ltmp732:
	bics	r1, r2
	@DEBUG_VALUE: TIM_CCxNChannelCmd:tmp <- $r2
	@DEBUG_VALUE: TIM_CCxNChannelCmd:TIMx <- $r0
	@DEBUG_VALUE: TIM_CCxNChannelCmd:ChannelNState <- 4
	str	r1, [r0, #32]
	.loc	7 2414 14                       @ ../Library/STM32F4xx_HAL_Driver/Src/stm32f4xx_hal_tim_ex.c:2414:14
	ldr	r3, [r0, #32]
.Ltmp733:
	.loc	7 1668 28                       @ ../Library/STM32F4xx_HAL_Driver/Src/stm32f4xx_hal_tim_ex.c:1668:28
	lsl.w	r1, r12, #2
.Ltmp734:
	@DEBUG_VALUE: HAL_TIMEx_OnePulseN_Start_IT:input_channel <- $r1
	.loc	7 2414 14                       @ ../Library/STM32F4xx_HAL_Driver/Src/stm32f4xx_hal_tim_ex.c:2414:14
	orrs	r2, r3
.Ltmp735:
	@DEBUG_VALUE: TIM_CCxNChannelCmd:tmp <- $r2
	@DEBUG_VALUE: TIM_CCxNChannelCmd:TIMx <- $r0
	@DEBUG_VALUE: TIM_CCxNChannelCmd:ChannelNState <- 4
	str	r2, [r0, #32]
.Ltmp736:
	.loc	7 1700 3                        @ ../Library/STM32F4xx_HAL_Driver/Src/stm32f4xx_hal_tim_ex.c:1700:3
	movs	r2, #1
.Ltmp737:
	bl	TIM_CCxChannelCmd
.Ltmp738:
	.loc	7 1703 3                        @ ../Library/STM32F4xx_HAL_Driver/Src/stm32f4xx_hal_tim_ex.c:1703:3
	ldr	r0, [r4]
	ldr	r1, [r0, #68]
	orr	r1, r1, #32768
	str	r1, [r0, #68]
	movs	r0, #0
	.loc	7 1707 1                        @ ../Library/STM32F4xx_HAL_Driver/Src/stm32f4xx_hal_tim_ex.c:1707:1
	pop	{r4, pc}
.Ltmp739:
.Lfunc_end26:
	.size	HAL_TIMEx_OnePulseN_Start_IT, .Lfunc_end26-HAL_TIMEx_OnePulseN_Start_IT
	.cfi_endproc
	.cantunwind
	.fnend
                                        @ -- End function
	.section	.text.HAL_TIMEx_OnePulseN_Stop_IT,"ax",%progbits
	.hidden	HAL_TIMEx_OnePulseN_Stop_IT     @ -- Begin function HAL_TIMEx_OnePulseN_Stop_IT
	.globl	HAL_TIMEx_OnePulseN_Stop_IT
	.p2align	1
	.type	HAL_TIMEx_OnePulseN_Stop_IT,%function
	.code	16                              @ @HAL_TIMEx_OnePulseN_Stop_IT
	.thumb_func
HAL_TIMEx_OnePulseN_Stop_IT:
.Lfunc_begin27:
	.loc	7 1722 0                        @ ../Library/STM32F4xx_HAL_Driver/Src/stm32f4xx_hal_tim_ex.c:1722:0
	.fnstart
	.cfi_startproc
@ %bb.0:
	@DEBUG_VALUE: HAL_TIMEx_OnePulseN_Stop_IT:htim <- $r0
	@DEBUG_VALUE: HAL_TIMEx_OnePulseN_Stop_IT:OutputChannel <- $r1
	.save	{r4, lr}
	push	{r4, lr}
	.cfi_def_cfa_offset 8
	.cfi_offset lr, -4
	.cfi_offset r4, -8
	mov	r4, r0
.Ltmp740:
	@DEBUG_VALUE: HAL_TIMEx_OnePulseN_Stop_IT:htim <- $r4
	.loc	7 1729 3 prologue_end           @ ../Library/STM32F4xx_HAL_Driver/Src/stm32f4xx_hal_tim_ex.c:1729:3
	ldr	r0, [r0]
	clz	r3, r1
	ldr	r2, [r0, #12]
	@DEBUG_VALUE: HAL_TIMEx_OnePulseN_Stop_IT:OutputChannel <- $r1
.Ltmp741:
	.loc	7 2408 36                       @ ../Library/STM32F4xx_HAL_Driver/Src/stm32f4xx_hal_tim_ex.c:2408:36
	and	r1, r1, #31
.Ltmp742:
	@DEBUG_VALUE: HAL_TIMEx_OnePulseN_Stop_IT:OutputChannel <- [DW_OP_LLVM_entry_value 1] $r1
	.loc	7 1729 3                        @ ../Library/STM32F4xx_HAL_Driver/Src/stm32f4xx_hal_tim_ex.c:1729:3
	bic	r2, r2, #2
	str	r2, [r0, #12]
	.loc	7 1732 3                        @ ../Library/STM32F4xx_HAL_Driver/Src/stm32f4xx_hal_tim_ex.c:1732:3
	ldr	r2, [r0, #12]
	lsrs	r3, r3, #5
	bic	r2, r2, #4
	str	r2, [r0, #12]
.Ltmp743:
	@DEBUG_VALUE: TIM_CCxNChannelCmd:ChannelNState <- 0
	@DEBUG_VALUE: TIM_CCxNChannelCmd:Channel <- $r1
	@DEBUG_VALUE: TIM_CCxNChannelCmd:TIMx <- $r0
	.loc	7 0 3 is_stmt 0                 @ ../Library/STM32F4xx_HAL_Driver/Src/stm32f4xx_hal_tim_ex.c:0:3
	movs	r2, #4
.Ltmp744:
	.loc	7 2408 24 is_stmt 1             @ ../Library/STM32F4xx_HAL_Driver/Src/stm32f4xx_hal_tim_ex.c:2408:24
	lsl.w	r1, r2, r1
.Ltmp745:
	@DEBUG_VALUE: TIM_CCxNChannelCmd:tmp <- $r1
	.loc	7 2411 14                       @ ../Library/STM32F4xx_HAL_Driver/Src/stm32f4xx_hal_tim_ex.c:2411:14
	ldr	r2, [r0, #32]
	bic.w	r1, r2, r1
.Ltmp746:
	str	r1, [r0, #32]
	.loc	7 2414 14                       @ ../Library/STM32F4xx_HAL_Driver/Src/stm32f4xx_hal_tim_ex.c:2414:14
	ldr	r2, [r0, #32]
.Ltmp747:
	.loc	7 1723 28                       @ ../Library/STM32F4xx_HAL_Driver/Src/stm32f4xx_hal_tim_ex.c:1723:28
	lsls	r1, r3, #2
.Ltmp748:
	@DEBUG_VALUE: HAL_TIMEx_OnePulseN_Stop_IT:input_channel <- $r1
	.loc	7 2414 14                       @ ../Library/STM32F4xx_HAL_Driver/Src/stm32f4xx_hal_tim_ex.c:2414:14
	str	r2, [r0, #32]
.Ltmp749:
	@DEBUG_VALUE: TIM_CCxNChannelCmd:ChannelNState <- 0
	@DEBUG_VALUE: TIM_CCxNChannelCmd:TIMx <- $r0
	.loc	7 1736 3                        @ ../Library/STM32F4xx_HAL_Driver/Src/stm32f4xx_hal_tim_ex.c:1736:3
	movs	r2, #0
	bl	TIM_CCxChannelCmd
.Ltmp750:
	.loc	7 1739 3                        @ ../Library/STM32F4xx_HAL_Driver/Src/stm32f4xx_hal_tim_ex.c:1739:3
	ldr	r0, [r4]
	movw	r1, #4369
	ldr	r2, [r0, #32]
.Ltmp751:
	.loc	7 1739 3 is_stmt 0              @ ../Library/STM32F4xx_HAL_Driver/Src/stm32f4xx_hal_tim_ex.c:1739:3
	tst	r2, r1
	bne	.LBB27_3
.Ltmp752:
@ %bb.1:
	@DEBUG_VALUE: HAL_TIMEx_OnePulseN_Stop_IT:htim <- $r4
	@DEBUG_VALUE: HAL_TIMEx_OnePulseN_Stop_IT:OutputChannel <- [DW_OP_LLVM_entry_value 1] $r1
	.loc	7 1739 3                        @ ../Library/STM32F4xx_HAL_Driver/Src/stm32f4xx_hal_tim_ex.c:1739:3
	ldr	r2, [r0, #32]
	movw	r3, #1092
.Ltmp753:
	.loc	7 1739 3                        @ ../Library/STM32F4xx_HAL_Driver/Src/stm32f4xx_hal_tim_ex.c:1739:3
	tst	r2, r3
	bne	.LBB27_3
.Ltmp754:
@ %bb.2:
	@DEBUG_VALUE: HAL_TIMEx_OnePulseN_Stop_IT:htim <- $r4
	@DEBUG_VALUE: HAL_TIMEx_OnePulseN_Stop_IT:OutputChannel <- [DW_OP_LLVM_entry_value 1] $r1
	.loc	7 1739 3                        @ ../Library/STM32F4xx_HAL_Driver/Src/stm32f4xx_hal_tim_ex.c:1739:3
	ldr	r2, [r0, #68]
	bic	r2, r2, #32768
	str	r2, [r0, #68]
.Ltmp755:
.LBB27_3:
	@DEBUG_VALUE: HAL_TIMEx_OnePulseN_Stop_IT:htim <- $r4
	@DEBUG_VALUE: HAL_TIMEx_OnePulseN_Stop_IT:OutputChannel <- [DW_OP_LLVM_entry_value 1] $r1
	.loc	7 1742 3 is_stmt 1              @ ../Library/STM32F4xx_HAL_Driver/Src/stm32f4xx_hal_tim_ex.c:1742:3
	ldr	r2, [r0, #32]
.Ltmp756:
	.loc	7 1742 3 is_stmt 0              @ ../Library/STM32F4xx_HAL_Driver/Src/stm32f4xx_hal_tim_ex.c:1742:3
	tst	r2, r1
	bne	.LBB27_6
.Ltmp757:
@ %bb.4:
	@DEBUG_VALUE: HAL_TIMEx_OnePulseN_Stop_IT:htim <- $r4
	@DEBUG_VALUE: HAL_TIMEx_OnePulseN_Stop_IT:OutputChannel <- [DW_OP_LLVM_entry_value 1] $r1
	.loc	7 1742 3                        @ ../Library/STM32F4xx_HAL_Driver/Src/stm32f4xx_hal_tim_ex.c:1742:3
	ldr	r1, [r0, #32]
	movw	r2, #1092
.Ltmp758:
	.loc	7 1742 3                        @ ../Library/STM32F4xx_HAL_Driver/Src/stm32f4xx_hal_tim_ex.c:1742:3
	tst	r1, r2
	bne	.LBB27_6
.Ltmp759:
@ %bb.5:
	@DEBUG_VALUE: HAL_TIMEx_OnePulseN_Stop_IT:htim <- $r4
	@DEBUG_VALUE: HAL_TIMEx_OnePulseN_Stop_IT:OutputChannel <- [DW_OP_LLVM_entry_value 1] $r1
	.loc	7 1742 3                        @ ../Library/STM32F4xx_HAL_Driver/Src/stm32f4xx_hal_tim_ex.c:1742:3
	ldr	r1, [r0]
	bic	r1, r1, #1
	str	r1, [r0]
.Ltmp760:
.LBB27_6:
	@DEBUG_VALUE: HAL_TIMEx_OnePulseN_Stop_IT:htim <- $r4
	@DEBUG_VALUE: HAL_TIMEx_OnePulseN_Stop_IT:OutputChannel <- [DW_OP_LLVM_entry_value 1] $r1
	.loc	7 0 3                           @ ../Library/STM32F4xx_HAL_Driver/Src/stm32f4xx_hal_tim_ex.c:0:3
	movs	r1, #1
	.loc	7 1751 3 is_stmt 1              @ ../Library/STM32F4xx_HAL_Driver/Src/stm32f4xx_hal_tim_ex.c:1751:3
	movs	r0, #0
	.loc	7 1745 3                        @ ../Library/STM32F4xx_HAL_Driver/Src/stm32f4xx_hal_tim_ex.c:1745:3
	strb.w	r1, [r4, #62]
	.loc	7 1746 3                        @ ../Library/STM32F4xx_HAL_Driver/Src/stm32f4xx_hal_tim_ex.c:1746:3
	strb.w	r1, [r4, #63]
	.loc	7 1747 3                        @ ../Library/STM32F4xx_HAL_Driver/Src/stm32f4xx_hal_tim_ex.c:1747:3
	strb.w	r1, [r4, #66]
	.loc	7 1748 3                        @ ../Library/STM32F4xx_HAL_Driver/Src/stm32f4xx_hal_tim_ex.c:1748:3
	strb.w	r1, [r4, #67]
	.loc	7 1751 3                        @ ../Library/STM32F4xx_HAL_Driver/Src/stm32f4xx_hal_tim_ex.c:1751:3
	pop	{r4, pc}
.Ltmp761:
.Lfunc_end27:
	.size	HAL_TIMEx_OnePulseN_Stop_IT, .Lfunc_end27-HAL_TIMEx_OnePulseN_Stop_IT
	.cfi_endproc
	.cantunwind
	.fnend
                                        @ -- End function
	.section	.text.HAL_TIMEx_ConfigCommutEvent,"ax",%progbits
	.hidden	HAL_TIMEx_ConfigCommutEvent     @ -- Begin function HAL_TIMEx_ConfigCommutEvent
	.globl	HAL_TIMEx_ConfigCommutEvent
	.p2align	1
	.type	HAL_TIMEx_ConfigCommutEvent,%function
	.code	16                              @ @HAL_TIMEx_ConfigCommutEvent
	.thumb_func
HAL_TIMEx_ConfigCommutEvent:
.Lfunc_begin28:
	.loc	7 1802 0                        @ ../Library/STM32F4xx_HAL_Driver/Src/stm32f4xx_hal_tim_ex.c:1802:0
	.fnstart
	.cfi_startproc
@ %bb.0:
	@DEBUG_VALUE: HAL_TIMEx_ConfigCommutEvent:htim <- $r0
	@DEBUG_VALUE: HAL_TIMEx_ConfigCommutEvent:htim <- $r0
	@DEBUG_VALUE: HAL_TIMEx_ConfigCommutEvent:InputTrigger <- $r1
	@DEBUG_VALUE: HAL_TIMEx_ConfigCommutEvent:CommutationSource <- $r2
	.save	{r7, lr}
	push	{r7, lr}
	.cfi_def_cfa_offset 8
	.cfi_offset lr, -4
	.cfi_offset r7, -8
.Ltmp762:
	.loc	7 1807 3 prologue_end           @ ../Library/STM32F4xx_HAL_Driver/Src/stm32f4xx_hal_tim_ex.c:1807:3
	ldrb.w	r3, [r0, #60]
.Ltmp763:
	@DEBUG_VALUE: HAL_TIMEx_ConfigCommutEvent:CommutationSource <- $r2
	.loc	7 1807 3 is_stmt 0              @ ../Library/STM32F4xx_HAL_Driver/Src/stm32f4xx_hal_tim_ex.c:1807:3
	cmp	r3, #1
	@DEBUG_VALUE: HAL_TIMEx_ConfigCommutEvent:InputTrigger <- $r1
	bne	.LBB28_2
.Ltmp764:
@ %bb.1:
	@DEBUG_VALUE: HAL_TIMEx_ConfigCommutEvent:CommutationSource <- $r2
	@DEBUG_VALUE: HAL_TIMEx_ConfigCommutEvent:InputTrigger <- $r1
	@DEBUG_VALUE: HAL_TIMEx_ConfigCommutEvent:htim <- $r0
	.loc	7 0 3                           @ ../Library/STM32F4xx_HAL_Driver/Src/stm32f4xx_hal_tim_ex.c:0:3
	movs	r1, #2
.Ltmp765:
	@DEBUG_VALUE: HAL_TIMEx_ConfigCommutEvent:InputTrigger <- [DW_OP_LLVM_entry_value 1] $r1
	b	.LBB28_5
.Ltmp766:
.LBB28_2:
	@DEBUG_VALUE: HAL_TIMEx_ConfigCommutEvent:CommutationSource <- $r2
	@DEBUG_VALUE: HAL_TIMEx_ConfigCommutEvent:InputTrigger <- $r1
	@DEBUG_VALUE: HAL_TIMEx_ConfigCommutEvent:htim <- $r0
	.loc	7 1809 37 is_stmt 1             @ ../Library/STM32F4xx_HAL_Driver/Src/stm32f4xx_hal_tim_ex.c:1809:37
	ror.w	r12, r1, #4
.Ltmp767:
	.loc	7 0 0 is_stmt 0                 @ ../Library/STM32F4xx_HAL_Driver/Src/stm32f4xx_hal_tim_ex.c:0:0
	ldr.w	lr, [r0]
.Ltmp768:
	.loc	7 1809 37                       @ ../Library/STM32F4xx_HAL_Driver/Src/stm32f4xx_hal_tim_ex.c:1809:37
	cmp.w	r12, #3
	bhi	.LBB28_4
.Ltmp769:
@ %bb.3:
	@DEBUG_VALUE: HAL_TIMEx_ConfigCommutEvent:CommutationSource <- $r2
	@DEBUG_VALUE: HAL_TIMEx_ConfigCommutEvent:InputTrigger <- $r1
	@DEBUG_VALUE: HAL_TIMEx_ConfigCommutEvent:htim <- $r0
	.loc	7 1813 26 is_stmt 1             @ ../Library/STM32F4xx_HAL_Driver/Src/stm32f4xx_hal_tim_ex.c:1813:26
	ldr.w	r3, [lr, #8]
	bic	r3, r3, #112
	str.w	r3, [lr, #8]
	.loc	7 1814 26                       @ ../Library/STM32F4xx_HAL_Driver/Src/stm32f4xx_hal_tim_ex.c:1814:26
	ldr.w	r3, [lr, #8]
	orrs	r1, r3
.Ltmp770:
	@DEBUG_VALUE: HAL_TIMEx_ConfigCommutEvent:InputTrigger <- [DW_OP_LLVM_entry_value 1] $r1
	str.w	r1, [lr, #8]
.Ltmp771:
.LBB28_4:
	@DEBUG_VALUE: HAL_TIMEx_ConfigCommutEvent:CommutationSource <- $r2
	@DEBUG_VALUE: HAL_TIMEx_ConfigCommutEvent:htim <- $r0
	.loc	7 1818 23                       @ ../Library/STM32F4xx_HAL_Driver/Src/stm32f4xx_hal_tim_ex.c:1818:23
	ldr.w	r1, [lr, #4]
	orr	r1, r1, #1
	str.w	r1, [lr, #4]
	.loc	7 1820 23                       @ ../Library/STM32F4xx_HAL_Driver/Src/stm32f4xx_hal_tim_ex.c:1820:23
	ldr.w	r1, [lr, #4]
	bic	r1, r1, #4
	str.w	r1, [lr, #4]
	.loc	7 1821 23                       @ ../Library/STM32F4xx_HAL_Driver/Src/stm32f4xx_hal_tim_ex.c:1821:23
	ldr.w	r1, [lr, #4]
	orrs	r1, r2
	str.w	r1, [lr, #4]
	.loc	7 1824 3                        @ ../Library/STM32F4xx_HAL_Driver/Src/stm32f4xx_hal_tim_ex.c:1824:3
	ldr.w	r1, [lr, #12]
	bic	r1, r1, #32
	str.w	r1, [lr, #12]
	.loc	7 1827 3                        @ ../Library/STM32F4xx_HAL_Driver/Src/stm32f4xx_hal_tim_ex.c:1827:3
	ldr.w	r1, [lr, #12]
	bic	r1, r1, #8192
	str.w	r1, [lr, #12]
	movs	r1, #0
.Ltmp772:
	.loc	7 1829 3                        @ ../Library/STM32F4xx_HAL_Driver/Src/stm32f4xx_hal_tim_ex.c:1829:3
	strb.w	r1, [r0, #60]
.Ltmp773:
.LBB28_5:
	@DEBUG_VALUE: HAL_TIMEx_ConfigCommutEvent:CommutationSource <- $r2
	@DEBUG_VALUE: HAL_TIMEx_ConfigCommutEvent:htim <- $r0
	.loc	7 1832 1                        @ ../Library/STM32F4xx_HAL_Driver/Src/stm32f4xx_hal_tim_ex.c:1832:1
	mov	r0, r1
.Ltmp774:
	@DEBUG_VALUE: HAL_TIMEx_ConfigCommutEvent:htim <- [DW_OP_LLVM_entry_value 1] $r0
	pop	{r7, pc}
.Ltmp775:
.Lfunc_end28:
	.size	HAL_TIMEx_ConfigCommutEvent, .Lfunc_end28-HAL_TIMEx_ConfigCommutEvent
	.cfi_endproc
	.cantunwind
	.fnend
                                        @ -- End function
	.section	.text.HAL_TIMEx_ConfigCommutEvent_IT,"ax",%progbits
	.hidden	HAL_TIMEx_ConfigCommutEvent_IT  @ -- Begin function HAL_TIMEx_ConfigCommutEvent_IT
	.globl	HAL_TIMEx_ConfigCommutEvent_IT
	.p2align	1
	.type	HAL_TIMEx_ConfigCommutEvent_IT,%function
	.code	16                              @ @HAL_TIMEx_ConfigCommutEvent_IT
	.thumb_func
HAL_TIMEx_ConfigCommutEvent_IT:
.Lfunc_begin29:
	.loc	7 1858 0                        @ ../Library/STM32F4xx_HAL_Driver/Src/stm32f4xx_hal_tim_ex.c:1858:0
	.fnstart
	.cfi_startproc
@ %bb.0:
	@DEBUG_VALUE: HAL_TIMEx_ConfigCommutEvent_IT:htim <- $r0
	@DEBUG_VALUE: HAL_TIMEx_ConfigCommutEvent_IT:htim <- $r0
	@DEBUG_VALUE: HAL_TIMEx_ConfigCommutEvent_IT:InputTrigger <- $r1
	@DEBUG_VALUE: HAL_TIMEx_ConfigCommutEvent_IT:CommutationSource <- $r2
	.save	{r7, lr}
	push	{r7, lr}
	.cfi_def_cfa_offset 8
	.cfi_offset lr, -4
	.cfi_offset r7, -8
.Ltmp776:
	.loc	7 1863 3 prologue_end           @ ../Library/STM32F4xx_HAL_Driver/Src/stm32f4xx_hal_tim_ex.c:1863:3
	ldrb.w	r3, [r0, #60]
.Ltmp777:
	@DEBUG_VALUE: HAL_TIMEx_ConfigCommutEvent_IT:CommutationSource <- $r2
	.loc	7 1863 3 is_stmt 0              @ ../Library/STM32F4xx_HAL_Driver/Src/stm32f4xx_hal_tim_ex.c:1863:3
	cmp	r3, #1
	@DEBUG_VALUE: HAL_TIMEx_ConfigCommutEvent_IT:InputTrigger <- $r1
	bne	.LBB29_2
.Ltmp778:
@ %bb.1:
	@DEBUG_VALUE: HAL_TIMEx_ConfigCommutEvent_IT:CommutationSource <- $r2
	@DEBUG_VALUE: HAL_TIMEx_ConfigCommutEvent_IT:InputTrigger <- $r1
	@DEBUG_VALUE: HAL_TIMEx_ConfigCommutEvent_IT:htim <- $r0
	.loc	7 0 3                           @ ../Library/STM32F4xx_HAL_Driver/Src/stm32f4xx_hal_tim_ex.c:0:3
	movs	r1, #2
.Ltmp779:
	@DEBUG_VALUE: HAL_TIMEx_ConfigCommutEvent_IT:InputTrigger <- [DW_OP_LLVM_entry_value 1] $r1
	b	.LBB29_5
.Ltmp780:
.LBB29_2:
	@DEBUG_VALUE: HAL_TIMEx_ConfigCommutEvent_IT:CommutationSource <- $r2
	@DEBUG_VALUE: HAL_TIMEx_ConfigCommutEvent_IT:InputTrigger <- $r1
	@DEBUG_VALUE: HAL_TIMEx_ConfigCommutEvent_IT:htim <- $r0
	.loc	7 1865 37 is_stmt 1             @ ../Library/STM32F4xx_HAL_Driver/Src/stm32f4xx_hal_tim_ex.c:1865:37
	ror.w	r12, r1, #4
.Ltmp781:
	.loc	7 0 0 is_stmt 0                 @ ../Library/STM32F4xx_HAL_Driver/Src/stm32f4xx_hal_tim_ex.c:0:0
	ldr.w	lr, [r0]
.Ltmp782:
	.loc	7 1865 37                       @ ../Library/STM32F4xx_HAL_Driver/Src/stm32f4xx_hal_tim_ex.c:1865:37
	cmp.w	r12, #3
	bhi	.LBB29_4
.Ltmp783:
@ %bb.3:
	@DEBUG_VALUE: HAL_TIMEx_ConfigCommutEvent_IT:CommutationSource <- $r2
	@DEBUG_VALUE: HAL_TIMEx_ConfigCommutEvent_IT:InputTrigger <- $r1
	@DEBUG_VALUE: HAL_TIMEx_ConfigCommutEvent_IT:htim <- $r0
	.loc	7 1869 26 is_stmt 1             @ ../Library/STM32F4xx_HAL_Driver/Src/stm32f4xx_hal_tim_ex.c:1869:26
	ldr.w	r3, [lr, #8]
	bic	r3, r3, #112
	str.w	r3, [lr, #8]
	.loc	7 1870 26                       @ ../Library/STM32F4xx_HAL_Driver/Src/stm32f4xx_hal_tim_ex.c:1870:26
	ldr.w	r3, [lr, #8]
	orrs	r1, r3
.Ltmp784:
	@DEBUG_VALUE: HAL_TIMEx_ConfigCommutEvent_IT:InputTrigger <- [DW_OP_LLVM_entry_value 1] $r1
	str.w	r1, [lr, #8]
.Ltmp785:
.LBB29_4:
	@DEBUG_VALUE: HAL_TIMEx_ConfigCommutEvent_IT:CommutationSource <- $r2
	@DEBUG_VALUE: HAL_TIMEx_ConfigCommutEvent_IT:htim <- $r0
	.loc	7 1874 23                       @ ../Library/STM32F4xx_HAL_Driver/Src/stm32f4xx_hal_tim_ex.c:1874:23
	ldr.w	r1, [lr, #4]
	orr	r1, r1, #1
	str.w	r1, [lr, #4]
	.loc	7 1876 23                       @ ../Library/STM32F4xx_HAL_Driver/Src/stm32f4xx_hal_tim_ex.c:1876:23
	ldr.w	r1, [lr, #4]
	bic	r1, r1, #4
	str.w	r1, [lr, #4]
	.loc	7 1877 23                       @ ../Library/STM32F4xx_HAL_Driver/Src/stm32f4xx_hal_tim_ex.c:1877:23
	ldr.w	r1, [lr, #4]
	orrs	r1, r2
	str.w	r1, [lr, #4]
	.loc	7 1880 3                        @ ../Library/STM32F4xx_HAL_Driver/Src/stm32f4xx_hal_tim_ex.c:1880:3
	ldr.w	r1, [lr, #12]
	bic	r1, r1, #8192
	str.w	r1, [lr, #12]
	.loc	7 1883 3                        @ ../Library/STM32F4xx_HAL_Driver/Src/stm32f4xx_hal_tim_ex.c:1883:3
	ldr.w	r1, [lr, #12]
	orr	r1, r1, #32
	str.w	r1, [lr, #12]
	movs	r1, #0
.Ltmp786:
	.loc	7 1885 3                        @ ../Library/STM32F4xx_HAL_Driver/Src/stm32f4xx_hal_tim_ex.c:1885:3
	strb.w	r1, [r0, #60]
.Ltmp787:
.LBB29_5:
	@DEBUG_VALUE: HAL_TIMEx_ConfigCommutEvent_IT:CommutationSource <- $r2
	@DEBUG_VALUE: HAL_TIMEx_ConfigCommutEvent_IT:htim <- $r0
	.loc	7 1888 1                        @ ../Library/STM32F4xx_HAL_Driver/Src/stm32f4xx_hal_tim_ex.c:1888:1
	mov	r0, r1
.Ltmp788:
	@DEBUG_VALUE: HAL_TIMEx_ConfigCommutEvent_IT:htim <- [DW_OP_LLVM_entry_value 1] $r0
	pop	{r7, pc}
.Ltmp789:
.Lfunc_end29:
	.size	HAL_TIMEx_ConfigCommutEvent_IT, .Lfunc_end29-HAL_TIMEx_ConfigCommutEvent_IT
	.cfi_endproc
	.cantunwind
	.fnend
                                        @ -- End function
	.section	.text.HAL_TIMEx_ConfigCommutEvent_DMA,"ax",%progbits
	.hidden	HAL_TIMEx_ConfigCommutEvent_DMA @ -- Begin function HAL_TIMEx_ConfigCommutEvent_DMA
	.globl	HAL_TIMEx_ConfigCommutEvent_DMA
	.p2align	1
	.type	HAL_TIMEx_ConfigCommutEvent_DMA,%function
	.code	16                              @ @HAL_TIMEx_ConfigCommutEvent_DMA
	.thumb_func
HAL_TIMEx_ConfigCommutEvent_DMA:
.Lfunc_begin30:
	.loc	7 1915 0                        @ ../Library/STM32F4xx_HAL_Driver/Src/stm32f4xx_hal_tim_ex.c:1915:0
	.fnstart
	.cfi_startproc
@ %bb.0:
	@DEBUG_VALUE: HAL_TIMEx_ConfigCommutEvent_DMA:htim <- $r0
	@DEBUG_VALUE: HAL_TIMEx_ConfigCommutEvent_DMA:htim <- $r0
	@DEBUG_VALUE: HAL_TIMEx_ConfigCommutEvent_DMA:InputTrigger <- $r1
	@DEBUG_VALUE: HAL_TIMEx_ConfigCommutEvent_DMA:CommutationSource <- $r2
	.save	{r7, lr}
	push	{r7, lr}
	.cfi_def_cfa_offset 8
	.cfi_offset lr, -4
	.cfi_offset r7, -8
.Ltmp790:
	.loc	7 1920 3 prologue_end           @ ../Library/STM32F4xx_HAL_Driver/Src/stm32f4xx_hal_tim_ex.c:1920:3
	ldrb.w	r3, [r0, #60]
.Ltmp791:
	@DEBUG_VALUE: HAL_TIMEx_ConfigCommutEvent_DMA:CommutationSource <- $r2
	.loc	7 1920 3 is_stmt 0              @ ../Library/STM32F4xx_HAL_Driver/Src/stm32f4xx_hal_tim_ex.c:1920:3
	cmp	r3, #1
	@DEBUG_VALUE: HAL_TIMEx_ConfigCommutEvent_DMA:InputTrigger <- $r1
	bne	.LBB30_2
.Ltmp792:
@ %bb.1:
	@DEBUG_VALUE: HAL_TIMEx_ConfigCommutEvent_DMA:CommutationSource <- $r2
	@DEBUG_VALUE: HAL_TIMEx_ConfigCommutEvent_DMA:InputTrigger <- $r1
	@DEBUG_VALUE: HAL_TIMEx_ConfigCommutEvent_DMA:htim <- $r0
	.loc	7 0 3                           @ ../Library/STM32F4xx_HAL_Driver/Src/stm32f4xx_hal_tim_ex.c:0:3
	movs	r1, #2
.Ltmp793:
	@DEBUG_VALUE: HAL_TIMEx_ConfigCommutEvent_DMA:InputTrigger <- [DW_OP_LLVM_entry_value 1] $r1
	b	.LBB30_5
.Ltmp794:
.LBB30_2:
	@DEBUG_VALUE: HAL_TIMEx_ConfigCommutEvent_DMA:CommutationSource <- $r2
	@DEBUG_VALUE: HAL_TIMEx_ConfigCommutEvent_DMA:InputTrigger <- $r1
	@DEBUG_VALUE: HAL_TIMEx_ConfigCommutEvent_DMA:htim <- $r0
	.loc	7 1922 37 is_stmt 1             @ ../Library/STM32F4xx_HAL_Driver/Src/stm32f4xx_hal_tim_ex.c:1922:37
	ror.w	r12, r1, #4
.Ltmp795:
	.loc	7 0 0 is_stmt 0                 @ ../Library/STM32F4xx_HAL_Driver/Src/stm32f4xx_hal_tim_ex.c:0:0
	ldr.w	lr, [r0]
.Ltmp796:
	.loc	7 1922 37                       @ ../Library/STM32F4xx_HAL_Driver/Src/stm32f4xx_hal_tim_ex.c:1922:37
	cmp.w	r12, #3
	bhi	.LBB30_4
.Ltmp797:
@ %bb.3:
	@DEBUG_VALUE: HAL_TIMEx_ConfigCommutEvent_DMA:CommutationSource <- $r2
	@DEBUG_VALUE: HAL_TIMEx_ConfigCommutEvent_DMA:InputTrigger <- $r1
	@DEBUG_VALUE: HAL_TIMEx_ConfigCommutEvent_DMA:htim <- $r0
	.loc	7 1926 26 is_stmt 1             @ ../Library/STM32F4xx_HAL_Driver/Src/stm32f4xx_hal_tim_ex.c:1926:26
	ldr.w	r3, [lr, #8]
	bic	r3, r3, #112
	str.w	r3, [lr, #8]
	.loc	7 1927 26                       @ ../Library/STM32F4xx_HAL_Driver/Src/stm32f4xx_hal_tim_ex.c:1927:26
	ldr.w	r3, [lr, #8]
	orrs	r1, r3
.Ltmp798:
	@DEBUG_VALUE: HAL_TIMEx_ConfigCommutEvent_DMA:InputTrigger <- [DW_OP_LLVM_entry_value 1] $r1
	str.w	r1, [lr, #8]
.Ltmp799:
.LBB30_4:
	@DEBUG_VALUE: HAL_TIMEx_ConfigCommutEvent_DMA:CommutationSource <- $r2
	@DEBUG_VALUE: HAL_TIMEx_ConfigCommutEvent_DMA:htim <- $r0
	.loc	7 1931 23                       @ ../Library/STM32F4xx_HAL_Driver/Src/stm32f4xx_hal_tim_ex.c:1931:23
	ldr.w	r1, [lr, #4]
	orr	r1, r1, #1
	str.w	r1, [lr, #4]
	.loc	7 1933 23                       @ ../Library/STM32F4xx_HAL_Driver/Src/stm32f4xx_hal_tim_ex.c:1933:23
	ldr.w	r1, [lr, #4]
	bic	r1, r1, #4
	str.w	r1, [lr, #4]
	.loc	7 1934 23                       @ ../Library/STM32F4xx_HAL_Driver/Src/stm32f4xx_hal_tim_ex.c:1934:23
	ldr.w	r1, [lr, #4]
	orrs	r1, r2
	str.w	r1, [lr, #4]
	.loc	7 1938 3                        @ ../Library/STM32F4xx_HAL_Driver/Src/stm32f4xx_hal_tim_ex.c:1938:3
	ldr	r1, [r0, #52]
	.loc	7 1938 56 is_stmt 0             @ ../Library/STM32F4xx_HAL_Driver/Src/stm32f4xx_hal_tim_ex.c:1938:56
	movw	r2, :lower16:TIMEx_DMACommutationCplt
.Ltmp800:
	@DEBUG_VALUE: HAL_TIMEx_ConfigCommutEvent_DMA:CommutationSource <- [DW_OP_LLVM_entry_value 1] $r2
	movt	r2, :upper16:TIMEx_DMACommutationCplt
	str	r2, [r1, #60]
	.loc	7 1939 3 is_stmt 1              @ ../Library/STM32F4xx_HAL_Driver/Src/stm32f4xx_hal_tim_ex.c:1939:3
	ldr	r1, [r0, #52]
	.loc	7 1939 60 is_stmt 0             @ ../Library/STM32F4xx_HAL_Driver/Src/stm32f4xx_hal_tim_ex.c:1939:60
	movw	r2, :lower16:TIMEx_DMACommutationHalfCplt
	movt	r2, :upper16:TIMEx_DMACommutationHalfCplt
	str	r2, [r1, #64]
	.loc	7 1941 3 is_stmt 1              @ ../Library/STM32F4xx_HAL_Driver/Src/stm32f4xx_hal_tim_ex.c:1941:3
	ldr	r1, [r0, #52]
	.loc	7 1941 57 is_stmt 0             @ ../Library/STM32F4xx_HAL_Driver/Src/stm32f4xx_hal_tim_ex.c:1941:57
	movw	r2, :lower16:TIM_DMAError
	movt	r2, :upper16:TIM_DMAError
	str	r2, [r1, #76]
	.loc	7 1944 3 is_stmt 1              @ ../Library/STM32F4xx_HAL_Driver/Src/stm32f4xx_hal_tim_ex.c:1944:3
	ldr.w	r1, [lr, #12]
	bic	r1, r1, #32
	str.w	r1, [lr, #12]
	.loc	7 1947 3                        @ ../Library/STM32F4xx_HAL_Driver/Src/stm32f4xx_hal_tim_ex.c:1947:3
	ldr.w	r1, [lr, #12]
	orr	r1, r1, #8192
	str.w	r1, [lr, #12]
	movs	r1, #0
.Ltmp801:
	.loc	7 1949 3                        @ ../Library/STM32F4xx_HAL_Driver/Src/stm32f4xx_hal_tim_ex.c:1949:3
	strb.w	r1, [r0, #60]
.Ltmp802:
.LBB30_5:
	@DEBUG_VALUE: HAL_TIMEx_ConfigCommutEvent_DMA:htim <- $r0
	.loc	7 1952 1                        @ ../Library/STM32F4xx_HAL_Driver/Src/stm32f4xx_hal_tim_ex.c:1952:1
	mov	r0, r1
.Ltmp803:
	@DEBUG_VALUE: HAL_TIMEx_ConfigCommutEvent_DMA:htim <- [DW_OP_LLVM_entry_value 1] $r0
	pop	{r7, pc}
.Ltmp804:
.Lfunc_end30:
	.size	HAL_TIMEx_ConfigCommutEvent_DMA, .Lfunc_end30-HAL_TIMEx_ConfigCommutEvent_DMA
	.cfi_endproc
	.cantunwind
	.fnend
                                        @ -- End function
	.section	.text.TIMEx_DMACommutationCplt,"ax",%progbits
	.hidden	TIMEx_DMACommutationCplt        @ -- Begin function TIMEx_DMACommutationCplt
	.globl	TIMEx_DMACommutationCplt
	.p2align	1
	.type	TIMEx_DMACommutationCplt,%function
	.code	16                              @ @TIMEx_DMACommutationCplt
	.thumb_func
TIMEx_DMACommutationCplt:
.Lfunc_begin31:
	.loc	7 2262 0                        @ ../Library/STM32F4xx_HAL_Driver/Src/stm32f4xx_hal_tim_ex.c:2262:0
	.fnstart
	.cfi_startproc
@ %bb.0:
	@DEBUG_VALUE: TIMEx_DMACommutationCplt:hdma <- $r0
	@DEBUG_VALUE: TIMEx_DMACommutationCplt:hdma <- $r0
	.loc	7 2263 79 prologue_end          @ ../Library/STM32F4xx_HAL_Driver/Src/stm32f4xx_hal_tim_ex.c:2263:79
	ldr	r0, [r0, #56]
.Ltmp805:
	@DEBUG_VALUE: TIMEx_DMACommutationCplt:hdma <- [DW_OP_LLVM_entry_value 1] $r0
	@DEBUG_VALUE: TIMEx_DMACommutationCplt:htim <- $r0
	.loc	7 0 79 is_stmt 0                @ ../Library/STM32F4xx_HAL_Driver/Src/stm32f4xx_hal_tim_ex.c:0:79
	movs	r1, #1
	.loc	7 2266 15 is_stmt 1             @ ../Library/STM32F4xx_HAL_Driver/Src/stm32f4xx_hal_tim_ex.c:2266:15
	strb.w	r1, [r0, #61]
.Ltmp806:
	.loc	7 2271 3                        @ ../Library/STM32F4xx_HAL_Driver/Src/stm32f4xx_hal_tim_ex.c:2271:3
	b	HAL_TIMEx_CommutCallback
.Ltmp807:
.Lfunc_end31:
	.size	TIMEx_DMACommutationCplt, .Lfunc_end31-TIMEx_DMACommutationCplt
	.cfi_endproc
	.cantunwind
	.fnend
                                        @ -- End function
	.section	.text.TIMEx_DMACommutationHalfCplt,"ax",%progbits
	.hidden	TIMEx_DMACommutationHalfCplt    @ -- Begin function TIMEx_DMACommutationHalfCplt
	.globl	TIMEx_DMACommutationHalfCplt
	.p2align	1
	.type	TIMEx_DMACommutationHalfCplt,%function
	.code	16                              @ @TIMEx_DMACommutationHalfCplt
	.thumb_func
TIMEx_DMACommutationHalfCplt:
.Lfunc_begin32:
	.loc	7 2281 0                        @ ../Library/STM32F4xx_HAL_Driver/Src/stm32f4xx_hal_tim_ex.c:2281:0
	.fnstart
	.cfi_startproc
@ %bb.0:
	@DEBUG_VALUE: TIMEx_DMACommutationHalfCplt:hdma <- $r0
	@DEBUG_VALUE: TIMEx_DMACommutationHalfCplt:hdma <- $r0
	.loc	7 2282 79 prologue_end          @ ../Library/STM32F4xx_HAL_Driver/Src/stm32f4xx_hal_tim_ex.c:2282:79
	ldr	r0, [r0, #56]
.Ltmp808:
	@DEBUG_VALUE: TIMEx_DMACommutationHalfCplt:hdma <- [DW_OP_LLVM_entry_value 1] $r0
	@DEBUG_VALUE: TIMEx_DMACommutationHalfCplt:htim <- $r0
	.loc	7 0 79 is_stmt 0                @ ../Library/STM32F4xx_HAL_Driver/Src/stm32f4xx_hal_tim_ex.c:0:79
	movs	r1, #1
	.loc	7 2285 15 is_stmt 1             @ ../Library/STM32F4xx_HAL_Driver/Src/stm32f4xx_hal_tim_ex.c:2285:15
	strb.w	r1, [r0, #61]
.Ltmp809:
	.loc	7 2290 3                        @ ../Library/STM32F4xx_HAL_Driver/Src/stm32f4xx_hal_tim_ex.c:2290:3
	b	HAL_TIMEx_CommutHalfCpltCallback
.Ltmp810:
.Lfunc_end32:
	.size	TIMEx_DMACommutationHalfCplt, .Lfunc_end32-TIMEx_DMACommutationHalfCplt
	.cfi_endproc
	.cantunwind
	.fnend
                                        @ -- End function
	.section	.text.HAL_TIMEx_MasterConfigSynchronization,"ax",%progbits
	.hidden	HAL_TIMEx_MasterConfigSynchronization @ -- Begin function HAL_TIMEx_MasterConfigSynchronization
	.globl	HAL_TIMEx_MasterConfigSynchronization
	.p2align	1
