	.text
	.syntax unified
	.eabi_attribute	67, "2.09"	@ Tag_conformance
	.cpu	cortex-m4
	.eabi_attribute	6, 13	@ Tag_CPU_arch
	.eabi_attribute	7, 77	@ Tag_CPU_arch_profile
	.eabi_attribute	8, 0	@ Tag_ARM_ISA_use
	.eabi_attribute	9, 2	@ Tag_THUMB_ISA_use
	.fpu	fpv4-sp-d16
	.eabi_attribute	27, 1	@ Tag_ABI_HardFP_use
	.eabi_attribute	36, 1	@ Tag_FP_HP_extension
	.eabi_attribute	34, 1	@ Tag_CPU_unaligned_access
	.eabi_attribute	17, 1	@ Tag_ABI_PCS_GOT_use
	.eabi_attribute	20, 2	@ Tag_ABI_FP_denormal
	.eabi_attribute	21, 0	@ Tag_ABI_FP_exceptions
	.eabi_attribute	23, 1	@ Tag_ABI_FP_number_model
	.eabi_attribute	24, 1	@ Tag_ABI_align_needed
	.eabi_attribute	25, 1	@ Tag_ABI_align_preserved
	.eabi_attribute	28, 1	@ Tag_ABI_VFP_args
	.eabi_attribute	38, 1	@ Tag_ABI_FP_16bit_format
	.eabi_attribute	18, 2	@ Tag_ABI_PCS_wchar_t
	.eabi_attribute	26, 1	@ Tag_ABI_enum_size
	.eabi_attribute	14, 0	@ Tag_ABI_PCS_R9_use
	.file	"stm32f4xx_hal_dma_ex.c"
	.file	1 "C:\\Users\\Hyacincher\\Desktop\\HyTelectrl\\Code\\Project" "../Library/STM32F4xx_HAL_Driver/Inc/stm32f4xx_hal_def.h"
	.file	2 "C:\\Users\\Hyacincher\\Desktop\\HyTelectrl\\Code\\Project" "../Library/STM32F4xx_HAL_Driver/Inc\\stm32f4xx_hal_dma.h"
	.file	3 "C:\\Users\\Hyacincher\\Desktop\\HyTelectrl\\Code\\Project" "../Library/STM32F4xx_HAL_Driver/Inc/stm32f4xx_hal_dma_ex.h"
	.file	4 "D:\\Keil MDK\\ARM\\ARMCLANG\\Bin\\..\\include" "stdint.h"
	.file	5 "C:\\Users\\Hyacincher\\Desktop\\HyTelectrl\\Code\\Project" "../Library/CMSIS/stm32f429xx.h"
	.section	.text.HAL_DMAEx_MultiBufferStart,"ax",%progbits
	.hidden	HAL_DMAEx_MultiBufferStart      @ -- Begin function HAL_DMAEx_MultiBufferStart
	.globl	HAL_DMAEx_MultiBufferStart
	.p2align	1
	.type	HAL_DMAEx_MultiBufferStart,%function
	.code	16                              @ @HAL_DMAEx_MultiBufferStart
	.thumb_func
HAL_DMAEx_MultiBufferStart:
.Lfunc_begin0:
	.file	6 "C:\\Users\\Hyacincher\\Desktop\\HyTelectrl\\Code\\Project" "../Library/STM32F4xx_HAL_Driver/Src/stm32f4xx_hal_dma_ex.c"
	.loc	6 102 0                         @ ../Library/STM32F4xx_HAL_Driver/Src/stm32f4xx_hal_dma_ex.c:102:0
	.fnstart
	.cfi_sections .debug_frame
	.cfi_startproc
@ %bb.0:
	@DEBUG_VALUE: HAL_DMAEx_MultiBufferStart:hdma <- $r0
	@DEBUG_VALUE: HAL_DMAEx_MultiBufferStart:hdma <- $r0
	@DEBUG_VALUE: HAL_DMAEx_MultiBufferStart:SrcAddress <- $r1
	@DEBUG_VALUE: HAL_DMAEx_MultiBufferStart:DstAddress <- $r2
	@DEBUG_VALUE: HAL_DMAEx_MultiBufferStart:SecondMemAddress <- $r3
	@DEBUG_VALUE: HAL_DMAEx_MultiBufferStart:SecondMemAddress <- $r3
	.save	{r4, r5, r7, lr}
	push	{r4, r5, r7, lr}
	.cfi_def_cfa_offset 16
	.cfi_offset lr, -4
	.cfi_offset r7, -8
	.cfi_offset r5, -12
	.cfi_offset r4, -16
.Ltmp0:
	@DEBUG_VALUE: HAL_DMAEx_MultiBufferStart:DataLength <- [DW_OP_plus_uconst 16] [$sp+0]
	@DEBUG_VALUE: HAL_DMAEx_MultiBufferStart:status <- 0
	.loc	6 109 18 prologue_end           @ ../Library/STM32F4xx_HAL_Driver/Src/stm32f4xx_hal_dma_ex.c:109:18
	ldr.w	lr, [r0, #8]
.Ltmp1:
	@DEBUG_VALUE: HAL_DMAEx_MultiBufferStart:DstAddress <- $r2
	.loc	6 109 7 is_stmt 0               @ ../Library/STM32F4xx_HAL_Driver/Src/stm32f4xx_hal_dma_ex.c:109:7
	cmp.w	lr, #128
	@DEBUG_VALUE: HAL_DMAEx_MultiBufferStart:SrcAddress <- $r1
	bne	.LBB0_2
.Ltmp2:
@ %bb.1:
	@DEBUG_VALUE: HAL_DMAEx_MultiBufferStart:SecondMemAddress <- $r3
	@DEBUG_VALUE: HAL_DMAEx_MultiBufferStart:DstAddress <- $r2
	@DEBUG_VALUE: HAL_DMAEx_MultiBufferStart:SrcAddress <- $r1
	@DEBUG_VALUE: HAL_DMAEx_MultiBufferStart:hdma <- $r0
	@DEBUG_VALUE: HAL_DMAEx_MultiBufferStart:DataLength <- [DW_OP_plus_uconst 16] [$sp+0]
	@DEBUG_VALUE: HAL_DMAEx_MultiBufferStart:status <- 0
	.loc	6 0 7                           @ ../Library/STM32F4xx_HAL_Driver/Src/stm32f4xx_hal_dma_ex.c:0:7
	mov.w	r1, #256
.Ltmp3:
	@DEBUG_VALUE: HAL_DMAEx_MultiBufferStart:SrcAddress <- [DW_OP_LLVM_entry_value 1] $r1
	.loc	6 111 21 is_stmt 1              @ ../Library/STM32F4xx_HAL_Driver/Src/stm32f4xx_hal_dma_ex.c:111:21
	str	r1, [r0, #84]
	mov.w	r12, #1
.Ltmp4:
	@DEBUG_VALUE: HAL_DMAEx_MultiBufferStart:status <- 1
	.loc	6 0 21 is_stmt 0                @ ../Library/STM32F4xx_HAL_Driver/Src/stm32f4xx_hal_dma_ex.c:0:21
	b	.LBB0_6
.Ltmp5:
.LBB0_2:
	@DEBUG_VALUE: HAL_DMAEx_MultiBufferStart:SecondMemAddress <- $r3
	@DEBUG_VALUE: HAL_DMAEx_MultiBufferStart:DstAddress <- $r2
	@DEBUG_VALUE: HAL_DMAEx_MultiBufferStart:SrcAddress <- $r1
	@DEBUG_VALUE: HAL_DMAEx_MultiBufferStart:hdma <- $r0
	@DEBUG_VALUE: HAL_DMAEx_MultiBufferStart:DataLength <- [DW_OP_plus_uconst 16] [$sp+0]
	@DEBUG_VALUE: HAL_DMAEx_MultiBufferStart:status <- 0
	.loc	6 117 5 is_stmt 1               @ ../Library/STM32F4xx_HAL_Driver/Src/stm32f4xx_hal_dma_ex.c:117:5
	ldrb.w	r12, [r0, #52]
.Ltmp6:
	.loc	6 117 5 is_stmt 0               @ ../Library/STM32F4xx_HAL_Driver/Src/stm32f4xx_hal_dma_ex.c:117:5
	cmp.w	r12, #1
	bne	.LBB0_4
.Ltmp7:
@ %bb.3:
	@DEBUG_VALUE: HAL_DMAEx_MultiBufferStart:SecondMemAddress <- $r3
	@DEBUG_VALUE: HAL_DMAEx_MultiBufferStart:DstAddress <- $r2
	@DEBUG_VALUE: HAL_DMAEx_MultiBufferStart:SrcAddress <- $r1
	@DEBUG_VALUE: HAL_DMAEx_MultiBufferStart:hdma <- $r0
	@DEBUG_VALUE: HAL_DMAEx_MultiBufferStart:DataLength <- [DW_OP_plus_uconst 16] [$sp+0]
	@DEBUG_VALUE: HAL_DMAEx_MultiBufferStart:status <- 0
	.loc	6 0 5                           @ ../Library/STM32F4xx_HAL_Driver/Src/stm32f4xx_hal_dma_ex.c:0:5
	mov.w	r12, #2
	b	.LBB0_6
.Ltmp8:
.LBB0_4:
	@DEBUG_VALUE: HAL_DMAEx_MultiBufferStart:SecondMemAddress <- $r3
	@DEBUG_VALUE: HAL_DMAEx_MultiBufferStart:DstAddress <- $r2
	@DEBUG_VALUE: HAL_DMAEx_MultiBufferStart:SrcAddress <- $r1
	@DEBUG_VALUE: HAL_DMAEx_MultiBufferStart:hdma <- $r0
	@DEBUG_VALUE: HAL_DMAEx_MultiBufferStart:DataLength <- [DW_OP_plus_uconst 16] [$sp+0]
	@DEBUG_VALUE: HAL_DMAEx_MultiBufferStart:status <- 0
	mov.w	r12, #1
.Ltmp9:
	.loc	6 117 5                         @ ../Library/STM32F4xx_HAL_Driver/Src/stm32f4xx_hal_dma_ex.c:117:5
	strb.w	r12, [r0, #52]
.Ltmp10:
	.loc	6 119 37 is_stmt 1              @ ../Library/STM32F4xx_HAL_Driver/Src/stm32f4xx_hal_dma_ex.c:119:37
	ldrb.w	r12, [r0, #53]
.Ltmp11:
	.loc	6 119 8 is_stmt 0               @ ../Library/STM32F4xx_HAL_Driver/Src/stm32f4xx_hal_dma_ex.c:119:8
	cmp.w	r12, #1
	mov.w	r12, #2
	bne	.LBB0_6
.Ltmp12:
@ %bb.5:
	@DEBUG_VALUE: HAL_DMAEx_MultiBufferStart:SecondMemAddress <- $r3
	@DEBUG_VALUE: HAL_DMAEx_MultiBufferStart:DstAddress <- $r2
	@DEBUG_VALUE: HAL_DMAEx_MultiBufferStart:SrcAddress <- $r1
	@DEBUG_VALUE: HAL_DMAEx_MultiBufferStart:hdma <- $r0
	@DEBUG_VALUE: HAL_DMAEx_MultiBufferStart:DataLength <- [DW_OP_plus_uconst 16] [$sp+0]
	@DEBUG_VALUE: HAL_DMAEx_MultiBufferStart:status <- 0
	.loc	6 122 19 is_stmt 1              @ ../Library/STM32F4xx_HAL_Driver/Src/stm32f4xx_hal_dma_ex.c:122:19
	strb.w	r12, [r0, #53]
	.loc	6 125 13                        @ ../Library/STM32F4xx_HAL_Driver/Src/stm32f4xx_hal_dma_ex.c:125:13
	ldr	r0, [r0]
.Ltmp13:
	@DEBUG_VALUE: HAL_DMAEx_MultiBufferStart:hdma <- [DW_OP_LLVM_entry_value 1] $r0
	.loc	6 0 13 is_stmt 0                @ ../Library/STM32F4xx_HAL_Driver/Src/stm32f4xx_hal_dma_ex.c:0:13
	ldr	r5, [sp, #16]
	.loc	6 125 26                        @ ../Library/STM32F4xx_HAL_Driver/Src/stm32f4xx_hal_dma_ex.c:125:26
	ldr.w	r12, [r0]
.Ltmp14:
	.loc	6 283 6 is_stmt 1               @ ../Library/STM32F4xx_HAL_Driver/Src/stm32f4xx_hal_dma_ex.c:283:6
	cmp.w	lr, #64
.Ltmp15:
	.loc	6 125 26                        @ ../Library/STM32F4xx_HAL_Driver/Src/stm32f4xx_hal_dma_ex.c:125:26
	orr	r4, r12, #262144
	str	r4, [r0]
	.loc	6 128 28                        @ ../Library/STM32F4xx_HAL_Driver/Src/stm32f4xx_hal_dma_ex.c:128:28
	str	r3, [r0, #16]
.Ltmp16:
	@DEBUG_VALUE: DMA_MultiBufferSetConfig:DataLength <- $r5
	@DEBUG_VALUE: DMA_MultiBufferSetConfig:DstAddress <- $r2
	@DEBUG_VALUE: DMA_MultiBufferSetConfig:SrcAddress <- $r1
	@DEBUG_VALUE: DMA_MultiBufferSetConfig:hdma <- undef
	.loc	6 283 6                         @ ../Library/STM32F4xx_HAL_Driver/Src/stm32f4xx_hal_dma_ex.c:283:6
	mov	r3, r1
.Ltmp17:
	@DEBUG_VALUE: HAL_DMAEx_MultiBufferStart:SecondMemAddress <- [DW_OP_LLVM_entry_value 1] $r3
	.loc	6 280 24                        @ ../Library/STM32F4xx_HAL_Driver/Src/stm32f4xx_hal_dma_ex.c:280:24
	str	r5, [r0, #4]
	.loc	6 283 6                         @ ../Library/STM32F4xx_HAL_Driver/Src/stm32f4xx_hal_dma_ex.c:283:6
	itt	eq
	moveq	r3, r2
	moveq	r2, r1
.Ltmp18:
	@DEBUG_VALUE: HAL_DMAEx_MultiBufferStart:DstAddress <- [DW_OP_LLVM_entry_value 1] $r2
	.loc	6 0 0 is_stmt 0                 @ ../Library/STM32F4xx_HAL_Driver/Src/stm32f4xx_hal_dma_ex.c:0:0
	str	r3, [r0, #8]
	str	r2, [r0, #12]
.Ltmp19:
	.loc	6 134 7 is_stmt 1               @ ../Library/STM32F4xx_HAL_Driver/Src/stm32f4xx_hal_dma_ex.c:134:7
	ldr	r1, [r0]
.Ltmp20:
	@DEBUG_VALUE: HAL_DMAEx_MultiBufferStart:SrcAddress <- [DW_OP_LLVM_entry_value 1] $r1
	.loc	6 0 7 is_stmt 0                 @ ../Library/STM32F4xx_HAL_Driver/Src/stm32f4xx_hal_dma_ex.c:0:7
	mov.w	r12, #0
	.loc	6 134 7                         @ ../Library/STM32F4xx_HAL_Driver/Src/stm32f4xx_hal_dma_ex.c:134:7
	orr	r1, r1, #1
	str	r1, [r0]
.Ltmp21:
.LBB0_6:
	@DEBUG_VALUE: HAL_DMAEx_MultiBufferStart:DataLength <- [DW_OP_plus_uconst 16] [$sp+0]
	.loc	6 143 1 is_stmt 1               @ ../Library/STM32F4xx_HAL_Driver/Src/stm32f4xx_hal_dma_ex.c:143:1
	mov	r0, r12
	pop	{r4, r5, r7, pc}
.Ltmp22:
.Lfunc_end0:
	.size	HAL_DMAEx_MultiBufferStart, .Lfunc_end0-HAL_DMAEx_MultiBufferStart
	.cfi_endproc
	.cantunwind
	.fnend
                                        @ -- End function
	.section	.text.HAL_DMAEx_MultiBufferStart_IT,"ax",%progbits
	.hidden	HAL_DMAEx_MultiBufferStart_IT   @ -- Begin function HAL_DMAEx_MultiBufferStart_IT
	.globl	HAL_DMAEx_MultiBufferStart_IT
	.p2align	1
	.type	HAL_DMAEx_MultiBufferStart_IT,%function
	.code	16                              @ @HAL_DMAEx_MultiBufferStart_IT
	.thumb_func
HAL_DMAEx_MultiBufferStart_IT:
.Lfunc_begin1:
	.loc	6 156 0                         @ ../Library/STM32F4xx_HAL_Driver/Src/stm32f4xx_hal_dma_ex.c:156:0
	.fnstart
	.cfi_startproc
@ %bb.0:
	@DEBUG_VALUE: HAL_DMAEx_MultiBufferStart_IT:hdma <- $r0
	@DEBUG_VALUE: HAL_DMAEx_MultiBufferStart_IT:hdma <- $r0
	@DEBUG_VALUE: HAL_DMAEx_MultiBufferStart_IT:SrcAddress <- $r1
	@DEBUG_VALUE: HAL_DMAEx_MultiBufferStart_IT:DstAddress <- $r2
	@DEBUG_VALUE: HAL_DMAEx_MultiBufferStart_IT:SecondMemAddress <- $r3
	@DEBUG_VALUE: HAL_DMAEx_MultiBufferStart_IT:SecondMemAddress <- $r3
	.save	{r4, r5, r6, lr}
	push	{r4, r5, r6, lr}
	.cfi_def_cfa_offset 16
	.cfi_offset lr, -4
	.cfi_offset r6, -8
	.cfi_offset r5, -12
	.cfi_offset r4, -16
.Ltmp23:
	@DEBUG_VALUE: HAL_DMAEx_MultiBufferStart_IT:DataLength <- [DW_OP_plus_uconst 16] [$sp+0]
	@DEBUG_VALUE: HAL_DMAEx_MultiBufferStart_IT:status <- 0
	.loc	6 163 18 prologue_end           @ ../Library/STM32F4xx_HAL_Driver/Src/stm32f4xx_hal_dma_ex.c:163:18
	ldr	r5, [r0, #8]
.Ltmp24:
	@DEBUG_VALUE: HAL_DMAEx_MultiBufferStart_IT:DstAddress <- $r2
	.loc	6 163 7 is_stmt 0               @ ../Library/STM32F4xx_HAL_Driver/Src/stm32f4xx_hal_dma_ex.c:163:7
	cmp	r5, #128
	@DEBUG_VALUE: HAL_DMAEx_MultiBufferStart_IT:SrcAddress <- $r1
	bne	.LBB1_2
.Ltmp25:
@ %bb.1:
	@DEBUG_VALUE: HAL_DMAEx_MultiBufferStart_IT:SecondMemAddress <- $r3
	@DEBUG_VALUE: HAL_DMAEx_MultiBufferStart_IT:DstAddress <- $r2
	@DEBUG_VALUE: HAL_DMAEx_MultiBufferStart_IT:SrcAddress <- $r1
	@DEBUG_VALUE: HAL_DMAEx_MultiBufferStart_IT:hdma <- $r0
	@DEBUG_VALUE: HAL_DMAEx_MultiBufferStart_IT:DataLength <- [DW_OP_plus_uconst 16] [$sp+0]
	@DEBUG_VALUE: HAL_DMAEx_MultiBufferStart_IT:status <- 0
	.loc	6 0 7                           @ ../Library/STM32F4xx_HAL_Driver/Src/stm32f4xx_hal_dma_ex.c:0:7
	mov.w	r1, #256
.Ltmp26:
	@DEBUG_VALUE: HAL_DMAEx_MultiBufferStart_IT:SrcAddress <- [DW_OP_LLVM_entry_value 1] $r1
	b	.LBB1_12
.Ltmp27:
.LBB1_2:
	@DEBUG_VALUE: HAL_DMAEx_MultiBufferStart_IT:SecondMemAddress <- $r3
	@DEBUG_VALUE: HAL_DMAEx_MultiBufferStart_IT:DstAddress <- $r2
	@DEBUG_VALUE: HAL_DMAEx_MultiBufferStart_IT:SrcAddress <- $r1
	@DEBUG_VALUE: HAL_DMAEx_MultiBufferStart_IT:hdma <- $r0
	@DEBUG_VALUE: HAL_DMAEx_MultiBufferStart_IT:DataLength <- [DW_OP_plus_uconst 16] [$sp+0]
	@DEBUG_VALUE: HAL_DMAEx_MultiBufferStart_IT:status <- 0
	.loc	6 170 22 is_stmt 1              @ ../Library/STM32F4xx_HAL_Driver/Src/stm32f4xx_hal_dma_ex.c:170:22
	ldr	r4, [r0, #60]
	.loc	6 170 40 is_stmt 0              @ ../Library/STM32F4xx_HAL_Driver/Src/stm32f4xx_hal_dma_ex.c:170:40
	cmp	r4, #0
	beq	.LBB1_11
.Ltmp28:
@ %bb.3:
	@DEBUG_VALUE: HAL_DMAEx_MultiBufferStart_IT:SecondMemAddress <- $r3
	@DEBUG_VALUE: HAL_DMAEx_MultiBufferStart_IT:DstAddress <- $r2
	@DEBUG_VALUE: HAL_DMAEx_MultiBufferStart_IT:SrcAddress <- $r1
	@DEBUG_VALUE: HAL_DMAEx_MultiBufferStart_IT:hdma <- $r0
	@DEBUG_VALUE: HAL_DMAEx_MultiBufferStart_IT:DataLength <- [DW_OP_plus_uconst 16] [$sp+0]
	@DEBUG_VALUE: HAL_DMAEx_MultiBufferStart_IT:status <- 0
	.loc	6 170 58                        @ ../Library/STM32F4xx_HAL_Driver/Src/stm32f4xx_hal_dma_ex.c:170:58
	ldr	r4, [r0, #68]
	.loc	6 170 78                        @ ../Library/STM32F4xx_HAL_Driver/Src/stm32f4xx_hal_dma_ex.c:170:78
	cmp	r4, #0
	beq	.LBB1_11
.Ltmp29:
@ %bb.4:
	@DEBUG_VALUE: HAL_DMAEx_MultiBufferStart_IT:SecondMemAddress <- $r3
	@DEBUG_VALUE: HAL_DMAEx_MultiBufferStart_IT:DstAddress <- $r2
	@DEBUG_VALUE: HAL_DMAEx_MultiBufferStart_IT:SrcAddress <- $r1
	@DEBUG_VALUE: HAL_DMAEx_MultiBufferStart_IT:hdma <- $r0
	@DEBUG_VALUE: HAL_DMAEx_MultiBufferStart_IT:DataLength <- [DW_OP_plus_uconst 16] [$sp+0]
	@DEBUG_VALUE: HAL_DMAEx_MultiBufferStart_IT:status <- 0
	.loc	6 170 96                        @ ../Library/STM32F4xx_HAL_Driver/Src/stm32f4xx_hal_dma_ex.c:170:96
	ldr	r4, [r0, #76]
.Ltmp30:
	.loc	6 170 7                         @ ../Library/STM32F4xx_HAL_Driver/Src/stm32f4xx_hal_dma_ex.c:170:7
	cmp	r4, #0
	beq	.LBB1_11
.Ltmp31:
@ %bb.5:
	@DEBUG_VALUE: HAL_DMAEx_MultiBufferStart_IT:SecondMemAddress <- $r3
	@DEBUG_VALUE: HAL_DMAEx_MultiBufferStart_IT:DstAddress <- $r2
	@DEBUG_VALUE: HAL_DMAEx_MultiBufferStart_IT:SrcAddress <- $r1
	@DEBUG_VALUE: HAL_DMAEx_MultiBufferStart_IT:hdma <- $r0
	@DEBUG_VALUE: HAL_DMAEx_MultiBufferStart_IT:DataLength <- [DW_OP_plus_uconst 16] [$sp+0]
	@DEBUG_VALUE: HAL_DMAEx_MultiBufferStart_IT:status <- 0
	.loc	6 177 3 is_stmt 1               @ ../Library/STM32F4xx_HAL_Driver/Src/stm32f4xx_hal_dma_ex.c:177:3
	ldrb.w	r4, [r0, #52]
.Ltmp32:
	.loc	6 177 3 is_stmt 0               @ ../Library/STM32F4xx_HAL_Driver/Src/stm32f4xx_hal_dma_ex.c:177:3
	cmp	r4, #1
	beq	.LBB1_14
.Ltmp33:
@ %bb.6:
	@DEBUG_VALUE: HAL_DMAEx_MultiBufferStart_IT:SecondMemAddress <- $r3
	@DEBUG_VALUE: HAL_DMAEx_MultiBufferStart_IT:DstAddress <- $r2
	@DEBUG_VALUE: HAL_DMAEx_MultiBufferStart_IT:SrcAddress <- $r1
	@DEBUG_VALUE: HAL_DMAEx_MultiBufferStart_IT:hdma <- $r0
	@DEBUG_VALUE: HAL_DMAEx_MultiBufferStart_IT:DataLength <- [DW_OP_plus_uconst 16] [$sp+0]
	@DEBUG_VALUE: HAL_DMAEx_MultiBufferStart_IT:status <- 0
	.loc	6 0 3                           @ ../Library/STM32F4xx_HAL_Driver/Src/stm32f4xx_hal_dma_ex.c:0:3
	movs	r4, #1
.Ltmp34:
	.loc	6 177 3                         @ ../Library/STM32F4xx_HAL_Driver/Src/stm32f4xx_hal_dma_ex.c:177:3
	strb.w	r4, [r0, #52]
.Ltmp35:
	.loc	6 179 35 is_stmt 1              @ ../Library/STM32F4xx_HAL_Driver/Src/stm32f4xx_hal_dma_ex.c:179:35
	ldrb.w	r4, [r0, #53]
.Ltmp36:
	.loc	6 179 6 is_stmt 0               @ ../Library/STM32F4xx_HAL_Driver/Src/stm32f4xx_hal_dma_ex.c:179:6
	cmp	r4, #1
	bne	.LBB1_13
.Ltmp37:
@ %bb.7:
	@DEBUG_VALUE: HAL_DMAEx_MultiBufferStart_IT:SecondMemAddress <- $r3
	@DEBUG_VALUE: HAL_DMAEx_MultiBufferStart_IT:DstAddress <- $r2
	@DEBUG_VALUE: HAL_DMAEx_MultiBufferStart_IT:SrcAddress <- $r1
	@DEBUG_VALUE: HAL_DMAEx_MultiBufferStart_IT:hdma <- $r0
	@DEBUG_VALUE: HAL_DMAEx_MultiBufferStart_IT:DataLength <- [DW_OP_plus_uconst 16] [$sp+0]
	@DEBUG_VALUE: HAL_DMAEx_MultiBufferStart_IT:status <- 0
	.loc	6 0 6                           @ ../Library/STM32F4xx_HAL_Driver/Src/stm32f4xx_hal_dma_ex.c:0:6
	movs	r4, #2
.Ltmp38:
	.loc	6 182 17 is_stmt 1              @ ../Library/STM32F4xx_HAL_Driver/Src/stm32f4xx_hal_dma_ex.c:182:17
	strb.w	r4, [r0, #53]
	movs	r4, #0
	.loc	6 185 21                        @ ../Library/STM32F4xx_HAL_Driver/Src/stm32f4xx_hal_dma_ex.c:185:21
	str	r4, [r0, #84]
	.loc	6 188 11                        @ ../Library/STM32F4xx_HAL_Driver/Src/stm32f4xx_hal_dma_ex.c:188:11
	ldr.w	r12, [r0]
	ldr	r4, [sp, #16]
	.loc	6 188 24 is_stmt 0              @ ../Library/STM32F4xx_HAL_Driver/Src/stm32f4xx_hal_dma_ex.c:188:24
	ldr.w	r6, [r12]
	movw	lr, #25612
	orr	r6, r6, #262144
	movt	lr, #16386
	str.w	r6, [r12]
	.loc	6 191 26 is_stmt 1              @ ../Library/STM32F4xx_HAL_Driver/Src/stm32f4xx_hal_dma_ex.c:191:26
	str.w	r3, [r12, #16]
.Ltmp39:
	@DEBUG_VALUE: DMA_MultiBufferSetConfig:DataLength <- $r4
	@DEBUG_VALUE: DMA_MultiBufferSetConfig:DstAddress <- $r2
	@DEBUG_VALUE: DMA_MultiBufferSetConfig:SrcAddress <- $r1
	@DEBUG_VALUE: DMA_MultiBufferSetConfig:hdma <- $r0
	.loc	6 283 6                         @ ../Library/STM32F4xx_HAL_Driver/Src/stm32f4xx_hal_dma_ex.c:283:6
	mov	r3, r1
.Ltmp40:
	@DEBUG_VALUE: HAL_DMAEx_MultiBufferStart_IT:SecondMemAddress <- [DW_OP_LLVM_entry_value 1] $r3
	.loc	6 280 24                        @ ../Library/STM32F4xx_HAL_Driver/Src/stm32f4xx_hal_dma_ex.c:280:24
	str.w	r4, [r12, #4]
	.loc	6 283 6                         @ ../Library/STM32F4xx_HAL_Driver/Src/stm32f4xx_hal_dma_ex.c:283:6
	cmp	r5, #64
	itt	eq
	moveq	r3, r2
	moveq	r2, r1
.Ltmp41:
	@DEBUG_VALUE: HAL_DMAEx_MultiBufferStart_IT:DstAddress <- [DW_OP_LLVM_entry_value 1] $r2
	.loc	6 197 5                         @ ../Library/STM32F4xx_HAL_Driver/Src/stm32f4xx_hal_dma_ex.c:197:5
	add.w	r1, lr, #76
.Ltmp42:
	@DEBUG_VALUE: HAL_DMAEx_MultiBufferStart_IT:SrcAddress <- [DW_OP_LLVM_entry_value 1] $r1
	cmp	r12, r1
.Ltmp43:
	.loc	6 0 0 is_stmt 0                 @ ../Library/STM32F4xx_HAL_Driver/Src/stm32f4xx_hal_dma_ex.c:0:0
	str.w	r3, [r12, #8]
	str.w	r2, [r12, #12]
.Ltmp44:
	@DEBUG_VALUE: DMA_MultiBufferSetConfig:hdma <- $r0
	.loc	6 197 5                         @ ../Library/STM32F4xx_HAL_Driver/Src/stm32f4xx_hal_dma_ex.c:197:5
	bls	.LBB1_15
.Ltmp45:
@ %bb.8:
	@DEBUG_VALUE: HAL_DMAEx_MultiBufferStart_IT:hdma <- $r0
	@DEBUG_VALUE: HAL_DMAEx_MultiBufferStart_IT:DataLength <- [DW_OP_plus_uconst 16] [$sp+0]
	@DEBUG_VALUE: HAL_DMAEx_MultiBufferStart_IT:DstAddress <- [DW_OP_LLVM_entry_value 1] $r2
	@DEBUG_VALUE: HAL_DMAEx_MultiBufferStart_IT:SecondMemAddress <- [DW_OP_LLVM_entry_value 1] $r3
	@DEBUG_VALUE: HAL_DMAEx_MultiBufferStart_IT:SrcAddress <- [DW_OP_LLVM_entry_value 1] $r1
	@DEBUG_VALUE: HAL_DMAEx_MultiBufferStart_IT:status <- 0
	.loc	6 0 5                           @ ../Library/STM32F4xx_HAL_Driver/Src/stm32f4xx_hal_dma_ex.c:0:5
	movw	r1, #25736
	movt	r1, #16386
	.loc	6 197 5                         @ ../Library/STM32F4xx_HAL_Driver/Src/stm32f4xx_hal_dma_ex.c:197:5
	cmp	r12, r1
	beq	.LBB1_23
.Ltmp46:
@ %bb.9:
	@DEBUG_VALUE: HAL_DMAEx_MultiBufferStart_IT:hdma <- $r0
	@DEBUG_VALUE: HAL_DMAEx_MultiBufferStart_IT:DataLength <- [DW_OP_plus_uconst 16] [$sp+0]
	@DEBUG_VALUE: HAL_DMAEx_MultiBufferStart_IT:DstAddress <- [DW_OP_LLVM_entry_value 1] $r2
	@DEBUG_VALUE: HAL_DMAEx_MultiBufferStart_IT:SecondMemAddress <- [DW_OP_LLVM_entry_value 1] $r3
	@DEBUG_VALUE: HAL_DMAEx_MultiBufferStart_IT:SrcAddress <- [DW_OP_LLVM_entry_value 1] $r1
	@DEBUG_VALUE: HAL_DMAEx_MultiBufferStart_IT:status <- 0
	.loc	6 0 5                           @ ../Library/STM32F4xx_HAL_Driver/Src/stm32f4xx_hal_dma_ex.c:0:5
	movw	r1, #25712
	movt	r1, #16386
	.loc	6 197 5                         @ ../Library/STM32F4xx_HAL_Driver/Src/stm32f4xx_hal_dma_ex.c:197:5
	cmp	r12, r1
	bne	.LBB1_24
.Ltmp47:
@ %bb.10:
	@DEBUG_VALUE: HAL_DMAEx_MultiBufferStart_IT:hdma <- $r0
	@DEBUG_VALUE: HAL_DMAEx_MultiBufferStart_IT:DataLength <- [DW_OP_plus_uconst 16] [$sp+0]
	@DEBUG_VALUE: HAL_DMAEx_MultiBufferStart_IT:DstAddress <- [DW_OP_LLVM_entry_value 1] $r2
	@DEBUG_VALUE: HAL_DMAEx_MultiBufferStart_IT:SecondMemAddress <- [DW_OP_LLVM_entry_value 1] $r3
	@DEBUG_VALUE: HAL_DMAEx_MultiBufferStart_IT:SrcAddress <- [DW_OP_LLVM_entry_value 1] $r1
	@DEBUG_VALUE: HAL_DMAEx_MultiBufferStart_IT:status <- 0
	.loc	6 0 5                           @ ../Library/STM32F4xx_HAL_Driver/Src/stm32f4xx_hal_dma_ex.c:0:5
	movs	r1, #32
	.loc	6 197 5                         @ ../Library/STM32F4xx_HAL_Driver/Src/stm32f4xx_hal_dma_ex.c:197:5
	str.w	r1, [lr]
	movs	r1, #16
	.loc	6 198 5 is_stmt 1               @ ../Library/STM32F4xx_HAL_Driver/Src/stm32f4xx_hal_dma_ex.c:198:5
	str.w	r1, [lr]
	movs	r1, #8
	.loc	6 199 5                         @ ../Library/STM32F4xx_HAL_Driver/Src/stm32f4xx_hal_dma_ex.c:199:5
	str.w	r1, [lr]
	movs	r1, #4
	.loc	6 200 5                         @ ../Library/STM32F4xx_HAL_Driver/Src/stm32f4xx_hal_dma_ex.c:200:5
	str.w	r1, [lr]
	movs	r1, #1
	b	.LBB1_25
.Ltmp48:
.LBB1_11:
	@DEBUG_VALUE: HAL_DMAEx_MultiBufferStart_IT:SecondMemAddress <- $r3
	@DEBUG_VALUE: HAL_DMAEx_MultiBufferStart_IT:DstAddress <- $r2
	@DEBUG_VALUE: HAL_DMAEx_MultiBufferStart_IT:SrcAddress <- $r1
	@DEBUG_VALUE: HAL_DMAEx_MultiBufferStart_IT:hdma <- $r0
	@DEBUG_VALUE: HAL_DMAEx_MultiBufferStart_IT:DataLength <- [DW_OP_plus_uconst 16] [$sp+0]
	@DEBUG_VALUE: HAL_DMAEx_MultiBufferStart_IT:status <- 0
	.loc	6 0 5 is_stmt 0                 @ ../Library/STM32F4xx_HAL_Driver/Src/stm32f4xx_hal_dma_ex.c:0:5
	movs	r1, #64
.Ltmp49:
	@DEBUG_VALUE: HAL_DMAEx_MultiBufferStart_IT:SrcAddress <- [DW_OP_LLVM_entry_value 1] $r1
.LBB1_12:
	@DEBUG_VALUE: HAL_DMAEx_MultiBufferStart_IT:SecondMemAddress <- $r3
	@DEBUG_VALUE: HAL_DMAEx_MultiBufferStart_IT:DstAddress <- $r2
	@DEBUG_VALUE: HAL_DMAEx_MultiBufferStart_IT:hdma <- $r0
	@DEBUG_VALUE: HAL_DMAEx_MultiBufferStart_IT:DataLength <- [DW_OP_plus_uconst 16] [$sp+0]
	@DEBUG_VALUE: HAL_DMAEx_MultiBufferStart_IT:SrcAddress <- [DW_OP_LLVM_entry_value 1] $r1
	@DEBUG_VALUE: HAL_DMAEx_MultiBufferStart_IT:status <- 0
	str	r1, [r0, #84]
	movs	r0, #1
.Ltmp50:
	@DEBUG_VALUE: HAL_DMAEx_MultiBufferStart_IT:hdma <- [DW_OP_LLVM_entry_value 1] $r0
	.loc	6 224 1 is_stmt 1               @ ../Library/STM32F4xx_HAL_Driver/Src/stm32f4xx_hal_dma_ex.c:224:1
	pop	{r4, r5, r6, pc}
.Ltmp51:
.LBB1_13:
	@DEBUG_VALUE: HAL_DMAEx_MultiBufferStart_IT:SecondMemAddress <- $r3
	@DEBUG_VALUE: HAL_DMAEx_MultiBufferStart_IT:DstAddress <- $r2
	@DEBUG_VALUE: HAL_DMAEx_MultiBufferStart_IT:SrcAddress <- $r1
	@DEBUG_VALUE: HAL_DMAEx_MultiBufferStart_IT:hdma <- $r0
	@DEBUG_VALUE: HAL_DMAEx_MultiBufferStart_IT:DataLength <- [DW_OP_plus_uconst 16] [$sp+0]
	@DEBUG_VALUE: HAL_DMAEx_MultiBufferStart_IT:status <- 0
	.loc	6 0 1 is_stmt 0                 @ ../Library/STM32F4xx_HAL_Driver/Src/stm32f4xx_hal_dma_ex.c:0:1
	movs	r1, #0
.Ltmp52:
	@DEBUG_VALUE: HAL_DMAEx_MultiBufferStart_IT:SrcAddress <- [DW_OP_LLVM_entry_value 1] $r1
	.loc	6 218 5 is_stmt 1               @ ../Library/STM32F4xx_HAL_Driver/Src/stm32f4xx_hal_dma_ex.c:218:5
	strb.w	r1, [r0, #52]
.Ltmp53:
.LBB1_14:
	@DEBUG_VALUE: HAL_DMAEx_MultiBufferStart_IT:SecondMemAddress <- $r3
	@DEBUG_VALUE: HAL_DMAEx_MultiBufferStart_IT:DstAddress <- $r2
	@DEBUG_VALUE: HAL_DMAEx_MultiBufferStart_IT:hdma <- $r0
	@DEBUG_VALUE: HAL_DMAEx_MultiBufferStart_IT:DataLength <- [DW_OP_plus_uconst 16] [$sp+0]
	@DEBUG_VALUE: HAL_DMAEx_MultiBufferStart_IT:status <- 0
	.loc	6 0 5 is_stmt 0                 @ ../Library/STM32F4xx_HAL_Driver/Src/stm32f4xx_hal_dma_ex.c:0:5
	movs	r0, #2
.Ltmp54:
	@DEBUG_VALUE: HAL_DMAEx_MultiBufferStart_IT:hdma <- [DW_OP_LLVM_entry_value 1] $r0
	@DEBUG_VALUE: HAL_DMAEx_MultiBufferStart_IT:status <- 2
	.loc	6 224 1 is_stmt 1               @ ../Library/STM32F4xx_HAL_Driver/Src/stm32f4xx_hal_dma_ex.c:224:1
	pop	{r4, r5, r6, pc}
.Ltmp55:
.LBB1_15:
	@DEBUG_VALUE: HAL_DMAEx_MultiBufferStart_IT:hdma <- $r0
	@DEBUG_VALUE: HAL_DMAEx_MultiBufferStart_IT:DataLength <- [DW_OP_plus_uconst 16] [$sp+0]
	@DEBUG_VALUE: HAL_DMAEx_MultiBufferStart_IT:DstAddress <- [DW_OP_LLVM_entry_value 1] $r2
	@DEBUG_VALUE: HAL_DMAEx_MultiBufferStart_IT:SecondMemAddress <- [DW_OP_LLVM_entry_value 1] $r3
	@DEBUG_VALUE: HAL_DMAEx_MultiBufferStart_IT:SrcAddress <- [DW_OP_LLVM_entry_value 1] $r1
	@DEBUG_VALUE: HAL_DMAEx_MultiBufferStart_IT:status <- 0
	.loc	6 0 1 is_stmt 0                 @ ../Library/STM32F4xx_HAL_Driver/Src/stm32f4xx_hal_dma_ex.c:0:1
	movw	r1, #24584
	movt	r1, #16386
.Ltmp56:
	.loc	6 197 5 is_stmt 1               @ ../Library/STM32F4xx_HAL_Driver/Src/stm32f4xx_hal_dma_ex.c:197:5
	add.w	r2, r1, #176
	cmp	r12, r2
	bls	.LBB1_19
.Ltmp57:
@ %bb.16:
	@DEBUG_VALUE: HAL_DMAEx_MultiBufferStart_IT:hdma <- $r0
	@DEBUG_VALUE: HAL_DMAEx_MultiBufferStart_IT:DataLength <- [DW_OP_plus_uconst 16] [$sp+0]
	@DEBUG_VALUE: HAL_DMAEx_MultiBufferStart_IT:DstAddress <- [DW_OP_LLVM_entry_value 1] $r2
	@DEBUG_VALUE: HAL_DMAEx_MultiBufferStart_IT:SecondMemAddress <- [DW_OP_LLVM_entry_value 1] $r3
	@DEBUG_VALUE: HAL_DMAEx_MultiBufferStart_IT:SrcAddress <- [DW_OP_LLVM_entry_value 1] $r1
	@DEBUG_VALUE: HAL_DMAEx_MultiBufferStart_IT:status <- 0
	.loc	6 0 5 is_stmt 0                 @ ../Library/STM32F4xx_HAL_Driver/Src/stm32f4xx_hal_dma_ex.c:0:5
	movw	r3, #25616
	movt	r3, #16386
	movw	r2, #25640
	.loc	6 197 5                         @ ../Library/STM32F4xx_HAL_Driver/Src/stm32f4xx_hal_dma_ex.c:197:5
	cmp	r12, r3
	movt	r2, #16386
	beq	.LBB1_30
.Ltmp58:
@ %bb.17:
	@DEBUG_VALUE: HAL_DMAEx_MultiBufferStart_IT:hdma <- $r0
	@DEBUG_VALUE: HAL_DMAEx_MultiBufferStart_IT:DataLength <- [DW_OP_plus_uconst 16] [$sp+0]
	@DEBUG_VALUE: HAL_DMAEx_MultiBufferStart_IT:DstAddress <- [DW_OP_LLVM_entry_value 1] $r2
	@DEBUG_VALUE: HAL_DMAEx_MultiBufferStart_IT:SecondMemAddress <- [DW_OP_LLVM_entry_value 1] $r3
	@DEBUG_VALUE: HAL_DMAEx_MultiBufferStart_IT:SrcAddress <- [DW_OP_LLVM_entry_value 1] $r1
	@DEBUG_VALUE: HAL_DMAEx_MultiBufferStart_IT:status <- 0
	cmp	r12, r2
	beq	.LBB1_29
.Ltmp59:
@ %bb.18:
	@DEBUG_VALUE: HAL_DMAEx_MultiBufferStart_IT:hdma <- $r0
	@DEBUG_VALUE: HAL_DMAEx_MultiBufferStart_IT:DataLength <- [DW_OP_plus_uconst 16] [$sp+0]
	@DEBUG_VALUE: HAL_DMAEx_MultiBufferStart_IT:DstAddress <- [DW_OP_LLVM_entry_value 1] $r2
	@DEBUG_VALUE: HAL_DMAEx_MultiBufferStart_IT:SecondMemAddress <- [DW_OP_LLVM_entry_value 1] $r3
	@DEBUG_VALUE: HAL_DMAEx_MultiBufferStart_IT:SrcAddress <- [DW_OP_LLVM_entry_value 1] $r1
	@DEBUG_VALUE: HAL_DMAEx_MultiBufferStart_IT:status <- 0
	.loc	6 0 5                           @ ../Library/STM32F4xx_HAL_Driver/Src/stm32f4xx_hal_dma_ex.c:0:5
	movw	r6, #25664
	movt	r6, #16386
	.loc	6 197 5                         @ ../Library/STM32F4xx_HAL_Driver/Src/stm32f4xx_hal_dma_ex.c:197:5
	cmp	r12, r6
	ite	eq
	moveq.w	r4, #2097152
	movne.w	r4, #134217728
	b	.LBB1_31
.Ltmp60:
.LBB1_19:
	@DEBUG_VALUE: HAL_DMAEx_MultiBufferStart_IT:hdma <- $r0
	@DEBUG_VALUE: HAL_DMAEx_MultiBufferStart_IT:DataLength <- [DW_OP_plus_uconst 16] [$sp+0]
	@DEBUG_VALUE: HAL_DMAEx_MultiBufferStart_IT:DstAddress <- [DW_OP_LLVM_entry_value 1] $r2
	@DEBUG_VALUE: HAL_DMAEx_MultiBufferStart_IT:SecondMemAddress <- [DW_OP_LLVM_entry_value 1] $r3
	@DEBUG_VALUE: HAL_DMAEx_MultiBufferStart_IT:SrcAddress <- [DW_OP_LLVM_entry_value 1] $r1
	@DEBUG_VALUE: HAL_DMAEx_MultiBufferStart_IT:status <- 0
	add.w	r2, r1, #80
	movw	lr, #24592
	movw	r3, #24688
	cmp	r12, r2
	movt	lr, #16386
	movt	r3, #16386
	bls	.LBB1_26
.Ltmp61:
@ %bb.20:
	@DEBUG_VALUE: HAL_DMAEx_MultiBufferStart_IT:hdma <- $r0
	@DEBUG_VALUE: HAL_DMAEx_MultiBufferStart_IT:DataLength <- [DW_OP_plus_uconst 16] [$sp+0]
	@DEBUG_VALUE: HAL_DMAEx_MultiBufferStart_IT:DstAddress <- [DW_OP_LLVM_entry_value 1] $r2
	@DEBUG_VALUE: HAL_DMAEx_MultiBufferStart_IT:SecondMemAddress <- [DW_OP_LLVM_entry_value 1] $r3
	@DEBUG_VALUE: HAL_DMAEx_MultiBufferStart_IT:SrcAddress <- [DW_OP_LLVM_entry_value 1] $r1
	@DEBUG_VALUE: HAL_DMAEx_MultiBufferStart_IT:status <- 0
	cmp	r12, r3
	beq.w	.LBB1_52
.Ltmp62:
@ %bb.21:
	@DEBUG_VALUE: HAL_DMAEx_MultiBufferStart_IT:hdma <- $r0
	@DEBUG_VALUE: HAL_DMAEx_MultiBufferStart_IT:DataLength <- [DW_OP_plus_uconst 16] [$sp+0]
	@DEBUG_VALUE: HAL_DMAEx_MultiBufferStart_IT:DstAddress <- [DW_OP_LLVM_entry_value 1] $r2
	@DEBUG_VALUE: HAL_DMAEx_MultiBufferStart_IT:SecondMemAddress <- [DW_OP_LLVM_entry_value 1] $r3
	@DEBUG_VALUE: HAL_DMAEx_MultiBufferStart_IT:SrcAddress <- [DW_OP_LLVM_entry_value 1] $r1
	@DEBUG_VALUE: HAL_DMAEx_MultiBufferStart_IT:status <- 0
	.loc	6 0 5                           @ ../Library/STM32F4xx_HAL_Driver/Src/stm32f4xx_hal_dma_ex.c:0:5
	movw	r4, #24712
	movt	r4, #16386
	.loc	6 197 5                         @ ../Library/STM32F4xx_HAL_Driver/Src/stm32f4xx_hal_dma_ex.c:197:5
	cmp	r12, r4
	beq.w	.LBB1_53
.Ltmp63:
@ %bb.22:
	@DEBUG_VALUE: HAL_DMAEx_MultiBufferStart_IT:hdma <- $r0
	@DEBUG_VALUE: HAL_DMAEx_MultiBufferStart_IT:DataLength <- [DW_OP_plus_uconst 16] [$sp+0]
	@DEBUG_VALUE: HAL_DMAEx_MultiBufferStart_IT:DstAddress <- [DW_OP_LLVM_entry_value 1] $r2
	@DEBUG_VALUE: HAL_DMAEx_MultiBufferStart_IT:SecondMemAddress <- [DW_OP_LLVM_entry_value 1] $r3
	@DEBUG_VALUE: HAL_DMAEx_MultiBufferStart_IT:SrcAddress <- [DW_OP_LLVM_entry_value 1] $r1
	@DEBUG_VALUE: HAL_DMAEx_MultiBufferStart_IT:status <- 0
	.loc	6 0 5                           @ ../Library/STM32F4xx_HAL_Driver/Src/stm32f4xx_hal_dma_ex.c:0:5
	movw	r4, #24736
	movt	r4, #16386
	.loc	6 197 5                         @ ../Library/STM32F4xx_HAL_Driver/Src/stm32f4xx_hal_dma_ex.c:197:5
	cmp	r12, r4
	ite	eq
	moveq.w	r4, #2097152
	movne.w	r4, #134217728
	b	.LBB1_54
.Ltmp64:
.LBB1_23:
	@DEBUG_VALUE: HAL_DMAEx_MultiBufferStart_IT:hdma <- $r0
	@DEBUG_VALUE: HAL_DMAEx_MultiBufferStart_IT:DataLength <- [DW_OP_plus_uconst 16] [$sp+0]
	@DEBUG_VALUE: HAL_DMAEx_MultiBufferStart_IT:DstAddress <- [DW_OP_LLVM_entry_value 1] $r2
	@DEBUG_VALUE: HAL_DMAEx_MultiBufferStart_IT:SecondMemAddress <- [DW_OP_LLVM_entry_value 1] $r3
	@DEBUG_VALUE: HAL_DMAEx_MultiBufferStart_IT:SrcAddress <- [DW_OP_LLVM_entry_value 1] $r1
	@DEBUG_VALUE: HAL_DMAEx_MultiBufferStart_IT:status <- 0
	.loc	6 0 5                           @ ../Library/STM32F4xx_HAL_Driver/Src/stm32f4xx_hal_dma_ex.c:0:5
	mov.w	r1, #2048
	.loc	6 197 5                         @ ../Library/STM32F4xx_HAL_Driver/Src/stm32f4xx_hal_dma_ex.c:197:5
	str.w	r1, [lr]
	mov.w	r1, #1024
	.loc	6 198 5 is_stmt 1               @ ../Library/STM32F4xx_HAL_Driver/Src/stm32f4xx_hal_dma_ex.c:198:5
	str.w	r1, [lr]
	mov.w	r1, #512
	.loc	6 199 5                         @ ../Library/STM32F4xx_HAL_Driver/Src/stm32f4xx_hal_dma_ex.c:199:5
	str.w	r1, [lr]
	mov.w	r1, #256
	.loc	6 200 5                         @ ../Library/STM32F4xx_HAL_Driver/Src/stm32f4xx_hal_dma_ex.c:200:5
	str.w	r1, [lr]
	movs	r1, #64
	b	.LBB1_25
.Ltmp65:
.LBB1_24:
	@DEBUG_VALUE: HAL_DMAEx_MultiBufferStart_IT:hdma <- $r0
	@DEBUG_VALUE: HAL_DMAEx_MultiBufferStart_IT:DataLength <- [DW_OP_plus_uconst 16] [$sp+0]
	@DEBUG_VALUE: HAL_DMAEx_MultiBufferStart_IT:DstAddress <- [DW_OP_LLVM_entry_value 1] $r2
	@DEBUG_VALUE: HAL_DMAEx_MultiBufferStart_IT:SecondMemAddress <- [DW_OP_LLVM_entry_value 1] $r3
	@DEBUG_VALUE: HAL_DMAEx_MultiBufferStart_IT:SrcAddress <- [DW_OP_LLVM_entry_value 1] $r1
	@DEBUG_VALUE: HAL_DMAEx_MultiBufferStart_IT:status <- 0
	.loc	6 197 5                         @ ../Library/STM32F4xx_HAL_Driver/Src/stm32f4xx_hal_dma_ex.c:197:5
	add.w	r2, lr, #148
	mov.w	r1, #134217728
	cmp	r12, r2
	it	eq
	moveq.w	r1, #2097152
	str.w	r1, [lr]
	mov.w	r1, #67108864
	.loc	6 198 5                         @ ../Library/STM32F4xx_HAL_Driver/Src/stm32f4xx_hal_dma_ex.c:198:5
	it	eq
	moveq.w	r1, #1048576
	str.w	r1, [lr]
	mov.w	r1, #33554432
	.loc	6 199 5                         @ ../Library/STM32F4xx_HAL_Driver/Src/stm32f4xx_hal_dma_ex.c:199:5
	cmp	r12, r2
	it	eq
	moveq.w	r1, #524288
	str.w	r1, [lr]
	mov.w	r1, #16777216
	.loc	6 200 5                         @ ../Library/STM32F4xx_HAL_Driver/Src/stm32f4xx_hal_dma_ex.c:200:5
	it	eq
	moveq.w	r1, #262144
	str.w	r1, [lr]
	mov.w	r1, #4194304
	.loc	6 201 5                         @ ../Library/STM32F4xx_HAL_Driver/Src/stm32f4xx_hal_dma_ex.c:201:5
	cmp	r12, r2
	it	eq
	moveq.w	r1, #65536
.Ltmp66:
.LBB1_25:
	@DEBUG_VALUE: HAL_DMAEx_MultiBufferStart_IT:hdma <- $r0
	@DEBUG_VALUE: HAL_DMAEx_MultiBufferStart_IT:DataLength <- [DW_OP_plus_uconst 16] [$sp+0]
	@DEBUG_VALUE: HAL_DMAEx_MultiBufferStart_IT:DstAddress <- [DW_OP_LLVM_entry_value 1] $r2
	@DEBUG_VALUE: HAL_DMAEx_MultiBufferStart_IT:SecondMemAddress <- [DW_OP_LLVM_entry_value 1] $r3
	@DEBUG_VALUE: HAL_DMAEx_MultiBufferStart_IT:SrcAddress <- [DW_OP_LLVM_entry_value 1] $r1
	@DEBUG_VALUE: HAL_DMAEx_MultiBufferStart_IT:status <- 0
	str.w	r1, [lr]
	b	.LBB1_110
.Ltmp67:
.LBB1_26:
	@DEBUG_VALUE: HAL_DMAEx_MultiBufferStart_IT:hdma <- $r0
	@DEBUG_VALUE: HAL_DMAEx_MultiBufferStart_IT:DataLength <- [DW_OP_plus_uconst 16] [$sp+0]
	@DEBUG_VALUE: HAL_DMAEx_MultiBufferStart_IT:DstAddress <- [DW_OP_LLVM_entry_value 1] $r2
	@DEBUG_VALUE: HAL_DMAEx_MultiBufferStart_IT:SecondMemAddress <- [DW_OP_LLVM_entry_value 1] $r3
	@DEBUG_VALUE: HAL_DMAEx_MultiBufferStart_IT:SrcAddress <- [DW_OP_LLVM_entry_value 1] $r1
	@DEBUG_VALUE: HAL_DMAEx_MultiBufferStart_IT:status <- 0
	.loc	6 197 5                         @ ../Library/STM32F4xx_HAL_Driver/Src/stm32f4xx_hal_dma_ex.c:197:5
	cmp	r12, lr
	beq	.LBB1_55
.Ltmp68:
@ %bb.27:
	@DEBUG_VALUE: HAL_DMAEx_MultiBufferStart_IT:hdma <- $r0
	@DEBUG_VALUE: HAL_DMAEx_MultiBufferStart_IT:DataLength <- [DW_OP_plus_uconst 16] [$sp+0]
	@DEBUG_VALUE: HAL_DMAEx_MultiBufferStart_IT:DstAddress <- [DW_OP_LLVM_entry_value 1] $r2
	@DEBUG_VALUE: HAL_DMAEx_MultiBufferStart_IT:SecondMemAddress <- [DW_OP_LLVM_entry_value 1] $r3
	@DEBUG_VALUE: HAL_DMAEx_MultiBufferStart_IT:SrcAddress <- [DW_OP_LLVM_entry_value 1] $r1
	@DEBUG_VALUE: HAL_DMAEx_MultiBufferStart_IT:status <- 0
	.loc	6 0 5 is_stmt 0                 @ ../Library/STM32F4xx_HAL_Driver/Src/stm32f4xx_hal_dma_ex.c:0:5
	movw	r4, #24616
	movt	r4, #16386
	.loc	6 197 5                         @ ../Library/STM32F4xx_HAL_Driver/Src/stm32f4xx_hal_dma_ex.c:197:5
	cmp	r12, r4
	beq	.LBB1_56
.Ltmp69:
@ %bb.28:
	@DEBUG_VALUE: HAL_DMAEx_MultiBufferStart_IT:hdma <- $r0
	@DEBUG_VALUE: HAL_DMAEx_MultiBufferStart_IT:DataLength <- [DW_OP_plus_uconst 16] [$sp+0]
	@DEBUG_VALUE: HAL_DMAEx_MultiBufferStart_IT:DstAddress <- [DW_OP_LLVM_entry_value 1] $r2
	@DEBUG_VALUE: HAL_DMAEx_MultiBufferStart_IT:SecondMemAddress <- [DW_OP_LLVM_entry_value 1] $r3
	@DEBUG_VALUE: HAL_DMAEx_MultiBufferStart_IT:SrcAddress <- [DW_OP_LLVM_entry_value 1] $r1
	@DEBUG_VALUE: HAL_DMAEx_MultiBufferStart_IT:status <- 0
	.loc	6 0 5                           @ ../Library/STM32F4xx_HAL_Driver/Src/stm32f4xx_hal_dma_ex.c:0:5
	movw	r4, #24640
	movt	r4, #16386
	.loc	6 197 5                         @ ../Library/STM32F4xx_HAL_Driver/Src/stm32f4xx_hal_dma_ex.c:197:5
	cmp	r12, r4
	ite	eq
	moveq.w	r4, #2097152
	movne.w	r4, #134217728
	b	.LBB1_57
.Ltmp70:
.LBB1_29:
	@DEBUG_VALUE: HAL_DMAEx_MultiBufferStart_IT:hdma <- $r0
	@DEBUG_VALUE: HAL_DMAEx_MultiBufferStart_IT:DataLength <- [DW_OP_plus_uconst 16] [$sp+0]
	@DEBUG_VALUE: HAL_DMAEx_MultiBufferStart_IT:DstAddress <- [DW_OP_LLVM_entry_value 1] $r2
	@DEBUG_VALUE: HAL_DMAEx_MultiBufferStart_IT:SecondMemAddress <- [DW_OP_LLVM_entry_value 1] $r3
	@DEBUG_VALUE: HAL_DMAEx_MultiBufferStart_IT:SrcAddress <- [DW_OP_LLVM_entry_value 1] $r1
	@DEBUG_VALUE: HAL_DMAEx_MultiBufferStart_IT:status <- 0
	.loc	6 0 5                           @ ../Library/STM32F4xx_HAL_Driver/Src/stm32f4xx_hal_dma_ex.c:0:5
	mov.w	r4, #2048
	b	.LBB1_31
.Ltmp71:
.LBB1_30:
	@DEBUG_VALUE: HAL_DMAEx_MultiBufferStart_IT:hdma <- $r0
	@DEBUG_VALUE: HAL_DMAEx_MultiBufferStart_IT:DataLength <- [DW_OP_plus_uconst 16] [$sp+0]
	@DEBUG_VALUE: HAL_DMAEx_MultiBufferStart_IT:DstAddress <- [DW_OP_LLVM_entry_value 1] $r2
	@DEBUG_VALUE: HAL_DMAEx_MultiBufferStart_IT:SecondMemAddress <- [DW_OP_LLVM_entry_value 1] $r3
	@DEBUG_VALUE: HAL_DMAEx_MultiBufferStart_IT:SrcAddress <- [DW_OP_LLVM_entry_value 1] $r1
	@DEBUG_VALUE: HAL_DMAEx_MultiBufferStart_IT:status <- 0
	movs	r4, #32
.Ltmp72:
.LBB1_31:
	@DEBUG_VALUE: HAL_DMAEx_MultiBufferStart_IT:hdma <- $r0
	@DEBUG_VALUE: HAL_DMAEx_MultiBufferStart_IT:DataLength <- [DW_OP_plus_uconst 16] [$sp+0]
	@DEBUG_VALUE: HAL_DMAEx_MultiBufferStart_IT:DstAddress <- [DW_OP_LLVM_entry_value 1] $r2
	@DEBUG_VALUE: HAL_DMAEx_MultiBufferStart_IT:SecondMemAddress <- [DW_OP_LLVM_entry_value 1] $r3
	@DEBUG_VALUE: HAL_DMAEx_MultiBufferStart_IT:SrcAddress <- [DW_OP_LLVM_entry_value 1] $r1
	@DEBUG_VALUE: HAL_DMAEx_MultiBufferStart_IT:status <- 0
	.loc	6 198 5 is_stmt 1               @ ../Library/STM32F4xx_HAL_Driver/Src/stm32f4xx_hal_dma_ex.c:198:5
	cmp	r12, r3
	.loc	6 197 5                         @ ../Library/STM32F4xx_HAL_Driver/Src/stm32f4xx_hal_dma_ex.c:197:5
	str.w	r4, [r1, #1024]
	.loc	6 198 5                         @ ../Library/STM32F4xx_HAL_Driver/Src/stm32f4xx_hal_dma_ex.c:198:5
	beq	.LBB1_35
.Ltmp73:
@ %bb.32:
	@DEBUG_VALUE: HAL_DMAEx_MultiBufferStart_IT:hdma <- $r0
	@DEBUG_VALUE: HAL_DMAEx_MultiBufferStart_IT:DataLength <- [DW_OP_plus_uconst 16] [$sp+0]
	@DEBUG_VALUE: HAL_DMAEx_MultiBufferStart_IT:DstAddress <- [DW_OP_LLVM_entry_value 1] $r2
	@DEBUG_VALUE: HAL_DMAEx_MultiBufferStart_IT:SecondMemAddress <- [DW_OP_LLVM_entry_value 1] $r3
	@DEBUG_VALUE: HAL_DMAEx_MultiBufferStart_IT:SrcAddress <- [DW_OP_LLVM_entry_value 1] $r1
	@DEBUG_VALUE: HAL_DMAEx_MultiBufferStart_IT:status <- 0
	cmp	r12, r2
	beq	.LBB1_34
.Ltmp74:
@ %bb.33:
	@DEBUG_VALUE: HAL_DMAEx_MultiBufferStart_IT:hdma <- $r0
	@DEBUG_VALUE: HAL_DMAEx_MultiBufferStart_IT:DataLength <- [DW_OP_plus_uconst 16] [$sp+0]
	@DEBUG_VALUE: HAL_DMAEx_MultiBufferStart_IT:DstAddress <- [DW_OP_LLVM_entry_value 1] $r2
	@DEBUG_VALUE: HAL_DMAEx_MultiBufferStart_IT:SecondMemAddress <- [DW_OP_LLVM_entry_value 1] $r3
	@DEBUG_VALUE: HAL_DMAEx_MultiBufferStart_IT:SrcAddress <- [DW_OP_LLVM_entry_value 1] $r1
	@DEBUG_VALUE: HAL_DMAEx_MultiBufferStart_IT:status <- 0
	.loc	6 0 5 is_stmt 0                 @ ../Library/STM32F4xx_HAL_Driver/Src/stm32f4xx_hal_dma_ex.c:0:5
	movw	r6, #25664
	movt	r6, #16386
	.loc	6 198 5                         @ ../Library/STM32F4xx_HAL_Driver/Src/stm32f4xx_hal_dma_ex.c:198:5
	cmp	r12, r6
	ite	eq
	moveq.w	r4, #1048576
	movne.w	r4, #67108864
	b	.LBB1_36
.Ltmp75:
.LBB1_34:
	@DEBUG_VALUE: HAL_DMAEx_MultiBufferStart_IT:hdma <- $r0
	@DEBUG_VALUE: HAL_DMAEx_MultiBufferStart_IT:DataLength <- [DW_OP_plus_uconst 16] [$sp+0]
	@DEBUG_VALUE: HAL_DMAEx_MultiBufferStart_IT:DstAddress <- [DW_OP_LLVM_entry_value 1] $r2
	@DEBUG_VALUE: HAL_DMAEx_MultiBufferStart_IT:SecondMemAddress <- [DW_OP_LLVM_entry_value 1] $r3
	@DEBUG_VALUE: HAL_DMAEx_MultiBufferStart_IT:SrcAddress <- [DW_OP_LLVM_entry_value 1] $r1
	@DEBUG_VALUE: HAL_DMAEx_MultiBufferStart_IT:status <- 0
	.loc	6 0 5                           @ ../Library/STM32F4xx_HAL_Driver/Src/stm32f4xx_hal_dma_ex.c:0:5
	mov.w	r4, #1024
	b	.LBB1_36
.Ltmp76:
.LBB1_35:
	@DEBUG_VALUE: HAL_DMAEx_MultiBufferStart_IT:hdma <- $r0
	@DEBUG_VALUE: HAL_DMAEx_MultiBufferStart_IT:DataLength <- [DW_OP_plus_uconst 16] [$sp+0]
	@DEBUG_VALUE: HAL_DMAEx_MultiBufferStart_IT:DstAddress <- [DW_OP_LLVM_entry_value 1] $r2
	@DEBUG_VALUE: HAL_DMAEx_MultiBufferStart_IT:SecondMemAddress <- [DW_OP_LLVM_entry_value 1] $r3
	@DEBUG_VALUE: HAL_DMAEx_MultiBufferStart_IT:SrcAddress <- [DW_OP_LLVM_entry_value 1] $r1
	@DEBUG_VALUE: HAL_DMAEx_MultiBufferStart_IT:status <- 0
	movs	r4, #16
.Ltmp77:
.LBB1_36:
	@DEBUG_VALUE: HAL_DMAEx_MultiBufferStart_IT:hdma <- $r0
	@DEBUG_VALUE: HAL_DMAEx_MultiBufferStart_IT:DataLength <- [DW_OP_plus_uconst 16] [$sp+0]
	@DEBUG_VALUE: HAL_DMAEx_MultiBufferStart_IT:DstAddress <- [DW_OP_LLVM_entry_value 1] $r2
	@DEBUG_VALUE: HAL_DMAEx_MultiBufferStart_IT:SecondMemAddress <- [DW_OP_LLVM_entry_value 1] $r3
	@DEBUG_VALUE: HAL_DMAEx_MultiBufferStart_IT:SrcAddress <- [DW_OP_LLVM_entry_value 1] $r1
	@DEBUG_VALUE: HAL_DMAEx_MultiBufferStart_IT:status <- 0
	.loc	6 199 5 is_stmt 1               @ ../Library/STM32F4xx_HAL_Driver/Src/stm32f4xx_hal_dma_ex.c:199:5
	cmp	r12, r3
	.loc	6 198 5                         @ ../Library/STM32F4xx_HAL_Driver/Src/stm32f4xx_hal_dma_ex.c:198:5
	str.w	r4, [r1, #1024]
	.loc	6 199 5                         @ ../Library/STM32F4xx_HAL_Driver/Src/stm32f4xx_hal_dma_ex.c:199:5
	beq	.LBB1_40
.Ltmp78:
@ %bb.37:
	@DEBUG_VALUE: HAL_DMAEx_MultiBufferStart_IT:hdma <- $r0
	@DEBUG_VALUE: HAL_DMAEx_MultiBufferStart_IT:DataLength <- [DW_OP_plus_uconst 16] [$sp+0]
	@DEBUG_VALUE: HAL_DMAEx_MultiBufferStart_IT:DstAddress <- [DW_OP_LLVM_entry_value 1] $r2
	@DEBUG_VALUE: HAL_DMAEx_MultiBufferStart_IT:SecondMemAddress <- [DW_OP_LLVM_entry_value 1] $r3
	@DEBUG_VALUE: HAL_DMAEx_MultiBufferStart_IT:SrcAddress <- [DW_OP_LLVM_entry_value 1] $r1
	@DEBUG_VALUE: HAL_DMAEx_MultiBufferStart_IT:status <- 0
	cmp	r12, r2
	beq	.LBB1_39
.Ltmp79:
@ %bb.38:
	@DEBUG_VALUE: HAL_DMAEx_MultiBufferStart_IT:hdma <- $r0
	@DEBUG_VALUE: HAL_DMAEx_MultiBufferStart_IT:DataLength <- [DW_OP_plus_uconst 16] [$sp+0]
	@DEBUG_VALUE: HAL_DMAEx_MultiBufferStart_IT:DstAddress <- [DW_OP_LLVM_entry_value 1] $r2
	@DEBUG_VALUE: HAL_DMAEx_MultiBufferStart_IT:SecondMemAddress <- [DW_OP_LLVM_entry_value 1] $r3
	@DEBUG_VALUE: HAL_DMAEx_MultiBufferStart_IT:SrcAddress <- [DW_OP_LLVM_entry_value 1] $r1
	@DEBUG_VALUE: HAL_DMAEx_MultiBufferStart_IT:status <- 0
	.loc	6 0 5 is_stmt 0                 @ ../Library/STM32F4xx_HAL_Driver/Src/stm32f4xx_hal_dma_ex.c:0:5
	movw	r6, #25664
	movt	r6, #16386
	.loc	6 199 5                         @ ../Library/STM32F4xx_HAL_Driver/Src/stm32f4xx_hal_dma_ex.c:199:5
	cmp	r12, r6
	ite	eq
	moveq.w	r4, #524288
	movne.w	r4, #33554432
	b	.LBB1_41
.Ltmp80:
.LBB1_39:
	@DEBUG_VALUE: HAL_DMAEx_MultiBufferStart_IT:hdma <- $r0
	@DEBUG_VALUE: HAL_DMAEx_MultiBufferStart_IT:DataLength <- [DW_OP_plus_uconst 16] [$sp+0]
	@DEBUG_VALUE: HAL_DMAEx_MultiBufferStart_IT:DstAddress <- [DW_OP_LLVM_entry_value 1] $r2
	@DEBUG_VALUE: HAL_DMAEx_MultiBufferStart_IT:SecondMemAddress <- [DW_OP_LLVM_entry_value 1] $r3
	@DEBUG_VALUE: HAL_DMAEx_MultiBufferStart_IT:SrcAddress <- [DW_OP_LLVM_entry_value 1] $r1
	@DEBUG_VALUE: HAL_DMAEx_MultiBufferStart_IT:status <- 0
	.loc	6 0 5                           @ ../Library/STM32F4xx_HAL_Driver/Src/stm32f4xx_hal_dma_ex.c:0:5
	mov.w	r4, #512
	b	.LBB1_41
.Ltmp81:
.LBB1_40:
	@DEBUG_VALUE: HAL_DMAEx_MultiBufferStart_IT:hdma <- $r0
	@DEBUG_VALUE: HAL_DMAEx_MultiBufferStart_IT:DataLength <- [DW_OP_plus_uconst 16] [$sp+0]
	@DEBUG_VALUE: HAL_DMAEx_MultiBufferStart_IT:DstAddress <- [DW_OP_LLVM_entry_value 1] $r2
	@DEBUG_VALUE: HAL_DMAEx_MultiBufferStart_IT:SecondMemAddress <- [DW_OP_LLVM_entry_value 1] $r3
	@DEBUG_VALUE: HAL_DMAEx_MultiBufferStart_IT:SrcAddress <- [DW_OP_LLVM_entry_value 1] $r1
	@DEBUG_VALUE: HAL_DMAEx_MultiBufferStart_IT:status <- 0
	movs	r4, #8
.Ltmp82:
.LBB1_41:
	@DEBUG_VALUE: HAL_DMAEx_MultiBufferStart_IT:hdma <- $r0
	@DEBUG_VALUE: HAL_DMAEx_MultiBufferStart_IT:DataLength <- [DW_OP_plus_uconst 16] [$sp+0]
	@DEBUG_VALUE: HAL_DMAEx_MultiBufferStart_IT:DstAddress <- [DW_OP_LLVM_entry_value 1] $r2
	@DEBUG_VALUE: HAL_DMAEx_MultiBufferStart_IT:SecondMemAddress <- [DW_OP_LLVM_entry_value 1] $r3
	@DEBUG_VALUE: HAL_DMAEx_MultiBufferStart_IT:SrcAddress <- [DW_OP_LLVM_entry_value 1] $r1
	@DEBUG_VALUE: HAL_DMAEx_MultiBufferStart_IT:status <- 0
	.loc	6 200 5 is_stmt 1               @ ../Library/STM32F4xx_HAL_Driver/Src/stm32f4xx_hal_dma_ex.c:200:5
	cmp	r12, r3
	.loc	6 199 5                         @ ../Library/STM32F4xx_HAL_Driver/Src/stm32f4xx_hal_dma_ex.c:199:5
	str.w	r4, [r1, #1024]
	.loc	6 200 5                         @ ../Library/STM32F4xx_HAL_Driver/Src/stm32f4xx_hal_dma_ex.c:200:5
	beq	.LBB1_45
.Ltmp83:
@ %bb.42:
	@DEBUG_VALUE: HAL_DMAEx_MultiBufferStart_IT:hdma <- $r0
	@DEBUG_VALUE: HAL_DMAEx_MultiBufferStart_IT:DataLength <- [DW_OP_plus_uconst 16] [$sp+0]
	@DEBUG_VALUE: HAL_DMAEx_MultiBufferStart_IT:DstAddress <- [DW_OP_LLVM_entry_value 1] $r2
	@DEBUG_VALUE: HAL_DMAEx_MultiBufferStart_IT:SecondMemAddress <- [DW_OP_LLVM_entry_value 1] $r3
	@DEBUG_VALUE: HAL_DMAEx_MultiBufferStart_IT:SrcAddress <- [DW_OP_LLVM_entry_value 1] $r1
	@DEBUG_VALUE: HAL_DMAEx_MultiBufferStart_IT:status <- 0
	cmp	r12, r2
	beq	.LBB1_44
.Ltmp84:
@ %bb.43:
	@DEBUG_VALUE: HAL_DMAEx_MultiBufferStart_IT:hdma <- $r0
	@DEBUG_VALUE: HAL_DMAEx_MultiBufferStart_IT:DataLength <- [DW_OP_plus_uconst 16] [$sp+0]
	@DEBUG_VALUE: HAL_DMAEx_MultiBufferStart_IT:DstAddress <- [DW_OP_LLVM_entry_value 1] $r2
	@DEBUG_VALUE: HAL_DMAEx_MultiBufferStart_IT:SecondMemAddress <- [DW_OP_LLVM_entry_value 1] $r3
	@DEBUG_VALUE: HAL_DMAEx_MultiBufferStart_IT:SrcAddress <- [DW_OP_LLVM_entry_value 1] $r1
	@DEBUG_VALUE: HAL_DMAEx_MultiBufferStart_IT:status <- 0
	.loc	6 0 5 is_stmt 0                 @ ../Library/STM32F4xx_HAL_Driver/Src/stm32f4xx_hal_dma_ex.c:0:5
	movw	r6, #25664
	movt	r6, #16386
	.loc	6 200 5                         @ ../Library/STM32F4xx_HAL_Driver/Src/stm32f4xx_hal_dma_ex.c:200:5
	cmp	r12, r6
	ite	eq
	moveq.w	r4, #262144
	movne.w	r4, #16777216
	b	.LBB1_46
.Ltmp85:
.LBB1_44:
	@DEBUG_VALUE: HAL_DMAEx_MultiBufferStart_IT:hdma <- $r0
	@DEBUG_VALUE: HAL_DMAEx_MultiBufferStart_IT:DataLength <- [DW_OP_plus_uconst 16] [$sp+0]
	@DEBUG_VALUE: HAL_DMAEx_MultiBufferStart_IT:DstAddress <- [DW_OP_LLVM_entry_value 1] $r2
	@DEBUG_VALUE: HAL_DMAEx_MultiBufferStart_IT:SecondMemAddress <- [DW_OP_LLVM_entry_value 1] $r3
	@DEBUG_VALUE: HAL_DMAEx_MultiBufferStart_IT:SrcAddress <- [DW_OP_LLVM_entry_value 1] $r1
	@DEBUG_VALUE: HAL_DMAEx_MultiBufferStart_IT:status <- 0
	.loc	6 0 5                           @ ../Library/STM32F4xx_HAL_Driver/Src/stm32f4xx_hal_dma_ex.c:0:5
	mov.w	r4, #256
	b	.LBB1_46
.Ltmp86:
.LBB1_45:
	@DEBUG_VALUE: HAL_DMAEx_MultiBufferStart_IT:hdma <- $r0
	@DEBUG_VALUE: HAL_DMAEx_MultiBufferStart_IT:DataLength <- [DW_OP_plus_uconst 16] [$sp+0]
	@DEBUG_VALUE: HAL_DMAEx_MultiBufferStart_IT:DstAddress <- [DW_OP_LLVM_entry_value 1] $r2
	@DEBUG_VALUE: HAL_DMAEx_MultiBufferStart_IT:SecondMemAddress <- [DW_OP_LLVM_entry_value 1] $r3
	@DEBUG_VALUE: HAL_DMAEx_MultiBufferStart_IT:SrcAddress <- [DW_OP_LLVM_entry_value 1] $r1
	@DEBUG_VALUE: HAL_DMAEx_MultiBufferStart_IT:status <- 0
	movs	r4, #4
.Ltmp87:
.LBB1_46:
	@DEBUG_VALUE: HAL_DMAEx_MultiBufferStart_IT:hdma <- $r0
	@DEBUG_VALUE: HAL_DMAEx_MultiBufferStart_IT:DataLength <- [DW_OP_plus_uconst 16] [$sp+0]
	@DEBUG_VALUE: HAL_DMAEx_MultiBufferStart_IT:DstAddress <- [DW_OP_LLVM_entry_value 1] $r2
	@DEBUG_VALUE: HAL_DMAEx_MultiBufferStart_IT:SecondMemAddress <- [DW_OP_LLVM_entry_value 1] $r3
	@DEBUG_VALUE: HAL_DMAEx_MultiBufferStart_IT:SrcAddress <- [DW_OP_LLVM_entry_value 1] $r1
	@DEBUG_VALUE: HAL_DMAEx_MultiBufferStart_IT:status <- 0
	.loc	6 201 5 is_stmt 1               @ ../Library/STM32F4xx_HAL_Driver/Src/stm32f4xx_hal_dma_ex.c:201:5
	cmp	r12, r3
	.loc	6 200 5                         @ ../Library/STM32F4xx_HAL_Driver/Src/stm32f4xx_hal_dma_ex.c:200:5
	str.w	r4, [r1, #1024]
	.loc	6 201 5                         @ ../Library/STM32F4xx_HAL_Driver/Src/stm32f4xx_hal_dma_ex.c:201:5
	beq	.LBB1_50
.Ltmp88:
@ %bb.47:
	@DEBUG_VALUE: HAL_DMAEx_MultiBufferStart_IT:hdma <- $r0
	@DEBUG_VALUE: HAL_DMAEx_MultiBufferStart_IT:DataLength <- [DW_OP_plus_uconst 16] [$sp+0]
	@DEBUG_VALUE: HAL_DMAEx_MultiBufferStart_IT:DstAddress <- [DW_OP_LLVM_entry_value 1] $r2
	@DEBUG_VALUE: HAL_DMAEx_MultiBufferStart_IT:SecondMemAddress <- [DW_OP_LLVM_entry_value 1] $r3
	@DEBUG_VALUE: HAL_DMAEx_MultiBufferStart_IT:SrcAddress <- [DW_OP_LLVM_entry_value 1] $r1
	@DEBUG_VALUE: HAL_DMAEx_MultiBufferStart_IT:status <- 0
	cmp	r12, r2
	beq	.LBB1_49
.Ltmp89:
@ %bb.48:
	@DEBUG_VALUE: HAL_DMAEx_MultiBufferStart_IT:hdma <- $r0
	@DEBUG_VALUE: HAL_DMAEx_MultiBufferStart_IT:DataLength <- [DW_OP_plus_uconst 16] [$sp+0]
	@DEBUG_VALUE: HAL_DMAEx_MultiBufferStart_IT:DstAddress <- [DW_OP_LLVM_entry_value 1] $r2
	@DEBUG_VALUE: HAL_DMAEx_MultiBufferStart_IT:SecondMemAddress <- [DW_OP_LLVM_entry_value 1] $r3
	@DEBUG_VALUE: HAL_DMAEx_MultiBufferStart_IT:SrcAddress <- [DW_OP_LLVM_entry_value 1] $r1
	@DEBUG_VALUE: HAL_DMAEx_MultiBufferStart_IT:status <- 0
	.loc	6 0 5 is_stmt 0                 @ ../Library/STM32F4xx_HAL_Driver/Src/stm32f4xx_hal_dma_ex.c:0:5
	movw	r2, #25664
	movt	r2, #16386
	.loc	6 201 5                         @ ../Library/STM32F4xx_HAL_Driver/Src/stm32f4xx_hal_dma_ex.c:201:5
	cmp	r12, r2
	ite	eq
	moveq.w	r2, #65536
	movne.w	r2, #4194304
	b	.LBB1_51
.Ltmp90:
.LBB1_49:
	@DEBUG_VALUE: HAL_DMAEx_MultiBufferStart_IT:hdma <- $r0
	@DEBUG_VALUE: HAL_DMAEx_MultiBufferStart_IT:DataLength <- [DW_OP_plus_uconst 16] [$sp+0]
	@DEBUG_VALUE: HAL_DMAEx_MultiBufferStart_IT:DstAddress <- [DW_OP_LLVM_entry_value 1] $r2
	@DEBUG_VALUE: HAL_DMAEx_MultiBufferStart_IT:SecondMemAddress <- [DW_OP_LLVM_entry_value 1] $r3
	@DEBUG_VALUE: HAL_DMAEx_MultiBufferStart_IT:SrcAddress <- [DW_OP_LLVM_entry_value 1] $r1
	@DEBUG_VALUE: HAL_DMAEx_MultiBufferStart_IT:status <- 0
	.loc	6 0 5                           @ ../Library/STM32F4xx_HAL_Driver/Src/stm32f4xx_hal_dma_ex.c:0:5
	movs	r2, #64
	b	.LBB1_51
.Ltmp91:
.LBB1_50:
	@DEBUG_VALUE: HAL_DMAEx_MultiBufferStart_IT:hdma <- $r0
	@DEBUG_VALUE: HAL_DMAEx_MultiBufferStart_IT:DataLength <- [DW_OP_plus_uconst 16] [$sp+0]
	@DEBUG_VALUE: HAL_DMAEx_MultiBufferStart_IT:DstAddress <- [DW_OP_LLVM_entry_value 1] $r2
	@DEBUG_VALUE: HAL_DMAEx_MultiBufferStart_IT:SecondMemAddress <- [DW_OP_LLVM_entry_value 1] $r3
	@DEBUG_VALUE: HAL_DMAEx_MultiBufferStart_IT:SrcAddress <- [DW_OP_LLVM_entry_value 1] $r1
	@DEBUG_VALUE: HAL_DMAEx_MultiBufferStart_IT:status <- 0
	movs	r2, #1
.Ltmp92:
.LBB1_51:
	@DEBUG_VALUE: HAL_DMAEx_MultiBufferStart_IT:hdma <- $r0
	@DEBUG_VALUE: HAL_DMAEx_MultiBufferStart_IT:DataLength <- [DW_OP_plus_uconst 16] [$sp+0]
	@DEBUG_VALUE: HAL_DMAEx_MultiBufferStart_IT:DstAddress <- [DW_OP_LLVM_entry_value 1] $r2
	@DEBUG_VALUE: HAL_DMAEx_MultiBufferStart_IT:SecondMemAddress <- [DW_OP_LLVM_entry_value 1] $r3
	@DEBUG_VALUE: HAL_DMAEx_MultiBufferStart_IT:SrcAddress <- [DW_OP_LLVM_entry_value 1] $r1
	@DEBUG_VALUE: HAL_DMAEx_MultiBufferStart_IT:status <- 0
	.loc	6 201 5                         @ ../Library/STM32F4xx_HAL_Driver/Src/stm32f4xx_hal_dma_ex.c:201:5
	str.w	r2, [r1, #1024]
	b	.LBB1_110
.Ltmp93:
.LBB1_52:
	@DEBUG_VALUE: HAL_DMAEx_MultiBufferStart_IT:hdma <- $r0
	@DEBUG_VALUE: HAL_DMAEx_MultiBufferStart_IT:DataLength <- [DW_OP_plus_uconst 16] [$sp+0]
	@DEBUG_VALUE: HAL_DMAEx_MultiBufferStart_IT:DstAddress <- [DW_OP_LLVM_entry_value 1] $r2
	@DEBUG_VALUE: HAL_DMAEx_MultiBufferStart_IT:SecondMemAddress <- [DW_OP_LLVM_entry_value 1] $r3
	@DEBUG_VALUE: HAL_DMAEx_MultiBufferStart_IT:SrcAddress <- [DW_OP_LLVM_entry_value 1] $r1
	@DEBUG_VALUE: HAL_DMAEx_MultiBufferStart_IT:status <- 0
	.loc	6 0 5                           @ ../Library/STM32F4xx_HAL_Driver/Src/stm32f4xx_hal_dma_ex.c:0:5
	movs	r4, #32
	b	.LBB1_54
.Ltmp94:
.LBB1_53:
	@DEBUG_VALUE: HAL_DMAEx_MultiBufferStart_IT:hdma <- $r0
	@DEBUG_VALUE: HAL_DMAEx_MultiBufferStart_IT:DataLength <- [DW_OP_plus_uconst 16] [$sp+0]
	@DEBUG_VALUE: HAL_DMAEx_MultiBufferStart_IT:DstAddress <- [DW_OP_LLVM_entry_value 1] $r2
	@DEBUG_VALUE: HAL_DMAEx_MultiBufferStart_IT:SecondMemAddress <- [DW_OP_LLVM_entry_value 1] $r3
	@DEBUG_VALUE: HAL_DMAEx_MultiBufferStart_IT:SrcAddress <- [DW_OP_LLVM_entry_value 1] $r1
	@DEBUG_VALUE: HAL_DMAEx_MultiBufferStart_IT:status <- 0
	mov.w	r4, #2048
.Ltmp95:
.LBB1_54:
	@DEBUG_VALUE: HAL_DMAEx_MultiBufferStart_IT:hdma <- $r0
	@DEBUG_VALUE: HAL_DMAEx_MultiBufferStart_IT:DataLength <- [DW_OP_plus_uconst 16] [$sp+0]
	@DEBUG_VALUE: HAL_DMAEx_MultiBufferStart_IT:DstAddress <- [DW_OP_LLVM_entry_value 1] $r2
	@DEBUG_VALUE: HAL_DMAEx_MultiBufferStart_IT:SecondMemAddress <- [DW_OP_LLVM_entry_value 1] $r3
	@DEBUG_VALUE: HAL_DMAEx_MultiBufferStart_IT:SrcAddress <- [DW_OP_LLVM_entry_value 1] $r1
	@DEBUG_VALUE: HAL_DMAEx_MultiBufferStart_IT:status <- 0
	.loc	6 197 5 is_stmt 1               @ ../Library/STM32F4xx_HAL_Driver/Src/stm32f4xx_hal_dma_ex.c:197:5
	str	r4, [r1, #4]
	b	.LBB1_58
.Ltmp96:
.LBB1_55:
	@DEBUG_VALUE: HAL_DMAEx_MultiBufferStart_IT:hdma <- $r0
	@DEBUG_VALUE: HAL_DMAEx_MultiBufferStart_IT:DataLength <- [DW_OP_plus_uconst 16] [$sp+0]
	@DEBUG_VALUE: HAL_DMAEx_MultiBufferStart_IT:DstAddress <- [DW_OP_LLVM_entry_value 1] $r2
	@DEBUG_VALUE: HAL_DMAEx_MultiBufferStart_IT:SecondMemAddress <- [DW_OP_LLVM_entry_value 1] $r3
	@DEBUG_VALUE: HAL_DMAEx_MultiBufferStart_IT:SrcAddress <- [DW_OP_LLVM_entry_value 1] $r1
	@DEBUG_VALUE: HAL_DMAEx_MultiBufferStart_IT:status <- 0
	.loc	6 0 5 is_stmt 0                 @ ../Library/STM32F4xx_HAL_Driver/Src/stm32f4xx_hal_dma_ex.c:0:5
	movs	r4, #32
	b	.LBB1_57
.Ltmp97:
.LBB1_56:
	@DEBUG_VALUE: HAL_DMAEx_MultiBufferStart_IT:hdma <- $r0
	@DEBUG_VALUE: HAL_DMAEx_MultiBufferStart_IT:DataLength <- [DW_OP_plus_uconst 16] [$sp+0]
	@DEBUG_VALUE: HAL_DMAEx_MultiBufferStart_IT:DstAddress <- [DW_OP_LLVM_entry_value 1] $r2
	@DEBUG_VALUE: HAL_DMAEx_MultiBufferStart_IT:SecondMemAddress <- [DW_OP_LLVM_entry_value 1] $r3
	@DEBUG_VALUE: HAL_DMAEx_MultiBufferStart_IT:SrcAddress <- [DW_OP_LLVM_entry_value 1] $r1
	@DEBUG_VALUE: HAL_DMAEx_MultiBufferStart_IT:status <- 0
	mov.w	r4, #2048
.Ltmp98:
.LBB1_57:
	@DEBUG_VALUE: HAL_DMAEx_MultiBufferStart_IT:hdma <- $r0
	@DEBUG_VALUE: HAL_DMAEx_MultiBufferStart_IT:DataLength <- [DW_OP_plus_uconst 16] [$sp+0]
	@DEBUG_VALUE: HAL_DMAEx_MultiBufferStart_IT:DstAddress <- [DW_OP_LLVM_entry_value 1] $r2
	@DEBUG_VALUE: HAL_DMAEx_MultiBufferStart_IT:SecondMemAddress <- [DW_OP_LLVM_entry_value 1] $r3
	@DEBUG_VALUE: HAL_DMAEx_MultiBufferStart_IT:SrcAddress <- [DW_OP_LLVM_entry_value 1] $r1
	@DEBUG_VALUE: HAL_DMAEx_MultiBufferStart_IT:status <- 0
	.loc	6 197 5                         @ ../Library/STM32F4xx_HAL_Driver/Src/stm32f4xx_hal_dma_ex.c:197:5
	str	r4, [r1]
.Ltmp99:
.LBB1_58:
	@DEBUG_VALUE: HAL_DMAEx_MultiBufferStart_IT:hdma <- $r0
	@DEBUG_VALUE: HAL_DMAEx_MultiBufferStart_IT:DataLength <- [DW_OP_plus_uconst 16] [$sp+0]
	@DEBUG_VALUE: HAL_DMAEx_MultiBufferStart_IT:DstAddress <- [DW_OP_LLVM_entry_value 1] $r2
	@DEBUG_VALUE: HAL_DMAEx_MultiBufferStart_IT:SecondMemAddress <- [DW_OP_LLVM_entry_value 1] $r3
	@DEBUG_VALUE: HAL_DMAEx_MultiBufferStart_IT:SrcAddress <- [DW_OP_LLVM_entry_value 1] $r1
	@DEBUG_VALUE: HAL_DMAEx_MultiBufferStart_IT:status <- 0
	.loc	6 198 5 is_stmt 1               @ ../Library/STM32F4xx_HAL_Driver/Src/stm32f4xx_hal_dma_ex.c:198:5
	cmp	r12, r2
	bls	.LBB1_62
.Ltmp100:
@ %bb.59:
	@DEBUG_VALUE: HAL_DMAEx_MultiBufferStart_IT:hdma <- $r0
	@DEBUG_VALUE: HAL_DMAEx_MultiBufferStart_IT:DataLength <- [DW_OP_plus_uconst 16] [$sp+0]
	@DEBUG_VALUE: HAL_DMAEx_MultiBufferStart_IT:DstAddress <- [DW_OP_LLVM_entry_value 1] $r2
	@DEBUG_VALUE: HAL_DMAEx_MultiBufferStart_IT:SecondMemAddress <- [DW_OP_LLVM_entry_value 1] $r3
	@DEBUG_VALUE: HAL_DMAEx_MultiBufferStart_IT:SrcAddress <- [DW_OP_LLVM_entry_value 1] $r1
	@DEBUG_VALUE: HAL_DMAEx_MultiBufferStart_IT:status <- 0
	cmp	r12, r3
	beq	.LBB1_65
.Ltmp101:
@ %bb.60:
	@DEBUG_VALUE: HAL_DMAEx_MultiBufferStart_IT:hdma <- $r0
	@DEBUG_VALUE: HAL_DMAEx_MultiBufferStart_IT:DataLength <- [DW_OP_plus_uconst 16] [$sp+0]
	@DEBUG_VALUE: HAL_DMAEx_MultiBufferStart_IT:DstAddress <- [DW_OP_LLVM_entry_value 1] $r2
	@DEBUG_VALUE: HAL_DMAEx_MultiBufferStart_IT:SecondMemAddress <- [DW_OP_LLVM_entry_value 1] $r3
	@DEBUG_VALUE: HAL_DMAEx_MultiBufferStart_IT:SrcAddress <- [DW_OP_LLVM_entry_value 1] $r1
	@DEBUG_VALUE: HAL_DMAEx_MultiBufferStart_IT:status <- 0
	.loc	6 0 5 is_stmt 0                 @ ../Library/STM32F4xx_HAL_Driver/Src/stm32f4xx_hal_dma_ex.c:0:5
	movw	r4, #24712
	movt	r4, #16386
	.loc	6 198 5                         @ ../Library/STM32F4xx_HAL_Driver/Src/stm32f4xx_hal_dma_ex.c:198:5
	cmp	r12, r4
	beq	.LBB1_66
.Ltmp102:
@ %bb.61:
	@DEBUG_VALUE: HAL_DMAEx_MultiBufferStart_IT:hdma <- $r0
	@DEBUG_VALUE: HAL_DMAEx_MultiBufferStart_IT:DataLength <- [DW_OP_plus_uconst 16] [$sp+0]
	@DEBUG_VALUE: HAL_DMAEx_MultiBufferStart_IT:DstAddress <- [DW_OP_LLVM_entry_value 1] $r2
	@DEBUG_VALUE: HAL_DMAEx_MultiBufferStart_IT:SecondMemAddress <- [DW_OP_LLVM_entry_value 1] $r3
	@DEBUG_VALUE: HAL_DMAEx_MultiBufferStart_IT:SrcAddress <- [DW_OP_LLVM_entry_value 1] $r1
	@DEBUG_VALUE: HAL_DMAEx_MultiBufferStart_IT:status <- 0
	.loc	6 0 5                           @ ../Library/STM32F4xx_HAL_Driver/Src/stm32f4xx_hal_dma_ex.c:0:5
	movw	r4, #24736
	movt	r4, #16386
	.loc	6 198 5                         @ ../Library/STM32F4xx_HAL_Driver/Src/stm32f4xx_hal_dma_ex.c:198:5
	cmp	r12, r4
	ite	eq
	moveq.w	r4, #1048576
	movne.w	r4, #67108864
	b	.LBB1_67
.Ltmp103:
.LBB1_62:
	@DEBUG_VALUE: HAL_DMAEx_MultiBufferStart_IT:hdma <- $r0
	@DEBUG_VALUE: HAL_DMAEx_MultiBufferStart_IT:DataLength <- [DW_OP_plus_uconst 16] [$sp+0]
	@DEBUG_VALUE: HAL_DMAEx_MultiBufferStart_IT:DstAddress <- [DW_OP_LLVM_entry_value 1] $r2
	@DEBUG_VALUE: HAL_DMAEx_MultiBufferStart_IT:SecondMemAddress <- [DW_OP_LLVM_entry_value 1] $r3
	@DEBUG_VALUE: HAL_DMAEx_MultiBufferStart_IT:SrcAddress <- [DW_OP_LLVM_entry_value 1] $r1
	@DEBUG_VALUE: HAL_DMAEx_MultiBufferStart_IT:status <- 0
	cmp	r12, lr
	beq	.LBB1_68
.Ltmp104:
@ %bb.63:
	@DEBUG_VALUE: HAL_DMAEx_MultiBufferStart_IT:hdma <- $r0
	@DEBUG_VALUE: HAL_DMAEx_MultiBufferStart_IT:DataLength <- [DW_OP_plus_uconst 16] [$sp+0]
	@DEBUG_VALUE: HAL_DMAEx_MultiBufferStart_IT:DstAddress <- [DW_OP_LLVM_entry_value 1] $r2
	@DEBUG_VALUE: HAL_DMAEx_MultiBufferStart_IT:SecondMemAddress <- [DW_OP_LLVM_entry_value 1] $r3
	@DEBUG_VALUE: HAL_DMAEx_MultiBufferStart_IT:SrcAddress <- [DW_OP_LLVM_entry_value 1] $r1
	@DEBUG_VALUE: HAL_DMAEx_MultiBufferStart_IT:status <- 0
	.loc	6 0 5                           @ ../Library/STM32F4xx_HAL_Driver/Src/stm32f4xx_hal_dma_ex.c:0:5
	movw	r4, #24616
	movt	r4, #16386
	.loc	6 198 5                         @ ../Library/STM32F4xx_HAL_Driver/Src/stm32f4xx_hal_dma_ex.c:198:5
	cmp	r12, r4
	beq	.LBB1_69
.Ltmp105:
@ %bb.64:
	@DEBUG_VALUE: HAL_DMAEx_MultiBufferStart_IT:hdma <- $r0
	@DEBUG_VALUE: HAL_DMAEx_MultiBufferStart_IT:DataLength <- [DW_OP_plus_uconst 16] [$sp+0]
	@DEBUG_VALUE: HAL_DMAEx_MultiBufferStart_IT:DstAddress <- [DW_OP_LLVM_entry_value 1] $r2
	@DEBUG_VALUE: HAL_DMAEx_MultiBufferStart_IT:SecondMemAddress <- [DW_OP_LLVM_entry_value 1] $r3
	@DEBUG_VALUE: HAL_DMAEx_MultiBufferStart_IT:SrcAddress <- [DW_OP_LLVM_entry_value 1] $r1
	@DEBUG_VALUE: HAL_DMAEx_MultiBufferStart_IT:status <- 0
	.loc	6 0 5                           @ ../Library/STM32F4xx_HAL_Driver/Src/stm32f4xx_hal_dma_ex.c:0:5
	movw	r4, #24640
	movt	r4, #16386
	.loc	6 198 5                         @ ../Library/STM32F4xx_HAL_Driver/Src/stm32f4xx_hal_dma_ex.c:198:5
	cmp	r12, r4
	ite	eq
	moveq.w	r4, #1048576
	movne.w	r4, #67108864
	b	.LBB1_70
.Ltmp106:
.LBB1_65:
	@DEBUG_VALUE: HAL_DMAEx_MultiBufferStart_IT:hdma <- $r0
	@DEBUG_VALUE: HAL_DMAEx_MultiBufferStart_IT:DataLength <- [DW_OP_plus_uconst 16] [$sp+0]
	@DEBUG_VALUE: HAL_DMAEx_MultiBufferStart_IT:DstAddress <- [DW_OP_LLVM_entry_value 1] $r2
	@DEBUG_VALUE: HAL_DMAEx_MultiBufferStart_IT:SecondMemAddress <- [DW_OP_LLVM_entry_value 1] $r3
	@DEBUG_VALUE: HAL_DMAEx_MultiBufferStart_IT:SrcAddress <- [DW_OP_LLVM_entry_value 1] $r1
	@DEBUG_VALUE: HAL_DMAEx_MultiBufferStart_IT:status <- 0
	.loc	6 0 5                           @ ../Library/STM32F4xx_HAL_Driver/Src/stm32f4xx_hal_dma_ex.c:0:5
	movs	r4, #16
	b	.LBB1_67
.Ltmp107:
.LBB1_66:
	@DEBUG_VALUE: HAL_DMAEx_MultiBufferStart_IT:hdma <- $r0
	@DEBUG_VALUE: HAL_DMAEx_MultiBufferStart_IT:DataLength <- [DW_OP_plus_uconst 16] [$sp+0]
	@DEBUG_VALUE: HAL_DMAEx_MultiBufferStart_IT:DstAddress <- [DW_OP_LLVM_entry_value 1] $r2
	@DEBUG_VALUE: HAL_DMAEx_MultiBufferStart_IT:SecondMemAddress <- [DW_OP_LLVM_entry_value 1] $r3
	@DEBUG_VALUE: HAL_DMAEx_MultiBufferStart_IT:SrcAddress <- [DW_OP_LLVM_entry_value 1] $r1
	@DEBUG_VALUE: HAL_DMAEx_MultiBufferStart_IT:status <- 0
	mov.w	r4, #1024
.Ltmp108:
.LBB1_67:
	@DEBUG_VALUE: HAL_DMAEx_MultiBufferStart_IT:hdma <- $r0
	@DEBUG_VALUE: HAL_DMAEx_MultiBufferStart_IT:DataLength <- [DW_OP_plus_uconst 16] [$sp+0]
	@DEBUG_VALUE: HAL_DMAEx_MultiBufferStart_IT:DstAddress <- [DW_OP_LLVM_entry_value 1] $r2
	@DEBUG_VALUE: HAL_DMAEx_MultiBufferStart_IT:SecondMemAddress <- [DW_OP_LLVM_entry_value 1] $r3
	@DEBUG_VALUE: HAL_DMAEx_MultiBufferStart_IT:SrcAddress <- [DW_OP_LLVM_entry_value 1] $r1
	@DEBUG_VALUE: HAL_DMAEx_MultiBufferStart_IT:status <- 0
	.loc	6 198 5                         @ ../Library/STM32F4xx_HAL_Driver/Src/stm32f4xx_hal_dma_ex.c:198:5
	str	r4, [r1, #4]
	b	.LBB1_71
.Ltmp109:
.LBB1_68:
	@DEBUG_VALUE: HAL_DMAEx_MultiBufferStart_IT:hdma <- $r0
	@DEBUG_VALUE: HAL_DMAEx_MultiBufferStart_IT:DataLength <- [DW_OP_plus_uconst 16] [$sp+0]
	@DEBUG_VALUE: HAL_DMAEx_MultiBufferStart_IT:DstAddress <- [DW_OP_LLVM_entry_value 1] $r2
	@DEBUG_VALUE: HAL_DMAEx_MultiBufferStart_IT:SecondMemAddress <- [DW_OP_LLVM_entry_value 1] $r3
	@DEBUG_VALUE: HAL_DMAEx_MultiBufferStart_IT:SrcAddress <- [DW_OP_LLVM_entry_value 1] $r1
	@DEBUG_VALUE: HAL_DMAEx_MultiBufferStart_IT:status <- 0
	.loc	6 0 5                           @ ../Library/STM32F4xx_HAL_Driver/Src/stm32f4xx_hal_dma_ex.c:0:5
	movs	r4, #16
	b	.LBB1_70
.Ltmp110:
.LBB1_69:
	@DEBUG_VALUE: HAL_DMAEx_MultiBufferStart_IT:hdma <- $r0
	@DEBUG_VALUE: HAL_DMAEx_MultiBufferStart_IT:DataLength <- [DW_OP_plus_uconst 16] [$sp+0]
	@DEBUG_VALUE: HAL_DMAEx_MultiBufferStart_IT:DstAddress <- [DW_OP_LLVM_entry_value 1] $r2
	@DEBUG_VALUE: HAL_DMAEx_MultiBufferStart_IT:SecondMemAddress <- [DW_OP_LLVM_entry_value 1] $r3
	@DEBUG_VALUE: HAL_DMAEx_MultiBufferStart_IT:SrcAddress <- [DW_OP_LLVM_entry_value 1] $r1
	@DEBUG_VALUE: HAL_DMAEx_MultiBufferStart_IT:status <- 0
	mov.w	r4, #1024
.Ltmp111:
.LBB1_70:
	@DEBUG_VALUE: HAL_DMAEx_MultiBufferStart_IT:hdma <- $r0
	@DEBUG_VALUE: HAL_DMAEx_MultiBufferStart_IT:DataLength <- [DW_OP_plus_uconst 16] [$sp+0]
	@DEBUG_VALUE: HAL_DMAEx_MultiBufferStart_IT:DstAddress <- [DW_OP_LLVM_entry_value 1] $r2
	@DEBUG_VALUE: HAL_DMAEx_MultiBufferStart_IT:SecondMemAddress <- [DW_OP_LLVM_entry_value 1] $r3
	@DEBUG_VALUE: HAL_DMAEx_MultiBufferStart_IT:SrcAddress <- [DW_OP_LLVM_entry_value 1] $r1
	@DEBUG_VALUE: HAL_DMAEx_MultiBufferStart_IT:status <- 0
	.loc	6 198 5                         @ ../Library/STM32F4xx_HAL_Driver/Src/stm32f4xx_hal_dma_ex.c:198:5
	str	r4, [r1]
.Ltmp112:
.LBB1_71:
	@DEBUG_VALUE: HAL_DMAEx_MultiBufferStart_IT:hdma <- $r0
	@DEBUG_VALUE: HAL_DMAEx_MultiBufferStart_IT:DataLength <- [DW_OP_plus_uconst 16] [$sp+0]
	@DEBUG_VALUE: HAL_DMAEx_MultiBufferStart_IT:DstAddress <- [DW_OP_LLVM_entry_value 1] $r2
	@DEBUG_VALUE: HAL_DMAEx_MultiBufferStart_IT:SecondMemAddress <- [DW_OP_LLVM_entry_value 1] $r3
	@DEBUG_VALUE: HAL_DMAEx_MultiBufferStart_IT:SrcAddress <- [DW_OP_LLVM_entry_value 1] $r1
	@DEBUG_VALUE: HAL_DMAEx_MultiBufferStart_IT:status <- 0
	.loc	6 199 5 is_stmt 1               @ ../Library/STM32F4xx_HAL_Driver/Src/stm32f4xx_hal_dma_ex.c:199:5
	cmp	r12, r2
	bls	.LBB1_75
.Ltmp113:
@ %bb.72:
	@DEBUG_VALUE: HAL_DMAEx_MultiBufferStart_IT:hdma <- $r0
	@DEBUG_VALUE: HAL_DMAEx_MultiBufferStart_IT:DataLength <- [DW_OP_plus_uconst 16] [$sp+0]
	@DEBUG_VALUE: HAL_DMAEx_MultiBufferStart_IT:DstAddress <- [DW_OP_LLVM_entry_value 1] $r2
	@DEBUG_VALUE: HAL_DMAEx_MultiBufferStart_IT:SecondMemAddress <- [DW_OP_LLVM_entry_value 1] $r3
	@DEBUG_VALUE: HAL_DMAEx_MultiBufferStart_IT:SrcAddress <- [DW_OP_LLVM_entry_value 1] $r1
	@DEBUG_VALUE: HAL_DMAEx_MultiBufferStart_IT:status <- 0
	cmp	r12, r3
	beq	.LBB1_78
.Ltmp114:
@ %bb.73:
	@DEBUG_VALUE: HAL_DMAEx_MultiBufferStart_IT:hdma <- $r0
	@DEBUG_VALUE: HAL_DMAEx_MultiBufferStart_IT:DataLength <- [DW_OP_plus_uconst 16] [$sp+0]
	@DEBUG_VALUE: HAL_DMAEx_MultiBufferStart_IT:DstAddress <- [DW_OP_LLVM_entry_value 1] $r2
	@DEBUG_VALUE: HAL_DMAEx_MultiBufferStart_IT:SecondMemAddress <- [DW_OP_LLVM_entry_value 1] $r3
	@DEBUG_VALUE: HAL_DMAEx_MultiBufferStart_IT:SrcAddress <- [DW_OP_LLVM_entry_value 1] $r1
	@DEBUG_VALUE: HAL_DMAEx_MultiBufferStart_IT:status <- 0
	.loc	6 0 5 is_stmt 0                 @ ../Library/STM32F4xx_HAL_Driver/Src/stm32f4xx_hal_dma_ex.c:0:5
	movw	r4, #24712
	movt	r4, #16386
	.loc	6 199 5                         @ ../Library/STM32F4xx_HAL_Driver/Src/stm32f4xx_hal_dma_ex.c:199:5
	cmp	r12, r4
	beq	.LBB1_79
.Ltmp115:
@ %bb.74:
	@DEBUG_VALUE: HAL_DMAEx_MultiBufferStart_IT:hdma <- $r0
	@DEBUG_VALUE: HAL_DMAEx_MultiBufferStart_IT:DataLength <- [DW_OP_plus_uconst 16] [$sp+0]
	@DEBUG_VALUE: HAL_DMAEx_MultiBufferStart_IT:DstAddress <- [DW_OP_LLVM_entry_value 1] $r2
	@DEBUG_VALUE: HAL_DMAEx_MultiBufferStart_IT:SecondMemAddress <- [DW_OP_LLVM_entry_value 1] $r3
	@DEBUG_VALUE: HAL_DMAEx_MultiBufferStart_IT:SrcAddress <- [DW_OP_LLVM_entry_value 1] $r1
	@DEBUG_VALUE: HAL_DMAEx_MultiBufferStart_IT:status <- 0
	.loc	6 0 5                           @ ../Library/STM32F4xx_HAL_Driver/Src/stm32f4xx_hal_dma_ex.c:0:5
	movw	r4, #24736
	movt	r4, #16386
	.loc	6 199 5                         @ ../Library/STM32F4xx_HAL_Driver/Src/stm32f4xx_hal_dma_ex.c:199:5
	cmp	r12, r4
	ite	eq
	moveq.w	r4, #524288
	movne.w	r4, #33554432
	b	.LBB1_80
.Ltmp116:
.LBB1_75:
	@DEBUG_VALUE: HAL_DMAEx_MultiBufferStart_IT:hdma <- $r0
	@DEBUG_VALUE: HAL_DMAEx_MultiBufferStart_IT:DataLength <- [DW_OP_plus_uconst 16] [$sp+0]
	@DEBUG_VALUE: HAL_DMAEx_MultiBufferStart_IT:DstAddress <- [DW_OP_LLVM_entry_value 1] $r2
	@DEBUG_VALUE: HAL_DMAEx_MultiBufferStart_IT:SecondMemAddress <- [DW_OP_LLVM_entry_value 1] $r3
	@DEBUG_VALUE: HAL_DMAEx_MultiBufferStart_IT:SrcAddress <- [DW_OP_LLVM_entry_value 1] $r1
	@DEBUG_VALUE: HAL_DMAEx_MultiBufferStart_IT:status <- 0
	cmp	r12, lr
	beq	.LBB1_81
.Ltmp117:
@ %bb.76:
	@DEBUG_VALUE: HAL_DMAEx_MultiBufferStart_IT:hdma <- $r0
	@DEBUG_VALUE: HAL_DMAEx_MultiBufferStart_IT:DataLength <- [DW_OP_plus_uconst 16] [$sp+0]
	@DEBUG_VALUE: HAL_DMAEx_MultiBufferStart_IT:DstAddress <- [DW_OP_LLVM_entry_value 1] $r2
	@DEBUG_VALUE: HAL_DMAEx_MultiBufferStart_IT:SecondMemAddress <- [DW_OP_LLVM_entry_value 1] $r3
	@DEBUG_VALUE: HAL_DMAEx_MultiBufferStart_IT:SrcAddress <- [DW_OP_LLVM_entry_value 1] $r1
	@DEBUG_VALUE: HAL_DMAEx_MultiBufferStart_IT:status <- 0
	.loc	6 0 5                           @ ../Library/STM32F4xx_HAL_Driver/Src/stm32f4xx_hal_dma_ex.c:0:5
	movw	r4, #24616
	movt	r4, #16386
	.loc	6 199 5                         @ ../Library/STM32F4xx_HAL_Driver/Src/stm32f4xx_hal_dma_ex.c:199:5
	cmp	r12, r4
	beq	.LBB1_82
.Ltmp118:
@ %bb.77:
	@DEBUG_VALUE: HAL_DMAEx_MultiBufferStart_IT:hdma <- $r0
	@DEBUG_VALUE: HAL_DMAEx_MultiBufferStart_IT:DataLength <- [DW_OP_plus_uconst 16] [$sp+0]
	@DEBUG_VALUE: HAL_DMAEx_MultiBufferStart_IT:DstAddress <- [DW_OP_LLVM_entry_value 1] $r2
	@DEBUG_VALUE: HAL_DMAEx_MultiBufferStart_IT:SecondMemAddress <- [DW_OP_LLVM_entry_value 1] $r3
	@DEBUG_VALUE: HAL_DMAEx_MultiBufferStart_IT:SrcAddress <- [DW_OP_LLVM_entry_value 1] $r1
	@DEBUG_VALUE: HAL_DMAEx_MultiBufferStart_IT:status <- 0
	.loc	6 0 5                           @ ../Library/STM32F4xx_HAL_Driver/Src/stm32f4xx_hal_dma_ex.c:0:5
	movw	r4, #24640
	movt	r4, #16386
	.loc	6 199 5                         @ ../Library/STM32F4xx_HAL_Driver/Src/stm32f4xx_hal_dma_ex.c:199:5
	cmp	r12, r4
	ite	eq
	moveq.w	r4, #524288
	movne.w	r4, #33554432
	b	.LBB1_83
.Ltmp119:
.LBB1_78:
	@DEBUG_VALUE: HAL_DMAEx_MultiBufferStart_IT:hdma <- $r0
	@DEBUG_VALUE: HAL_DMAEx_MultiBufferStart_IT:DataLength <- [DW_OP_plus_uconst 16] [$sp+0]
	@DEBUG_VALUE: HAL_DMAEx_MultiBufferStart_IT:DstAddress <- [DW_OP_LLVM_entry_value 1] $r2
	@DEBUG_VALUE: HAL_DMAEx_MultiBufferStart_IT:SecondMemAddress <- [DW_OP_LLVM_entry_value 1] $r3
	@DEBUG_VALUE: HAL_DMAEx_MultiBufferStart_IT:SrcAddress <- [DW_OP_LLVM_entry_value 1] $r1
	@DEBUG_VALUE: HAL_DMAEx_MultiBufferStart_IT:status <- 0
	.loc	6 0 5                           @ ../Library/STM32F4xx_HAL_Driver/Src/stm32f4xx_hal_dma_ex.c:0:5
	movs	r4, #8
	b	.LBB1_80
.Ltmp120:
.LBB1_79:
	@DEBUG_VALUE: HAL_DMAEx_MultiBufferStart_IT:hdma <- $r0
	@DEBUG_VALUE: HAL_DMAEx_MultiBufferStart_IT:DataLength <- [DW_OP_plus_uconst 16] [$sp+0]
	@DEBUG_VALUE: HAL_DMAEx_MultiBufferStart_IT:DstAddress <- [DW_OP_LLVM_entry_value 1] $r2
	@DEBUG_VALUE: HAL_DMAEx_MultiBufferStart_IT:SecondMemAddress <- [DW_OP_LLVM_entry_value 1] $r3
	@DEBUG_VALUE: HAL_DMAEx_MultiBufferStart_IT:SrcAddress <- [DW_OP_LLVM_entry_value 1] $r1
	@DEBUG_VALUE: HAL_DMAEx_MultiBufferStart_IT:status <- 0
	mov.w	r4, #512
.Ltmp121:
.LBB1_80:
	@DEBUG_VALUE: HAL_DMAEx_MultiBufferStart_IT:hdma <- $r0
	@DEBUG_VALUE: HAL_DMAEx_MultiBufferStart_IT:DataLength <- [DW_OP_plus_uconst 16] [$sp+0]
	@DEBUG_VALUE: HAL_DMAEx_MultiBufferStart_IT:DstAddress <- [DW_OP_LLVM_entry_value 1] $r2
	@DEBUG_VALUE: HAL_DMAEx_MultiBufferStart_IT:SecondMemAddress <- [DW_OP_LLVM_entry_value 1] $r3
	@DEBUG_VALUE: HAL_DMAEx_MultiBufferStart_IT:SrcAddress <- [DW_OP_LLVM_entry_value 1] $r1
	@DEBUG_VALUE: HAL_DMAEx_MultiBufferStart_IT:status <- 0
	.loc	6 199 5                         @ ../Library/STM32F4xx_HAL_Driver/Src/stm32f4xx_hal_dma_ex.c:199:5
	str	r4, [r1, #4]
	b	.LBB1_84
.Ltmp122:
.LBB1_81:
	@DEBUG_VALUE: HAL_DMAEx_MultiBufferStart_IT:hdma <- $r0
	@DEBUG_VALUE: HAL_DMAEx_MultiBufferStart_IT:DataLength <- [DW_OP_plus_uconst 16] [$sp+0]
	@DEBUG_VALUE: HAL_DMAEx_MultiBufferStart_IT:DstAddress <- [DW_OP_LLVM_entry_value 1] $r2
	@DEBUG_VALUE: HAL_DMAEx_MultiBufferStart_IT:SecondMemAddress <- [DW_OP_LLVM_entry_value 1] $r3
	@DEBUG_VALUE: HAL_DMAEx_MultiBufferStart_IT:SrcAddress <- [DW_OP_LLVM_entry_value 1] $r1
	@DEBUG_VALUE: HAL_DMAEx_MultiBufferStart_IT:status <- 0
	.loc	6 0 5                           @ ../Library/STM32F4xx_HAL_Driver/Src/stm32f4xx_hal_dma_ex.c:0:5
	movs	r4, #8
	b	.LBB1_83
.Ltmp123:
.LBB1_82:
	@DEBUG_VALUE: HAL_DMAEx_MultiBufferStart_IT:hdma <- $r0
	@DEBUG_VALUE: HAL_DMAEx_MultiBufferStart_IT:DataLength <- [DW_OP_plus_uconst 16] [$sp+0]
	@DEBUG_VALUE: HAL_DMAEx_MultiBufferStart_IT:DstAddress <- [DW_OP_LLVM_entry_value 1] $r2
	@DEBUG_VALUE: HAL_DMAEx_MultiBufferStart_IT:SecondMemAddress <- [DW_OP_LLVM_entry_value 1] $r3
	@DEBUG_VALUE: HAL_DMAEx_MultiBufferStart_IT:SrcAddress <- [DW_OP_LLVM_entry_value 1] $r1
	@DEBUG_VALUE: HAL_DMAEx_MultiBufferStart_IT:status <- 0
	mov.w	r4, #512
.Ltmp124:
.LBB1_83:
	@DEBUG_VALUE: HAL_DMAEx_MultiBufferStart_IT:hdma <- $r0
	@DEBUG_VALUE: HAL_DMAEx_MultiBufferStart_IT:DataLength <- [DW_OP_plus_uconst 16] [$sp+0]
	@DEBUG_VALUE: HAL_DMAEx_MultiBufferStart_IT:DstAddress <- [DW_OP_LLVM_entry_value 1] $r2
	@DEBUG_VALUE: HAL_DMAEx_MultiBufferStart_IT:SecondMemAddress <- [DW_OP_LLVM_entry_value 1] $r3
	@DEBUG_VALUE: HAL_DMAEx_MultiBufferStart_IT:SrcAddress <- [DW_OP_LLVM_entry_value 1] $r1
	@DEBUG_VALUE: HAL_DMAEx_MultiBufferStart_IT:status <- 0
	.loc	6 199 5                         @ ../Library/STM32F4xx_HAL_Driver/Src/stm32f4xx_hal_dma_ex.c:199:5
	str	r4, [r1]
.Ltmp125:
.LBB1_84:
	@DEBUG_VALUE: HAL_DMAEx_MultiBufferStart_IT:hdma <- $r0
	@DEBUG_VALUE: HAL_DMAEx_MultiBufferStart_IT:DataLength <- [DW_OP_plus_uconst 16] [$sp+0]
	@DEBUG_VALUE: HAL_DMAEx_MultiBufferStart_IT:DstAddress <- [DW_OP_LLVM_entry_value 1] $r2
	@DEBUG_VALUE: HAL_DMAEx_MultiBufferStart_IT:SecondMemAddress <- [DW_OP_LLVM_entry_value 1] $r3
	@DEBUG_VALUE: HAL_DMAEx_MultiBufferStart_IT:SrcAddress <- [DW_OP_LLVM_entry_value 1] $r1
	@DEBUG_VALUE: HAL_DMAEx_MultiBufferStart_IT:status <- 0
	.loc	6 200 5 is_stmt 1               @ ../Library/STM32F4xx_HAL_Driver/Src/stm32f4xx_hal_dma_ex.c:200:5
	cmp	r12, r2
	bls	.LBB1_88
.Ltmp126:
@ %bb.85:
	@DEBUG_VALUE: HAL_DMAEx_MultiBufferStart_IT:hdma <- $r0
	@DEBUG_VALUE: HAL_DMAEx_MultiBufferStart_IT:DataLength <- [DW_OP_plus_uconst 16] [$sp+0]
	@DEBUG_VALUE: HAL_DMAEx_MultiBufferStart_IT:DstAddress <- [DW_OP_LLVM_entry_value 1] $r2
	@DEBUG_VALUE: HAL_DMAEx_MultiBufferStart_IT:SecondMemAddress <- [DW_OP_LLVM_entry_value 1] $r3
	@DEBUG_VALUE: HAL_DMAEx_MultiBufferStart_IT:SrcAddress <- [DW_OP_LLVM_entry_value 1] $r1
	@DEBUG_VALUE: HAL_DMAEx_MultiBufferStart_IT:status <- 0
	cmp	r12, r3
	beq	.LBB1_91
.Ltmp127:
@ %bb.86:
	@DEBUG_VALUE: HAL_DMAEx_MultiBufferStart_IT:hdma <- $r0
	@DEBUG_VALUE: HAL_DMAEx_MultiBufferStart_IT:DataLength <- [DW_OP_plus_uconst 16] [$sp+0]
	@DEBUG_VALUE: HAL_DMAEx_MultiBufferStart_IT:DstAddress <- [DW_OP_LLVM_entry_value 1] $r2
	@DEBUG_VALUE: HAL_DMAEx_MultiBufferStart_IT:SecondMemAddress <- [DW_OP_LLVM_entry_value 1] $r3
	@DEBUG_VALUE: HAL_DMAEx_MultiBufferStart_IT:SrcAddress <- [DW_OP_LLVM_entry_value 1] $r1
	@DEBUG_VALUE: HAL_DMAEx_MultiBufferStart_IT:status <- 0
	.loc	6 0 5 is_stmt 0                 @ ../Library/STM32F4xx_HAL_Driver/Src/stm32f4xx_hal_dma_ex.c:0:5
	movw	r4, #24712
	movt	r4, #16386
	.loc	6 200 5                         @ ../Library/STM32F4xx_HAL_Driver/Src/stm32f4xx_hal_dma_ex.c:200:5
	cmp	r12, r4
	beq	.LBB1_92
.Ltmp128:
@ %bb.87:
	@DEBUG_VALUE: HAL_DMAEx_MultiBufferStart_IT:hdma <- $r0
	@DEBUG_VALUE: HAL_DMAEx_MultiBufferStart_IT:DataLength <- [DW_OP_plus_uconst 16] [$sp+0]
	@DEBUG_VALUE: HAL_DMAEx_MultiBufferStart_IT:DstAddress <- [DW_OP_LLVM_entry_value 1] $r2
	@DEBUG_VALUE: HAL_DMAEx_MultiBufferStart_IT:SecondMemAddress <- [DW_OP_LLVM_entry_value 1] $r3
	@DEBUG_VALUE: HAL_DMAEx_MultiBufferStart_IT:SrcAddress <- [DW_OP_LLVM_entry_value 1] $r1
	@DEBUG_VALUE: HAL_DMAEx_MultiBufferStart_IT:status <- 0
	.loc	6 0 5                           @ ../Library/STM32F4xx_HAL_Driver/Src/stm32f4xx_hal_dma_ex.c:0:5
	movw	r4, #24736
	movt	r4, #16386
	.loc	6 200 5                         @ ../Library/STM32F4xx_HAL_Driver/Src/stm32f4xx_hal_dma_ex.c:200:5
	cmp	r12, r4
	ite	eq
	moveq.w	r4, #262144
	movne.w	r4, #16777216
	b	.LBB1_93
.Ltmp129:
.LBB1_88:
	@DEBUG_VALUE: HAL_DMAEx_MultiBufferStart_IT:hdma <- $r0
	@DEBUG_VALUE: HAL_DMAEx_MultiBufferStart_IT:DataLength <- [DW_OP_plus_uconst 16] [$sp+0]
	@DEBUG_VALUE: HAL_DMAEx_MultiBufferStart_IT:DstAddress <- [DW_OP_LLVM_entry_value 1] $r2
	@DEBUG_VALUE: HAL_DMAEx_MultiBufferStart_IT:SecondMemAddress <- [DW_OP_LLVM_entry_value 1] $r3
	@DEBUG_VALUE: HAL_DMAEx_MultiBufferStart_IT:SrcAddress <- [DW_OP_LLVM_entry_value 1] $r1
	@DEBUG_VALUE: HAL_DMAEx_MultiBufferStart_IT:status <- 0
	cmp	r12, lr
	beq	.LBB1_94
.Ltmp130:
@ %bb.89:
	@DEBUG_VALUE: HAL_DMAEx_MultiBufferStart_IT:hdma <- $r0
	@DEBUG_VALUE: HAL_DMAEx_MultiBufferStart_IT:DataLength <- [DW_OP_plus_uconst 16] [$sp+0]
	@DEBUG_VALUE: HAL_DMAEx_MultiBufferStart_IT:DstAddress <- [DW_OP_LLVM_entry_value 1] $r2
	@DEBUG_VALUE: HAL_DMAEx_MultiBufferStart_IT:SecondMemAddress <- [DW_OP_LLVM_entry_value 1] $r3
	@DEBUG_VALUE: HAL_DMAEx_MultiBufferStart_IT:SrcAddress <- [DW_OP_LLVM_entry_value 1] $r1
	@DEBUG_VALUE: HAL_DMAEx_MultiBufferStart_IT:status <- 0
	.loc	6 0 5                           @ ../Library/STM32F4xx_HAL_Driver/Src/stm32f4xx_hal_dma_ex.c:0:5
	movw	r4, #24616
	movt	r4, #16386
	.loc	6 200 5                         @ ../Library/STM32F4xx_HAL_Driver/Src/stm32f4xx_hal_dma_ex.c:200:5
	cmp	r12, r4
	beq	.LBB1_95
.Ltmp131:
@ %bb.90:
	@DEBUG_VALUE: HAL_DMAEx_MultiBufferStart_IT:hdma <- $r0
	@DEBUG_VALUE: HAL_DMAEx_MultiBufferStart_IT:DataLength <- [DW_OP_plus_uconst 16] [$sp+0]
	@DEBUG_VALUE: HAL_DMAEx_MultiBufferStart_IT:DstAddress <- [DW_OP_LLVM_entry_value 1] $r2
	@DEBUG_VALUE: HAL_DMAEx_MultiBufferStart_IT:SecondMemAddress <- [DW_OP_LLVM_entry_value 1] $r3
	@DEBUG_VALUE: HAL_DMAEx_MultiBufferStart_IT:SrcAddress <- [DW_OP_LLVM_entry_value 1] $r1
	@DEBUG_VALUE: HAL_DMAEx_MultiBufferStart_IT:status <- 0
	.loc	6 0 5                           @ ../Library/STM32F4xx_HAL_Driver/Src/stm32f4xx_hal_dma_ex.c:0:5
	movw	r4, #24640
	movt	r4, #16386
	.loc	6 200 5                         @ ../Library/STM32F4xx_HAL_Driver/Src/stm32f4xx_hal_dma_ex.c:200:5
	cmp	r12, r4
	ite	eq
	moveq.w	r4, #262144
	movne.w	r4, #16777216
	b	.LBB1_96
.Ltmp132:
.LBB1_91:
	@DEBUG_VALUE: HAL_DMAEx_MultiBufferStart_IT:hdma <- $r0
	@DEBUG_VALUE: HAL_DMAEx_MultiBufferStart_IT:DataLength <- [DW_OP_plus_uconst 16] [$sp+0]
	@DEBUG_VALUE: HAL_DMAEx_MultiBufferStart_IT:DstAddress <- [DW_OP_LLVM_entry_value 1] $r2
	@DEBUG_VALUE: HAL_DMAEx_MultiBufferStart_IT:SecondMemAddress <- [DW_OP_LLVM_entry_value 1] $r3
	@DEBUG_VALUE: HAL_DMAEx_MultiBufferStart_IT:SrcAddress <- [DW_OP_LLVM_entry_value 1] $r1
	@DEBUG_VALUE: HAL_DMAEx_MultiBufferStart_IT:status <- 0
	.loc	6 0 5                           @ ../Library/STM32F4xx_HAL_Driver/Src/stm32f4xx_hal_dma_ex.c:0:5
	movs	r4, #4
	b	.LBB1_93
.Ltmp133:
.LBB1_92:
	@DEBUG_VALUE: HAL_DMAEx_MultiBufferStart_IT:hdma <- $r0
	@DEBUG_VALUE: HAL_DMAEx_MultiBufferStart_IT:DataLength <- [DW_OP_plus_uconst 16] [$sp+0]
	@DEBUG_VALUE: HAL_DMAEx_MultiBufferStart_IT:DstAddress <- [DW_OP_LLVM_entry_value 1] $r2
	@DEBUG_VALUE: HAL_DMAEx_MultiBufferStart_IT:SecondMemAddress <- [DW_OP_LLVM_entry_value 1] $r3
	@DEBUG_VALUE: HAL_DMAEx_MultiBufferStart_IT:SrcAddress <- [DW_OP_LLVM_entry_value 1] $r1
	@DEBUG_VALUE: HAL_DMAEx_MultiBufferStart_IT:status <- 0
	mov.w	r4, #256
.Ltmp134:
.LBB1_93:
	@DEBUG_VALUE: HAL_DMAEx_MultiBufferStart_IT:hdma <- $r0
	@DEBUG_VALUE: HAL_DMAEx_MultiBufferStart_IT:DataLength <- [DW_OP_plus_uconst 16] [$sp+0]
	@DEBUG_VALUE: HAL_DMAEx_MultiBufferStart_IT:DstAddress <- [DW_OP_LLVM_entry_value 1] $r2
	@DEBUG_VALUE: HAL_DMAEx_MultiBufferStart_IT:SecondMemAddress <- [DW_OP_LLVM_entry_value 1] $r3
	@DEBUG_VALUE: HAL_DMAEx_MultiBufferStart_IT:SrcAddress <- [DW_OP_LLVM_entry_value 1] $r1
	@DEBUG_VALUE: HAL_DMAEx_MultiBufferStart_IT:status <- 0
	.loc	6 200 5                         @ ../Library/STM32F4xx_HAL_Driver/Src/stm32f4xx_hal_dma_ex.c:200:5
	str	r4, [r1, #4]
	b	.LBB1_97
.Ltmp135:
.LBB1_94:
	@DEBUG_VALUE: HAL_DMAEx_MultiBufferStart_IT:hdma <- $r0
	@DEBUG_VALUE: HAL_DMAEx_MultiBufferStart_IT:DataLength <- [DW_OP_plus_uconst 16] [$sp+0]
	@DEBUG_VALUE: HAL_DMAEx_MultiBufferStart_IT:DstAddress <- [DW_OP_LLVM_entry_value 1] $r2
	@DEBUG_VALUE: HAL_DMAEx_MultiBufferStart_IT:SecondMemAddress <- [DW_OP_LLVM_entry_value 1] $r3
	@DEBUG_VALUE: HAL_DMAEx_MultiBufferStart_IT:SrcAddress <- [DW_OP_LLVM_entry_value 1] $r1
	@DEBUG_VALUE: HAL_DMAEx_MultiBufferStart_IT:status <- 0
	.loc	6 0 5                           @ ../Library/STM32F4xx_HAL_Driver/Src/stm32f4xx_hal_dma_ex.c:0:5
	movs	r4, #4
	b	.LBB1_96
.Ltmp136:
.LBB1_95:
	@DEBUG_VALUE: HAL_DMAEx_MultiBufferStart_IT:hdma <- $r0
	@DEBUG_VALUE: HAL_DMAEx_MultiBufferStart_IT:DataLength <- [DW_OP_plus_uconst 16] [$sp+0]
	@DEBUG_VALUE: HAL_DMAEx_MultiBufferStart_IT:DstAddress <- [DW_OP_LLVM_entry_value 1] $r2
	@DEBUG_VALUE: HAL_DMAEx_MultiBufferStart_IT:SecondMemAddress <- [DW_OP_LLVM_entry_value 1] $r3
	@DEBUG_VALUE: HAL_DMAEx_MultiBufferStart_IT:SrcAddress <- [DW_OP_LLVM_entry_value 1] $r1
	@DEBUG_VALUE: HAL_DMAEx_MultiBufferStart_IT:status <- 0
	mov.w	r4, #256
.Ltmp137:
.LBB1_96:
	@DEBUG_VALUE: HAL_DMAEx_MultiBufferStart_IT:hdma <- $r0
	@DEBUG_VALUE: HAL_DMAEx_MultiBufferStart_IT:DataLength <- [DW_OP_plus_uconst 16] [$sp+0]
	@DEBUG_VALUE: HAL_DMAEx_MultiBufferStart_IT:DstAddress <- [DW_OP_LLVM_entry_value 1] $r2
	@DEBUG_VALUE: HAL_DMAEx_MultiBufferStart_IT:SecondMemAddress <- [DW_OP_LLVM_entry_value 1] $r3
	@DEBUG_VALUE: HAL_DMAEx_MultiBufferStart_IT:SrcAddress <- [DW_OP_LLVM_entry_value 1] $r1
	@DEBUG_VALUE: HAL_DMAEx_MultiBufferStart_IT:status <- 0
	.loc	6 200 5                         @ ../Library/STM32F4xx_HAL_Driver/Src/stm32f4xx_hal_dma_ex.c:200:5
	str	r4, [r1]
.Ltmp138:
.LBB1_97:
	@DEBUG_VALUE: HAL_DMAEx_MultiBufferStart_IT:hdma <- $r0
	@DEBUG_VALUE: HAL_DMAEx_MultiBufferStart_IT:DataLength <- [DW_OP_plus_uconst 16] [$sp+0]
	@DEBUG_VALUE: HAL_DMAEx_MultiBufferStart_IT:DstAddress <- [DW_OP_LLVM_entry_value 1] $r2
	@DEBUG_VALUE: HAL_DMAEx_MultiBufferStart_IT:SecondMemAddress <- [DW_OP_LLVM_entry_value 1] $r3
	@DEBUG_VALUE: HAL_DMAEx_MultiBufferStart_IT:SrcAddress <- [DW_OP_LLVM_entry_value 1] $r1
	@DEBUG_VALUE: HAL_DMAEx_MultiBufferStart_IT:status <- 0
	.loc	6 201 5 is_stmt 1               @ ../Library/STM32F4xx_HAL_Driver/Src/stm32f4xx_hal_dma_ex.c:201:5
	cmp	r12, r2
	bls	.LBB1_101
.Ltmp139:
@ %bb.98:
	@DEBUG_VALUE: HAL_DMAEx_MultiBufferStart_IT:hdma <- $r0
	@DEBUG_VALUE: HAL_DMAEx_MultiBufferStart_IT:DataLength <- [DW_OP_plus_uconst 16] [$sp+0]
	@DEBUG_VALUE: HAL_DMAEx_MultiBufferStart_IT:DstAddress <- [DW_OP_LLVM_entry_value 1] $r2
	@DEBUG_VALUE: HAL_DMAEx_MultiBufferStart_IT:SecondMemAddress <- [DW_OP_LLVM_entry_value 1] $r3
	@DEBUG_VALUE: HAL_DMAEx_MultiBufferStart_IT:SrcAddress <- [DW_OP_LLVM_entry_value 1] $r1
	@DEBUG_VALUE: HAL_DMAEx_MultiBufferStart_IT:status <- 0
	cmp	r12, r3
	beq	.LBB1_104
.Ltmp140:
@ %bb.99:
	@DEBUG_VALUE: HAL_DMAEx_MultiBufferStart_IT:hdma <- $r0
	@DEBUG_VALUE: HAL_DMAEx_MultiBufferStart_IT:DataLength <- [DW_OP_plus_uconst 16] [$sp+0]
	@DEBUG_VALUE: HAL_DMAEx_MultiBufferStart_IT:DstAddress <- [DW_OP_LLVM_entry_value 1] $r2
	@DEBUG_VALUE: HAL_DMAEx_MultiBufferStart_IT:SecondMemAddress <- [DW_OP_LLVM_entry_value 1] $r3
	@DEBUG_VALUE: HAL_DMAEx_MultiBufferStart_IT:SrcAddress <- [DW_OP_LLVM_entry_value 1] $r1
	@DEBUG_VALUE: HAL_DMAEx_MultiBufferStart_IT:status <- 0
	.loc	6 0 5 is_stmt 0                 @ ../Library/STM32F4xx_HAL_Driver/Src/stm32f4xx_hal_dma_ex.c:0:5
	movw	r2, #24712
	movt	r2, #16386
	.loc	6 201 5                         @ ../Library/STM32F4xx_HAL_Driver/Src/stm32f4xx_hal_dma_ex.c:201:5
	cmp	r12, r2
	beq	.LBB1_105
.Ltmp141:
@ %bb.100:
	@DEBUG_VALUE: HAL_DMAEx_MultiBufferStart_IT:hdma <- $r0
	@DEBUG_VALUE: HAL_DMAEx_MultiBufferStart_IT:DataLength <- [DW_OP_plus_uconst 16] [$sp+0]
	@DEBUG_VALUE: HAL_DMAEx_MultiBufferStart_IT:DstAddress <- [DW_OP_LLVM_entry_value 1] $r2
	@DEBUG_VALUE: HAL_DMAEx_MultiBufferStart_IT:SecondMemAddress <- [DW_OP_LLVM_entry_value 1] $r3
	@DEBUG_VALUE: HAL_DMAEx_MultiBufferStart_IT:SrcAddress <- [DW_OP_LLVM_entry_value 1] $r1
	@DEBUG_VALUE: HAL_DMAEx_MultiBufferStart_IT:status <- 0
	.loc	6 0 5                           @ ../Library/STM32F4xx_HAL_Driver/Src/stm32f4xx_hal_dma_ex.c:0:5
	movw	r2, #24736
	movt	r2, #16386
	.loc	6 201 5                         @ ../Library/STM32F4xx_HAL_Driver/Src/stm32f4xx_hal_dma_ex.c:201:5
	cmp	r12, r2
	ite	eq
	moveq.w	r2, #65536
	movne.w	r2, #4194304
	b	.LBB1_106
.Ltmp142:
.LBB1_101:
	@DEBUG_VALUE: HAL_DMAEx_MultiBufferStart_IT:hdma <- $r0
	@DEBUG_VALUE: HAL_DMAEx_MultiBufferStart_IT:DataLength <- [DW_OP_plus_uconst 16] [$sp+0]
	@DEBUG_VALUE: HAL_DMAEx_MultiBufferStart_IT:DstAddress <- [DW_OP_LLVM_entry_value 1] $r2
	@DEBUG_VALUE: HAL_DMAEx_MultiBufferStart_IT:SecondMemAddress <- [DW_OP_LLVM_entry_value 1] $r3
	@DEBUG_VALUE: HAL_DMAEx_MultiBufferStart_IT:SrcAddress <- [DW_OP_LLVM_entry_value 1] $r1
	@DEBUG_VALUE: HAL_DMAEx_MultiBufferStart_IT:status <- 0
	cmp	r12, lr
	beq	.LBB1_107
.Ltmp143:
@ %bb.102:
	@DEBUG_VALUE: HAL_DMAEx_MultiBufferStart_IT:hdma <- $r0
	@DEBUG_VALUE: HAL_DMAEx_MultiBufferStart_IT:DataLength <- [DW_OP_plus_uconst 16] [$sp+0]
	@DEBUG_VALUE: HAL_DMAEx_MultiBufferStart_IT:DstAddress <- [DW_OP_LLVM_entry_value 1] $r2
	@DEBUG_VALUE: HAL_DMAEx_MultiBufferStart_IT:SecondMemAddress <- [DW_OP_LLVM_entry_value 1] $r3
	@DEBUG_VALUE: HAL_DMAEx_MultiBufferStart_IT:SrcAddress <- [DW_OP_LLVM_entry_value 1] $r1
	@DEBUG_VALUE: HAL_DMAEx_MultiBufferStart_IT:status <- 0
	.loc	6 0 5                           @ ../Library/STM32F4xx_HAL_Driver/Src/stm32f4xx_hal_dma_ex.c:0:5
	movw	r2, #24616
	movt	r2, #16386
	.loc	6 201 5                         @ ../Library/STM32F4xx_HAL_Driver/Src/stm32f4xx_hal_dma_ex.c:201:5
	cmp	r12, r2
	beq	.LBB1_108
.Ltmp144:
@ %bb.103:
	@DEBUG_VALUE: HAL_DMAEx_MultiBufferStart_IT:hdma <- $r0
	@DEBUG_VALUE: HAL_DMAEx_MultiBufferStart_IT:DataLength <- [DW_OP_plus_uconst 16] [$sp+0]
	@DEBUG_VALUE: HAL_DMAEx_MultiBufferStart_IT:DstAddress <- [DW_OP_LLVM_entry_value 1] $r2
	@DEBUG_VALUE: HAL_DMAEx_MultiBufferStart_IT:SecondMemAddress <- [DW_OP_LLVM_entry_value 1] $r3
	@DEBUG_VALUE: HAL_DMAEx_MultiBufferStart_IT:SrcAddress <- [DW_OP_LLVM_entry_value 1] $r1
	@DEBUG_VALUE: HAL_DMAEx_MultiBufferStart_IT:status <- 0
	.loc	6 0 5                           @ ../Library/STM32F4xx_HAL_Driver/Src/stm32f4xx_hal_dma_ex.c:0:5
	movw	r2, #24640
	movt	r2, #16386
	.loc	6 201 5                         @ ../Library/STM32F4xx_HAL_Driver/Src/stm32f4xx_hal_dma_ex.c:201:5
	cmp	r12, r2
	ite	eq
	moveq.w	r2, #65536
	movne.w	r2, #4194304
	b	.LBB1_109
.Ltmp145:
.LBB1_104:
	@DEBUG_VALUE: HAL_DMAEx_MultiBufferStart_IT:hdma <- $r0
	@DEBUG_VALUE: HAL_DMAEx_MultiBufferStart_IT:DataLength <- [DW_OP_plus_uconst 16] [$sp+0]
	@DEBUG_VALUE: HAL_DMAEx_MultiBufferStart_IT:DstAddress <- [DW_OP_LLVM_entry_value 1] $r2
	@DEBUG_VALUE: HAL_DMAEx_MultiBufferStart_IT:SecondMemAddress <- [DW_OP_LLVM_entry_value 1] $r3
	@DEBUG_VALUE: HAL_DMAEx_MultiBufferStart_IT:SrcAddress <- [DW_OP_LLVM_entry_value 1] $r1
	@DEBUG_VALUE: HAL_DMAEx_MultiBufferStart_IT:status <- 0
	.loc	6 0 5                           @ ../Library/STM32F4xx_HAL_Driver/Src/stm32f4xx_hal_dma_ex.c:0:5
	movs	r2, #1
	b	.LBB1_106
.Ltmp146:
.LBB1_105:
	@DEBUG_VALUE: HAL_DMAEx_MultiBufferStart_IT:hdma <- $r0
	@DEBUG_VALUE: HAL_DMAEx_MultiBufferStart_IT:DataLength <- [DW_OP_plus_uconst 16] [$sp+0]
	@DEBUG_VALUE: HAL_DMAEx_MultiBufferStart_IT:DstAddress <- [DW_OP_LLVM_entry_value 1] $r2
	@DEBUG_VALUE: HAL_DMAEx_MultiBufferStart_IT:SecondMemAddress <- [DW_OP_LLVM_entry_value 1] $r3
	@DEBUG_VALUE: HAL_DMAEx_MultiBufferStart_IT:SrcAddress <- [DW_OP_LLVM_entry_value 1] $r1
	@DEBUG_VALUE: HAL_DMAEx_MultiBufferStart_IT:status <- 0
	movs	r2, #64
.Ltmp147:
.LBB1_106:
	@DEBUG_VALUE: HAL_DMAEx_MultiBufferStart_IT:hdma <- $r0
	@DEBUG_VALUE: HAL_DMAEx_MultiBufferStart_IT:DataLength <- [DW_OP_plus_uconst 16] [$sp+0]
	@DEBUG_VALUE: HAL_DMAEx_MultiBufferStart_IT:DstAddress <- [DW_OP_LLVM_entry_value 1] $r2
	@DEBUG_VALUE: HAL_DMAEx_MultiBufferStart_IT:SecondMemAddress <- [DW_OP_LLVM_entry_value 1] $r3
	@DEBUG_VALUE: HAL_DMAEx_MultiBufferStart_IT:SrcAddress <- [DW_OP_LLVM_entry_value 1] $r1
	@DEBUG_VALUE: HAL_DMAEx_MultiBufferStart_IT:status <- 0
	.loc	6 201 5                         @ ../Library/STM32F4xx_HAL_Driver/Src/stm32f4xx_hal_dma_ex.c:201:5
	str	r2, [r1, #4]
	b	.LBB1_110
.Ltmp148:
.LBB1_107:
	@DEBUG_VALUE: HAL_DMAEx_MultiBufferStart_IT:hdma <- $r0
	@DEBUG_VALUE: HAL_DMAEx_MultiBufferStart_IT:DataLength <- [DW_OP_plus_uconst 16] [$sp+0]
	@DEBUG_VALUE: HAL_DMAEx_MultiBufferStart_IT:DstAddress <- [DW_OP_LLVM_entry_value 1] $r2
	@DEBUG_VALUE: HAL_DMAEx_MultiBufferStart_IT:SecondMemAddress <- [DW_OP_LLVM_entry_value 1] $r3
	@DEBUG_VALUE: HAL_DMAEx_MultiBufferStart_IT:SrcAddress <- [DW_OP_LLVM_entry_value 1] $r1
	@DEBUG_VALUE: HAL_DMAEx_MultiBufferStart_IT:status <- 0
	.loc	6 0 5                           @ ../Library/STM32F4xx_HAL_Driver/Src/stm32f4xx_hal_dma_ex.c:0:5
	movs	r2, #1
	b	.LBB1_109
.Ltmp149:
.LBB1_108:
	@DEBUG_VALUE: HAL_DMAEx_MultiBufferStart_IT:hdma <- $r0
	@DEBUG_VALUE: HAL_DMAEx_MultiBufferStart_IT:DataLength <- [DW_OP_plus_uconst 16] [$sp+0]
	@DEBUG_VALUE: HAL_DMAEx_MultiBufferStart_IT:DstAddress <- [DW_OP_LLVM_entry_value 1] $r2
	@DEBUG_VALUE: HAL_DMAEx_MultiBufferStart_IT:SecondMemAddress <- [DW_OP_LLVM_entry_value 1] $r3
	@DEBUG_VALUE: HAL_DMAEx_MultiBufferStart_IT:SrcAddress <- [DW_OP_LLVM_entry_value 1] $r1
	@DEBUG_VALUE: HAL_DMAEx_MultiBufferStart_IT:status <- 0
	movs	r2, #64
.Ltmp150:
.LBB1_109:
	@DEBUG_VALUE: HAL_DMAEx_MultiBufferStart_IT:hdma <- $r0
	@DEBUG_VALUE: HAL_DMAEx_MultiBufferStart_IT:DataLength <- [DW_OP_plus_uconst 16] [$sp+0]
	@DEBUG_VALUE: HAL_DMAEx_MultiBufferStart_IT:DstAddress <- [DW_OP_LLVM_entry_value 1] $r2
	@DEBUG_VALUE: HAL_DMAEx_MultiBufferStart_IT:SecondMemAddress <- [DW_OP_LLVM_entry_value 1] $r3
	@DEBUG_VALUE: HAL_DMAEx_MultiBufferStart_IT:SrcAddress <- [DW_OP_LLVM_entry_value 1] $r1
	@DEBUG_VALUE: HAL_DMAEx_MultiBufferStart_IT:status <- 0
	.loc	6 201 5                         @ ../Library/STM32F4xx_HAL_Driver/Src/stm32f4xx_hal_dma_ex.c:201:5
	str	r2, [r1]
.Ltmp151:
.LBB1_110:
	@DEBUG_VALUE: HAL_DMAEx_MultiBufferStart_IT:hdma <- $r0
	@DEBUG_VALUE: HAL_DMAEx_MultiBufferStart_IT:DataLength <- [DW_OP_plus_uconst 16] [$sp+0]
	@DEBUG_VALUE: HAL_DMAEx_MultiBufferStart_IT:DstAddress <- [DW_OP_LLVM_entry_value 1] $r2
	@DEBUG_VALUE: HAL_DMAEx_MultiBufferStart_IT:SecondMemAddress <- [DW_OP_LLVM_entry_value 1] $r3
	@DEBUG_VALUE: HAL_DMAEx_MultiBufferStart_IT:SrcAddress <- [DW_OP_LLVM_entry_value 1] $r1
	@DEBUG_VALUE: HAL_DMAEx_MultiBufferStart_IT:status <- 0
	.loc	6 204 25 is_stmt 1              @ ../Library/STM32F4xx_HAL_Driver/Src/stm32f4xx_hal_dma_ex.c:204:25
	ldr.w	r1, [r12]
	orr	r1, r1, #22
	str.w	r1, [r12]
	.loc	6 205 25                        @ ../Library/STM32F4xx_HAL_Driver/Src/stm32f4xx_hal_dma_ex.c:205:25
	ldr.w	r1, [r12, #20]
	orr	r1, r1, #128
	str.w	r1, [r12, #20]
.Ltmp152:
	.loc	6 207 15                        @ ../Library/STM32F4xx_HAL_Driver/Src/stm32f4xx_hal_dma_ex.c:207:15
	ldr	r1, [r0, #64]
	.loc	6 207 45 is_stmt 0              @ ../Library/STM32F4xx_HAL_Driver/Src/stm32f4xx_hal_dma_ex.c:207:45
	cbnz	r1, .LBB1_112
.Ltmp153:
@ %bb.111:
	@DEBUG_VALUE: HAL_DMAEx_MultiBufferStart_IT:hdma <- $r0
	@DEBUG_VALUE: HAL_DMAEx_MultiBufferStart_IT:DataLength <- [DW_OP_plus_uconst 16] [$sp+0]
	@DEBUG_VALUE: HAL_DMAEx_MultiBufferStart_IT:DstAddress <- [DW_OP_LLVM_entry_value 1] $r2
	@DEBUG_VALUE: HAL_DMAEx_MultiBufferStart_IT:SecondMemAddress <- [DW_OP_LLVM_entry_value 1] $r3
	@DEBUG_VALUE: HAL_DMAEx_MultiBufferStart_IT:SrcAddress <- [DW_OP_LLVM_entry_value 1] $r1
	@DEBUG_VALUE: HAL_DMAEx_MultiBufferStart_IT:status <- 0
	.loc	6 207 55                        @ ../Library/STM32F4xx_HAL_Driver/Src/stm32f4xx_hal_dma_ex.c:207:55
	ldr	r0, [r0, #72]
.Ltmp154:
	@DEBUG_VALUE: HAL_DMAEx_MultiBufferStart_IT:hdma <- [DW_OP_LLVM_entry_value 1] $r0
	.loc	6 207 8                         @ ../Library/STM32F4xx_HAL_Driver/Src/stm32f4xx_hal_dma_ex.c:207:8
	cbz	r0, .LBB1_113
.Ltmp155:
.LBB1_112:
	@DEBUG_VALUE: HAL_DMAEx_MultiBufferStart_IT:DataLength <- [DW_OP_plus_uconst 16] [$sp+0]
	@DEBUG_VALUE: HAL_DMAEx_MultiBufferStart_IT:DstAddress <- [DW_OP_LLVM_entry_value 1] $r2
	@DEBUG_VALUE: HAL_DMAEx_MultiBufferStart_IT:SecondMemAddress <- [DW_OP_LLVM_entry_value 1] $r3
	@DEBUG_VALUE: HAL_DMAEx_MultiBufferStart_IT:SrcAddress <- [DW_OP_LLVM_entry_value 1] $r1
	@DEBUG_VALUE: HAL_DMAEx_MultiBufferStart_IT:status <- 0
	.loc	6 209 27 is_stmt 1              @ ../Library/STM32F4xx_HAL_Driver/Src/stm32f4xx_hal_dma_ex.c:209:27
	ldr.w	r0, [r12]
	orr	r0, r0, #8
	str.w	r0, [r12]
.Ltmp156:
.LBB1_113:
	@DEBUG_VALUE: HAL_DMAEx_MultiBufferStart_IT:DataLength <- [DW_OP_plus_uconst 16] [$sp+0]
	@DEBUG_VALUE: HAL_DMAEx_MultiBufferStart_IT:DstAddress <- [DW_OP_LLVM_entry_value 1] $r2
	@DEBUG_VALUE: HAL_DMAEx_MultiBufferStart_IT:SecondMemAddress <- [DW_OP_LLVM_entry_value 1] $r3
	@DEBUG_VALUE: HAL_DMAEx_MultiBufferStart_IT:SrcAddress <- [DW_OP_LLVM_entry_value 1] $r1
	@DEBUG_VALUE: HAL_DMAEx_MultiBufferStart_IT:status <- 0
	.loc	6 213 5                         @ ../Library/STM32F4xx_HAL_Driver/Src/stm32f4xx_hal_dma_ex.c:213:5
	ldr.w	r0, [r12]
	orr	r0, r0, #1
	str.w	r0, [r12]
	movs	r0, #0
.Ltmp157:
	.loc	6 224 1                         @ ../Library/STM32F4xx_HAL_Driver/Src/stm32f4xx_hal_dma_ex.c:224:1
	pop	{r4, r5, r6, pc}
.Ltmp158:
.Lfunc_end1:
	.size	HAL_DMAEx_MultiBufferStart_IT, .Lfunc_end1-HAL_DMAEx_MultiBufferStart_IT
	.cfi_endproc
	.cantunwind
	.fnend
                                        @ -- End function
	.section	.text.HAL_DMAEx_ChangeMemory,"ax",%progbits
	.hidden	HAL_DMAEx_ChangeMemory          @ -- Begin function HAL_DMAEx_ChangeMemory
	.globl	HAL_DMAEx_ChangeMemory
	.p2align	1
	.type	HAL_DMAEx_ChangeMemory,%function
	.code	16                              @ @HAL_DMAEx_ChangeMemory
	.thumb_func
HAL_DMAEx_ChangeMemory:
.Lfunc_begin2:
	.loc	6 241 0                         @ ../Library/STM32F4xx_HAL_Driver/Src/stm32f4xx_hal_dma_ex.c:241:0
	.fnstart
	.cfi_startproc
@ %bb.0:
	@DEBUG_VALUE: HAL_DMAEx_ChangeMemory:hdma <- $r0
	@DEBUG_VALUE: HAL_DMAEx_ChangeMemory:hdma <- $r0
	@DEBUG_VALUE: HAL_DMAEx_ChangeMemory:Address <- $r1
	@DEBUG_VALUE: HAL_DMAEx_ChangeMemory:Address <- $r1
	@DEBUG_VALUE: HAL_DMAEx_ChangeMemory:memory <- $r2
	@DEBUG_VALUE: HAL_DMAEx_ChangeMemory:memory <- $r2
	.loc	6 0 0 prologue_end              @ ../Library/STM32F4xx_HAL_Driver/Src/stm32f4xx_hal_dma_ex.c:0:0
	ldr.w	r12, [r0]
	movs	r3, #16
.Ltmp159:
	.loc	6 253 3                         @ ../Library/STM32F4xx_HAL_Driver/Src/stm32f4xx_hal_dma_ex.c:253:3
	movs	r0, #0
.Ltmp160:
	@DEBUG_VALUE: HAL_DMAEx_ChangeMemory:hdma <- [DW_OP_LLVM_entry_value 1] $r0
	.loc	6 242 6                         @ ../Library/STM32F4xx_HAL_Driver/Src/stm32f4xx_hal_dma_ex.c:242:6
	cmp	r2, #0
	it	eq
	moveq	r3, #12
.Ltmp161:
	.loc	6 0 0 is_stmt 0                 @ ../Library/STM32F4xx_HAL_Driver/Src/stm32f4xx_hal_dma_ex.c:0:0
	str.w	r1, [r12, r3]
.Ltmp162:
	.loc	6 253 3 is_stmt 1               @ ../Library/STM32F4xx_HAL_Driver/Src/stm32f4xx_hal_dma_ex.c:253:3
	bx	lr
.Ltmp163:
.Lfunc_end2:
	.size	HAL_DMAEx_ChangeMemory, .Lfunc_end2-HAL_DMAEx_ChangeMemory
	.cfi_endproc
	.cantunwind
	.fnend
                                        @ -- End function
	.section	".note.GNU-stack","",%progbits
	.eabi_attribute	30, 3	@ Tag_ABI_optimization_goals
	.ARM_attribute	16, 1	@ Tag_AV_eba