	.text
	.syntax unified
	.eabi_attribute	67, "2.09"	@ Tag_conformance
	.cpu	cortex-m4
	.eabi_attribute	6, 13	@ Tag_CPU_arch
	.eabi_attribute	7, 77	@ Tag_CPU_arch_profile
	.eabi_attribute	8, 0	@ Tag_ARM_ISA_use
	.eabi_attribute	9, 2	@ Tag_THUMB_ISA_use
	.fpu	fpv4-sp-d16
	.eabi_attribute	27, 1	@ Tag_ABI_HardFP_use
	.eabi_attribute	36, 1	@ Tag_FP_HP_extension
	.eabi_attribute	34, 1	@ Tag_CPU_unaligned_access
	.eabi_attribute	17, 1	@ Tag_ABI_PCS_GOT_use
	.eabi_attribute	20, 2	@ Tag_ABI_FP_denormal
	.eabi_attribute	21, 0	@ Tag_ABI_FP_exceptions
	.eabi_attribute	23, 1	@ Tag_ABI_FP_number_model
	.eabi_attribute	24, 1	@ Tag_ABI_align_needed
	.eabi_attribute	25, 1	@ Tag_ABI_align_preserved
	.eabi_attribute	28, 1	@ Tag_ABI_VFP_args
	.eabi_attribute	38, 1	@ Tag_ABI_FP_16bit_format
	.eabi_attribute	18, 2	@ Tag_ABI_PCS_wchar_t
	.eabi_attribute	26, 1	@ Tag_ABI_enum_size
	.eabi_attribute	14, 0	@ Tag_ABI_PCS_R9_use
	.file	"stm32f4xx_hal_cortex.c"
	.file	1 "C:\\Users\\Hyacincher\\Desktop\\HyTelectrl\\Code\\Project" "../Library/CMSIS/stm32f429xx.h"
	.file	2 "C:\\Users\\Hyacincher\\Desktop\\HyTelectrl\\Code\\Project" "../Library/CMSIS\\stm32f4xx.h"
	.file	3 "D:\\Keil MDK\\ARM\\ARMCLANG\\Bin\\..\\include" "stdint.h"
	.file	4 "C:\\Users\\Hyacincher\\Desktop\\HyTelectrl\\Code\\Project" "../Library/CMSIS/core_cm4.h"
	.section	.text.HAL_NVIC_SetPriorityGrouping,"ax",%progbits
	.hidden	HAL_NVIC_SetPriorityGrouping    @ -- Begin function HAL_NVIC_SetPriorityGrouping
	.globl	HAL_NVIC_SetPriorityGrouping
	.p2align	2
	.type	HAL_NVIC_SetPriorityGrouping,%function
	.code	16                              @ @HAL_NVIC_SetPriorityGrouping
	.thumb_func
HAL_NVIC_SetPriorityGrouping:
.Lfunc_begin0:
	.file	5 "C:\\Users\\Hyacincher\\Desktop\\HyTelectrl\\Code\\Project" "../Library/STM32F4xx_HAL_Driver/Src/stm32f4xx_hal_cortex.c"
	.loc	5 144 0                         @ ../Library/STM32F4xx_HAL_Driver/Src/stm32f4xx_hal_cortex.c:144:0
	.fnstart
	.cfi_sections .debug_frame
	.cfi_startproc
@ %bb.0:
	.save	{r7, lr}
	push	{r7, lr}
	.cfi_def_cfa_offset 8
	.cfi_offset lr, -4
	.cfi_offset r7, -8
	.pad	#8
	sub	sp, #8
	.cfi_def_cfa_offset 16
	str	r0, [sp, #4]
.Ltmp0:
	.loc	5 149 28 prologue_end           @ ../Library/STM32F4xx_HAL_Driver/Src/stm32f4xx_hal_cortex.c:149:28
	ldr	r0, [sp, #4]
	.loc	5 149 3 is_stmt 0               @ ../Library/STM32F4xx_HAL_Driver/Src/stm32f4xx_hal_cortex.c:149:3
	bl	__NVIC_SetPriorityGrouping
	.loc	5 150 1 is_stmt 1               @ ../Library/STM32F4xx_HAL_Driver/Src/stm32f4xx_hal_cortex.c:150:1
	add	sp, #8
	pop	{r7, pc}
.Ltmp1:
.Lfunc_end0:
	.size	HAL_NVIC_SetPriorityGrouping, .Lfunc_end0-HAL_NVIC_SetPriorityGrouping
	.cfi_endproc
	.cantunwind
	.fnend
                                        @ -- End function
	.section	.text.__NVIC_SetPriorityGrouping,"ax",%progbits
	.p2align	2                               @ -- Begin function __NVIC_SetPriorityGrouping
	.type	__NVIC_SetPriorityGrouping,%function
	.code	16                              @ @__NVIC_SetPriorityGrouping
	.thumb_func
__NVIC_SetPriorityGrouping:
.Lfunc_begin1:
	.loc	4 1658 0                        @ ../Library/CMSIS/core_cm4.h:1658:0
	.fnstart
	.cfi_startproc
@ %bb.0:
	.pad	#12
	sub	sp, #12
	.cfi_def_cfa_offset 12
	str	r0, [sp, #8]
.Ltmp2:
	.loc	4 1660 32 prologue_end          @ ../Library/CMSIS/core_cm4.h:1660:32
	ldr	r0, [sp, #8]
	.loc	4 1660 46 is_stmt 0             @ ../Library/CMSIS/core_cm4.h:1660:46
	and	r0, r0, #7
	.loc	4 1660 12                       @ ../Library/CMSIS/core_cm4.h:1660:12
	str	r0, [sp]
	movw	r1, #60684
	movt	r1, #57344
	.loc	4 1662 22 is_stmt 1             @ ../Library/CMSIS/core_cm4.h:1662:22
	ldr	r0, [r1]
	.loc	4 1662 14 is_stmt 0             @ ../Library/CMSIS/core_cm4.h:1662:14
	str	r0, [sp, #4]
	.loc	4 1663 13 is_stmt 1             @ ../Library/CMSIS/core_cm4.h:1663:13
	ldr	r0, [sp, #4]
	movw	r2, #63743
	ands	r0, r2
	str	r0, [sp, #4]
	.loc	4 1664 18                       @ ../Library/CMSIS/core_cm4.h:1664:18
	ldr	r0, [sp, #4]
	.loc	4 1666 18                       @ ../Library/CMSIS/core_cm4.h:1666:18
	ldr	r2, [sp]
	.loc	4 1664 62                       @ ../Library/CMSIS/core_cm4.h:1664:62
	orr.w	r0, r0, r2, lsl #8
	movs	r2, #0
	movt	r2, #1530
	.loc	4 1665 62                       @ ../Library/CMSIS/core_cm4.h:1665:62
	orrs	r0, r2
	.loc	4 1664 14                       @ ../Library/CMSIS/core_cm4.h:1664:14
	str	r0, [sp, #4]
	.loc	4 1667 17                       @ ../Library/CMSIS/core_cm4.h:1667:17
	ldr	r0, [sp, #4]
	.loc	4 1667 14 is_stmt 0             @ ../Library/CMSIS/core_cm4.h:1667:14
	str	r0, [r1]
	.loc	4 1668 1 is_stmt 1              @ ../Library/CMSIS/core_cm4.h:1668:1
	add	sp, #12
	bx	lr
.Ltmp3:
.Lfunc_end1:
	.size	__NVIC_SetPriorityGrouping, .Lfunc_end1-__NVIC_SetPriorityGrouping
	.cfi_endproc
	.cantunwind
	.fnend
                                        @ -- End function
	.section	.text.HAL_NVIC_SetPriority,"ax",%progbits
	.hidden	HAL_NVIC_SetPriority            @ -- Begin function HAL_NVIC_SetPriority
	.globl	HAL_NVIC_SetPriority
	.p2align	2
	.type	HAL_NVIC_SetPriority,%function
	.code	16                              @ @HAL_NVIC_SetPriority
	.thumb_func
HAL_NVIC_SetPriority:
.Lfunc_begin2:
	.loc	5 166 0                         @ ../Library/STM32F4xx_HAL_Driver/Src/stm32f4xx_hal_cortex.c:166:0
	.fnstart
	.cfi_startproc
@ %bb.0:
	.save	{r7, lr}
	push	{r7, lr}
	.cfi_def_cfa_offset 8
	.cfi_offset lr, -4
	.cfi_offset r7, -8
	.pad	#24
	sub	sp, #24
	.cfi_def_cfa_offset 32
                                        @ kill: def $r3 killed $r0
	strb.w	r0, [sp, #23]
	str	r1, [sp, #16]
	str	r2, [sp, #12]
	movs	r0, #0
.Ltmp4:
	.loc	5 167 12 prologue_end           @ ../Library/STM32F4xx_HAL_Driver/Src/stm32f4xx_hal_cortex.c:167:12
	str	r0, [sp, #8]
	.loc	5 173 19                        @ ../Library/STM32F4xx_HAL_Driver/Src/stm32f4xx_hal_cortex.c:173:19
	bl	__NVIC_GetPriorityGrouping
	.loc	5 173 17 is_stmt 0              @ ../Library/STM32F4xx_HAL_Driver/Src/stm32f4xx_hal_cortex.c:173:17
	str	r0, [sp, #8]
	.loc	5 175 20 is_stmt 1              @ ../Library/STM32F4xx_HAL_Driver/Src/stm32f4xx_hal_cortex.c:175:20
	ldrsb.w	r0, [sp, #23]
	.loc	5 175 46 is_stmt 0              @ ../Library/STM32F4xx_HAL_Driver/Src/stm32f4xx_hal_cortex.c:175:46
	str	r0, [sp, #4]                    @ 4-byte Spill
	ldr	r0, [sp, #8]
	.loc	5 175 61                        @ ../Library/STM32F4xx_HAL_Driver/Src/stm32f4xx_hal_cortex.c:175:61
	ldr	r1, [sp, #16]
	.loc	5 175 78                        @ ../Library/STM32F4xx_HAL_Driver/Src/stm32f4xx_hal_cortex.c:175:78
	ldr	r2, [sp, #12]
	.loc	5 175 26                        @ ../Library/STM32F4xx_HAL_Driver/Src/stm32f4xx_hal_cortex.c:175:26
	bl	NVIC_EncodePriority
	mov	r1, r0
	.loc	5 175 3                         @ ../Library/STM32F4xx_HAL_Driver/Src/stm32f4xx_hal_cortex.c:175:3
	ldr	r0, [sp, #4]                    @ 4-byte Reload
	bl	__NVIC_SetPriority
	.loc	5 176 1 is_stmt 1               @ ../Library/STM32F4xx_HAL_Driver/Src/stm32f4xx_hal_cortex.c:176:1
	add	sp, #24
	pop	{r7, pc}
.Ltmp5:
.Lfunc_end2:
	.size	HAL_NVIC_SetPriority, .Lfunc_end2-HAL_NVIC_SetPriority
	.cfi_endproc
	.cantunwind
	.fnend
                                        @ -- End function
	.section	.text.__NVIC_GetPriorityGrouping,"ax",%progbits
	.p2align	2                               @ -- Begin function __NVIC_GetPriorityGrouping
	.type	__NVIC_GetPriorityGrouping,%function
	.code	16                              @ @__NVIC_GetPriorityGrouping
	.thumb_func
__NVIC_GetPriorityGrouping:
.Lfunc_begin3:
	.loc	4 1677 0                        @ ../Library/CMSIS/core_cm4.h:1677:0
	.fnstart
	.cfi_startproc
@ %bb.0:
	movw	r0, #60684
	movt	r0, #57344
.Ltmp6:
	.loc	4 1678 28 prologue_end          @ ../Library/CMSIS/core_cm4.h:1678:28
	ldr	r0, [r0]
	.loc	4 1678 60 is_stmt 0             @ ../Library/CMSIS/core_cm4.h:1678:60
	ubfx	r0, r0, #8, #3
	.loc	4 1678 3                        @ ../Library/CMSIS/core_cm4.h:1678:3
	bx	lr
.Ltmp7:
.Lfunc_end3:
	.size	__NVIC_GetPriorityGrouping, .Lfunc_end3-__NVIC_GetPriorityGrouping
	.cfi_endproc
	.cantunwind
	.fnend
                                        @ -- End function
	.section	.text.__NVIC_SetPriority,"ax",%progbits
	.p2align	2                               @ -- Begin function __NVIC_SetPriority
	.type	__NVIC_SetPriority,%function
	.code	16                              @ @__NVIC_SetPriority
	.thumb_func
__NVIC_SetPriority:
.Lfunc_begin4:
	.loc	4 1817 0 is_stmt 1              @ ../Library/CMSIS/core_cm4.h:1817:0
	.fnstart
	.cfi_startproc
@ %bb.0:
	.pad	#8
	sub	sp, #8
	.cfi_def_cfa_offset 8
                                        @ kill: def $r2 killed $r0
	strb.w	r0, [sp, #7]
	str	r1, [sp]
.Ltmp8:
	.loc	4 1818 17 prologue_end          @ ../Library/CMSIS/core_cm4.h:1818:17
	ldrsb.w	r0, [sp, #7]
.Ltmp9:
	.loc	4 1818 7 is_stmt 0              @ ../Library/CMSIS/core_cm4.h:1818:7
	cmp	r0, #0
	bmi	.LBB4_2
	b	.LBB4_1
.LBB4_1:
.Ltmp10:
	.loc	4 1820 59 is_stmt 1             @ ../Library/CMSIS/core_cm4.h:1820:59
	ldr	r0, [sp]
	.loc	4 1820 68 is_stmt 0             @ ../Library/CMSIS/core_cm4.h:1820:68
	lsls	r0, r0, #4
	.loc	4 1820 25                       @ ../Library/CMSIS/core_cm4.h:1820:25
	ldrsb.w	r1, [sp, #7]
	movw	r2, #58368
	movt	r2, #57344
	.loc	4 1820 46                       @ ../Library/CMSIS/core_cm4.h:1820:46
	strb	r0, [r1, r2]
	.loc	4 1821 3 is_stmt 1              @ ../Library/CMSIS/core_cm4.h:1821:3
	b	.LBB4_3
.Ltmp11:
.LBB4_2:
	.loc	4 1824 59                       @ ../Library/CMSIS/core_cm4.h:1824:59
	ldr	r0, [sp]
	.loc	4 1824 68 is_stmt 0             @ ../Library/CMSIS/core_cm4.h:1824:68
	lsls	r0, r0, #4
	.loc	4 1824 16                       @ ../Library/CMSIS/core_cm4.h:1824:16
	ldrb.w	r1, [sp, #7]
	.loc	4 1824 32                       @ ../Library/CMSIS/core_cm4.h:1824:32
	and	r1, r1, #15
	movw	r2, #60692
	movt	r2, #57344
	.loc	4 1824 46                       @ ../Library/CMSIS/core_cm4.h:1824:46
	strb	r0, [r1, r2]
	b	.LBB4_3
.Ltmp12:
.LBB4_3:
	.loc	4 1826 1 is_stmt 1              @ ../Library/CMSIS/core_cm4.h:1826:1
	add	sp, #8
	bx	lr
.Ltmp13:
.Lfunc_end4:
	.size	__NVIC_SetPriority, .Lfunc_end4-__NVIC_SetPriority
	.cfi_endproc
	.cantunwind
	.fnend
                                        @ -- End function
	.section	.text.NVIC_EncodePriority,"ax",%progbits
	.p2align	2                               @ -- Begin function NVIC_EncodePriority
	.type	NVIC_EncodePriority,%function
	.code	16                              @ @NVIC_EncodePriority
	.thumb_func
NVIC_EncodePriority:
.Lfunc_begin5:
	.loc	4 1864 0                        @ ../Library/CMSIS/core_cm4.h:1864:0
	.fnstart
	.cfi_startproc
@ %bb.0:
	.pad	#32
	sub	sp, #32
	.cfi_def_cfa_offset 32
	str	r0, [sp, #28]
	str	r1, [sp, #24]
	str	r2, [sp, #20]
.Ltmp14:
	.loc	4 1865 32 prologue_end          @ ../Library/CMSIS/core_cm4.h:1865:32
	ldr	r0, [sp, #28]
	.loc	4 1865 46 is_stmt 0             @ ../Library/CMSIS/core_cm4.h:1865:46
	and	r0, r0, #7
	.loc	4 1865 12                       @ ../Library/CMSIS/core_cm4.h:1865:12
	str	r0, [sp, #16]
	.loc	4 1869 33 is_stmt 1             @ ../Library/CMSIS/core_cm4.h:1869:33
	ldr	r0, [sp, #16]
	.loc	4 1869 31 is_stmt 0             @ ../Library/CMSIS/core_cm4.h:1869:31
	rsb.w	r0, r0, #7
	.loc	4 1869 25                       @ ../Library/CMSIS/core_cm4.h:1869:25
	cmp	r0, #5
	blo	.LBB5_2
	b	.LBB5_1
.LBB5_1:
	.loc	4 0 25                          @ ../Library/CMSIS/core_cm4.h:0:25
	movs	r0, #4
	.loc	4 1869 25                       @ ../Library/CMSIS/core_cm4.h:1869:25
	str	r0, [sp, #4]                    @ 4-byte Spill
	b	.LBB5_3
.LBB5_2:
	.loc	4 1869 133                      @ ../Library/CMSIS/core_cm4.h:1869:133
	ldr	r0, [sp, #16]
	.loc	4 1869 131                      @ ../Library/CMSIS/core_cm4.h:1869:131
	rsb.w	r0, r0, #7
	.loc	4 1869 25                       @ ../Library/CMSIS/core_cm4.h:1869:25
	str	r0, [sp, #4]                    @ 4-byte Spill
	b	.LBB5_3
.LBB5_3:
	ldr	r0, [sp, #4]                    @ 4-byte Reload
	.loc	4 1869 23                       @ ../Library/CMSIS/core_cm4.h:1869:23
	str	r0, [sp, #12]
	.loc	4 1870 27 is_stmt 1             @ ../Library/CMSIS/core_cm4.h:1870:27
	ldr	r0, [sp, #16]
	.loc	4 1870 44 is_stmt 0             @ ../Library/CMSIS/core_cm4.h:1870:44
	adds	r0, #4
	.loc	4 1870 25                       @ ../Library/CMSIS/core_cm4.h:1870:25
	cmp	r0, #6
	bhi	.LBB5_5
	b	.LBB5_4
.LBB5_4:
	.loc	4 0 25                          @ ../Library/CMSIS/core_cm4.h:0:25
	movs	r0, #0
	.loc	4 1870 25                       @ ../Library/CMSIS/core_cm4.h:1870:25
	str	r0, [sp]                        @ 4-byte Spill
	b	.LBB5_6
.LBB5_5:
	.loc	4 1870 123                      @ ../Library/CMSIS/core_cm4.h:1870:123
	ldr	r0, [sp, #16]
	.loc	4 1870 147                      @ ../Library/CMSIS/core_cm4.h:1870:147
	subs	r0, #3
	.loc	4 1870 25                       @ ../Library/CMSIS/core_cm4.h:1870:25
	str	r0, [sp]                        @ 4-byte Spill
	b	.LBB5_6
.LBB5_6:
	ldr	r0, [sp]                        @ 4-byte Reload
	.loc	4 1870 23                       @ ../Library/CMSIS/core_cm4.h:1870:23
	str	r0, [sp, #8]
	.loc	4 1873 14 is_stmt 1             @ ../Library/CMSIS/core_cm4.h:1873:14
	ldr	r0, [sp, #24]
	.loc	4 1873 52 is_stmt 0             @ ../Library/CMSIS/core_cm4.h:1873:52
	ldr	r1, [sp, #12]
	movs	r2, #1
	.loc	4 1873 48                       @ ../Library/CMSIS/core_cm4.h:1873:48
	lsl.w	r1, r2, r1
	.loc	4 1873 74                       @ ../Library/CMSIS/core_cm4.h:1873:74
	subs	r1, #1
	.loc	4 1873 30                       @ ../Library/CMSIS/core_cm4.h:1873:30
	ands	r0, r1
	.loc	4 1873 85                       @ ../Library/CMSIS/core_cm4.h:1873:85
	ldr	r3, [sp, #8]
	.loc	4 1873 82                       @ ../Library/CMSIS/core_cm4.h:1873:82
	lsls	r0, r3
	.loc	4 1874 14 is_stmt 1             @ ../Library/CMSIS/core_cm4.h:1874:14
	ldr	r1, [sp, #20]
	.loc	4 1874 48 is_stmt 0             @ ../Library/CMSIS/core_cm4.h:1874:48
	lsls	r2, r3
	.loc	4 1874 74                       @ ../Library/CMSIS/core_cm4.h:1874:74
	subs	r2, #1
	.loc	4 1874 30                       @ ../Library/CMSIS/core_cm4.h:1874:30
	ands	r1, r2
	.loc	4 1873 102 is_stmt 1            @ ../Library/CMSIS/core_cm4.h:1873:102
	orrs	r0, r1
	.loc	4 1872 3                        @ ../Library/CMSIS/core_cm4.h:1872:3
	add	sp, #32
	bx	lr
.Ltmp15:
.Lfunc_end5:
	.size	NVIC_EncodePriority, .Lfunc_end5-NVIC_EncodePriority
	.cfi_endproc
	.cantunwind
	.fnend
                                        @ -- End function
	.section	.text.HAL_NVIC_EnableIRQ,"ax",%progbits
	.hidden	HAL_NVIC_EnableIRQ              @ -- Begin function HAL_NVIC_EnableIRQ
	.globl	HAL_NVIC_EnableIRQ
	.p2align	2
	.type	HAL_NVIC_EnableIRQ,%function
	.code	16                              @ @HAL_NVIC_EnableIRQ
	.thumb_func
HAL_NVIC_EnableIRQ:
.Lfunc_begin6:
	.loc	5 188 0                         @ ../Library/STM32F4xx_HAL_Driver/Src/stm32f4xx_hal_cortex.c:188:0
	.fnstart
	.cfi_startproc
@ %bb.0:
	.save	{r7, lr}
	push	{r7, lr}
	.cfi_def_cfa_offset 8
	.cfi_offset lr, -4
	.cfi_offset r7, -8
	.pad	#8
	sub	sp, #8
	.cfi_def_cfa_offset 16
                                        @ kill: def $r1 killed $r0
	strb.w	r0, [sp, #7]
.Ltmp16:
	.loc	5 193 18 prologue_end           @ ../Library/STM32F4xx_HAL_Driver/Src/stm32f4xx_hal_cortex.c:193:18
	ldrsb.w	r0, [sp, #7]
	.loc	5 193 3 is_stmt 0               @ ../Library/STM32F4xx_HAL_Driver/Src/stm32f4xx_hal_cortex.c:193:3
	bl	__NVIC_EnableIRQ
	.loc	5 194 1 is_stmt 1               @ ../Library/STM32F4xx_HAL_Driver/Src/stm32f4xx_hal_cortex.c:194:1
	add	sp, #8
	pop	{r7, pc}
.Ltmp17:
.Lfunc_end6:
	.size	HAL_NVIC_EnableIRQ, .Lfunc_end6-HAL_NVIC_EnableIRQ
	.cfi_endproc
	.cantunwind
	.fnend
                                        @ -- End function
	.section	.text.__NVIC_EnableIRQ,"ax",%progbits
	.p2align	2                               @ -- Begin function __NVIC_EnableIRQ
	.type	__NVIC_EnableIRQ,%function
	.code	16                              @ @__NVIC_EnableIRQ
	.thumb_func
__NVIC_EnableIRQ:
.Lfunc_begin7:
	.loc	4 1689 0                        @ ../Library/CMSIS/core_cm4.h:1689:0
	.fnstart
	.cfi_startproc
@ %bb.0:
	.pad	#4
	sub	sp, #4
	.cfi_def_cfa_offset 4
                                        @ kill: def $r1 killed $r0
	strb.w	r0, [sp, #3]
.Ltmp18:
	.loc	4 1690 17 prologue_end          @ ../Library/CMSIS/core_cm4.h:1690:17
	ldrsb.w	r0, [sp, #3]
.Ltmp19:
	.loc	4 1690 7 is_stmt 0              @ ../Library/CMSIS/core_cm4.h:1690:7
	cmp	r0, #0
	bmi	.LBB7_2
	b	.LBB7_1
.LBB7_1:
.Ltmp20:
	.loc	4 1692 75 is_stmt 1             @ ../Library/CMSIS/core_cm4.h:1692:75
	ldrsb.w	r1, [sp, #3]
	.loc	4 1692 81 is_stmt 0             @ ../Library/CMSIS/core_cm4.h:1692:81
	and	r2, r1, #31
	movs	r0, #1
	.loc	4 1692 60                       @ ../Library/CMSIS/core_cm4.h:1692:60
	lsls	r0, r2
	.loc	4 1692 34                       @ ../Library/CMSIS/core_cm4.h:1692:34
	lsrs	r2, r1, #5
	movw	r1, #57600
	movt	r1, #57344
	.loc	4 1692 43                       @ ../Library/CMSIS/core_cm4.h:1692:43
	str.w	r0, [r1, r2, lsl #2]
	.loc	4 1693 3 is_stmt 1              @ ../Library/CMSIS/core_cm4.h:1693:3
	b	.LBB7_2
.Ltmp21:
.LBB7_2:
	.loc	4 1694 1                        @ ../Library/CMSIS/core_cm4.h:1694:1
	add	sp, #4
	bx	lr
.Ltmp22:
.Lfunc_end7:
	.size	__NVIC_EnableIRQ, .Lfunc_end7-__NVIC_EnableIRQ
	.cfi_endproc
	.cantunwind
	.fnend
                                        @ -- End function
	.section	.text.HAL_NVIC_DisableIRQ,"ax",%progbits
	.hidden	HAL_NVIC_DisableIRQ             @ -- Begin function HAL_NVIC_DisableIRQ
	.globl	HAL_NVIC_DisableIRQ
	.p2align	2
	.type	HAL_NVIC_DisableIRQ,%function
	.code	16                              @ @HAL_NVIC_DisableIRQ
	.thumb_func
HAL_NVIC_DisableIRQ:
.Lfunc_begin8:
	.loc	5 204 0                         @ ../Library/STM32F4xx_HAL_Driver/Src/stm32f4xx_hal_cortex.c:204:0
	.fnstart
	.cfi_startproc
@ %bb.0:
	.save	{r7, lr}
	push	{r7, lr}
	.cfi_def_cfa_offset 8
	.cfi_offset lr, -4
	.cfi_offset r7, -8
	.pad	#8
	sub	sp, #8
	.cfi_def_cfa_offset 16
                                        @ kill: def $r1 killed $r0
	strb.w	r0, [sp, #7]
.Ltmp23:
	.loc	5 209 19 prologue_end           @ ../Library/STM32F4xx_HAL_Driver/Src/stm32f4xx_hal_cortex.c:209:19
	ldrsb.w	r0, [sp, #7]
	.loc	5 209 3 is_stmt 0               @ ../Library/STM32F4xx_HAL_Driver/Src/stm32f4xx_hal_cortex.c:209:3
	bl	__NVIC_DisableIRQ
	.loc	5 210 1 is_stmt 1               @ ../Library/STM32F4xx_HAL_Driver/Src/stm32f4xx_hal_cortex.c:210:1
	add	sp, #8
	pop	{r7, pc}
.Ltmp24:
.Lfunc_end8:
	.size	HAL_NVIC_DisableIRQ, .Lfunc_end8-HAL_NVIC_DisableIRQ
	.cfi_endproc
	.cantunwind
	.fnend
                                        @ -- End function
	.section	.text.__NVIC_DisableIRQ,"ax",%progbits
	.p2align	2                               @ -- Begin function __NVIC_DisableIRQ
	.type	__NVIC_DisableIRQ,%function
	.code	16                              @ @__NVIC_DisableIRQ
	.thumb_func
__NVIC_DisableIRQ:
.Lfunc_begin9:
	.loc	4 1725 0                        @ ../Library/CMSIS/core_cm4.h:1725:0
	.fnstart
	.cfi_startproc
@ %bb.0:
	.pad	#4
	sub	sp, #4
	.cfi_def_cfa_offset 4
                                        @ kill: def $r1 killed $r0
	strb.w	r0, [sp, #3]
.Ltmp25:
	.loc	4 1726 17 prologue_end          @ ../Library/CMSIS/core_cm4.h:1726:17
	ldrsb.w	r0, [sp, #3]
.Ltmp26:
	.loc	4 1726 7 is_stmt 0              @ ../Library/CMSIS/core_cm4.h:1726:7
	cmp	r0, #0
	bmi	.LBB9_2
	b	.LBB9_1
.LBB9_1:
.Ltmp27:
	.loc	4 1728 75 is_stmt 1             @ ../Library/CMSIS/core_cm4.h:1728:75
	ldrsb.w	r1, [sp, #3]
	.loc	4 1728 81 is_stmt 0             @ ../Library/CMSIS/core_cm4.h:1728:81
	and	r2, r1, #31
	movs	r0, #1
	.loc	4 1728 60                       @ ../Library/CMSIS/core_cm4.h:1728:60
	lsls	r0, r2
	.loc	4 1728 34                       @ ../Library/CMSIS/core_cm4.h:1728:34
	lsrs	r2, r1, #5
	movw	r1, #57728
	movt	r1, #57344
	.loc	4 1728 43                       @ ../Library/CMSIS/core_cm4.h:1728:43
	str.w	r0, [r1, r2, lsl #2]
	.loc	4 1729 5 is_stmt 1              @ ../Library/CMSIS/core_cm4.h:1729:5
	dsb	sy
	.loc	4 1730 5                        @ ../Library/CMSIS/core_cm4.h:1730:5
	isb	sy
	.loc	4 1731 3                        @ ../Library/CMSIS/core_cm4.h:1731:3
	b	.LBB9_2
.Ltmp28:
.LBB9_2:
	.loc	4 1732 1                        @ ../Library/CMSIS/core_cm4.h:1732:1
	add	sp, #4
	bx	lr
.Ltmp29:
.Lfunc_end9:
	.size	__NVIC_DisableIRQ, .Lfunc_end9-__NVIC_DisableIRQ
	.cfi_endproc
	.cantunwind
	.fnend
                                        @ -- End function
	.section	.text.HAL_NVIC_SystemReset,"ax",%progbits
	.hidden	HAL_NVIC_SystemReset            @ -- Begin function HAL_NVIC_SystemReset
	.globl	HAL_NVIC_SystemReset
	.p2align	2
	.type	HAL_NVIC_SystemReset,%function
	.code	16                              @ @HAL_NVIC_SystemReset
	.thumb_func
HAL_NVIC_SystemReset:
.Lfunc_begin10:
	.loc	5 217 0                         @ ../Library/STM32F4xx_HAL_Driver/Src/stm32f4xx_hal_cortex.c:217:0
	.fnstart
	.cfi_startproc
@ %bb.0:
	.loc	5 219 3 prologue_end            @ ../Library/STM32F4xx_HAL_Driver/Src/stm32f4xx_hal_cortex.c:219:3
	bl	__NVIC_SystemReset
.Ltmp30:
.Lfunc_end10:
	.size	HAL_NVIC_SystemReset, .Lfunc_end10-HAL_NVIC_SystemReset
	.cfi_endproc
	.cantunwind
	.fnend
                                        @ -- End function
	.section	.text.__NVIC_SystemReset,"ax",%progbits
	.p2align	2                               @ -- Begin function __NVIC_SystemReset
	.type	__NVIC_SystemReset,%function
	.code	16                              @ @__NVIC_SystemReset
	.thumb_func
__NVIC_SystemReset:
.Lfunc_begin11:
	.loc	4 1940 0                        @ ../Library/CMSIS/core_cm4.h:1940:0
	.fnstart
	.cfi_startproc
@ %bb.0:
	.loc	4 1941 3 prologue_end           @ ../Library/CMSIS/core_cm4.h:1941:3
	dsb	sy
	movw	r1, #60684
	movt	r1, #57344
	.loc	4 1944 34                       @ ../Library/CMSIS/core_cm4.h:1944:34
	ldr	r0, [r1]
	.loc	4 1944 40 is_stmt 0             @ ../Library/CMSIS/core_cm4.h:1944:40
	and	r0, r0, #1792
	movs	r2, #4
	movt	r2, #1530
	.loc	4 1944 66                       @ ../Library/CMSIS/core_cm4.h:1944:66
	orrs	r0, r2
	.loc	4 1943 15 is_stmt 1             @ ../Library/CMSIS/core_cm4.h:1943:15
	str	r0, [r1]
	.loc	4 1946 3                        @ ../Library/CMSIS/core_cm4.h:1946:3
	dsb	sy
	.loc	4 1948 3                        @ ../Library/CMSIS/core_cm4.h:1948:3
	b	.LBB11_1
.LBB11_1:                               @ =>This Inner Loop Header: Depth=1
.Ltmp31:
	.loc	4 1950 5                        @ ../Library/CMSIS/core_cm4.h:1950:5
	nop
.Ltmp32:
	.loc	4 1948 3                        @ ../Library/CMSIS/core_cm4.h:1948:3
	b	.LBB11_1
.Ltmp33:
.Lfunc_end11:
	.size	__NVIC_SystemReset, .Lfunc_end11-__NVIC_SystemReset
	.cfi_endproc
	.cantunwind
	.fnend
                                        @ -- End function
	.section	.text.HAL_SYSTICK_Config,"ax",%progbits
	.hidden	HAL_SYSTICK_Config              @ -- Begin function HAL_SYSTICK_Config
	.globl	HAL_SYSTICK_Config
	.p2align	2
	.type	HAL_SYSTICK_Config,%function
	.code	16                              @ @HAL_SYSTICK_Config
	.thumb_func
HAL_SYSTICK_Config:
.Lfunc_begin12:
	.loc	5 230 0                         @ ../Library/STM32F4xx_HAL_Driver/Src/stm32f4xx_hal_cortex.c:230:0
	.fnstart
	.cfi_startproc
@ %bb.0:
	.save	{r7, lr}
	push	{r7, lr}
	.cfi_def_cfa_offset 8
	.cfi_offset lr, -4
	.cfi_offset r7, -8
	.pad	#8
	sub	sp, #8
	.cfi_def_cfa_offset 16
	str	r0, [sp, #4]
.Ltmp34:
	.loc	5 231 26 prologue_end           @ ../Library/STM32F4xx_HAL_Driver/Src/stm32f4xx_hal_cortex.c:231:26
	ldr	r0, [sp, #4]
	.loc	5 231 11 is_stmt 0              @ ../Library/STM32F4xx_HAL_Driver/Src/stm32f4xx_hal_cortex.c:231:11
	bl	SysTick_Config
	.loc	5 231 4                         @ ../Library/STM32F4xx_HAL_Driver/Src/stm32f4xx_hal_cortex.c:231:4
	add	sp, #8
	pop	{r7, pc}
.Ltmp35:
.Lfunc_end12:
	.size	HAL_SYSTICK_Config, .Lfunc_end12-HAL_SYSTICK_Config
	.cfi_endproc
	.cantunwind
	.fnend
                                        @ -- End function
	.section	.text.SysTick_Config,"ax",%progbits
	.p2align	2                               @ -- Begin function SysTick_Config
	.type	SysTick_Config,%function
	.code	16                              @ @SysTick_Config
	.thumb_func
SysTick_Config:
.Lfunc_begin13:
	.loc	4 2023 0 is_stmt 1              @ ../Library/CMSIS/core_cm4.h:2023:0
	.fnstart
	.cfi_startproc
@ %bb.0:
	.save	{r7, lr}
	push	{r7, lr}
	.cfi_def_cfa_offset 8
	.cfi_offset lr, -4
	.cfi_offset r7, -8
	.pad	#8
	sub	sp, #8
	.cfi_def_cfa_offset 16
	str	r0, [sp]
.Ltmp36:
	.loc	4 2024 8 prologue_end           @ ../Library/CMSIS/core_cm4.h:2024:8
	ldr	r0, [sp]
	.loc	4 2024 14 is_stmt 0             @ ../Library/CMSIS/core_cm4.h:2024:14
	subs	r0, #1
.Ltmp37:
	.loc	4 2024 7                        @ ../Library/CMSIS/core_cm4.h:2024:7
	cmp.w	r0, #16777216
	blo	.LBB13_2
	b	.LBB13_1
.LBB13_1:
	.loc	4 0 7                           @ ../Library/CMSIS/core_cm4.h:0:7
	movs	r0, #1
.Ltmp38:
	.loc	4 2026 5 is_stmt 1              @ ../Library/CMSIS/core_cm4.h:2026:5
	str	r0, [sp, #4]
	b	.LBB13_3
.Ltmp39:
.LBB13_2:
	.loc	4 2029 31                       @ ../Library/CMSIS/core_cm4.h:2029:31
	ldr	r0, [sp]
	.loc	4 2029 37 is_stmt 0             @ ../Library/CMSIS/core_cm4.h:2029:37
	subs	r0, #1
	movw	r1, #57364
	movt	r1, #57344
	.loc	4 2029 18                       @ ../Library/CMSIS/core_cm4.h:2029:18
	str	r0, [r1]
	mov.w	r0, #-1
	movs	r1, #15
	.loc	4 2030 3 is_stmt 1              @ ../Library/CMSIS/core_cm4.h:2030:3
	bl	__NVIC_SetPriority
	movw	r1, #57368
	movt	r1, #57344
	movs	r0, #0
	.loc	4 2031 18                       @ ../Library/CMSIS/core_cm4.h:2031:18
	str	r0, [r1]
	movw	r2, #57360
	movt	r2, #57344
	movs	r1, #7
	.loc	4 2032 18                       @ ../Library/CMSIS/core_cm4.h:2032:18
	str	r1, [r2]
	.loc	4 2035 3                        @ ../Library/CMSIS/core_cm4.h:2035:3
	str	r0, [sp, #4]
	b	.LBB13_3
.LBB13_3:
	.loc	4 2036 1                        @ ../Library/CMSIS/core_cm4.h:2036:1
	ldr	r0, [sp, #4]
	add	sp, #8
	pop	{r7, pc}
.Ltmp40:
.Lfunc_end13:
	.size	SysTick_Config, .Lfunc_end13-SysTick_Config
	.cfi_endproc
	.cantunwind
	.fnend
                                        @ -- End function
	.section	.text.HAL_MPU_Disable,"ax",%progbits
	.hidden	HAL_MPU_Disable                 @ -- Begin function HAL_MPU_Disable
	.globl	HAL_MPU_Disable
	.p2align	2
	.type	HAL_MPU_Disable,%function
	.code	16                              @ @HAL_MPU_Disable
	.thumb_func
HAL_MPU_Disable:
.Lfunc_begin14:
	.loc	5 259 0                         @ ../Library/STM32F4xx_HAL_Driver/Src/stm32f4xx_hal_cortex.c:259:0
	.fnstart
	.cfi_startproc
@ %bb.0:
	.loc	5 261 3 prologue_end            @ ../Library/STM32F4xx_HAL_Driver/Src/stm32f4xx_hal_cortex.c:261:3
	dmb	sy
	movw	r1, #60708
	movt	r1, #57344
	.loc	5 264 14                        @ ../Library/STM32F4xx_HAL_Driver/Src/stm32f4xx_hal_cortex.c:264:14
	ldr	r0, [r1]
	bic	r0, r0, #65536
	str	r0, [r1]
	movw	r1, #60820
	movt	r1, #57344
	movs	r0, #0
	.loc	5 267 13                        @ ../Library/STM32F4xx_HAL_Driver/Src/stm32f4xx_hal_cortex.c:267:13
	str	r0, [r1]
	.loc	5 268 1                         @ ../Library/STM32F4xx_HAL_Driver/Src/stm32f4xx_hal_cortex.c:268:1
	bx	lr
.Ltmp41:
.Lfunc_end14:
	.size	HAL_MPU_Disable, .Lfunc_end14-HAL_MPU_Disable
	.cfi_endproc
	.cantunwind
	.fnend
                                        @ -- End function
	.section	.text.HAL_MPU_Enable,"ax",%progbits
	.hidden	HAL_MPU_Enable                  @ -- Begin function HAL_MPU_Enable
	.globl	HAL_MPU_Enable
	.p2align	2
	.type	HAL_MPU_Enable,%function
	.code	16                              @ @HAL_MPU_Enable
	.thumb_func
HAL_MPU_Enable:
.Lfunc_begin15:
	.loc	5 282 0                         @ ../Library/STM32F4xx_HAL_Driver/Src/stm32f4xx_hal_cortex.c:282:0
	.fnstart
	.cfi_startproc
@ %bb.0:
	.pad	#4
	sub	sp, #4
	.cfi_def_cfa_offset 4
	str	r0, [sp]
.Ltmp42:
	.loc	5 284 15 prologue_end           @ ../Library/STM32F4xx_HAL_Driver/Src/stm32f4xx_hal_cortex.c:284:15
	ldr	r0, [sp]
	.loc	5 284 27 is_stmt 0              @ ../Library/STM32F4xx_HAL_Driver/Src/stm32f4xx_hal_cortex.c:284:27
	orr	r0, r0, #1
	movw	r1, #60820
	movt	r1, #57344
	.loc	5 284 13                        @ ../Library/STM32F4xx_HAL_Driver/Src/stm32f4xx_hal_cortex.c:284:13
	str	r0, [r1]
	movw	r1, #60708
	movt	r1, #57344
	.loc	5 287 14 is_stmt 1              @ ../Library/STM32F4xx_HAL_Driver/Src/stm32f4xx_hal_cortex.c:287:14
	ldr	r0, [r1]
	orr	r0, r0, #65536
	str	r0, [r1]
	.loc	5 290 3                         @ ../Library/STM32F4xx_HAL_Driver/Src/stm32f4xx_hal_cortex.c:290:3
	dsb	sy
	.loc	5 291 3                         @ ../Library/STM32F4xx_HAL_Driver/Src/stm32f4xx_hal_cortex.c:291:3
	isb	sy
	.loc	5 292 1                         @ ../Library/STM32F4xx_HAL_Driver/Src/stm32f4xx_hal_cortex.c:292:1
	add	sp, #4
	bx	lr
.Ltmp43:
.Lfunc_end15:
	.size	HAL_MPU_Enable, .Lfunc_end15-HAL_MPU_Enable
	.cfi_endproc
	.cantunwind
	.fnend
                                        @ -- End function
	.section	.text.HAL_MPU_ConfigRegion,"ax",%progbits
	.hidden	HAL_MPU_ConfigRegion            @ -- Begin function HAL_MPU_ConfigRegion
	.globl	HAL_MPU_ConfigRegion
	.p2align	2
	.type	HAL_MPU_ConfigRegion,%function
	.code	16                              @ @HAL_MPU_ConfigRegion
	.thumb_func
HAL_MPU_ConfigRegion:
.Lfunc_begin16:
	.loc	5 301 0                         @ ../Library/STM32F4xx_HAL_Driver/Src/stm32f4xx_hal_cortex.c:301:0
	.fnstart
	.cfi_startproc
@ %bb.0:
	.save	{r7, lr}
	push	{r7, lr}
	.cfi_def_cfa_offset 8
	.cfi_offset lr, -4
	.cfi_offset r7, -8
	.pad	#8
	sub	sp, #8
	.cfi_def_cfa_offset 16
	str	r0, [sp, #4]
.Ltmp44:
	.loc	5 307 14 prologue_end           @ ../Library/STM32F4xx_HAL_Driver/Src/stm32f4xx_hal_cortex.c:307:14
	ldr	r0, [sp, #4]
	.loc	5 307 24 is_stmt 0              @ ../Library/STM32F4xx_HAL_Driver/Src/stm32f4xx_hal_cortex.c:307:24
	ldrb	r0, [r0, #1]
	movw	r1, #60824
	movt	r1, #57344
	.loc	5 307 12                        @ ../Library/STM32F4xx_HAL_Driver/Src/stm32f4xx_hal_cortex.c:307:12
	str	r0, [r1]
.Ltmp45:
	.loc	5 309 8 is_stmt 1               @ ../Library/STM32F4xx_HAL_Driver/Src/stm32f4xx_hal_cortex.c:309:8
	ldr	r0, [sp, #4]
	.loc	5 309 18 is_stmt 0              @ ../Library/STM32F4xx_HAL_Driver/Src/stm32f4xx_hal_cortex.c:309:18
	ldrb	r0, [r0]
.Ltmp46:
	.loc	5 309 7                         @ ../Library/STM32F4xx_HAL_Driver/Src/stm32f4xx_hal_cortex.c:309:7
	cbz	r0, .LBB16_2
	b	.LBB16_1
.LBB16_1:
.Ltmp47:
	.loc	5 321 17 is_stmt 1              @ ../Library/STM32F4xx_HAL_Driver/Src/stm32f4xx_hal_cortex.c:321:17
	ldr	r0, [sp, #4]
	.loc	5 321 27 is_stmt 0              @ ../Library/STM32F4xx_HAL_Driver/Src/stm32f4xx_hal_cortex.c:321:27
	ldr	r0, [r0, #4]
	movw	r1, #60828
	movt	r1, #57344
	.loc	5 321 15                        @ ../Library/STM32F4xx_HAL_Driver/Src/stm32f4xx_hal_cortex.c:321:15
	str	r0, [r1]
	.loc	5 322 28 is_stmt 1              @ ../Library/STM32F4xx_HAL_Driver/Src/stm32f4xx_hal_cortex.c:322:28
	ldr.w	r12, [sp, #4]
	.loc	5 322 18 is_stmt 0              @ ../Library/STM32F4xx_HAL_Driver/Src/stm32f4xx_hal_cortex.c:322:18
	str.w	r12, [sp]                       @ 4-byte Spill
	ldrb.w	r0, [r12, #12]
	.loc	5 322 62                        @ ../Library/STM32F4xx_HAL_Driver/Src/stm32f4xx_hal_cortex.c:322:62
	lsls	r0, r0, #28
	.loc	5 323 18 is_stmt 1              @ ../Library/STM32F4xx_HAL_Driver/Src/stm32f4xx_hal_cortex.c:323:18
	ldrb.w	r1, [r12, #11]
	.loc	5 322 84                        @ ../Library/STM32F4xx_HAL_Driver/Src/stm32f4xx_hal_cortex.c:322:84
	orr.w	r0, r0, r1, lsl #24
	.loc	5 330 38                        @ ../Library/STM32F4xx_HAL_Driver/Src/stm32f4xx_hal_cortex.c:330:38
	ldrb.w	r1, [r12]
	.loc	5 329 38                        @ ../Library/STM32F4xx_HAL_Driver/Src/stm32f4xx_hal_cortex.c:329:38
	ldrb.w	r2, [r12, #8]
	.loc	5 328 38                        @ ../Library/STM32F4xx_HAL_Driver/Src/stm32f4xx_hal_cortex.c:328:38
	ldrb.w	r3, [r12, #9]
	.loc	5 324 38                        @ ../Library/STM32F4xx_HAL_Driver/Src/stm32f4xx_hal_cortex.c:324:38
	ldrb.w	lr, [r12, #10]
	.loc	5 323 84                        @ ../Library/STM32F4xx_HAL_Driver/Src/stm32f4xx_hal_cortex.c:323:84
	orr.w	r0, r0, lr, lsl #19
	.loc	5 325 38                        @ ../Library/STM32F4xx_HAL_Driver/Src/stm32f4xx_hal_cortex.c:325:38
	ldrb.w	lr, [r12, #13]
	.loc	5 324 84                        @ ../Library/STM32F4xx_HAL_Driver/Src/stm32f4xx_hal_cortex.c:324:84
	orr.w	r0, r0, lr, lsl #18
	.loc	5 326 38                        @ ../Library/STM32F4xx_HAL_Driver/Src/stm32f4xx_hal_cortex.c:326:38
	ldrb.w	lr, [r12, #14]
	.loc	5 325 84                        @ ../Library/STM32F4xx_HAL_Driver/Src/stm32f4xx_hal_cortex.c:325:84
	orr.w	r0, r0, lr, lsl #17
	.loc	5 327 38                        @ ../Library/STM32F4xx_HAL_Driver/Src/stm32f4xx_hal_cortex.c:327:38
	ldrb.w	r12, [r12, #15]
	.loc	5 326 84                        @ ../Library/STM32F4xx_HAL_Driver/Src/stm32f4xx_hal_cortex.c:326:84
	orr.w	r0, r0, r12, lsl #16
	.loc	5 327 84                        @ ../Library/STM32F4xx_HAL_Driver/Src/stm32f4xx_hal_cortex.c:327:84
	orr.w	r0, r0, r3, lsl #8
	.loc	5 328 84                        @ ../Library/STM32F4xx_HAL_Driver/Src/stm32f4xx_hal_cortex.c:328:84
	orr.w	r0, r0, r2, lsl #1
	.loc	5 329 84                        @ ../Library/STM32F4xx_HAL_Driver/Src/stm32f4xx_hal_cortex.c:329:84
	orrs	r0, r1
	movw	r1, #60832
	movt	r1, #57344
	.loc	5 322 15                        @ ../Library/STM32F4xx_HAL_Driver/Src/stm32f4xx_hal_cortex.c:322:15
	str	r0, [r1]
	.loc	5 331 3                         @ ../Library/STM32F4xx_HAL_Driver/Src/stm32f4xx_hal_cortex.c:331:3
	b	.LBB16_3
.Ltmp48:
.LBB16_2:
	.loc	5 0 3 is_stmt 0                 @ ../Library/STM32F4xx_HAL_Driver/Src/stm32f4xx_hal_cortex.c:0:3
	movw	r1, #60828
	movt	r1, #57344
	movs	r0, #0
.Ltmp49:
	.loc	5 334 15 is_stmt 1              @ ../Library/STM32F4xx_HAL_Driver/Src/stm32f4xx_hal_cortex.c:334:15
	str	r0, [r1]
	movw	r1, #60832
	movt	r1, #57344
	.loc	5 335 15                        @ ../Library/STM32F4xx_HAL_Driver/Src/stm32f4xx_hal_cortex.c:335:15
	str	r0, [r1]
	b	.LBB16_3
.Ltmp50:
.LBB16_3:
	.loc	5 337 1                         @ ../Library/STM32F4xx_HAL_Driver/Src/stm32f4xx_hal_cortex.c:337:1
	add	sp, #8
	pop	{r7, pc}
.Ltmp51:
.Lfunc_end16:
	.size	HAL_MPU_ConfigRegion, .Lfunc_end16-HAL_MPU_ConfigRegion
	.cfi_endproc
	.cantunwind
	.fnend
                                        @ -- End function
	.section	.text.HAL_NVIC_GetPriorityGrouping,"ax",%progbits
	.hidden	HAL_NVIC_GetPriorityGrouping    @ -- Begin function HAL_NVIC_GetPriorityGrouping
	.globl	HAL_NVIC_GetPriorityGrouping
	.p2align	2
	.type	HAL_NVIC_GetPriorityGrouping,%function
	.code	16                              @ @HAL_NVIC_GetPriorityGrouping
	.thumb_func
HAL_NVIC_GetPriorityGrouping:
.Lfunc_begin17:
	.loc	5 345 0                         @ ../Library/STM32F4xx_HAL_Driver/Src/stm32f4xx_hal_cortex.c:345:0
	.fnstart
	.cfi_startproc
@ %bb.0:
	.save	{r7, lr}
	push	{r7, lr}
	.cfi_def_cfa_offset 8
	.cfi_offset lr, -4
	.cfi_offset r7, -8
.Ltmp52:
	.loc	5 347 10 prologue_end           @ ../Library/STM32F4xx_HAL_Driver/Src/stm32f4xx_hal_cortex.c:347:10
	bl	__NVIC_GetPriorityGrouping
	.loc	5 347 3 is_stmt 0               @ ../Library/STM32F4xx_HAL_Driver/Src/stm32f4xx_hal_cortex.c:347:3
	pop	{r7, pc}
.Ltmp53:
.Lfunc_end17:
	.size	HAL_NVIC_GetPriorityGrouping, .Lfunc_end17-HAL_NVIC_GetPriorityGrouping
	.cfi_endproc
	.cantunwind
	.fnend
                                        @ -- End function
	.section	.text.HAL_NVIC_GetPriority,"ax",%progbits
	.hidden	HAL_NVIC_GetPriority            @ -- Begin function HAL_NVIC_GetPriority
	.globl	HAL_NVIC_GetPriority
	.p2align	2
	.type	HAL_NVIC_GetPriority,%function
	.code	16                              @ @HAL_NVIC_GetPriority
	.thumb_func
HAL_NVIC_GetPriority:
.Lfunc_begin18:
	.loc	5 372 0 is_stmt 1               @ ../Library/STM32F4xx_HAL_Driver/Src/stm32f4xx_hal_cortex.c:372:0
	.fnstart
	.cfi_startproc
@ %bb.0:
	.save	{r7, lr}
	push	{r7, lr}
	.cfi_def_cfa_offset 8
	.cfi_offset lr, -4
	.cfi_offset r7, -8
	.pad	#16
	sub	sp, #16
	.cfi_def_cfa_offset 24
                                        @ kill: def $r12 killed $r0
	strb.w	r0, [sp, #15]
	str	r1, [sp, #8]
	str	r2, [sp, #4]
	str	r3, [sp]
.Ltmp54:
	.loc	5 376 40 prologue_end           @ ../Library/STM32F4xx_HAL_Driver/Src/stm32f4xx_hal_cortex.c:376:40
	ldrsb.w	r0, [sp, #15]
	.loc	5 376 23 is_stmt 0              @ ../Library/STM32F4xx_HAL_Driver/Src/stm32f4xx_hal_cortex.c:376:23
	bl	__NVIC_GetPriority
	.loc	5 376 47                        @ ../Library/STM32F4xx_HAL_Driver/Src/stm32f4xx_hal_cortex.c:376:47
	ldr	r1, [sp, #8]
	.loc	5 376 62                        @ ../Library/STM32F4xx_HAL_Driver/Src/stm32f4xx_hal_cortex.c:376:62
	ldr	r2, [sp, #4]
	.loc	5 376 80                        @ ../Library/STM32F4xx_HAL_Driver/Src/stm32f4xx_hal_cortex.c:376:80
	ldr	r3, [sp]
	.loc	5 376 3                         @ ../Library/STM32F4xx_HAL_Driver/Src/stm32f4xx_hal_cortex.c:376:3
	bl	NVIC_DecodePriority
	.loc	5 377 1 is_stmt 1               @ ../Library/STM32F4xx_HAL_Driver/Src/stm32f4xx_hal_cortex.c:377:1
	add	sp, #16
	pop	{r7, pc}
.Ltmp55:
.Lfunc_end18:
	.size	HAL_NVIC_GetPriority, .Lfunc_end18-HAL_NVIC_GetPriority
	.cfi_endproc
	.cantunwind
	.fnend
                                        @ -- End function
	.section	.text.NVIC_DecodePriority,"ax",%progbits
	.p2align	2                               @ -- Begin function NVIC_DecodePriority
	.type	NVIC_DecodePriority,%function
	.code	16                              @ @NVIC_DecodePriority
	.thumb_func
NVIC_DecodePriority:
.Lfunc_begin19:
	.loc	4 1891 0                        @ ../Library/CMSIS/core_cm4.h:1891:0
	.fnstart
	.cfi_startproc
@ %bb.0:
	.pad	#36
	sub	sp, #36
	.cfi_def_cfa_offset 36
	str	r0, [sp, #32]
	str	r1, [sp, #28]
	str	r2, [sp, #24]
	str	r3, [sp, #20]
.Ltmp56:
	.loc	4 1892 32 prologue_end          @ ../Library/CMSIS/core_cm4.h:1892:32
	ldr	r0, [sp, #28]
	.loc	4 1892 46 is_stmt 0             @ ../Library/CMSIS/core_cm4.h:1892:46
	and	r0, r0, #7
	.loc	4 1892 12                       @ ../Library/CMSIS/core_cm4.h:1892:12
	str	r0, [sp, #16]
	.loc	4 1896 33 is_stmt 1             @ ../Library/CMSIS/core_cm4.h:1896:33
	ldr	r0, [sp, #16]
	.loc	4 1896 31 is_stmt 0             @ ../Library/CMSIS/core_cm4.h:1896:31
	rsb.w	r0, r0, #7
	.loc	4 1896 25                       @ ../Library/CMSIS/core_cm4.h:1896:25
	cmp	r0, #5
	blo	.LBB19_2
	b	.LBB19_1
.LBB19_1:
	.loc	4 0 25                          @ ../Library/CMSIS/core_cm4.h:0:25
	movs	r0, #4
	.loc	4 1896 25                       @ ../Library/CMSIS/core_cm4.h:1896:25
	str	r0, [sp, #4]                    @ 4-byte Spill
	b	.LBB19_3
.LBB19_2:
	.loc	4 1896 133                      @ ../Library/CMSIS/core_cm4.h:1896:133
	ldr	r0, [sp, #16]
	.loc	4 1896 131                      @ ../Library/CMSIS/core_cm4.h:1896:131
	rsb.w	r0, r0, #7
	.loc	4 1896 25                       @ ../Library/CMSIS/core_cm4.h:1896:25
	str	r0, [sp, #4]                    @ 4-byte Spill
	b	.LBB19_3
.LBB19_3:
	ldr	r0, [sp, #4]                    @ 4-byte Reload
	.loc	4 1896 23                       @ ../Library/CMSIS/core_cm4.h:1896:23
	str	r0, [sp, #12]
	.loc	4 1897 27 is_stmt 1             @ ../Library/CMSIS/core_cm4.h:1897:27
	ldr	r0, [sp, #16]
	.loc	4 1897 44 is_stmt 0             @ ../Library/CMSIS/core_cm4.h:1897:44
	adds	r0, #4
	.loc	4 1897 25                       @ ../Library/CMSIS/core_cm4.h:1897:25
	cmp	r0, #6
	bhi	.LBB19_5
	b	.LBB19_4
.LBB19_4:
	.loc	4 0 25                          @ ../Library/CMSIS/core_cm4.h:0:25
	movs	r0, #0
	.loc	4 1897 25                       @ ../Library/CMSIS/core_cm4.h:1897:25
	str	r0, [sp]                        @ 4-byte Spill
	b	.LBB19_6
.LBB19_5:
	.loc	4 1897 123                      @ ../Library/CMSIS/core_cm4.h:1897:123
	ldr	r0, [sp, #16]
	.loc	4 1897 147                      @ ../Library/CMSIS/core_cm4.h:1897:147
	subs	r0, #3
	.loc	4 1897 25                       @ ../Library/CMSIS/core_cm4.h:1897:25
	str	r0, [sp]                        @ 4-byte Spill
	b	.LBB19_6
.LBB19_6:
	ldr	r0, [sp]                        @ 4-byte Reload
	.loc	4 1897 23                       @ ../Library/CMSIS/core_cm4.h:1897:23
	str	r0, [sp, #8]
	.loc	4 1899 24 is_stmt 1             @ ../Library/CMSIS/core_cm4.h:1899:24
	ldr	r0, [sp, #32]
	.loc	4 1899 36 is_stmt 0             @ ../Library/CMSIS/core_cm4.h:1899:36
	ldr	r1, [sp, #8]
	.loc	4 1899 33                       @ ../Library/CMSIS/core_cm4.h:1899:33
	lsrs	r0, r1
	.loc	4 1899 75                       @ ../Library/CMSIS/core_cm4.h:1899:75
	ldr	r2, [sp, #12]
	movs	r1, #1
	.loc	4 1899 71                       @ ../Library/CMSIS/core_cm4.h:1899:71
	lsl.w	r2, r1, r2
	.loc	4 1899 97                       @ ../Library/CMSIS/core_cm4.h:1899:97
	subs	r2, #1
	.loc	4 1899 53                       @ ../Library/CMSIS/core_cm4.h:1899:53
	ands	r0, r2
	.loc	4 1899 4                        @ ../Library/CMSIS/core_cm4.h:1899:4
	ldr	r2, [sp, #24]
	.loc	4 1899 21                       @ ../Library/CMSIS/core_cm4.h:1899:21
	str	r0, [r2]
	.loc	4 1900 24 is_stmt 1             @ ../Library/CMSIS/core_cm4.h:1900:24
	ldr	r0, [sp, #32]
	.loc	4 1900 75 is_stmt 0             @ ../Library/CMSIS/core_cm4.h:1900:75
	ldr	r2, [sp, #8]
	.loc	4 1900 71                       @ ../Library/CMSIS/core_cm4.h:1900:71
	lsls	r1, r2
	.loc	4 1900 97                       @ ../Library/CMSIS/core_cm4.h:1900:97
	subs	r1, #1
	.loc	4 1900 53                       @ ../Library/CMSIS/core_cm4.h:1900:53
	ands	r0, r1
	.loc	4 1900 4                        @ ../Library/CMSIS/core_cm4.h:1900:4
	ldr	r1, [sp, #20]
	.loc	4 1900 21                       @ ../Library/CMSIS/core_cm4.h:1900:21
	str	r0, [r1]
	.loc	4 1901 1 is_stmt 1              @ ../Library/CMSIS/core_cm4.h:1901:1
	add	sp, #36
	bx	lr
.Ltmp57:
.Lfunc_end19:
	.size	NVIC_DecodePriority, .Lfunc_end19-NVIC_DecodePriority
	.cfi_endproc
	.cantunwind
	.fnend
                                        @ -- End function
	.section	.text.__NVIC_GetPriority,"ax",%progbits
	.p2align	2                               @ -- Begin function __NVIC_GetPriority
	.type	__NVIC_GetPriority,%function
	.code	16                              @ @__NVIC_GetPriority
	.thumb_func
__NVIC_GetPriority:
.Lfunc_begin20:
	.loc	4 1839 0                        @ ../Library/CMSIS/core_cm4.h:1839:0
	.fnstart
	.cfi_startproc
@ %bb.0:
	.pad	#8
	sub	sp, #8
	.cfi_def_cfa_offset 8
                                        @ kill: def $r1 killed $r0
	strb.w	r0, [sp, #3]
.Ltmp58:
	.loc	4 1841 17 prologue_end          @ ../Library/CMSIS/core_cm4.h:1841:17
	ldrsb.w	r0, [sp, #3]
.Ltmp59:
	.loc	4 1841 7 is_stmt 0              @ ../Library/CMSIS/core_cm4.h:1841:7
	cmp	r0, #0
	bmi	.LBB20_2
	b	.LBB20_1
.LBB20_1:
.Ltmp60:
	.loc	4 1843 43 is_stmt 1             @ ../Library/CMSIS/core_cm4.h:1843:43
	ldrsb.w	r0, [sp, #3]
	movw	r1, #58368
	movt	r1, #57344
	.loc	4 1843 23 is_stmt 0             @ ../Library/CMSIS/core_cm4.h:1843:23
	ldrb	r0, [r0, r1]
	.loc	4 1843 64                       @ ../Library/CMSIS/core_cm4.h:1843:64
	lsrs	r0, r0, #4
	.loc	4 1843 5                        @ ../Library/CMSIS/core_cm4.h:1843:5
	str	r0, [sp, #4]
	b	.LBB20_3
.Ltmp61:
.LBB20_2:
	.loc	4 1847 34 is_stmt 1             @ ../Library/CMSIS/core_cm4.h:1847:34
	ldrb.w	r0, [sp, #3]
	.loc	4 1847 50 is_stmt 0             @ ../Library/CMSIS/core_cm4.h:1847:50
	and	r0, r0, #15
	movw	r1, #60692
	movt	r1, #57344
	.loc	4 1847 23                       @ ../Library/CMSIS/core_cm4.h:1847:23
	ldrb	r0, [r0, r1]
	.loc	4 1847 64                       @ ../Library/CMSIS/core_cm4.h:1847:64
	lsrs	r0, r0, #4
	.loc	4 1847 5                        @ ../Library/CMSIS/core_cm4.h:1847:5
	str	r0, [sp, #4]
	b	.LBB20_3
.Ltmp62:
.LBB20_3:
	.loc	4 1849 1 is_stmt 1              @ ../Library/CMSIS/core_cm4.h:1849:1
	ldr	r0, [sp, #4]
	add	sp, #8
	bx	lr
.Ltmp63:
.Lfunc_end20:
	.size	__NVIC_GetPriority, .Lfunc_end20-__NVIC_GetPriority
	.cfi_endproc
	.cantunwind
	.fnend
                                        @ -- End function
	.section	.text.HAL_NVIC_SetPendingIRQ,"ax",%progbits
	.hidden	HAL_NVIC_SetPendingIRQ          @ -- Begin function HAL_NVIC_SetPendingIRQ
	.globl	HAL_NVIC_SetPendingIRQ
	.p2align	2
	.type	HAL_NVIC_SetPendingIRQ,%function
	.code	16                              @ @HAL_NVIC_SetPendingIRQ
	.thumb_func
HAL_NVIC_SetPendingIRQ:
.Lfunc_begin21:
	.loc	5 387 0                         @ ../Library/STM32F4xx_HAL_Driver/Src/stm32f4xx_hal_cortex.c:387:0
	.fnstart
	.cfi_startproc
@ %bb.0:
	.save	{r7, lr}
	push	{r7, lr}
	.cfi_def_cfa_offset 8
	.cfi_offset lr, -4
	.cfi_offset r7, -8
	.pad	#8
	sub	sp, #8
	.cfi_def_cfa_offset 16
                                        @ kill: def $r1 killed $r0
	strb.w	r0, [sp, #7]
.Ltmp64:
	.loc	5 392 22 prologue_end           @ ../Library/STM32F4xx_HAL_Driver/Src/stm32f4xx_hal_cortex.c:392:22
	ldrsb.w	r0, [sp, #7]
	.loc	5 392 3 is_stmt 0               @ ../Library/STM32F4xx_HAL_Driver/Src/stm32f4xx_hal_cortex.c:392:3
	bl	__NVIC_SetPendingIRQ
	.loc	5 393 1 is_stmt 1               @ ../Library/STM32F4xx_HAL_Driver/Src/stm32f4xx_hal_cortex.c:393:1
	add	sp, #8
	pop	{r7, pc}
.Ltmp65:
.Lfunc_end21:
	.size	HAL_NVIC_SetPendingIRQ, .Lfunc_end21-HAL_NVIC_SetPendingIRQ
	.cfi_endproc
	.cantunwind
	.fnend
                                        @ -- End function
	.section	.text.__NVIC_SetPendingIRQ,"ax",%progbits
	.p2align	2                               @ -- Begin function __NVIC_SetPendingIRQ
	.type	__NVIC_SetPendingIRQ,%function
	.code	16                              @ @__NVIC_SetPendingIRQ
	.thumb_func
__NVIC_SetPendingIRQ:
.Lfunc_begin22:
	.loc	4 1763 0                        @ ../Library/CMSIS/core_cm4.h:1763:0
	.fnstart
	.cfi_startproc
@ %bb.0:
	.pad	#4
	sub	sp, #4
	.cfi_def_cfa_offset 4
                                        @ kill: def $r1 killed $r0
	strb.w	r0, [sp, #3]
.Ltmp66:
	.loc	4 1764 17 prologue_end          @ ../Library/CMSIS/core_cm4.h:1764:17
	ldrsb.w	r0, [sp, #3]
.Ltmp67:
	.loc	4 1764 7 is_stmt 0              @ ../Library/CMSIS/core_cm4.h:1764:7
	cmp	r0, #0
	bmi	.LBB22_2
	b	.LBB22_1
.LBB22_1:
.Ltmp68:
	.loc	4 1766 75 is_stmt 1             @ ../Library/CMSIS/core_cm4.h:1766:75
	ldrsb.w	r1, [sp, #3]
	.loc	4 1766 81 is_stmt 0             @ ../Library/CMSIS/core_cm4.h:1766:81
	and	r2, r1, #31
	movs	r0, #1
	.loc	4 1766 60                       @ ../Library/CMSIS/core_cm4.h:1766:60
	lsls	r0, r2
	.loc	4 1766 34                       @ ../Library/CMSIS/core_cm4.h:1766:34
	lsrs	r2, r1, #5
	movw	r1, #57856
	movt	r1, #57344
	.loc	4 1766 43                       @ ../Library/CMSIS/core_cm4.h:1766:43
	str.w	r0, [r1, r2, lsl #2]
	.loc	4 1767 3 is_stmt 1              @ ../Library/CMSIS/core_cm4.h:1767:3
	b	.LBB22_2
.Ltmp69:
.LBB22_2:
	.loc	4 1768 1                        @ ../Library/CMSIS/core_cm4.h:1768:1
	add	sp, #4
	bx	lr
.Ltmp70:
.Lfunc_end22:
	.size	__NVIC_SetPendingIRQ, .Lfunc_end22-__NVIC_SetPendingIRQ
	.cfi_endproc
	.cantunwind
	.fnend
                                        @ -- End function
	.section	.text.HAL_NVIC_GetPendingIRQ,"ax",%progbits
	.hidden	HAL_NVIC_GetPendingIRQ          @ -- Begin function HAL_NVIC_GetPendingIRQ
	.globl	HAL_NVIC_GetPendingIRQ
	.p2align	2
	.type	HAL_NVIC_GetPendingIRQ,%function
	.code	16                              @ @HAL_NVIC_GetPendingIRQ
	.thumb_func
HAL_NVIC_GetPendingIRQ:
.Lfunc_begin23:
	.loc	5 405 0                         @ ../Library/STM32F4xx_HAL_Driver/Src/stm32f4xx_hal_cortex.c:405:0
	.fnstart
	.cfi_startproc
@ %bb.0:
	.save	{r7, lr}
	push	{r7, lr}
	.cfi_def_cfa_offset 8
	.cfi_offset lr, -4
	.cfi_offset r7, -8
	.pad	#8
	sub	sp, #8
	.cfi_def_cfa_offset 16
                                        @ kill: def $r1 killed $r0
	strb.w	r0, [sp, #7]
.Ltmp71:
	.loc	5 410 29 prologue_end           @ ../Library/STM32F4xx_HAL_Driver/Src/stm32f4xx_hal_cortex.c:410:29
	ldrsb.w	r0, [sp, #7]
	.loc	5 410 10 is_stmt 0              @ ../Library/STM32F4xx_HAL_Driver/Src/stm32f4xx_hal_cortex.c:410:10
	bl	__NVIC_GetPendingIRQ
	.loc	5 410 3                         @ ../Library/STM32F4xx_HAL_Driver/Src/stm32f4xx_hal_cortex.c:410:3
	add	sp, #8
	pop	{r7, pc}
.Ltmp72:
.Lfunc_end23:
	.size	HAL_NVIC_GetPendingIRQ, .Lfunc_end23-HAL_NVIC_GetPendingIRQ
	.cfi_endproc
	.cantunwind
	.fnend
                                        @ -- End function
	.section	.text.__NVIC_GetPendingIRQ,"ax",%progbits
	.p2align	2                               @ -- Begin function __NVIC_GetPendingIRQ
	.type	__NVIC_GetPendingIRQ,%function
	.code	16                              @ @__NVIC_GetPendingIRQ
	.thumb_func
__NVIC_GetPendingIRQ:
.Lfunc_begin24:
	.loc	4 1744 0 is_stmt 1              @ ../Library/CMSIS/core_cm4.h:1744:0
	.fnstart
	.cfi_startproc
@ %bb.0:
	.pad	#8
	sub	sp, #8
	.cfi_def_cfa_offset 8
                                        @ kill: def $r1 killed $r0
	strb.w	r0, [sp, #3]
.Ltmp73:
	.loc	4 1745 17 prologue_end          @ ../Library/CMSIS/core_cm4.h:1745:17
	ldrsb.w	r0, [sp, #3]
.Ltmp74:
	.loc	4 1745 7 is_stmt 0              @ ../Library/CMSIS/core_cm4.h:1745:7
	cmp	r0, #0
	bmi	.LBB24_2
	b	.LBB24_1
.LBB24_1:
.Ltmp75:
	.loc	4 1747 48 is_stmt 1             @ ../Library/CMSIS/core_cm4.h:1747:48
	ldrsb.w	r0, [sp, #3]
	.loc	4 1747 54 is_stmt 0             @ ../Library/CMSIS/core_cm4.h:1747:54
	lsrs	r1, r0, #5
	movw	r0, #57856
	movt	r0, #57344
	.loc	4 1747 25                       @ ../Library/CMSIS/core_cm4.h:1747:25
	ldr.w	r0, [r0, r1, lsl #2]
	.loc	4 1747 75                       @ ../Library/CMSIS/core_cm4.h:1747:75
	ldrb.w	r1, [sp, #3]
	.loc	4 1747 91                       @ ../Library/CMSIS/core_cm4.h:1747:91
	and	r1, r1, #31
	.loc	4 1747 103                      @ ../Library/CMSIS/core_cm4.h:1747:103
	lsrs	r0, r1
	and	r0, r0, #1
	.loc	4 1747 5                        @ ../Library/CMSIS/core_cm4.h:1747:5
	str	r0, [sp, #4]
	b	.LBB24_3
.Ltmp76:
.LBB24_2:
	.loc	4 0 5                           @ ../Library/CMSIS/core_cm4.h:0:5
	movs	r0, #0
.Ltmp77:
	.loc	4 1751 5 is_stmt 1              @ ../Library/CMSIS/core_cm4.h:1751:5
	str	r0, [sp, #4]
	b	.LBB24_3
.Ltmp78:
.LBB24_3:
	.loc	4 1753 1                        @ ../Library/CMSIS/core_cm4.h:1753:1
	ldr	r0, [sp, #4]
	add	sp, #8
	bx	lr
.Ltmp79:
.Lfunc_end24:
	.size	__NVIC_GetPendingIRQ, .Lfunc_end24-__NVIC_GetPendingIRQ
	.cfi_endproc
	.cantunwind
	.fnend
                                        @ -- End function
	.section	.text.HAL_NVIC_ClearPendingIRQ,"ax",%progbits
	.hidden	HAL_NVIC_ClearPendingIRQ        @ -- Begin function HAL_NVIC_ClearPendingIRQ
	.globl	HAL_NVIC_ClearPendingIRQ
	.p2align	2
	.type	HAL_NVIC_ClearPendingIRQ,%function
	.code	16                              @ @HAL_NVIC_ClearPendingIRQ
	.thumb_func
HAL_NVIC_ClearPendingIRQ:
.Lfunc_begin25:
	.loc	5 421 0                         @ ../Library/STM32F4xx_HAL_Driver/Src/stm32f4xx_hal_cortex.c:421:0
	.fnstart
	.cfi_startproc
@ %bb.0:
	.save	{r7, lr}
	push	{r7, lr}
	.cfi_def_cfa_offset 8
	.cfi_offset lr, -4
	.cfi_offset r7, -8
	.pad	#8
	sub	sp, #8
	.cfi_def_cfa_offset 16
                                        @ kill: def $r1 killed $r0
	strb.w	r0, [sp, #7]
.Ltmp80:
	.loc	5 426 24 prologue_end           @ ../Library/STM32F4xx_HAL_Driver/Src/stm32f4xx_hal_cortex.c:426:24
	ldrsb.w	r0, [sp, #7]
	.loc	5 426 3 is_stmt 0               @ ../Library/STM32F4xx_HAL_Driver/Src/stm32f4xx_hal_cortex.c:426:3
	bl	__NVIC_ClearPendingIRQ
	.loc	5 427 1 is_stmt 1               @ ../Library/STM32F4xx_HAL_Driver/Src/stm32f4xx_hal_cortex.c:427:1
	add	sp, #8
	pop	{r7, pc}
.Ltmp81:
.Lfunc_end25:
	.size	HAL_NVIC_ClearPendingIRQ, .Lfunc_end25-HAL_NVIC_ClearPendingIRQ
	.cfi_endproc
	.cantunwind
	.fnend
                                        @ -- End function
	.section	.text.__NVIC_ClearPendingIRQ,"ax",%progbits
	.p2align	2                               @ -- Begin function __NVIC_ClearPendingIRQ
	.type	__NVIC_ClearPendingIRQ,%function
	.code	16                              @ @__NVIC_ClearPendingIRQ
	.thumb_func
__NVIC_ClearPendingIRQ:
.Lfunc_begin26:
	.loc	4 1778 0                        @ ../Library/CMSIS/core_cm4.h:1778:0
	.fnstart
	.cfi_startproc
@ %bb.0:
	.pad	#4
	sub	sp, #4
	.cfi_def_cfa_offset 4
                                        @ kill: def $r1 killed $r0
	strb.w	r0, [sp, #3]
.Ltmp82:
	.loc	4 1779 17 prologue_end          @ ../Library/CMSIS/core_cm4.h:1779:17
	ldrsb.w	r0, [sp, #3]
.Ltmp83:
	.loc	4 1779 7 is_stmt 0              @ ../Library/CMSIS/core_cm4.h:1779:7
	cmp	r0, #0
	bmi	.LBB26_2
	b	.LBB26_1
.LBB26_1:
.Ltmp84:
	.loc	4 1781 75 is_stmt 1             @ ../Library/CMSIS/core_cm4.h:1781:75
	ldrsb.w	r1, [sp, #3]
	.loc	4 1781 81 is_stmt 0             @ ../Library/CMSIS/core_cm4.h:1781:81
	and	r2, r1, #31
	movs	r0, #1
	.loc	4 1781 60                       @ ../Library/CMSIS/core_cm4.h:1781:60
	lsls	r0, r2
	.loc	4 1781 34                       @ ../Library/CMSIS/core_cm4.h:1781:34
	lsrs	r2, r1, #5
	movw	r1, #57984
	movt	r1, #57344
	.loc	4 1781 43                       @ ../Library/CMSIS/core_cm4.h:1781:43
	str.w	r0, [r1, r2, lsl #2]
	.loc	4 1782 3 is_stmt 1              @ ../Library/CMSIS/core_cm4.h:1782:3
	b	.LBB26_2
.Ltmp85:
.LBB26_2:
	.loc	4 1783 1                        @ ../Library/CMSIS/core_cm4.h:1783:1
	add	sp, #4
	bx	lr
.Ltmp86:
.Lfunc_end26:
	.size	__NVIC_ClearPendingIRQ, .Lfunc_end26-__NVIC_ClearPendingIRQ
	.cfi_endproc
	.cantunwind
	.fnend
                                        @ -- End function
	.section	.text.HAL_NVIC_GetActive,"ax",%progbits
	.hidden	HAL_NVIC_GetActive              @ -- Begin function HAL_NVIC_GetActive
	.globl	HAL_NVIC_GetActive
	.p2align	2
	.type	HAL_NVIC_GetActive,%function
	.code	16                              @ @HAL_NVIC_GetActive
	.thumb_func
HAL_NVIC_GetActive:
.Lfunc_begin27:
	.loc	5 438 0                         @ ../Library/STM32F4xx_HAL_Driver/Src/stm32f4xx_hal_cortex.c:438:0
	.fnstart
	.cfi_startproc
@ %bb.0:
	.save	{r7, lr}
	push	{r7, lr}
	.cfi_def_cfa_offset 8
	.cfi_offset lr, -4
	.cfi_offset r7, -8
	.pad	#8
	sub	sp, #8
	.cfi_def_cfa_offset 16
                                        @ kill: def $r1 killed $r0
	strb.w	r0, [sp, #7]
.Ltmp87:
	.loc	5 443 25 prologue_end           @ ../Library/STM32F4xx_HAL_Driver/Src/stm32f4xx_hal_cortex.c:443:25
	ldrsb.w	r0, [sp, #7]
	.loc	5 443 10 is_stmt 0              @ ../Library/STM32F4xx_HAL_Driver/Src/stm32f4xx_hal_cortex.c:443:10
	bl	__NVIC_GetActive
	.loc	5 443 3                         @ ../Library/STM32F4xx_HAL_Driver/Src/stm32f4xx_hal_cortex.c:443:3
	add	sp, #8
	pop	{r7, pc}
.Ltmp88:
.Lfunc_end27:
	.size	HAL_NVIC_GetActive, .Lfunc_end27-HAL_NVIC_GetActive
	.cfi_endproc
	.cantunwind
	.fnend
                                        @ -- End function
	.section	.text.__NVIC_GetActive,"ax",%progbits
	.p2align	2                               @ -- Begin function __NVIC_GetActive
	.type	__NVIC_GetActive,%function
	.code	16                              @ @__NVIC_GetActive
	.thumb_func
__NVIC_GetActive:
.Lfunc_begin28:
	.loc	4 1795 0 is_stmt 1              @ ../Library/CMSIS/core_cm4.h:1795:0
	.fnstart
	.cfi_startproc
@ %bb.0:
	.pad	#8
	sub	sp, #8
	.cfi_def_cfa_offset 8
                                        @ kill: def $r1 killed $r0
	strb.w	r0, [sp, #3]
.Ltmp89:
	.loc	4 1796 17 prologue_end          @ ../Library/CMSIS/core_cm4.h:1796:17
	ldrsb.w	r0, [sp, #3]
.Ltmp90:
	.loc	4 1796 7 is_stmt 0              @ ../Library/CMSIS/core_cm4.h:1796:7
	cmp	r0, #0
	bmi	.LBB28_2
	b	.LBB28_1
.LBB28_1:
.Ltmp91:
	.loc	4 1798 48 is_stmt 1             @ ../Library/CMSIS/core_cm4.h:1798:48
	ldrsb.w	r0, [sp, #3]
	.loc	4 1798 54 is_stmt 0             @ ../Library/CMSIS/core_cm4.h:1798:54
	lsrs	r1, r0, #5
	movw	r0, #58112
	movt	r0, #57344
	.loc	4 1798 25                       @ ../Library/CMSIS/core_cm4.h:1798:25
	ldr.w	r0, [r0, r1, lsl #2]
	.loc	4 1798 75                       @ ../Library/CMSIS/core_cm4.h:1798:75
	ldrb.w	r1, [sp, #3]
	.loc	4 1798 91                       @ ../Library/CMSIS/core_cm4.h:1798:91
	and	r1, r1, #31
	.loc	4 1798 103                      @ ../Library/CMSIS/core_cm4.h:1798:103
	lsrs	r0, r1
	and	r0, r0, #1
	.loc	4 1798 5                        @ ../Library/CMSIS/core_cm4.h:1798:5
	str	r0, [sp, #4]
	b	.LBB28_3
.Ltmp92:
.LBB28_2:
	.loc	4 0 5                           @ ../Library/CMSIS/core_cm4.h:0:5
	movs	r0, #0
.Ltmp93:
	.loc	4 1802 5 is_stmt 1              @ ../Library/CMSIS/core_cm4.h:1802:5
	str	r0, [sp, #4]
	b	.LBB28_3
.Ltmp94:
.LBB28_3:
	.loc	4 1804 1                        @ ../Library/CMSIS/core_cm4.h:1804:1
	ldr	r0, [sp, #4]
	add	sp, #8
	bx	lr
.Ltmp95:
.Lfunc_end28:
	.size	__NVIC_GetActive, .Lfunc_end28-__NVIC_GetActive
	.cfi_endproc
	.cantunwind
	.fnend
                                        @ -- End function
	.section	.text.HAL_SYSTICK_CLKSourceConfig,"ax",%progbits
	.hidden	HAL_SYSTICK_CLKSourceConfig     @ -- Begin function HAL_SYSTICK_CLKSourceConfig
	.globl	HAL_SYSTICK_CLKSourceConfig
	.p2align	2
	.type	HAL_SYSTICK_CLKSourceConfig,%function
	.code	16                              @ @HAL_SYSTICK_CLKSourceConfig
	.thumb_func
HAL_SYSTICK_CLKSourceConfig:
.Lfunc_begin29:
	.loc	5 455 0                         @ ../Library/STM32F4xx_HAL_Driver/Src/stm32f4xx_hal_cortex.c:455:0
	.fnstart
	.cfi_startproc
@ %bb.0:
	.pad	#4
	sub	sp, #4
	.cfi_def_cfa_offset 4
	str	r0, [sp]
.Ltmp96:
	.loc	5 458 7 prologue_end            @ ../Library/STM32F4xx_HAL_Driver/Src/stm32f4xx_hal_cortex.c:458:7
	ldr	r0, [sp]
.Ltmp97:
	.loc	5 458 7 is_stmt 0               @ ../Library/STM32F4xx_HAL_Driver/Src/stm32f4xx_hal_cortex.c:458:7
	cmp	r0, #4
	bne	.LBB29_2
	b	.LBB29_1
.LBB29_1:
	.loc	5 0 7                           @ ../Library/STM32F4xx_HAL_Driver/Src/stm32f4xx_hal_cortex.c:0:7
	movw	r1, #57360
	movt	r1, #57344
.Ltmp98:
	.loc	5 460 19 is_stmt 1              @ ../Library/STM32F4xx_HAL_Driver/Src/stm32f4xx_hal_cortex.c:460:19
	ldr	r0, [r1]
	orr	r0, r0, #4
	str	r0, [r1]
	.loc	5 461 3                         @ ../Library/STM32F4xx_HAL_Driver/Src/stm32f4xx_hal_cortex.c:461:3
	b	.LBB29_3
.Ltmp99:
.LBB29_2:
	.loc	5 0 3 is_stmt 0                 @ ../Library/STM32F4xx_HAL_Driver/Src/stm32f4xx_hal_cortex.c:0:3
	movw	r1, #57360
	movt	r1, #57344
.Ltmp100:
	.loc	5 464 19 is_stmt 1              @ ../Library/STM32F4xx_HAL_Driver/Src/stm32f4xx_hal_cortex.c:464:19
	ldr	r0, [r1]
	bic	r0, r0, #4
	str	r0, [r1]
	b	.LBB29_3
.Ltmp101:
.LBB29_3:
	.loc	5 466 1                         @ ../Library/STM32F4xx_HAL_Driver/Src/stm32f4xx_hal_cortex.c:466:1
	add	sp, #4
	bx	lr
.Ltmp102:
.Lfunc_end29:
	.size	HAL_SYSTICK_CLKSourceConfig, .Lfunc_end29-HAL_SYSTICK_CLKSourceConfig
	.cfi_endproc
	.cantunwind
	.fnend
                                        @ -- End function
	.section	.text.HAL_SYSTICK_IRQHandler,"ax",%progbits
	.hidden	HAL_SYSTICK_IRQHandler          @ -- Begin function HAL_SYSTICK_IRQHandler
	.globl	HAL_SYSTICK_IRQHandler
	.p2align	2
	.type	HAL_SYSTICK_IRQHandler,%function
	.code	16                              @ @HAL_SYSTICK_IRQHandler
	.thumb_func
HAL_SYSTICK_IRQHandler:
.Lfunc_begin30:
	.loc	5 473 0                         @ ../Library/STM32F4xx_HAL_Driver/Src/stm32f4xx_hal_cortex.c:473:0
	.fnstart
	.cfi_startproc
@ %bb.0:
	.save	{r7, lr}
	push	{r7, lr}
	.cfi_def_cfa_offset 8
	.cfi_offset lr, -4
	.cfi_offset r7, -8
.Ltmp103:
	.loc	5 474 3 prologue_end            @ ../Library/STM32F4xx_HAL_Driver/Src/stm32f4xx_hal_cortex.c:474:3
	bl	HAL_SYSTICK_Callback
	.loc	5 475 1                         @ ../Library/STM32F4xx_HAL_Driver/Src/stm32f4xx_hal_cortex.c:475:1
	pop	{r7, pc}
.Ltmp104:
.Lfunc_end30:
	.size	HAL_SYSTICK_IRQHandler, .Lfunc_end30-HAL_SYSTICK_IRQHandler
	.cfi_endproc
	.cantunwind
	.fnend
                                        @ -- End function
	.section	.text.HAL_SYSTICK_Callback,"ax",%progbits
	.hidden	HAL_SYSTICK_Callback            @ -- Begin function HAL_SYSTICK_Callback
	.weak	HAL_SYSTICK_Callback
	.p2align	2
	.type	HAL_SYSTICK_Callback,%function
	.code	16                              @ @HAL_SYSTICK_Callback
	.thumb_func
HAL_SYSTICK_Callback:
.Lfunc_begin31:
	.loc	5 482 0                         @ ../Library/STM32F4xx_HAL_Driver/Src/stm32f4xx_hal_cortex.c:482:0
	.fnstart
	.cfi_startproc
@ %bb.0:
	.loc	5 486 1 prologue_end            @ ../Library/STM32F4xx_HAL_Driver/Src/stm32f4xx_hal_cortex.c:486:1
	bx	lr
.Ltmp105:
.Lfunc_end31:
	.size	HAL_SYSTICK_Callback, .Lfunc_end31-HAL_SYSTICK_Callback
	.cfi_endproc
	.cantunwind
	.fnend
                                        @ -- End function
	.file	6 "C:\\Users\\Hyacincher\\Desktop\\HyTelectrl\\Code\\Project" "../Library/STM32F4xx_HAL_Driver/Inc\\stm32f4xx_hal_cortex.h"
	.section	".note.GNU-stack","",%progbits
	.eabi_attribute	30, 6	@ Tag_ABI_optimization_goals
	.ARM_attribute	16, 1	@ Tag_AV_eba