	.text
	.syntax unified
	.eabi_attribute	67, "2.09"	@ Tag_conformance
	.cpu	cortex-m4
	.eabi_attribute	6, 13	@ Tag_CPU_arch
	.eabi_attribute	7, 77	@ Tag_CPU_arch_profile
	.eabi_attribute	8, 0	@ Tag_ARM_ISA_use
	.eabi_attribute	9, 2	@ Tag_THUMB_ISA_use
	.fpu	fpv4-sp-d16
	.eabi_attribute	27, 1	@ Tag_ABI_HardFP_use
	.eabi_attribute	36, 1	@ Tag_FP_HP_extension
	.eabi_attribute	34, 1	@ Tag_CPU_unaligned_access
	.eabi_attribute	17, 1	@ Tag_ABI_PCS_GOT_use
	.eabi_attribute	20, 2	@ Tag_ABI_FP_denormal
	.eabi_attribute	21, 0	@ Tag_ABI_FP_exceptions
	.eabi_attribute	23, 1	@ Tag_ABI_FP_number_model
	.eabi_attribute	24, 1	@ Tag_ABI_align_needed
	.eabi_attribute	25, 1	@ Tag_ABI_align_preserved
	.eabi_attribute	28, 1	@ Tag_ABI_VFP_args
	.eabi_attribute	38, 1	@ Tag_ABI_FP_16bit_format
	.eabi_attribute	18, 2	@ Tag_ABI_PCS_wchar_t
	.eabi_attribute	26, 1	@ Tag_ABI_enum_size
	.eabi_attribute	14, 0	@ Tag_ABI_PCS_R9_use
	.file	"stm32f4xx_hal_flash.c"
	.file	1 "C:\\Users\\Hyacincher\\Desktop\\HyTelectrl\\Code\\Project" "../Library/STM32F4xx_HAL_Driver/Inc\\stm32f4xx_hal_flash.h"
	.file	2 "D:\\Keil MDK\\ARM\\ARMCLANG\\Bin\\..\\include" "stdint.h"
	.file	3 "C:\\Users\\Hyacincher\\Desktop\\HyTelectrl\\Code\\Project" "../Library/STM32F4xx_HAL_Driver/Inc/stm32f4xx_hal_def.h"
	.file	4 "C:\\Users\\Hyacincher\\Desktop\\HyTelectrl\\Code\\Project" "../Library/STM32F4xx_HAL_Driver/Src/stm32f4xx_hal_flash.c"
	.file	5 "C:\\Users\\Hyacincher\\Desktop\\HyTelectrl\\Code\\Project" "../Library/CMSIS\\stm32f4xx.h"
	.file	6 "C:\\Users\\Hyacincher\\Desktop\\HyTelectrl\\Code\\Project" "../Library/CMSIS/stm32f429xx.h"
	.section	.text.HAL_FLASH_Program,"ax",%progbits
	.hidden	HAL_FLASH_Program               @ -- Begin function HAL_FLASH_Program
	.globl	HAL_FLASH_Program
	.p2align	2
	.type	HAL_FLASH_Program,%function
	.code	16                              @ @HAL_FLASH_Program
	.thumb_func
HAL_FLASH_Program:
.Lfunc_begin0:
	.loc	4 157 0                         @ ../Library/STM32F4xx_HAL_Driver/Src/stm32f4xx_hal_flash.c:157:0
	.fnstart
	.cfi_sections .debug_frame
	.cfi_startproc
@ %bb.0:
	.save	{r7, lr}
	push	{r7, lr}
	.cfi_def_cfa_offset 8
	.cfi_offset lr, -4
	.cfi_offset r7, -8
	.pad	#32
	sub	sp, #32
	.cfi_def_cfa_offset 40
                                        @ kill: def $r12 killed $r3
                                        @ kill: def $r12 killed $r2
	str	r0, [sp, #24]
	str	r1, [sp, #20]
	str	r3, [sp, #12]
	str	r2, [sp, #8]
	movs	r0, #1
.Ltmp0:
	.loc	4 158 21 prologue_end           @ ../Library/STM32F4xx_HAL_Driver/Src/stm32f4xx_hal_flash.c:158:21
	strb.w	r0, [sp, #7]
	.loc	4 161 3                         @ ../Library/STM32F4xx_HAL_Driver/Src/stm32f4xx_hal_flash.c:161:3
	b	.LBB0_1
.LBB0_1:
.Ltmp1:
	.loc	4 161 3 is_stmt 0               @ ../Library/STM32F4xx_HAL_Driver/Src/stm32f4xx_hal_flash.c:161:3
	movw	r0, :lower16:pFlash
	movt	r0, :upper16:pFlash
	ldrb	r0, [r0, #24]
.Ltmp2:
	.loc	4 161 3                         @ ../Library/STM32F4xx_HAL_Driver/Src/stm32f4xx_hal_flash.c:161:3
	cmp	r0, #1
	bne	.LBB0_3
	b	.LBB0_2
.LBB0_2:
	.loc	4 0 3                           @ ../Library/STM32F4xx_HAL_Driver/Src/stm32f4xx_hal_flash.c:0:3
	movs	r0, #2
.Ltmp3:
	.loc	4 161 3                         @ ../Library/STM32F4xx_HAL_Driver/Src/stm32f4xx_hal_flash.c:161:3
	strb.w	r0, [sp, #31]
	b	.LBB0_19
.Ltmp4:
.LBB0_3:
	.loc	4 161 3                         @ ../Library/STM32F4xx_HAL_Driver/Src/stm32f4xx_hal_flash.c:161:3
	movw	r1, :lower16:pFlash
	movt	r1, :upper16:pFlash
	movs	r0, #1
	strb	r0, [r1, #24]
	b	.LBB0_4
.Ltmp5:
.LBB0_4:
	.loc	4 161 3                         @ ../Library/STM32F4xx_HAL_Driver/Src/stm32f4xx_hal_flash.c:161:3
	b	.LBB0_5
.Ltmp6:
.LBB0_5:
	.loc	4 0 3                           @ ../Library/STM32F4xx_HAL_Driver/Src/stm32f4xx_hal_flash.c:0:3
	movw	r0, #50000
	.loc	4 167 12 is_stmt 1              @ ../Library/STM32F4xx_HAL_Driver/Src/stm32f4xx_hal_flash.c:167:12
	bl	FLASH_WaitForLastOperation
	.loc	4 167 10 is_stmt 0              @ ../Library/STM32F4xx_HAL_Driver/Src/stm32f4xx_hal_flash.c:167:10
	strb.w	r0, [sp, #7]
.Ltmp7:
	.loc	4 169 6 is_stmt 1               @ ../Library/STM32F4xx_HAL_Driver/Src/stm32f4xx_hal_flash.c:169:6
	ldrb.w	r0, [sp, #7]
.Ltmp8:
	.loc	4 169 6 is_stmt 0               @ ../Library/STM32F4xx_HAL_Driver/Src/stm32f4xx_hal_flash.c:169:6
	cbnz	r0, .LBB0_16
	b	.LBB0_6
.LBB0_6:
.Ltmp9:
	.loc	4 171 8 is_stmt 1               @ ../Library/STM32F4xx_HAL_Driver/Src/stm32f4xx_hal_flash.c:171:8
	ldr	r0, [sp, #24]
.Ltmp10:
	.loc	4 171 8 is_stmt 0               @ ../Library/STM32F4xx_HAL_Driver/Src/stm32f4xx_hal_flash.c:171:8
	cbnz	r0, .LBB0_8
	b	.LBB0_7
.LBB0_7:
.Ltmp11:
	.loc	4 174 26 is_stmt 1              @ ../Library/STM32F4xx_HAL_Driver/Src/stm32f4xx_hal_flash.c:174:26
	ldr	r0, [sp, #20]
	.loc	4 174 45 is_stmt 0              @ ../Library/STM32F4xx_HAL_Driver/Src/stm32f4xx_hal_flash.c:174:45
	ldrb.w	r1, [sp, #8]
	.loc	4 174 7                         @ ../Library/STM32F4xx_HAL_Driver/Src/stm32f4xx_hal_flash.c:174:7
	bl	FLASH_Program_Byte
	.loc	4 175 5 is_stmt 1               @ ../Library/STM32F4xx_HAL_Driver/Src/stm32f4xx_hal_flash.c:175:5
	b	.LBB0_15
.Ltmp12:
.LBB0_8:
	.loc	4 176 13                        @ ../Library/STM32F4xx_HAL_Driver/Src/stm32f4xx_hal_flash.c:176:13
	ldr	r0, [sp, #24]
.Ltmp13:
	.loc	4 176 13 is_stmt 0              @ ../Library/STM32F4xx_HAL_Driver/Src/stm32f4xx_hal_flash.c:176:13
	cmp	r0, #1
	bne	.LBB0_10
	b	.LBB0_9
.LBB0_9:
.Ltmp14:
	.loc	4 179 30 is_stmt 1              @ ../Library/STM32F4xx_HAL_Driver/Src/stm32f4xx_hal_flash.c:179:30
	ldr	r0, [sp, #20]
	.loc	4 179 50 is_stmt 0              @ ../Library/STM32F4xx_HAL_Driver/Src/stm32f4xx_hal_flash.c:179:50
	ldrh.w	r1, [sp, #8]
	.loc	4 179 7                         @ ../Library/STM32F4xx_HAL_Driver/Src/stm32f4xx_hal_flash.c:179:7
	bl	FLASH_Program_HalfWord
	.loc	4 180 5 is_stmt 1               @ ../Library/STM32F4xx_HAL_Driver/Src/stm32f4xx_hal_flash.c:180:5
	b	.LBB0_14
.Ltmp15:
.LBB0_10:
	.loc	4 181 13                        @ ../Library/STM32F4xx_HAL_Driver/Src/stm32f4xx_hal_flash.c:181:13
	ldr	r0, [sp, #24]
.Ltmp16:
	.loc	4 181 13 is_stmt 0              @ ../Library/STM32F4xx_HAL_Driver/Src/stm32f4xx_hal_flash.c:181:13
	cmp	r0, #2
	bne	.LBB0_12
	b	.LBB0_11
.LBB0_11:
.Ltmp17:
	.loc	4 184 26 is_stmt 1              @ ../Library/STM32F4xx_HAL_Driver/Src/stm32f4xx_hal_flash.c:184:26
	ldr	r0, [sp, #20]
	.loc	4 184 46 is_stmt 0              @ ../Library/STM32F4xx_HAL_Driver/Src/stm32f4xx_hal_flash.c:184:46
	ldr	r1, [sp, #8]
	.loc	4 184 7                         @ ../Library/STM32F4xx_HAL_Driver/Src/stm32f4xx_hal_flash.c:184:7
	bl	FLASH_Program_Word
	.loc	4 185 5 is_stmt 1               @ ../Library/STM32F4xx_HAL_Driver/Src/stm32f4xx_hal_flash.c:185:5
	b	.LBB0_13
.Ltmp18:
.LBB0_12:
	.loc	4 189 32                        @ ../Library/STM32F4xx_HAL_Driver/Src/stm32f4xx_hal_flash.c:189:32
	ldr	r0, [sp, #20]
	.loc	4 189 41 is_stmt 0              @ ../Library/STM32F4xx_HAL_Driver/Src/stm32f4xx_hal_flash.c:189:41
	ldr	r2, [sp, #8]
	ldr	r3, [sp, #12]
	.loc	4 189 7                         @ ../Library/STM32F4xx_HAL_Driver/Src/stm32f4xx_hal_flash.c:189:7
	bl	FLASH_Program_DoubleWord
	b	.LBB0_13
.Ltmp19:
.LBB0_13:
	.loc	4 0 7                           @ ../Library/STM32F4xx_HAL_Driver/Src/stm32f4xx_hal_flash.c:0:7
	b	.LBB0_14
.LBB0_14:
	b	.LBB0_15
.LBB0_15:
	movw	r0, #50000
	.loc	4 193 14 is_stmt 1              @ ../Library/STM32F4xx_HAL_Driver/Src/stm32f4xx_hal_flash.c:193:14
	bl	FLASH_WaitForLastOperation
	.loc	4 193 12 is_stmt 0              @ ../Library/STM32F4xx_HAL_Driver/Src/stm32f4xx_hal_flash.c:193:12
	strb.w	r0, [sp, #7]
	movw	r1, #15376
	movt	r1, #16386
	.loc	4 196 15 is_stmt 1              @ ../Library/STM32F4xx_HAL_Driver/Src/stm32f4xx_hal_flash.c:196:15
	ldr	r0, [r1]
	bic	r0, r0, #1
	str	r0, [r1]
	.loc	4 197 3                         @ ../Library/STM32F4xx_HAL_Driver/Src/stm32f4xx_hal_flash.c:197:3
	b	.LBB0_16
.Ltmp20:
.LBB0_16:
	.loc	4 200 3                         @ ../Library/STM32F4xx_HAL_Driver/Src/stm32f4xx_hal_flash.c:200:3
	b	.LBB0_17
.LBB0_17:
.Ltmp21:
	.loc	4 200 3 is_stmt 0               @ ../Library/STM32F4xx_HAL_Driver/Src/stm32f4xx_hal_flash.c:200:3
	movw	r1, :lower16:pFlash
	movt	r1, :upper16:pFlash
	movs	r0, #0
	strb	r0, [r1, #24]
	b	.LBB0_18
.Ltmp22:
.LBB0_18:
	.loc	4 202 10 is_stmt 1              @ ../Library/STM32F4xx_HAL_Driver/Src/stm32f4xx_hal_flash.c:202:10
	ldrb.w	r0, [sp, #7]
	.loc	4 202 3 is_stmt 0               @ ../Library/STM32F4xx_HAL_Driver/Src/stm32f4xx_hal_flash.c:202:3
	strb.w	r0, [sp, #31]
	b	.LBB0_19
.LBB0_19:
	.loc	4 203 1 is_stmt 1               @ ../Library/STM32F4xx_HAL_Driver/Src/stm32f4xx_hal_flash.c:203:1
	ldrb.w	r0, [sp, #31]
	add	sp, #32
	pop	{r7, pc}
.Ltmp23:
.Lfunc_end0:
	.size	HAL_FLASH_Program, .Lfunc_end0-HAL_FLASH_Program
	.cfi_endproc
	.cantunwind
	.fnend
                                        @ -- End function
	.section	.text.FLASH_WaitForLastOperation,"ax",%progbits
	.hidden	FLASH_WaitForLastOperation      @ -- Begin function FLASH_WaitForLastOperation
	.globl	FLASH_WaitForLastOperation
	.p2align	2
	.type	FLASH_WaitForLastOperation,%function
	.code	16                              @ @FLASH_WaitForLastOperation
	.thumb_func
FLASH_WaitForLastOperation:
.Lfunc_begin1:
	.loc	4 553 0                         @ ../Library/STM32F4xx_HAL_Driver/Src/stm32f4xx_hal_flash.c:553:0
	.fnstart
	.cfi_startproc
@ %bb.0:
	.save	{r7, lr}
	push	{r7, lr}
	.cfi_def_cfa_offset 8
	.cfi_offset lr, -4
	.cfi_offset r7, -8
	.pad	#16
	sub	sp, #16
	.cfi_def_cfa_offset 24
	str	r0, [sp, #8]
	movs	r0, #0
.Ltmp24:
	.loc	4 554 12 prologue_end           @ ../Library/STM32F4xx_HAL_Driver/Src/stm32f4xx_hal_flash.c:554:12
	str	r0, [sp, #4]
	.loc	4 557 20                        @ ../Library/STM32F4xx_HAL_Driver/Src/stm32f4xx_hal_flash.c:557:20
	movw	r1, :lower16:pFlash
	movt	r1, :upper16:pFlash
	str	r0, [r1, #28]
	.loc	4 563 15                        @ ../Library/STM32F4xx_HAL_Driver/Src/stm32f4xx_hal_flash.c:563:15
	bl	HAL_GetTick
	.loc	4 563 13 is_stmt 0              @ ../Library/STM32F4xx_HAL_Driver/Src/stm32f4xx_hal_flash.c:563:13
	str	r0, [sp, #4]
	.loc	4 565 3 is_stmt 1               @ ../Library/STM32F4xx_HAL_Driver/Src/stm32f4xx_hal_flash.c:565:3
	b	.LBB1_1
.LBB1_1:                                @ =>This Inner Loop Header: Depth=1
	.loc	4 0 3 is_stmt 0                 @ ../Library/STM32F4xx_HAL_Driver/Src/stm32f4xx_hal_flash.c:0:3
	movw	r0, #15372
	movt	r0, #16386
	.loc	4 565 9                         @ ../Library/STM32F4xx_HAL_Driver/Src/stm32f4xx_hal_flash.c:565:9
	ldr	r0, [r0]
	.loc	4 565 3                         @ ../Library/STM32F4xx_HAL_Driver/Src/stm32f4xx_hal_flash.c:565:3
	lsls	r0, r0, #15
	cmp	r0, #0
	bpl	.LBB1_8
	b	.LBB1_2
.LBB1_2:                                @   in Loop: Header=BB1_1 Depth=1
.Ltmp25:
	.loc	4 567 8 is_stmt 1               @ ../Library/STM32F4xx_HAL_Driver/Src/stm32f4xx_hal_flash.c:567:8
	ldr	r0, [sp, #8]
.Ltmp26:
	.loc	4 567 8 is_stmt 0               @ ../Library/STM32F4xx_HAL_Driver/Src/stm32f4xx_hal_flash.c:567:8
	adds	r0, #1
	cbz	r0, .LBB1_7
	b	.LBB1_3
.LBB1_3:                                @   in Loop: Header=BB1_1 Depth=1
.Ltmp27:
	.loc	4 569 11 is_stmt 1              @ ../Library/STM32F4xx_HAL_Driver/Src/stm32f4xx_hal_flash.c:569:11
	ldr	r0, [sp, #8]
	.loc	4 569 25 is_stmt 0              @ ../Library/STM32F4xx_HAL_Driver/Src/stm32f4xx_hal_flash.c:569:25
	cbz	r0, .LBB1_5
	b	.LBB1_4
.LBB1_4:                                @   in Loop: Header=BB1_1 Depth=1
	.loc	4 569 29                        @ ../Library/STM32F4xx_HAL_Driver/Src/stm32f4xx_hal_flash.c:569:29
	bl	HAL_GetTick
	.loc	4 569 45                        @ ../Library/STM32F4xx_HAL_Driver/Src/stm32f4xx_hal_flash.c:569:45
	ldr	r1, [sp, #4]
	.loc	4 569 43                        @ ../Library/STM32F4xx_HAL_Driver/Src/stm32f4xx_hal_flash.c:569:43
	subs	r0, r0, r1
	.loc	4 569 59                        @ ../Library/STM32F4xx_HAL_Driver/Src/stm32f4xx_hal_flash.c:569:59
	ldr	r1, [sp, #8]
.Ltmp28:
	.loc	4 569 10                        @ ../Library/STM32F4xx_HAL_Driver/Src/stm32f4xx_hal_flash.c:569:10
	cmp	r0, r1
	bls	.LBB1_6
	b	.LBB1_5
.LBB1_5:
	.loc	4 0 10                          @ ../Library/STM32F4xx_HAL_Driver/Src/stm32f4xx_hal_flash.c:0:10
	movs	r0, #3
.Ltmp29:
	.loc	4 571 9 is_stmt 1               @ ../Library/STM32F4xx_HAL_Driver/Src/stm32f4xx_hal_flash.c:571:9
	strb.w	r0, [sp, #15]
	b	.LBB1_13
.Ltmp30:
.LBB1_6:                                @   in Loop: Header=BB1_1 Depth=1
	.loc	4 573 5                         @ ../Library/STM32F4xx_HAL_Driver/Src/stm32f4xx_hal_flash.c:573:5
	b	.LBB1_7
.Ltmp31:
.LBB1_7:                                @   in Loop: Header=BB1_1 Depth=1
	.loc	4 565 3                         @ ../Library/STM32F4xx_HAL_Driver/Src/stm32f4xx_hal_flash.c:565:3
	b	.LBB1_1
.LBB1_8:
	.loc	4 0 3 is_stmt 0                 @ ../Library/STM32F4xx_HAL_Driver/Src/stm32f4xx_hal_flash.c:0:3
	movw	r0, #15372
	movt	r0, #16386
.Ltmp32:
	.loc	4 577 7 is_stmt 1               @ ../Library/STM32F4xx_HAL_Driver/Src/stm32f4xx_hal_flash.c:577:7
	ldr	r0, [r0]
.Ltmp33:
	.loc	4 577 7 is_stmt 0               @ ../Library/STM32F4xx_HAL_Driver/Src/stm32f4xx_hal_flash.c:577:7
	lsls	r0, r0, #31
	cbz	r0, .LBB1_10
	b	.LBB1_9
.LBB1_9:
	.loc	4 0 7                           @ ../Library/STM32F4xx_HAL_Driver/Src/stm32f4xx_hal_flash.c:0:7
	movw	r1, #15372
	movt	r1, #16386
	movs	r0, #1
.Ltmp34:
	.loc	4 580 5 is_stmt 1               @ ../Library/STM32F4xx_HAL_Driver/Src/stm32f4xx_hal_flash.c:580:5
	str	r0, [r1]
	.loc	4 581 3                         @ ../Library/STM32F4xx_HAL_Driver/Src/stm32f4xx_hal_flash.c:581:3
	b	.LBB1_10
.Ltmp35:
.LBB1_10:
	.loc	4 0 3 is_stmt 0                 @ ../Library/STM32F4xx_HAL_Driver/Src/stm32f4xx_hal_flash.c:0:3
	movw	r0, #15372
	movt	r0, #16386
.Ltmp36:
	.loc	4 583 6 is_stmt 1               @ ../Library/STM32F4xx_HAL_Driver/Src/stm32f4xx_hal_flash.c:583:6
	ldr	r0, [r0]
.Ltmp37:
	.loc	4 583 6 is_stmt 0               @ ../Library/STM32F4xx_HAL_Driver/Src/stm32f4xx_hal_flash.c:583:6
	tst.w	r0, #498
	beq	.LBB1_12
	b	.LBB1_11
.LBB1_11:
.Ltmp38:
	.loc	4 591 5 is_stmt 1               @ ../Library/STM32F4xx_HAL_Driver/Src/stm32f4xx_hal_flash.c:591:5
	bl	FLASH_SetErrorCode
	movs	r0, #1
	.loc	4 592 5                         @ ../Library/STM32F4xx_HAL_Driver/Src/stm32f4xx_hal_flash.c:592:5
	strb.w	r0, [sp, #15]
	b	.LBB1_13
.Ltmp39:
.LBB1_12:
	.loc	4 0 5 is_stmt 0                 @ ../Library/STM32F4xx_HAL_Driver/Src/stm32f4xx_hal_flash.c:0:5
	movs	r0, #0
	.loc	4 596 3 is_stmt 1               @ ../Library/STM32F4xx_HAL_Driver/Src/stm32f4xx_hal_flash.c:596:3
	strb.w	r0, [sp, #15]
	b	.LBB1_13
.LBB1_13:
	.loc	4 598 1                         @ ../Library/STM32F4xx_HAL_Driver/Src/stm32f4xx_hal_flash.c:598:1
	ldrb.w	r0, [sp, #15]
	add	sp, #16
	pop	{r7, pc}
.Ltmp40:
.Lfunc_end1:
	.size	FLASH_WaitForLastOperation, .Lfunc_end1-FLASH_WaitForLastOperation
	.cfi_endproc
	.cantunwind
	.fnend
                                        @ -- End function
	.section	.text.FLASH_Program_Byte,"ax",%progbits
	.p2align	2                               @ -- Begin function FLASH_Program_Byte
	.type	FLASH_Program_Byte,%function
	.code	16                              @ @FLASH_Program_Byte
	.thumb_func
FLASH_Program_Byte:
.Lfunc_begin2:
	.loc	4 697 0                         @ ../Library/STM32F4xx_HAL_Driver/Src/stm32f4xx_hal_flash.c:697:0
	.fnstart
	.cfi_startproc
@ %bb.0:
	.pad	#8
	sub	sp, #8
	.cfi_def_cfa_offset 8
                                        @ kill: def $r2 killed $r1
	str	r0, [sp, #4]
	strb.w	r1, [sp, #3]
	movw	r1, #15376
	movt	r1, #16386
.Ltmp41:
	.loc	4 702 3 prologue_end            @ ../Library/STM32F4xx_HAL_Driver/Src/stm32f4xx_hal_flash.c:702:3
	ldr	r0, [r1]
	bic	r0, r0, #768
	str	r0, [r1]
	.loc	4 703 13                        @ ../Library/STM32F4xx_HAL_Driver/Src/stm32f4xx_hal_flash.c:703:13
	ldr	r0, [r1]
	str	r0, [r1]
	.loc	4 704 13                        @ ../Library/STM32F4xx_HAL_Driver/Src/stm32f4xx_hal_flash.c:704:13
	ldr	r0, [r1]
	orr	r0, r0, #1
	str	r0, [r1]
	.loc	4 706 29                        @ ../Library/STM32F4xx_HAL_Driver/Src/stm32f4xx_hal_flash.c:706:29
	ldrb.w	r0, [sp, #3]
	.loc	4 706 19 is_stmt 0              @ ../Library/STM32F4xx_HAL_Driver/Src/stm32f4xx_hal_flash.c:706:19
	ldr	r1, [sp, #4]
	.loc	4 706 27                        @ ../Library/STM32F4xx_HAL_Driver/Src/stm32f4xx_hal_flash.c:706:27
	strb	r0, [r1]
	.loc	4 707 1 is_stmt 1               @ ../Library/STM32F4xx_HAL_Driver/Src/stm32f4xx_hal_flash.c:707:1
	add	sp, #8
	bx	lr
.Ltmp42:
.Lfunc_end2:
	.size	FLASH_Program_Byte, .Lfunc_end2-FLASH_Program_Byte
	.cfi_endproc
	.cantunwind
	.fnend
                                        @ -- End function
	.section	.text.FLASH_Program_HalfWord,"ax",%progbits
	.p2align	2                               @ -- Begin function FLASH_Program_HalfWord
	.type	FLASH_Program_HalfWord,%function
	.code	16                              @ @FLASH_Program_HalfWord
	.thumb_func
FLASH_Program_HalfWord:
.Lfunc_begin3:
	.loc	4 672 0                         @ ../Library/STM32F4xx_HAL_Driver/Src/stm32f4xx_hal_flash.c:672:0
	.fnstart
	.cfi_startproc
@ %bb.0:
	.pad	#8
	sub	sp, #8
	.cfi_def_cfa_offset 8
                                        @ kill: def $r2 killed $r1
	str	r0, [sp, #4]
	strh.w	r1, [sp, #2]
	movw	r1, #15376
	movt	r1, #16386
.Ltmp43:
	.loc	4 677 3 prologue_end            @ ../Library/STM32F4xx_HAL_Driver/Src/stm32f4xx_hal_flash.c:677:3
	ldr	r0, [r1]
	bic	r0, r0, #768
	str	r0, [r1]
	.loc	4 678 13                        @ ../Library/STM32F4xx_HAL_Driver/Src/stm32f4xx_hal_flash.c:678:13
	ldr	r0, [r1]
	orr	r0, r0, #256
	str	r0, [r1]
	.loc	4 679 13                        @ ../Library/STM32F4xx_HAL_Driver/Src/stm32f4xx_hal_flash.c:679:13
	ldr	r0, [r1]
	orr	r0, r0, #1
	str	r0, [r1]
	.loc	4 681 30                        @ ../Library/STM32F4xx_HAL_Driver/Src/stm32f4xx_hal_flash.c:681:30
	ldrh.w	r0, [sp, #2]
	.loc	4 681 20 is_stmt 0              @ ../Library/STM32F4xx_HAL_Driver/Src/stm32f4xx_hal_flash.c:681:20
	ldr	r1, [sp, #4]
	.loc	4 681 28                        @ ../Library/STM32F4xx_HAL_Driver/Src/stm32f4xx_hal_flash.c:681:28
	strh	r0, [r1]
	.loc	4 682 1 is_stmt 1               @ ../Library/STM32F4xx_HAL_Driver/Src/stm32f4xx_hal_flash.c:682:1
	add	sp, #8
	bx	lr
.Ltmp44:
.Lfunc_end3:
	.size	FLASH_Program_HalfWord, .Lfunc_end3-FLASH_Program_HalfWord
	.cfi_endproc
	.cantunwind
	.fnend
                                        @ -- End function
	.section	.text.FLASH_Program_Word,"ax",%progbits
	.p2align	2                               @ -- Begin function FLASH_Program_Word
	.type	FLASH_Program_Word,%function
	.code	16                              @ @FLASH_Program_Word
	.thumb_func
FLASH_Program_Word:
.Lfunc_begin4:
	.loc	4 647 0                         @ ../Library/STM32F4xx_HAL_Driver/Src/stm32f4xx_hal_flash.c:647:0
	.fnstart
	.cfi_startproc
@ %bb.0:
	.pad	#8
	sub	sp, #8
	.cfi_def_cfa_offset 8
	str	r0, [sp, #4]
	str	r1, [sp]
	movw	r1, #15376
	movt	r1, #16386
.Ltmp45:
	.loc	4 652 3 prologue_end            @ ../Library/STM32F4xx_HAL_Driver/Src/stm32f4xx_hal_flash.c:652:3
	ldr	r0, [r1]
	bic	r0, r0, #768
	str	r0, [r1]
	.loc	4 653 13                        @ ../Library/STM32F4xx_HAL_Driver/Src/stm32f4xx_hal_flash.c:653:13
	ldr	r0, [r1]
	orr	r0, r0, #512
	str	r0, [r1]
	.loc	4 654 13                        @ ../Library/STM32F4xx_HAL_Driver/Src/stm32f4xx_hal_flash.c:654:13
	ldr	r0, [r1]
	orr	r0, r0, #1
	str	r0, [r1]
	.loc	4 656 30                        @ ../Library/STM32F4xx_HAL_Driver/Src/stm32f4xx_hal_flash.c:656:30
	ldr	r0, [sp]
	.loc	4 656 20 is_stmt 0              @ ../Library/STM32F4xx_HAL_Driver/Src/stm32f4xx_hal_flash.c:656:20
	ldr	r1, [sp, #4]
	.loc	4 656 28                        @ ../Library/STM32F4xx_HAL_Driver/Src/stm32f4xx_hal_flash.c:656:28
	str	r0, [r1]
	.loc	4 657 1 is_stmt 1               @ ../Library/STM32F4xx_HAL_Driver/Src/stm32f4xx_hal_flash.c:657:1
	add	sp, #8
	bx	lr
.Ltmp46:
.Lfunc_end4:
	.size	FLASH_Program_Word, .Lfunc_end4-FLASH_Program_Word
	.cfi_endproc
	.cantunwind
	.fnend
                                        @ -- End function
	.section	.text.FLASH_Program_DoubleWord,"ax",%progbits
	.p2align	2                               @ -- Begin function FLASH_Program_DoubleWord
	.type	FLASH_Program_DoubleWord,%function
	.code	16                              @ @FLASH_Program_DoubleWord
	.thumb_func
FLASH_Program_DoubleWord:
.Lfunc_begin5:
	.loc	4 613 0                         @ ../Library/STM32F4xx_HAL_Driver/Src/stm32f4xx_hal_flash.c:613:0
	.fnstart
	.cfi_startproc
@ %bb.0:
	.pad	#16
	sub	sp, #16
	.cfi_def_cfa_offset 16
                                        @ kill: def $r1 killed $r3
                                        @ kill: def $r1 killed $r2
	str	r0, [sp, #12]
	str	r3, [sp, #4]
	str	r2, [sp]
	movw	r1, #15376
	movt	r1, #16386
.Ltmp47:
	.loc	4 618 3 prologue_end            @ ../Library/STM32F4xx_HAL_Driver/Src/stm32f4xx_hal_flash.c:618:3
	ldr	r0, [r1]
	bic	r0, r0, #768
	str	r0, [r1]
	.loc	4 619 13                        @ ../Library/STM32F4xx_HAL_Driver/Src/stm32f4xx_hal_flash.c:619:13
	ldr	r0, [r1]
	orr	r0, r0, #768
	str	r0, [r1]
	.loc	4 620 13                        @ ../Library/STM32F4xx_HAL_Driver/Src/stm32f4xx_hal_flash.c:620:13
	ldr	r0, [r1]
	orr	r0, r0, #1
	str	r0, [r1]
	.loc	4 623 40                        @ ../Library/STM32F4xx_HAL_Driver/Src/stm32f4xx_hal_flash.c:623:40
	ldr	r0, [sp]
	.loc	4 623 20 is_stmt 0              @ ../Library/STM32F4xx_HAL_Driver/Src/stm32f4xx_hal_flash.c:623:20
	ldr	r1, [sp, #12]
	.loc	4 623 28                        @ ../Library/STM32F4xx_HAL_Driver/Src/stm32f4xx_hal_flash.c:623:28
	str	r0, [r1]
	.loc	4 627 3 is_stmt 1               @ ../Library/STM32F4xx_HAL_Driver/Src/stm32f4xx_hal_flash.c:627:3
	isb	sy
	.loc	4 630 45                        @ ../Library/STM32F4xx_HAL_Driver/Src/stm32f4xx_hal_flash.c:630:45
	ldr	r0, [sp, #4]
	.loc	4 630 21 is_stmt 0              @ ../Library/STM32F4xx_HAL_Driver/Src/stm32f4xx_hal_flash.c:630:21
	ldr	r1, [sp, #12]
	.loc	4 630 32                        @ ../Library/STM32F4xx_HAL_Driver/Src/stm32f4xx_hal_flash.c:630:32
	str	r0, [r1, #4]
	.loc	4 631 1 is_stmt 1               @ ../Library/STM32F4xx_HAL_Driver/Src/stm32f4xx_hal_flash.c:631:1
	add	sp, #16
	bx	lr
.Ltmp48:
.Lfunc_end5:
	.size	FLASH_Program_DoubleWord, .Lfunc_end5-FLASH_Program_DoubleWord
	.cfi_endproc
	.cantunwind
	.fnend
                                        @ -- End function
	.section	.text.HAL_FLASH_Program_IT,"ax",%progbits
	.hidden	HAL_FLASH_Program_IT            @ -- Begin function HAL_FLASH_Program_IT
	.globl	HAL_FLASH_Program_IT
	.p2align	2
	.type	HAL_FLASH_Program_IT,%function
	.code	16                              @ @HAL_FLASH_Program_IT
	.thumb_func
HAL_FLASH_Program_IT:
.Lfunc_begin6:
	.loc	4 215 0                         @ ../Library/STM32F4xx_HAL_Driver/Src/stm32f4xx_hal_flash.c:215:0
	.fnstart
	.cfi_startproc
@ %bb.0:
	.save	{r7, lr}
	push	{r7, lr}
	.cfi_def_cfa_offset 8
	.cfi_offset lr, -4
	.cfi_offset r7, -8
	.pad	#32
	sub	sp, #32
	.cfi_def_cfa_offset 40
                                        @ kill: def $r12 killed $r3
                                        @ kill: def $r12 killed $r2
	str	r0, [sp, #24]
	str	r1, [sp, #20]
	str	r3, [sp, #12]
	str	r2, [sp, #8]
	movs	r0, #0
.Ltmp49:
	.loc	4 216 21 prologue_end           @ ../Library/STM32F4xx_HAL_Driver/Src/stm32f4xx_hal_flash.c:216:21
	strb.w	r0, [sp, #7]
	.loc	4 219 3                         @ ../Library/STM32F4xx_HAL_Driver/Src/stm32f4xx_hal_flash.c:219:3
	b	.LBB6_1
.LBB6_1:
.Ltmp50:
	.loc	4 219 3 is_stmt 0               @ ../Library/STM32F4xx_HAL_Driver/Src/stm32f4xx_hal_flash.c:219:3
	movw	r0, :lower16:pFlash
	movt	r0, :upper16:pFlash
	ldrb	r0, [r0, #24]
.Ltmp51:
	.loc	4 219 3                         @ ../Library/STM32F4xx_HAL_Driver/Src/stm32f4xx_hal_flash.c:219:3
	cmp	r0, #1
	bne	.LBB6_3
	b	.LBB6_2
.LBB6_2:
	.loc	4 0 3                           @ ../Library/STM32F4xx_HAL_Driver/Src/stm32f4xx_hal_flash.c:0:3
	movs	r0, #2
.Ltmp52:
	.loc	4 219 3                         @ ../Library/STM32F4xx_HAL_Driver/Src/stm32f4xx_hal_flash.c:219:3
	strb.w	r0, [sp, #31]
	b	.LBB6_15
.Ltmp53:
.LBB6_3:
	.loc	4 219 3                         @ ../Library/STM32F4xx_HAL_Driver/Src/stm32f4xx_hal_flash.c:219:3
	movw	r1, :lower16:pFlash
	movt	r1, :upper16:pFlash
	movs	r0, #1
	strb	r0, [r1, #24]
	b	.LBB6_4
.Ltmp54:
.LBB6_4:
	.loc	4 219 3                         @ ../Library/STM32F4xx_HAL_Driver/Src/stm32f4xx_hal_flash.c:219:3
	b	.LBB6_5
.Ltmp55:
.LBB6_5:
	.loc	4 0 3                           @ ../Library/STM32F4xx_HAL_Driver/Src/stm32f4xx_hal_flash.c:0:3
	movw	r1, #15376
	movt	r1, #16386
	.loc	4 225 3 is_stmt 1               @ ../Library/STM32F4xx_HAL_Driver/Src/stm32f4xx_hal_flash.c:225:3
	ldr	r0, [r1]
	orr	r0, r0, #16777216
	str	r0, [r1]
	.loc	4 228 3                         @ ../Library/STM32F4xx_HAL_Driver/Src/stm32f4xx_hal_flash.c:228:3
	ldr	r0, [r1]
	orr	r0, r0, #33554432
	str	r0, [r1]
	.loc	4 230 27                        @ ../Library/STM32F4xx_HAL_Driver/Src/stm32f4xx_hal_flash.c:230:27
	movw	r1, :lower16:pFlash
	movt	r1, :upper16:pFlash
	movs	r0, #3
	strb	r0, [r1]
	.loc	4 231 20                        @ ../Library/STM32F4xx_HAL_Driver/Src/stm32f4xx_hal_flash.c:231:20
	ldr	r0, [sp, #20]
	.loc	4 231 18 is_stmt 0              @ ../Library/STM32F4xx_HAL_Driver/Src/stm32f4xx_hal_flash.c:231:18
	str	r0, [r1, #20]
.Ltmp56:
	.loc	4 233 6 is_stmt 1               @ ../Library/STM32F4xx_HAL_Driver/Src/stm32f4xx_hal_flash.c:233:6
	ldr	r0, [sp, #24]
.Ltmp57:
	.loc	4 233 6 is_stmt 0               @ ../Library/STM32F4xx_HAL_Driver/Src/stm32f4xx_hal_flash.c:233:6
	cbnz	r0, .LBB6_7
	b	.LBB6_6
.LBB6_6:
.Ltmp58:
	.loc	4 236 26 is_stmt 1              @ ../Library/STM32F4xx_HAL_Driver/Src/stm32f4xx_hal_flash.c:236:26
	ldr	r0, [sp, #20]
	.loc	4 236 45 is_stmt 0              @ ../Library/STM32F4xx_HAL_Driver/Src/stm32f4xx_hal_flash.c:236:45
	ldrb.w	r1, [sp, #8]
	.loc	4 236 7                         @ ../Library/STM32F4xx_HAL_Driver/Src/stm32f4xx_hal_flash.c:236:7
	bl	FLASH_Program_Byte
	.loc	4 237 3 is_stmt 1               @ ../Library/STM32F4xx_HAL_Driver/Src/stm32f4xx_hal_flash.c:237:3
	b	.LBB6_14
.Ltmp59:
.LBB6_7:
	.loc	4 238 11                        @ ../Library/STM32F4xx_HAL_Driver/Src/stm32f4xx_hal_flash.c:238:11
	ldr	r0, [sp, #24]
.Ltmp60:
	.loc	4 238 11 is_stmt 0              @ ../Library/STM32F4xx_HAL_Driver/Src/stm32f4xx_hal_flash.c:238:11
	cmp	r0, #1
	bne	.LBB6_9
	b	.LBB6_8
.LBB6_8:
.Ltmp61:
	.loc	4 241 28 is_stmt 1              @ ../Library/STM32F4xx_HAL_Driver/Src/stm32f4xx_hal_flash.c:241:28
	ldr	r0, [sp, #20]
	.loc	4 241 48 is_stmt 0              @ ../Library/STM32F4xx_HAL_Driver/Src/stm32f4xx_hal_flash.c:241:48
	ldrh.w	r1, [sp, #8]
	.loc	4 241 5                         @ ../Library/STM32F4xx_HAL_Driver/Src/stm32f4xx_hal_flash.c:241:5
	bl	FLASH_Program_HalfWord
	.loc	4 242 3 is_stmt 1               @ ../Library/STM32F4xx_HAL_Driver/Src/stm32f4xx_hal_flash.c:242:3
	b	.LBB6_13
.Ltmp62:
.LBB6_9:
	.loc	4 243 11                        @ ../Library/STM32F4xx_HAL_Driver/Src/stm32f4xx_hal_flash.c:243:11
	ldr	r0, [sp, #24]
.Ltmp63:
	.loc	4 243 11 is_stmt 0              @ ../Library/STM32F4xx_HAL_Driver/Src/stm32f4xx_hal_flash.c:243:11
	cmp	r0, #2
	bne	.LBB6_11
	b	.LBB6_10
.LBB6_10:
.Ltmp64:
	.loc	4 246 24 is_stmt 1              @ ../Library/STM32F4xx_HAL_Driver/Src/stm32f4xx_hal_flash.c:246:24
	ldr	r0, [sp, #20]
	.loc	4 246 44 is_stmt 0              @ ../Library/STM32F4xx_HAL_Driver/Src/stm32f4xx_hal_flash.c:246:44
	ldr	r1, [sp, #8]
	.loc	4 246 5                         @ ../Library/STM32F4xx_HAL_Driver/Src/stm32f4xx_hal_flash.c:246:5
	bl	FLASH_Program_Word
	.loc	4 247 3 is_stmt 1               @ ../Library/STM32F4xx_HAL_Driver/Src/stm32f4xx_hal_flash.c:247:3
	b	.LBB6_12
.Ltmp65:
.LBB6_11:
	.loc	4 251 30                        @ ../Library/STM32F4xx_HAL_Driver/Src/stm32f4xx_hal_flash.c:251:30
	ldr	r0, [sp, #20]
	.loc	4 251 39 is_stmt 0              @ ../Library/STM32F4xx_HAL_Driver/Src/stm32f4xx_hal_flash.c:251:39
	ldr	r2, [sp, #8]
	ldr	r3, [sp, #12]
	.loc	4 251 5                         @ ../Library/STM32F4xx_HAL_Driver/Src/stm32f4xx_hal_flash.c:251:5
	bl	FLASH_Program_DoubleWord
	b	.LBB6_12
.Ltmp66:
.LBB6_12:
	.loc	4 0 5                           @ ../Library/STM32F4xx_HAL_Driver/Src/stm32f4xx_hal_flash.c:0:5
	b	.LBB6_13
.LBB6_13:
	b	.LBB6_14
.LBB6_14:
	.loc	4 254 10 is_stmt 1              @ ../Library/STM32F4xx_HAL_Driver/Src/stm32f4xx_hal_flash.c:254:10
	ldrb.w	r0, [sp, #7]
	.loc	4 254 3 is_stmt 0               @ ../Library/STM32F4xx_HAL_Driver/Src/stm32f4xx_hal_flash.c:254:3
	strb.w	r0, [sp, #31]
	b	.LBB6_15
.LBB6_15:
	.loc	4 255 1 is_stmt 1               @ ../Library/STM32F4xx_HAL_Driver/Src/stm32f4xx_hal_flash.c:255:1
	ldrb.w	r0, [sp, #31]
	add	sp, #32
	pop	{r7, pc}
.Ltmp67:
.Lfunc_end6:
	.size	HAL_FLASH_Program_IT, .Lfunc_end6-HAL_FLASH_Program_IT
	.cfi_endproc
	.cantunwind
	.fnend
                                        @ -- End function
	.section	.text.HAL_FLASH_IRQHandler,"ax",%progbits
	.hidden	HAL_FLASH_IRQHandler            @ -- Begin function HAL_FLASH_IRQHandler
	.globl	HAL_FLASH_IRQHandler
	.p2align	2
	.type	HAL_FLASH_IRQHandler,%function
	.code	16                              @ @HAL_FLASH_IRQHandler
	.thumb_func
HAL_FLASH_IRQHandler:
.Lfunc_begin7:
	.loc	4 262 0                         @ ../Library/STM32F4xx_HAL_Driver/Src/stm32f4xx_hal_flash.c:262:0
	.fnstart
	.cfi_startproc
@ %bb.0:
	.save	{r7, lr}
	push	{r7, lr}
	.cfi_def_cfa_offset 8
	.cfi_offset lr, -4
	.cfi_offset r7, -8
	.pad	#8
	sub	sp, #8
	.cfi_def_cfa_offset 16
	movs	r0, #0
.Ltmp68:
	.loc	4 263 12 prologue_end           @ ../Library/STM32F4xx_HAL_Driver/Src/stm32f4xx_hal_flash.c:263:12
	str	r0, [sp, #4]
	movw	r0, #15372
	movt	r0, #16386
.Ltmp69:
	.loc	4 267 6                         @ ../Library/STM32F4xx_HAL_Driver/Src/stm32f4xx_hal_flash.c:267:6
	ldr	r0, [r0]
.Ltmp70:
	.loc	4 267 6 is_stmt 0               @ ../Library/STM32F4xx_HAL_Driver/Src/stm32f4xx_hal_flash.c:267:6
	tst.w	r0, #498
	beq	.LBB7_8
	b	.LBB7_1
.LBB7_1:
.Ltmp71:
	.loc	4 274 15 is_stmt 1              @ ../Library/STM32F4xx_HAL_Driver/Src/stm32f4xx_hal_flash.c:274:15
	movw	r0, :lower16:pFlash
	movt	r0, :upper16:pFlash
	ldrb	r0, [r0]
.Ltmp72:
	.loc	4 274 8 is_stmt 0               @ ../Library/STM32F4xx_HAL_Driver/Src/stm32f4xx_hal_flash.c:274:8
	cmp	r0, #1
	bne	.LBB7_3
	b	.LBB7_2
.LBB7_2:
.Ltmp73:
	.loc	4 277 27 is_stmt 1              @ ../Library/STM32F4xx_HAL_Driver/Src/stm32f4xx_hal_flash.c:277:27
	movw	r1, :lower16:pFlash
	movt	r1, :upper16:pFlash
	ldr	r0, [r1, #12]
	.loc	4 277 18 is_stmt 0              @ ../Library/STM32F4xx_HAL_Driver/Src/stm32f4xx_hal_flash.c:277:18
	str	r0, [sp, #4]
	mov.w	r0, #-1
	.loc	4 278 21 is_stmt 1              @ ../Library/STM32F4xx_HAL_Driver/Src/stm32f4xx_hal_flash.c:278:21
	str	r0, [r1, #12]
	.loc	4 279 5                         @ ../Library/STM32F4xx_HAL_Driver/Src/stm32f4xx_hal_flash.c:279:5
	b	.LBB7_7
.Ltmp74:
.LBB7_3:
	.loc	4 280 20                        @ ../Library/STM32F4xx_HAL_Driver/Src/stm32f4xx_hal_flash.c:280:20
	movw	r0, :lower16:pFlash
	movt	r0, :upper16:pFlash
	ldrb	r0, [r0]
.Ltmp75:
	.loc	4 280 13 is_stmt 0              @ ../Library/STM32F4xx_HAL_Driver/Src/stm32f4xx_hal_flash.c:280:13
	cmp	r0, #2
	bne	.LBB7_5
	b	.LBB7_4
.LBB7_4:
.Ltmp76:
	.loc	4 283 27 is_stmt 1              @ ../Library/STM32F4xx_HAL_Driver/Src/stm32f4xx_hal_flash.c:283:27
	movw	r0, :lower16:pFlash
	movt	r0, :upper16:pFlash
	ldr	r0, [r0, #16]
	.loc	4 283 18 is_stmt 0              @ ../Library/STM32F4xx_HAL_Driver/Src/stm32f4xx_hal_flash.c:283:18
	str	r0, [sp, #4]
	.loc	4 284 5 is_stmt 1               @ ../Library/STM32F4xx_HAL_Driver/Src/stm32f4xx_hal_flash.c:284:5
	b	.LBB7_6
.Ltmp77:
.LBB7_5:
	.loc	4 288 27                        @ ../Library/STM32F4xx_HAL_Driver/Src/stm32f4xx_hal_flash.c:288:27
	movw	r0, :lower16:pFlash
	movt	r0, :upper16:pFlash
	ldr	r0, [r0, #20]
	.loc	4 288 18 is_stmt 0              @ ../Library/STM32F4xx_HAL_Driver/Src/stm32f4xx_hal_flash.c:288:18
	str	r0, [sp, #4]
	b	.LBB7_6
.Ltmp78:
.LBB7_6:
	.loc	4 0 18                          @ ../Library/STM32F4xx_HAL_Driver/Src/stm32f4xx_hal_flash.c:0:18
	b	.LBB7_7
.LBB7_7:
	.loc	4 292 5 is_stmt 1               @ ../Library/STM32F4xx_HAL_Driver/Src/stm32f4xx_hal_flash.c:292:5
	bl	FLASH_SetErrorCode
	.loc	4 295 38                        @ ../Library/STM32F4xx_HAL_Driver/Src/stm32f4xx_hal_flash.c:295:38
	ldr	r0, [sp, #4]
	.loc	4 295 5 is_stmt 0               @ ../Library/STM32F4xx_HAL_Driver/Src/stm32f4xx_hal_flash.c:295:5
	bl	HAL_FLASH_OperationErrorCallback
	.loc	4 298 29 is_stmt 1              @ ../Library/STM32F4xx_HAL_Driver/Src/stm32f4xx_hal_flash.c:298:29
	movw	r1, :lower16:pFlash
	movt	r1, :upper16:pFlash
	movs	r0, #0
	strb	r0, [r1]
	.loc	4 299 3                         @ ../Library/STM32F4xx_HAL_Driver/Src/stm32f4xx_hal_flash.c:299:3
	b	.LBB7_8
.Ltmp79:
.LBB7_8:
	.loc	4 0 3 is_stmt 0                 @ ../Library/STM32F4xx_HAL_Driver/Src/stm32f4xx_hal_flash.c:0:3
	movw	r0, #15372
	movt	r0, #16386
.Ltmp80:
	.loc	4 302 6 is_stmt 1               @ ../Library/STM32F4xx_HAL_Driver/Src/stm32f4xx_hal_flash.c:302:6
	ldr	r0, [r0]
.Ltmp81:
	.loc	4 302 6 is_stmt 0               @ ../Library/STM32F4xx_HAL_Driver/Src/stm32f4xx_hal_flash.c:302:6
	lsls	r0, r0, #31
	cmp	r0, #0
	beq	.LBB7_19
	b	.LBB7_9
.LBB7_9:
	.loc	4 0 6                           @ ../Library/STM32F4xx_HAL_Driver/Src/stm32f4xx_hal_flash.c:0:6
	movw	r1, #15372
	movt	r1, #16386
	movs	r0, #1
.Ltmp82:
	.loc	4 305 5 is_stmt 1               @ ../Library/STM32F4xx_HAL_Driver/Src/stm32f4xx_hal_flash.c:305:5
	str	r0, [r1]
.Ltmp83:
	.loc	4 307 15                        @ ../Library/STM32F4xx_HAL_Driver/Src/stm32f4xx_hal_flash.c:307:15
	movw	r0, :lower16:pFlash
	movt	r0, :upper16:pFlash
	ldrb	r0, [r0]
.Ltmp84:
	.loc	4 307 8 is_stmt 0               @ ../Library/STM32F4xx_HAL_Driver/Src/stm32f4xx_hal_flash.c:307:8
	cmp	r0, #1
	bne	.LBB7_14
	b	.LBB7_10
.LBB7_10:
.Ltmp85:
	.loc	4 310 30 is_stmt 1              @ ../Library/STM32F4xx_HAL_Driver/Src/stm32f4xx_hal_flash.c:310:30
	movw	r0, :lower16:pFlash
	movt	r0, :upper16:pFlash
	ldr	r1, [r0, #4]
	subs	r1, #1
	str	r1, [r0, #4]
.Ltmp86:
	.loc	4 313 17                        @ ../Library/STM32F4xx_HAL_Driver/Src/stm32f4xx_hal_flash.c:313:17
	ldr	r0, [r0, #4]
.Ltmp87:
	.loc	4 313 10 is_stmt 0              @ ../Library/STM32F4xx_HAL_Driver/Src/stm32f4xx_hal_flash.c:313:10
	cbz	r0, .LBB7_12
	b	.LBB7_11
.LBB7_11:
.Ltmp88:
	.loc	4 315 29 is_stmt 1              @ ../Library/STM32F4xx_HAL_Driver/Src/stm32f4xx_hal_flash.c:315:29
	movw	r0, :lower16:pFlash
	movt	r0, :upper16:pFlash
	str	r0, [sp]                        @ 4-byte Spill
	ldr	r0, [r0, #12]
	.loc	4 315 20 is_stmt 0              @ ../Library/STM32F4xx_HAL_Driver/Src/stm32f4xx_hal_flash.c:315:20
	str	r0, [sp, #4]
	.loc	4 317 42 is_stmt 1              @ ../Library/STM32F4xx_HAL_Driver/Src/stm32f4xx_hal_flash.c:317:42
	ldr	r0, [sp, #4]
	.loc	4 317 9 is_stmt 0               @ ../Library/STM32F4xx_HAL_Driver/Src/stm32f4xx_hal_flash.c:317:9
	bl	HAL_FLASH_EndOfOperationCallback
	ldr	r1, [sp]                        @ 4-byte Reload
	.loc	4 320 22 is_stmt 1              @ ../Library/STM32F4xx_HAL_Driver/Src/stm32f4xx_hal_flash.c:320:22
	ldr	r0, [r1, #12]
	adds	r0, #1
	str	r0, [r1, #12]
	.loc	4 321 29                        @ ../Library/STM32F4xx_HAL_Driver/Src/stm32f4xx_hal_flash.c:321:29
	ldr	r0, [r1, #12]
	.loc	4 321 20 is_stmt 0              @ ../Library/STM32F4xx_HAL_Driver/Src/stm32f4xx_hal_flash.c:321:20
	str	r0, [sp, #4]
	.loc	4 322 28 is_stmt 1              @ ../Library/STM32F4xx_HAL_Driver/Src/stm32f4xx_hal_flash.c:322:28
	ldr	r0, [sp, #4]
	.loc	4 322 47 is_stmt 0              @ ../Library/STM32F4xx_HAL_Driver/Src/stm32f4xx_hal_flash.c:322:47
	ldrb	r1, [r1, #8]
	.loc	4 322 9                         @ ../Library/STM32F4xx_HAL_Driver/Src/stm32f4xx_hal_flash.c:322:9
	bl	FLASH_Erase_Sector
	.loc	4 323 7 is_stmt 1               @ ../Library/STM32F4xx_HAL_Driver/Src/stm32f4xx_hal_flash.c:323:7
	b	.LBB7_13
.Ltmp89:
.LBB7_12:
	.loc	4 0 7 is_stmt 0                 @ ../Library/STM32F4xx_HAL_Driver/Src/stm32f4xx_hal_flash.c:0:7
	mov.w	r0, #-1
.Ltmp90:
	.loc	4 328 36 is_stmt 1              @ ../Library/STM32F4xx_HAL_Driver/Src/stm32f4xx_hal_flash.c:328:36
	str	r0, [sp, #4]
	.loc	4 328 23 is_stmt 0              @ ../Library/STM32F4xx_HAL_Driver/Src/stm32f4xx_hal_flash.c:328:23
	movw	r1, :lower16:pFlash
	movt	r1, :upper16:pFlash
	str	r0, [r1, #12]
	movs	r0, #0
	.loc	4 329 33 is_stmt 1              @ ../Library/STM32F4xx_HAL_Driver/Src/stm32f4xx_hal_flash.c:329:33
	strb	r0, [r1]
	.loc	4 332 9                         @ ../Library/STM32F4xx_HAL_Driver/Src/stm32f4xx_hal_flash.c:332:9
	bl	FLASH_FlushCaches
	.loc	4 335 42                        @ ../Library/STM32F4xx_HAL_Driver/Src/stm32f4xx_hal_flash.c:335:42
	ldr	r0, [sp, #4]
	.loc	4 335 9 is_stmt 0               @ ../Library/STM32F4xx_HAL_Driver/Src/stm32f4xx_hal_flash.c:335:9
	bl	HAL_FLASH_EndOfOperationCallback
	b	.LBB7_13
.Ltmp91:
.LBB7_13:
	.loc	4 337 5 is_stmt 1               @ ../Library/STM32F4xx_HAL_Driver/Src/stm32f4xx_hal_flash.c:337:5
	b	.LBB7_18
.Ltmp92:
.LBB7_14:
	.loc	4 340 17                        @ ../Library/STM32F4xx_HAL_Driver/Src/stm32f4xx_hal_flash.c:340:17
	movw	r0, :lower16:pFlash
	movt	r0, :upper16:pFlash
	ldrb	r0, [r0]
.Ltmp93:
	.loc	4 340 10 is_stmt 0              @ ../Library/STM32F4xx_HAL_Driver/Src/stm32f4xx_hal_flash.c:340:10
	cmp	r0, #2
	bne	.LBB7_16
	b	.LBB7_15
.LBB7_15:
.Ltmp94:
	.loc	4 344 9 is_stmt 1               @ ../Library/STM32F4xx_HAL_Driver/Src/stm32f4xx_hal_flash.c:344:9
	bl	FLASH_FlushCaches
	.loc	4 347 49                        @ ../Library/STM32F4xx_HAL_Driver/Src/stm32f4xx_hal_flash.c:347:49
	movw	r0, :lower16:pFlash
	movt	r0, :upper16:pFlash
	ldr	r0, [r0, #16]
	.loc	4 347 9 is_stmt 0               @ ../Library/STM32F4xx_HAL_Driver/Src/stm32f4xx_hal_flash.c:347:9
	bl	HAL_FLASH_EndOfOperationCallback
	.loc	4 348 7 is_stmt 1               @ ../Library/STM32F4xx_HAL_Driver/Src/stm32f4xx_hal_flash.c:348:7
	b	.LBB7_17
.Ltmp95:
.LBB7_16:
	.loc	4 353 49                        @ ../Library/STM32F4xx_HAL_Driver/Src/stm32f4xx_hal_flash.c:353:49
	movw	r0, :lower16:pFlash
	movt	r0, :upper16:pFlash
	ldr	r0, [r0, #20]
	.loc	4 353 9 is_stmt 0               @ ../Library/STM32F4xx_HAL_Driver/Src/stm32f4xx_hal_flash.c:353:9
	bl	HAL_FLASH_EndOfOperationCallback
	b	.LBB7_17
.Ltmp96:
.LBB7_17:
	.loc	4 355 31 is_stmt 1              @ ../Library/STM32F4xx_HAL_Driver/Src/stm32f4xx_hal_flash.c:355:31
	movw	r1, :lower16:pFlash
	movt	r1, :upper16:pFlash
	movs	r0, #0
	strb	r0, [r1]
	b	.LBB7_18
.Ltmp97:
.LBB7_18:
	.loc	4 357 3                         @ ../Library/STM32F4xx_HAL_Driver/Src/stm32f4xx_hal_flash.c:357:3
	b	.LBB7_19
.Ltmp98:
.LBB7_19:
	.loc	4 359 13                        @ ../Library/STM32F4xx_HAL_Driver/Src/stm32f4xx_hal_flash.c:359:13
	movw	r0, :lower16:pFlash
	movt	r0, :upper16:pFlash
	ldrb	r0, [r0]
.Ltmp99:
	.loc	4 359 6 is_stmt 0               @ ../Library/STM32F4xx_HAL_Driver/Src/stm32f4xx_hal_flash.c:359:6
	cbnz	r0, .LBB7_23
	b	.LBB7_20
.LBB7_20:
	.loc	4 0 6                           @ ../Library/STM32F4xx_HAL_Driver/Src/stm32f4xx_hal_flash.c:0:6
	movw	r1, #15376
	movt	r1, #16386
.Ltmp100:
	.loc	4 362 5 is_stmt 1               @ ../Library/STM32F4xx_HAL_Driver/Src/stm32f4xx_hal_flash.c:362:5
	ldr	r0, [r1]
	movw	r2, #33023
	bics	r0, r2
	str	r0, [r1]
	.loc	4 365 5                         @ ../Library/STM32F4xx_HAL_Driver/Src/stm32f4xx_hal_flash.c:365:5
	ldr	r0, [r1]
	bic	r0, r0, #16777216
	str	r0, [r1]
	.loc	4 368 5                         @ ../Library/STM32F4xx_HAL_Driver/Src/stm32f4xx_hal_flash.c:368:5
	ldr	r0, [r1]
	bic	r0, r0, #33554432
	str	r0, [r1]
	.loc	4 371 5                         @ ../Library/STM32F4xx_HAL_Driver/Src/stm32f4xx_hal_flash.c:371:5
	b	.LBB7_21
.LBB7_21:
.Ltmp101:
	.loc	4 371 5 is_stmt 0               @ ../Library/STM32F4xx_HAL_Driver/Src/stm32f4xx_hal_flash.c:371:5
	movw	r1, :lower16:pFlash
	movt	r1, :upper16:pFlash
	movs	r0, #0
	strb	r0, [r1, #24]
	b	.LBB7_22
.Ltmp102:
.LBB7_22:
	.loc	4 372 3 is_stmt 1               @ ../Library/STM32F4xx_HAL_Driver/Src/stm32f4xx_hal_flash.c:372:3
	b	.LBB7_23
.Ltmp103:
.LBB7_23:
	.loc	4 373 1                         @ ../Library/STM32F4xx_HAL_Driver/Src/stm32f4xx_hal_flash.c:373:1
	add	sp, #8
	pop	{r7, pc}
.Ltmp104:
.Lfunc_end7:
	.size	HAL_FLASH_IRQHandler, .Lfunc_end7-HAL_FLASH_IRQHandler
	.cfi_endproc
	.cantunwind
	.fnend
                                        @ -- End function
	.section	.text.FLASH_SetErrorCode,"ax",%progbits
	.p2align	2                               @ -- Begin function FLASH_SetErrorCode
	.type	FLASH_SetErrorCode,%function
	.code	16                              @ @FLASH_SetErrorCode
	.thumb_func
FLASH_SetErrorCode:
.Lfunc_begin8:
	.loc	4 714 0                         @ ../Library/STM32F4xx_HAL_Driver/Src/stm32f4xx_hal_flash.c:714:0
	.fnstart
	.cfi_startproc
@ %bb.0:
	movw	r0, #15372
	movt	r0, #16386
.Ltmp105:
	.loc	4 715 6 prologue_end            @ ../Library/STM32F4xx_HAL_Driver/Src/stm32f4xx_hal_flash.c:715:6
	ldr	r0, [r0]
.Ltmp106:
	.loc	4 715 6 is_stmt 0               @ ../Library/STM32F4xx_HAL_Driver/Src/stm32f4xx_hal_flash.c:715:6
	lsls	r0, r0, #27
	cmp	r0, #0
	bpl	.LBB8_2
	b	.LBB8_1
.LBB8_1:
.Ltmp107:
	.loc	4 717 21 is_stmt 1              @ ../Library/STM32F4xx_HAL_Driver/Src/stm32f4xx_hal_flash.c:717:21
	movw	r1, :lower16:pFlash
	movt	r1, :upper16:pFlash
	ldr	r0, [r1, #28]
	orr	r0, r0, #16
	str	r0, [r1, #28]
	movw	r1, #15372
	movt	r1, #16386
	movs	r0, #16
	.loc	4 720 4                         @ ../Library/STM32F4xx_HAL_Driver/Src/stm32f4xx_hal_flash.c:720:4
	str	r0, [r1]
	.loc	4 721 3                         @ ../Library/STM32F4xx_HAL_Driver/Src/stm32f4xx_hal_flash.c:721:3
	b	.LBB8_2
.Ltmp108:
.LBB8_2:
	.loc	4 0 3 is_stmt 0                 @ ../Library/STM32F4xx_HAL_Driver/Src/stm32f4xx_hal_flash.c:0:3
	movw	r0, #15372
	movt	r0, #16386
.Ltmp109:
	.loc	4 723 6 is_stmt 1               @ ../Library/STM32F4xx_HAL_Driver/Src/stm32f4xx_hal_flash.c:723:6
	ldr	r0, [r0]
.Ltmp110:
	.loc	4 723 6 is_stmt 0               @ ../Library/STM32F4xx_HAL_Driver/Src/stm32f4xx_hal_flash.c:723:6
	lsls	r0, r0, #26
	cmp	r0, #0
	bpl	.LBB8_4
	b	.LBB8_3
.LBB8_3:
.Ltmp111:
	.loc	4 725 21 is_stmt 1              @ ../Library/STM32F4xx_HAL_Driver/Src/stm32f4xx_hal_flash.c:725:21
	movw	r1, :lower16:pFlash
	movt	r1, :upper16:pFlash
	ldr	r0, [r1, #28]
	orr	r0, r0, #8
	str	r0, [r1, #28]
	movw	r1, #15372
	movt	r1, #16386
	movs	r0, #32
	.loc	4 728 4                         @ ../Library/STM32F4xx_HAL_Driver/Src/stm32f4xx_hal_flash.c:728:4
	str	r0, [r1]
	.loc	4 729 3                         @ ../Library/STM32F4xx_HAL_Driver/Src/stm32f4xx_hal_flash.c:729:3
	b	.LBB8_4
.Ltmp112:
.LBB8_4:
	.loc	4 0 3 is_stmt 0                 @ ../Library/STM32F4xx_HAL_Driver/Src/stm32f4xx_hal_flash.c:0:3
	movw	r0, #15372
	movt	r0, #16386
.Ltmp113:
	.loc	4 731 6 is_stmt 1               @ ../Library/STM32F4xx_HAL_Driver/Src/stm32f4xx_hal_flash.c:731:6
	ldr	r0, [r0]
.Ltmp114:
	.loc	4 731 6 is_stmt 0               @ ../Library/STM32F4xx_HAL_Driver/Src/stm32f4xx_hal_flash.c:731:6
	lsls	r0, r0, #25
	cmp	r0, #0
	bpl	.LBB8_6
	b	.LBB8_5
.LBB8_5:
.Ltmp115:
	.loc	4 733 22 is_stmt 1              @ ../Library/STM32F4xx_HAL_Driver/Src/stm32f4xx_hal_flash.c:733:22
	movw	r1, :lower16:pFlash
	movt	r1, :upper16:pFlash
	ldr	r0, [r1, #28]
	orr	r0, r0, #4
	str	r0, [r1, #28]
	movw	r1, #15372
	movt	r1, #16386
	movs	r0, #64
	.loc	4 736 5                         @ ../Library/STM32F4xx_HAL_Driver/Src/stm32f4xx_hal_flash.c:736:5
	str	r0, [r1]
	.loc	4 737 3                         @ ../Library/STM32F4xx_HAL_Driver/Src/stm32f4xx_hal_flash.c:737:3
	b	.LBB8_6
.Ltmp116:
.LBB8_6:
	.loc	4 0 3 is_stmt 0                 @ ../Library/STM32F4xx_HAL_Driver/Src/stm32f4xx_hal_flash.c:0:3
	movw	r0, #15372
	movt	r0, #16386
.Ltmp117:
	.loc	4 739 6 is_stmt 1               @ ../Library/STM32F4xx_HAL_Driver/Src/stm32f4xx_hal_flash.c:739:6
	ldr	r0, [r0]
.Ltmp118:
	.loc	4 739 6 is_stmt 0               @ ../Library/STM32F4xx_HAL_Driver/Src/stm32f4xx_hal_flash.c:739:6
	lsls	r0, r0, #24
	cmp	r0, #0
	bpl	.LBB8_8
	b	.LBB8_7
.LBB8_7:
.Ltmp119:
	.loc	4 741 22 is_stmt 1              @ ../Library/STM32F4xx_HAL_Driver/Src/stm32f4xx_hal_flash.c:741:22
	movw	r1, :lower16:pFlash
	movt	r1, :upper16:pFlash
	ldr	r0, [r1, #28]
	orr	r0, r0, #2
	str	r0, [r1, #28]
	movw	r1, #15372
	movt	r1, #16386
	movs	r0, #128
	.loc	4 744 5                         @ ../Library/STM32F4xx_HAL_Driver/Src/stm32f4xx_hal_flash.c:744:5
	str	r0, [r1]
	.loc	4 745 3                         @ ../Library/STM32F4xx_HAL_Driver/Src/stm32f4xx_hal_flash.c:745:3
	b	.LBB8_8
.Ltmp120:
.LBB8_8:
	.loc	4 0 3 is_stmt 0                 @ ../Library/STM32F4xx_HAL_Driver/Src/stm32f4xx_hal_flash.c:0:3
	movw	r0, #15372
	movt	r0, #16386
.Ltmp121:
	.loc	4 747 6 is_stmt 1               @ ../Library/STM32F4xx_HAL_Driver/Src/stm32f4xx_hal_flash.c:747:6
	ldr	r0, [r0]
.Ltmp122:
	.loc	4 747 6 is_stmt 0               @ ../Library/STM32F4xx_HAL_Driver/Src/stm32f4xx_hal_flash.c:747:6
	lsls	r0, r0, #23
	cmp	r0, #0
	bpl	.LBB8_10
	b	.LBB8_9
.LBB8_9:
.Ltmp123:
	.loc	4 749 22 is_stmt 1              @ ../Library/STM32F4xx_HAL_Driver/Src/stm32f4xx_hal_flash.c:749:22
	movw	r1, :lower16:pFlash
	movt	r1, :upper16:pFlash
	ldr	r0, [r1, #28]
	orr	r0, r0, #1
	str	r0, [r1, #28]
	movw	r1, #15372
	movt	r1, #16386
	mov.w	r0, #256
	.loc	4 752 5                         @ ../Library/STM32F4xx_HAL_Driver/Src/stm32f4xx_hal_flash.c:752:5
	str	r0, [r1]
	.loc	4 753 3                         @ ../Library/STM32F4xx_HAL_Driver/Src/stm32f4xx_hal_flash.c:753:3
	b	.LBB8_10
.Ltmp124:
.LBB8_10:
	.loc	4 0 3 is_stmt 0                 @ ../Library/STM32F4xx_HAL_Driver/Src/stm32f4xx_hal_flash.c:0:3
	movw	r0, #15372
	movt	r0, #16386
.Ltmp125:
	.loc	4 755 6 is_stmt 1               @ ../Library/STM32F4xx_HAL_Driver/Src/stm32f4xx_hal_flash.c:755:6
	ldr	r0, [r0]
.Ltmp126:
	.loc	4 755 6 is_stmt 0               @ ../Library/STM32F4xx_HAL_Driver/Src/stm32f4xx_hal_flash.c:755:6
	lsls	r0, r0, #30
	cmp	r0, #0
	bpl	.LBB8_12
	b	.LBB8_11
.LBB8_11:
.Ltmp127:
	.loc	4 757 22 is_stmt 1              @ ../Library/STM32F4xx_HAL_Driver/Src/stm32f4xx_hal_flash.c:757:22
	movw	r1, :lower16:pFlash
	movt	r1, :upper16:pFlash
	ldr	r0, [r1, #28]
	orr	r0, r0, #32
	str	r0, [r1, #28]
	movw	r1, #15372
	movt	r1, #16386
	movs	r0, #2
	.loc	4 760 5                         @ ../Library/STM32F4xx_HAL_Driver/Src/stm32f4xx_hal_flash.c:760:5
	str	r0, [r1]
	.loc	4 761 3                         @ ../Library/STM32F4xx_HAL_Driver/Src/stm32f4xx_hal_flash.c:761:3
	b	.LBB8_12
.Ltmp128:
.LBB8_12:
	.loc	4 762 1                         @ ../Library/STM32F4xx_HAL_Driver/Src/stm32f4xx_hal_flash.c:762:1
	bx	lr
.Ltmp129:
.Lfunc_end8:
	.size	FLASH_SetErrorCode, .Lfunc_end8-FLASH_SetErrorCode
	.cfi_endproc
	.cantunwind
	.fnend
                                        @ -- End function
	.section	.text.HAL_FLASH_OperationErrorCallback,"ax",%progbits
	.hidden	HAL_FLASH_OperationErrorCallback @ -- Begin function HAL_FLASH_OperationErrorCallback
	.weak	HAL_FLASH_OperationErrorCallback
	.p2align	2
	.type	HAL_FLASH_OperationErrorCallback,%function
	.code	16                              @ @HAL_FLASH_OperationErrorCallback
	.thumb_func
HAL_FLASH_OperationErrorCallback:
.Lfunc_begin9:
	.loc	4 402 0                         @ ../Library/STM32F4xx_HAL_Driver/Src/stm32f4xx_hal_flash.c:402:0
	.fnstart
	.cfi_startproc
@ %bb.0:
	.pad	#4
	sub	sp, #4
	.cfi_def_cfa_offset 4
	str	r0, [sp]
.Ltmp130:
	.loc	4 408 1 prologue_end            @ ../Library/STM32F4xx_HAL_Driver/Src/stm32f4xx_hal_flash.c:408:1
	add	sp, #4
	bx	lr
.Ltmp131:
.Lfunc_end9:
	.size	HAL_FLASH_OperationErrorCallback, .Lfunc_end9-HAL_FLASH_OperationErrorCallback
	.cfi_endproc
	.cantunwind
	.fnend
                                        @ -- End function
	.section	.text.HAL_FLASH_EndOfOperationCallback,"ax",%progbits
	.hidden	HAL_FLASH_EndOfOperationCallback @ -- Begin function HAL_FLASH_EndOfOperationCallback
	.weak	HAL_FLASH_EndOfOperationCallback
	.p2align	2
	.type	HAL_FLASH_EndOfOperationCallback,%function
	.code	16                              @ @HAL_FLASH_EndOfOperationCallback
	.thumb_func
HAL_FLASH_EndOfOperationCallback:
.Lfunc_begin10:
	.loc	4 385 0                         @ ../Library/STM32F4xx_HAL_Driver/Src/stm32f4xx_hal_flash.c:385:0
	.fnstart
	.cfi_startproc
@ %bb.0:
	.pad	#4
	sub	sp, #4
	.cfi_def_cfa_offset 4
	str	r0, [sp]
.Ltmp132:
	.loc	4 391 1 prologue_end            @ ../Library/STM32F4xx_HAL_Driver/Src/stm32f4xx_hal_flash.c:391:1
	add	sp, #4
	bx	lr
.Ltmp133:
.Lfunc_end10:
	.size	HAL_FLASH_EndOfOperationCallback, .Lfunc_end10-HAL_FLASH_EndOfOperationCallback
	.cfi_endproc
	.cantunwind
	.fnend
                                        @ -- End function
	.section	.text.HAL_FLASH_Unlock,"ax",%progbits
	.hidden	HAL_FLASH_Unlock                @ -- Begin function HAL_FLASH_Unlock
	.globl	HAL_FLASH_Unlock
	.p2align	2
	.type	HAL_FLASH_Unlock,%function
	.code	16                              @ @HAL_FLASH_Unlock
	.thumb_func
HAL_FLASH_Unlock:
.Lfunc_begin11:
	.loc	4 434 0                         @ ../Library/STM32F4xx_HAL_Driver/Src/stm32f4xx_hal_flash.c:434:0
	.fnstart
	.cfi_startproc
@ %bb.0:
	.pad	#4
	sub	sp, #4
	.cfi_def_cfa_offset 4
	movs	r0, #0
.Ltmp134:
	.loc	4 435 21 prologue_end           @ ../Library/STM32F4xx_HAL_Driver/Src/stm32f4xx_hal_flash.c:435:21
	strb.w	r0, [sp, #3]
	movw	r0, #15376
	movt	r0, #16386
.Ltmp135:
	.loc	4 437 6                         @ ../Library/STM32F4xx_HAL_Driver/Src/stm32f4xx_hal_flash.c:437:6
	ldr	r0, [r0]
.Ltmp136:
	.loc	4 437 6 is_stmt 0               @ ../Library/STM32F4xx_HAL_Driver/Src/stm32f4xx_hal_flash.c:437:6
	lsrs	r0, r0, #31
	cbz	r0, .LBB11_4
	b	.LBB11_1
.LBB11_1:
	.loc	4 0 6                           @ ../Library/STM32F4xx_HAL_Driver/Src/stm32f4xx_hal_flash.c:0:6
	movw	r1, #15364
	movt	r1, #16386
	movw	r0, #291
	movt	r0, #17767
.Ltmp137:
	.loc	4 440 5 is_stmt 1               @ ../Library/STM32F4xx_HAL_Driver/Src/stm32f4xx_hal_flash.c:440:5
	str	r0, [r1]
	movw	r0, #35243
	movt	r0, #52719
	.loc	4 441 5                         @ ../Library/STM32F4xx_HAL_Driver/Src/stm32f4xx_hal_flash.c:441:5
	str	r0, [r1]
	movw	r0, #15376
	movt	r0, #16386
.Ltmp138:
	.loc	4 444 8                         @ ../Library/STM32F4xx_HAL_Driver/Src/stm32f4xx_hal_flash.c:444:8
	ldr	r0, [r0]
.Ltmp139:
	.loc	4 444 8 is_stmt 0               @ ../Library/STM32F4xx_HAL_Driver/Src/stm32f4xx_hal_flash.c:444:8
	lsrs	r0, r0, #31
	cbz	r0, .LBB11_3
	b	.LBB11_2
.LBB11_2:
	.loc	4 0 8                           @ ../Library/STM32F4xx_HAL_Driver/Src/stm32f4xx_hal_flash.c:0:8
	movs	r0, #1
.Ltmp140:
	.loc	4 446 14 is_stmt 1              @ ../Library/STM32F4xx_HAL_Driver/Src/stm32f4xx_hal_flash.c:446:14
	strb.w	r0, [sp, #3]
	.loc	4 447 5                         @ ../Library/STM32F4xx_HAL_Driver/Src/stm32f4xx_hal_flash.c:447:5
	b	.LBB11_3
.Ltmp141:
.LBB11_3:
	.loc	4 448 3                         @ ../Library/STM32F4xx_HAL_Driver/Src/stm32f4xx_hal_flash.c:448:3
	b	.LBB11_4
.Ltmp142:
.LBB11_4:
	.loc	4 450 10                        @ ../Library/STM32F4xx_HAL_Driver/Src/stm32f4xx_hal_flash.c:450:10
	ldrb.w	r0, [sp, #3]
	.loc	4 450 3 is_stmt 0               @ ../Library/STM32F4xx_HAL_Driver/Src/stm32f4xx_hal_flash.c:450:3
	add	sp, #4
	bx	lr
.Ltmp143:
.Lfunc_end11:
	.size	HAL_FLASH_Unlock, .Lfunc_end11-HAL_FLASH_Unlock
	.cfi_endproc
	.cantunwind
	.fnend
                                        @ -- End function
	.section	.text.HAL_FLASH_Lock,"ax",%progbits
	.hidden	HAL_FLASH_Lock                  @ -- Begin function HAL_FLASH_Lock
	.globl	HAL_FLASH_Lock
	.p2align	2
	.type	HAL_FLASH_Lock,%function
	.code	16                              @ @HAL_FLASH_Lock
	.thumb_func
HAL_FLASH_Lock:
.Lfunc_begin12:
	.loc	4 458 0 is_stmt 1               @ ../Library/STM32F4xx_HAL_Driver/Src/stm32f4xx_hal_flash.c:458:0
	.fnstart
	.cfi_startproc
@ %bb.0:
	movw	r1, #15376
	movt	r1, #16386
.Ltmp144:
	.loc	4 460 13 prologue_end           @ ../Library/STM32F4xx_HAL_Driver/Src/stm32f4xx_hal_flash.c:460:13
	ldr	r0, [r1]
	orr	r0, r0, #-2147483648
	str	r0, [r1]
	movs	r0, #0
	.loc	4 462 3                         @ ../Library/STM32F4xx_HAL_Driver/Src/stm32f4xx_hal_flash.c:462:3
	bx	lr
.Ltmp145:
.Lfunc_end12:
	.size	HAL_FLASH_Lock, .Lfunc_end12-HAL_FLASH_Lock
	.cfi_endproc
	.cantunwind
	.fnend
                                        @ -- End function
	.section	.text.HAL_FLASH_OB_Unlock,"ax",%progbits
	.hidden	HAL_FLASH_OB_Unlock             @ -- Begin function HAL_FLASH_OB_Unlock
	.globl	HAL_FLASH_OB_Unlock
	.p2align	2
	.type	HAL_FLASH_OB_Unlock,%function
	.code	16                              @ @HAL_FLASH_OB_Unlock
	.thumb_func
HAL_FLASH_OB_Unlock:
.Lfunc_begin13:
	.loc	4 470 0                         @ ../Library/STM32F4xx_HAL_Driver/Src/stm32f4xx_hal_flash.c:470:0
	.fnstart
	.cfi_startproc
@ %bb.0:
	.pad	#4
	sub	sp, #4
	.cfi_def_cfa_offset 4
	movw	r0, #15380
	movt	r0, #16386
.Ltmp146:
	.loc	4 471 14 prologue_end           @ ../Library/STM32F4xx_HAL_Driver/Src/stm32f4xx_hal_flash.c:471:14
	ldr	r0, [r0]
.Ltmp147:
	.loc	4 471 6 is_stmt 0               @ ../Library/STM32F4xx_HAL_Driver/Src/stm32f4xx_hal_flash.c:471:6
	lsls	r0, r0, #31
	cbz	r0, .LBB13_2
	b	.LBB13_1
.LBB13_1:
	.loc	4 0 6                           @ ../Library/STM32F4xx_HAL_Driver/Src/stm32f4xx_hal_flash.c:0:6
	movw	r1, #15368
	movt	r1, #16386
	movw	r0, #10811
	movt	r0, #2073
.Ltmp148:
	.loc	4 474 20 is_stmt 1              @ ../Library/STM32F4xx_HAL_Driver/Src/stm32f4xx_hal_flash.c:474:20
	str	r0, [r1]
	movw	r0, #28287
	movt	r0, #19549
	.loc	4 475 20                        @ ../Library/STM32F4xx_HAL_Driver/Src/stm32f4xx_hal_flash.c:475:20
	str	r0, [r1]
	.loc	4 476 3                         @ ../Library/STM32F4xx_HAL_Driver/Src/stm32f4xx_hal_flash.c:476:3
	b	.LBB13_3
.Ltmp149:
.LBB13_2:
	.loc	4 0 3 is_stmt 0                 @ ../Library/STM32F4xx_HAL_Driver/Src/stm32f4xx_hal_flash.c:0:3
	movs	r0, #1
.Ltmp150:
	.loc	4 479 5 is_stmt 1               @ ../Library/STM32F4xx_HAL_Driver/Src/stm32f4xx_hal_flash.c:479:5
	strb.w	r0, [sp, #3]
	b	.LBB13_4
.Ltmp151:
.LBB13_3:
	.loc	4 0 5 is_stmt 0                 @ ../Library/STM32F4xx_HAL_Driver/Src/stm32f4xx_hal_flash.c:0:5
	movs	r0, #0
	.loc	4 482 3 is_stmt 1               @ ../Library/STM32F4xx_HAL_Driver/Src/stm32f4xx_hal_flash.c:482:3
	strb.w	r0, [sp, #3]
	b	.LBB13_4
.LBB13_4:
	.loc	4 483 1                         @ ../Library/STM32F4xx_HAL_Driver/Src/stm32f4xx_hal_flash.c:483:1
	ldrb.w	r0, [sp, #3]
	add	sp, #4
	bx	lr
.Ltmp152:
.Lfunc_end13:
	.size	HAL_FLASH_OB_Unlock, .Lfunc_end13-HAL_FLASH_OB_Unlock
	.cfi_endproc
	.cantunwind
	.fnend
                                        @ -- End function
	.section	.text.HAL_FLASH_OB_Lock,"ax",%progbits
	.hidden	HAL_FLASH_OB_Lock               @ -- Begin function HAL_FLASH_OB_Lock
	.globl	HAL_FLASH_OB_Lock
	.p2align	2
	.type	HAL_FLASH_OB_Lock,%function
	.code	16                              @ @HAL_FLASH_OB_Lock
	.thumb_func
HAL_FLASH_OB_Lock:
.Lfunc_begin14:
	.loc	4 490 0                         @ ../Library/STM32F4xx_HAL_Driver/Src/stm32f4xx_hal_flash.c:490:0
	.fnstart
	.cfi_startproc
@ %bb.0:
	movw	r1, #15380
	movt	r1, #16386
.Ltmp153:
	.loc	4 492 16 prologue_end           @ ../Library/STM32F4xx_HAL_Driver/Src/stm32f4xx_hal_flash.c:492:16
	ldr	r0, [r1]
	orr	r0, r0, #1
	str	r0, [r1]
	movs	r0, #0
	.loc	4 494 3                         @ ../Library/STM32F4xx_HAL_Driver/Src/stm32f4xx_hal_flash.c:494:3
	bx	lr
.Ltmp154:
.Lfunc_end14:
	.size	HAL_FLASH_OB_Lock, .Lfunc_end14-HAL_FLASH_OB_Lock
	.cfi_endproc
	.cantunwind
	.fnend
                                        @ -- End function
	.section	.text.HAL_FLASH_OB_Launch,"ax",%progbits
	.hidden	HAL_FLASH_OB_Launch             @ -- Begin function HAL_FLASH_OB_Launch
	.globl	HAL_FLASH_OB_Launch
	.p2align	2
	.type	HAL_FLASH_OB_Launch,%function
	.code	16                              @ @HAL_FLASH_OB_Launch
	.thumb_func
HAL_FLASH_OB_Launch:
.Lfunc_begin15:
	.loc	4 502 0                         @ ../Library/STM32F4xx_HAL_Driver/Src/stm32f4xx_hal_flash.c:502:0
	.fnstart
	.cfi_startproc
@ %bb.0:
	.save	{r7, lr}
	push	{r7, lr}
	.cfi_def_cfa_offset 8
	.cfi_offset lr, -4
	.cfi_offset r7, -8
	movw	r1, #15380
	movt	r1, #16386
.Ltmp155:
	.loc	4 504 40 prologue_end           @ ../Library/STM32F4xx_HAL_Driver/Src/stm32f4xx_hal_flash.c:504:40
	ldrb	r0, [r1]
	orr	r0, r0, #2
	strb	r0, [r1]
	movw	r0, #50000
	.loc	4 507 10                        @ ../Library/STM32F4xx_HAL_Driver/Src/stm32f4xx_hal_flash.c:507:10
	bl	FLASH_WaitForLastOperation
	.loc	4 507 3 is_stmt 0               @ ../Library/STM32F4xx_HAL_Driver/Src/stm32f4xx_hal_flash.c:507:3
	pop	{r7, pc}
.Ltmp156:
.Lfunc_end15:
	.size	HAL_FLASH_OB_Launch, .Lfunc_end15-HAL_FLASH_OB_Launch
	.cfi_endproc
	.cantunwind
	.fnend
                                        @ -- End function
	.section	.text.HAL_FLASH_GetError,"ax",%progbits
	.hidden	HAL_FLASH_GetError              @ -- Begin function HAL_FLASH_GetError
	.globl	HAL_FLASH_GetError
	.p2align	2
	.type	HAL_FLASH_GetError,%function
	.code	16                              @ @HAL_FLASH_GetError
	.thumb_func
HAL_FLASH_GetError:
.Lfunc_begin16:
	.loc	4 539 0 is_stmt 1               @ ../Library/STM32F4xx_HAL_Driver/Src/stm32f4xx_hal_flash.c:539:0
	.fnstart
	.cfi_startproc
@ %bb.0:
	.loc	4 540 18 prologue_end           @ ../Library/STM32F4xx_HAL_Driver/Src/stm32f4xx_hal_flash.c:540:18
	movw	r0, :lower16:pFlash
	movt	r0, :upper16:pFlash
	ldr	r0, [r0, #28]
	.loc	4 540 4 is_stmt 0               @ ../Library/STM32F4xx_HAL_Driver/Src/stm32f4xx_hal_flash.c:540:4
	bx	lr
.Ltmp157:
.Lfunc_end16:
	.size	HAL_FLASH_GetError, .Lfunc_end16-HAL_FLASH_GetError
	.cfi_endproc
	.cantunwind
	.fnend
                                        @ -- End function
	.hidden	pFlash                          @ @pFlash
	.type	pFlash,%object
	.section	.bss.pFlash,"aw",%nobits
	.globl	pFlash
	.p2align	2
pFlash:
	.zero	32
	.size	pFlash, 32

	.section	".note.GNU-stack","",%progbits
	.eabi_attribute	30, 6	@ Tag_ABI_optimization_goals
	.ARM_attribute	16, 1	@ Tag_AV_eba