	.text
	.syntax unified
	.eabi_attribute	67, "2.09"	@ Tag_conformance
	.cpu	cortex-m4
	.eabi_attribute	6, 13	@ Tag_CPU_arch
	.eabi_attribute	7, 77	@ Tag_CPU_arch_profile
	.eabi_attribute	8, 0	@ Tag_ARM_ISA_use
	.eabi_attribute	9, 2	@ Tag_THUMB_ISA_use
	.fpu	fpv4-sp-d16
	.eabi_attribute	27, 1	@ Tag_ABI_HardFP_use
	.eabi_attribute	36, 1	@ Tag_FP_HP_extension
	.eabi_attribute	34, 1	@ Tag_CPU_unaligned_access
	.eabi_attribute	17, 1	@ Tag_ABI_PCS_GOT_use
	.eabi_attribute	20, 2	@ Tag_ABI_FP_denormal
	.eabi_attribute	21, 0	@ Tag_ABI_FP_exceptions
	.eabi_attribute	23, 1	@ Tag_ABI_FP_number_model
	.eabi_attribute	24, 1	@ Tag_ABI_align_needed
	.eabi_attribute	25, 1	@ Tag_ABI_align_preserved
	.eabi_attribute	28, 1	@ Tag_ABI_VFP_args
	.eabi_attribute	38, 1	@ Tag_ABI_FP_16bit_format
	.eabi_attribute	18, 2	@ Tag_ABI_PCS_wchar_t
	.eabi_attribute	26, 1	@ Tag_ABI_enum_size
	.eabi_attribute	14, 0	@ Tag_ABI_PCS_R9_use
	.file	"stm32f4xx_hal_i2c.c"
	.file	1 "C:\\Users\\Hyacincher\\Desktop\\HyTelectrl\\Code\\Project" "../Library/STM32F4xx_HAL_Driver/Inc/stm32f4xx_hal_def.h"
	.file	2 "C:\\Users\\Hyacincher\\Desktop\\HyTelectrl\\Code\\Project" "../Library/STM32F4xx_HAL_Driver/Inc\\stm32f4xx_hal_dma.h"
	.file	3 "C:\\Users\\Hyacincher\\Desktop\\HyTelectrl\\Code\\Project" "../Library/STM32F4xx_HAL_Driver/Inc\\stm32f4xx_hal_i2c.h"
	.file	4 "C:\\Users\\Hyacincher\\Desktop\\HyTelectrl\\Code\\Project" "../Library/CMSIS\\stm32f4xx.h"
	.file	5 "D:\\Keil MDK\\ARM\\ARMCLANG\\Bin\\..\\include" "stdint.h"
	.file	6 "C:\\Users\\Hyacincher\\Desktop\\HyTelectrl\\Code\\Project" "../Library/CMSIS/stm32f429xx.h"
	.section	.text.HAL_I2C_Init,"ax",%progbits
	.hidden	HAL_I2C_Init                    @ -- Begin function HAL_I2C_Init
	.globl	HAL_I2C_Init
	.p2align	2
	.type	HAL_I2C_Init,%function
	.code	16                              @ @HAL_I2C_Init
	.thumb_func
HAL_I2C_Init:
.Lfunc_begin0:
	.file	7 "C:\\Users\\Hyacincher\\Desktop\\HyTelectrl\\Code\\Project" "../Library/STM32F4xx_HAL_Driver/Src/stm32f4xx_hal_i2c.c"
	.loc	7 436 0                         @ ../Library/STM32F4xx_HAL_Driver/Src/stm32f4xx_hal_i2c.c:436:0
	.fnstart
	.cfi_sections .debug_frame
	.cfi_startproc
@ %bb.0:
	.save	{r7, lr}
	push	{r7, lr}
	.cfi_def_cfa_offset 8
	.cfi_offset lr, -4
	.cfi_offset r7, -8
	.pad	#56
	sub	sp, #56
	.cfi_def_cfa_offset 64
	str	r0, [sp, #48]
.Ltmp0:
	.loc	7 441 7 prologue_end            @ ../Library/STM32F4xx_HAL_Driver/Src/stm32f4xx_hal_i2c.c:441:7
	ldr	r0, [sp, #48]
.Ltmp1:
	.loc	7 441 7 is_stmt 0               @ ../Library/STM32F4xx_HAL_Driver/Src/stm32f4xx_hal_i2c.c:441:7
	cbnz	r0, .LBB0_2
	b	.LBB0_1
.LBB0_1:
	.loc	7 0 7                           @ ../Library/STM32F4xx_HAL_Driver/Src/stm32f4xx_hal_i2c.c:0:7
	movs	r0, #1
.Ltmp2:
	.loc	7 443 5 is_stmt 1               @ ../Library/STM32F4xx_HAL_Driver/Src/stm32f4xx_hal_i2c.c:443:5
	strb.w	r0, [sp, #55]
	b	.LBB0_28
.Ltmp3:
.LBB0_2:
	.loc	7 457 7                         @ ../Library/STM32F4xx_HAL_Driver/Src/stm32f4xx_hal_i2c.c:457:7
	ldr	r0, [sp, #48]
	.loc	7 457 13 is_stmt 0              @ ../Library/STM32F4xx_HAL_Driver/Src/stm32f4xx_hal_i2c.c:457:13
	ldrb.w	r0, [r0, #61]
.Ltmp4:
	.loc	7 457 7                         @ ../Library/STM32F4xx_HAL_Driver/Src/stm32f4xx_hal_i2c.c:457:7
	cbnz	r0, .LBB0_4
	b	.LBB0_3
.LBB0_3:
.Ltmp5:
	.loc	7 460 5 is_stmt 1               @ ../Library/STM32F4xx_HAL_Driver/Src/stm32f4xx_hal_i2c.c:460:5
	ldr	r1, [sp, #48]
	movs	r0, #0
	.loc	7 460 16 is_stmt 0              @ ../Library/STM32F4xx_HAL_Driver/Src/stm32f4xx_hal_i2c.c:460:16
	strb.w	r0, [r1, #60]
	.loc	7 484 21 is_stmt 1              @ ../Library/STM32F4xx_HAL_Driver/Src/stm32f4xx_hal_i2c.c:484:21
	ldr	r0, [sp, #48]
	.loc	7 484 5 is_stmt 0               @ ../Library/STM32F4xx_HAL_Driver/Src/stm32f4xx_hal_i2c.c:484:5
	bl	HAL_I2C_MspInit
	.loc	7 486 3 is_stmt 1               @ ../Library/STM32F4xx_HAL_Driver/Src/stm32f4xx_hal_i2c.c:486:3
	b	.LBB0_4
.Ltmp6:
.LBB0_4:
	.loc	7 488 3                         @ ../Library/STM32F4xx_HAL_Driver/Src/stm32f4xx_hal_i2c.c:488:3
	ldr	r1, [sp, #48]
	movs	r0, #36
	.loc	7 488 15 is_stmt 0              @ ../Library/STM32F4xx_HAL_Driver/Src/stm32f4xx_hal_i2c.c:488:15
	strb.w	r0, [r1, #61]
	.loc	7 491 3 is_stmt 1               @ ../Library/STM32F4xx_HAL_Driver/Src/stm32f4xx_hal_i2c.c:491:3
	ldr	r0, [sp, #48]
	ldr	r1, [r0]
	ldr	r0, [r1]
	bic	r0, r0, #1
	str	r0, [r1]
	.loc	7 494 3                         @ ../Library/STM32F4xx_HAL_Driver/Src/stm32f4xx_hal_i2c.c:494:3
	ldr	r0, [sp, #48]
	.loc	7 494 9 is_stmt 0               @ ../Library/STM32F4xx_HAL_Driver/Src/stm32f4xx_hal_i2c.c:494:9
	ldr	r1, [r0]
	.loc	7 494 23                        @ ../Library/STM32F4xx_HAL_Driver/Src/stm32f4xx_hal_i2c.c:494:23
	ldr	r0, [r1]
	orr	r0, r0, #32768
	str	r0, [r1]
	.loc	7 495 3 is_stmt 1               @ ../Library/STM32F4xx_HAL_Driver/Src/stm32f4xx_hal_i2c.c:495:3
	ldr	r0, [sp, #48]
	.loc	7 495 9 is_stmt 0               @ ../Library/STM32F4xx_HAL_Driver/Src/stm32f4xx_hal_i2c.c:495:9
	ldr	r1, [r0]
	.loc	7 495 23                        @ ../Library/STM32F4xx_HAL_Driver/Src/stm32f4xx_hal_i2c.c:495:23
	ldr	r0, [r1]
	bic	r0, r0, #32768
	str	r0, [r1]
	.loc	7 498 11 is_stmt 1              @ ../Library/STM32F4xx_HAL_Driver/Src/stm32f4xx_hal_i2c.c:498:11
	bl	HAL_RCC_GetPCLK1Freq
	.loc	7 498 9 is_stmt 0               @ ../Library/STM32F4xx_HAL_Driver/Src/stm32f4xx_hal_i2c.c:498:9
	str	r0, [sp, #40]
.Ltmp7:
	.loc	7 501 7 is_stmt 1               @ ../Library/STM32F4xx_HAL_Driver/Src/stm32f4xx_hal_i2c.c:501:7
	ldr	r0, [sp, #48]
	ldr	r0, [r0, #4]
	movw	r1, #34464
	movt	r1, #1
	cmp	r0, r1
	bhi	.LBB0_6
	b	.LBB0_5
.LBB0_5:
	ldr	r1, [sp, #40]
	movw	r2, #33920
	movt	r2, #30
	movs	r0, #0
	cmp	r1, r2
	it	lo
	movlo	r0, #1
	str	r0, [sp, #36]                   @ 4-byte Spill
	b	.LBB0_7
.LBB0_6:
	ldr	r1, [sp, #40]
	movw	r2, #2304
	movt	r2, #61
	movs	r0, #0
	cmp	r1, r2
	it	lo
	movlo	r0, #1
	str	r0, [sp, #36]                   @ 4-byte Spill
	b	.LBB0_7
.LBB0_7:
	ldr	r0, [sp, #36]                   @ 4-byte Reload
.Ltmp8:
	.loc	7 501 7 is_stmt 0               @ ../Library/STM32F4xx_HAL_Driver/Src/stm32f4xx_hal_i2c.c:501:7
	cmp	r0, #1
	bne	.LBB0_9
	b	.LBB0_8
.LBB0_8:
	.loc	7 0 7                           @ ../Library/STM32F4xx_HAL_Driver/Src/stm32f4xx_hal_i2c.c:0:7
	movs	r0, #1
.Ltmp9:
	.loc	7 503 5 is_stmt 1               @ ../Library/STM32F4xx_HAL_Driver/Src/stm32f4xx_hal_i2c.c:503:5
	strb.w	r0, [sp, #55]
	b	.LBB0_28
.Ltmp10:
.LBB0_9:
	.loc	7 507 15                        @ ../Library/STM32F4xx_HAL_Driver/Src/stm32f4xx_hal_i2c.c:507:15
	ldr	r0, [sp, #40]
	movw	r1, #56963
	movt	r1, #17179
	umull	r1, r0, r0, r1
	lsrs	r0, r0, #18
	.loc	7 507 13 is_stmt 0              @ ../Library/STM32F4xx_HAL_Driver/Src/stm32f4xx_hal_i2c.c:507:13
	str	r0, [sp, #44]
	.loc	7 511 3 is_stmt 1               @ ../Library/STM32F4xx_HAL_Driver/Src/stm32f4xx_hal_i2c.c:511:3
	ldr	r0, [sp, #48]
	ldr	r0, [r0]
	ldr	r0, [r0, #4]
	bic	r0, r0, #63
	ldr	r1, [sp, #44]
	orrs	r0, r1
	ldr	r1, [sp, #48]
	ldr	r1, [r1]
	str	r0, [r1, #4]
	.loc	7 515 3                         @ ../Library/STM32F4xx_HAL_Driver/Src/stm32f4xx_hal_i2c.c:515:3
	ldr	r0, [sp, #48]
	ldr	r0, [r0]
	ldr	r0, [r0, #32]
	bic	r0, r0, #63
	str	r0, [sp, #32]                   @ 4-byte Spill
	ldr	r0, [sp, #48]
	ldr	r0, [r0, #4]
	movw	r1, #34464
	movt	r1, #1
	cmp	r0, r1
	bhi	.LBB0_11
	b	.LBB0_10
.LBB0_10:
	ldr	r0, [sp, #44]
	adds	r0, #1
	str	r0, [sp, #28]                   @ 4-byte Spill
	b	.LBB0_12
.LBB0_11:
	ldr	r0, [sp, #44]
	mov.w	r1, #300
	muls	r0, r1, r0
	movw	r1, #19923
	movt	r1, #4194
	umull	r0, r1, r0, r1
	movs	r0, #1
	add.w	r0, r0, r1, lsr #6
	str	r0, [sp, #28]                   @ 4-byte Spill
	b	.LBB0_12
.LBB0_12:
	ldr	r0, [sp, #32]                   @ 4-byte Reload
	ldr	r1, [sp, #28]                   @ 4-byte Reload
	orrs	r0, r1
	ldr	r1, [sp, #48]
	ldr	r1, [r1]
	str	r0, [r1, #32]
	.loc	7 519 3                         @ ../Library/STM32F4xx_HAL_Driver/Src/stm32f4xx_hal_i2c.c:519:3
	ldr	r0, [sp, #48]
	ldr	r0, [r0]
	ldr	r0, [r0, #28]
	movw	r1, #53247
	bics	r0, r1
	str	r0, [sp, #24]                   @ 4-byte Spill
	ldr	r0, [sp, #48]
	ldr	r0, [r0, #4]
	movw	r1, #34464
	movt	r1, #1
	cmp	r0, r1
	bhi	.LBB0_17
	b	.LBB0_13
.LBB0_13:
	ldr	r0, [sp, #40]
	subs	r0, #1
	ldr	r1, [sp, #48]
	ldr	r1, [r1, #4]
	lsls	r1, r1, #1
	udiv	r0, r0, r1
	adds	r0, #1
	bfc	r0, #12, #20
	cmp	r0, #3
	bhi	.LBB0_15
	b	.LBB0_14
.LBB0_14:
	.loc	7 0 3 is_stmt 0                 @ ../Library/STM32F4xx_HAL_Driver/Src/stm32f4xx_hal_i2c.c:0:3
	movs	r0, #4
	.loc	7 519 3                         @ ../Library/STM32F4xx_HAL_Driver/Src/stm32f4xx_hal_i2c.c:519:3
	str	r0, [sp, #20]                   @ 4-byte Spill
	b	.LBB0_16
.LBB0_15:
	ldr	r0, [sp, #40]
	subs	r0, #1
	ldr	r1, [sp, #48]
	ldr	r1, [r1, #4]
	lsls	r1, r1, #1
	udiv	r0, r0, r1
	adds	r0, #1
	bfc	r0, #12, #20
	str	r0, [sp, #20]                   @ 4-byte Spill
	b	.LBB0_16
.LBB0_16:
	ldr	r0, [sp, #20]                   @ 4-byte Reload
	str	r0, [sp, #16]                   @ 4-byte Spill
	b	.LBB0_27
.LBB0_17:
	ldr	r0, [sp, #48]
	ldr	r0, [r0, #8]
	cbnz	r0, .LBB0_19
	b	.LBB0_18
.LBB0_18:
	ldr	r0, [sp, #40]
	subs	r0, #1
	ldr	r1, [sp, #48]
	ldr	r1, [r1, #4]
	add.w	r1, r1, r1, lsl #1
	udiv	r0, r0, r1
	adds	r0, #1
	bfc	r0, #12, #20
	str	r0, [sp, #12]                   @ 4-byte Spill
	b	.LBB0_20
.LBB0_19:
	ldr	r0, [sp, #40]
	subs	r0, #1
	ldr	r1, [sp, #48]
	ldr	r1, [r1, #4]
	movs	r2, #25
	muls	r1, r2, r1
	udiv	r0, r0, r1
	adds	r0, #1
	movs	r1, #4
	bfi	r0, r1, #12, #20
	str	r0, [sp, #12]                   @ 4-byte Spill
	b	.LBB0_20
.LBB0_20:
	ldr	r0, [sp, #12]                   @ 4-byte Reload
	lsls	r0, r0, #20
	cbnz	r0, .LBB0_22
	b	.LBB0_21
.LBB0_21:
	.loc	7 0 3                           @ ../Library/STM32F4xx_HAL_Driver/Src/stm32f4xx_hal_i2c.c:0:3
	movs	r0, #1
	.loc	7 519 3                         @ ../Library/STM32F4xx_HAL_Driver/Src/stm32f4xx_hal_i2c.c:519:3
	str	r0, [sp, #8]                    @ 4-byte Spill
	b	.LBB0_26
.LBB0_22:
	ldr	r0, [sp, #48]
	ldr	r0, [r0, #8]
	cbnz	r0, .LBB0_24
	b	.LBB0_23
.LBB0_23:
	ldr	r0, [sp, #40]
	subs	r0, #1
	ldr	r1, [sp, #48]
	ldr	r1, [r1, #4]
	add.w	r1, r1, r1, lsl #1
	udiv	r0, r0, r1
	adds	r0, #1
	bfc	r0, #12, #20
	str	r0, [sp, #4]                    @ 4-byte Spill
	b	.LBB0_25
.LBB0_24:
	ldr	r0, [sp, #40]
	subs	r0, #1
	ldr	r1, [sp, #48]
	ldr	r1, [r1, #4]
	movs	r2, #25
	muls	r1, r2, r1
	udiv	r0, r0, r1
	adds	r0, #1
	movs	r1, #4
	bfi	r0, r1, #12, #20
	str	r0, [sp, #4]                    @ 4-byte Spill
	b	.LBB0_25
.LBB0_25:
	ldr	r0, [sp, #4]                    @ 4-byte Reload
	orr	r0, r0, #32768
	str	r0, [sp, #8]                    @ 4-byte Spill
	b	.LBB0_26
.LBB0_26:
	ldr	r0, [sp, #8]                    @ 4-byte Reload
	str	r0, [sp, #16]                   @ 4-byte Spill
	b	.LBB0_27
.LBB0_27:
	ldr	r0, [sp, #24]                   @ 4-byte Reload
	ldr	r1, [sp, #16]                   @ 4-byte Reload
	orrs	r0, r1
	ldr	r1, [sp, #48]
	ldr	r1, [r1]
	str	r0, [r1, #28]
	.loc	7 523 3 is_stmt 1               @ ../Library/STM32F4xx_HAL_Driver/Src/stm32f4xx_hal_i2c.c:523:3
	ldr	r0, [sp, #48]
	ldr	r0, [r0]
	ldr	r0, [r0]
	bic	r0, r0, #192
	ldr	r3, [sp, #48]
	ldr	r1, [r3]
	ldr	r2, [r3, #28]
	ldr	r3, [r3, #32]
	orrs	r2, r3
	orrs	r0, r2
	str	r0, [r1]
	.loc	7 527 3                         @ ../Library/STM32F4xx_HAL_Driver/Src/stm32f4xx_hal_i2c.c:527:3
	ldr	r0, [sp, #48]
	ldr	r0, [r0]
	ldr	r0, [r0, #8]
	movw	r1, #33791
	bics	r0, r1
	ldr	r2, [sp, #48]
	ldr	r1, [r2]
	ldr	r3, [r2, #12]
	ldr	r2, [r2, #16]
	orrs	r2, r3
	orrs	r0, r2
	str	r0, [r1, #8]
	.loc	7 531 3                         @ ../Library/STM32F4xx_HAL_Driver/Src/stm32f4xx_hal_i2c.c:531:3
	ldr	r0, [sp, #48]
	ldr	r0, [r0]
	ldr	r0, [r0, #12]
	bic	r0, r0, #255
	ldr	r3, [sp, #48]
	ldr	r1, [r3]
	ldr	r2, [r3, #20]
	ldr	r3, [r3, #24]
	orrs	r2, r3
	orrs	r0, r2
	str	r0, [r1, #12]
	.loc	7 534 3                         @ ../Library/STM32F4xx_HAL_Driver/Src/stm32f4xx_hal_i2c.c:534:3
	ldr	r0, [sp, #48]
	ldr	r1, [r0]
	ldr	r0, [r1]
	orr	r0, r0, #1
	str	r0, [r1]
	.loc	7 536 3                         @ ../Library/STM32F4xx_HAL_Driver/Src/stm32f4xx_hal_i2c.c:536:3
	ldr	r1, [sp, #48]
	movs	r0, #0
	.loc	7 536 19 is_stmt 0              @ ../Library/STM32F4xx_HAL_Driver/Src/stm32f4xx_hal_i2c.c:536:19
	str	r0, [r1, #64]
	.loc	7 537 3 is_stmt 1               @ ../Library/STM32F4xx_HAL_Driver/Src/stm32f4xx_hal_i2c.c:537:3
	ldr	r2, [sp, #48]
	movs	r1, #32
	.loc	7 537 15 is_stmt 0              @ ../Library/STM32F4xx_HAL_Driver/Src/stm32f4xx_hal_i2c.c:537:15
	strb.w	r1, [r2, #61]
	.loc	7 538 3 is_stmt 1               @ ../Library/STM32F4xx_HAL_Driver/Src/stm32f4xx_hal_i2c.c:538:3
	ldr	r1, [sp, #48]
	.loc	7 538 23 is_stmt 0              @ ../Library/STM32F4xx_HAL_Driver/Src/stm32f4xx_hal_i2c.c:538:23
	str	r0, [r1, #48]
	.loc	7 539 3 is_stmt 1               @ ../Library/STM32F4xx_HAL_Driver/Src/stm32f4xx_hal_i2c.c:539:3
	ldr	r1, [sp, #48]
	.loc	7 539 14 is_stmt 0              @ ../Library/STM32F4xx_HAL_Driver/Src/stm32f4xx_hal_i2c.c:539:14
	strb.w	r0, [r1, #62]
	.loc	7 541 3 is_stmt 1               @ ../Library/STM32F4xx_HAL_Driver/Src/stm32f4xx_hal_i2c.c:541:3
	strb.w	r0, [sp, #55]
	b	.LBB0_28
.LBB0_28:
	.loc	7 542 1                         @ ../Library/STM32F4xx_HAL_Driver/Src/stm32f4xx_hal_i2c.c:542:1
	ldrb.w	r0, [sp, #55]
	add	sp, #56
	pop	{r7, pc}
.Ltmp11:
.Lfunc_end0:
	.size	HAL_I2C_Init, .Lfunc_end0-HAL_I2C_Init
	.cfi_endproc
	.cantunwind
	.fnend
                                        @ -- End function
	.section	.text.HAL_I2C_MspInit,"ax",%progbits
	.hidden	HAL_I2C_MspInit                 @ -- Begin function HAL_I2C_MspInit
	.weak	HAL_I2C_MspInit
	.p2align	2
	.type	HAL_I2C_MspInit,%function
	.code	16                              @ @HAL_I2C_MspInit
	.thumb_func
HAL_I2C_MspInit:
.Lfunc_begin1:
	.loc	7 597 0                         @ ../Library/STM32F4xx_HAL_Driver/Src/stm32f4xx_hal_i2c.c:597:0
	.fnstart
	.cfi_startproc
@ %bb.0:
	.pad	#4
	sub	sp, #4
	.cfi_def_cfa_offset 4
	str	r0, [sp]
.Ltmp12:
	.loc	7 604 1 prologue_end            @ ../Library/STM32F4xx_HAL_Driver/Src/stm32f4xx_hal_i2c.c:604:1
	add	sp, #4
	bx	lr
.Ltmp13:
.Lfunc_end1:
	.size	HAL_I2C_MspInit, .Lfunc_end1-HAL_I2C_MspInit
	.cfi_endproc
	.cantunwind
	.fnend
                                        @ -- End function
	.section	.text.HAL_I2C_DeInit,"ax",%progbits
	.hidden	HAL_I2C_DeInit                  @ -- Begin function HAL_I2C_DeInit
	.globl	HAL_I2C_DeInit
	.p2align	2
	.type	HAL_I2C_DeInit,%function
	.code	16                              @ @HAL_I2C_DeInit
	.thumb_func
HAL_I2C_DeInit:
.Lfunc_begin2:
	.loc	7 551 0                         @ ../Library/STM32F4xx_HAL_Driver/Src/stm32f4xx_hal_i2c.c:551:0
	.fnstart
	.cfi_startproc
@ %bb.0:
	.save	{r7, lr}
	push	{r7, lr}
	.cfi_def_cfa_offset 8
	.cfi_offset lr, -4
	.cfi_offset r7, -8
	.pad	#8
	sub	sp, #8
	.cfi_def_cfa_offset 16
	str	r0, [sp]
.Ltmp14:
	.loc	7 553 7 prologue_end            @ ../Library/STM32F4xx_HAL_Driver/Src/stm32f4xx_hal_i2c.c:553:7
	ldr	r0, [sp]
.Ltmp15:
	.loc	7 553 7 is_stmt 0               @ ../Library/STM32F4xx_HAL_Driver/Src/stm32f4xx_hal_i2c.c:553:7
	cbnz	r0, .LBB2_2
	b	.LBB2_1
.LBB2_1:
	.loc	7 0 7                           @ ../Library/STM32F4xx_HAL_Driver/Src/stm32f4xx_hal_i2c.c:0:7
	movs	r0, #1
.Ltmp16:
	.loc	7 555 5 is_stmt 1               @ ../Library/STM32F4xx_HAL_Driver/Src/stm32f4xx_hal_i2c.c:555:5
	strb.w	r0, [sp, #7]
	b	.LBB2_5
.Ltmp17:
.LBB2_2:
	.loc	7 561 3                         @ ../Library/STM32F4xx_HAL_Driver/Src/stm32f4xx_hal_i2c.c:561:3
	ldr	r1, [sp]
	movs	r0, #36
	.loc	7 561 15 is_stmt 0              @ ../Library/STM32F4xx_HAL_Driver/Src/stm32f4xx_hal_i2c.c:561:15
	strb.w	r0, [r1, #61]
	.loc	7 564 3 is_stmt 1               @ ../Library/STM32F4xx_HAL_Driver/Src/stm32f4xx_hal_i2c.c:564:3
	ldr	r0, [sp]
	ldr	r1, [r0]
	ldr	r0, [r1]
	bic	r0, r0, #1
	str	r0, [r1]
	.loc	7 576 21                        @ ../Library/STM32F4xx_HAL_Driver/Src/stm32f4xx_hal_i2c.c:576:21
	ldr	r0, [sp]
	.loc	7 576 3 is_stmt 0               @ ../Library/STM32F4xx_HAL_Driver/Src/stm32f4xx_hal_i2c.c:576:3
	bl	HAL_I2C_MspDeInit
	.loc	7 579 3 is_stmt 1               @ ../Library/STM32F4xx_HAL_Driver/Src/stm32f4xx_hal_i2c.c:579:3
	ldr	r1, [sp]
	movs	r0, #0
	.loc	7 579 23 is_stmt 0              @ ../Library/STM32F4xx_HAL_Driver/Src/stm32f4xx_hal_i2c.c:579:23
	str	r0, [r1, #64]
	.loc	7 580 3 is_stmt 1               @ ../Library/STM32F4xx_HAL_Driver/Src/stm32f4xx_hal_i2c.c:580:3
	ldr	r1, [sp]
	.loc	7 580 23 is_stmt 0              @ ../Library/STM32F4xx_HAL_Driver/Src/stm32f4xx_hal_i2c.c:580:23
	strb.w	r0, [r1, #61]
	.loc	7 581 3 is_stmt 1               @ ../Library/STM32F4xx_HAL_Driver/Src/stm32f4xx_hal_i2c.c:581:3
	ldr	r1, [sp]
	.loc	7 581 23 is_stmt 0              @ ../Library/STM32F4xx_HAL_Driver/Src/stm32f4xx_hal_i2c.c:581:23
	str	r0, [r1, #48]
	.loc	7 582 3 is_stmt 1               @ ../Library/STM32F4xx_HAL_Driver/Src/stm32f4xx_hal_i2c.c:582:3
	ldr	r1, [sp]
	.loc	7 582 23 is_stmt 0              @ ../Library/STM32F4xx_HAL_Driver/Src/stm32f4xx_hal_i2c.c:582:23
	strb.w	r0, [r1, #62]
	.loc	7 585 3 is_stmt 1               @ ../Library/STM32F4xx_HAL_Driver/Src/stm32f4xx_hal_i2c.c:585:3
	b	.LBB2_3
.LBB2_3:
.Ltmp18:
	.loc	7 585 3 is_stmt 0               @ ../Library/STM32F4xx_HAL_Driver/Src/stm32f4xx_hal_i2c.c:585:3
	ldr	r1, [sp]
	movs	r0, #0
	strb.w	r0, [r1, #60]
	b	.LBB2_4
.Ltmp19:
.LBB2_4:
	.loc	7 0 3                           @ ../Library/STM32F4xx_HAL_Driver/Src/stm32f4xx_hal_i2c.c:0:3
	movs	r0, #0
	.loc	7 587 3 is_stmt 1               @ ../Library/STM32F4xx_HAL_Driver/Src/stm32f4xx_hal_i2c.c:587:3
	strb.w	r0, [sp, #7]
	b	.LBB2_5
.LBB2_5:
	.loc	7 588 1                         @ ../Library/STM32F4xx_HAL_Driver/Src/stm32f4xx_hal_i2c.c:588:1
	ldrb.w	r0, [sp, #7]
	add	sp, #8
	pop	{r7, pc}
.Ltmp20:
.Lfunc_end2:
	.size	HAL_I2C_DeInit, .Lfunc_end2-HAL_I2C_DeInit
	.cfi_endproc
	.cantunwind
	.fnend
                                        @ -- End function
	.section	.text.HAL_I2C_MspDeInit,"ax",%progbits
	.hidden	HAL_I2C_MspDeInit               @ -- Begin function HAL_I2C_MspDeInit
	.weak	HAL_I2C_MspDeInit
	.p2align	2
	.type	HAL_I2C_MspDeInit,%function
	.code	16                              @ @HAL_I2C_MspDeInit
	.thumb_func
HAL_I2C_MspDeInit:
.Lfunc_begin3:
	.loc	7 613 0                         @ ../Library/STM32F4xx_HAL_Driver/Src/stm32f4xx_hal_i2c.c:613:0
	.fnstart
	.cfi_startproc
@ %bb.0:
	.pad	#4
	sub	sp, #4
	.cfi_def_cfa_offset 4
	str	r0, [sp]
.Ltmp21:
	.loc	7 620 1 prologue_end            @ ../Library/STM32F4xx_HAL_Driver/Src/stm32f4xx_hal_i2c.c:620:1
	add	sp, #4
	bx	lr
.Ltmp22:
.Lfunc_end3:
	.size	HAL_I2C_MspDeInit, .Lfunc_end3-HAL_I2C_MspDeInit
	.cfi_endproc
	.cantunwind
	.fnend
                                        @ -- End function
	.section	.text.HAL_I2C_Master_Transmit,"ax",%progbits
	.hidden	HAL_I2C_Master_Transmit         @ -- Begin function HAL_I2C_Master_Transmit
	.globl	HAL_I2C_Master_Transmit
	.p2align	2
	.type	HAL_I2C_Master_Transmit,%function
	.code	16                              @ @HAL_I2C_Master_Transmit
	.thumb_func
HAL_I2C_Master_Transmit:
.Lfunc_begin4:
	.loc	7 1033 0                        @ ../Library/STM32F4xx_HAL_Driver/Src/stm32f4xx_hal_i2c.c:1033:0
	.fnstart
	.cfi_startproc
@ %bb.0:
	.save	{r7, lr}
	push	{r7, lr}
	.cfi_def_cfa_offset 8
	.cfi_offset lr, -4
	.cfi_offset r7, -8
	.pad	#32
	sub	sp, #32
	.cfi_def_cfa_offset 40
	ldr.w	r12, [sp, #40]
                                        @ kill: def $r12 killed $r3
                                        @ kill: def $r12 killed $r1
	str	r0, [sp, #24]
	strh.w	r1, [sp, #22]
	str	r2, [sp, #16]
	strh.w	r3, [sp, #14]
.Ltmp23:
	.loc	7 1035 24 prologue_end          @ ../Library/STM32F4xx_HAL_Driver/Src/stm32f4xx_hal_i2c.c:1035:24
	bl	HAL_GetTick
	.loc	7 1035 12 is_stmt 0             @ ../Library/STM32F4xx_HAL_Driver/Src/stm32f4xx_hal_i2c.c:1035:12
	str	r0, [sp, #8]
.Ltmp24:
	.loc	7 1037 7 is_stmt 1              @ ../Library/STM32F4xx_HAL_Driver/Src/stm32f4xx_hal_i2c.c:1037:7
	ldr	r0, [sp, #24]
	.loc	7 1037 13 is_stmt 0             @ ../Library/STM32F4xx_HAL_Driver/Src/stm32f4xx_hal_i2c.c:1037:13
	ldrb.w	r0, [r0, #61]
.Ltmp25:
	.loc	7 1037 7                        @ ../Library/STM32F4xx_HAL_Driver/Src/stm32f4xx_hal_i2c.c:1037:7
	cmp	r0, #32
	bne.w	.LBB4_31
	b	.LBB4_1
.LBB4_1:
.Ltmp26:
	.loc	7 1040 36 is_stmt 1             @ ../Library/STM32F4xx_HAL_Driver/Src/stm32f4xx_hal_i2c.c:1040:36
	ldr	r0, [sp, #24]
	.loc	7 1040 85 is_stmt 0             @ ../Library/STM32F4xx_HAL_Driver/Src/stm32f4xx_hal_i2c.c:1040:85
	ldr	r1, [sp, #8]
	.loc	7 1040 9                        @ ../Library/STM32F4xx_HAL_Driver/Src/stm32f4xx_hal_i2c.c:1040:9
	mov	r2, sp
	str	r1, [r2]
	movs	r1, #2
	movt	r1, #16
	movs	r2, #1
	movs	r3, #25
	bl	I2C_WaitOnFlagUntilTimeout
.Ltmp27:
	.loc	7 1040 9                        @ ../Library/STM32F4xx_HAL_Driver/Src/stm32f4xx_hal_i2c.c:1040:9
	cbz	r0, .LBB4_3
	b	.LBB4_2
.LBB4_2:
	.loc	7 0 9                           @ ../Library/STM32F4xx_HAL_Driver/Src/stm32f4xx_hal_i2c.c:0:9
	movs	r0, #2
.Ltmp28:
	.loc	7 1042 7 is_stmt 1              @ ../Library/STM32F4xx_HAL_Driver/Src/stm32f4xx_hal_i2c.c:1042:7
	strb.w	r0, [sp, #31]
	b	.LBB4_32
.Ltmp29:
.LBB4_3:
	.loc	7 1046 5                        @ ../Library/STM32F4xx_HAL_Driver/Src/stm32f4xx_hal_i2c.c:1046:5
	b	.LBB4_4
.LBB4_4:
.Ltmp30:
	.loc	7 1046 5 is_stmt 0              @ ../Library/STM32F4xx_HAL_Driver/Src/stm32f4xx_hal_i2c.c:1046:5
	ldr	r0, [sp, #24]
	ldrb.w	r0, [r0, #60]
.Ltmp31:
	.loc	7 1046 5                        @ ../Library/STM32F4xx_HAL_Driver/Src/stm32f4xx_hal_i2c.c:1046:5
	cmp	r0, #1
	bne	.LBB4_6
	b	.LBB4_5
.LBB4_5:
	.loc	7 0 5                           @ ../Library/STM32F4xx_HAL_Driver/Src/stm32f4xx_hal_i2c.c:0:5
	movs	r0, #2
.Ltmp32:
	.loc	7 1046 5                        @ ../Library/STM32F4xx_HAL_Driver/Src/stm32f4xx_hal_i2c.c:1046:5
	strb.w	r0, [sp, #31]
	b	.LBB4_32
.Ltmp33:
.LBB4_6:
	.loc	7 1046 5                        @ ../Library/STM32F4xx_HAL_Driver/Src/stm32f4xx_hal_i2c.c:1046:5
	ldr	r1, [sp, #24]
	movs	r0, #1
	strb.w	r0, [r1, #60]
	b	.LBB4_7
.Ltmp34:
.LBB4_7:
	.loc	7 1046 5                        @ ../Library/STM32F4xx_HAL_Driver/Src/stm32f4xx_hal_i2c.c:1046:5
	b	.LBB4_8
.Ltmp35:
.LBB4_8:
	.loc	7 1049 10 is_stmt 1             @ ../Library/STM32F4xx_HAL_Driver/Src/stm32f4xx_hal_i2c.c:1049:10
	ldr	r0, [sp, #24]
	.loc	7 1049 16 is_stmt 0             @ ../Library/STM32F4xx_HAL_Driver/Src/stm32f4xx_hal_i2c.c:1049:16
	ldr	r0, [r0]
	.loc	7 1049 26                       @ ../Library/STM32F4xx_HAL_Driver/Src/stm32f4xx_hal_i2c.c:1049:26
	ldr	r0, [r0]
.Ltmp36:
	.loc	7 1049 9                        @ ../Library/STM32F4xx_HAL_Driver/Src/stm32f4xx_hal_i2c.c:1049:9
	lsls	r0, r0, #31
	cbnz	r0, .LBB4_10
	b	.LBB4_9
.LBB4_9:
.Ltmp37:
	.loc	7 1052 7 is_stmt 1              @ ../Library/STM32F4xx_HAL_Driver/Src/stm32f4xx_hal_i2c.c:1052:7
	ldr	r0, [sp, #24]
	ldr	r1, [r0]
	ldr	r0, [r1]
	orr	r0, r0, #1
	str	r0, [r1]
	.loc	7 1053 5                        @ ../Library/STM32F4xx_HAL_Driver/Src/stm32f4xx_hal_i2c.c:1053:5
	b	.LBB4_10
.Ltmp38:
.LBB4_10:
	.loc	7 1056 5                        @ ../Library/STM32F4xx_HAL_Driver/Src/stm32f4xx_hal_i2c.c:1056:5
	ldr	r0, [sp, #24]
	ldr	r1, [r0]
	ldr	r0, [r1]
	bic	r0, r0, #2048
	str	r0, [r1]
	.loc	7 1058 5                        @ ../Library/STM32F4xx_HAL_Driver/Src/stm32f4xx_hal_i2c.c:1058:5
	ldr	r1, [sp, #24]
	movs	r0, #33
	.loc	7 1058 23 is_stmt 0             @ ../Library/STM32F4xx_HAL_Driver/Src/stm32f4xx_hal_i2c.c:1058:23
	strb.w	r0, [r1, #61]
	.loc	7 1059 5 is_stmt 1              @ ../Library/STM32F4xx_HAL_Driver/Src/stm32f4xx_hal_i2c.c:1059:5
	ldr	r1, [sp, #24]
	movs	r0, #16
	.loc	7 1059 23 is_stmt 0             @ ../Library/STM32F4xx_HAL_Driver/Src/stm32f4xx_hal_i2c.c:1059:23
	strb.w	r0, [r1, #62]
	.loc	7 1060 5 is_stmt 1              @ ../Library/STM32F4xx_HAL_Driver/Src/stm32f4xx_hal_i2c.c:1060:5
	ldr	r1, [sp, #24]
	movs	r0, #0
	.loc	7 1060 23 is_stmt 0             @ ../Library/STM32F4xx_HAL_Driver/Src/stm32f4xx_hal_i2c.c:1060:23
	str	r0, [r1, #64]
	.loc	7 1063 25 is_stmt 1             @ ../Library/STM32F4xx_HAL_Driver/Src/stm32f4xx_hal_i2c.c:1063:25
	ldr	r0, [sp, #16]
	.loc	7 1063 5 is_stmt 0              @ ../Library/STM32F4xx_HAL_Driver/Src/stm32f4xx_hal_i2c.c:1063:5
	ldr	r1, [sp, #24]
	.loc	7 1063 23                       @ ../Library/STM32F4xx_HAL_Driver/Src/stm32f4xx_hal_i2c.c:1063:23
	str	r0, [r1, #36]
	.loc	7 1064 25 is_stmt 1             @ ../Library/STM32F4xx_HAL_Driver/Src/stm32f4xx_hal_i2c.c:1064:25
	ldrh.w	r0, [sp, #14]
	.loc	7 1064 5 is_stmt 0              @ ../Library/STM32F4xx_HAL_Driver/Src/stm32f4xx_hal_i2c.c:1064:5
	ldr	r1, [sp, #24]
	.loc	7 1064 23                       @ ../Library/STM32F4xx_HAL_Driver/Src/stm32f4xx_hal_i2c.c:1064:23
	strh	r0, [r1, #42]
	.loc	7 1065 25 is_stmt 1             @ ../Library/STM32F4xx_HAL_Driver/Src/stm32f4xx_hal_i2c.c:1065:25
	ldr	r0, [sp, #24]
	.loc	7 1065 31 is_stmt 0             @ ../Library/STM32F4xx_HAL_Driver/Src/stm32f4xx_hal_i2c.c:1065:31
	ldrh	r0, [r0, #42]
	.loc	7 1065 5                        @ ../Library/STM32F4xx_HAL_Driver/Src/stm32f4xx_hal_i2c.c:1065:5
	ldr	r1, [sp, #24]
	.loc	7 1065 23                       @ ../Library/STM32F4xx_HAL_Driver/Src/stm32f4xx_hal_i2c.c:1065:23
	strh	r0, [r1, #40]
	.loc	7 1066 5 is_stmt 1              @ ../Library/STM32F4xx_HAL_Driver/Src/stm32f4xx_hal_i2c.c:1066:5
	ldr	r1, [sp, #24]
	movs	r0, #0
	movt	r0, #65535
	.loc	7 1066 23 is_stmt 0             @ ../Library/STM32F4xx_HAL_Driver/Src/stm32f4xx_hal_i2c.c:1066:23
	str	r0, [r1, #44]
.Ltmp39:
	.loc	7 1069 32 is_stmt 1             @ ../Library/STM32F4xx_HAL_Driver/Src/stm32f4xx_hal_i2c.c:1069:32
	ldr	r0, [sp, #24]
	.loc	7 1069 38 is_stmt 0             @ ../Library/STM32F4xx_HAL_Driver/Src/stm32f4xx_hal_i2c.c:1069:38
	ldrh.w	r1, [sp, #22]
	.loc	7 1069 50                       @ ../Library/STM32F4xx_HAL_Driver/Src/stm32f4xx_hal_i2c.c:1069:50
	ldr	r2, [sp, #40]
	.loc	7 1069 59                       @ ../Library/STM32F4xx_HAL_Driver/Src/stm32f4xx_hal_i2c.c:1069:59
	ldr	r3, [sp, #8]
	.loc	7 1069 9                        @ ../Library/STM32F4xx_HAL_Driver/Src/stm32f4xx_hal_i2c.c:1069:9
	bl	I2C_MasterRequestWrite
.Ltmp40:
	.loc	7 1069 9                        @ ../Library/STM32F4xx_HAL_Driver/Src/stm32f4xx_hal_i2c.c:1069:9
	cbz	r0, .LBB4_12
	b	.LBB4_11
.LBB4_11:
	.loc	7 0 9                           @ ../Library/STM32F4xx_HAL_Driver/Src/stm32f4xx_hal_i2c.c:0:9
	movs	r0, #1
.Ltmp41:
	.loc	7 1071 7 is_stmt 1              @ ../Library/STM32F4xx_HAL_Driver/Src/stm32f4xx_hal_i2c.c:1071:7
	strb.w	r0, [sp, #31]
	b	.LBB4_32
.Ltmp42:
.LBB4_12:
	.loc	7 1075 5                        @ ../Library/STM32F4xx_HAL_Driver/Src/stm32f4xx_hal_i2c.c:1075:5
	b	.LBB4_13
.LBB4_13:
	.loc	7 0 5 is_stmt 0                 @ ../Library/STM32F4xx_HAL_Driver/Src/stm32f4xx_hal_i2c.c:0:5
	movs	r0, #0
.Ltmp43:
	.loc	7 1075 5                        @ ../Library/STM32F4xx_HAL_Driver/Src/stm32f4xx_hal_i2c.c:1075:5
	str	r0, [sp, #4]
	ldr	r0, [sp, #24]
	ldr	r0, [r0]
	ldr	r0, [r0, #20]
	str	r0, [sp, #4]
	ldr	r0, [sp, #24]
	ldr	r0, [r0]
	ldr	r0, [r0, #24]
	str	r0, [sp, #4]
	ldr	r0, [sp, #4]
	b	.LBB4_14
.Ltmp44:
.LBB4_14:
	.loc	7 1077 5 is_stmt 1              @ ../Library/STM32F4xx_HAL_Driver/Src/stm32f4xx_hal_i2c.c:1077:5
	b	.LBB4_15
.LBB4_15:                               @ =>This Inner Loop Header: Depth=1
	.loc	7 1077 12 is_stmt 0             @ ../Library/STM32F4xx_HAL_Driver/Src/stm32f4xx_hal_i2c.c:1077:12
	ldr	r0, [sp, #24]
	.loc	7 1077 18                       @ ../Library/STM32F4xx_HAL_Driver/Src/stm32f4xx_hal_i2c.c:1077:18
	ldrh	r0, [r0, #40]
	.loc	7 1077 5                        @ ../Library/STM32F4xx_HAL_Driver/Src/stm32f4xx_hal_i2c.c:1077:5
	cmp	r0, #0
	beq	.LBB4_28
	b	.LBB4_16
.LBB4_16:                               @   in Loop: Header=BB4_15 Depth=1
.Ltmp45:
	.loc	7 1080 41 is_stmt 1             @ ../Library/STM32F4xx_HAL_Driver/Src/stm32f4xx_hal_i2c.c:1080:41
	ldr	r0, [sp, #24]
	.loc	7 1080 47 is_stmt 0             @ ../Library/STM32F4xx_HAL_Driver/Src/stm32f4xx_hal_i2c.c:1080:47
	ldr	r1, [sp, #40]
	.loc	7 1080 56                       @ ../Library/STM32F4xx_HAL_Driver/Src/stm32f4xx_hal_i2c.c:1080:56
	ldr	r2, [sp, #8]
	.loc	7 1080 11                       @ ../Library/STM32F4xx_HAL_Driver/Src/stm32f4xx_hal_i2c.c:1080:11
	bl	I2C_WaitOnTXEFlagUntilTimeout
.Ltmp46:
	.loc	7 1080 11                       @ ../Library/STM32F4xx_HAL_Driver/Src/stm32f4xx_hal_i2c.c:1080:11
	cbz	r0, .LBB4_20
	b	.LBB4_17
.LBB4_17:
.Ltmp47:
	.loc	7 1082 13 is_stmt 1             @ ../Library/STM32F4xx_HAL_Driver/Src/stm32f4xx_hal_i2c.c:1082:13
	ldr	r0, [sp, #24]
	.loc	7 1082 19 is_stmt 0             @ ../Library/STM32F4xx_HAL_Driver/Src/stm32f4xx_hal_i2c.c:1082:19
	ldr	r0, [r0, #64]
.Ltmp48:
	.loc	7 1082 13                       @ ../Library/STM32F4xx_HAL_Driver/Src/stm32f4xx_hal_i2c.c:1082:13
	cmp	r0, #4
	bne	.LBB4_19
	b	.LBB4_18
.LBB4_18:
.Ltmp49:
	.loc	7 1085 11 is_stmt 1             @ ../Library/STM32F4xx_HAL_Driver/Src/stm32f4xx_hal_i2c.c:1085:11
	ldr	r0, [sp, #24]
	ldr	r1, [r0]
	ldr	r0, [r1]
	orr	r0, r0, #512
	str	r0, [r1]
	.loc	7 1086 9                        @ ../Library/STM32F4xx_HAL_Driver/Src/stm32f4xx_hal_i2c.c:1086:9
	b	.LBB4_19
.Ltmp50:
.LBB4_19:
	.loc	7 0 9 is_stmt 0                 @ ../Library/STM32F4xx_HAL_Driver/Src/stm32f4xx_hal_i2c.c:0:9
	movs	r0, #1
	.loc	7 1087 9 is_stmt 1              @ ../Library/STM32F4xx_HAL_Driver/Src/stm32f4xx_hal_i2c.c:1087:9
	strb.w	r0, [sp, #31]
	b	.LBB4_32
.Ltmp51:
.LBB4_20:                               @   in Loop: Header=BB4_15 Depth=1
	.loc	7 1091 29                       @ ../Library/STM32F4xx_HAL_Driver/Src/stm32f4xx_hal_i2c.c:1091:29
	ldr	r0, [sp, #24]
	.loc	7 1091 13 is_stmt 0             @ ../Library/STM32F4xx_HAL_Driver/Src/stm32f4xx_hal_i2c.c:1091:13
	ldr	r1, [r0]
	.loc	7 1091 35                       @ ../Library/STM32F4xx_HAL_Driver/Src/stm32f4xx_hal_i2c.c:1091:35
	ldr	r0, [r0, #36]
	.loc	7 1091 28                       @ ../Library/STM32F4xx_HAL_Driver/Src/stm32f4xx_hal_i2c.c:1091:28
	ldrb	r0, [r0]
	.loc	7 1091 26                       @ ../Library/STM32F4xx_HAL_Driver/Src/stm32f4xx_hal_i2c.c:1091:26
	str	r0, [r1, #16]
	.loc	7 1094 7 is_stmt 1              @ ../Library/STM32F4xx_HAL_Driver/Src/stm32f4xx_hal_i2c.c:1094:7
	ldr	r1, [sp, #24]
	.loc	7 1094 21 is_stmt 0             @ ../Library/STM32F4xx_HAL_Driver/Src/stm32f4xx_hal_i2c.c:1094:21
	ldr	r0, [r1, #36]
	adds	r0, #1
	str	r0, [r1, #36]
	.loc	7 1097 7 is_stmt 1              @ ../Library/STM32F4xx_HAL_Driver/Src/stm32f4xx_hal_i2c.c:1097:7
	ldr	r1, [sp, #24]
	.loc	7 1097 22 is_stmt 0             @ ../Library/STM32F4xx_HAL_Driver/Src/stm32f4xx_hal_i2c.c:1097:22
	ldrh	r0, [r1, #42]
	subs	r0, #1
	strh	r0, [r1, #42]
	.loc	7 1098 7 is_stmt 1              @ ../Library/STM32F4xx_HAL_Driver/Src/stm32f4xx_hal_i2c.c:1098:7
	ldr	r1, [sp, #24]
	.loc	7 1098 21 is_stmt 0             @ ../Library/STM32F4xx_HAL_Driver/Src/stm32f4xx_hal_i2c.c:1098:21
	ldrh	r0, [r1, #40]
	subs	r0, #1
	strh	r0, [r1, #40]
.Ltmp52:
	.loc	7 1100 12 is_stmt 1             @ ../Library/STM32F4xx_HAL_Driver/Src/stm32f4xx_hal_i2c.c:1100:12
	ldr	r0, [sp, #24]
	ldr	r0, [r0]
	ldr	r0, [r0, #20]
	and	r1, r0, #4
	movs	r0, #1
	.loc	7 1100 59 is_stmt 0             @ ../Library/STM32F4xx_HAL_Driver/Src/stm32f4xx_hal_i2c.c:1100:59
	cmp.w	r0, r1, lsr #2
	bne	.LBB4_23
	b	.LBB4_21
.LBB4_21:                               @   in Loop: Header=BB4_15 Depth=1
	.loc	7 1100 63                       @ ../Library/STM32F4xx_HAL_Driver/Src/stm32f4xx_hal_i2c.c:1100:63
	ldr	r0, [sp, #24]
	.loc	7 1100 69                       @ ../Library/STM32F4xx_HAL_Driver/Src/stm32f4xx_hal_i2c.c:1100:69
	ldrh	r0, [r0, #40]
.Ltmp53:
	.loc	7 1100 11                       @ ../Library/STM32F4xx_HAL_Driver/Src/stm32f4xx_hal_i2c.c:1100:11
	cbz	r0, .LBB4_23
	b	.LBB4_22
.LBB4_22:                               @   in Loop: Header=BB4_15 Depth=1
.Ltmp54:
	.loc	7 1103 31 is_stmt 1             @ ../Library/STM32F4xx_HAL_Driver/Src/stm32f4xx_hal_i2c.c:1103:31
	ldr	r0, [sp, #24]
	.loc	7 1103 15 is_stmt 0             @ ../Library/STM32F4xx_HAL_Driver/Src/stm32f4xx_hal_i2c.c:1103:15
	ldr	r1, [r0]
	.loc	7 1103 37                       @ ../Library/STM32F4xx_HAL_Driver/Src/stm32f4xx_hal_i2c.c:1103:37
	ldr	r0, [r0, #36]
	.loc	7 1103 30                       @ ../Library/STM32F4xx_HAL_Driver/Src/stm32f4xx_hal_i2c.c:1103:30
	ldrb	r0, [r0]
	.loc	7 1103 28                       @ ../Library/STM32F4xx_HAL_Driver/Src/stm32f4xx_hal_i2c.c:1103:28
	str	r0, [r1, #16]
	.loc	7 1106 9 is_stmt 1              @ ../Library/STM32F4xx_HAL_Driver/Src/stm32f4xx_hal_i2c.c:1106:9
	ldr	r1, [sp, #24]
	.loc	7 1106 23 is_stmt 0             @ ../Library/STM32F4xx_HAL_Driver/Src/stm32f4xx_hal_i2c.c:1106:23
	ldr	r0, [r1, #36]
	adds	r0, #1
	str	r0, [r1, #36]
	.loc	7 1109 9 is_stmt 1              @ ../Library/STM32F4xx_HAL_Driver/Src/stm32f4xx_hal_i2c.c:1109:9
	ldr	r1, [sp, #24]
	.loc	7 1109 24 is_stmt 0             @ ../Library/STM32F4xx_HAL_Driver/Src/stm32f4xx_hal_i2c.c:1109:24
	ldrh	r0, [r1, #42]
	subs	r0, #1
	strh	r0, [r1, #42]
	.loc	7 1110 9 is_stmt 1              @ ../Library/STM32F4xx_HAL_Driver/Src/stm32f4xx_hal_i2c.c:1110:9
	ldr	r1, [sp, #24]
	.loc	7 1110 23 is_stmt 0             @ ../Library/STM32F4xx_HAL_Driver/Src/stm32f4xx_hal_i2c.c:1110:23
	ldrh	r0, [r1, #40]
	subs	r0, #1
	strh	r0, [r1, #40]
	.loc	7 1111 7 is_stmt 1              @ ../Library/STM32F4xx_HAL_Driver/Src/stm32f4xx_hal_i2c.c:1111:7
	b	.LBB4_23
.Ltmp55:
.LBB4_23:                               @   in Loop: Header=BB4_15 Depth=1
	.loc	7 1114 41                       @ ../Library/STM32F4xx_HAL_Driver/Src/stm32f4xx_hal_i2c.c:1114:41
	ldr	r0, [sp, #24]
	.loc	7 1114 47 is_stmt 0             @ ../Library/STM32F4xx_HAL_Driver/Src/stm32f4xx_hal_i2c.c:1114:47
	ldr	r1, [sp, #40]
	.loc	7 1114 56                       @ ../Library/STM32F4xx_HAL_Driver/Src/stm32f4xx_hal_i2c.c:1114:56
	ldr	r2, [sp, #8]
	.loc	7 1114 11                       @ ../Library/STM32F4xx_HAL_Driver/Src/stm32f4xx_hal_i2c.c:1114:11
	bl	I2C_WaitOnBTFFlagUntilTimeout
.Ltmp56:
	.loc	7 1114 11                       @ ../Library/STM32F4xx_HAL_Driver/Src/stm32f4xx_hal_i2c.c:1114:11
	cbz	r0, .LBB4_27
	b	.LBB4_24
.LBB4_24:
.Ltmp57:
	.loc	7 1116 13 is_stmt 1             @ ../Library/STM32F4xx_HAL_Driver/Src/stm32f4xx_hal_i2c.c:1116:13
	ldr	r0, [sp, #24]
	.loc	7 1116 19 is_stmt 0             @ ../Library/STM32F4xx_HAL_Driver/Src/stm32f4xx_hal_i2c.c:1116:19
	ldr	r0, [r0, #64]
.Ltmp58:
	.loc	7 1116 13                       @ ../Library/STM32F4xx_HAL_Driver/Src/stm32f4xx_hal_i2c.c:1116:13
	cmp	r0, #4
	bne	.LBB4_26
	b	.LBB4_25
.LBB4_25:
.Ltmp59:
	.loc	7 1119 11 is_stmt 1             @ ../Library/STM32F4xx_HAL_Driver/Src/stm32f4xx_hal_i2c.c:1119:11
	ldr	r0, [sp, #24]
	ldr	r1, [r0]
	ldr	r0, [r1]
	orr	r0, r0, #512
	str	r0, [r1]
	.loc	7 1120 9                        @ ../Library/STM32F4xx_HAL_Driver/Src/stm32f4xx_hal_i2c.c:1120:9
	b	.LBB4_26
.Ltmp60:
.LBB4_26:
	.loc	7 0 9 is_stmt 0                 @ ../Library/STM32F4xx_HAL_Driver/Src/stm32f4xx_hal_i2c.c:0:9
	movs	r0, #1
	.loc	7 1121 9 is_stmt 1              @ ../Library/STM32F4xx_HAL_Driver/Src/stm32f4xx_hal_i2c.c:1121:9
	strb.w	r0, [sp, #31]
	b	.LBB4_32
.Ltmp61:
.LBB4_27:                               @   in Loop: Header=BB4_15 Depth=1
	.loc	7 1077 5                        @ ../Library/STM32F4xx_HAL_Driver/Src/stm32f4xx_hal_i2c.c:1077:5
	b	.LBB4_15
.LBB4_28:
	.loc	7 1126 5                        @ ../Library/STM32F4xx_HAL_Driver/Src/stm32f4xx_hal_i2c.c:1126:5
	ldr	r0, [sp, #24]
	ldr	r1, [r0]
	ldr	r0, [r1]
	orr	r0, r0, #512
	str	r0, [r1]
	.loc	7 1128 5                        @ ../Library/STM32F4xx_HAL_Driver/Src/stm32f4xx_hal_i2c.c:1128:5
	ldr	r1, [sp, #24]
	movs	r0, #32
	.loc	7 1128 17 is_stmt 0             @ ../Library/STM32F4xx_HAL_Driver/Src/stm32f4xx_hal_i2c.c:1128:17
	strb.w	r0, [r1, #61]
	.loc	7 1129 5 is_stmt 1              @ ../Library/STM32F4xx_HAL_Driver/Src/stm32f4xx_hal_i2c.c:1129:5
	ldr	r1, [sp, #24]
	movs	r0, #0
	.loc	7 1129 16 is_stmt 0             @ ../Library/STM32F4xx_HAL_Driver/Src/stm32f4xx_hal_i2c.c:1129:16
	strb.w	r0, [r1, #62]
	.loc	7 1132 5 is_stmt 1              @ ../Library/STM32F4xx_HAL_Driver/Src/stm32f4xx_hal_i2c.c:1132:5
	b	.LBB4_29
.LBB4_29:
.Ltmp62:
	.loc	7 1132 5 is_stmt 0              @ ../Library/STM32F4xx_HAL_Driver/Src/stm32f4xx_hal_i2c.c:1132:5
	ldr	r1, [sp, #24]
	movs	r0, #0
	strb.w	r0, [r1, #60]
	b	.LBB4_30
.Ltmp63:
.LBB4_30:
	.loc	7 0 5                           @ ../Library/STM32F4xx_HAL_Driver/Src/stm32f4xx_hal_i2c.c:0:5
	movs	r0, #0
	.loc	7 1134 5 is_stmt 1              @ ../Library/STM32F4xx_HAL_Driver/Src/stm32f4xx_hal_i2c.c:1134:5
	strb.w	r0, [sp, #31]
	b	.LBB4_32
.Ltmp64:
.LBB4_31:
	.loc	7 0 5 is_stmt 0                 @ ../Library/STM32F4xx_HAL_Driver/Src/stm32f4xx_hal_i2c.c:0:5
	movs	r0, #2
.Ltmp65:
	.loc	7 1138 5 is_stmt 1              @ ../Library/STM32F4xx_HAL_Driver/Src/stm32f4xx_hal_i2c.c:1138:5
	strb.w	r0, [sp, #31]
	b	.LBB4_32
.Ltmp66:
.LBB4_32:
	.loc	7 1140 1                        @ ../Library/STM32F4xx_HAL_Driver/Src/stm32f4xx_hal_i2c.c:1140:1
	ldrb.w	r0, [sp, #31]
	add	sp, #32
	pop	{r7, pc}
.Ltmp67:
.Lfunc_end4:
	.size	HAL_I2C_Master_Transmit, .Lfunc_end4-HAL_I2C_Master_Transmit
	.cfi_endproc
	.cantunwind
	.fnend
                                        @ -- End function
	.section	.text.I2C_WaitOnFlagUntilTimeout,"ax",%progbits
	.p2align	2                               @ -- Begin function I2C_WaitOnFlagUntilTimeout
	.type	I2C_WaitOnFlagUntilTimeout,%function
	.code	16                              @ @I2C_WaitOnFlagUntilTimeout
	.thumb_func
I2C_WaitOnFlagUntilTimeout:
.Lfunc_begin5:
	.loc	7 7196 0                        @ ../Library/STM32F4xx_HAL_Driver/Src/stm32f4xx_hal_i2c.c:7196:0
	.fnstart
	.cfi_startproc
@ %bb.0:
	.save	{r7, lr}
	push	{r7, lr}
	.cfi_def_cfa_offset 8
	.cfi_offset lr, -4
	.cfi_offset r7, -8
	.pad	#24
	sub	sp, #24
	.cfi_def_cfa_offset 32
	ldr.w	r12, [sp, #32]
                                        @ kill: def $r12 killed $r2
	str	r0, [sp, #16]
	str	r1, [sp, #12]
	strb.w	r2, [sp, #11]
	str	r3, [sp, #4]
.Ltmp68:
	.loc	7 7198 3 prologue_end           @ ../Library/STM32F4xx_HAL_Driver/Src/stm32f4xx_hal_i2c.c:7198:3
	b	.LBB5_1
.LBB5_1:                                @ =>This Inner Loop Header: Depth=1
	.loc	7 7198 10 is_stmt 0             @ ../Library/STM32F4xx_HAL_Driver/Src/stm32f4xx_hal_i2c.c:7198:10
	ldrb.w	r0, [sp, #14]
	cmp	r0, #1
	bne	.LBB5_3
	b	.LBB5_2
.LBB5_2:                                @   in Loop: Header=BB5_1 Depth=1
	ldr	r0, [sp, #16]
	ldr	r0, [r0]
	ldr	r0, [r0, #20]
	ldrh.w	r1, [sp, #12]
	ands	r0, r1
	subs	r0, r0, r1
	clz	r0, r0
	lsrs	r0, r0, #5
	str	r0, [sp]                        @ 4-byte Spill
	b	.LBB5_4
.LBB5_3:                                @   in Loop: Header=BB5_1 Depth=1
	ldr	r0, [sp, #16]
	ldr	r0, [r0]
	ldr	r0, [r0, #24]
	ldrh.w	r1, [sp, #12]
	ands	r0, r1
	subs	r0, r0, r1
	clz	r0, r0
	lsrs	r0, r0, #5
	str	r0, [sp]                        @ 4-byte Spill
	b	.LBB5_4
.LBB5_4:                                @   in Loop: Header=BB5_1 Depth=1
	ldr	r0, [sp]                        @ 4-byte Reload
	.loc	7 7198 44                       @ ../Library/STM32F4xx_HAL_Driver/Src/stm32f4xx_hal_i2c.c:7198:44
	ldrb.w	r1, [sp, #11]
	.loc	7 7198 3                        @ ../Library/STM32F4xx_HAL_Driver/Src/stm32f4xx_hal_i2c.c:7198:3
	cmp	r0, r1
	bne	.LBB5_13
	b	.LBB5_5
.LBB5_5:                                @   in Loop: Header=BB5_1 Depth=1
.Ltmp69:
	.loc	7 7201 9 is_stmt 1              @ ../Library/STM32F4xx_HAL_Driver/Src/stm32f4xx_hal_i2c.c:7201:9
	ldr	r0, [sp, #4]
.Ltmp70:
	.loc	7 7201 9 is_stmt 0              @ ../Library/STM32F4xx_HAL_Driver/Src/stm32f4xx_hal_i2c.c:7201:9
	adds	r0, #1
	cbz	r0, .LBB5_12
	b	.LBB5_6
.LBB5_6:                                @   in Loop: Header=BB5_1 Depth=1
.Ltmp71:
	.loc	7 7203 13 is_stmt 1             @ ../Library/STM32F4xx_HAL_Driver/Src/stm32f4xx_hal_i2c.c:7203:13
	bl	HAL_GetTick
	.loc	7 7203 29 is_stmt 0             @ ../Library/STM32F4xx_HAL_Driver/Src/stm32f4xx_hal_i2c.c:7203:29
	ldr	r1, [sp, #32]
	.loc	7 7203 27                       @ ../Library/STM32F4xx_HAL_Driver/Src/stm32f4xx_hal_i2c.c:7203:27
	subs	r0, r0, r1
	.loc	7 7203 42                       @ ../Library/STM32F4xx_HAL_Driver/Src/stm32f4xx_hal_i2c.c:7203:42
	ldr	r1, [sp, #4]
	.loc	7 7203 51                       @ ../Library/STM32F4xx_HAL_Driver/Src/stm32f4xx_hal_i2c.c:7203:51
	cmp	r0, r1
	bhi	.LBB5_8
	b	.LBB5_7
.LBB5_7:                                @   in Loop: Header=BB5_1 Depth=1
	.loc	7 7203 55                       @ ../Library/STM32F4xx_HAL_Driver/Src/stm32f4xx_hal_i2c.c:7203:55
	ldr	r0, [sp, #4]
.Ltmp72:
	.loc	7 7203 11                       @ ../Library/STM32F4xx_HAL_Driver/Src/stm32f4xx_hal_i2c.c:7203:11
	cbnz	r0, .LBB5_11
	b	.LBB5_8
.LBB5_8:
.Ltmp73:
	.loc	7 7205 9 is_stmt 1              @ ../Library/STM32F4xx_HAL_Driver/Src/stm32f4xx_hal_i2c.c:7205:9
	ldr	r1, [sp, #16]
	movs	r0, #0
	.loc	7 7205 33 is_stmt 0             @ ../Library/STM32F4xx_HAL_Driver/Src/stm32f4xx_hal_i2c.c:7205:33
	str	r0, [r1, #48]
	.loc	7 7206 9 is_stmt 1              @ ../Library/STM32F4xx_HAL_Driver/Src/stm32f4xx_hal_i2c.c:7206:9
	ldr	r2, [sp, #16]
	movs	r1, #32
	.loc	7 7206 33 is_stmt 0             @ ../Library/STM32F4xx_HAL_Driver/Src/stm32f4xx_hal_i2c.c:7206:33
	strb.w	r1, [r2, #61]
	.loc	7 7207 9 is_stmt 1              @ ../Library/STM32F4xx_HAL_Driver/Src/stm32f4xx_hal_i2c.c:7207:9
	ldr	r1, [sp, #16]
	.loc	7 7207 33 is_stmt 0             @ ../Library/STM32F4xx_HAL_Driver/Src/stm32f4xx_hal_i2c.c:7207:33
	strb.w	r0, [r1, #62]
	.loc	7 7208 9 is_stmt 1              @ ../Library/STM32F4xx_HAL_Driver/Src/stm32f4xx_hal_i2c.c:7208:9
	ldr	r1, [sp, #16]
	.loc	7 7208 33 is_stmt 0             @ ../Library/STM32F4xx_HAL_Driver/Src/stm32f4xx_hal_i2c.c:7208:33
	ldr	r0, [r1, #64]
	orr	r0, r0, #32
	str	r0, [r1, #64]
	.loc	7 7211 9 is_stmt 1              @ ../Library/STM32F4xx_HAL_Driver/Src/stm32f4xx_hal_i2c.c:7211:9
	b	.LBB5_9
.LBB5_9:
.Ltmp74:
	.loc	7 7211 9 is_stmt 0              @ ../Library/STM32F4xx_HAL_Driver/Src/stm32f4xx_hal_i2c.c:7211:9
	ldr	r1, [sp, #16]
	movs	r0, #0
	strb.w	r0, [r1, #60]
	b	.LBB5_10
.Ltmp75:
.LBB5_10:
	.loc	7 0 9                           @ ../Library/STM32F4xx_HAL_Driver/Src/stm32f4xx_hal_i2c.c:0:9
	movs	r0, #1
	.loc	7 7213 9 is_stmt 1              @ ../Library/STM32F4xx_HAL_Driver/Src/stm32f4xx_hal_i2c.c:7213:9
	strb.w	r0, [sp, #23]
	b	.LBB5_14
.Ltmp76:
.LBB5_11:                               @   in Loop: Header=BB5_1 Depth=1
	.loc	7 7215 5                        @ ../Library/STM32F4xx_HAL_Driver/Src/stm32f4xx_hal_i2c.c:7215:5
	b	.LBB5_12
.Ltmp77:
.LBB5_12:                               @   in Loop: Header=BB5_1 Depth=1
	.loc	7 7198 3                        @ ../Library/STM32F4xx_HAL_Driver/Src/stm32f4xx_hal_i2c.c:7198:3
	b	.LBB5_1
.LBB5_13:
	.loc	7 0 3 is_stmt 0                 @ ../Library/STM32F4xx_HAL_Driver/Src/stm32f4xx_hal_i2c.c:0:3
	movs	r0, #0
	.loc	7 7217 3 is_stmt 1              @ ../Library/STM32F4xx_HAL_Driver/Src/stm32f4xx_hal_i2c.c:7217:3
	strb.w	r0, [sp, #23]
	b	.LBB5_14
.LBB5_14:
	.loc	7 7218 1                        @ ../Library/STM32F4xx_HAL_Driver/Src/stm32f4xx_hal_i2c.c:7218:1
	ldrb.w	r0, [sp, #23]
	add	sp, #24
	pop	{r7, pc}
.Ltmp78:
.Lfunc_end5:
	.size	I2C_WaitOnFlagUntilTimeout, .Lfunc_end5-I2C_WaitOnFlagUntilTimeout
	.cfi_endproc
	.cantunwind
	.fnend
                                        @ -- End function
	.section	.text.I2C_MasterRequestWrite,"ax",%progbits
	.p2align	2                               @ -- Begin function I2C_MasterRequestWrite
	.type	I2C_MasterRequestWrite,%function
	.code	16                              @ @I2C_MasterRequestWrite
	.thumb_func
I2C_MasterRequestWrite:
.Lfunc_begin6:
	.loc	7 6555 0                        @ ../Library/STM32F4xx_HAL_Driver/Src/stm32f4xx_hal_i2c.c:6555:0
	.fnstart
	.cfi_startproc
@ %bb.0:
	.save	{r7, lr}
	push	{r7, lr}
	.cfi_def_cfa_offset 8
	.cfi_offset lr, -4
	.cfi_offset r7, -8
	.pad	#32
	sub	sp, #32
	.cfi_def_cfa_offset 40
                                        @ kill: def $r12 killed $r1
	str	r0, [sp, #24]
	strh.w	r1, [sp, #22]
	str	r2, [sp, #16]
	str	r3, [sp, #12]
.Ltmp79:
	.loc	7 6557 33 prologue_end          @ ../Library/STM32F4xx_HAL_Driver/Src/stm32f4xx_hal_i2c.c:6557:33
	ldr	r0, [sp, #24]
	.loc	7 6557 39 is_stmt 0             @ ../Library/STM32F4xx_HAL_Driver/Src/stm32f4xx_hal_i2c.c:6557:39
	ldr	r0, [r0, #44]
	.loc	7 6557 12                       @ ../Library/STM32F4xx_HAL_Driver/Src/stm32f4xx_hal_i2c.c:6557:12
	str	r0, [sp, #8]
.Ltmp80:
	.loc	7 6560 8 is_stmt 1              @ ../Library/STM32F4xx_HAL_Driver/Src/stm32f4xx_hal_i2c.c:6560:8
	ldr	r0, [sp, #8]
	.loc	7 6560 56 is_stmt 0             @ ../Library/STM32F4xx_HAL_Driver/Src/stm32f4xx_hal_i2c.c:6560:56
	cmp	r0, #8
	beq	.LBB6_3
	b	.LBB6_1
.LBB6_1:
	.loc	7 6560 60                       @ ../Library/STM32F4xx_HAL_Driver/Src/stm32f4xx_hal_i2c.c:6560:60
	ldr	r0, [sp, #8]
	.loc	7 6560 99                       @ ../Library/STM32F4xx_HAL_Driver/Src/stm32f4xx_hal_i2c.c:6560:99
	cmp	r0, #1
	beq	.LBB6_3
	b	.LBB6_2
.LBB6_2:
	.loc	7 6560 103                      @ ../Library/STM32F4xx_HAL_Driver/Src/stm32f4xx_hal_i2c.c:6560:103
	ldr	r0, [sp, #8]
.Ltmp81:
	.loc	7 6560 7                        @ ../Library/STM32F4xx_HAL_Driver/Src/stm32f4xx_hal_i2c.c:6560:7
	cmn.w	r0, #65536
	bne	.LBB6_4
	b	.LBB6_3
.LBB6_3:
.Ltmp82:
	.loc	7 6563 5 is_stmt 1              @ ../Library/STM32F4xx_HAL_Driver/Src/stm32f4xx_hal_i2c.c:6563:5
	ldr	r0, [sp, #24]
	ldr	r1, [r0]
	ldr	r0, [r1]
	orr	r0, r0, #256
	str	r0, [r1]
	.loc	7 6564 3                        @ ../Library/STM32F4xx_HAL_Driver/Src/stm32f4xx_hal_i2c.c:6564:3
	b	.LBB6_8
.Ltmp83:
.LBB6_4:
	.loc	7 6565 12                       @ ../Library/STM32F4xx_HAL_Driver/Src/stm32f4xx_hal_i2c.c:6565:12
	ldr	r0, [sp, #24]
	.loc	7 6565 18 is_stmt 0             @ ../Library/STM32F4xx_HAL_Driver/Src/stm32f4xx_hal_i2c.c:6565:18
	ldr	r0, [r0, #48]
.Ltmp84:
	.loc	7 6565 12                       @ ../Library/STM32F4xx_HAL_Driver/Src/stm32f4xx_hal_i2c.c:6565:12
	cmp	r0, #18
	bne	.LBB6_6
	b	.LBB6_5
.LBB6_5:
.Ltmp85:
	.loc	7 6568 5 is_stmt 1              @ ../Library/STM32F4xx_HAL_Driver/Src/stm32f4xx_hal_i2c.c:6568:5
	ldr	r0, [sp, #24]
	ldr	r1, [r0]
	ldr	r0, [r1]
	orr	r0, r0, #256
	str	r0, [r1]
	.loc	7 6569 3                        @ ../Library/STM32F4xx_HAL_Driver/Src/stm32f4xx_hal_i2c.c:6569:3
	b	.LBB6_7
.Ltmp86:
.LBB6_6:
	.loc	7 0 3 is_stmt 0                 @ ../Library/STM32F4xx_HAL_Driver/Src/stm32f4xx_hal_i2c.c:0:3
	b	.LBB6_7
.LBB6_7:
	b	.LBB6_8
.LBB6_8:
.Ltmp87:
	.loc	7 6576 34 is_stmt 1             @ ../Library/STM32F4xx_HAL_Driver/Src/stm32f4xx_hal_i2c.c:6576:34
	ldr	r0, [sp, #24]
	.loc	7 6576 60 is_stmt 0             @ ../Library/STM32F4xx_HAL_Driver/Src/stm32f4xx_hal_i2c.c:6576:60
	ldr	r3, [sp, #16]
	.loc	7 6576 69                       @ ../Library/STM32F4xx_HAL_Driver/Src/stm32f4xx_hal_i2c.c:6576:69
	ldr	r1, [sp, #12]
	.loc	7 6576 7                        @ ../Library/STM32F4xx_HAL_Driver/Src/stm32f4xx_hal_i2c.c:6576:7
	mov	r2, sp
	str	r1, [r2]
	mov.w	r1, #65537
	movs	r2, #0
	bl	I2C_WaitOnFlagUntilTimeout
.Ltmp88:
	.loc	7 6576 7                        @ ../Library/STM32F4xx_HAL_Driver/Src/stm32f4xx_hal_i2c.c:6576:7
	cbz	r0, .LBB6_12
	b	.LBB6_9
.LBB6_9:
.Ltmp89:
	.loc	7 6578 9 is_stmt 1              @ ../Library/STM32F4xx_HAL_Driver/Src/stm32f4xx_hal_i2c.c:6578:9
	ldr	r0, [sp, #24]
	ldr	r0, [r0]
	ldr	r0, [r0]
.Ltmp90:
	.loc	7 6578 9 is_stmt 0              @ ../Library/STM32F4xx_HAL_Driver/Src/stm32f4xx_hal_i2c.c:6578:9
	lsls	r0, r0, #23
	cmp	r0, #0
	bpl	.LBB6_11
	b	.LBB6_10
.LBB6_10:
.Ltmp91:
	.loc	7 6580 7 is_stmt 1              @ ../Library/STM32F4xx_HAL_Driver/Src/stm32f4xx_hal_i2c.c:6580:7
	ldr	r1, [sp, #24]
	mov.w	r0, #512
	.loc	7 6580 23 is_stmt 0             @ ../Library/STM32F4xx_HAL_Driver/Src/stm32f4xx_hal_i2c.c:6580:23
	str	r0, [r1, #64]
	.loc	7 6581 5 is_stmt 1              @ ../Library/STM32F4xx_HAL_Driver/Src/stm32f4xx_hal_i2c.c:6581:5
	b	.LBB6_11
.Ltmp92:
.LBB6_11:
	.loc	7 0 5 is_stmt 0                 @ ../Library/STM32F4xx_HAL_Driver/Src/stm32f4xx_hal_i2c.c:0:5
	movs	r0, #3
	.loc	7 6582 5 is_stmt 1              @ ../Library/STM32F4xx_HAL_Driver/Src/stm32f4xx_hal_i2c.c:6582:5
	strb.w	r0, [sp, #31]
	b	.LBB6_20
.Ltmp93:
.LBB6_12:
	.loc	7 6585 7                        @ ../Library/STM32F4xx_HAL_Driver/Src/stm32f4xx_hal_i2c.c:6585:7
	ldr	r0, [sp, #24]
	.loc	7 6585 18 is_stmt 0             @ ../Library/STM32F4xx_HAL_Driver/Src/stm32f4xx_hal_i2c.c:6585:18
	ldr	r0, [r0, #16]
.Ltmp94:
	.loc	7 6585 7                        @ ../Library/STM32F4xx_HAL_Driver/Src/stm32f4xx_hal_i2c.c:6585:7
	cmp.w	r0, #16384
	bne	.LBB6_14
	b	.LBB6_13
.LBB6_13:
.Ltmp95:
	.loc	7 6588 26 is_stmt 1             @ ../Library/STM32F4xx_HAL_Driver/Src/stm32f4xx_hal_i2c.c:6588:26
	ldrh.w	r0, [sp, #22]
	and	r0, r0, #254
	.loc	7 6588 5 is_stmt 0              @ ../Library/STM32F4xx_HAL_Driver/Src/stm32f4xx_hal_i2c.c:6588:5
	ldr	r1, [sp, #24]
	.loc	7 6588 11                       @ ../Library/STM32F4xx_HAL_Driver/Src/stm32f4xx_hal_i2c.c:6588:11
	ldr	r1, [r1]
	.loc	7 6588 24                       @ ../Library/STM32F4xx_HAL_Driver/Src/stm32f4xx_hal_i2c.c:6588:24
	str	r0, [r1, #16]
	.loc	7 6589 3 is_stmt 1              @ ../Library/STM32F4xx_HAL_Driver/Src/stm32f4xx_hal_i2c.c:6589:3
	b	.LBB6_17
.Ltmp96:
.LBB6_14:
	.loc	7 6593 26                       @ ../Library/STM32F4xx_HAL_Driver/Src/stm32f4xx_hal_i2c.c:6593:26
	ldrh.w	r0, [sp, #22]
	and	r0, r0, #768
	lsrs	r0, r0, #7
	adds	r0, #240
	.loc	7 6593 5 is_stmt 0              @ ../Library/STM32F4xx_HAL_Driver/Src/stm32f4xx_hal_i2c.c:6593:5
	ldr	r1, [sp, #24]
	.loc	7 6593 11                       @ ../Library/STM32F4xx_HAL_Driver/Src/stm32f4xx_hal_i2c.c:6593:11
	ldr	r1, [r1]
	.loc	7 6593 24                       @ ../Library/STM32F4xx_HAL_Driver/Src/stm32f4xx_hal_i2c.c:6593:24
	str	r0, [r1, #16]
.Ltmp97:
	.loc	7 6596 49 is_stmt 1             @ ../Library/STM32F4xx_HAL_Driver/Src/stm32f4xx_hal_i2c.c:6596:49
	ldr	r0, [sp, #24]
	.loc	7 6596 71 is_stmt 0             @ ../Library/STM32F4xx_HAL_Driver/Src/stm32f4xx_hal_i2c.c:6596:71
	ldr	r2, [sp, #16]
	.loc	7 6596 80                       @ ../Library/STM32F4xx_HAL_Driver/Src/stm32f4xx_hal_i2c.c:6596:80
	ldr	r3, [sp, #12]
	movs	r1, #8
	movt	r1, #1
	.loc	7 6596 9                        @ ../Library/STM32F4xx_HAL_Driver/Src/stm32f4xx_hal_i2c.c:6596:9
	bl	I2C_WaitOnMasterAddressFlagUntilTimeout
.Ltmp98:
	.loc	7 6596 9                        @ ../Library/STM32F4xx_HAL_Driver/Src/stm32f4xx_hal_i2c.c:6596:9
	cbz	r0, .LBB6_16
	b	.LBB6_15
.LBB6_15:
	.loc	7 0 9                           @ ../Library/STM32F4xx_HAL_Driver/Src/stm32f4xx_hal_i2c.c:0:9
	movs	r0, #1
.Ltmp99:
	.loc	7 6598 7 is_stmt 1              @ ../Library/STM32F4xx_HAL_Driver/Src/stm32f4xx_hal_i2c.c:6598:7
	strb.w	r0, [sp, #31]
	b	.LBB6_20
.Ltmp100:
.LBB6_16:
	.loc	7 6602 26                       @ ../Library/STM32F4xx_HAL_Driver/Src/stm32f4xx_hal_i2c.c:6602:26
	ldrb.w	r0, [sp, #22]
	.loc	7 6602 5 is_stmt 0              @ ../Library/STM32F4xx_HAL_Driver/Src/stm32f4xx_hal_i2c.c:6602:5
	ldr	r1, [sp, #24]
	.loc	7 6602 11                       @ ../Library/STM32F4xx_HAL_Driver/Src/stm32f4xx_hal_i2c.c:6602:11
	ldr	r1, [r1]
	.loc	7 6602 24                       @ ../Library/STM32F4xx_HAL_Driver/Src/stm32f4xx_hal_i2c.c:6602:24
	str	r0, [r1, #16]
	b	.LBB6_17
.Ltmp101:
.LBB6_17:
	.loc	7 6606 47 is_stmt 1             @ ../Library/STM32F4xx_HAL_Driver/Src/stm32f4xx_hal_i2c.c:6606:47
	ldr	r0, [sp, #24]
	.loc	7 6606 68 is_stmt 0             @ ../Library/STM32F4xx_HAL_Driver/Src/stm32f4xx_hal_i2c.c:6606:68
	ldr	r2, [sp, #16]
	.loc	7 6606 77                       @ ../Library/STM32F4xx_HAL_Driver/Src/stm32f4xx_hal_i2c.c:6606:77
	ldr	r3, [sp, #12]
	movs	r1, #2
	movt	r1, #1
	.loc	7 6606 7                        @ ../Library/STM32F4xx_HAL_Driver/Src/stm32f4xx_hal_i2c.c:6606:7
	bl	I2C_WaitOnMasterAddressFlagUntilTimeout
.Ltmp102:
	.loc	7 6606 7                        @ ../Library/STM32F4xx_HAL_Driver/Src/stm32f4xx_hal_i2c.c:6606:7
	cbz	r0, .LBB6_19
	b	.LBB6_18
.LBB6_18:
	.loc	7 0 7                           @ ../Library/STM32F4xx_HAL_Driver/Src/stm32f4xx_hal_i2c.c:0:7
	movs	r0, #1
.Ltmp103:
	.loc	7 6608 5 is_stmt 1              @ ../Library/STM32F4xx_HAL_Driver/Src/stm32f4xx_hal_i2c.c:6608:5
	strb.w	r0, [sp, #31]
	b	.LBB6_20
.Ltmp104:
.LBB6_19:
	.loc	7 0 5 is_stmt 0                 @ ../Library/STM32F4xx_HAL_Driver/Src/stm32f4xx_hal_i2c.c:0:5
	movs	r0, #0
	.loc	7 6611 3 is_stmt 1              @ ../Library/STM32F4xx_HAL_Driver/Src/stm32f4xx_hal_i2c.c:6611:3
	strb.w	r0, [sp, #31]
	b	.LBB6_20
.LBB6_20:
	.loc	7 6612 1                        @ ../Library/STM32F4xx_HAL_Driver/Src/stm32f4xx_hal_i2c.c:6612:1
	ldrb.w	r0, [sp, #31]
	add	sp, #32
	pop	{r7, pc}
.Ltmp105:
.Lfunc_end6:
	.size	I2C_MasterRequestWrite, .Lfunc_end6-I2C_MasterRequestWrite
	.cfi_endproc
	.cantunwind
	.fnend
                                        @ -- End function
	.section	.text.I2C_WaitOnTXEFlagUntilTimeout,"ax",%progbits
	.p2align	2                               @ -- Begin function I2C_WaitOnTXEFlagUntilTimeout
	.type	I2C_WaitOnTXEFlagUntilTimeout,%function
	.code	16                              @ @I2C_WaitOnTXEFlagUntilTimeout
	.thumb_func
I2C_WaitOnTXEFlagUntilTimeout:
.Lfunc_begin7:
	.loc	7 7281 0                        @ ../Library/STM32F4xx_HAL_Driver/Src/stm32f4xx_hal_i2c.c:7281:0
	.fnstart
	.cfi_startproc
@ %bb.0:
	.save	{r7, lr}
	push	{r7, lr}
	.cfi_def_cfa_offset 8
	.cfi_offset lr, -4
	.cfi_offset r7, -8
	.pad	#16
	sub	sp, #16
	.cfi_def_cfa_offset 24
	str	r0, [sp, #8]
	str	r1, [sp, #4]
	str	r2, [sp]
.Ltmp106:
	.loc	7 7282 3 prologue_end           @ ../Library/STM32F4xx_HAL_Driver/Src/stm32f4xx_hal_i2c.c:7282:3
	b	.LBB7_1
.LBB7_1:                                @ =>This Inner Loop Header: Depth=1
	.loc	7 7282 10 is_stmt 0             @ ../Library/STM32F4xx_HAL_Driver/Src/stm32f4xx_hal_i2c.c:7282:10
	ldr	r0, [sp, #8]
	ldr	r0, [r0]
	ldr	r0, [r0, #20]
	uxtb	r1, r0
	movs	r0, #0
	.loc	7 7282 3                        @ ../Library/STM32F4xx_HAL_Driver/Src/stm32f4xx_hal_i2c.c:7282:3
	cmp.w	r0, r1, lsr #7
	bne	.LBB7_12
	b	.LBB7_2
.LBB7_2:                                @   in Loop: Header=BB7_1 Depth=1
.Ltmp107:
	.loc	7 7285 33 is_stmt 1             @ ../Library/STM32F4xx_HAL_Driver/Src/stm32f4xx_hal_i2c.c:7285:33
	ldr	r0, [sp, #8]
	.loc	7 7285 9 is_stmt 0              @ ../Library/STM32F4xx_HAL_Driver/Src/stm32f4xx_hal_i2c.c:7285:9
	bl	I2C_IsAcknowledgeFailed
.Ltmp108:
	.loc	7 7285 9                        @ ../Library/STM32F4xx_HAL_Driver/Src/stm32f4xx_hal_i2c.c:7285:9
	cbz	r0, .LBB7_4
	b	.LBB7_3
.LBB7_3:
	.loc	7 0 9                           @ ../Library/STM32F4xx_HAL_Driver/Src/stm32f4xx_hal_i2c.c:0:9
	movs	r0, #1
.Ltmp109:
	.loc	7 7287 7 is_stmt 1              @ ../Library/STM32F4xx_HAL_Driver/Src/stm32f4xx_hal_i2c.c:7287:7
	strb.w	r0, [sp, #15]
	b	.LBB7_13
.Ltmp110:
.LBB7_4:                                @   in Loop: Header=BB7_1 Depth=1
	.loc	7 7291 9                        @ ../Library/STM32F4xx_HAL_Driver/Src/stm32f4xx_hal_i2c.c:7291:9
	ldr	r0, [sp, #4]
.Ltmp111:
	.loc	7 7291 9 is_stmt 0              @ ../Library/STM32F4xx_HAL_Driver/Src/stm32f4xx_hal_i2c.c:7291:9
	adds	r0, #1
	cbz	r0, .LBB7_11
	b	.LBB7_5
.LBB7_5:                                @   in Loop: Header=BB7_1 Depth=1
.Ltmp112:
	.loc	7 7293 13 is_stmt 1             @ ../Library/STM32F4xx_HAL_Driver/Src/stm32f4xx_hal_i2c.c:7293:13
	bl	HAL_GetTick
	.loc	7 7293 29 is_stmt 0             @ ../Library/STM32F4xx_HAL_Driver/Src/stm32f4xx_hal_i2c.c:7293:29
	ldr	r1, [sp]
	.loc	7 7293 27                       @ ../Library/STM32F4xx_HAL_Driver/Src/stm32f4xx_hal_i2c.c:7293:27
	subs	r0, r0, r1
	.loc	7 7293 42                       @ ../Library/STM32F4xx_HAL_Driver/Src/stm32f4xx_hal_i2c.c:7293:42
	ldr	r1, [sp, #4]
	.loc	7 7293 51                       @ ../Library/STM32F4xx_HAL_Driver/Src/stm32f4xx_hal_i2c.c:7293:51
	cmp	r0, r1
	bhi	.LBB7_7
	b	.LBB7_6
.LBB7_6:                                @   in Loop: Header=BB7_1 Depth=1
	.loc	7 7293 55                       @ ../Library/STM32F4xx_HAL_Driver/Src/stm32f4xx_hal_i2c.c:7293:55
	ldr	r0, [sp, #4]
.Ltmp113:
	.loc	7 7293 11                       @ ../Library/STM32F4xx_HAL_Driver/Src/stm32f4xx_hal_i2c.c:7293:11
	cbnz	r0, .LBB7_10
	b	.LBB7_7
.LBB7_7:
.Ltmp114:
	.loc	7 7295 9 is_stmt 1              @ ../Library/STM32F4xx_HAL_Driver/Src/stm32f4xx_hal_i2c.c:7295:9
	ldr	r1, [sp, #8]
	movs	r0, #0
	.loc	7 7295 35 is_stmt 0             @ ../Library/STM32F4xx_HAL_Driver/Src/stm32f4xx_hal_i2c.c:7295:35
	str	r0, [r1, #48]
	.loc	7 7296 9 is_stmt 1              @ ../Library/STM32F4xx_HAL_Driver/Src/stm32f4xx_hal_i2c.c:7296:9
	ldr	r2, [sp, #8]
	movs	r1, #32
	.loc	7 7296 35 is_stmt 0             @ ../Library/STM32F4xx_HAL_Driver/Src/stm32f4xx_hal_i2c.c:7296:35
	strb.w	r1, [r2, #61]
	.loc	7 7297 9 is_stmt 1              @ ../Library/STM32F4xx_HAL_Driver/Src/stm32f4xx_hal_i2c.c:7297:9
	ldr	r1, [sp, #8]
	.loc	7 7297 35 is_stmt 0             @ ../Library/STM32F4xx_HAL_Driver/Src/stm32f4xx_hal_i2c.c:7297:35
	strb.w	r0, [r1, #62]
	.loc	7 7298 9 is_stmt 1              @ ../Library/STM32F4xx_HAL_Driver/Src/stm32f4xx_hal_i2c.c:7298:9
	ldr	r1, [sp, #8]
	.loc	7 7298 35 is_stmt 0             @ ../Library/STM32F4xx_HAL_Driver/Src/stm32f4xx_hal_i2c.c:7298:35
	ldr	r0, [r1, #64]
	orr	r0, r0, #32
	str	r0, [r1, #64]
	.loc	7 7301 9 is_stmt 1              @ ../Library/STM32F4xx_HAL_Driver/Src/stm32f4xx_hal_i2c.c:7301:9
	b	.LBB7_8
.LBB7_8:
.Ltmp115:
	.loc	7 7301 9 is_stmt 0              @ ../Library/STM32F4xx_HAL_Driver/Src/stm32f4xx_hal_i2c.c:7301:9
	ldr	r1, [sp, #8]
	movs	r0, #0
	strb.w	r0, [r1, #60]
	b	.LBB7_9
.Ltmp116:
.LBB7_9:
	.loc	7 0 9                           @ ../Library/STM32F4xx_HAL_Driver/Src/stm32f4xx_hal_i2c.c:0:9
	movs	r0, #1
	.loc	7 7303 9 is_stmt 1              @ ../Library/STM32F4xx_HAL_Driver/Src/stm32f4xx_hal_i2c.c:7303:9
	strb.w	r0, [sp, #15]
	b	.LBB7_13
.Ltmp117:
.LBB7_10:                               @   in Loop: Header=BB7_1 Depth=1
	.loc	7 7305 5                        @ ../Library/STM32F4xx_HAL_Driver/Src/stm32f4xx_hal_i2c.c:7305:5
	b	.LBB7_11
.Ltmp118:
.LBB7_11:                               @   in Loop: Header=BB7_1 Depth=1
	.loc	7 7282 3                        @ ../Library/STM32F4xx_HAL_Driver/Src/stm32f4xx_hal_i2c.c:7282:3
	b	.LBB7_1
.LBB7_12:
	.loc	7 0 3 is_stmt 0                 @ ../Library/STM32F4xx_HAL_Driver/Src/stm32f4xx_hal_i2c.c:0:3
	movs	r0, #0
	.loc	7 7307 3 is_stmt 1              @ ../Library/STM32F4xx_HAL_Driver/Src/stm32f4xx_hal_i2c.c:7307:3
	strb.w	r0, [sp, #15]
	b	.LBB7_13
.LBB7_13:
	.loc	7 7308 1                        @ ../Library/STM32F4xx_HAL_Driver/Src/stm32f4xx_hal_i2c.c:7308:1
	ldrb.w	r0, [sp, #15]
	add	sp, #16
	pop	{r7, pc}
.Ltmp119:
.Lfunc_end7:
	.size	I2C_WaitOnTXEFlagUntilTimeout, .Lfunc_end7-I2C_WaitOnTXEFlagUntilTimeout
	.cfi_endproc
	.cantunwind
	.fnend
                                        @ -- End function
	.section	.text.I2C_WaitOnBTFFlagUntilTimeout,"ax",%progbits
	.p2align	2                               @ -- Begin function I2C_WaitOnBTFFlagUntilTimeout
	.type	I2C_WaitOnBTFFlagUntilTimeout,%function
	.code	16                              @ @I2C_WaitOnBTFFlagUntilTimeout
	.thumb_func
I2C_WaitOnBTFFlagUntilTimeout:
.Lfunc_begin8:
	.loc	7 7319 0                        @ ../Library/STM32F4xx_HAL_Driver/Src/stm32f4xx_hal_i2c.c:7319:0
	.fnstart
	.cfi_startproc
@ %bb.0:
	.save	{r7, lr}
	push	{r7, lr}
	.cfi_def_cfa_offset 8
	.cfi_offset lr, -4
	.cfi_offset r7, -8
	.pad	#16
	sub	sp, #16
	.cfi_def_cfa_offset 24
	str	r0, [sp, #8]
	str	r1, [sp, #4]
	str	r2, [sp]
.Ltmp120:
	.loc	7 7320 3 prologue_end           @ ../Library/STM32F4xx_HAL_Driver/Src/stm32f4xx_hal_i2c.c:7320:3
	b	.LBB8_1
.LBB8_1:                                @ =>This Inner Loop Header: Depth=1
	.loc	7 7320 10 is_stmt 0             @ ../Library/STM32F4xx_HAL_Driver/Src/stm32f4xx_hal_i2c.c:7320:10
	ldr	r0, [sp, #8]
	ldr	r0, [r0]
	ldr	r0, [r0, #20]
	and	r1, r0, #4
	movs	r0, #0
	.loc	7 7320 3                        @ ../Library/STM32F4xx_HAL_Driver/Src/stm32f4xx_hal_i2c.c:7320:3
	cmp.w	r0, r1, lsr #2
	bne	.LBB8_12
	b	.LBB8_2
.LBB8_2:                                @   in Loop: Header=BB8_1 Depth=1
.Ltmp121:
	.loc	7 7323 33 is_stmt 1             @ ../Library/STM32F4xx_HAL_Driver/Src/stm32f4xx_hal_i2c.c:7323:33
	ldr	r0, [sp, #8]
	.loc	7 7323 9 is_stmt 0              @ ../Library/STM32F4xx_HAL_Driver/Src/stm32f4xx_hal_i2c.c:7323:9
	bl	I2C_IsAcknowledgeFailed
.Ltmp122:
	.loc	7 7323 9                        @ ../Library/STM32F4xx_HAL_Driver/Src/stm32f4xx_hal_i2c.c:7323:9
	cbz	r0, .LBB8_4
	b	.LBB8_3
.LBB8_3:
	.loc	7 0 9                           @ ../Library/STM32F4xx_HAL_Driver/Src/stm32f4xx_hal_i2c.c:0:9
	movs	r0, #1
.Ltmp123:
	.loc	7 7325 7 is_stmt 1              @ ../Library/STM32F4xx_HAL_Driver/Src/stm32f4xx_hal_i2c.c:7325:7
	strb.w	r0, [sp, #15]
	b	.LBB8_13
.Ltmp124:
.LBB8_4:                                @   in Loop: Header=BB8_1 Depth=1
	.loc	7 7329 9                        @ ../Library/STM32F4xx_HAL_Driver/Src/stm32f4xx_hal_i2c.c:7329:9
	ldr	r0, [sp, #4]
.Ltmp125:
	.loc	7 7329 9 is_stmt 0              @ ../Library/STM32F4xx_HAL_Driver/Src/stm32f4xx_hal_i2c.c:7329:9
	adds	r0, #1
	cbz	r0, .LBB8_11
	b	.LBB8_5
.LBB8_5:                                @   in Loop: Header=BB8_1 Depth=1
.Ltmp126:
	.loc	7 7331 13 is_stmt 1             @ ../Library/STM32F4xx_HAL_Driver/Src/stm32f4xx_hal_i2c.c:7331:13
	bl	HAL_GetTick
	.loc	7 7331 29 is_stmt 0             @ ../Library/STM32F4xx_HAL_Driver/Src/stm32f4xx_hal_i2c.c:7331:29
	ldr	r1, [sp]
	.loc	7 7331 27                       @ ../Library/STM32F4xx_HAL_Driver/Src/stm32f4xx_hal_i2c.c:7331:27
	subs	r0, r0, r1
	.loc	7 7331 42                       @ ../Library/STM32F4xx_HAL_Driver/Src/stm32f4xx_hal_i2c.c:7331:42
	ldr	r1, [sp, #4]
	.loc	7 7331 51                       @ ../Library/STM32F4xx_HAL_Driver/Src/stm32f4xx_hal_i2c.c:7331:51
	cmp	r0, r1
	bhi	.LBB8_7
	b	.LBB8_6
.LBB8_6:                                @   in Loop: Header=BB8_1 Depth=1
	.loc	7 7331 55                       @ ../Library/STM32F4xx_HAL_Driver/Src/stm32f4xx_hal_i2c.c:7331:55
	ldr	r0, [sp, #4]
.Ltmp127:
	.loc	7 7331 11                       @ ../Library/STM32F4xx_HAL_Driver/Src/stm32f4xx_hal_i2c.c:7331:11
	cbnz	r0, .LBB8_10
	b	.LBB8_7
.LBB8_7:
.Ltmp128:
	.loc	7 7333 9 is_stmt 1              @ ../Library/STM32F4xx_HAL_Driver/Src/stm32f4xx_hal_i2c.c:7333:9
	ldr	r1, [sp, #8]
	movs	r0, #0
	.loc	7 7333 35 is_stmt 0             @ ../Library/STM32F4xx_HAL_Driver/Src/stm32f4xx_hal_i2c.c:7333:35
	str	r0, [r1, #48]
	.loc	7 7334 9 is_stmt 1              @ ../Library/STM32F4xx_HAL_Driver/Src/stm32f4xx_hal_i2c.c:7334:9
	ldr	r2, [sp, #8]
	movs	r1, #32
	.loc	7 7334 35 is_stmt 0             @ ../Library/STM32F4xx_HAL_Driver/Src/stm32f4xx_hal_i2c.c:7334:35
	strb.w	r1, [r2, #61]
	.loc	7 7335 9 is_stmt 1              @ ../Library/STM32F4xx_HAL_Driver/Src/stm32f4xx_hal_i2c.c:7335:9
	ldr	r1, [sp, #8]
	.loc	7 7335 35 is_stmt 0             @ ../Library/STM32F4xx_HAL_Driver/Src/stm32f4xx_hal_i2c.c:7335:35
	strb.w	r0, [r1, #62]
	.loc	7 7336 9 is_stmt 1              @ ../Library/STM32F4xx_HAL_Driver/Src/stm32f4xx_hal_i2c.c:7336:9
	ldr	r1, [sp, #8]
	.loc	7 7336 35 is_stmt 0             @ ../Library/STM32F4xx_HAL_Driver/Src/stm32f4xx_hal_i2c.c:7336:35
	ldr	r0, [r1, #64]
	orr	r0, r0, #32
	str	r0, [r1, #64]
	.loc	7 7339 9 is_stmt 1              @ ../Library/STM32F4xx_HAL_Driver/Src/stm32f4xx_hal_i2c.c:7339:9
	b	.LBB8_8
.LBB8_8:
.Ltmp129:
	.loc	7 7339 9 is_stmt 0              @ ../Library/STM32F4xx_HAL_Driver/Src/stm32f4xx_hal_i2c.c:7339:9
	ldr	r1, [sp, #8]
	movs	r0, #0
	strb.w	r0, [r1, #60]
	b	.LBB8_9
.Ltmp130:
.LBB8_9:
	.loc	7 0 9                           @ ../Library/STM32F4xx_HAL_Driver/Src/stm32f4xx_hal_i2c.c:0:9
	movs	r0, #1
	.loc	7 7341 9 is_stmt 1              @ ../Library/STM32F4xx_HAL_Driver/Src/stm32f4xx_hal_i2c.c:7341:9
	strb.w	r0, [sp, #15]
	b	.LBB8_13
.Ltmp131:
.LBB8_10:                               @   in Loop: Header=BB8_1 Depth=1
	.loc	7 7343 5                        @ ../Library/STM32F4xx_HAL_Driver/Src/stm32f4xx_hal_i2c.c:7343:5
	b	.LBB8_11
.Ltmp132:
.LBB8_11:                               @   in Loop: Header=BB8_1 Depth=1
	.loc	7 7320 3                        @ ../Library/STM32F4xx_HAL_Driver/Src/stm32f4xx_hal_i2c.c:7320:3
	b	.LBB8_1
.LBB8_12:
	.loc	7 0 3 is_stmt 0                 @ ../Library/STM32F4xx_HAL_Driver/Src/stm32f4xx_hal_i2c.c:0:3
	movs	r0, #0
	.loc	7 7345 3 is_stmt 1              @ ../Library/STM32F4xx_HAL_Driver/Src/stm32f4xx_hal_i2c.c:7345:3
	strb.w	r0, [sp, #15]
	b	.LBB8_13
.LBB8_13:
	.loc	7 7346 1                        @ ../Library/STM32F4xx_HAL_Driver/Src/stm32f4xx_hal_i2c.c:7346:1
	ldrb.w	r0, [sp, #15]
	add	sp, #16
	pop	{r7, pc}
.Ltmp133:
.Lfunc_end8:
	.size	I2C_WaitOnBTFFlagUntilTimeout, .Lfunc_end8-I2C_WaitOnBTFFlagUntilTimeout
	.cfi_endproc
	.cantunwind
	.fnend
                                        @ -- End function
	.section	.text.HAL_I2C_Master_Receive,"ax",%progbits
	.hidden	HAL_I2C_Master_Receive          @ -- Begin function HAL_I2C_Master_Receive
	.globl	HAL_I2C_Master_Receive
	.p2align	2
	.type	HAL_I2C_Master_Receive,%function
	.code	16                              @ @HAL_I2C_Master_Receive
	.thumb_func
HAL_I2C_Master_Receive:
.Lfunc_begin9:
	.loc	7 1154 0                        @ ../Library/STM32F4xx_HAL_Driver/Src/stm32f4xx_hal_i2c.c:1154:0
	.fnstart
	.cfi_startproc
@ %bb.0:
	.save	{r7, lr}
	push	{r7, lr}
	.cfi_def_cfa_offset 8
	.cfi_offset lr, -4
	.cfi_offset r7, -8
	.pad	#48
	sub	sp, #48
	.cfi_def_cfa_offset 56
	ldr.w	r12, [sp, #56]
                                        @ kill: def $r12 killed $r3
                                        @ kill: def $r12 killed $r1
	str	r0, [sp, #40]
	strh.w	r1, [sp, #38]
	str	r2, [sp, #32]
	strh.w	r3, [sp, #30]
.Ltmp134:
	.loc	7 1156 24 prologue_end          @ ../Library/STM32F4xx_HAL_Driver/Src/stm32f4xx_hal_i2c.c:1156:24
	bl	HAL_GetTick
	.loc	7 1156 12 is_stmt 0             @ ../Library/STM32F4xx_HAL_Driver/Src/stm32f4xx_hal_i2c.c:1156:12
	str	r0, [sp, #24]
.Ltmp135:
	.loc	7 1158 7 is_stmt 1              @ ../Library/STM32F4xx_HAL_Driver/Src/stm32f4xx_hal_i2c.c:1158:7
	ldr	r0, [sp, #40]
	.loc	7 1158 13 is_stmt 0             @ ../Library/STM32F4xx_HAL_Driver/Src/stm32f4xx_hal_i2c.c:1158:13
	ldrb.w	r0, [r0, #61]
.Ltmp136:
	.loc	7 1158 7                        @ ../Library/STM32F4xx_HAL_Driver/Src/stm32f4xx_hal_i2c.c:1158:7
	cmp	r0, #32
	bne.w	.LBB9_56
	b	.LBB9_1
.LBB9_1:
.Ltmp137:
	.loc	7 1161 36 is_stmt 1             @ ../Library/STM32F4xx_HAL_Driver/Src/stm32f4xx_hal_i2c.c:1161:36
	ldr	r0, [sp, #40]
	.loc	7 1161 85 is_stmt 0             @ ../Library/STM32F4xx_HAL_Driver/Src/stm32f4xx_hal_i2c.c:1161:85
	ldr	r1, [sp, #24]
	.loc	7 1161 9                        @ ../Library/STM32F4xx_HAL_Driver/Src/stm32f4xx_hal_i2c.c:1161:9
	mov	r2, sp
	str	r1, [r2]
	movs	r1, #2
	movt	r1, #16
	movs	r2, #1
	movs	r3, #25
	bl	I2C_WaitOnFlagUntilTimeout
.Ltmp138:
	.loc	7 1161 9                        @ ../Library/STM32F4xx_HAL_Driver/Src/stm32f4xx_hal_i2c.c:1161:9
	cbz	r0, .LBB9_3
	b	.LBB9_2
.LBB9_2:
	.loc	7 0 9                           @ ../Library/STM32F4xx_HAL_Driver/Src/stm32f4xx_hal_i2c.c:0:9
	movs	r0, #2
.Ltmp139:
	.loc	7 1163 7 is_stmt 1              @ ../Library/STM32F4xx_HAL_Driver/Src/stm32f4xx_hal_i2c.c:1163:7
	strb.w	r0, [sp, #47]
	b	.LBB9_57
.Ltmp140:
.LBB9_3:
	.loc	7 1167 5                        @ ../Library/STM32F4xx_HAL_Driver/Src/stm32f4xx_hal_i2c.c:1167:5
	b	.LBB9_4
.LBB9_4:
.Ltmp141:
	.loc	7 1167 5 is_stmt 0              @ ../Library/STM32F4xx_HAL_Driver/Src/stm32f4xx_hal_i2c.c:1167:5
	ldr	r0, [sp, #40]
	ldrb.w	r0, [r0, #60]
.Ltmp142:
	.loc	7 1167 5                        @ ../Library/STM32F4xx_HAL_Driver/Src/stm32f4xx_hal_i2c.c:1167:5
	cmp	r0, #1
	bne	.LBB9_6
	b	.LBB9_5
.LBB9_5:
	.loc	7 0 5                           @ ../Library/STM32F4xx_HAL_Driver/Src/stm32f4xx_hal_i2c.c:0:5
	movs	r0, #2
.Ltmp143:
	.loc	7 1167 5                        @ ../Library/STM32F4xx_HAL_Driver/Src/stm32f4xx_hal_i2c.c:1167:5
	strb.w	r0, [sp, #47]
	b	.LBB9_57
.Ltmp144:
.LBB9_6:
	.loc	7 1167 5                        @ ../Library/STM32F4xx_HAL_Driver/Src/stm32f4xx_hal_i2c.c:1167:5
	ldr	r1, [sp, #40]
	movs	r0, #1
	strb.w	r0, [r1, #60]
	b	.LBB9_7
.Ltmp145:
.LBB9_7:
	.loc	7 1167 5                        @ ../Library/STM32F4xx_HAL_Driver/Src/stm32f4xx_hal_i2c.c:1167:5
	b	.LBB9_8
.Ltmp146:
.LBB9_8:
	.loc	7 1170 10 is_stmt 1             @ ../Library/STM32F4xx_HAL_Driver/Src/stm32f4xx_hal_i2c.c:1170:10
	ldr	r0, [sp, #40]
	.loc	7 1170 16 is_stmt 0             @ ../Library/STM32F4xx_HAL_Driver/Src/stm32f4xx_hal_i2c.c:1170:16
	ldr	r0, [r0]
	.loc	7 1170 26                       @ ../Library/STM32F4xx_HAL_Driver/Src/stm32f4xx_hal_i2c.c:1170:26
	ldr	r0, [r0]
.Ltmp147:
	.loc	7 1170 9                        @ ../Library/STM32F4xx_HAL_Driver/Src/stm32f4xx_hal_i2c.c:1170:9
	lsls	r0, r0, #31
	cbnz	r0, .LBB9_10
	b	.LBB9_9
.LBB9_9:
.Ltmp148:
	.loc	7 1173 7 is_stmt 1              @ ../Library/STM32F4xx_HAL_Driver/Src/stm32f4xx_hal_i2c.c:1173:7
	ldr	r0, [sp, #40]
	ldr	r1, [r0]
	ldr	r0, [r1]
	orr	r0, r0, #1
	str	r0, [r1]
	.loc	7 1174 5                        @ ../Library/STM32F4xx_HAL_Driver/Src/stm32f4xx_hal_i2c.c:1174:5
	b	.LBB9_10
.Ltmp149:
.LBB9_10:
	.loc	7 1177 5                        @ ../Library/STM32F4xx_HAL_Driver/Src/stm32f4xx_hal_i2c.c:1177:5
	ldr	r0, [sp, #40]
	ldr	r1, [r0]
	ldr	r0, [r1]
	bic	r0, r0, #2048
	str	r0, [r1]
	.loc	7 1179 5                        @ ../Library/STM32F4xx_HAL_Driver/Src/stm32f4xx_hal_i2c.c:1179:5
	ldr	r1, [sp, #40]
	movs	r0, #34
	.loc	7 1179 23 is_stmt 0             @ ../Library/STM32F4xx_HAL_Driver/Src/stm32f4xx_hal_i2c.c:1179:23
	strb.w	r0, [r1, #61]
	.loc	7 1180 5 is_stmt 1              @ ../Library/STM32F4xx_HAL_Driver/Src/stm32f4xx_hal_i2c.c:1180:5
	ldr	r1, [sp, #40]
	movs	r0, #16
	.loc	7 1180 23 is_stmt 0             @ ../Library/STM32F4xx_HAL_Driver/Src/stm32f4xx_hal_i2c.c:1180:23
	strb.w	r0, [r1, #62]
	.loc	7 1181 5 is_stmt 1              @ ../Library/STM32F4xx_HAL_Driver/Src/stm32f4xx_hal_i2c.c:1181:5
	ldr	r1, [sp, #40]
	movs	r0, #0
	.loc	7 1181 23 is_stmt 0             @ ../Library/STM32F4xx_HAL_Driver/Src/stm32f4xx_hal_i2c.c:1181:23
	str	r0, [r1, #64]
	.loc	7 1184 25 is_stmt 1             @ ../Library/STM32F4xx_HAL_Driver/Src/stm32f4xx_hal_i2c.c:1184:25
	ldr	r0, [sp, #32]
	.loc	7 1184 5 is_stmt 0              @ ../Library/STM32F4xx_HAL_Driver/Src/stm32f4xx_hal_i2c.c:1184:5
	ldr	r1, [sp, #40]
	.loc	7 1184 23                       @ ../Library/STM32F4xx_HAL_Driver/Src/stm32f4xx_hal_i2c.c:1184:23
	str	r0, [r1, #36]
	.loc	7 1185 25 is_stmt 1             @ ../Library/STM32F4xx_HAL_Driver/Src/stm32f4xx_hal_i2c.c:1185:25
	ldrh.w	r0, [sp, #30]
	.loc	7 1185 5 is_stmt 0              @ ../Library/STM32F4xx_HAL_Driver/Src/stm32f4xx_hal_i2c.c:1185:5
	ldr	r1, [sp, #40]
	.loc	7 1185 23                       @ ../Library/STM32F4xx_HAL_Driver/Src/stm32f4xx_hal_i2c.c:1185:23
	strh	r0, [r1, #42]
	.loc	7 1186 25 is_stmt 1             @ ../Library/STM32F4xx_HAL_Driver/Src/stm32f4xx_hal_i2c.c:1186:25
	ldr	r0, [sp, #40]
	.loc	7 1186 31 is_stmt 0             @ ../Library/STM32F4xx_HAL_Driver/Src/stm32f4xx_hal_i2c.c:1186:31
	ldrh	r0, [r0, #42]
	.loc	7 1186 5                        @ ../Library/STM32F4xx_HAL_Driver/Src/stm32f4xx_hal_i2c.c:1186:5
	ldr	r1, [sp, #40]
	.loc	7 1186 23                       @ ../Library/STM32F4xx_HAL_Driver/Src/stm32f4xx_hal_i2c.c:1186:23
	strh	r0, [r1, #40]
	.loc	7 1187 5 is_stmt 1              @ ../Library/STM32F4xx_HAL_Driver/Src/stm32f4xx_hal_i2c.c:1187:5
	ldr	r1, [sp, #40]
	movs	r0, #0
	movt	r0, #65535
	.loc	7 1187 23 is_stmt 0             @ ../Library/STM32F4xx_HAL_Driver/Src/stm32f4xx_hal_i2c.c:1187:23
	str	r0, [r1, #44]
.Ltmp150:
	.loc	7 1190 31 is_stmt 1             @ ../Library/STM32F4xx_HAL_Driver/Src/stm32f4xx_hal_i2c.c:1190:31
	ldr	r0, [sp, #40]
	.loc	7 1190 37 is_stmt 0             @ ../Library/STM32F4xx_HAL_Driver/Src/stm32f4xx_hal_i2c.c:1190:37
	ldrh.w	r1, [sp, #38]
	.loc	7 1190 49                       @ ../Library/STM32F4xx_HAL_Driver/Src/stm32f4xx_hal_i2c.c:1190:49
	ldr	r2, [sp, #56]
	.loc	7 1190 58                       @ ../Library/STM32F4xx_HAL_Driver/Src/stm32f4xx_hal_i2c.c:1190:58
	ldr	r3, [sp, #24]
	.loc	7 1190 9                        @ ../Library/STM32F4xx_HAL_Driver/Src/stm32f4xx_hal_i2c.c:1190:9
	bl	I2C_MasterRequestRead
.Ltmp151:
	.loc	7 1190 9                        @ ../Library/STM32F4xx_HAL_Driver/Src/stm32f4xx_hal_i2c.c:1190:9
	cbz	r0, .LBB9_12
	b	.LBB9_11
.LBB9_11:
	.loc	7 0 9                           @ ../Library/STM32F4xx_HAL_Driver/Src/stm32f4xx_hal_i2c.c:0:9
	movs	r0, #1
.Ltmp152:
	.loc	7 1192 7 is_stmt 1              @ ../Library/STM32F4xx_HAL_Driver/Src/stm32f4xx_hal_i2c.c:1192:7
	strb.w	r0, [sp, #47]
	b	.LBB9_57
.Ltmp153:
.LBB9_12:
	.loc	7 1195 9                        @ ../Library/STM32F4xx_HAL_Driver/Src/stm32f4xx_hal_i2c.c:1195:9
	ldr	r0, [sp, #40]
	.loc	7 1195 15 is_stmt 0             @ ../Library/STM32F4xx_HAL_Driver/Src/stm32f4xx_hal_i2c.c:1195:15
	ldrh	r0, [r0, #40]
.Ltmp154:
	.loc	7 1195 9                        @ ../Library/STM32F4xx_HAL_Driver/Src/stm32f4xx_hal_i2c.c:1195:9
	cbnz	r0, .LBB9_16
	b	.LBB9_13
.LBB9_13:
.Ltmp155:
	.loc	7 1198 7 is_stmt 1              @ ../Library/STM32F4xx_HAL_Driver/Src/stm32f4xx_hal_i2c.c:1198:7
	b	.LBB9_14
.LBB9_14:
	.loc	7 0 7 is_stmt 0                 @ ../Library/STM32F4xx_HAL_Driver/Src/stm32f4xx_hal_i2c.c:0:7
	movs	r0, #0
.Ltmp156:
	.loc	7 1198 7                        @ ../Library/STM32F4xx_HAL_Driver/Src/stm32f4xx_hal_i2c.c:1198:7
	str	r0, [sp, #20]
	ldr	r0, [sp, #40]
	ldr	r0, [r0]
	ldr	r0, [r0, #20]
	str	r0, [sp, #20]
	ldr	r0, [sp, #40]
	ldr	r0, [r0]
	ldr	r0, [r0, #24]
	str	r0, [sp, #20]
	ldr	r0, [sp, #20]
	b	.LBB9_15
.Ltmp157:
.LBB9_15:
	.loc	7 1201 7 is_stmt 1              @ ../Library/STM32F4xx_HAL_Driver/Src/stm32f4xx_hal_i2c.c:1201:7
	ldr	r0, [sp, #40]
	ldr	r1, [r0]
	ldr	r0, [r1]
	orr	r0, r0, #512
	str	r0, [r1]
	.loc	7 1202 5                        @ ../Library/STM32F4xx_HAL_Driver/Src/stm32f4xx_hal_i2c.c:1202:5
	b	.LBB9_29
.Ltmp158:
.LBB9_16:
	.loc	7 1203 14                       @ ../Library/STM32F4xx_HAL_Driver/Src/stm32f4xx_hal_i2c.c:1203:14
	ldr	r0, [sp, #40]
	.loc	7 1203 20 is_stmt 0             @ ../Library/STM32F4xx_HAL_Driver/Src/stm32f4xx_hal_i2c.c:1203:20
	ldrh	r0, [r0, #40]
.Ltmp159:
	.loc	7 1203 14                       @ ../Library/STM32F4xx_HAL_Driver/Src/stm32f4xx_hal_i2c.c:1203:14
	cmp	r0, #1
	bne	.LBB9_20
	b	.LBB9_17
.LBB9_17:
.Ltmp160:
	.loc	7 1206 7 is_stmt 1              @ ../Library/STM32F4xx_HAL_Driver/Src/stm32f4xx_hal_i2c.c:1206:7
	ldr	r0, [sp, #40]
	ldr	r1, [r0]
	ldr	r0, [r1]
	bic	r0, r0, #1024
	str	r0, [r1]
	.loc	7 1209 7                        @ ../Library/STM32F4xx_HAL_Driver/Src/stm32f4xx_hal_i2c.c:1209:7
	b	.LBB9_18
.LBB9_18:
	.loc	7 0 7 is_stmt 0                 @ ../Library/STM32F4xx_HAL_Driver/Src/stm32f4xx_hal_i2c.c:0:7
	movs	r0, #0
.Ltmp161:
	.loc	7 1209 7                        @ ../Library/STM32F4xx_HAL_Driver/Src/stm32f4xx_hal_i2c.c:1209:7
	str	r0, [sp, #16]
	ldr	r0, [sp, #40]
	ldr	r0, [r0]
	ldr	r0, [r0, #20]
	str	r0, [sp, #16]
	ldr	r0, [sp, #40]
	ldr	r0, [r0]
	ldr	r0, [r0, #24]
	str	r0, [sp, #16]
	ldr	r0, [sp, #16]
	b	.LBB9_19
.Ltmp162:
.LBB9_19:
	.loc	7 1212 7 is_stmt 1              @ ../Library/STM32F4xx_HAL_Driver/Src/stm32f4xx_hal_i2c.c:1212:7
	ldr	r0, [sp, #40]
	ldr	r1, [r0]
	ldr	r0, [r1]
	orr	r0, r0, #512
	str	r0, [r1]
	.loc	7 1213 5                        @ ../Library/STM32F4xx_HAL_Driver/Src/stm32f4xx_hal_i2c.c:1213:5
	b	.LBB9_28
.Ltmp163:
.LBB9_20:
	.loc	7 1214 14                       @ ../Library/STM32F4xx_HAL_Driver/Src/stm32f4xx_hal_i2c.c:1214:14
	ldr	r0, [sp, #40]
	.loc	7 1214 20 is_stmt 0             @ ../Library/STM32F4xx_HAL_Driver/Src/stm32f4xx_hal_i2c.c:1214:20
	ldrh	r0, [r0, #40]
.Ltmp164:
	.loc	7 1214 14                       @ ../Library/STM32F4xx_HAL_Driver/Src/stm32f4xx_hal_i2c.c:1214:14
	cmp	r0, #2
	bne	.LBB9_24
	b	.LBB9_21
.LBB9_21:
.Ltmp165:
	.loc	7 1217 7 is_stmt 1              @ ../Library/STM32F4xx_HAL_Driver/Src/stm32f4xx_hal_i2c.c:1217:7
	ldr	r0, [sp, #40]
	ldr	r1, [r0]
	ldr	r0, [r1]
	bic	r0, r0, #1024
	str	r0, [r1]
	.loc	7 1220 7                        @ ../Library/STM32F4xx_HAL_Driver/Src/stm32f4xx_hal_i2c.c:1220:7
	ldr	r0, [sp, #40]
	ldr	r1, [r0]
	ldr	r0, [r1]
	orr	r0, r0, #2048
	str	r0, [r1]
	.loc	7 1223 7                        @ ../Library/STM32F4xx_HAL_Driver/Src/stm32f4xx_hal_i2c.c:1223:7
	b	.LBB9_22
.LBB9_22:
	.loc	7 0 7 is_stmt 0                 @ ../Library/STM32F4xx_HAL_Driver/Src/stm32f4xx_hal_i2c.c:0:7
	movs	r0, #0
.Ltmp166:
	.loc	7 1223 7                        @ ../Library/STM32F4xx_HAL_Driver/Src/stm32f4xx_hal_i2c.c:1223:7
	str	r0, [sp, #12]
	ldr	r0, [sp, #40]
	ldr	r0, [r0]
	ldr	r0, [r0, #20]
	str	r0, [sp, #12]
	ldr	r0, [sp, #40]
	ldr	r0, [r0]
	ldr	r0, [r0, #24]
	str	r0, [sp, #12]
	ldr	r0, [sp, #12]
	b	.LBB9_23
.Ltmp167:
.LBB9_23:
	.loc	7 1224 5 is_stmt 1              @ ../Library/STM32F4xx_HAL_Driver/Src/stm32f4xx_hal_i2c.c:1224:5
	b	.LBB9_27
.Ltmp168:
.LBB9_24:
	.loc	7 1228 7                        @ ../Library/STM32F4xx_HAL_Driver/Src/stm32f4xx_hal_i2c.c:1228:7
	ldr	r0, [sp, #40]
	ldr	r1, [r0]
	ldr	r0, [r1]
	orr	r0, r0, #1024
	str	r0, [r1]
	.loc	7 1231 7                        @ ../Library/STM32F4xx_HAL_Driver/Src/stm32f4xx_hal_i2c.c:1231:7
	b	.LBB9_25
.LBB9_25:
	.loc	7 0 7 is_stmt 0                 @ ../Library/STM32F4xx_HAL_Driver/Src/stm32f4xx_hal_i2c.c:0:7
	movs	r0, #0
.Ltmp169:
	.loc	7 1231 7                        @ ../Library/STM32F4xx_HAL_Driver/Src/stm32f4xx_hal_i2c.c:1231:7
	str	r0, [sp, #8]
	ldr	r0, [sp, #40]
	ldr	r0, [r0]
	ldr	r0, [r0, #20]
	str	r0, [sp, #8]
	ldr	r0, [sp, #40]
	ldr	r0, [r0]
	ldr	r0, [r0, #24]
	str	r0, [sp, #8]
	ldr	r0, [sp, #8]
	b	.LBB9_26
.Ltmp170:
.LBB9_26:
	.loc	7 0 7                           @ ../Library/STM32F4xx_HAL_Driver/Src/stm32f4xx_hal_i2c.c:0:7
	b	.LBB9_27
.LBB9_27:
	b	.LBB9_28
.LBB9_28:
	b	.LBB9_29
.LBB9_29:
	.loc	7 1234 5 is_stmt 1              @ ../Library/STM32F4xx_HAL_Driver/Src/stm32f4xx_hal_i2c.c:1234:5
	b	.LBB9_30
.LBB9_30:                               @ =>This Inner Loop Header: Depth=1
	.loc	7 1234 12 is_stmt 0             @ ../Library/STM32F4xx_HAL_Driver/Src/stm32f4xx_hal_i2c.c:1234:12
	ldr	r0, [sp, #40]
	.loc	7 1234 18                       @ ../Library/STM32F4xx_HAL_Driver/Src/stm32f4xx_hal_i2c.c:1234:18
	ldrh	r0, [r0, #40]
	.loc	7 1234 5                        @ ../Library/STM32F4xx_HAL_Driver/Src/stm32f4xx_hal_i2c.c:1234:5
	cmp	r0, #0
	beq.w	.LBB9_53
	b	.LBB9_31
.LBB9_31:                               @   in Loop: Header=BB9_30 Depth=1
.Ltmp171:
	.loc	7 1236 11 is_stmt 1             @ ../Library/STM32F4xx_HAL_Driver/Src/stm32f4xx_hal_i2c.c:1236:11
	ldr	r0, [sp, #40]
	.loc	7 1236 17 is_stmt 0             @ ../Library/STM32F4xx_HAL_Driver/Src/stm32f4xx_hal_i2c.c:1236:17
	ldrh	r0, [r0, #40]
.Ltmp172:
	.loc	7 1236 11                       @ ../Library/STM32F4xx_HAL_Driver/Src/stm32f4xx_hal_i2c.c:1236:11
	cmp	r0, #3
	bhi.w	.LBB9_47
	b	.LBB9_32
.LBB9_32:                               @   in Loop: Header=BB9_30 Depth=1
.Ltmp173:
	.loc	7 1239 13 is_stmt 1             @ ../Library/STM32F4xx_HAL_Driver/Src/stm32f4xx_hal_i2c.c:1239:13
	ldr	r0, [sp, #40]
	.loc	7 1239 19 is_stmt 0             @ ../Library/STM32F4xx_HAL_Driver/Src/stm32f4xx_hal_i2c.c:1239:19
	ldrh	r0, [r0, #40]
.Ltmp174:
	.loc	7 1239 13                       @ ../Library/STM32F4xx_HAL_Driver/Src/stm32f4xx_hal_i2c.c:1239:13
	cmp	r0, #1
	bne	.LBB9_36
	b	.LBB9_33
.LBB9_33:                               @   in Loop: Header=BB9_30 Depth=1
.Ltmp175:
	.loc	7 1242 46 is_stmt 1             @ ../Library/STM32F4xx_HAL_Driver/Src/stm32f4xx_hal_i2c.c:1242:46
	ldr	r0, [sp, #40]
	.loc	7 1242 52 is_stmt 0             @ ../Library/STM32F4xx_HAL_Driver/Src/stm32f4xx_hal_i2c.c:1242:52
	ldr	r1, [sp, #56]
	.loc	7 1242 61                       @ ../Library/STM32F4xx_HAL_Driver/Src/stm32f4xx_hal_i2c.c:1242:61
	ldr	r2, [sp, #24]
	.loc	7 1242 15                       @ ../Library/STM32F4xx_HAL_Driver/Src/stm32f4xx_hal_i2c.c:1242:15
	bl	I2C_WaitOnRXNEFlagUntilTimeout
.Ltmp176:
	.loc	7 1242 15                       @ ../Library/STM32F4xx_HAL_Driver/Src/stm32f4xx_hal_i2c.c:1242:15
	cbz	r0, .LBB9_35
	b	.LBB9_34
.LBB9_34:
	.loc	7 0 15                          @ ../Library/STM32F4xx_HAL_Driver/Src/stm32f4xx_hal_i2c.c:0:15
	movs	r0, #1
.Ltmp177:
	.loc	7 1244 13 is_stmt 1             @ ../Library/STM32F4xx_HAL_Driver/Src/stm32f4xx_hal_i2c.c:1244:13
	strb.w	r0, [sp, #47]
	b	.LBB9_57
.Ltmp178:
.LBB9_35:                               @   in Loop: Header=BB9_30 Depth=1
	.loc	7 1248 38                       @ ../Library/STM32F4xx_HAL_Driver/Src/stm32f4xx_hal_i2c.c:1248:38
	ldr	r0, [sp, #40]
	.loc	7 1248 44 is_stmt 0             @ ../Library/STM32F4xx_HAL_Driver/Src/stm32f4xx_hal_i2c.c:1248:44
	ldr	r0, [r0]
	.loc	7 1248 54                       @ ../Library/STM32F4xx_HAL_Driver/Src/stm32f4xx_hal_i2c.c:1248:54
	ldr	r0, [r0, #16]
	.loc	7 1248 12                       @ ../Library/STM32F4xx_HAL_Driver/Src/stm32f4xx_hal_i2c.c:1248:12
	ldr	r1, [sp, #40]
	.loc	7 1248 18                       @ ../Library/STM32F4xx_HAL_Driver/Src/stm32f4xx_hal_i2c.c:1248:18
	ldr	r1, [r1, #36]
	.loc	7 1248 27                       @ ../Library/STM32F4xx_HAL_Driver/Src/stm32f4xx_hal_i2c.c:1248:27
	strb	r0, [r1]
	.loc	7 1251 11 is_stmt 1             @ ../Library/STM32F4xx_HAL_Driver/Src/stm32f4xx_hal_i2c.c:1251:11
	ldr	r1, [sp, #40]
	.loc	7 1251 25 is_stmt 0             @ ../Library/STM32F4xx_HAL_Driver/Src/stm32f4xx_hal_i2c.c:1251:25
	ldr	r0, [r1, #36]
	adds	r0, #1
	str	r0, [r1, #36]
	.loc	7 1254 11 is_stmt 1             @ ../Library/STM32F4xx_HAL_Driver/Src/stm32f4xx_hal_i2c.c:1254:11
	ldr	r1, [sp, #40]
	.loc	7 1254 25 is_stmt 0             @ ../Library/STM32F4xx_HAL_Driver/Src/stm32f4xx_hal_i2c.c:1254:25
	ldrh	r0, [r1, #40]
	subs	r0, #1
	strh	r0, [r1, #40]
	.loc	7 1255 11 is_stmt 1             @ ../Library/STM32F4xx_HAL_Driver/Src/stm32f4xx_hal_i2c.c:1255:11
	ldr	r1, [sp, #40]
	.loc	7 1255 26 is_stmt 0             @ ../Library/STM32F4xx_HAL_Driver/Src/stm32f4xx_hal_i2c.c:1255:26
	ldrh	r0, [r1, #42]
	subs	r0, #1
	strh	r0, [r1, #42]
	.loc	7 1256 9 is_stmt 1              @ ../Library/STM32F4xx_HAL_Driver/Src/stm32f4xx_hal_i2c.c:1256:9
	b	.LBB9_46
.Ltmp179:
.LBB9_36:                               @   in Loop: Header=BB9_30 Depth=1
	.loc	7 1258 18                       @ ../Library/STM32F4xx_HAL_Driver/Src/stm32f4xx_hal_i2c.c:1258:18
	ldr	r0, [sp, #40]
	.loc	7 1258 24 is_stmt 0             @ ../Library/STM32F4xx_HAL_Driver/Src/stm32f4xx_hal_i2c.c:1258:24
	ldrh	r0, [r0, #40]
.Ltmp180:
	.loc	7 1258 18                       @ ../Library/STM32F4xx_HAL_Driver/Src/stm32f4xx_hal_i2c.c:1258:18
	cmp	r0, #2
	bne	.LBB9_40
	b	.LBB9_37
.LBB9_37:                               @   in Loop: Header=BB9_30 Depth=1
.Ltmp181:
	.loc	7 1261 42 is_stmt 1             @ ../Library/STM32F4xx_HAL_Driver/Src/stm32f4xx_hal_i2c.c:1261:42
	ldr	r0, [sp, #40]
	.loc	7 1261 69 is_stmt 0             @ ../Library/STM32F4xx_HAL_Driver/Src/stm32f4xx_hal_i2c.c:1261:69
	ldr	r3, [sp, #56]
	.loc	7 1261 78                       @ ../Library/STM32F4xx_HAL_Driver/Src/stm32f4xx_hal_i2c.c:1261:78
	ldr	r1, [sp, #24]
	.loc	7 1261 15                       @ ../Library/STM32F4xx_HAL_Driver/Src/stm32f4xx_hal_i2c.c:1261:15
	mov	r2, sp
	str	r1, [r2]
	movs	r1, #4
	movt	r1, #1
	movs	r2, #0
	bl	I2C_WaitOnFlagUntilTimeout
.Ltmp182:
	.loc	7 1261 15                       @ ../Library/STM32F4xx_HAL_Driver/Src/stm32f4xx_hal_i2c.c:1261:15
	cbz	r0, .LBB9_39
	b	.LBB9_38
.LBB9_38:
	.loc	7 0 15                          @ ../Library/STM32F4xx_HAL_Driver/Src/stm32f4xx_hal_i2c.c:0:15
	movs	r0, #1
.Ltmp183:
	.loc	7 1263 13 is_stmt 1             @ ../Library/STM32F4xx_HAL_Driver/Src/stm32f4xx_hal_i2c.c:1263:13
	strb.w	r0, [sp, #47]
	b	.LBB9_57
.Ltmp184:
.LBB9_39:                               @   in Loop: Header=BB9_30 Depth=1
	.loc	7 1267 11                       @ ../Library/STM32F4xx_HAL_Driver/Src/stm32f4xx_hal_i2c.c:1267:11
	ldr	r0, [sp, #40]
	ldr	r1, [r0]
	ldr	r0, [r1]
	orr	r0, r0, #512
	str	r0, [r1]
	.loc	7 1270 38                       @ ../Library/STM32F4xx_HAL_Driver/Src/stm32f4xx_hal_i2c.c:1270:38
	ldr	r0, [sp, #40]
	.loc	7 1270 44 is_stmt 0             @ ../Library/STM32F4xx_HAL_Driver/Src/stm32f4xx_hal_i2c.c:1270:44
	ldr	r0, [r0]
	.loc	7 1270 54                       @ ../Library/STM32F4xx_HAL_Driver/Src/stm32f4xx_hal_i2c.c:1270:54
	ldr	r0, [r0, #16]
	.loc	7 1270 12                       @ ../Library/STM32F4xx_HAL_Driver/Src/stm32f4xx_hal_i2c.c:1270:12
	ldr	r1, [sp, #40]
	.loc	7 1270 18                       @ ../Library/STM32F4xx_HAL_Driver/Src/stm32f4xx_hal_i2c.c:1270:18
	ldr	r1, [r1, #36]
	.loc	7 1270 27                       @ ../Library/STM32F4xx_HAL_Driver/Src/stm32f4xx_hal_i2c.c:1270:27
	strb	r0, [r1]
	.loc	7 1273 11 is_stmt 1             @ ../Library/STM32F4xx_HAL_Driver/Src/stm32f4xx_hal_i2c.c:1273:11
	ldr	r1, [sp, #40]
	.loc	7 1273 25 is_stmt 0             @ ../Library/STM32F4xx_HAL_Driver/Src/stm32f4xx_hal_i2c.c:1273:25
	ldr	r0, [r1, #36]
	adds	r0, #1
	str	r0, [r1, #36]
	.loc	7 1276 11 is_stmt 1             @ ../Library/STM32F4xx_HAL_Driver/Src/stm32f4xx_hal_i2c.c:1276:11
	ldr	r1, [sp, #40]
	.loc	7 1276 25 is_stmt 0             @ ../Library/STM32F4xx_HAL_Driver/Src/stm32f4xx_hal_i2c.c:1276:25
	ldrh	r0, [r1, #40]
	subs	r0, #1
	strh	r0, [r1, #40]
	.loc	7 1277 11 is_stmt 1             @ ../Library/STM32F4xx_HAL_Driver/Src/stm32f4xx_hal_i2c.c:1277:11
	ldr	r1, [sp, #40]
	.loc	7 1277 26 is_stmt 0             @ ../Library/STM32F4xx_HAL_Driver/Src/stm32f4xx_hal_i2c.c:1277:26
	ldrh	r0, [r1, #42]
	subs	r0, #1
	strh	r0, [r1, #42]
	.loc	7 1280 38 is_stmt 1             @ ../Library/STM32F4xx_HAL_Driver/Src/stm32f4xx_hal_i2c.c:1280:38
	ldr	r0, [sp, #40]
	.loc	7 1280 44 is_stmt 0             @ ../Library/STM32F4xx_HAL_Driver/Src/stm32f4xx_hal_i2c.c:1280:44
	ldr	r0, [r0]
	.loc	7 1280 54                       @ ../Library/STM32F4xx_HAL_Driver/Src/stm32f4xx_hal_i2c.c:1280:54
	ldr	r0, [r0, #16]
	.loc	7 1280 12                       @ ../Library/STM32F4xx_HAL_Driver/Src/stm32f4xx_hal_i2c.c:1280:12
	ldr	r1, [sp, #40]
	.loc	7 1280 18                       @ ../Library/STM32F4xx_HAL_Driver/Src/stm32f4xx_hal_i2c.c:1280:18
	ldr	r1, [r1, #36]
	.loc	7 1280 27                       @ ../Library/STM32F4xx_HAL_Driver/Src/stm32f4xx_hal_i2c.c:1280:27
	strb	r0, [r1]
	.loc	7 1283 11 is_stmt 1             @ ../Library/STM32F4xx_HAL_Driver/Src/stm32f4xx_hal_i2c.c:1283:11
	ldr	r1, [sp, #40]
	.loc	7 1283 25 is_stmt 0             @ ../Library/STM32F4xx_HAL_Driver/Src/stm32f4xx_hal_i2c.c:1283:25
	ldr	r0, [r1, #36]
	adds	r0, #1
	str	r0, [r1, #36]
	.loc	7 1286 11 is_stmt 1             @ ../Library/STM32F4xx_HAL_Driver/Src/stm32f4xx_hal_i2c.c:1286:11
	ldr	r1, [sp, #40]
	.loc	7 1286 25 is_stmt 0             @ ../Library/STM32F4xx_HAL_Driver/Src/stm32f4xx_hal_i2c.c:1286:25
	ldrh	r0, [r1, #40]
	subs	r0, #1
	strh	r0, [r1, #40]
	.loc	7 1287 11 is_stmt 1             @ ../Library/STM32F4xx_HAL_Driver/Src/stm32f4xx_hal_i2c.c:1287:11
	ldr	r1, [sp, #40]
	.loc	7 1287 26 is_stmt 0             @ ../Library/STM32F4xx_HAL_Driver/Src/stm32f4xx_hal_i2c.c:1287:26
	ldrh	r0, [r1, #42]
	subs	r0, #1
	strh	r0, [r1, #42]
	.loc	7 1288 9 is_stmt 1              @ ../Library/STM32F4xx_HAL_Driver/Src/stm32f4xx_hal_i2c.c:1288:9
	b	.LBB9_45
.Ltmp185:
.LBB9_40:                               @   in Loop: Header=BB9_30 Depth=1
	.loc	7 1293 42                       @ ../Library/STM32F4xx_HAL_Driver/Src/stm32f4xx_hal_i2c.c:1293:42
	ldr	r0, [sp, #40]
	.loc	7 1293 69 is_stmt 0             @ ../Library/STM32F4xx_HAL_Driver/Src/stm32f4xx_hal_i2c.c:1293:69
	ldr	r3, [sp, #56]
	.loc	7 1293 78                       @ ../Library/STM32F4xx_HAL_Driver/Src/stm32f4xx_hal_i2c.c:1293:78
	ldr	r1, [sp, #24]
	.loc	7 1293 15                       @ ../Library/STM32F4xx_HAL_Driver/Src/stm32f4xx_hal_i2c.c:1293:15
	mov	r2, sp
	str	r1, [r2]
	movs	r1, #4
	movt	r1, #1
	movs	r2, #0
	bl	I2C_WaitOnFlagUntilTimeout
.Ltmp186:
	.loc	7 1293 15                       @ ../Library/STM32F4xx_HAL_Driver/Src/stm32f4xx_hal_i2c.c:1293:15
	cbz	r0, .LBB9_42
	b	.LBB9_41
.LBB9_41:
	.loc	7 0 15                          @ ../Library/STM32F4xx_HAL_Driver/Src/stm32f4xx_hal_i2c.c:0:15
	movs	r0, #1
.Ltmp187:
	.loc	7 1295 13 is_stmt 1             @ ../Library/STM32F4xx_HAL_Driver/Src/stm32f4xx_hal_i2c.c:1295:13
	strb.w	r0, [sp, #47]
	b	.LBB9_57
.Ltmp188:
.LBB9_42:                               @   in Loop: Header=BB9_30 Depth=1
	.loc	7 1299 11                       @ ../Library/STM32F4xx_HAL_Driver/Src/stm32f4xx_hal_i2c.c:1299:11
	ldr	r0, [sp, #40]
	ldr	r1, [r0]
	ldr	r0, [r1]
	bic	r0, r0, #1024
	str	r0, [r1]
	.loc	7 1302 38                       @ ../Library/STM32F4xx_HAL_Driver/Src/stm32f4xx_hal_i2c.c:1302:38
	ldr	r0, [sp, #40]
	.loc	7 1302 44 is_stmt 0             @ ../Library/STM32F4xx_HAL_Driver/Src/stm32f4xx_hal_i2c.c:1302:44
	ldr	r0, [r0]
	.loc	7 1302 54                       @ ../Library/STM32F4xx_HAL_Driver/Src/stm32f4xx_hal_i2c.c:1302:54
	ldr	r0, [r0, #16]
	.loc	7 1302 12                       @ ../Library/STM32F4xx_HAL_Driver/Src/stm32f4xx_hal_i2c.c:1302:12
	ldr	r1, [sp, #40]
	.loc	7 1302 18                       @ ../Library/STM32F4xx_HAL_Driver/Src/stm32f4xx_hal_i2c.c:1302:18
	ldr	r1, [r1, #36]
	.loc	7 1302 27                       @ ../Library/STM32F4xx_HAL_Driver/Src/stm32f4xx_hal_i2c.c:1302:27
	strb	r0, [r1]
	.loc	7 1305 11 is_stmt 1             @ ../Library/STM32F4xx_HAL_Driver/Src/stm32f4xx_hal_i2c.c:1305:11
	ldr	r1, [sp, #40]
	.loc	7 1305 25 is_stmt 0             @ ../Library/STM32F4xx_HAL_Driver/Src/stm32f4xx_hal_i2c.c:1305:25
	ldr	r0, [r1, #36]
	adds	r0, #1
	str	r0, [r1, #36]
	.loc	7 1308 11 is_stmt 1             @ ../Library/STM32F4xx_HAL_Driver/Src/stm32f4xx_hal_i2c.c:1308:11
	ldr	r1, [sp, #40]
	.loc	7 1308 25 is_stmt 0             @ ../Library/STM32F4xx_HAL_Driver/Src/stm32f4xx_hal_i2c.c:1308:25
	ldrh	r0, [r1, #40]
	subs	r0, #1
	strh	r0, [r1, #40]
	.loc	7 1309 11 is_stmt 1             @ ../Library/STM32F4xx_HAL_Driver/Src/stm32f4xx_hal_i2c.c:1309:11
	ldr	r1, [sp, #40]
	.loc	7 1309 26 is_stmt 0             @ ../Library/STM32F4xx_HAL_Driver/Src/stm32f4xx_hal_i2c.c:1309:26
	ldrh	r0, [r1, #42]
	subs	r0, #1
	strh	r0, [r1, #42]
.Ltmp189:
	.loc	7 1312 42 is_stmt 1             @ ../Library/STM32F4xx_HAL_Driver/Src/stm32f4xx_hal_i2c.c:1312:42
	ldr	r0, [sp, #40]
	.loc	7 1312 69 is_stmt 0             @ ../Library/STM32F4xx_HAL_Driver/Src/stm32f4xx_hal_i2c.c:1312:69
	ldr	r3, [sp, #56]
	.loc	7 1312 78                       @ ../Library/STM32F4xx_HAL_Driver/Src/stm32f4xx_hal_i2c.c:1312:78
	ldr	r1, [sp, #24]
	.loc	7 1312 15                       @ ../Library/STM32F4xx_HAL_Driver/Src/stm32f4xx_hal_i2c.c:1312:15
	mov	r2, sp
	str	r1, [r2]
	movs	r1, #4
	movt	r1, #1
	movs	r2, #0
	bl	I2C_WaitOnFlagUntilTimeout
.Ltmp190:
	.loc	7 1312 15                       @ ../Library/STM32F4xx_HAL_Driver/Src/stm32f4xx_hal_i2c.c:1312:15
	cbz	r0, .LBB9_44
	b	.LBB9_43
.LBB9_43:
	.loc	7 0 15                          @ ../Library/STM32F4xx_HAL_Driver/Src/stm32f4xx_hal_i2c.c:0:15
	movs	r0, #1
.Ltmp191:
	.loc	7 1314 13 is_stmt 1             @ ../Library/STM32F4xx_HAL_Driver/Src/stm32f4xx_hal_i2c.c:1314:13
	strb.w	r0, [sp, #47]
	b	.LBB9_57
.Ltmp192:
.LBB9_44:                               @   in Loop: Header=BB9_30 Depth=1
	.loc	7 1318 11                       @ ../Library/STM32F4xx_HAL_Driver/Src/stm32f4xx_hal_i2c.c:1318:11
	ldr	r0, [sp, #40]
	ldr	r1, [r0]
	ldr	r0, [r1]
	orr	r0, r0, #512
	str	r0, [r1]
	.loc	7 1321 38                       @ ../Library/STM32F4xx_HAL_Driver/Src/stm32f4xx_hal_i2c.c:1321:38
	ldr	r0, [sp, #40]
	.loc	7 1321 44 is_stmt 0             @ ../Library/STM32F4xx_HAL_Driver/Src/stm32f4xx_hal_i2c.c:1321:44
	ldr	r0, [r0]
	.loc	7 1321 54                       @ ../Library/STM32F4xx_HAL_Driver/Src/stm32f4xx_hal_i2c.c:1321:54
	ldr	r0, [r0, #16]
	.loc	7 1321 12                       @ ../Library/STM32F4xx_HAL_Driver/Src/stm32f4xx_hal_i2c.c:1321:12
	ldr	r1, [sp, #40]
	.loc	7 1321 18                       @ ../Library/STM32F4xx_HAL_Driver/Src/stm32f4xx_hal_i2c.c:1321:18
	ldr	r1, [r1, #36]
	.loc	7 1321 27                       @ ../Library/STM32F4xx_HAL_Driver/Src/stm32f4xx_hal_i2c.c:1321:27
	strb	r0, [r1]
	.loc	7 1324 11 is_stmt 1             @ ../Library/STM32F4xx_HAL_Driver/Src/stm32f4xx_hal_i2c.c:1324:11
	ldr	r1, [sp, #40]
	.loc	7 1324 25 is_stmt 0             @ ../Library/STM32F4xx_HAL_Driver/Src/stm32f4xx_hal_i2c.c:1324:25
	ldr	r0, [r1, #36]
	adds	r0, #1
	str	r0, [r1, #36]
	.loc	7 1327 11 is_stmt 1             @ ../Library/STM32F4xx_HAL_Driver/Src/stm32f4xx_hal_i2c.c:1327:11
	ldr	r1, [sp, #40]
	.loc	7 1327 25 is_stmt 0             @ ../Library/STM32F4xx_HAL_Driver/Src/stm32f4xx_hal_i2c.c:1327:25
	ldrh	r0, [r1, #40]
	subs	r0, #1
	strh	r0, [r1, #40]
	.loc	7 1328 11 is_stmt 1             @ ../Library/STM32F4xx_HAL_Driver/Src/stm32f4xx_hal_i2c.c:1328:11
	ldr	r1, [sp, #40]
	.loc	7 1328 26 is_stmt 0             @ ../Library/STM32F4xx_HAL_Driver/Src/stm32f4xx_hal_i2c.c:1328:26
	ldrh	r0, [r1, #42]
	subs	r0, #1
	strh	r0, [r1, #42]
	.loc	7 1331 38 is_stmt 1             @ ../Library/STM32F4xx_HAL_Driver/Src/stm32f4xx_hal_i2c.c:1331:38
	ldr	r0, [sp, #40]
	.loc	7 1331 44 is_stmt 0             @ ../Library/STM32F4xx_HAL_Driver/Src/stm32f4xx_hal_i2c.c:1331:44
	ldr	r0, [r0]
	.loc	7 1331 54                       @ ../Library/STM32F4xx_HAL_Driver/Src/stm32f4xx_hal_i2c.c:1331:54
	ldr	r0, [r0, #16]
	.loc	7 1331 12                       @ ../Library/STM32F4xx_HAL_Driver/Src/stm32f4xx_hal_i2c.c:1331:12
	ldr	r1, [sp, #40]
	.loc	7 1331 18                       @ ../Library/STM32F4xx_HAL_Driver/Src/stm32f4xx_hal_i2c.c:1331:18
	ldr	r1, [r1, #36]
	.loc	7 1331 27                       @ ../Library/STM32F4xx_HAL_Driver/Src/stm32f4xx_hal_i2c.c:1331:27
	strb	r0, [r1]
	.loc	7 1334 11 is_stmt 1             @ ../Library/STM32F4xx_HAL_Driver/Src/stm32f4xx_hal_i2c.c:1334:11
	ldr	r1, [sp, #40]
	.loc	7 1334 25 is_stmt 0             @ ../Library/STM32F4xx_HAL_Driver/Src/stm32f4xx_hal_i2c.c:1334:25
	ldr	r0, [r1, #36]
	adds	r0, #1
	str	r0, [r1, #36]
	.loc	7 1337 11 is_stmt 1             @ ../Library/STM32F4xx_HAL_Driver/Src/stm32f4xx_hal_i2c.c:1337:11
	ldr	r1, [sp, #40]
	.loc	7 1337 25 is_stmt 0             @ ../Library/STM32F4xx_HAL_Driver/Src/stm32f4xx_hal_i2c.c:1337:25
	ldrh	r0, [r1, #40]
	subs	r0, #1
	strh	r0, [r1, #40]
	.loc	7 1338 11 is_stmt 1             @ ../Library/STM32F4xx_HAL_Driver/Src/stm32f4xx_hal_i2c.c:1338:11
	ldr	r1, [sp, #40]
	.loc	7 1338 26 is_stmt 0             @ ../Library/STM32F4xx_HAL_Driver/Src/stm32f4xx_hal_i2c.c:1338:26
	ldrh	r0, [r1, #42]
	subs	r0, #1
	strh	r0, [r1, #42]
	b	.LBB9_45
.Ltmp193:
.LBB9_45:                               @   in Loop: Header=BB9_30 Depth=1
	.loc	7 0 26                          @ ../Library/STM32F4xx_HAL_Driver/Src/stm32f4xx_hal_i2c.c:0:26
	b	.LBB9_46
.LBB9_46:                               @   in Loop: Header=BB9_30 Depth=1
	.loc	7 1340 7 is_stmt 1              @ ../Library/STM32F4xx_HAL_Driver/Src/stm32f4xx_hal_i2c.c:1340:7
	b	.LBB9_52
.Ltmp194:
.LBB9_47:                               @   in Loop: Header=BB9_30 Depth=1
	.loc	7 1344 44                       @ ../Library/STM32F4xx_HAL_Driver/Src/stm32f4xx_hal_i2c.c:1344:44
	ldr	r0, [sp, #40]
	.loc	7 1344 50 is_stmt 0             @ ../Library/STM32F4xx_HAL_Driver/Src/stm32f4xx_hal_i2c.c:1344:50
	ldr	r1, [sp, #56]
	.loc	7 1344 59                       @ ../Library/STM32F4xx_HAL_Driver/Src/stm32f4xx_hal_i2c.c:1344:59
	ldr	r2, [sp, #24]
	.loc	7 1344 13                       @ ../Library/STM32F4xx_HAL_Driver/Src/stm32f4xx_hal_i2c.c:1344:13
	bl	I2C_WaitOnRXNEFlagUntilTimeout
.Ltmp195:
	.loc	7 1344 13                       @ ../Library/STM32F4xx_HAL_Driver/Src/stm32f4xx_hal_i2c.c:1344:13
	cbz	r0, .LBB9_49
	b	.LBB9_48
.LBB9_48:
	.loc	7 0 13                          @ ../Library/STM32F4xx_HAL_Driver/Src/stm32f4xx_hal_i2c.c:0:13
	movs	r0, #1
.Ltmp196:
	.loc	7 1346 11 is_stmt 1             @ ../Library/STM32F4xx_HAL_Driver/Src/stm32f4xx_hal_i2c.c:1346:11
	strb.w	r0, [sp, #47]
	b	.LBB9_57
.Ltmp197:
.LBB9_49:                               @   in Loop: Header=BB9_30 Depth=1
	.loc	7 1350 36                       @ ../Library/STM32F4xx_HAL_Driver/Src/stm32f4xx_hal_i2c.c:1350:36
	ldr	r0, [sp, #40]
	.loc	7 1350 42 is_stmt 0             @ ../Library/STM32F4xx_HAL_Driver/Src/stm32f4xx_hal_i2c.c:1350:42
	ldr	r0, [r0]
	.loc	7 1350 52                       @ ../Library/STM32F4xx_HAL_Driver/Src/stm32f4xx_hal_i2c.c:1350:52
	ldr	r0, [r0, #16]
	.loc	7 1350 10                       @ ../Library/STM32F4xx_HAL_Driver/Src/stm32f4xx_hal_i2c.c:1350:10
	ldr	r1, [sp, #40]
	.loc	7 1350 16                       @ ../Library/STM32F4xx_HAL_Driver/Src/stm32f4xx_hal_i2c.c:1350:16
	ldr	r1, [r1, #36]
	.loc	7 1350 25                       @ ../Library/STM32F4xx_HAL_Driver/Src/stm32f4xx_hal_i2c.c:1350:25
	strb	r0, [r1]
	.loc	7 1353 9 is_stmt 1              @ ../Library/STM32F4xx_HAL_Driver/Src/stm32f4xx_hal_i2c.c:1353:9
	ldr	r1, [sp, #40]
	.loc	7 1353 23 is_stmt 0             @ ../Library/STM32F4xx_HAL_Driver/Src/stm32f4xx_hal_i2c.c:1353:23
	ldr	r0, [r1, #36]
	adds	r0, #1
	str	r0, [r1, #36]
	.loc	7 1356 9 is_stmt 1              @ ../Library/STM32F4xx_HAL_Driver/Src/stm32f4xx_hal_i2c.c:1356:9
	ldr	r1, [sp, #40]
	.loc	7 1356 23 is_stmt 0             @ ../Library/STM32F4xx_HAL_Driver/Src/stm32f4xx_hal_i2c.c:1356:23
	ldrh	r0, [r1, #40]
	subs	r0, #1
	strh	r0, [r1, #40]
	.loc	7 1357 9 is_stmt 1              @ ../Library/STM32F4xx_HAL_Driver/Src/stm32f4xx_hal_i2c.c:1357:9
	ldr	r1, [sp, #40]
	.loc	7 1357 24 is_stmt 0             @ ../Library/STM32F4xx_HAL_Driver/Src/stm32f4xx_hal_i2c.c:1357:24
	ldrh	r0, [r1, #42]
	subs	r0, #1
	strh	r0, [r1, #42]
.Ltmp198:
	.loc	7 1359 13 is_stmt 1             @ ../Library/STM32F4xx_HAL_Driver/Src/stm32f4xx_hal_i2c.c:1359:13
	ldr	r0, [sp, #40]
	ldr	r0, [r0]
	ldr	r0, [r0, #20]
	and	r1, r0, #4
	movs	r0, #1
.Ltmp199:
	.loc	7 1359 13 is_stmt 0             @ ../Library/STM32F4xx_HAL_Driver/Src/stm32f4xx_hal_i2c.c:1359:13
	cmp.w	r0, r1, lsr #2
	bne	.LBB9_51
	b	.LBB9_50
.LBB9_50:                               @   in Loop: Header=BB9_30 Depth=1
.Ltmp200:
	.loc	7 1362 38 is_stmt 1             @ ../Library/STM32F4xx_HAL_Driver/Src/stm32f4xx_hal_i2c.c:1362:38
	ldr	r0, [sp, #40]
	.loc	7 1362 44 is_stmt 0             @ ../Library/STM32F4xx_HAL_Driver/Src/stm32f4xx_hal_i2c.c:1362:44
	ldr	r0, [r0]
	.loc	7 1362 54                       @ ../Library/STM32F4xx_HAL_Driver/Src/stm32f4xx_hal_i2c.c:1362:54
	ldr	r0, [r0, #16]
	.loc	7 1362 12                       @ ../Library/STM32F4xx_HAL_Driver/Src/stm32f4xx_hal_i2c.c:1362:12
	ldr	r1, [sp, #40]
	.loc	7 1362 18                       @ ../Library/STM32F4xx_HAL_Driver/Src/stm32f4xx_hal_i2c.c:1362:18
	ldr	r1, [r1, #36]
	.loc	7 1362 27                       @ ../Library/STM32F4xx_HAL_Driver/Src/stm32f4xx_hal_i2c.c:1362:27
	strb	r0, [r1]
	.loc	7 1365 11 is_stmt 1             @ ../Library/STM32F4xx_HAL_Driver/Src/stm32f4xx_hal_i2c.c:1365:11
	ldr	r1, [sp, #40]
	.loc	7 1365 25 is_stmt 0             @ ../Library/STM32F4xx_HAL_Driver/Src/stm32f4xx_hal_i2c.c:1365:25
	ldr	r0, [r1, #36]
	adds	r0, #1
	str	r0, [r1, #36]
	.loc	7 1368 11 is_stmt 1             @ ../Library/STM32F4xx_HAL_Driver/Src/stm32f4xx_hal_i2c.c:1368:11
	ldr	r1, [sp, #40]
	.loc	7 1368 25 is_stmt 0             @ ../Library/STM32F4xx_HAL_Driver/Src/stm32f4xx_hal_i2c.c:1368:25
	ldrh	r0, [r1, #40]
	subs	r0, #1
	strh	r0, [r1, #40]
	.loc	7 1369 11 is_stmt 1             @ ../Library/STM32F4xx_HAL_Driver/Src/stm32f4xx_hal_i2c.c:1369:11
	ldr	r1, [sp, #40]
	.loc	7 1369 26 is_stmt 0             @ ../Library/STM32F4xx_HAL_Driver/Src/stm32f4xx_hal_i2c.c:1369:26
	ldrh	r0, [r1, #42]
	subs	r0, #1
	strh	r0, [r1, #42]
	.loc	7 1370 9 is_stmt 1              @ ../Library/STM32F4xx_HAL_Driver/Src/stm32f4xx_hal_i2c.c:1370:9
	b	.LBB9_51
.Ltmp201:
.LBB9_51:                               @   in Loop: Header=BB9_30 Depth=1
	.loc	7 0 9 is_stmt 0                 @ ../Library/STM32F4xx_HAL_Driver/Src/stm32f4xx_hal_i2c.c:0:9
	b	.LBB9_52
.LBB9_52:                               @   in Loop: Header=BB9_30 Depth=1
	.loc	7 1234 5 is_stmt 1              @ ../Library/STM32F4xx_HAL_Driver/Src/stm32f4xx_hal_i2c.c:1234:5
	b	.LBB9_30
.LBB9_53:
	.loc	7 1374 5                        @ ../Library/STM32F4xx_HAL_Driver/Src/stm32f4xx_hal_i2c.c:1374:5
	ldr	r1, [sp, #40]
	movs	r0, #32
	.loc	7 1374 17 is_stmt 0             @ ../Library/STM32F4xx_HAL_Driver/Src/stm32f4xx_hal_i2c.c:1374:17
	strb.w	r0, [r1, #61]
	.loc	7 1375 5 is_stmt 1              @ ../Library/STM32F4xx_HAL_Driver/Src/stm32f4xx_hal_i2c.c:1375:5
	ldr	r1, [sp, #40]
	movs	r0, #0
	.loc	7 1375 16 is_stmt 0             @ ../Library/STM32F4xx_HAL_Driver/Src/stm32f4xx_hal_i2c.c:1375:16
	strb.w	r0, [r1, #62]
	.loc	7 1378 5 is_stmt 1              @ ../Library/STM32F4xx_HAL_Driver/Src/stm32f4xx_hal_i2c.c:1378:5
	b	.LBB9_54
.LBB9_54:
.Ltmp202:
	.loc	7 1378 5 is_stmt 0              @ ../Library/STM32F4xx_HAL_Driver/Src/stm32f4xx_hal_i2c.c:1378:5
	ldr	r1, [sp, #40]
	movs	r0, #0
	strb.w	r0, [r1, #60]
	b	.LBB9_55
.Ltmp203:
.LBB9_55:
	.loc	7 0 5                           @ ../Library/STM32F4xx_HAL_Driver/Src/stm32f4xx_hal_i2c.c:0:5
	movs	r0, #0
	.loc	7 1380 5 is_stmt 1              @ ../Library/STM32F4xx_HAL_Driver/Src/stm32f4xx_hal_i2c.c:1380:5
	strb.w	r0, [sp, #47]
	b	.LBB9_57
.Ltmp204:
.LBB9_56:
	.loc	7 0 5 is_stmt 0                 @ ../Library/STM32F4xx_HAL_Driver/Src/stm32f4xx_hal_i2c.c:0:5
	movs	r0, #2
.Ltmp205:
	.loc	7 1384 5 is_stmt 1              @ ../Library/STM32F4xx_HAL_Driver/Src/stm32f4xx_hal_i2c.c:1384:5
	strb.w	r0, [sp, #47]
	b	.LBB9_57
.Ltmp206:
.LBB9_57:
	.loc	7 1386 1                        @ ../Library/STM32F4xx_HAL_Driver/Src/stm32f4xx_hal_i2c.c:1386:1
	ldrb.w	r0, [sp, #47]
	add	sp, #48
	pop	{r7, pc}
.Ltmp207:
.Lfunc_end9:
	.size	HAL_I2C_Master_Receive, .Lfunc_end9-HAL_I2C_Master_Receive
	.cfi_endproc
	.cantunwind
	.fnend
                                        @ -- End function
	.section	.text.I2C_MasterRequestRead,"ax",%progbits
	.p2align	2                               @ -- Begin function I2C_MasterRequestRead
	.type	I2C_MasterRequestRead,%function
	.code	16                              @ @I2C_MasterRequestRead
	.thumb_func
I2C_MasterRequestRead:
.Lfunc_begin10:
	.loc	7 6625 0                        @ ../Library/STM32F4xx_HAL_Driver/Src/stm32f4xx_hal_i2c.c:6625:0
	.fnstart
	.cfi_startproc
@ %bb.0:
	.save	{r7, lr}
	push	{r7, lr}
	.cfi_def_cfa_offset 8
	.cfi_offset lr, -4
	.cfi_offset r7, -8
	.pad	#32
	sub	sp, #32
	.cfi_def_cfa_offset 40
                                        @ kill: def $r12 killed $r1
	str	r0, [sp, #24]
	strh.w	r1, [sp, #22]
	str	r2, [sp, #16]
	str	r3, [sp, #12]
.Ltmp208:
	.loc	7 6627 33 prologue_end          @ ../Library/STM32F4xx_HAL_Driver/Src/stm32f4xx_hal_i2c.c:6627:33
	ldr	r0, [sp, #24]
	.loc	7 6627 39 is_stmt 0             @ ../Library/STM32F4xx_HAL_Driver/Src/stm32f4xx_hal_i2c.c:6627:39
	ldr	r0, [r0, #44]
	.loc	7 6627 12                       @ ../Library/STM32F4xx_HAL_Driver/Src/stm32f4xx_hal_i2c.c:6627:12
	str	r0, [sp, #8]
	.loc	7 6630 3 is_stmt 1              @ ../Library/STM32F4xx_HAL_Driver/Src/stm32f4xx_hal_i2c.c:6630:3
	ldr	r0, [sp, #24]
	ldr	r1, [r0]
	ldr	r0, [r1]
	orr	r0, r0, #1024
	str	r0, [r1]
.Ltmp209:
	.loc	7 6633 8                        @ ../Library/STM32F4xx_HAL_Driver/Src/stm32f4xx_hal_i2c.c:6633:8
	ldr	r0, [sp, #8]
	.loc	7 6633 56 is_stmt 0             @ ../Library/STM32F4xx_HAL_Driver/Src/stm32f4xx_hal_i2c.c:6633:56
	cmp	r0, #8
	beq	.LBB10_3
	b	.LBB10_1
.LBB10_1:
	.loc	7 6633 60                       @ ../Library/STM32F4xx_HAL_Driver/Src/stm32f4xx_hal_i2c.c:6633:60
	ldr	r0, [sp, #8]
	.loc	7 6633 100                      @ ../Library/STM32F4xx_HAL_Driver/Src/stm32f4xx_hal_i2c.c:6633:100
	cmp	r0, #1
	beq	.LBB10_3
	b	.LBB10_2
.LBB10_2:
	.loc	7 6633 104                      @ ../Library/STM32F4xx_HAL_Driver/Src/stm32f4xx_hal_i2c.c:6633:104
	ldr	r0, [sp, #8]
.Ltmp210:
	.loc	7 6633 7                        @ ../Library/STM32F4xx_HAL_Driver/Src/stm32f4xx_hal_i2c.c:6633:7
	cmn.w	r0, #65536
	bne	.LBB10_4
	b	.LBB10_3
.LBB10_3:
.Ltmp211:
	.loc	7 6636 5 is_stmt 1              @ ../Library/STM32F4xx_HAL_Driver/Src/stm32f4xx_hal_i2c.c:6636:5
	ldr	r0, [sp, #24]
	ldr	r1, [r0]
	ldr	r0, [r1]
	orr	r0, r0, #256
	str	r0, [r1]
	.loc	7 6637 3                        @ ../Library/STM32F4xx_HAL_Driver/Src/stm32f4xx_hal_i2c.c:6637:3
	b	.LBB10_8
.Ltmp212:
.LBB10_4:
	.loc	7 6638 12                       @ ../Library/STM32F4xx_HAL_Driver/Src/stm32f4xx_hal_i2c.c:6638:12
	ldr	r0, [sp, #24]
	.loc	7 6638 18 is_stmt 0             @ ../Library/STM32F4xx_HAL_Driver/Src/stm32f4xx_hal_i2c.c:6638:18
	ldr	r0, [r0, #48]
.Ltmp213:
	.loc	7 6638 12                       @ ../Library/STM32F4xx_HAL_Driver/Src/stm32f4xx_hal_i2c.c:6638:12
	cmp	r0, #17
	bne	.LBB10_6
	b	.LBB10_5
.LBB10_5:
.Ltmp214:
	.loc	7 6641 5 is_stmt 1              @ ../Library/STM32F4xx_HAL_Driver/Src/stm32f4xx_hal_i2c.c:6641:5
	ldr	r0, [sp, #24]
	ldr	r1, [r0]
	ldr	r0, [r1]
	orr	r0, r0, #256
	str	r0, [r1]
	.loc	7 6642 3                        @ ../Library/STM32F4xx_HAL_Driver/Src/stm32f4xx_hal_i2c.c:6642:3
	b	.LBB10_7
.Ltmp215:
.LBB10_6:
	.loc	7 0 3 is_stmt 0                 @ ../Library/STM32F4xx_HAL_Driver/Src/stm32f4xx_hal_i2c.c:0:3
	b	.LBB10_7
.LBB10_7:
	b	.LBB10_8
.LBB10_8:
.Ltmp216:
	.loc	7 6649 34 is_stmt 1             @ ../Library/STM32F4xx_HAL_Driver/Src/stm32f4xx_hal_i2c.c:6649:34
	ldr	r0, [sp, #24]
	.loc	7 6649 60 is_stmt 0             @ ../Library/STM32F4xx_HAL_Driver/Src/stm32f4xx_hal_i2c.c:6649:60
	ldr	r3, [sp, #16]
	.loc	7 6649 69                       @ ../Library/STM32F4xx_HAL_Driver/Src/stm32f4xx_hal_i2c.c:6649:69
	ldr	r1, [sp, #12]
	.loc	7 6649 7                        @ ../Library/STM32F4xx_HAL_Driver/Src/stm32f4xx_hal_i2c.c:6649:7
	mov	r2, sp
	str	r1, [r2]
	mov.w	r1, #65537
	movs	r2, #0
	bl	I2C_WaitOnFlagUntilTimeout
.Ltmp217:
	.loc	7 6649 7                        @ ../Library/STM32F4xx_HAL_Driver/Src/stm32f4xx_hal_i2c.c:6649:7
	cbz	r0, .LBB10_12
	b	.LBB10_9
.LBB10_9:
.Ltmp218:
	.loc	7 6651 9 is_stmt 1              @ ../Library/STM32F4xx_HAL_Driver/Src/stm32f4xx_hal_i2c.c:6651:9
	ldr	r0, [sp, #24]
	ldr	r0, [r0]
	ldr	r0, [r0]
.Ltmp219:
	.loc	7 6651 9 is_stmt 0              @ ../Library/STM32F4xx_HAL_Driver/Src/stm32f4xx_hal_i2c.c:6651:9
	lsls	r0, r0, #23
	cmp	r0, #0
	bpl	.LBB10_11
	b	.LBB10_10
.LBB10_10:
.Ltmp220:
	.loc	7 6653 7 is_stmt 1              @ ../Library/STM32F4xx_HAL_Driver/Src/stm32f4xx_hal_i2c.c:6653:7
	ldr	r1, [sp, #24]
	mov.w	r0, #512
	.loc	7 6653 23 is_stmt 0             @ ../Library/STM32F4xx_HAL_Driver/Src/stm32f4xx_hal_i2c.c:6653:23
	str	r0, [r1, #64]
	.loc	7 6654 5 is_stmt 1              @ ../Library/STM32F4xx_HAL_Driver/Src/stm32f4xx_hal_i2c.c:6654:5
	b	.LBB10_11
.Ltmp221:
.LBB10_11:
	.loc	7 0 5 is_stmt 0                 @ ../Library/STM32F4xx_HAL_Driver/Src/stm32f4xx_hal_i2c.c:0:5
	movs	r0, #3
	.loc	7 6655 5 is_stmt 1              @ ../Library/STM32F4xx_HAL_Driver/Src/stm32f4xx_hal_i2c.c:6655:5
	strb.w	r0, [sp, #31]
	b	.LBB10_28
.Ltmp222:
.LBB10_12:
	.loc	7 6658 7                        @ ../Library/STM32F4xx_HAL_Driver/Src/stm32f4xx_hal_i2c.c:6658:7
	ldr	r0, [sp, #24]
	.loc	7 6658 18 is_stmt 0             @ ../Library/STM32F4xx_HAL_Driver/Src/stm32f4xx_hal_i2c.c:6658:18
	ldr	r0, [r0, #16]
.Ltmp223:
	.loc	7 6658 7                        @ ../Library/STM32F4xx_HAL_Driver/Src/stm32f4xx_hal_i2c.c:6658:7
	cmp.w	r0, #16384
	bne	.LBB10_14
	b	.LBB10_13
.LBB10_13:
.Ltmp224:
	.loc	7 6661 26 is_stmt 1             @ ../Library/STM32F4xx_HAL_Driver/Src/stm32f4xx_hal_i2c.c:6661:26
	ldrb.w	r0, [sp, #22]
	orr	r0, r0, #1
	.loc	7 6661 5 is_stmt 0              @ ../Library/STM32F4xx_HAL_Driver/Src/stm32f4xx_hal_i2c.c:6661:5
	ldr	r1, [sp, #24]
	.loc	7 6661 11                       @ ../Library/STM32F4xx_HAL_Driver/Src/stm32f4xx_hal_i2c.c:6661:11
	ldr	r1, [r1]
	.loc	7 6661 24                       @ ../Library/STM32F4xx_HAL_Driver/Src/stm32f4xx_hal_i2c.c:6661:24
	str	r0, [r1, #16]
	.loc	7 6662 3 is_stmt 1              @ ../Library/STM32F4xx_HAL_Driver/Src/stm32f4xx_hal_i2c.c:6662:3
	b	.LBB10_25
.Ltmp225:
.LBB10_14:
	.loc	7 6666 26                       @ ../Library/STM32F4xx_HAL_Driver/Src/stm32f4xx_hal_i2c.c:6666:26
	ldrh.w	r0, [sp, #22]
	and	r0, r0, #768
	lsrs	r0, r0, #7
	adds	r0, #240
	.loc	7 6666 5 is_stmt 0              @ ../Library/STM32F4xx_HAL_Driver/Src/stm32f4xx_hal_i2c.c:6666:5
	ldr	r1, [sp, #24]
	.loc	7 6666 11                       @ ../Library/STM32F4xx_HAL_Driver/Src/stm32f4xx_hal_i2c.c:6666:11
	ldr	r1, [r1]
	.loc	7 6666 24                       @ ../Library/STM32F4xx_HAL_Driver/Src/stm32f4xx_hal_i2c.c:6666:24
	str	r0, [r1, #16]
.Ltmp226:
	.loc	7 6669 49 is_stmt 1             @ ../Library/STM32F4xx_HAL_Driver/Src/stm32f4xx_hal_i2c.c:6669:49
	ldr	r0, [sp, #24]
	.loc	7 6669 71 is_stmt 0             @ ../Library/STM32F4xx_HAL_Driver/Src/stm32f4xx_hal_i2c.c:6669:71
	ldr	r2, [sp, #16]
	.loc	7 6669 80                       @ ../Library/STM32F4xx_HAL_Driver/Src/stm32f4xx_hal_i2c.c:6669:80
	ldr	r3, [sp, #12]
	movs	r1, #8
	movt	r1, #1
	.loc	7 6669 9                        @ ../Library/STM32F4xx_HAL_Driver/Src/stm32f4xx_hal_i2c.c:6669:9
	bl	I2C_WaitOnMasterAddressFlagUntilTimeout
.Ltmp227:
	.loc	7 6669 9                        @ ../Library/STM32F4xx_HAL_Driver/Src/stm32f4xx_hal_i2c.c:6669:9
	cbz	r0, .LBB10_16
	b	.LBB10_15
.LBB10_15:
	.loc	7 0 9                           @ ../Library/STM32F4xx_HAL_Driver/Src/stm32f4xx_hal_i2c.c:0:9
	movs	r0, #1
.Ltmp228:
	.loc	7 6671 7 is_stmt 1              @ ../Library/STM32F4xx_HAL_Driver/Src/stm32f4xx_hal_i2c.c:6671:7
	strb.w	r0, [sp, #31]
	b	.LBB10_28
.Ltmp229:
.LBB10_16:
	.loc	7 6675 26                       @ ../Library/STM32F4xx_HAL_Driver/Src/stm32f4xx_hal_i2c.c:6675:26
	ldrb.w	r0, [sp, #22]
	.loc	7 6675 5 is_stmt 0              @ ../Library/STM32F4xx_HAL_Driver/Src/stm32f4xx_hal_i2c.c:6675:5
	ldr	r1, [sp, #24]
	.loc	7 6675 11                       @ ../Library/STM32F4xx_HAL_Driver/Src/stm32f4xx_hal_i2c.c:6675:11
	ldr	r1, [r1]
	.loc	7 6675 24                       @ ../Library/STM32F4xx_HAL_Driver/Src/stm32f4xx_hal_i2c.c:6675:24
	str	r0, [r1, #16]
.Ltmp230:
	.loc	7 6678 49 is_stmt 1             @ ../Library/STM32F4xx_HAL_Driver/Src/stm32f4xx_hal_i2c.c:6678:49
	ldr	r0, [sp, #24]
	.loc	7 6678 70 is_stmt 0             @ ../Library/STM32F4xx_HAL_Driver/Src/stm32f4xx_hal_i2c.c:6678:70
	ldr	r2, [sp, #16]
	.loc	7 6678 79                       @ ../Library/STM32F4xx_HAL_Driver/Src/stm32f4xx_hal_i2c.c:6678:79
	ldr	r3, [sp, #12]
	movs	r1, #2
	movt	r1, #1
	.loc	7 6678 9                        @ ../Library/STM32F4xx_HAL_Driver/Src/stm32f4xx_hal_i2c.c:6678:9
	bl	I2C_WaitOnMasterAddressFlagUntilTimeout
.Ltmp231:
	.loc	7 6678 9                        @ ../Library/STM32F4xx_HAL_Driver/Src/stm32f4xx_hal_i2c.c:6678:9
	cbz	r0, .LBB10_18
	b	.LBB10_17
.LBB10_17:
	.loc	7 0 9                           @ ../Library/STM32F4xx_HAL_Driver/Src/stm32f4xx_hal_i2c.c:0:9
	movs	r0, #1
.Ltmp232:
	.loc	7 6680 7 is_stmt 1              @ ../Library/STM32F4xx_HAL_Driver/Src/stm32f4xx_hal_i2c.c:6680:7
	strb.w	r0, [sp, #31]
	b	.LBB10_28
.Ltmp233:
.LBB10_18:
	.loc	7 6684 5                        @ ../Library/STM32F4xx_HAL_Driver/Src/stm32f4xx_hal_i2c.c:6684:5
	b	.LBB10_19
.LBB10_19:
	.loc	7 0 5 is_stmt 0                 @ ../Library/STM32F4xx_HAL_Driver/Src/stm32f4xx_hal_i2c.c:0:5
	movs	r0, #0
.Ltmp234:
	.loc	7 6684 5                        @ ../Library/STM32F4xx_HAL_Driver/Src/stm32f4xx_hal_i2c.c:6684:5
	str	r0, [sp, #4]
	ldr	r0, [sp, #24]
	ldr	r0, [r0]
	ldr	r0, [r0, #20]
	str	r0, [sp, #4]
	ldr	r0, [sp, #24]
	ldr	r0, [r0]
	ldr	r0, [r0, #24]
	str	r0, [sp, #4]
	ldr	r0, [sp, #4]
	b	.LBB10_20
.Ltmp235:
.LBB10_20:
	.loc	7 6687 5 is_stmt 1              @ ../Library/STM32F4xx_HAL_Driver/Src/stm32f4xx_hal_i2c.c:6687:5
	ldr	r0, [sp, #24]
	ldr	r1, [r0]
	ldr	r0, [r1]
	orr	r0, r0, #256
	str	r0, [r1]
.Ltmp236:
	.loc	7 6690 36                       @ ../Library/STM32F4xx_HAL_Driver/Src/stm32f4xx_hal_i2c.c:6690:36
	ldr	r0, [sp, #24]
	.loc	7 6690 62 is_stmt 0             @ ../Library/STM32F4xx_HAL_Driver/Src/stm32f4xx_hal_i2c.c:6690:62
	ldr	r3, [sp, #16]
	.loc	7 6690 71                       @ ../Library/STM32F4xx_HAL_Driver/Src/stm32f4xx_hal_i2c.c:6690:71
	ldr	r1, [sp, #12]
	.loc	7 6690 9                        @ ../Library/STM32F4xx_HAL_Driver/Src/stm32f4xx_hal_i2c.c:6690:9
	mov	r2, sp
	str	r1, [r2]
	mov.w	r1, #65537
	movs	r2, #0
	bl	I2C_WaitOnFlagUntilTimeout
.Ltmp237:
	.loc	7 6690 9                        @ ../Library/STM32F4xx_HAL_Driver/Src/stm32f4xx_hal_i2c.c:6690:9
	cbz	r0, .LBB10_24
	b	.LBB10_21
.LBB10_21:
.Ltmp238:
	.loc	7 6692 11 is_stmt 1             @ ../Library/STM32F4xx_HAL_Driver/Src/stm32f4xx_hal_i2c.c:6692:11
	ldr	r0, [sp, #24]
	ldr	r0, [r0]
	ldr	r0, [r0]
.Ltmp239:
	.loc	7 6692 11 is_stmt 0             @ ../Library/STM32F4xx_HAL_Driver/Src/stm32f4xx_hal_i2c.c:6692:11
	lsls	r0, r0, #23
	cmp	r0, #0
	bpl	.LBB10_23
	b	.LBB10_22
.LBB10_22:
.Ltmp240:
	.loc	7 6694 9 is_stmt 1              @ ../Library/STM32F4xx_HAL_Driver/Src/stm32f4xx_hal_i2c.c:6694:9
	ldr	r1, [sp, #24]
	mov.w	r0, #512
	.loc	7 6694 25 is_stmt 0             @ ../Library/STM32F4xx_HAL_Driver/Src/stm32f4xx_hal_i2c.c:6694:25
	str	r0, [r1, #64]
	.loc	7 6695 7 is_stmt 1              @ ../Library/STM32F4xx_HAL_Driver/Src/stm32f4xx_hal_i2c.c:6695:7
	b	.LBB10_23
.Ltmp241:
.LBB10_23:
	.loc	7 0 7 is_stmt 0                 @ ../Library/STM32F4xx_HAL_Driver/Src/stm32f4xx_hal_i2c.c:0:7
	movs	r0, #3
	.loc	7 6696 7 is_stmt 1              @ ../Library/STM32F4xx_HAL_Driver/Src/stm32f4xx_hal_i2c.c:6696:7
	strb.w	r0, [sp, #31]
	b	.LBB10_28
.Ltmp242:
.LBB10_24:
	.loc	7 6700 26                       @ ../Library/STM32F4xx_HAL_Driver/Src/stm32f4xx_hal_i2c.c:6700:26
	ldrh.w	r0, [sp, #22]
	and	r0, r0, #768
	lsrs	r0, r0, #7
	adds	r0, #241
	.loc	7 6700 5 is_stmt 0              @ ../Library/STM32F4xx_HAL_Driver/Src/stm32f4xx_hal_i2c.c:6700:5
	ldr	r1, [sp, #24]
	.loc	7 6700 11                       @ ../Library/STM32F4xx_HAL_Driver/Src/stm32f4xx_hal_i2c.c:6700:11
	ldr	r1, [r1]
	.loc	7 6700 24                       @ ../Library/STM32F4xx_HAL_Driver/Src/stm32f4xx_hal_i2c.c:6700:24
	str	r0, [r1, #16]
	b	.LBB10_25
.Ltmp243:
.LBB10_25:
	.loc	7 6704 47 is_stmt 1             @ ../Library/STM32F4xx_HAL_Driver/Src/stm32f4xx_hal_i2c.c:6704:47
	ldr	r0, [sp, #24]
	.loc	7 6704 68 is_stmt 0             @ ../Library/STM32F4xx_HAL_Driver/Src/stm32f4xx_hal_i2c.c:6704:68
	ldr	r2, [sp, #16]
	.loc	7 6704 77                       @ ../Library/STM32F4xx_HAL_Driver/Src/stm32f4xx_hal_i2c.c:6704:77
	ldr	r3, [sp, #12]
	movs	r1, #2
	movt	r1, #1
	.loc	7 6704 7                        @ ../Library/STM32F4xx_HAL_Driver/Src/stm32f4xx_hal_i2c.c:6704:7
	bl	I2C_WaitOnMasterAddressFlagUntilTimeout
.Ltmp244:
	.loc	7 6704 7                        @ ../Library/STM32F4xx_HAL_Driver/Src/stm32f4xx_hal_i2c.c:6704:7
	cbz	r0, .LBB10_27
	b	.LBB10_26
.LBB10_26:
	.loc	7 0 7                           @ ../Library/STM32F4xx_HAL_Driver/Src/stm32f4xx_hal_i2c.c:0:7
	movs	r0, #1
.Ltmp245:
	.loc	7 6706 5 is_stmt 1              @ ../Library/STM32F4xx_HAL_Driver/Src/stm32f4xx_hal_i2c.c:6706:5
	strb.w	r0, [sp, #31]
	b	.LBB10_28
.Ltmp246:
.LBB10_27:
	.loc	7 0 5 is_stmt 0                 @ ../Library/STM32F4xx_HAL_Driver/Src/stm32f4xx_hal_i2c.c:0:5
	movs	r0, #0
	.loc	7 6709 3 is_stmt 1              @ ../Library/STM32F4xx_HAL_Driver/Src/stm32f4xx_hal_i2c.c:6709:3
	strb.w	r0, [sp, #31]
	b	.LBB10_28
.LBB10_28:
	.loc	7 6710 1                        @ ../Library/STM32F4xx_HAL_Driver/Src/stm32f4xx_hal_i2c.c:6710:1
	ldrb.w	r0, [sp, #31]
	add	sp, #32
	pop	{r7, pc}
.Ltmp247:
.Lfunc_end10:
	.size	I2C_MasterRequestRead, .Lfunc_end10-I2C_MasterRequestRead
	.cfi_endproc
	.cantunwind
	.fnend
                                        @ -- End function
	.section	.text.I2C_WaitOnRXNEFlagUntilTimeout,"ax",%progbits
	.p2align	2                               @ -- Begin function I2C_WaitOnRXNEFlagUntilTimeout
	.type	I2C_WaitOnRXNEFlagUntilTimeout,%function
	.code	16                              @ @I2C_WaitOnRXNEFlagUntilTimeout
	.thumb_func
I2C_WaitOnRXNEFlagUntilTimeout:
.Lfunc_begin11:
	.loc	7 7419 0                        @ ../Library/STM32F4xx_HAL_Driver/Src/stm32f4xx_hal_i2c.c:7419:0
	.fnstart
	.cfi_startproc
@ %bb.0:
	.save	{r7, lr}
	push	{r7, lr}
	.cfi_def_cfa_offset 8
	.cfi_offset lr, -4
	.cfi_offset r7, -8
	.pad	#16
	sub	sp, #16
	.cfi_def_cfa_offset 24
	str	r0, [sp, #8]
	str	r1, [sp, #4]
	str	r2, [sp]
.Ltmp248:
	.loc	7 7421 3 prologue_end           @ ../Library/STM32F4xx_HAL_Driver/Src/stm32f4xx_hal_i2c.c:7421:3
	b	.LBB11_1
.LBB11_1:                               @ =>This Inner Loop Header: Depth=1
	.loc	7 7421 10 is_stmt 0             @ ../Library/STM32F4xx_HAL_Driver/Src/stm32f4xx_hal_i2c.c:7421:10
	ldr	r0, [sp, #8]
	ldr	r0, [r0]
	ldr	r0, [r0, #20]
	and	r1, r0, #64
	movs	r0, #0
	.loc	7 7421 3                        @ ../Library/STM32F4xx_HAL_Driver/Src/stm32f4xx_hal_i2c.c:7421:3
	cmp.w	r0, r1, lsr #6
	bne	.LBB11_12
	b	.LBB11_2
.LBB11_2:                               @   in Loop: Header=BB11_1 Depth=1
.Ltmp249:
	.loc	7 7424 9 is_stmt 1              @ ../Library/STM32F4xx_HAL_Driver/Src/stm32f4xx_hal_i2c.c:7424:9
	ldr	r0, [sp, #8]
	ldr	r0, [r0]
	ldr	r0, [r0, #20]
	and	r1, r0, #16
	movs	r0, #1
.Ltmp250:
	.loc	7 7424 9 is_stmt 0              @ ../Library/STM32F4xx_HAL_Driver/Src/stm32f4xx_hal_i2c.c:7424:9
	cmp.w	r0, r1, lsr #4
	bne	.LBB11_6
	b	.LBB11_3
.LBB11_3:
.Ltmp251:
	.loc	7 7427 7 is_stmt 1              @ ../Library/STM32F4xx_HAL_Driver/Src/stm32f4xx_hal_i2c.c:7427:7
	ldr	r0, [sp, #8]
	ldr	r1, [r0]
	mvn	r0, #16
	str	r0, [r1, #20]
	.loc	7 7429 7                        @ ../Library/STM32F4xx_HAL_Driver/Src/stm32f4xx_hal_i2c.c:7429:7
	ldr	r1, [sp, #8]
	movs	r0, #0
	.loc	7 7429 33 is_stmt 0             @ ../Library/STM32F4xx_HAL_Driver/Src/stm32f4xx_hal_i2c.c:7429:33
	str	r0, [r1, #48]
	.loc	7 7430 7 is_stmt 1              @ ../Library/STM32F4xx_HAL_Driver/Src/stm32f4xx_hal_i2c.c:7430:7
	ldr	r2, [sp, #8]
	movs	r1, #32
	.loc	7 7430 33 is_stmt 0             @ ../Library/STM32F4xx_HAL_Driver/Src/stm32f4xx_hal_i2c.c:7430:33
	strb.w	r1, [r2, #61]
	.loc	7 7431 7 is_stmt 1              @ ../Library/STM32F4xx_HAL_Driver/Src/stm32f4xx_hal_i2c.c:7431:7
	ldr	r1, [sp, #8]
	.loc	7 7431 33 is_stmt 0             @ ../Library/STM32F4xx_HAL_Driver/Src/stm32f4xx_hal_i2c.c:7431:33
	strb.w	r0, [r1, #62]
	.loc	7 7432 7 is_stmt 1              @ ../Library/STM32F4xx_HAL_Driver/Src/stm32f4xx_hal_i2c.c:7432:7
	ldr	r1, [sp, #8]
	.loc	7 7432 33 is_stmt 0             @ ../Library/STM32F4xx_HAL_Driver/Src/stm32f4xx_hal_i2c.c:7432:33
	ldr	r0, [r1, #64]
	str	r0, [r1, #64]
	.loc	7 7435 7 is_stmt 1              @ ../Library/STM32F4xx_HAL_Driver/Src/stm32f4xx_hal_i2c.c:7435:7
	b	.LBB11_4
.LBB11_4:
.Ltmp252:
	.loc	7 7435 7 is_stmt 0              @ ../Library/STM32F4xx_HAL_Driver/Src/stm32f4xx_hal_i2c.c:7435:7
	ldr	r1, [sp, #8]
	movs	r0, #0
	strb.w	r0, [r1, #60]
	b	.LBB11_5
.Ltmp253:
.LBB11_5:
	.loc	7 0 7                           @ ../Library/STM32F4xx_HAL_Driver/Src/stm32f4xx_hal_i2c.c:0:7
	movs	r0, #1
	.loc	7 7437 7 is_stmt 1              @ ../Library/STM32F4xx_HAL_Driver/Src/stm32f4xx_hal_i2c.c:7437:7
	strb.w	r0, [sp, #15]
	b	.LBB11_13
.Ltmp254:
.LBB11_6:                               @   in Loop: Header=BB11_1 Depth=1
	.loc	7 7441 11                       @ ../Library/STM32F4xx_HAL_Driver/Src/stm32f4xx_hal_i2c.c:7441:11
	bl	HAL_GetTick
	.loc	7 7441 27 is_stmt 0             @ ../Library/STM32F4xx_HAL_Driver/Src/stm32f4xx_hal_i2c.c:7441:27
	ldr	r1, [sp]
	.loc	7 7441 25                       @ ../Library/STM32F4xx_HAL_Driver/Src/stm32f4xx_hal_i2c.c:7441:25
	subs	r0, r0, r1
	.loc	7 7441 40                       @ ../Library/STM32F4xx_HAL_Driver/Src/stm32f4xx_hal_i2c.c:7441:40
	ldr	r1, [sp, #4]
	.loc	7 7441 49                       @ ../Library/STM32F4xx_HAL_Driver/Src/stm32f4xx_hal_i2c.c:7441:49
	cmp	r0, r1
	bhi	.LBB11_8
	b	.LBB11_7
.LBB11_7:                               @   in Loop: Header=BB11_1 Depth=1
	.loc	7 7441 53                       @ ../Library/STM32F4xx_HAL_Driver/Src/stm32f4xx_hal_i2c.c:7441:53
	ldr	r0, [sp, #4]
.Ltmp255:
	.loc	7 7441 9                        @ ../Library/STM32F4xx_HAL_Driver/Src/stm32f4xx_hal_i2c.c:7441:9
	cbnz	r0, .LBB11_11
	b	.LBB11_8
.LBB11_8:
.Ltmp256:
	.loc	7 7443 7 is_stmt 1              @ ../Library/STM32F4xx_HAL_Driver/Src/stm32f4xx_hal_i2c.c:7443:7
	ldr	r1, [sp, #8]
	movs	r0, #0
	.loc	7 7443 33 is_stmt 0             @ ../Library/STM32F4xx_HAL_Driver/Src/stm32f4xx_hal_i2c.c:7443:33
	str	r0, [r1, #48]
	.loc	7 7444 7 is_stmt 1              @ ../Library/STM32F4xx_HAL_Driver/Src/stm32f4xx_hal_i2c.c:7444:7
	ldr	r2, [sp, #8]
	movs	r1, #32
	.loc	7 7444 33 is_stmt 0             @ ../Library/STM32F4xx_HAL_Driver/Src/stm32f4xx_hal_i2c.c:7444:33
	strb.w	r1, [r2, #61]
	.loc	7 7445 7 is_stmt 1              @ ../Library/STM32F4xx_HAL_Driver/Src/stm32f4xx_hal_i2c.c:7445:7
	ldr	r1, [sp, #8]
	.loc	7 7445 33 is_stmt 0             @ ../Library/STM32F4xx_HAL_Driver/Src/stm32f4xx_hal_i2c.c:7445:33
	strb.w	r0, [r1, #62]
	.loc	7 7446 7 is_stmt 1              @ ../Library/STM32F4xx_HAL_Driver/Src/stm32f4xx_hal_i2c.c:7446:7
	ldr	r1, [sp, #8]
	.loc	7 7446 33 is_stmt 0             @ ../Library/STM32F4xx_HAL_Driver/Src/stm32f4xx_hal_i2c.c:7446:33
	ldr	r0, [r1, #64]
	orr	r0, r0, #32
	str	r0, [r1, #64]
	.loc	7 7449 7 is_stmt 1              @ ../Library/STM32F4xx_HAL_Driver/Src/stm32f4xx_hal_i2c.c:7449:7
	b	.LBB11_9
.LBB11_9:
.Ltmp257:
	.loc	7 7449 7 is_stmt 0              @ ../Library/STM32F4xx_HAL_Driver/Src/stm32f4xx_hal_i2c.c:7449:7
	ldr	r1, [sp, #8]
	movs	r0, #0
	strb.w	r0, [r1, #60]
	b	.LBB11_10
.Ltmp258:
.LBB11_10:
	.loc	7 0 7                           @ ../Library/STM32F4xx_HAL_Driver/Src/stm32f4xx_hal_i2c.c:0:7
	movs	r0, #1
	.loc	7 7451 7 is_stmt 1              @ ../Library/STM32F4xx_HAL_Driver/Src/stm32f4xx_hal_i2c.c:7451:7
	strb.w	r0, [sp, #15]
	b	.LBB11_13
.Ltmp259:
.LBB11_11:                              @   in Loop: Header=BB11_1 Depth=1
	.loc	7 7421 3                        @ ../Library/STM32F4xx_HAL_Driver/Src/stm32f4xx_hal_i2c.c:7421:3
	b	.LBB11_1
.LBB11_12:
	.loc	7 0 3 is_stmt 0                 @ ../Library/STM32F4xx_HAL_Driver/Src/stm32f4xx_hal_i2c.c:0:3
	movs	r0, #0
	.loc	7 7454 3 is_stmt 1              @ ../Library/STM32F4xx_HAL_Driver/Src/stm32f4xx_hal_i2c.c:7454:3
	strb.w	r0, [sp, #15]
	b	.LBB11_13
.LBB11_13:
	.loc	7 7455 1                        @ ../Library/STM32F4xx_HAL_Driver/Src/stm32f4xx_hal_i2c.c:7455:1
	ldrb.w	r0, [sp, #15]
	add	sp, #16
	pop	{r7, pc}
.Ltmp260:
.Lfunc_end11:
	.size	I2C_WaitOnRXNEFlagUntilTimeout, .Lfunc_end11-I2C_WaitOnRXNEFlagUntilTimeout
	.cfi_endproc
	.cantunwind
	.fnend
                                        @ -- End function
	.section	.text.HAL_I2C_Slave_Transmit,"ax",%progbits
	.hidden	HAL_I2C_Slave_Transmit          @ -- Begin function HAL_I2C_Slave_Transmit
	.globl	HAL_I2C_Slave_Transmit
	.p2align	2
	.type	HAL_I2C_Slave_Transmit,%function
	.code	16                              @ @HAL_I2C_Slave_Transmit
	.thumb_func
HAL_I2C_Slave_Transmit:
.Lfunc_begin12:
	.loc	7 1398 0                        @ ../Library/STM32F4xx_HAL_Driver/Src/stm32f4xx_hal_i2c.c:1398:0
	.fnstart
	.cfi_startproc
@ %bb.0:
	.save	{r7, lr}
	push	{r7, lr}
	.cfi_def_cfa_offset 8
	.cfi_offset lr, -4
	.cfi_offset r7, -8
	.pad	#40
	sub	sp, #40
	.cfi_def_cfa_offset 48
                                        @ kill: def $r12 killed $r2
	str	r0, [sp, #32]
	str	r1, [sp, #28]
	strh.w	r2, [sp, #26]
	str	r3, [sp, #20]
.Ltmp261:
	.loc	7 1400 24 prologue_end          @ ../Library/STM32F4xx_HAL_Driver/Src/stm32f4xx_hal_i2c.c:1400:24
	bl	HAL_GetTick
	.loc	7 1400 12 is_stmt 0             @ ../Library/STM32F4xx_HAL_Driver/Src/stm32f4xx_hal_i2c.c:1400:12
	str	r0, [sp, #16]
.Ltmp262:
	.loc	7 1402 7 is_stmt 1              @ ../Library/STM32F4xx_HAL_Driver/Src/stm32f4xx_hal_i2c.c:1402:7
	ldr	r0, [sp, #32]
	.loc	7 1402 13 is_stmt 0             @ ../Library/STM32F4xx_HAL_Driver/Src/stm32f4xx_hal_i2c.c:1402:13
	ldrb.w	r0, [r0, #61]
.Ltmp263:
	.loc	7 1402 7                        @ ../Library/STM32F4xx_HAL_Driver/Src/stm32f4xx_hal_i2c.c:1402:7
	cmp	r0, #32
	bne.w	.LBB12_34
	b	.LBB12_1
.LBB12_1:
.Ltmp264:
	.loc	7 1404 10 is_stmt 1             @ ../Library/STM32F4xx_HAL_Driver/Src/stm32f4xx_hal_i2c.c:1404:10
	ldr	r0, [sp, #28]
	.loc	7 1404 25 is_stmt 0             @ ../Library/STM32F4xx_HAL_Driver/Src/stm32f4xx_hal_i2c.c:1404:25
	cbz	r0, .LBB12_3
	b	.LBB12_2
.LBB12_2:
	.loc	7 1404 29                       @ ../Library/STM32F4xx_HAL_Driver/Src/stm32f4xx_hal_i2c.c:1404:29
	ldrh.w	r0, [sp, #26]
.Ltmp265:
	.loc	7 1404 9                        @ ../Library/STM32F4xx_HAL_Driver/Src/stm32f4xx_hal_i2c.c:1404:9
	cbnz	r0, .LBB12_4
	b	.LBB12_3
.LBB12_3:
	.loc	7 0 9                           @ ../Library/STM32F4xx_HAL_Driver/Src/stm32f4xx_hal_i2c.c:0:9
	movs	r0, #1
.Ltmp266:
	.loc	7 1406 7 is_stmt 1              @ ../Library/STM32F4xx_HAL_Driver/Src/stm32f4xx_hal_i2c.c:1406:7
	strb.w	r0, [sp, #39]
	b	.LBB12_35
.Ltmp267:
.LBB12_4:
	.loc	7 1410 5                        @ ../Library/STM32F4xx_HAL_Driver/Src/stm32f4xx_hal_i2c.c:1410:5
	b	.LBB12_5
.LBB12_5:
.Ltmp268:
	.loc	7 1410 5 is_stmt 0              @ ../Library/STM32F4xx_HAL_Driver/Src/stm32f4xx_hal_i2c.c:1410:5
	ldr	r0, [sp, #32]
	ldrb.w	r0, [r0, #60]
.Ltmp269:
	.loc	7 1410 5                        @ ../Library/STM32F4xx_HAL_Driver/Src/stm32f4xx_hal_i2c.c:1410:5
	cmp	r0, #1
	bne	.LBB12_7
	b	.LBB12_6
.LBB12_6:
	.loc	7 0 5                           @ ../Library/STM32F4xx_HAL_Driver/Src/stm32f4xx_hal_i2c.c:0:5
	movs	r0, #2
.Ltmp270:
	.loc	7 1410 5                        @ ../Library/STM32F4xx_HAL_Driver/Src/stm32f4xx_hal_i2c.c:1410:5
	strb.w	r0, [sp, #39]
	b	.LBB12_35
.Ltmp271:
.LBB12_7:
	.loc	7 1410 5                        @ ../Library/STM32F4xx_HAL_Driver/Src/stm32f4xx_hal_i2c.c:1410:5
	ldr	r1, [sp, #32]
	movs	r0, #1
	strb.w	r0, [r1, #60]
	b	.LBB12_8
.Ltmp272:
.LBB12_8:
	.loc	7 1410 5                        @ ../Library/STM32F4xx_HAL_Driver/Src/stm32f4xx_hal_i2c.c:1410:5
	b	.LBB12_9
.Ltmp273:
.LBB12_9:
	.loc	7 1413 10 is_stmt 1             @ ../Library/STM32F4xx_HAL_Driver/Src/stm32f4xx_hal_i2c.c:1413:10
	ldr	r0, [sp, #32]
	.loc	7 1413 16 is_stmt 0             @ ../Library/STM32F4xx_HAL_Driver/Src/stm32f4xx_hal_i2c.c:1413:16
	ldr	r0, [r0]
	.loc	7 1413 26                       @ ../Library/STM32F4xx_HAL_Driver/Src/stm32f4xx_hal_i2c.c:1413:26
	ldr	r0, [r0]
.Ltmp274:
	.loc	7 1413 9                        @ ../Library/STM32F4xx_HAL_Driver/Src/stm32f4xx_hal_i2c.c:1413:9
	lsls	r0, r0, #31
	cbnz	r0, .LBB12_11
	b	.LBB12_10
.LBB12_10:
.Ltmp275:
	.loc	7 1416 7 is_stmt 1              @ ../Library/STM32F4xx_HAL_Driver/Src/stm32f4xx_hal_i2c.c:1416:7
	ldr	r0, [sp, #32]
	ldr	r1, [r0]
	ldr	r0, [r1]
	orr	r0, r0, #1
	str	r0, [r1]
	.loc	7 1417 5                        @ ../Library/STM32F4xx_HAL_Driver/Src/stm32f4xx_hal_i2c.c:1417:5
	b	.LBB12_11
.Ltmp276:
.LBB12_11:
	.loc	7 1420 5                        @ ../Library/STM32F4xx_HAL_Driver/Src/stm32f4xx_hal_i2c.c:1420:5
	ldr	r0, [sp, #32]
	ldr	r1, [r0]
	ldr	r0, [r1]
	bic	r0, r0, #2048
	str	r0, [r1]
	.loc	7 1422 5                        @ ../Library/STM32F4xx_HAL_Driver/Src/stm32f4xx_hal_i2c.c:1422:5
	ldr	r1, [sp, #32]
	movs	r0, #33
	.loc	7 1422 23 is_stmt 0             @ ../Library/STM32F4xx_HAL_Driver/Src/stm32f4xx_hal_i2c.c:1422:23
	strb.w	r0, [r1, #61]
	.loc	7 1423 5 is_stmt 1              @ ../Library/STM32F4xx_HAL_Driver/Src/stm32f4xx_hal_i2c.c:1423:5
	ldr	r1, [sp, #32]
	movs	r0, #32
	.loc	7 1423 23 is_stmt 0             @ ../Library/STM32F4xx_HAL_Driver/Src/stm32f4xx_hal_i2c.c:1423:23
	strb.w	r0, [r1, #62]
	.loc	7 1424 5 is_stmt 1              @ ../Library/STM32F4xx_HAL_Driver/Src/stm32f4xx_hal_i2c.c:1424:5
	ldr	r0, [sp, #32]
	movs	r2, #0
	.loc	7 1424 23 is_stmt 0             @ ../Library/STM32F4xx_HAL_Driver/Src/stm32f4xx_hal_i2c.c:1424:23
	str	r2, [r0, #64]
	.loc	7 1427 25 is_stmt 1             @ ../Library/STM32F4xx_HAL_Driver/Src/stm32f4xx_hal_i2c.c:1427:25
	ldr	r0, [sp, #28]
	.loc	7 1427 5 is_stmt 0              @ ../Library/STM32F4xx_HAL_Driver/Src/stm32f4xx_hal_i2c.c:1427:5
	ldr	r1, [sp, #32]
	.loc	7 1427 23                       @ ../Library/STM32F4xx_HAL_Driver/Src/stm32f4xx_hal_i2c.c:1427:23
	str	r0, [r1, #36]
	.loc	7 1428 25 is_stmt 1             @ ../Library/STM32F4xx_HAL_Driver/Src/stm32f4xx_hal_i2c.c:1428:25
	ldrh.w	r0, [sp, #26]
	.loc	7 1428 5 is_stmt 0              @ ../Library/STM32F4xx_HAL_Driver/Src/stm32f4xx_hal_i2c.c:1428:5
	ldr	r1, [sp, #32]
	.loc	7 1428 23                       @ ../Library/STM32F4xx_HAL_Driver/Src/stm32f4xx_hal_i2c.c:1428:23
	strh	r0, [r1, #42]
	.loc	7 1429 25 is_stmt 1             @ ../Library/STM32F4xx_HAL_Driver/Src/stm32f4xx_hal_i2c.c:1429:25
	ldr	r0, [sp, #32]
	.loc	7 1429 31 is_stmt 0             @ ../Library/STM32F4xx_HAL_Driver/Src/stm32f4xx_hal_i2c.c:1429:31
	ldrh	r0, [r0, #42]
	.loc	7 1429 5                        @ ../Library/STM32F4xx_HAL_Driver/Src/stm32f4xx_hal_i2c.c:1429:5
	ldr	r1, [sp, #32]
	.loc	7 1429 23                       @ ../Library/STM32F4xx_HAL_Driver/Src/stm32f4xx_hal_i2c.c:1429:23
	strh	r0, [r1, #40]
	.loc	7 1430 5 is_stmt 1              @ ../Library/STM32F4xx_HAL_Driver/Src/stm32f4xx_hal_i2c.c:1430:5
	ldr	r1, [sp, #32]
	movs	r0, #0
	movt	r0, #65535
	.loc	7 1430 23 is_stmt 0             @ ../Library/STM32F4xx_HAL_Driver/Src/stm32f4xx_hal_i2c.c:1430:23
	str	r0, [r1, #44]
	.loc	7 1433 5 is_stmt 1              @ ../Library/STM32F4xx_HAL_Driver/Src/stm32f4xx_hal_i2c.c:1433:5
	ldr	r0, [sp, #32]
	ldr	r1, [r0]
	ldr	r0, [r1]
	orr	r0, r0, #1024
	str	r0, [r1]
.Ltmp277:
	.loc	7 1436 36                       @ ../Library/STM32F4xx_HAL_Driver/Src/stm32f4xx_hal_i2c.c:1436:36
	ldr	r0, [sp, #32]
	.loc	7 1436 64 is_stmt 0             @ ../Library/STM32F4xx_HAL_Driver/Src/stm32f4xx_hal_i2c.c:1436:64
	ldr	r3, [sp, #20]
	.loc	7 1436 73                       @ ../Library/STM32F4xx_HAL_Driver/Src/stm32f4xx_hal_i2c.c:1436:73
	ldr	r1, [sp, #16]
	.loc	7 1436 9                        @ ../Library/STM32F4xx_HAL_Driver/Src/stm32f4xx_hal_i2c.c:1436:9
	mov	r12, sp
	str.w	r1, [r12]
	movs	r1, #2
	movt	r1, #1
	bl	I2C_WaitOnFlagUntilTimeout
.Ltmp278:
	.loc	7 1436 9                        @ ../Library/STM32F4xx_HAL_Driver/Src/stm32f4xx_hal_i2c.c:1436:9
	cbz	r0, .LBB12_13
	b	.LBB12_12
.LBB12_12:
	.loc	7 0 9                           @ ../Library/STM32F4xx_HAL_Driver/Src/stm32f4xx_hal_i2c.c:0:9
	movs	r0, #1
.Ltmp279:
	.loc	7 1438 7 is_stmt 1              @ ../Library/STM32F4xx_HAL_Driver/Src/stm32f4xx_hal_i2c.c:1438:7
	strb.w	r0, [sp, #39]
	b	.LBB12_35
.Ltmp280:
.LBB12_13:
	.loc	7 1442 5                        @ ../Library/STM32F4xx_HAL_Driver/Src/stm32f4xx_hal_i2c.c:1442:5
	b	.LBB12_14
.LBB12_14:
	.loc	7 0 5 is_stmt 0                 @ ../Library/STM32F4xx_HAL_Driver/Src/stm32f4xx_hal_i2c.c:0:5
	movs	r0, #0
.Ltmp281:
	.loc	7 1442 5                        @ ../Library/STM32F4xx_HAL_Driver/Src/stm32f4xx_hal_i2c.c:1442:5
	str	r0, [sp, #12]
	ldr	r0, [sp, #32]
	ldr	r0, [r0]
	ldr	r0, [r0, #20]
	str	r0, [sp, #12]
	ldr	r0, [sp, #32]
	ldr	r0, [r0]
	ldr	r0, [r0, #24]
	str	r0, [sp, #12]
	ldr	r0, [sp, #12]
	b	.LBB12_15
.Ltmp282:
.LBB12_15:
	.loc	7 1445 9 is_stmt 1              @ ../Library/STM32F4xx_HAL_Driver/Src/stm32f4xx_hal_i2c.c:1445:9
	ldr	r0, [sp, #32]
	.loc	7 1445 20 is_stmt 0             @ ../Library/STM32F4xx_HAL_Driver/Src/stm32f4xx_hal_i2c.c:1445:20
	ldr	r0, [r0, #16]
.Ltmp283:
	.loc	7 1445 9                        @ ../Library/STM32F4xx_HAL_Driver/Src/stm32f4xx_hal_i2c.c:1445:9
	cmp.w	r0, #49152
	bne	.LBB12_21
	b	.LBB12_16
.LBB12_16:
.Ltmp284:
	.loc	7 1448 38 is_stmt 1             @ ../Library/STM32F4xx_HAL_Driver/Src/stm32f4xx_hal_i2c.c:1448:38
	ldr	r0, [sp, #32]
	.loc	7 1448 66 is_stmt 0             @ ../Library/STM32F4xx_HAL_Driver/Src/stm32f4xx_hal_i2c.c:1448:66
	ldr	r3, [sp, #20]
	.loc	7 1448 75                       @ ../Library/STM32F4xx_HAL_Driver/Src/stm32f4xx_hal_i2c.c:1448:75
	ldr	r1, [sp, #16]
	.loc	7 1448 11                       @ ../Library/STM32F4xx_HAL_Driver/Src/stm32f4xx_hal_i2c.c:1448:11
	mov	r2, sp
	str	r1, [r2]
	movs	r1, #2
	movt	r1, #1
	movs	r2, #0
	bl	I2C_WaitOnFlagUntilTimeout
.Ltmp285:
	.loc	7 1448 11                       @ ../Library/STM32F4xx_HAL_Driver/Src/stm32f4xx_hal_i2c.c:1448:11
	cbz	r0, .LBB12_18
	b	.LBB12_17
.LBB12_17:
	.loc	7 0 11                          @ ../Library/STM32F4xx_HAL_Driver/Src/stm32f4xx_hal_i2c.c:0:11
	movs	r0, #1
.Ltmp286:
	.loc	7 1450 9 is_stmt 1              @ ../Library/STM32F4xx_HAL_Driver/Src/stm32f4xx_hal_i2c.c:1450:9
	strb.w	r0, [sp, #39]
	b	.LBB12_35
.Ltmp287:
.LBB12_18:
	.loc	7 1454 7                        @ ../Library/STM32F4xx_HAL_Driver/Src/stm32f4xx_hal_i2c.c:1454:7
	b	.LBB12_19
.LBB12_19:
	.loc	7 0 7 is_stmt 0                 @ ../Library/STM32F4xx_HAL_Driver/Src/stm32f4xx_hal_i2c.c:0:7
	movs	r0, #0
.Ltmp288:
	.loc	7 1454 7                        @ ../Library/STM32F4xx_HAL_Driver/Src/stm32f4xx_hal_i2c.c:1454:7
	str	r0, [sp, #8]
	ldr	r0, [sp, #32]
	ldr	r0, [r0]
	ldr	r0, [r0, #20]
	str	r0, [sp, #8]
	ldr	r0, [sp, #32]
	ldr	r0, [r0]
	ldr	r0, [r0, #24]
	str	r0, [sp, #8]
	ldr	r0, [sp, #8]
	b	.LBB12_20
.Ltmp289:
.LBB12_20:
	.loc	7 1455 5 is_stmt 1              @ ../Library/STM32F4xx_HAL_Driver/Src/stm32f4xx_hal_i2c.c:1455:5
	b	.LBB12_21
.Ltmp290:
.LBB12_21:
	.loc	7 1457 5                        @ ../Library/STM32F4xx_HAL_Driver/Src/stm32f4xx_hal_i2c.c:1457:5
	b	.LBB12_22
.LBB12_22:                              @ =>This Inner Loop Header: Depth=1
	.loc	7 1457 12 is_stmt 0             @ ../Library/STM32F4xx_HAL_Driver/Src/stm32f4xx_hal_i2c.c:1457:12
	ldr	r0, [sp, #32]
	.loc	7 1457 18                       @ ../Library/STM32F4xx_HAL_Driver/Src/stm32f4xx_hal_i2c.c:1457:18
	ldrh	r0, [r0, #40]
	.loc	7 1457 5                        @ ../Library/STM32F4xx_HAL_Driver/Src/stm32f4xx_hal_i2c.c:1457:5
	cmp	r0, #0
	beq	.LBB12_29
	b	.LBB12_23
.LBB12_23:                              @   in Loop: Header=BB12_22 Depth=1
.Ltmp291:
	.loc	7 1460 41 is_stmt 1             @ ../Library/STM32F4xx_HAL_Driver/Src/stm32f4xx_hal_i2c.c:1460:41
	ldr	r0, [sp, #32]
	.loc	7 1460 47 is_stmt 0             @ ../Library/STM32F4xx_HAL_Driver/Src/stm32f4xx_hal_i2c.c:1460:47
	ldr	r1, [sp, #20]
	.loc	7 1460 56                       @ ../Library/STM32F4xx_HAL_Driver/Src/stm32f4xx_hal_i2c.c:1460:56
	ldr	r2, [sp, #16]
	.loc	7 1460 11                       @ ../Library/STM32F4xx_HAL_Driver/Src/stm32f4xx_hal_i2c.c:1460:11
	bl	I2C_WaitOnTXEFlagUntilTimeout
.Ltmp292:
	.loc	7 1460 11                       @ ../Library/STM32F4xx_HAL_Driver/Src/stm32f4xx_hal_i2c.c:1460:11
	cbz	r0, .LBB12_25
	b	.LBB12_24
.LBB12_24:
.Ltmp293:
	.loc	7 1463 9 is_stmt 1              @ ../Library/STM32F4xx_HAL_Driver/Src/stm32f4xx_hal_i2c.c:1463:9
	ldr	r0, [sp, #32]
	ldr	r1, [r0]
	ldr	r0, [r1]
	bic	r0, r0, #1024
	str	r0, [r1]
	movs	r0, #1
	.loc	7 1465 9                        @ ../Library/STM32F4xx_HAL_Driver/Src/stm32f4xx_hal_i2c.c:1465:9
	strb.w	r0, [sp, #39]
	b	.LBB12_35
.Ltmp294:
.LBB12_25:                              @   in Loop: Header=BB12_22 Depth=1
	.loc	7 1469 29                       @ ../Library/STM32F4xx_HAL_Driver/Src/stm32f4xx_hal_i2c.c:1469:29
	ldr	r0, [sp, #32]
	.loc	7 1469 13 is_stmt 0             @ ../Library/STM32F4xx_HAL_Driver/Src/stm32f4xx_hal_i2c.c:1469:13
	ldr	r1, [r0]
	.loc	7 1469 35                       @ ../Library/STM32F4xx_HAL_Driver/Src/stm32f4xx_hal_i2c.c:1469:35
	ldr	r0, [r0, #36]
	.loc	7 1469 28                       @ ../Library/STM32F4xx_HAL_Driver/Src/stm32f4xx_hal_i2c.c:1469:28
	ldrb	r0, [r0]
	.loc	7 1469 26                       @ ../Library/STM32F4xx_HAL_Driver/Src/stm32f4xx_hal_i2c.c:1469:26
	str	r0, [r1, #16]
	.loc	7 1472 7 is_stmt 1              @ ../Library/STM32F4xx_HAL_Driver/Src/stm32f4xx_hal_i2c.c:1472:7
	ldr	r1, [sp, #32]
	.loc	7 1472 21 is_stmt 0             @ ../Library/STM32F4xx_HAL_Driver/Src/stm32f4xx_hal_i2c.c:1472:21
	ldr	r0, [r1, #36]
	adds	r0, #1
	str	r0, [r1, #36]
	.loc	7 1475 7 is_stmt 1              @ ../Library/STM32F4xx_HAL_Driver/Src/stm32f4xx_hal_i2c.c:1475:7
	ldr	r1, [sp, #32]
	.loc	7 1475 22 is_stmt 0             @ ../Library/STM32F4xx_HAL_Driver/Src/stm32f4xx_hal_i2c.c:1475:22
	ldrh	r0, [r1, #42]
	subs	r0, #1
	strh	r0, [r1, #42]
	.loc	7 1476 7 is_stmt 1              @ ../Library/STM32F4xx_HAL_Driver/Src/stm32f4xx_hal_i2c.c:1476:7
	ldr	r1, [sp, #32]
	.loc	7 1476 21 is_stmt 0             @ ../Library/STM32F4xx_HAL_Driver/Src/stm32f4xx_hal_i2c.c:1476:21
	ldrh	r0, [r1, #40]
	subs	r0, #1
	strh	r0, [r1, #40]
.Ltmp295:
	.loc	7 1478 12 is_stmt 1             @ ../Library/STM32F4xx_HAL_Driver/Src/stm32f4xx_hal_i2c.c:1478:12
	ldr	r0, [sp, #32]
	ldr	r0, [r0]
	ldr	r0, [r0, #20]
	and	r1, r0, #4
	movs	r0, #1
	.loc	7 1478 59 is_stmt 0             @ ../Library/STM32F4xx_HAL_Driver/Src/stm32f4xx_hal_i2c.c:1478:59
	cmp.w	r0, r1, lsr #2
	bne	.LBB12_28
	b	.LBB12_26
.LBB12_26:                              @   in Loop: Header=BB12_22 Depth=1
	.loc	7 1478 63                       @ ../Library/STM32F4xx_HAL_Driver/Src/stm32f4xx_hal_i2c.c:1478:63
	ldr	r0, [sp, #32]
	.loc	7 1478 69                       @ ../Library/STM32F4xx_HAL_Driver/Src/stm32f4xx_hal_i2c.c:1478:69
	ldrh	r0, [r0, #40]
.Ltmp296:
	.loc	7 1478 11                       @ ../Library/STM32F4xx_HAL_Driver/Src/stm32f4xx_hal_i2c.c:1478:11
	cbz	r0, .LBB12_28
	b	.LBB12_27
.LBB12_27:                              @   in Loop: Header=BB12_22 Depth=1
.Ltmp297:
	.loc	7 1481 31 is_stmt 1             @ ../Library/STM32F4xx_HAL_Driver/Src/stm32f4xx_hal_i2c.c:1481:31
	ldr	r0, [sp, #32]
	.loc	7 1481 15 is_stmt 0             @ ../Library/STM32F4xx_HAL_Driver/Src/stm32f4xx_hal_i2c.c:1481:15
	ldr	r1, [r0]
	.loc	7 1481 37                       @ ../Library/STM32F4xx_HAL_Driver/Src/stm32f4xx_hal_i2c.c:1481:37
	ldr	r0, [r0, #36]
	.loc	7 1481 30                       @ ../Library/STM32F4xx_HAL_Driver/Src/stm32f4xx_hal_i2c.c:1481:30
	ldrb	r0, [r0]
	.loc	7 1481 28                       @ ../Library/STM32F4xx_HAL_Driver/Src/stm32f4xx_hal_i2c.c:1481:28
	str	r0, [r1, #16]
	.loc	7 1484 9 is_stmt 1              @ ../Library/STM32F4xx_HAL_Driver/Src/stm32f4xx_hal_i2c.c:1484:9
	ldr	r1, [sp, #32]
	.loc	7 1484 23 is_stmt 0             @ ../Library/STM32F4xx_HAL_Driver/Src/stm32f4xx_hal_i2c.c:1484:23
	ldr	r0, [r1, #36]
	adds	r0, #1
	str	r0, [r1, #36]
	.loc	7 1487 9 is_stmt 1              @ ../Library/STM32F4xx_HAL_Driver/Src/stm32f4xx_hal_i2c.c:1487:9
	ldr	r1, [sp, #32]
	.loc	7 1487 24 is_stmt 0             @ ../Library/STM32F4xx_HAL_Driver/Src/stm32f4xx_hal_i2c.c:1487:24
	ldrh	r0, [r1, #42]
	subs	r0, #1
	strh	r0, [r1, #42]
	.loc	7 1488 9 is_stmt 1              @ ../Library/STM32F4xx_HAL_Driver/Src/stm32f4xx_hal_i2c.c:1488:9
	ldr	r1, [sp, #32]
	.loc	7 1488 23 is_stmt 0             @ ../Library/STM32F4xx_HAL_Driver/Src/stm32f4xx_hal_i2c.c:1488:23
	ldrh	r0, [r1, #40]
	subs	r0, #1
	strh	r0, [r1, #40]
	.loc	7 1489 7 is_stmt 1              @ ../Library/STM32F4xx_HAL_Driver/Src/stm32f4xx_hal_i2c.c:1489:7
	b	.LBB12_28
.Ltmp298:
.LBB12_28:                              @   in Loop: Header=BB12_22 Depth=1
	.loc	7 1457 5                        @ ../Library/STM32F4xx_HAL_Driver/Src/stm32f4xx_hal_i2c.c:1457:5
	b	.LBB12_22
.LBB12_29:
.Ltmp299:
	.loc	7 1493 36                       @ ../Library/STM32F4xx_HAL_Driver/Src/stm32f4xx_hal_i2c.c:1493:36
	ldr	r0, [sp, #32]
	.loc	7 1493 62 is_stmt 0             @ ../Library/STM32F4xx_HAL_Driver/Src/stm32f4xx_hal_i2c.c:1493:62
	ldr	r3, [sp, #20]
	.loc	7 1493 71                       @ ../Library/STM32F4xx_HAL_Driver/Src/stm32f4xx_hal_i2c.c:1493:71
	ldr	r1, [sp, #16]
	.loc	7 1493 9                        @ ../Library/STM32F4xx_HAL_Driver/Src/stm32f4xx_hal_i2c.c:1493:9
	mov	r2, sp
	str	r1, [r2]
	mov.w	r1, #66560
	movs	r2, #0
	bl	I2C_WaitOnFlagUntilTimeout
.Ltmp300:
	.loc	7 1493 9                        @ ../Library/STM32F4xx_HAL_Driver/Src/stm32f4xx_hal_i2c.c:1493:9
	cbz	r0, .LBB12_31
	b	.LBB12_30
.LBB12_30:
	.loc	7 0 9                           @ ../Library/STM32F4xx_HAL_Driver/Src/stm32f4xx_hal_i2c.c:0:9
	movs	r0, #1
.Ltmp301:
	.loc	7 1495 7 is_stmt 1              @ ../Library/STM32F4xx_HAL_Driver/Src/stm32f4xx_hal_i2c.c:1495:7
	strb.w	r0, [sp, #39]
	b	.LBB12_35
.Ltmp302:
.LBB12_31:
	.loc	7 1499 5                        @ ../Library/STM32F4xx_HAL_Driver/Src/stm32f4xx_hal_i2c.c:1499:5
	ldr	r0, [sp, #32]
	ldr	r1, [r0]
	mvn	r0, #1024
	str	r0, [r1, #20]
	.loc	7 1502 5                        @ ../Library/STM32F4xx_HAL_Driver/Src/stm32f4xx_hal_i2c.c:1502:5
	ldr	r0, [sp, #32]
	ldr	r1, [r0]
	ldr	r0, [r1]
	bic	r0, r0, #1024
	str	r0, [r1]
	.loc	7 1504 5                        @ ../Library/STM32F4xx_HAL_Driver/Src/stm32f4xx_hal_i2c.c:1504:5
	ldr	r1, [sp, #32]
	movs	r0, #32
	.loc	7 1504 17 is_stmt 0             @ ../Library/STM32F4xx_HAL_Driver/Src/stm32f4xx_hal_i2c.c:1504:17
	strb.w	r0, [r1, #61]
	.loc	7 1505 5 is_stmt 1              @ ../Library/STM32F4xx_HAL_Driver/Src/stm32f4xx_hal_i2c.c:1505:5
	ldr	r1, [sp, #32]
	movs	r0, #0
	.loc	7 1505 16 is_stmt 0             @ ../Library/STM32F4xx_HAL_Driver/Src/stm32f4xx_hal_i2c.c:1505:16
	strb.w	r0, [r1, #62]
	.loc	7 1508 5 is_stmt 1              @ ../Library/STM32F4xx_HAL_Driver/Src/stm32f4xx_hal_i2c.c:1508:5
	b	.LBB12_32
.LBB12_32:
.Ltmp303:
	.loc	7 1508 5 is_stmt 0              @ ../Library/STM32F4xx_HAL_Driver/Src/stm32f4xx_hal_i2c.c:1508:5
	ldr	r1, [sp, #32]
	movs	r0, #0
	strb.w	r0, [r1, #60]
	b	.LBB12_33
.Ltmp304:
.LBB12_33:
	.loc	7 0 5                           @ ../Library/STM32F4xx_HAL_Driver/Src/stm32f4xx_hal_i2c.c:0:5
	movs	r0, #0
	.loc	7 1510 5 is_stmt 1              @ ../Library/STM32F4xx_HAL_Driver/Src/stm32f4xx_hal_i2c.c:1510:5
	strb.w	r0, [sp, #39]
	b	.LBB12_35
.Ltmp305:
.LBB12_34:
	.loc	7 0 5 is_stmt 0                 @ ../Library/STM32F4xx_HAL_Driver/Src/stm32f4xx_hal_i2c.c:0:5
	movs	r0, #2
.Ltmp306:
	.loc	7 1514 5 is_stmt 1              @ ../Library/STM32F4xx_HAL_Driver/Src/stm32f4xx_hal_i2c.c:1514:5
	strb.w	r0, [sp, #39]
	b	.LBB12_35
.Ltmp307:
.LBB12_35:
	.loc	7 1516 1                        @ ../Library/STM32F4xx_HAL_Driver/Src/stm32f4xx_hal_i2c.c:1516:1
	ldrb.w	r0, [sp, #39]
	add	sp, #40
	pop	{r7, pc}
.Ltmp308:
.Lfunc_end12:
	.size	HAL_I2C_Slave_Transmit, .Lfunc_end12-HAL_I2C_Slave_Transmit
	.cfi_endproc
	.cantunwind
	.fnend
                                        @ -- End function
	.section	.text.HAL_I2C_Slave_Receive,"ax",%progbits
	.hidden	HAL_I2C_Slave_Receive           @ -- Begin function HAL_I2C_Slave_Receive
	.globl	HAL_I2C_Slave_Receive
	.p2align	2
	.type	HAL_I2C_Slave_Receive,%function
	.code	16                              @ @HAL_I2C_Slave_Receive
	.thumb_func
HAL_I2C_Slave_Receive:
.Lfunc_begin13:
	.loc	7 1528 0                        @ ../Library/STM32F4xx_HAL_Driver/Src/stm32f4xx_hal_i2c.c:1528:0
	.fnstart
	.cfi_startproc
@ %bb.0:
	.save	{r7, lr}
	push	{r7, lr}
	.cfi_def_cfa_offset 8
	.cfi_offset lr, -4
	.cfi_offset r7, -8
	.pad	#40
	sub	sp, #40
	.cfi_def_cfa_offset 48
                                        @ kill: def $r12 killed $r2
	str	r0, [sp, #32]
	str	r1, [sp, #28]
	strh.w	r2, [sp, #26]
	str	r3, [sp, #20]
.Ltmp309:
	.loc	7 1530 24 prologue_end          @ ../Library/STM32F4xx_HAL_Driver/Src/stm32f4xx_hal_i2c.c:1530:24
	bl	HAL_GetTick
	.loc	7 1530 12 is_stmt 0             @ ../Library/STM32F4xx_HAL_Driver/Src/stm32f4xx_hal_i2c.c:1530:12
	str	r0, [sp, #16]
.Ltmp310:
	.loc	7 1532 7 is_stmt 1              @ ../Library/STM32F4xx_HAL_Driver/Src/stm32f4xx_hal_i2c.c:1532:7
	ldr	r0, [sp, #32]
	.loc	7 1532 13 is_stmt 0             @ ../Library/STM32F4xx_HAL_Driver/Src/stm32f4xx_hal_i2c.c:1532:13
	ldrb.w	r0, [r0, #61]
.Ltmp311:
	.loc	7 1532 7                        @ ../Library/STM32F4xx_HAL_Driver/Src/stm32f4xx_hal_i2c.c:1532:7
	cmp	r0, #32
	bne.w	.LBB13_30
	b	.LBB13_1
.LBB13_1:
.Ltmp312:
	.loc	7 1534 10 is_stmt 1             @ ../Library/STM32F4xx_HAL_Driver/Src/stm32f4xx_hal_i2c.c:1534:10
	ldr	r0, [sp, #28]
	.loc	7 1534 25 is_stmt 0             @ ../Library/STM32F4xx_HAL_Driver/Src/stm32f4xx_hal_i2c.c:1534:25
	cbz	r0, .LBB13_3
	b	.LBB13_2
.LBB13_2:
	.loc	7 1534 29                       @ ../Library/STM32F4xx_HAL_Driver/Src/stm32f4xx_hal_i2c.c:1534:29
	ldrh.w	r0, [sp, #26]
.Ltmp313:
	.loc	7 1534 9                        @ ../Library/STM32F4xx_HAL_Driver/Src/stm32f4xx_hal_i2c.c:1534:9
	cbnz	r0, .LBB13_4
	b	.LBB13_3
.LBB13_3:
	.loc	7 0 9                           @ ../Library/STM32F4xx_HAL_Driver/Src/stm32f4xx_hal_i2c.c:0:9
	movs	r0, #1
.Ltmp314:
	.loc	7 1536 7 is_stmt 1              @ ../Library/STM32F4xx_HAL_Driver/Src/stm32f4xx_hal_i2c.c:1536:7
	strb.w	r0, [sp, #39]
	b	.LBB13_31
.Ltmp315:
.LBB13_4:
	.loc	7 1540 5                        @ ../Library/STM32F4xx_HAL_Driver/Src/stm32f4xx_hal_i2c.c:1540:5
	b	.LBB13_5
.LBB13_5:
.Ltmp316:
	.loc	7 1540 5 is_stmt 0              @ ../Library/STM32F4xx_HAL_Driver/Src/stm32f4xx_hal_i2c.c:1540:5
	ldr	r0, [sp, #32]
	ldrb.w	r0, [r0, #60]
.Ltmp317:
	.loc	7 1540 5                        @ ../Library/STM32F4xx_HAL_Driver/Src/stm32f4xx_hal_i2c.c:1540:5
	cmp	r0, #1
	bne	.LBB13_7
	b	.LBB13_6
.LBB13_6:
	.loc	7 0 5                           @ ../Library/STM32F4xx_HAL_Driver/Src/stm32f4xx_hal_i2c.c:0:5
	movs	r0, #2
.Ltmp318:
	.loc	7 1540 5                        @ ../Library/STM32F4xx_HAL_Driver/Src/stm32f4xx_hal_i2c.c:1540:5
	strb.w	r0, [sp, #39]
	b	.LBB13_31
.Ltmp319:
.LBB13_7:
	.loc	7 1540 5                        @ ../Library/STM32F4xx_HAL_Driver/Src/stm32f4xx_hal_i2c.c:1540:5
	ldr	r1, [sp, #32]
	movs	r0, #1
	strb.w	r0, [r1, #60]
	b	.LBB13_8
.Ltmp320:
.LBB13_8:
	.loc	7 1540 5                        @ ../Library/STM32F4xx_HAL_Driver/Src/stm32f4xx_hal_i2c.c:1540:5
	b	.LBB13_9
.Ltmp321:
.LBB13_9:
	.loc	7 1543 10 is_stmt 1             @ ../Library/STM32F4xx_HAL_Driver/Src/stm32f4xx_hal_i2c.c:1543:10
	ldr	r0, [sp, #32]
	.loc	7 1543 16 is_stmt 0             @ ../Library/STM32F4xx_HAL_Driver/Src/stm32f4xx_hal_i2c.c:1543:16
	ldr	r0, [r0]
	.loc	7 1543 26                       @ ../Library/STM32F4xx_HAL_Driver/Src/stm32f4xx_hal_i2c.c:1543:26
	ldr	r0, [r0]
.Ltmp322:
	.loc	7 1543 9                        @ ../Library/STM32F4xx_HAL_Driver/Src/stm32f4xx_hal_i2c.c:1543:9
	lsls	r0, r0, #31
	cbnz	r0, .LBB13_11
	b	.LBB13_10
.LBB13_10:
.Ltmp323:
	.loc	7 1546 7 is_stmt 1              @ ../Library/STM32F4xx_HAL_Driver/Src/stm32f4xx_hal_i2c.c:1546:7
	ldr	r0, [sp, #32]
	ldr	r1, [r0]
	ldr	r0, [r1]
	orr	r0, r0, #1
	str	r0, [r1]
	.loc	7 1547 5                        @ ../Library/STM32F4xx_HAL_Driver/Src/stm32f4xx_hal_i2c.c:1547:5
	b	.LBB13_11
.Ltmp324:
.LBB13_11:
	.loc	7 1550 5                        @ ../Library/STM32F4xx_HAL_Driver/Src/stm32f4xx_hal_i2c.c:1550:5
	ldr	r0, [sp, #32]
	ldr	r1, [r0]
	ldr	r0, [r1]
	bic	r0, r0, #2048
	str	r0, [r1]
	.loc	7 1552 5                        @ ../Library/STM32F4xx_HAL_Driver/Src/stm32f4xx_hal_i2c.c:1552:5
	ldr	r1, [sp, #32]
	movs	r0, #34
	.loc	7 1552 23 is_stmt 0             @ ../Library/STM32F4xx_HAL_Driver/Src/stm32f4xx_hal_i2c.c:1552:23
	strb.w	r0, [r1, #61]
	.loc	7 1553 5 is_stmt 1              @ ../Library/STM32F4xx_HAL_Driver/Src/stm32f4xx_hal_i2c.c:1553:5
	ldr	r1, [sp, #32]
	movs	r0, #32
	.loc	7 1553 23 is_stmt 0             @ ../Library/STM32F4xx_HAL_Driver/Src/stm32f4xx_hal_i2c.c:1553:23
	strb.w	r0, [r1, #62]
	.loc	7 1554 5 is_stmt 1              @ ../Library/STM32F4xx_HAL_Driver/Src/stm32f4xx_hal_i2c.c:1554:5
	ldr	r0, [sp, #32]
	movs	r2, #0
	.loc	7 1554 23 is_stmt 0             @ ../Library/STM32F4xx_HAL_Driver/Src/stm32f4xx_hal_i2c.c:1554:23
	str	r2, [r0, #64]
	.loc	7 1557 25 is_stmt 1             @ ../Library/STM32F4xx_HAL_Driver/Src/stm32f4xx_hal_i2c.c:1557:25
	ldr	r0, [sp, #28]
	.loc	7 1557 5 is_stmt 0              @ ../Library/STM32F4xx_HAL_Driver/Src/stm32f4xx_hal_i2c.c:1557:5
	ldr	r1, [sp, #32]
	.loc	7 1557 23                       @ ../Library/STM32F4xx_HAL_Driver/Src/stm32f4xx_hal_i2c.c:1557:23
	str	r0, [r1, #36]
	.loc	7 1558 25 is_stmt 1             @ ../Library/STM32F4xx_HAL_Driver/Src/stm32f4xx_hal_i2c.c:1558:25
	ldrh.w	r0, [sp, #26]
	.loc	7 1558 5 is_stmt 0              @ ../Library/STM32F4xx_HAL_Driver/Src/stm32f4xx_hal_i2c.c:1558:5
	ldr	r1, [sp, #32]
	.loc	7 1558 23                       @ ../Library/STM32F4xx_HAL_Driver/Src/stm32f4xx_hal_i2c.c:1558:23
	strh	r0, [r1, #42]
	.loc	7 1559 25 is_stmt 1             @ ../Library/STM32F4xx_HAL_Driver/Src/stm32f4xx_hal_i2c.c:1559:25
	ldr	r0, [sp, #32]
	.loc	7 1559 31 is_stmt 0             @ ../Library/STM32F4xx_HAL_Driver/Src/stm32f4xx_hal_i2c.c:1559:31
	ldrh	r0, [r0, #42]
	.loc	7 1559 5                        @ ../Library/STM32F4xx_HAL_Driver/Src/stm32f4xx_hal_i2c.c:1559:5
	ldr	r1, [sp, #32]
	.loc	7 1559 23                       @ ../Library/STM32F4xx_HAL_Driver/Src/stm32f4xx_hal_i2c.c:1559:23
	strh	r0, [r1, #40]
	.loc	7 1560 5 is_stmt 1              @ ../Library/STM32F4xx_HAL_Driver/Src/stm32f4xx_hal_i2c.c:1560:5
	ldr	r1, [sp, #32]
	movs	r0, #0
	movt	r0, #65535
	.loc	7 1560 23 is_stmt 0             @ ../Library/STM32F4xx_HAL_Driver/Src/stm32f4xx_hal_i2c.c:1560:23
	str	r0, [r1, #44]
	.loc	7 1563 5 is_stmt 1              @ ../Library/STM32F4xx_HAL_Driver/Src/stm32f4xx_hal_i2c.c:1563:5
	ldr	r0, [sp, #32]
	ldr	r1, [r0]
	ldr	r0, [r1]
	orr	r0, r0, #1024
	str	r0, [r1]
.Ltmp325:
	.loc	7 1566 36                       @ ../Library/STM32F4xx_HAL_Driver/Src/stm32f4xx_hal_i2c.c:1566:36
	ldr	r0, [sp, #32]
	.loc	7 1566 64 is_stmt 0             @ ../Library/STM32F4xx_HAL_Driver/Src/stm32f4xx_hal_i2c.c:1566:64
	ldr	r3, [sp, #20]
	.loc	7 1566 73                       @ ../Library/STM32F4xx_HAL_Driver/Src/stm32f4xx_hal_i2c.c:1566:73
	ldr	r1, [sp, #16]
	.loc	7 1566 9                        @ ../Library/STM32F4xx_HAL_Driver/Src/stm32f4xx_hal_i2c.c:1566:9
	mov	r12, sp
	str.w	r1, [r12]
	movs	r1, #2
	movt	r1, #1
	bl	I2C_WaitOnFlagUntilTimeout
.Ltmp326:
	.loc	7 1566 9                        @ ../Library/STM32F4xx_HAL_Driver/Src/stm32f4xx_hal_i2c.c:1566:9
	cbz	r0, .LBB13_13
	b	.LBB13_12
.LBB13_12:
	.loc	7 0 9                           @ ../Library/STM32F4xx_HAL_Driver/Src/stm32f4xx_hal_i2c.c:0:9
	movs	r0, #1
.Ltmp327:
	.loc	7 1568 7 is_stmt 1              @ ../Library/STM32F4xx_HAL_Driver/Src/stm32f4xx_hal_i2c.c:1568:7
	strb.w	r0, [sp, #39]
	b	.LBB13_31
.Ltmp328:
.LBB13_13:
	.loc	7 1572 5                        @ ../Library/STM32F4xx_HAL_Driver/Src/stm32f4xx_hal_i2c.c:1572:5
	b	.LBB13_14
.LBB13_14:
	.loc	7 0 5 is_stmt 0                 @ ../Library/STM32F4xx_HAL_Driver/Src/stm32f4xx_hal_i2c.c:0:5
	movs	r0, #0
.Ltmp329:
	.loc	7 1572 5                        @ ../Library/STM32F4xx_HAL_Driver/Src/stm32f4xx_hal_i2c.c:1572:5
	str	r0, [sp, #12]
	ldr	r0, [sp, #32]
	ldr	r0, [r0]
	ldr	r0, [r0, #20]
	str	r0, [sp, #12]
	ldr	r0, [sp, #32]
	ldr	r0, [r0]
	ldr	r0, [r0, #24]
	str	r0, [sp, #12]
	ldr	r0, [sp, #12]
	b	.LBB13_15
.Ltmp330:
.LBB13_15:
	.loc	7 1574 5 is_stmt 1              @ ../Library/STM32F4xx_HAL_Driver/Src/stm32f4xx_hal_i2c.c:1574:5
	b	.LBB13_16
.LBB13_16:                              @ =>This Inner Loop Header: Depth=1
	.loc	7 1574 12 is_stmt 0             @ ../Library/STM32F4xx_HAL_Driver/Src/stm32f4xx_hal_i2c.c:1574:12
	ldr	r0, [sp, #32]
	.loc	7 1574 18                       @ ../Library/STM32F4xx_HAL_Driver/Src/stm32f4xx_hal_i2c.c:1574:18
	ldrh	r0, [r0, #40]
	.loc	7 1574 5                        @ ../Library/STM32F4xx_HAL_Driver/Src/stm32f4xx_hal_i2c.c:1574:5
	cmp	r0, #0
	beq	.LBB13_23
	b	.LBB13_17
.LBB13_17:                              @   in Loop: Header=BB13_16 Depth=1
.Ltmp331:
	.loc	7 1577 42 is_stmt 1             @ ../Library/STM32F4xx_HAL_Driver/Src/stm32f4xx_hal_i2c.c:1577:42
	ldr	r0, [sp, #32]
	.loc	7 1577 48 is_stmt 0             @ ../Library/STM32F4xx_HAL_Driver/Src/stm32f4xx_hal_i2c.c:1577:48
	ldr	r1, [sp, #20]
	.loc	7 1577 57                       @ ../Library/STM32F4xx_HAL_Driver/Src/stm32f4xx_hal_i2c.c:1577:57
	ldr	r2, [sp, #16]
	.loc	7 1577 11                       @ ../Library/STM32F4xx_HAL_Driver/Src/stm32f4xx_hal_i2c.c:1577:11
	bl	I2C_WaitOnRXNEFlagUntilTimeout
.Ltmp332:
	.loc	7 1577 11                       @ ../Library/STM32F4xx_HAL_Driver/Src/stm32f4xx_hal_i2c.c:1577:11
	cbz	r0, .LBB13_19
	b	.LBB13_18
.LBB13_18:
.Ltmp333:
	.loc	7 1580 9 is_stmt 1              @ ../Library/STM32F4xx_HAL_Driver/Src/stm32f4xx_hal_i2c.c:1580:9
	ldr	r0, [sp, #32]
	ldr	r1, [r0]
	ldr	r0, [r1]
	bic	r0, r0, #1024
	str	r0, [r1]
	movs	r0, #1
	.loc	7 1582 9                        @ ../Library/STM32F4xx_HAL_Driver/Src/stm32f4xx_hal_i2c.c:1582:9
	strb.w	r0, [sp, #39]
	b	.LBB13_31
.Ltmp334:
.LBB13_19:                              @   in Loop: Header=BB13_16 Depth=1
	.loc	7 1586 34                       @ ../Library/STM32F4xx_HAL_Driver/Src/stm32f4xx_hal_i2c.c:1586:34
	ldr	r0, [sp, #32]
	.loc	7 1586 40 is_stmt 0             @ ../Library/STM32F4xx_HAL_Driver/Src/stm32f4xx_hal_i2c.c:1586:40
	ldr	r0, [r0]
	.loc	7 1586 50                       @ ../Library/STM32F4xx_HAL_Driver/Src/stm32f4xx_hal_i2c.c:1586:50
	ldr	r0, [r0, #16]
	.loc	7 1586 8                        @ ../Library/STM32F4xx_HAL_Driver/Src/stm32f4xx_hal_i2c.c:1586:8
	ldr	r1, [sp, #32]
	.loc	7 1586 14                       @ ../Library/STM32F4xx_HAL_Driver/Src/stm32f4xx_hal_i2c.c:1586:14
	ldr	r1, [r1, #36]
	.loc	7 1586 23                       @ ../Library/STM32F4xx_HAL_Driver/Src/stm32f4xx_hal_i2c.c:1586:23
	strb	r0, [r1]
	.loc	7 1589 7 is_stmt 1              @ ../Library/STM32F4xx_HAL_Driver/Src/stm32f4xx_hal_i2c.c:1589:7
	ldr	r1, [sp, #32]
	.loc	7 1589 21 is_stmt 0             @ ../Library/STM32F4xx_HAL_Driver/Src/stm32f4xx_hal_i2c.c:1589:21
	ldr	r0, [r1, #36]
	adds	r0, #1
	str	r0, [r1, #36]
	.loc	7 1592 7 is_stmt 1              @ ../Library/STM32F4xx_HAL_Driver/Src/stm32f4xx_hal_i2c.c:1592:7
	ldr	r1, [sp, #32]
	.loc	7 1592 21 is_stmt 0             @ ../Library/STM32F4xx_HAL_Driver/Src/stm32f4xx_hal_i2c.c:1592:21
	ldrh	r0, [r1, #40]
	subs	r0, #1
	strh	r0, [r1, #40]
	.loc	7 1593 7 is_stmt 1              @ ../Library/STM32F4xx_HAL_Driver/Src/stm32f4xx_hal_i2c.c:1593:7
	ldr	r1, [sp, #32]
	.loc	7 1593 22 is_stmt 0             @ ../Library/STM32F4xx_HAL_Driver/Src/stm32f4xx_hal_i2c.c:1593:22
	ldrh	r0, [r1, #42]
	subs	r0, #1
	strh	r0, [r1, #42]
.Ltmp335:
	.loc	7 1595 12 is_stmt 1             @ ../Library/STM32F4xx_HAL_Driver/Src/stm32f4xx_hal_i2c.c:1595:12
	ldr	r0, [sp, #32]
	ldr	r0, [r0]
	ldr	r0, [r0, #20]
	and	r1, r0, #4
	movs	r0, #1
	.loc	7 1595 59 is_stmt 0             @ ../Library/STM32F4xx_HAL_Driver/Src/stm32f4xx_hal_i2c.c:1595:59
	cmp.w	r0, r1, lsr #2
	bne	.LBB13_22
	b	.LBB13_20
.LBB13_20:                              @   in Loop: Header=BB13_16 Depth=1
	.loc	7 1595 63                       @ ../Library/STM32F4xx_HAL_Driver/Src/stm32f4xx_hal_i2c.c:1595:63
	ldr	r0, [sp, #32]
	.loc	7 1595 69                       @ ../Library/STM32F4xx_HAL_Driver/Src/stm32f4xx_hal_i2c.c:1595:69
	ldrh	r0, [r0, #40]
.Ltmp336:
	.loc	7 1595 11                       @ ../Library/STM32F4xx_HAL_Driver/Src/stm32f4xx_hal_i2c.c:1595:11
	cbz	r0, .LBB13_22
	b	.LBB13_21
.LBB13_21:                              @   in Loop: Header=BB13_16 Depth=1
.Ltmp337:
	.loc	7 1598 36 is_stmt 1             @ ../Library/STM32F4xx_HAL_Driver/Src/stm32f4xx_hal_i2c.c:1598:36
	ldr	r0, [sp, #32]
	.loc	7 1598 42 is_stmt 0             @ ../Library/STM32F4xx_HAL_Driver/Src/stm32f4xx_hal_i2c.c:1598:42
	ldr	r0, [r0]
	.loc	7 1598 52                       @ ../Library/STM32F4xx_HAL_Driver/Src/stm32f4xx_hal_i2c.c:1598:52
	ldr	r0, [r0, #16]
	.loc	7 1598 10                       @ ../Library/STM32F4xx_HAL_Driver/Src/stm32f4xx_hal_i2c.c:1598:10
	ldr	r1, [sp, #32]
	.loc	7 1598 16                       @ ../Library/STM32F4xx_HAL_Driver/Src/stm32f4xx_hal_i2c.c:1598:16
	ldr	r1, [r1, #36]
	.loc	7 1598 25                       @ ../Library/STM32F4xx_HAL_Driver/Src/stm32f4xx_hal_i2c.c:1598:25
	strb	r0, [r1]
	.loc	7 1601 9 is_stmt 1              @ ../Library/STM32F4xx_HAL_Driver/Src/stm32f4xx_hal_i2c.c:1601:9
	ldr	r1, [sp, #32]
	.loc	7 1601 23 is_stmt 0             @ ../Library/STM32F4xx_HAL_Driver/Src/stm32f4xx_hal_i2c.c:1601:23
	ldr	r0, [r1, #36]
	adds	r0, #1
	str	r0, [r1, #36]
	.loc	7 1604 9 is_stmt 1              @ ../Library/STM32F4xx_HAL_Driver/Src/stm32f4xx_hal_i2c.c:1604:9
	ldr	r1, [sp, #32]
	.loc	7 1604 23 is_stmt 0             @ ../Library/STM32F4xx_HAL_Driver/Src/stm32f4xx_hal_i2c.c:1604:23
	ldrh	r0, [r1, #40]
	subs	r0, #1
	strh	r0, [r1, #40]
	.loc	7 1605 9 is_stmt 1              @ ../Library/STM32F4xx_HAL_Driver/Src/stm32f4xx_hal_i2c.c:1605:9
	ldr	r1, [sp, #32]
	.loc	7 1605 24 is_stmt 0             @ ../Library/STM32F4xx_HAL_Driver/Src/stm32f4xx_hal_i2c.c:1605:24
	ldrh	r0, [r1, #42]
	subs	r0, #1
	strh	r0, [r1, #42]
	.loc	7 1606 7 is_stmt 1              @ ../Library/STM32F4xx_HAL_Driver/Src/stm32f4xx_hal_i2c.c:1606:7
	b	.LBB13_22
.Ltmp338:
.LBB13_22:                              @   in Loop: Header=BB13_16 Depth=1
	.loc	7 1574 5                        @ ../Library/STM32F4xx_HAL_Driver/Src/stm32f4xx_hal_i2c.c:1574:5
	b	.LBB13_16
.LBB13_23:
.Ltmp339:
	.loc	7 1610 40                       @ ../Library/STM32F4xx_HAL_Driver/Src/stm32f4xx_hal_i2c.c:1610:40
	ldr	r0, [sp, #32]
	.loc	7 1610 46 is_stmt 0             @ ../Library/STM32F4xx_HAL_Driver/Src/stm32f4xx_hal_i2c.c:1610:46
	ldr	r1, [sp, #20]
	.loc	7 1610 55                       @ ../Library/STM32F4xx_HAL_Driver/Src/stm32f4xx_hal_i2c.c:1610:55
	ldr	r2, [sp, #16]
	.loc	7 1610 9                        @ ../Library/STM32F4xx_HAL_Driver/Src/stm32f4xx_hal_i2c.c:1610:9
	bl	I2C_WaitOnSTOPFlagUntilTimeout
.Ltmp340:
	.loc	7 1610 9                        @ ../Library/STM32F4xx_HAL_Driver/Src/stm32f4xx_hal_i2c.c:1610:9
	cbz	r0, .LBB13_25
	b	.LBB13_24
.LBB13_24:
.Ltmp341:
	.loc	7 1613 7 is_stmt 1              @ ../Library/STM32F4xx_HAL_Driver/Src/stm32f4xx_hal_i2c.c:1613:7
	ldr	r0, [sp, #32]
	ldr	r1, [r0]
	ldr	r0, [r1]
	bic	r0, r0, #1024
	str	r0, [r1]
	movs	r0, #1
	.loc	7 1615 7                        @ ../Library/STM32F4xx_HAL_Driver/Src/stm32f4xx_hal_i2c.c:1615:7
	strb.w	r0, [sp, #39]
	b	.LBB13_31
.Ltmp342:
.LBB13_25:
	.loc	7 1619 5                        @ ../Library/STM32F4xx_HAL_Driver/Src/stm32f4xx_hal_i2c.c:1619:5
	b	.LBB13_26
.LBB13_26:
	.loc	7 0 5 is_stmt 0                 @ ../Library/STM32F4xx_HAL_Driver/Src/stm32f4xx_hal_i2c.c:0:5
	movs	r0, #0
.Ltmp343:
	.loc	7 1619 5                        @ ../Library/STM32F4xx_HAL_Driver/Src/stm32f4xx_hal_i2c.c:1619:5
	str	r0, [sp, #8]
	ldr	r0, [sp, #32]
	ldr	r0, [r0]
	ldr	r0, [r0, #20]
	str	r0, [sp, #8]
	ldr	r0, [sp, #32]
	ldr	r1, [r0]
	ldr	r0, [r1]
	orr	r0, r0, #1
	str	r0, [r1]
	ldr	r0, [sp, #8]
	b	.LBB13_27
.Ltmp344:
.LBB13_27:
	.loc	7 1622 5 is_stmt 1              @ ../Library/STM32F4xx_HAL_Driver/Src/stm32f4xx_hal_i2c.c:1622:5
	ldr	r0, [sp, #32]
	ldr	r1, [r0]
	ldr	r0, [r1]
	bic	r0, r0, #1024
	str	r0, [r1]
	.loc	7 1624 5                        @ ../Library/STM32F4xx_HAL_Driver/Src/stm32f4xx_hal_i2c.c:1624:5
	ldr	r1, [sp, #32]
	movs	r0, #32
	.loc	7 1624 17 is_stmt 0             @ ../Library/STM32F4xx_HAL_Driver/Src/stm32f4xx_hal_i2c.c:1624:17
	strb.w	r0, [r1, #61]
	.loc	7 1625 5 is_stmt 1              @ ../Library/STM32F4xx_HAL_Driver/Src/stm32f4xx_hal_i2c.c:1625:5
	ldr	r1, [sp, #32]
	movs	r0, #0
	.loc	7 1625 16 is_stmt 0             @ ../Library/STM32F4xx_HAL_Driver/Src/stm32f4xx_hal_i2c.c:1625:16
	strb.w	r0, [r1, #62]
	.loc	7 1628 5 is_stmt 1              @ ../Library/STM32F4xx_HAL_Driver/Src/stm32f4xx_hal_i2c.c:1628:5
	b	.LBB13_28
.LBB13_28:
.Ltmp345:
	.loc	7 1628 5 is_stmt 0              @ ../Library/STM32F4xx_HAL_Driver/Src/stm32f4xx_hal_i2c.c:1628:5
	ldr	r1, [sp, #32]
	movs	r0, #0
	strb.w	r0, [r1, #60]
	b	.LBB13_29
.Ltmp346:
.LBB13_29:
	.loc	7 0 5                           @ ../Library/STM32F4xx_HAL_Driver/Src/stm32f4xx_hal_i2c.c:0:5
	movs	r0, #0
	.loc	7 1630 5 is_stmt 1              @ ../Library/STM32F4xx_HAL_Driver/Src/stm32f4xx_hal_i2c.c:1630:5
	strb.w	r0, [sp, #39]
	b	.LBB13_31
.Ltmp347:
.LBB13_30:
	.loc	7 0 5 is_stmt 0                 @ ../Library/STM32F4xx_HAL_Driver/Src/stm32f4xx_hal_i2c.c:0:5
	movs	r0, #2
.Ltmp348:
	.loc	7 1634 5 is_stmt 1              @ ../Library/STM32F4xx_HAL_Driver/Src/stm32f4xx_hal_i2c.c:1634:5
	strb.w	r0, [sp, #39]
	b	.LBB13_31
.Ltmp349:
.LBB13_31:
	.loc	7 1636 1                        @ ../Library/STM32F4xx_HAL_Driver/Src/stm32f4xx_hal_i2c.c:1636:1
	ldrb.w	r0, [sp, #39]
	add	sp, #40
	pop	{r7, pc}
.Ltmp350:
.Lfunc_end13:
	.size	HAL_I2C_Slave_Receive, .Lfunc_end13-HAL_I2C_Slave_Receive
	.cfi_endproc
	.cantunwind
	.fnend
                                        @ -- End function
	.section	.text.I2C_WaitOnSTOPFlagUntilTimeout,"ax",%progbits
	.p2align	2                               @ -- Begin function I2C_WaitOnSTOPFlagUntilTimeout
	.type	I2C_WaitOnSTOPFlagUntilTimeout,%function
	.code	16                              @ @I2C_WaitOnSTOPFlagUntilTimeout
	.thumb_func
I2C_WaitOnSTOPFlagUntilTimeout:
.Lfunc_begin14:
	.loc	7 7357 0                        @ ../Library/STM32F4xx_HAL_Driver/Src/stm32f4xx_hal_i2c.c:7357:0
	.fnstart
	.cfi_startproc
@ %bb.0:
	.save	{r7, lr}
	push	{r7, lr}
	.cfi_def_cfa_offset 8
	.cfi_offset lr, -4
	.cfi_offset r7, -8
	.pad	#16
	sub	sp, #16
	.cfi_def_cfa_offset 24
	str	r0, [sp, #8]
	str	r1, [sp, #4]
	str	r2, [sp]
.Ltmp351:
	.loc	7 7358 3 prologue_end           @ ../Library/STM32F4xx_HAL_Driver/Src/stm32f4xx_hal_i2c.c:7358:3
	b	.LBB14_1
.LBB14_1:                               @ =>This Inner Loop Header: Depth=1
	.loc	7 7358 10 is_stmt 0             @ ../Library/STM32F4xx_HAL_Driver/Src/stm32f4xx_hal_i2c.c:7358:10
	ldr	r0, [sp, #8]
	ldr	r0, [r0]
	ldr	r0, [r0, #20]
	and	r1, r0, #16
	movs	r0, #0
	.loc	7 7358 3                        @ ../Library/STM32F4xx_HAL_Driver/Src/stm32f4xx_hal_i2c.c:7358:3
	cmp.w	r0, r1, lsr #4
	bne	.LBB14_10
	b	.LBB14_2
.LBB14_2:                               @   in Loop: Header=BB14_1 Depth=1
.Ltmp352:
	.loc	7 7361 33 is_stmt 1             @ ../Library/STM32F4xx_HAL_Driver/Src/stm32f4xx_hal_i2c.c:7361:33
	ldr	r0, [sp, #8]
	.loc	7 7361 9 is_stmt 0              @ ../Library/STM32F4xx_HAL_Driver/Src/stm32f4xx_hal_i2c.c:7361:9
	bl	I2C_IsAcknowledgeFailed
.Ltmp353:
	.loc	7 7361 9                        @ ../Library/STM32F4xx_HAL_Driver/Src/stm32f4xx_hal_i2c.c:7361:9
	cbz	r0, .LBB14_4
	b	.LBB14_3
.LBB14_3:
	.loc	7 0 9                           @ ../Library/STM32F4xx_HAL_Driver/Src/stm32f4xx_hal_i2c.c:0:9
	movs	r0, #1
.Ltmp354:
	.loc	7 7363 7 is_stmt 1              @ ../Library/STM32F4xx_HAL_Driver/Src/stm32f4xx_hal_i2c.c:7363:7
	strb.w	r0, [sp, #15]
	b	.LBB14_11
.Ltmp355:
.LBB14_4:                               @   in Loop: Header=BB14_1 Depth=1
	.loc	7 7367 11                       @ ../Library/STM32F4xx_HAL_Driver/Src/stm32f4xx_hal_i2c.c:7367:11
	bl	HAL_GetTick
	.loc	7 7367 27 is_stmt 0             @ ../Library/STM32F4xx_HAL_Driver/Src/stm32f4xx_hal_i2c.c:7367:27
	ldr	r1, [sp]
	.loc	7 7367 25                       @ ../Library/STM32F4xx_HAL_Driver/Src/stm32f4xx_hal_i2c.c:7367:25
	subs	r0, r0, r1
	.loc	7 7367 40                       @ ../Library/STM32F4xx_HAL_Driver/Src/stm32f4xx_hal_i2c.c:7367:40
	ldr	r1, [sp, #4]
	.loc	7 7367 49                       @ ../Library/STM32F4xx_HAL_Driver/Src/stm32f4xx_hal_i2c.c:7367:49
	cmp	r0, r1
	bhi	.LBB14_6
	b	.LBB14_5
.LBB14_5:                               @   in Loop: Header=BB14_1 Depth=1
	.loc	7 7367 53                       @ ../Library/STM32F4xx_HAL_Driver/Src/stm32f4xx_hal_i2c.c:7367:53
	ldr	r0, [sp, #4]
.Ltmp356:
	.loc	7 7367 9                        @ ../Library/STM32F4xx_HAL_Driver/Src/stm32f4xx_hal_i2c.c:7367:9
	cbnz	r0, .LBB14_9
	b	.LBB14_6
.LBB14_6:
.Ltmp357:
	.loc	7 7369 7 is_stmt 1              @ ../Library/STM32F4xx_HAL_Driver/Src/stm32f4xx_hal_i2c.c:7369:7
	ldr	r1, [sp, #8]
	movs	r0, #0
	.loc	7 7369 33 is_stmt 0             @ ../Library/STM32F4xx_HAL_Driver/Src/stm32f4xx_hal_i2c.c:7369:33
	str	r0, [r1, #48]
	.loc	7 7370 7 is_stmt 1              @ ../Library/STM32F4xx_HAL_Driver/Src/stm32f4xx_hal_i2c.c:7370:7
	ldr	r2, [sp, #8]
	movs	r1, #32
	.loc	7 7370 33 is_stmt 0             @ ../Library/STM32F4xx_HAL_Driver/Src/stm32f4xx_hal_i2c.c:7370:33
	strb.w	r1, [r2, #61]
	.loc	7 7371 7 is_stmt 1              @ ../Library/STM32F4xx_HAL_Driver/Src/stm32f4xx_hal_i2c.c:7371:7
	ldr	r1, [sp, #8]
	.loc	7 7371 33 is_stmt 0             @ ../Library/STM32F4xx_HAL_Driver/Src/stm32f4xx_hal_i2c.c:7371:33
	strb.w	r0, [r1, #62]
	.loc	7 7372 7 is_stmt 1              @ ../Library/STM32F4xx_HAL_Driver/Src/stm32f4xx_hal_i2c.c:7372:7
	ldr	r1, [sp, #8]
	.loc	7 7372 33 is_stmt 0             @ ../Library/STM32F4xx_HAL_Driver/Src/stm32f4xx_hal_i2c.c:7372:33
	ldr	r0, [r1, #64]
	orr	r0, r0, #32
	str	r0, [r1, #64]
	.loc	7 7375 7 is_stmt 1              @ ../Library/STM32F4xx_HAL_Driver/Src/stm32f4xx_hal_i2c.c:7375:7
	b	.LBB14_7
.LBB14_7:
.Ltmp358:
	.loc	7 7375 7 is_stmt 0              @ ../Library/STM32F4xx_HAL_Driver/Src/stm32f4xx_hal_i2c.c:7375:7
	ldr	r1, [sp, #8]
	movs	r0, #0
	strb.w	r0, [r1, #60]
	b	.LBB14_8
.Ltmp359:
.LBB14_8:
	.loc	7 0 7                           @ ../Library/STM32F4xx_HAL_Driver/Src/stm32f4xx_hal_i2c.c:0:7
	movs	r0, #1
	.loc	7 7377 7 is_stmt 1              @ ../Library/STM32F4xx_HAL_Driver/Src/stm32f4xx_hal_i2c.c:7377:7
	strb.w	r0, [sp, #15]
	b	.LBB14_11
.Ltmp360:
.LBB14_9:                               @   in Loop: Header=BB14_1 Depth=1
	.loc	7 7358 3                        @ ../Library/STM32F4xx_HAL_Driver/Src/stm32f4xx_hal_i2c.c:7358:3
	b	.LBB14_1
.LBB14_10:
	.loc	7 0 3 is_stmt 0                 @ ../Library/STM32F4xx_HAL_Driver/Src/stm32f4xx_hal_i2c.c:0:3
	movs	r0, #0
	.loc	7 7380 3 is_stmt 1              @ ../Library/STM32F4xx_HAL_Driver/Src/stm32f4xx_hal_i2c.c:7380:3
	strb.w	r0, [sp, #15]
	b	.LBB14_11
.LBB14_11:
	.loc	7 7381 1                        @ ../Library/STM32F4xx_HAL_Driver/Src/stm32f4xx_hal_i2c.c:7381:1
	ldrb.w	r0, [sp, #15]
	add	sp, #16
	pop	{r7, pc}
.Ltmp361:
.Lfunc_end14:
	.size	I2C_WaitOnSTOPFlagUntilTimeout, .Lfunc_end14-I2C_WaitOnSTOPFlagUntilTimeout
	.cfi_endproc
	.cantunwind
	.fnend
                                        @ -- End function
	.section	.text.HAL_I2C_Master_Transmit_IT,"ax",%progbits
	.hidden	HAL_I2C_Master_Transmit_IT      @ -- Begin function HAL_I2C_Master_Transmit_IT
	.globl	HAL_I2C_Master_Transmit_IT
	.p2align	2
	.type	HAL_I2C_Master_Transmit_IT,%function
	.code	16                              @ @HAL_I2C_Master_Transmit_IT
	.thumb_func
HAL_I2C_Master_Transmit_IT:
.Lfunc_begin15:
	.loc	7 1649 0                        @ ../Library/STM32F4xx_HAL_Driver/Src/stm32f4xx_hal_i2c.c:1649:0
	.fnstart
	.cfi_startproc
@ %bb.0:
	.pad	#24
	sub	sp, #24
	.cfi_def_cfa_offset 24
                                        @ kill: def $r12 killed $r3
                                        @ kill: def $r12 killed $r1
	str	r0, [sp, #16]
	strh.w	r1, [sp, #14]
	str	r2, [sp, #8]
	strh.w	r3, [sp, #6]
	movs	r0, #0
.Ltmp362:
	.loc	7 1650 17 prologue_end          @ ../Library/STM32F4xx_HAL_Driver/Src/stm32f4xx_hal_i2c.c:1650:17
	str	r0, [sp]
.Ltmp363:
	.loc	7 1652 7                        @ ../Library/STM32F4xx_HAL_Driver/Src/stm32f4xx_hal_i2c.c:1652:7
	ldr	r0, [sp, #16]
	.loc	7 1652 13 is_stmt 0             @ ../Library/STM32F4xx_HAL_Driver/Src/stm32f4xx_hal_i2c.c:1652:13
	ldrb.w	r0, [r0, #61]
.Ltmp364:
	.loc	7 1652 7                        @ ../Library/STM32F4xx_HAL_Driver/Src/stm32f4xx_hal_i2c.c:1652:7
	cmp	r0, #32
	bne.w	.LBB15_18
	b	.LBB15_1
.LBB15_1:
.Ltmp365:
	.loc	7 1655 38 is_stmt 1             @ ../Library/STM32F4xx_HAL_Driver/Src/stm32f4xx_hal_i2c.c:1655:38
	movw	r0, :lower16:SystemCoreClock
	movt	r0, :upper16:SystemCoreClock
	ldr	r0, [r0]
	movw	r1, #34079
	movt	r1, #20971
	.loc	7 1655 54 is_stmt 0             @ ../Library/STM32F4xx_HAL_Driver/Src/stm32f4xx_hal_i2c.c:1655:54
	umull	r1, r0, r0, r1
	lsrs	r0, r0, #3
	movw	r1, #19923
	movt	r1, #4194
	.loc	7 1655 60                       @ ../Library/STM32F4xx_HAL_Driver/Src/stm32f4xx_hal_i2c.c:1655:60
	umull	r1, r0, r0, r1
	lsrs	r0, r0, #6
	movs	r1, #25
	.loc	7 1655 35                       @ ../Library/STM32F4xx_HAL_Driver/Src/stm32f4xx_hal_i2c.c:1655:35
	muls	r0, r1, r0
	.loc	7 1655 11                       @ ../Library/STM32F4xx_HAL_Driver/Src/stm32f4xx_hal_i2c.c:1655:11
	str	r0, [sp]
	.loc	7 1656 5 is_stmt 1              @ ../Library/STM32F4xx_HAL_Driver/Src/stm32f4xx_hal_i2c.c:1656:5
	b	.LBB15_2
.LBB15_2:                               @ =>This Inner Loop Header: Depth=1
.Ltmp366:
	.loc	7 1658 12                       @ ../Library/STM32F4xx_HAL_Driver/Src/stm32f4xx_hal_i2c.c:1658:12
	ldr	r0, [sp]
	subs	r0, #1
	str	r0, [sp]
.Ltmp367:
	.loc	7 1659 11                       @ ../Library/STM32F4xx_HAL_Driver/Src/stm32f4xx_hal_i2c.c:1659:11
	ldr	r0, [sp]
.Ltmp368:
	.loc	7 1659 11 is_stmt 0             @ ../Library/STM32F4xx_HAL_Driver/Src/stm32f4xx_hal_i2c.c:1659:11
	cbnz	r0, .LBB15_6
	b	.LBB15_3
.LBB15_3:
.Ltmp369:
	.loc	7 1661 9 is_stmt 1              @ ../Library/STM32F4xx_HAL_Driver/Src/stm32f4xx_hal_i2c.c:1661:9
	ldr	r1, [sp, #16]
	movs	r0, #0
	.loc	7 1661 35 is_stmt 0             @ ../Library/STM32F4xx_HAL_Driver/Src/stm32f4xx_hal_i2c.c:1661:35
	str	r0, [r1, #48]
	.loc	7 1662 9 is_stmt 1              @ ../Library/STM32F4xx_HAL_Driver/Src/stm32f4xx_hal_i2c.c:1662:9
	ldr	r2, [sp, #16]
	movs	r1, #32
	.loc	7 1662 35 is_stmt 0             @ ../Library/STM32F4xx_HAL_Driver/Src/stm32f4xx_hal_i2c.c:1662:35
	strb.w	r1, [r2, #61]
	.loc	7 1663 9 is_stmt 1              @ ../Library/STM32F4xx_HAL_Driver/Src/stm32f4xx_hal_i2c.c:1663:9
	ldr	r1, [sp, #16]
	.loc	7 1663 35 is_stmt 0             @ ../Library/STM32F4xx_HAL_Driver/Src/stm32f4xx_hal_i2c.c:1663:35
	strb.w	r0, [r1, #62]
	.loc	7 1664 9 is_stmt 1              @ ../Library/STM32F4xx_HAL_Driver/Src/stm32f4xx_hal_i2c.c:1664:9
	ldr	r1, [sp, #16]
	.loc	7 1664 35 is_stmt 0             @ ../Library/STM32F4xx_HAL_Driver/Src/stm32f4xx_hal_i2c.c:1664:35
	ldr	r0, [r1, #64]
	orr	r0, r0, #32
	str	r0, [r1, #64]
	.loc	7 1667 9 is_stmt 1              @ ../Library/STM32F4xx_HAL_Driver/Src/stm32f4xx_hal_i2c.c:1667:9
	b	.LBB15_4
.LBB15_4:
.Ltmp370:
	.loc	7 1667 9 is_stmt 0              @ ../Library/STM32F4xx_HAL_Driver/Src/stm32f4xx_hal_i2c.c:1667:9
	ldr	r1, [sp, #16]
	movs	r0, #0
	strb.w	r0, [r1, #60]
	b	.LBB15_5
.Ltmp371:
.LBB15_5:
	.loc	7 0 9                           @ ../Library/STM32F4xx_HAL_Driver/Src/stm32f4xx_hal_i2c.c:0:9
	movs	r0, #1
	.loc	7 1669 9 is_stmt 1              @ ../Library/STM32F4xx_HAL_Driver/Src/stm32f4xx_hal_i2c.c:1669:9
	strb.w	r0, [sp, #23]
	b	.LBB15_19
.Ltmp372:
.LBB15_6:                               @   in Loop: Header=BB15_2 Depth=1
	.loc	7 1671 5                        @ ../Library/STM32F4xx_HAL_Driver/Src/stm32f4xx_hal_i2c.c:1671:5
	b	.LBB15_7
.Ltmp373:
.LBB15_7:                               @   in Loop: Header=BB15_2 Depth=1
	.loc	7 1672 12                       @ ../Library/STM32F4xx_HAL_Driver/Src/stm32f4xx_hal_i2c.c:1672:12
	ldr	r0, [sp, #16]
	ldr	r0, [r0]
	ldr	r0, [r0, #24]
	and	r1, r0, #2
	movs	r0, #0
.Ltmp374:
	.loc	7 1671 5                        @ ../Library/STM32F4xx_HAL_Driver/Src/stm32f4xx_hal_i2c.c:1671:5
	cmp.w	r0, r1, lsr #1
	bne	.LBB15_2
	b	.LBB15_8
.Ltmp375:
.LBB15_8:
	.loc	7 1675 5                        @ ../Library/STM32F4xx_HAL_Driver/Src/stm32f4xx_hal_i2c.c:1675:5
	b	.LBB15_9
.LBB15_9:
.Ltmp376:
	.loc	7 1675 5 is_stmt 0              @ ../Library/STM32F4xx_HAL_Driver/Src/stm32f4xx_hal_i2c.c:1675:5
	ldr	r0, [sp, #16]
	ldrb.w	r0, [r0, #60]
.Ltmp377:
	.loc	7 1675 5                        @ ../Library/STM32F4xx_HAL_Driver/Src/stm32f4xx_hal_i2c.c:1675:5
	cmp	r0, #1
	bne	.LBB15_11
	b	.LBB15_10
.LBB15_10:
	.loc	7 0 5                           @ ../Library/STM32F4xx_HAL_Driver/Src/stm32f4xx_hal_i2c.c:0:5
	movs	r0, #2
.Ltmp378:
	.loc	7 1675 5                        @ ../Library/STM32F4xx_HAL_Driver/Src/stm32f4xx_hal_i2c.c:1675:5
	strb.w	r0, [sp, #23]
	b	.LBB15_19
.Ltmp379:
.LBB15_11:
	.loc	7 1675 5                        @ ../Library/STM32F4xx_HAL_Driver/Src/stm32f4xx_hal_i2c.c:1675:5
	ldr	r1, [sp, #16]
	movs	r0, #1
	strb.w	r0, [r1, #60]
	b	.LBB15_12
.Ltmp380:
.LBB15_12:
	.loc	7 1675 5                        @ ../Library/STM32F4xx_HAL_Driver/Src/stm32f4xx_hal_i2c.c:1675:5
	b	.LBB15_13
.Ltmp381:
.LBB15_13:
	.loc	7 1678 10 is_stmt 1             @ ../Library/STM32F4xx_HAL_Driver/Src/stm32f4xx_hal_i2c.c:1678:10
	ldr	r0, [sp, #16]
	.loc	7 1678 16 is_stmt 0             @ ../Library/STM32F4xx_HAL_Driver/Src/stm32f4xx_hal_i2c.c:1678:16
	ldr	r0, [r0]
	.loc	7 1678 26                       @ ../Library/STM32F4xx_HAL_Driver/Src/stm32f4xx_hal_i2c.c:1678:26
	ldr	r0, [r0]
.Ltmp382:
	.loc	7 1678 9                        @ ../Library/STM32F4xx_HAL_Driver/Src/stm32f4xx_hal_i2c.c:1678:9
	lsls	r0, r0, #31
	cbnz	r0, .LBB15_15
	b	.LBB15_14
.LBB15_14:
.Ltmp383:
	.loc	7 1681 7 is_stmt 1              @ ../Library/STM32F4xx_HAL_Driver/Src/stm32f4xx_hal_i2c.c:1681:7
	ldr	r0, [sp, #16]
	ldr	r1, [r0]
	ldr	r0, [r1]
	orr	r0, r0, #1
	str	r0, [r1]
	.loc	7 1682 5                        @ ../Library/STM32F4xx_HAL_Driver/Src/stm32f4xx_hal_i2c.c:1682:5
	b	.LBB15_15
.Ltmp384:
.LBB15_15:
	.loc	7 1685 5                        @ ../Library/STM32F4xx_HAL_Driver/Src/stm32f4xx_hal_i2c.c:1685:5
	ldr	r0, [sp, #16]
	ldr	r1, [r0]
	ldr	r0, [r1]
	bic	r0, r0, #2048
	str	r0, [r1]
	.loc	7 1687 5                        @ ../Library/STM32F4xx_HAL_Driver/Src/stm32f4xx_hal_i2c.c:1687:5
	ldr	r1, [sp, #16]
	movs	r0, #33
	.loc	7 1687 21 is_stmt 0             @ ../Library/STM32F4xx_HAL_Driver/Src/stm32f4xx_hal_i2c.c:1687:21
	strb.w	r0, [r1, #61]
	.loc	7 1688 5 is_stmt 1              @ ../Library/STM32F4xx_HAL_Driver/Src/stm32f4xx_hal_i2c.c:1688:5
	ldr	r1, [sp, #16]
	movs	r0, #16
	.loc	7 1688 21 is_stmt 0             @ ../Library/STM32F4xx_HAL_Driver/Src/stm32f4xx_hal_i2c.c:1688:21
	strb.w	r0, [r1, #62]
	.loc	7 1689 5 is_stmt 1              @ ../Library/STM32F4xx_HAL_Driver/Src/stm32f4xx_hal_i2c.c:1689:5
	ldr	r1, [sp, #16]
	movs	r0, #0
	.loc	7 1689 21 is_stmt 0             @ ../Library/STM32F4xx_HAL_Driver/Src/stm32f4xx_hal_i2c.c:1689:21
	str	r0, [r1, #64]
	.loc	7 1692 25 is_stmt 1             @ ../Library/STM32F4xx_HAL_Driver/Src/stm32f4xx_hal_i2c.c:1692:25
	ldr	r0, [sp, #8]
	.loc	7 1692 5 is_stmt 0              @ ../Library/STM32F4xx_HAL_Driver/Src/stm32f4xx_hal_i2c.c:1692:5
	ldr	r1, [sp, #16]
	.loc	7 1692 23                       @ ../Library/STM32F4xx_HAL_Driver/Src/stm32f4xx_hal_i2c.c:1692:23
	str	r0, [r1, #36]
	.loc	7 1693 25 is_stmt 1             @ ../Library/STM32F4xx_HAL_Driver/Src/stm32f4xx_hal_i2c.c:1693:25
	ldrh.w	r0, [sp, #6]
	.loc	7 1693 5 is_stmt 0              @ ../Library/STM32F4xx_HAL_Driver/Src/stm32f4xx_hal_i2c.c:1693:5
	ldr	r1, [sp, #16]
	.loc	7 1693 23                       @ ../Library/STM32F4xx_HAL_Driver/Src/stm32f4xx_hal_i2c.c:1693:23
	strh	r0, [r1, #42]
	.loc	7 1694 25 is_stmt 1             @ ../Library/STM32F4xx_HAL_Driver/Src/stm32f4xx_hal_i2c.c:1694:25
	ldr	r0, [sp, #16]
	.loc	7 1694 31 is_stmt 0             @ ../Library/STM32F4xx_HAL_Driver/Src/stm32f4xx_hal_i2c.c:1694:31
	ldrh	r0, [r0, #42]
	.loc	7 1694 5                        @ ../Library/STM32F4xx_HAL_Driver/Src/stm32f4xx_hal_i2c.c:1694:5
	ldr	r1, [sp, #16]
	.loc	7 1694 23                       @ ../Library/STM32F4xx_HAL_Driver/Src/stm32f4xx_hal_i2c.c:1694:23
	strh	r0, [r1, #40]
	.loc	7 1695 5 is_stmt 1              @ ../Library/STM32F4xx_HAL_Driver/Src/stm32f4xx_hal_i2c.c:1695:5
	ldr	r1, [sp, #16]
	movs	r0, #0
	movt	r0, #65535
	.loc	7 1695 23 is_stmt 0             @ ../Library/STM32F4xx_HAL_Driver/Src/stm32f4xx_hal_i2c.c:1695:23
	str	r0, [r1, #44]
	.loc	7 1696 25 is_stmt 1             @ ../Library/STM32F4xx_HAL_Driver/Src/stm32f4xx_hal_i2c.c:1696:25
	ldrh.w	r0, [sp, #14]
	.loc	7 1696 5 is_stmt 0              @ ../Library/STM32F4xx_HAL_Driver/Src/stm32f4xx_hal_i2c.c:1696:5
	ldr	r1, [sp, #16]
	.loc	7 1696 23                       @ ../Library/STM32F4xx_HAL_Driver/Src/stm32f4xx_hal_i2c.c:1696:23
	str	r0, [r1, #68]
	.loc	7 1699 5 is_stmt 1              @ ../Library/STM32F4xx_HAL_Driver/Src/stm32f4xx_hal_i2c.c:1699:5
	b	.LBB15_16
.LBB15_16:
.Ltmp385:
	.loc	7 1699 5 is_stmt 0              @ ../Library/STM32F4xx_HAL_Driver/Src/stm32f4xx_hal_i2c.c:1699:5
	ldr	r1, [sp, #16]
	movs	r0, #0
	strb.w	r0, [r1, #60]
	b	.LBB15_17
.Ltmp386:
.LBB15_17:
	.loc	7 1705 5 is_stmt 1              @ ../Library/STM32F4xx_HAL_Driver/Src/stm32f4xx_hal_i2c.c:1705:5
	ldr	r0, [sp, #16]
	ldr	r1, [r0]
	ldr	r0, [r1, #4]
	orr	r0, r0, #1792
	str	r0, [r1, #4]
	.loc	7 1708 5                        @ ../Library/STM32F4xx_HAL_Driver/Src/stm32f4xx_hal_i2c.c:1708:5
	ldr	r0, [sp, #16]
	ldr	r1, [r0]
	ldr	r0, [r1]
	orr	r0, r0, #256
	str	r0, [r1]
	movs	r0, #0
	.loc	7 1710 5                        @ ../Library/STM32F4xx_HAL_Driver/Src/stm32f4xx_hal_i2c.c:1710:5
	strb.w	r0, [sp, #23]
	b	.LBB15_19
.Ltmp387:
.LBB15_18:
	.loc	7 0 5 is_stmt 0                 @ ../Library/STM32F4xx_HAL_Driver/Src/stm32f4xx_hal_i2c.c:0:5
	movs	r0, #2
.Ltmp388:
	.loc	7 1714 5 is_stmt 1              @ ../Library/STM32F4xx_HAL_Driver/Src/stm32f4xx_hal_i2c.c:1714:5
	strb.w	r0, [sp, #23]
	b	.LBB15_19
.Ltmp389:
.LBB15_19:
	.loc	7 1716 1                        @ ../Library/STM32F4xx_HAL_Driver/Src/stm32f4xx_hal_i2c.c:1716:1
	ldrb.w	r0, [sp, #23]
	add	sp, #24
	bx	lr
.Ltmp390:
.Lfunc_end15:
	.size	HAL_I2C_Master_Transmit_IT, .Lfunc_end15-HAL_I2C_Master_Transmit_IT
	.cfi_endproc
	.cantunwind
	.fnend
                                        @ -- End function
	.section	.text.HAL_I2C_Master_Receive_IT,"ax",%progbits
	.hidden	HAL_I2C_Master_Receive_IT       @ -- Begin function HAL_I2C_Master_Receive_IT
	.globl	HAL_I2C_Master_Receive_IT
	.p2align	2
	.type	HAL_I2C_Master_Receive_IT,%function
	.code	16                              @ @HAL_I2C_Master_Receive_IT
	.thumb_func
HAL_I2C_Master_Receive_IT:
.Lfunc_begin16:
	.loc	7 1729 0                        @ ../Library/STM32F4xx_HAL_Driver/Src/stm32f4xx_hal_i2c.c:1729:0
	.fnstart
	.cfi_startproc
@ %bb.0:
	.pad	#24
	sub	sp, #24
	.cfi_def_cfa_offset 24
                                        @ kill: def $r12 killed $r3
                                        @ kill: def $r12 killed $r1
	str	r0, [sp, #16]
	strh.w	r1, [sp, #14]
	str	r2, [sp, #8]
	strh.w	r3, [sp, #6]
	movs	r0, #0
.Ltmp391:
	.loc	7 1730 17 prologue_end          @ ../Library/STM32F4xx_HAL_Driver/Src/stm32f4xx_hal_i2c.c:1730:17
	str	r0, [sp]
.Ltmp392:
	.loc	7 1732 7                        @ ../Library/STM32F4xx_HAL_Driver/Src/stm32f4xx_hal_i2c.c:1732:7
	ldr	r0, [sp, #16]
	.loc	7 1732 13 is_stmt 0             @ ../Library/STM32F4xx_HAL_Driver/Src/stm32f4xx_hal_i2c.c:1732:13
	ldrb.w	r0, [r0, #61]
.Ltmp393:
	.loc	7 1732 7                        @ ../Library/STM32F4xx_HAL_Driver/Src/stm32f4xx_hal_i2c.c:1732:7
	cmp	r0, #32
	bne.w	.LBB16_18
	b	.LBB16_1
.LBB16_1:
.Ltmp394:
	.loc	7 1735 38 is_stmt 1             @ ../Library/STM32F4xx_HAL_Driver/Src/stm32f4xx_hal_i2c.c:1735:38
	movw	r0, :lower16:SystemCoreClock
	movt	r0, :upper16:SystemCoreClock
	ldr	r0, [r0]
	movw	r1, #34079
	movt	r1, #20971
	.loc	7 1735 54 is_stmt 0             @ ../Library/STM32F4xx_HAL_Driver/Src/stm32f4xx_hal_i2c.c:1735:54
	umull	r1, r0, r0, r1
	lsrs	r0, r0, #3
	movw	r1, #19923
	movt	r1, #4194
	.loc	7 1735 60                       @ ../Library/STM32F4xx_HAL_Driver/Src/stm32f4xx_hal_i2c.c:1735:60
	umull	r1, r0, r0, r1
	lsrs	r0, r0, #6
	movs	r1, #25
	.loc	7 1735 35                       @ ../Library/STM32F4xx_HAL_Driver/Src/stm32f4xx_hal_i2c.c:1735:35
	muls	r0, r1, r0
	.loc	7 1735 11                       @ ../Library/STM32F4xx_HAL_Driver/Src/stm32f4xx_hal_i2c.c:1735:11
	str	r0, [sp]
	.loc	7 1736 5 is_stmt 1              @ ../Library/STM32F4xx_HAL_Driver/Src/stm32f4xx_hal_i2c.c:1736:5
	b	.LBB16_2
.LBB16_2:                               @ =>This Inner Loop Header: Depth=1
.Ltmp395:
	.loc	7 1738 12                       @ ../Library/STM32F4xx_HAL_Driver/Src/stm32f4xx_hal_i2c.c:1738:12
	ldr	r0, [sp]
	subs	r0, #1
	str	r0, [sp]
.Ltmp396:
	.loc	7 1739 11                       @ ../Library/STM32F4xx_HAL_Driver/Src/stm32f4xx_hal_i2c.c:1739:11
	ldr	r0, [sp]
.Ltmp397:
	.loc	7 1739 11 is_stmt 0             @ ../Library/STM32F4xx_HAL_Driver/Src/stm32f4xx_hal_i2c.c:1739:11
	cbnz	r0, .LBB16_6
	b	.LBB16_3
.LBB16_3:
.Ltmp398:
	.loc	7 1741 9 is_stmt 1              @ ../Library/STM32F4xx_HAL_Driver/Src/stm32f4xx_hal_i2c.c:1741:9
	ldr	r1, [sp, #16]
	movs	r0, #0
	.loc	7 1741 35 is_stmt 0             @ ../Library/STM32F4xx_HAL_Driver/Src/stm32f4xx_hal_i2c.c:1741:35
	str	r0, [r1, #48]
	.loc	7 1742 9 is_stmt 1              @ ../Library/STM32F4xx_HAL_Driver/Src/stm32f4xx_hal_i2c.c:1742:9
	ldr	r2, [sp, #16]
	movs	r1, #32
	.loc	7 1742 35 is_stmt 0             @ ../Library/STM32F4xx_HAL_Driver/Src/stm32f4xx_hal_i2c.c:1742:35
	strb.w	r1, [r2, #61]
	.loc	7 1743 9 is_stmt 1              @ ../Library/STM32F4xx_HAL_Driver/Src/stm32f4xx_hal_i2c.c:1743:9
	ldr	r1, [sp, #16]
	.loc	7 1743 35 is_stmt 0             @ ../Library/STM32F4xx_HAL_Driver/Src/stm32f4xx_hal_i2c.c:1743:35
	strb.w	r0, [r1, #62]
	.loc	7 1744 9 is_stmt 1              @ ../Library/STM32F4xx_HAL_Driver/Src/stm32f4xx_hal_i2c.c:1744:9
	ldr	r1, [sp, #16]
	.loc	7 1744 35 is_stmt 0             @ ../Library/STM32F4xx_HAL_Driver/Src/stm32f4xx_hal_i2c.c:1744:35
	ldr	r0, [r1, #64]
	orr	r0, r0, #32
	str	r0, [r1, #64]
	.loc	7 1747 9 is_stmt 1              @ ../Library/STM32F4xx_HAL_Driver/Src/stm32f4xx_hal_i2c.c:1747:9
	b	.LBB16_4
.LBB16_4:
.Ltmp399:
	.loc	7 1747 9 is_stmt 0              @ ../Library/STM32F4xx_HAL_Driver/Src/stm32f4xx_hal_i2c.c:1747:9
	ldr	r1, [sp, #16]
	movs	r0, #0
	strb.w	r0, [r1, #60]
	b	.LBB16_5
.Ltmp400:
.LBB16_5:
	.loc	7 0 9                           @ ../Library/STM32F4xx_HAL_Driver/Src/stm32f4xx_hal_i2c.c:0:9
	movs	r0, #1
	.loc	7 1749 9 is_stmt 1              @ ../Library/STM32F4xx_HAL_Driver/Src/stm32f4xx_hal_i2c.c:1749:9
	strb.w	r0, [sp, #23]
	b	.LBB16_19
.Ltmp401:
.LBB16_6:                               @   in Loop: Header=BB16_2 Depth=1
	.loc	7 1751 5                        @ ../Library/STM32F4xx_HAL_Driver/Src/stm32f4xx_hal_i2c.c:1751:5
	b	.LBB16_7
.Ltmp402:
.LBB16_7:                               @   in Loop: Header=BB16_2 Depth=1
	.loc	7 1752 12                       @ ../Library/STM32F4xx_HAL_Driver/Src/stm32f4xx_hal_i2c.c:1752:12
	ldr	r0, [sp, #16]
	ldr	r0, [r0]
	ldr	r0, [r0, #24]
	and	r1, r0, #2
	movs	r0, #0
.Ltmp403:
	.loc	7 1751 5                        @ ../Library/STM32F4xx_HAL_Driver/Src/stm32f4xx_hal_i2c.c:1751:5
	cmp.w	r0, r1, lsr #1
	bne	.LBB16_2
	b	.LBB16_8
.Ltmp404:
.LBB16_8:
	.loc	7 1755 5                        @ ../Library/STM32F4xx_HAL_Driver/Src/stm32f4xx_hal_i2c.c:1755:5
	b	.LBB16_9
.LBB16_9:
.Ltmp405:
	.loc	7 1755 5 is_stmt 0              @ ../Library/STM32F4xx_HAL_Driver/Src/stm32f4xx_hal_i2c.c:1755:5
	ldr	r0, [sp, #16]
	ldrb.w	r0, [r0, #60]
.Ltmp406:
	.loc	7 1755 5                        @ ../Library/STM32F4xx_HAL_Driver/Src/stm32f4xx_hal_i2c.c:1755:5
	cmp	r0, #1
	bne	.LBB16_11
	b	.LBB16_10
.LBB16_10:
	.loc	7 0 5                           @ ../Library/STM32F4xx_HAL_Driver/Src/stm32f4xx_hal_i2c.c:0:5
	movs	r0, #2
.Ltmp407:
	.loc	7 1755 5                        @ ../Library/STM32F4xx_HAL_Driver/Src/stm32f4xx_hal_i2c.c:1755:5
	strb.w	r0, [sp, #23]
	b	.LBB16_19
.Ltmp408:
.LBB16_11:
	.loc	7 1755 5                        @ ../Library/STM32F4xx_HAL_Driver/Src/stm32f4xx_hal_i2c.c:1755:5
	ldr	r1, [sp, #16]
	movs	r0, #1
	strb.w	r0, [r1, #60]
	b	.LBB16_12
.Ltmp409:
.LBB16_12:
	.loc	7 1755 5                        @ ../Library/STM32F4xx_HAL_Driver/Src/stm32f4xx_hal_i2c.c:1755:5
	b	.LBB16_13
.Ltmp410:
.LBB16_13:
	.loc	7 1758 10 is_stmt 1             @ ../Library/STM32F4xx_HAL_Driver/Src/stm32f4xx_hal_i2c.c:1758:10
	ldr	r0, [sp, #16]
	.loc	7 1758 16 is_stmt 0             @ ../Library/STM32F4xx_HAL_Driver/Src/stm32f4xx_hal_i2c.c:1758:16
	ldr	r0, [r0]
	.loc	7 1758 26                       @ ../Library/STM32F4xx_HAL_Driver/Src/stm32f4xx_hal_i2c.c:1758:26
	ldr	r0, [r0]
.Ltmp411:
	.loc	7 1758 9                        @ ../Library/STM32F4xx_HAL_Driver/Src/stm32f4xx_hal_i2c.c:1758:9
	lsls	r0, r0, #31
	cbnz	r0, .LBB16_15
	b	.LBB16_14
.LBB16_14:
.Ltmp412:
	.loc	7 1761 7 is_stmt 1              @ ../Library/STM32F4xx_HAL_Driver/Src/stm32f4xx_hal_i2c.c:1761:7
	ldr	r0, [sp, #16]
	ldr	r1, [r0]
	ldr	r0, [r1]
	orr	r0, r0, #1
	str	r0, [r1]
	.loc	7 1762 5                        @ ../Library/STM32F4xx_HAL_Driver/Src/stm32f4xx_hal_i2c.c:1762:5
	b	.LBB16_15
.Ltmp413:
.LBB16_15:
	.loc	7 1765 5                        @ ../Library/STM32F4xx_HAL_Driver/Src/stm32f4xx_hal_i2c.c:1765:5
	ldr	r0, [sp, #16]
	ldr	r1, [r0]
	ldr	r0, [r1]
	bic	r0, r0, #2048
	str	r0, [r1]
	.loc	7 1767 5                        @ ../Library/STM32F4xx_HAL_Driver/Src/stm32f4xx_hal_i2c.c:1767:5
	ldr	r1, [sp, #16]
	movs	r0, #34
	.loc	7 1767 21 is_stmt 0             @ ../Library/STM32F4xx_HAL_Driver/Src/stm32f4xx_hal_i2c.c:1767:21
	strb.w	r0, [r1, #61]
	.loc	7 1768 5 is_stmt 1              @ ../Library/STM32F4xx_HAL_Driver/Src/stm32f4xx_hal_i2c.c:1768:5
	ldr	r1, [sp, #16]
	movs	r0, #16
	.loc	7 1768 21 is_stmt 0             @ ../Library/STM32F4xx_HAL_Driver/Src/stm32f4xx_hal_i2c.c:1768:21
	strb.w	r0, [r1, #62]
	.loc	7 1769 5 is_stmt 1              @ ../Library/STM32F4xx_HAL_Driver/Src/stm32f4xx_hal_i2c.c:1769:5
	ldr	r1, [sp, #16]
	movs	r0, #0
	.loc	7 1769 21 is_stmt 0             @ ../Library/STM32F4xx_HAL_Driver/Src/stm32f4xx_hal_i2c.c:1769:21
	str	r0, [r1, #64]
	.loc	7 1772 25 is_stmt 1             @ ../Library/STM32F4xx_HAL_Driver/Src/stm32f4xx_hal_i2c.c:1772:25
	ldr	r0, [sp, #8]
	.loc	7 1772 5 is_stmt 0              @ ../Library/STM32F4xx_HAL_Driver/Src/stm32f4xx_hal_i2c.c:1772:5
	ldr	r1, [sp, #16]
	.loc	7 1772 23                       @ ../Library/STM32F4xx_HAL_Driver/Src/stm32f4xx_hal_i2c.c:1772:23
	str	r0, [r1, #36]
	.loc	7 1773 25 is_stmt 1             @ ../Library/STM32F4xx_HAL_Driver/Src/stm32f4xx_hal_i2c.c:1773:25
	ldrh.w	r0, [sp, #6]
	.loc	7 1773 5 is_stmt 0              @ ../Library/STM32F4xx_HAL_Driver/Src/stm32f4xx_hal_i2c.c:1773:5
	ldr	r1, [sp, #16]
	.loc	7 1773 23                       @ ../Library/STM32F4xx_HAL_Driver/Src/stm32f4xx_hal_i2c.c:1773:23
	strh	r0, [r1, #42]
	.loc	7 1774 25 is_stmt 1             @ ../Library/STM32F4xx_HAL_Driver/Src/stm32f4xx_hal_i2c.c:1774:25
	ldr	r0, [sp, #16]
	.loc	7 1774 31 is_stmt 0             @ ../Library/STM32F4xx_HAL_Driver/Src/stm32f4xx_hal_i2c.c:1774:31
	ldrh	r0, [r0, #42]
	.loc	7 1774 5                        @ ../Library/STM32F4xx_HAL_Driver/Src/stm32f4xx_hal_i2c.c:1774:5
	ldr	r1, [sp, #16]
	.loc	7 1774 23                       @ ../Library/STM32F4xx_HAL_Driver/Src/stm32f4xx_hal_i2c.c:1774:23
	strh	r0, [r1, #40]
	.loc	7 1775 5 is_stmt 1              @ ../Library/STM32F4xx_HAL_Driver/Src/stm32f4xx_hal_i2c.c:1775:5
	ldr	r1, [sp, #16]
	movs	r0, #0
	movt	r0, #65535
	.loc	7 1775 23 is_stmt 0             @ ../Library/STM32F4xx_HAL_Driver/Src/stm32f4xx_hal_i2c.c:1775:23
	str	r0, [r1, #44]
	.loc	7 1776 25 is_stmt 1             @ ../Library/STM32F4xx_HAL_Driver/Src/stm32f4xx_hal_i2c.c:1776:25
	ldrh.w	r0, [sp, #14]
	.loc	7 1776 5 is_stmt 0              @ ../Library/STM32F4xx_HAL_Driver/Src/stm32f4xx_hal_i2c.c:1776:5
	ldr	r1, [sp, #16]
	.loc	7 1776 23                       @ ../Library/STM32F4xx_HAL_Driver/Src/stm32f4xx_hal_i2c.c:1776:23
	str	r0, [r1, #68]
	.loc	7 1780 5 is_stmt 1              @ ../Library/STM32F4xx_HAL_Driver/Src/stm32f4xx_hal_i2c.c:1780:5
	b	.LBB16_16
.LBB16_16:
.Ltmp414:
	.loc	7 1780 5 is_stmt 0              @ ../Library/STM32F4xx_HAL_Driver/Src/stm32f4xx_hal_i2c.c:1780:5
	ldr	r1, [sp, #16]
	movs	r0, #0
	strb.w	r0, [r1, #60]
	b	.LBB16_17
.Ltmp415:
.LBB16_17:
	.loc	7 1787 5 is_stmt 1              @ ../Library/STM32F4xx_HAL_Driver/Src/stm32f4xx_hal_i2c.c:1787:5
	ldr	r0, [sp, #16]
	ldr	r1, [r0]
	ldr	r0, [r1, #4]
	orr	r0, r0, #1792
	str	r0, [r1, #4]
	.loc	7 1790 5                        @ ../Library/STM32F4xx_HAL_Driver/Src/stm32f4xx_hal_i2c.c:1790:5
	ldr	r0, [sp, #16]
	ldr	r1, [r0]
	ldr	r0, [r1]
	orr	r0, r0, #1024
	str	r0, [r1]
	.loc	7 1793 5                        @ ../Library/STM32F4xx_HAL_Driver/Src/stm32f4xx_hal_i2c.c:1793:5
	ldr	r0, [sp, #16]
	ldr	r1, [r0]
	ldr	r0, [r1]
	orr	r0, r0, #256
	str	r0, [r1]
	movs	r0, #0
	.loc	7 1795 5                        @ ../Library/STM32F4xx_HAL_Driver/Src/stm32f4xx_hal_i2c.c:1795:5
	strb.w	r0, [sp, #23]
	b	.LBB16_19
.Ltmp416:
.LBB16_18:
	.loc	7 0 5 is_stmt 0                 @ ../Library/STM32F4xx_HAL_Driver/Src/stm32f4xx_hal_i2c.c:0:5
	movs	r0, #2
.Ltmp417:
	.loc	7 1799 5 is_stmt 1              @ ../Library/STM32F4xx_HAL_Driver/Src/stm32f4xx_hal_i2c.c:1799:5
	strb.w	r0, [sp, #23]
	b	.LBB16_19
.Ltmp418:
.LBB16_19:
	.loc	7 1801 1                        @ ../Library/STM32F4xx_HAL_Driver/Src/stm32f4xx_hal_i2c.c:1801:1
	ldrb.w	r0, [sp, #23]
	add	sp, #24
	bx	lr
.Ltmp419:
.Lfunc_end16:
	.size	HAL_I2C_Master_Receive_IT, .Lfunc_end16-HAL_I2C_Master_Receive_IT
	.cfi_endproc
	.cantunwind
	.fnend
                                        @ -- End function
	.section	.text.HAL_I2C_Slave_Transmit_IT,"ax",%progbits
	.hidden	HAL_I2C_Slave_Transmit_IT       @ -- Begin function HAL_I2C_Slave_Transmit_IT
	.globl	HAL_I2C_Slave_Transmit_IT
	.p2align	2
	.type	HAL_I2C_Slave_Transmit_IT,%function
	.code	16                              @ @HAL_I2C_Slave_Transmit_IT
	.thumb_func
HAL_I2C_Slave_Transmit_IT:
.Lfunc_begin17:
	.loc	7 1812 0                        @ ../Library/STM32F4xx_HAL_Driver/Src/stm32f4xx_hal_i2c.c:1812:0
	.fnstart
	.cfi_startproc
@ %bb.0:
	.pad	#16
	sub	sp, #16
	.cfi_def_cfa_offset 16
                                        @ kill: def $r3 killed $r2
	str	r0, [sp, #8]
	str	r1, [sp, #4]
	strh.w	r2, [sp, #2]
.Ltmp420:
	.loc	7 1814 7 prologue_end           @ ../Library/STM32F4xx_HAL_Driver/Src/stm32f4xx_hal_i2c.c:1814:7
	ldr	r0, [sp, #8]
	.loc	7 1814 13 is_stmt 0             @ ../Library/STM32F4xx_HAL_Driver/Src/stm32f4xx_hal_i2c.c:1814:13
	ldrb.w	r0, [r0, #61]
.Ltmp421:
	.loc	7 1814 7                        @ ../Library/STM32F4xx_HAL_Driver/Src/stm32f4xx_hal_i2c.c:1814:7
	cmp	r0, #32
	bne	.LBB17_14
	b	.LBB17_1
.LBB17_1:
.Ltmp422:
	.loc	7 1816 10 is_stmt 1             @ ../Library/STM32F4xx_HAL_Driver/Src/stm32f4xx_hal_i2c.c:1816:10
	ldr	r0, [sp, #4]
	.loc	7 1816 25 is_stmt 0             @ ../Library/STM32F4xx_HAL_Driver/Src/stm32f4xx_hal_i2c.c:1816:25
	cbz	r0, .LBB17_3
	b	.LBB17_2
.LBB17_2:
	.loc	7 1816 29                       @ ../Library/STM32F4xx_HAL_Driver/Src/stm32f4xx_hal_i2c.c:1816:29
	ldrh.w	r0, [sp, #2]
.Ltmp423:
	.loc	7 1816 9                        @ ../Library/STM32F4xx_HAL_Driver/Src/stm32f4xx_hal_i2c.c:1816:9
	cbnz	r0, .LBB17_4
	b	.LBB17_3
.LBB17_3:
	.loc	7 0 9                           @ ../Library/STM32F4xx_HAL_Driver/Src/stm32f4xx_hal_i2c.c:0:9
	movs	r0, #1
.Ltmp424:
	.loc	7 1818 7 is_stmt 1              @ ../Library/STM32F4xx_HAL_Driver/Src/stm32f4xx_hal_i2c.c:1818:7
	strb.w	r0, [sp, #15]
	b	.LBB17_15
.Ltmp425:
.LBB17_4:
	.loc	7 1822 5                        @ ../Library/STM32F4xx_HAL_Driver/Src/stm32f4xx_hal_i2c.c:1822:5
	b	.LBB17_5
.LBB17_5:
.Ltmp426:
	.loc	7 1822 5 is_stmt 0              @ ../Library/STM32F4xx_HAL_Driver/Src/stm32f4xx_hal_i2c.c:1822:5
	ldr	r0, [sp, #8]
	ldrb.w	r0, [r0, #60]
.Ltmp427:
	.loc	7 1822 5                        @ ../Library/STM32F4xx_HAL_Driver/Src/stm32f4xx_hal_i2c.c:1822:5
	cmp	r0, #1
	bne	.LBB17_7
	b	.LBB17_6
.LBB17_6:
	.loc	7 0 5                           @ ../Library/STM32F4xx_HAL_Driver/Src/stm32f4xx_hal_i2c.c:0:5
	movs	r0, #2
.Ltmp428:
	.loc	7 1822 5                        @ ../Library/STM32F4xx_HAL_Driver/Src/stm32f4xx_hal_i2c.c:1822:5
	strb.w	r0, [sp, #15]
	b	.LBB17_15
.Ltmp429:
.LBB17_7:
	.loc	7 1822 5                        @ ../Library/STM32F4xx_HAL_Driver/Src/stm32f4xx_hal_i2c.c:1822:5
	ldr	r1, [sp, #8]
	movs	r0, #1
	strb.w	r0, [r1, #60]
	b	.LBB17_8
.Ltmp430:
.LBB17_8:
	.loc	7 1822 5                        @ ../Library/STM32F4xx_HAL_Driver/Src/stm32f4xx_hal_i2c.c:1822:5
	b	.LBB17_9
.Ltmp431:
.LBB17_9:
	.loc	7 1825 10 is_stmt 1             @ ../Library/STM32F4xx_HAL_Driver/Src/stm32f4xx_hal_i2c.c:1825:10
	ldr	r0, [sp, #8]
	.loc	7 1825 16 is_stmt 0             @ ../Library/STM32F4xx_HAL_Driver/Src/stm32f4xx_hal_i2c.c:1825:16
	ldr	r0, [r0]
	.loc	7 1825 26                       @ ../Library/STM32F4xx_HAL_Driver/Src/stm32f4xx_hal_i2c.c:1825:26
	ldr	r0, [r0]
.Ltmp432:
	.loc	7 1825 9                        @ ../Library/STM32F4xx_HAL_Driver/Src/stm32f4xx_hal_i2c.c:1825:9
	lsls	r0, r0, #31
	cbnz	r0, .LBB17_11
	b	.LBB17_10
.LBB17_10:
.Ltmp433:
	.loc	7 1828 7 is_stmt 1              @ ../Library/STM32F4xx_HAL_Driver/Src/stm32f4xx_hal_i2c.c:1828:7
	ldr	r0, [sp, #8]
	ldr	r1, [r0]
	ldr	r0, [r1]
	orr	r0, r0, #1
	str	r0, [r1]
	.loc	7 1829 5                        @ ../Library/STM32F4xx_HAL_Driver/Src/stm32f4xx_hal_i2c.c:1829:5
	b	.LBB17_11
.Ltmp434:
.LBB17_11:
	.loc	7 1832 5                        @ ../Library/STM32F4xx_HAL_Driver/Src/stm32f4xx_hal_i2c.c:1832:5
	ldr	r0, [sp, #8]
	ldr	r1, [r0]
	ldr	r0, [r1]
	bic	r0, r0, #2048
	str	r0, [r1]
	.loc	7 1834 5                        @ ../Library/STM32F4xx_HAL_Driver/Src/stm32f4xx_hal_i2c.c:1834:5
	ldr	r1, [sp, #8]
	movs	r0, #33
	.loc	7 1834 21 is_stmt 0             @ ../Library/STM32F4xx_HAL_Driver/Src/stm32f4xx_hal_i2c.c:1834:21
	strb.w	r0, [r1, #61]
	.loc	7 1835 5 is_stmt 1              @ ../Library/STM32F4xx_HAL_Driver/Src/stm32f4xx_hal_i2c.c:1835:5
	ldr	r1, [sp, #8]
	movs	r0, #32
	.loc	7 1835 21 is_stmt 0             @ ../Library/STM32F4xx_HAL_Driver/Src/stm32f4xx_hal_i2c.c:1835:21
	strb.w	r0, [r1, #62]
	.loc	7 1836 5 is_stmt 1              @ ../Library/STM32F4xx_HAL_Driver/Src/stm32f4xx_hal_i2c.c:1836:5
	ldr	r1, [sp, #8]
	movs	r0, #0
	.loc	7 1836 21 is_stmt 0             @ ../Library/STM32F4xx_HAL_Driver/Src/stm32f4xx_hal_i2c.c:1836:21
	str	r0, [r1, #64]
	.loc	7 1839 25 is_stmt 1             @ ../Library/STM32F4xx_HAL_Driver/Src/stm32f4xx_hal_i2c.c:1839:25
	ldr	r0, [sp, #4]
	.loc	7 1839 5 is_stmt 0              @ ../Library/STM32F4xx_HAL_Driver/Src/stm32f4xx_hal_i2c.c:1839:5
	ldr	r1, [sp, #8]
	.loc	7 1839 23                       @ ../Library/STM32F4xx_HAL_Driver/Src/stm32f4xx_hal_i2c.c:1839:23
	str	r0, [r1, #36]
	.loc	7 1840 25 is_stmt 1             @ ../Library/STM32F4xx_HAL_Driver/Src/stm32f4xx_hal_i2c.c:1840:25
	ldrh.w	r0, [sp, #2]
	.loc	7 1840 5 is_stmt 0              @ ../Library/STM32F4xx_HAL_Driver/Src/stm32f4xx_hal_i2c.c:1840:5
	ldr	r1, [sp, #8]
	.loc	7 1840 23                       @ ../Library/STM32F4xx_HAL_Driver/Src/stm32f4xx_hal_i2c.c:1840:23
	strh	r0, [r1, #42]
	.loc	7 1841 25 is_stmt 1             @ ../Library/STM32F4xx_HAL_Driver/Src/stm32f4xx_hal_i2c.c:1841:25
	ldr	r0, [sp, #8]
	.loc	7 1841 31 is_stmt 0             @ ../Library/STM32F4xx_HAL_Driver/Src/stm32f4xx_hal_i2c.c:1841:31
	ldrh	r0, [r0, #42]
	.loc	7 1841 5                        @ ../Library/STM32F4xx_HAL_Driver/Src/stm32f4xx_hal_i2c.c:1841:5
	ldr	r1, [sp, #8]
	.loc	7 1841 23                       @ ../Library/STM32F4xx_HAL_Driver/Src/stm32f4xx_hal_i2c.c:1841:23
	strh	r0, [r1, #40]
	.loc	7 1842 5 is_stmt 1              @ ../Library/STM32F4xx_HAL_Driver/Src/stm32f4xx_hal_i2c.c:1842:5
	ldr	r1, [sp, #8]
	movs	r0, #0
	movt	r0, #65535
	.loc	7 1842 23 is_stmt 0             @ ../Library/STM32F4xx_HAL_Driver/Src/stm32f4xx_hal_i2c.c:1842:23
	str	r0, [r1, #44]
	.loc	7 1845 5 is_stmt 1              @ ../Library/STM32F4xx_HAL_Driver/Src/stm32f4xx_hal_i2c.c:1845:5
	ldr	r0, [sp, #8]
	ldr	r1, [r0]
	ldr	r0, [r1]
	orr	r0, r0, #1024
	str	r0, [r1]
	.loc	7 1848 5                        @ ../Library/STM32F4xx_HAL_Driver/Src/stm32f4xx_hal_i2c.c:1848:5
	b	.LBB17_12
.LBB17_12:
.Ltmp435:
	.loc	7 1848 5 is_stmt 0              @ ../Library/STM32F4xx_HAL_Driver/Src/stm32f4xx_hal_i2c.c:1848:5
	ldr	r1, [sp, #8]
	movs	r0, #0
	strb.w	r0, [r1, #60]
	b	.LBB17_13
.Ltmp436:
.LBB17_13:
	.loc	7 1855 5 is_stmt 1              @ ../Library/STM32F4xx_HAL_Driver/Src/stm32f4xx_hal_i2c.c:1855:5
	ldr	r0, [sp, #8]
	ldr	r1, [r0]
	ldr	r0, [r1, #4]
	orr	r0, r0, #1792
	str	r0, [r1, #4]
	movs	r0, #0
	.loc	7 1857 5                        @ ../Library/STM32F4xx_HAL_Driver/Src/stm32f4xx_hal_i2c.c:1857:5
	strb.w	r0, [sp, #15]
	b	.LBB17_15
.Ltmp437:
.LBB17_14:
	.loc	7 0 5 is_stmt 0                 @ ../Library/STM32F4xx_HAL_Driver/Src/stm32f4xx_hal_i2c.c:0:5
	movs	r0, #2
.Ltmp438:
	.loc	7 1861 5 is_stmt 1              @ ../Library/STM32F4xx_HAL_Driver/Src/stm32f4xx_hal_i2c.c:1861:5
	strb.w	r0, [sp, #15]
	b	.LBB17_15
.Ltmp439:
.LBB17_15:
	.loc	7 1863 1                        @ ../Library/STM32F4xx_HAL_Driver/Src/stm32f4xx_hal_i2c.c:1863:1
	ldrb.w	r0, [sp, #15]
	add	sp, #16
	bx	lr
.Ltmp440:
.Lfunc_end17:
	.size	HAL_I2C_Slave_Transmit_IT, .Lfunc_end17-HAL_I2C_Slave_Transmit_IT
	.cfi_endproc
	.cantunwind
	.fnend
                                        @ -- End function
	.section	.text.HAL_I2C_Slave_Receive_IT,"ax",%progbits
	.hidden	HAL_I2C_Slave_Receive_IT        @ -- Begin function HAL_I2C_Slave_Receive_IT
	.globl	HAL_I2C_Slave_Receive_IT
	.p2align	2
	.type	HAL_I2C_Slave_Receive_IT,%function
	.code	16                              @ @HAL_I2C_Slave_Receive_IT
	.thumb_func
HAL_I2C_Slave_Receive_IT:
.Lfunc_begin18:
	.loc	7 1874 0                        @ ../Library/STM32F4xx_HAL_Driver/Src/stm32f4xx_hal_i2c.c:1874:0
	.fnstart
	.cfi_startproc
@ %bb.0:
	.pad	#16
	sub	sp, #16
	.cfi_def_cfa_offset 16
                                        @ kill: def $r3 killed $r2
	str	r0, [sp, #8]
	str	r1, [sp, #4]
	strh.w	r2, [sp, #2]
.Ltmp441:
	.loc	7 1876 7 prologue_end           @ ../Library/STM32F4xx_HAL_Driver/Src/stm32f4xx_hal_i2c.c:1876:7
	ldr	r0, [sp, #8]
	.loc	7 1876 13 is_stmt 0             @ ../Library/STM32F4xx_HAL_Driver/Src/stm32f4xx_hal_i2c.c:1876:13
	ldrb.w	r0, [r0, #61]
.Ltmp442:
	.loc	7 1876 7                        @ ../Library/STM32F4xx_HAL_Driver/Src/stm32f4xx_hal_i2c.c:1876:7
	cmp	r0, #32
	bne	.LBB18_14
	b	.LBB18_1
.LBB18_1:
.Ltmp443:
	.loc	7 1878 10 is_stmt 1             @ ../Library/STM32F4xx_HAL_Driver/Src/stm32f4xx_hal_i2c.c:1878:10
	ldr	r0, [sp, #4]
	.loc	7 1878 25 is_stmt 0             @ ../Library/STM32F4xx_HAL_Driver/Src/stm32f4xx_hal_i2c.c:1878:25
	cbz	r0, .LBB18_3
	b	.LBB18_2
.LBB18_2:
	.loc	7 1878 29                       @ ../Library/STM32F4xx_HAL_Driver/Src/stm32f4xx_hal_i2c.c:1878:29
	ldrh.w	r0, [sp, #2]
.Ltmp444:
	.loc	7 1878 9                        @ ../Library/STM32F4xx_HAL_Driver/Src/stm32f4xx_hal_i2c.c:1878:9
	cbnz	r0, .LBB18_4
	b	.LBB18_3
.LBB18_3:
	.loc	7 0 9                           @ ../Library/STM32F4xx_HAL_Driver/Src/stm32f4xx_hal_i2c.c:0:9
	movs	r0, #1
.Ltmp445:
	.loc	7 1880 7 is_stmt 1              @ ../Library/STM32F4xx_HAL_Driver/Src/stm32f4xx_hal_i2c.c:1880:7
	strb.w	r0, [sp, #15]
	b	.LBB18_15
.Ltmp446:
.LBB18_4:
	.loc	7 1884 5                        @ ../Library/STM32F4xx_HAL_Driver/Src/stm32f4xx_hal_i2c.c:1884:5
	b	.LBB18_5
.LBB18_5:
.Ltmp447:
	.loc	7 1884 5 is_stmt 0              @ ../Library/STM32F4xx_HAL_Driver/Src/stm32f4xx_hal_i2c.c:1884:5
	ldr	r0, [sp, #8]
	ldrb.w	r0, [r0, #60]
.Ltmp448:
	.loc	7 1884 5                        @ ../Library/STM32F4xx_HAL_Driver/Src/stm32f4xx_hal_i2c.c:1884:5
	cmp	r0, #1
	bne	.LBB18_7
	b	.LBB18_6
.LBB18_6:
	.loc	7 0 5                           @ ../Library/STM32F4xx_HAL_Driver/Src/stm32f4xx_hal_i2c.c:0:5
	movs	r0, #2
.Ltmp449:
	.loc	7 1884 5                        @ ../Library/STM32F4xx_HAL_Driver/Src/stm32f4xx_hal_i2c.c:1884:5
	strb.w	r0, [sp, #15]
	b	.LBB18_15
.Ltmp450:
.LBB18_7:
	.loc	7 1884 5                        @ ../Library/STM32F4xx_HAL_Driver/Src/stm32f4xx_hal_i2c.c:1884:5
	ldr	r1, [sp, #8]
	movs	r0, #1
	strb.w	r0, [r1, #60]
	b	.LBB18_8
.Ltmp451:
.LBB18_8:
	.loc	7 1884 5                        @ ../Library/STM32F4xx_HAL_Driver/Src/stm32f4xx_hal_i2c.c:1884:5
	b	.LBB18_9
.Ltmp452:
.LBB18_9:
	.loc	7 1887 10 is_stmt 1             @ ../Library/STM32F4xx_HAL_Driver/Src/stm32f4xx_hal_i2c.c:1887:10
	ldr	r0, [sp, #8]
	.loc	7 1887 16 is_stmt 0             @ ../Library/STM32F4xx_HAL_Driver/Src/stm32f4xx_hal_i2c.c:1887:16
	ldr	r0, [r0]
	.loc	7 1887 26                       @ ../Library/STM32F4xx_HAL_Driver/Src/stm32f4xx_hal_i2c.c:1887:26
	ldr	r0, [r0]
.Ltmp453:
	.loc	7 1887 9                        @ ../Library/STM32F4xx_HAL_Driver/Src/stm32f4xx_hal_i2c.c:1887:9
	lsls	r0, r0, #31
	cbnz	r0, .LBB18_11
	b	.LBB18_10
.LBB18_10:
.Ltmp454:
	.loc	7 1890 7 is_stmt 1              @ ../Library/STM32F4xx_HAL_Driver/Src/stm32f4xx_hal_i2c.c:1890:7
	ldr	r0, [sp, #8]
	ldr	r1, [r0]
	ldr	r0, [r1]
	orr	r0, r0, #1
	str	r0, [r1]
	.loc	7 1891 5                        @ ../Library/STM32F4xx_HAL_Driver/Src/stm32f4xx_hal_i2c.c:1891:5
	b	.LBB18_11
.Ltmp455:
.LBB18_11:
	.loc	7 1894 5                        @ ../Library/STM32F4xx_HAL_Driver/Src/stm32f4xx_hal_i2c.c:1894:5
	ldr	r0, [sp, #8]
	ldr	r1, [r0]
	ldr	r0, [r1]
	bic	r0, r0, #2048
	str	r0, [r1]
	.loc	7 1896 5                        @ ../Library/STM32F4xx_HAL_Driver/Src/stm32f4xx_hal_i2c.c:1896:5
	ldr	r1, [sp, #8]
	movs	r0, #34
	.loc	7 1896 21 is_stmt 0             @ ../Library/STM32F4xx_HAL_Driver/Src/stm32f4xx_hal_i2c.c:1896:21
	strb.w	r0, [r1, #61]
	.loc	7 1897 5 is_stmt 1              @ ../Library/STM32F4xx_HAL_Driver/Src/stm32f4xx_hal_i2c.c:1897:5
	ldr	r1, [sp, #8]
	movs	r0, #32
	.loc	7 1897 21 is_stmt 0             @ ../Library/STM32F4xx_HAL_Driver/Src/stm32f4xx_hal_i2c.c:1897:21
	strb.w	r0, [r1, #62]
	.loc	7 1898 5 is_stmt 1              @ ../Library/STM32F4xx_HAL_Driver/Src/stm32f4xx_hal_i2c.c:1898:5
	ldr	r1, [sp, #8]
	movs	r0, #0
	.loc	7 1898 21 is_stmt 0             @ ../Library/STM32F4xx_HAL_Driver/Src/stm32f4xx_hal_i2c.c:1898:21
	str	r0, [r1, #64]
	.loc	7 1901 25 is_stmt 1             @ ../Library/STM32F4xx_HAL_Driver/Src/stm32f4xx_hal_i2c.c:1901:25
	ldr	r0, [sp, #4]
	.loc	7 1901 5 is_stmt 0              @ ../Library/STM32F4xx_HAL_Driver/Src/stm32f4xx_hal_i2c.c:1901:5
	ldr	r1, [sp, #8]
	.loc	7 1901 23                       @ ../Library/STM32F4xx_HAL_Driver/Src/stm32f4xx_hal_i2c.c:1901:23
	str	r0, [r1, #36]
	.loc	7 1902 25 is_stmt 1             @ ../Library/STM32F4xx_HAL_Driver/Src/stm32f4xx_hal_i2c.c:1902:25
	ldrh.w	r0, [sp, #2]
	.loc	7 1902 5 is_stmt 0              @ ../Library/STM32F4xx_HAL_Driver/Src/stm32f4xx_hal_i2c.c:1902:5
	ldr	r1, [sp, #8]
	.loc	7 1902 23                       @ ../Library/STM32F4xx_HAL_Driver/Src/stm32f4xx_hal_i2c.c:1902:23
	strh	r0, [r1, #42]
	.loc	7 1903 25 is_stmt 1             @ ../Library/STM32F4xx_HAL_Driver/Src/stm32f4xx_hal_i2c.c:1903:25
	ldr	r0, [sp, #8]
	.loc	7 1903 31 is_stmt 0             @ ../Library/STM32F4xx_HAL_Driver/Src/stm32f4xx_hal_i2c.c:1903:31
	ldrh	r0, [r0, #42]
	.loc	7 1903 5                        @ ../Library/STM32F4xx_HAL_Driver/Src/stm32f4xx_hal_i2c.c:1903:5
	ldr	r1, [sp, #8]
	.loc	7 1903 23                       @ ../Library/STM32F4xx_HAL_Driver/Src/stm32f4xx_hal_i2c.c:1903:23
	strh	r0, [r1, #40]
	.loc	7 1904 5 is_stmt 1              @ ../Library/STM32F4xx_HAL_Driver/Src/stm32f4xx_hal_i2c.c:1904:5
	ldr	r1, [sp, #8]
	movs	r0, #0
	movt	r0, #65535
	.loc	7 1904 23 is_stmt 0             @ ../Library/STM32F4xx_HAL_Driver/Src/stm32f4xx_hal_i2c.c:1904:23
	str	r0, [r1, #44]
	.loc	7 1907 5 is_stmt 1              @ ../Library/STM32F4xx_HAL_Driver/Src/stm32f4xx_hal_i2c.c:1907:5
	ldr	r0, [sp, #8]
	ldr	r1, [r0]
	ldr	r0, [r1]
	orr	r0, r0, #1024
	str	r0, [r1]
	.loc	7 1910 5                        @ ../Library/STM32F4xx_HAL_Driver/Src/stm32f4xx_hal_i2c.c:1910:5
	b	.LBB18_12
.LBB18_12:
.Ltmp456:
	.loc	7 1910 5 is_stmt 0              @ ../Library/STM32F4xx_HAL_Driver/Src/stm32f4xx_hal_i2c.c:1910:5
	ldr	r1, [sp, #8]
	movs	r0, #0
	strb.w	r0, [r1, #60]
	b	.LBB18_13
.Ltmp457:
.LBB18_13:
	.loc	7 1917 5 is_stmt 1              @ ../Library/STM32F4xx_HAL_Driver/Src/stm32f4xx_hal_i2c.c:1917:5
	ldr	r0, [sp, #8]
	ldr	r1, [r0]
	ldr	r0, [r1, #4]
	orr	r0, r0, #1792
	str	r0, [r1, #4]
	movs	r0, #0
	.loc	7 1919 5                        @ ../Library/STM32F4xx_HAL_Driver/Src/stm32f4xx_hal_i2c.c:1919:5
	strb.w	r0, [sp, #15]
	b	.LBB18_15
.Ltmp458:
.LBB18_14:
	.loc	7 0 5 is_stmt 0                 @ ../Library/STM32F4xx_HAL_Driver/Src/stm32f4xx_hal_i2c.c:0:5
	movs	r0, #2
.Ltmp459:
	.loc	7 1923 5 is_stmt 1              @ ../Library/STM32F4xx_HAL_Driver/Src/stm32f4xx_hal_i2c.c:1923:5
	strb.w	r0, [sp, #15]
	b	.LBB18_15
.Ltmp460:
.LBB18_15:
	.loc	7 1925 1                        @ ../Library/STM32F4xx_HAL_Driver/Src/stm32f4xx_hal_i2c.c:1925:1
	ldrb.w	r0, [sp, #15]
	add	sp, #16
	bx	lr
.Ltmp461:
.Lfunc_end18:
	.size	HAL_I2C_Slave_Receive_IT, .Lfunc_end18-HAL_I2C_Slave_Receive_IT
	.cfi_endproc
	.cantunwind
	.fnend
                                        @ -- End function
	.section	.text.HAL_I2C_Master_Transmit_DMA,"ax",%progbits
	.hidden	HAL_I2C_Master_Transmit_DMA     @ -- Begin function HAL_I2C_Master_Transmit_DMA
	.globl	HAL_I2C_Master_Transmit_DMA
	.p2align	2
	.type	HAL_I2C_Master_Transmit_DMA,%function
	.code	16                              @ @HAL_I2C_Master_Transmit_DMA
	.thumb_func
HAL_I2C_Master_Transmit_DMA:
.Lfunc_begin19:
	.loc	7 1938 0                        @ ../Library/STM32F4xx_HAL_Driver/Src/stm32f4xx_hal_i2c.c:1938:0
	.fnstart
	.cfi_startproc
@ %bb.0:
	.save	{r7, lr}
	push	{r7, lr}
	.cfi_def_cfa_offset 8
	.cfi_offset lr, -4
	.cfi_offset r7, -8
	.pad	#32
	sub	sp, #32
	.cfi_def_cfa_offset 40
                                        @ kill: def $r12 killed $r3
                                        @ kill: def $r12 killed $r1
	str	r0, [sp, #24]
	strh.w	r1, [sp, #22]
	str	r2, [sp, #16]
	strh.w	r3, [sp, #14]
	movs	r0, #0
.Ltmp462:
	.loc	7 1939 17 prologue_end          @ ../Library/STM32F4xx_HAL_Driver/Src/stm32f4xx_hal_i2c.c:1939:17
	str	r0, [sp, #8]
.Ltmp463:
	.loc	7 1942 7                        @ ../Library/STM32F4xx_HAL_Driver/Src/stm32f4xx_hal_i2c.c:1942:7
	ldr	r0, [sp, #24]
	.loc	7 1942 13 is_stmt 0             @ ../Library/STM32F4xx_HAL_Driver/Src/stm32f4xx_hal_i2c.c:1942:13
	ldrb.w	r0, [r0, #61]
.Ltmp464:
	.loc	7 1942 7                        @ ../Library/STM32F4xx_HAL_Driver/Src/stm32f4xx_hal_i2c.c:1942:7
	cmp	r0, #32
	bne.w	.LBB19_33
	b	.LBB19_1
.LBB19_1:
.Ltmp465:
	.loc	7 1945 38 is_stmt 1             @ ../Library/STM32F4xx_HAL_Driver/Src/stm32f4xx_hal_i2c.c:1945:38
	movw	r0, :lower16:SystemCoreClock
	movt	r0, :upper16:SystemCoreClock
	ldr	r0, [r0]
	movw	r1, #34079
	movt	r1, #20971
	.loc	7 1945 54 is_stmt 0             @ ../Library/STM32F4xx_HAL_Driver/Src/stm32f4xx_hal_i2c.c:1945:54
	umull	r1, r0, r0, r1
	lsrs	r0, r0, #3
	movw	r1, #19923
	movt	r1, #4194
	.loc	7 1945 60                       @ ../Library/STM32F4xx_HAL_Driver/Src/stm32f4xx_hal_i2c.c:1945:60
	umull	r1, r0, r0, r1
	lsrs	r0, r0, #6
	movs	r1, #25
	.loc	7 1945 35                       @ ../Library/STM32F4xx_HAL_Driver/Src/stm32f4xx_hal_i2c.c:1945:35
	muls	r0, r1, r0
	.loc	7 1945 11                       @ ../Library/STM32F4xx_HAL_Driver/Src/stm32f4xx_hal_i2c.c:1945:11
	str	r0, [sp, #8]
	.loc	7 1946 5 is_stmt 1              @ ../Library/STM32F4xx_HAL_Driver/Src/stm32f4xx_hal_i2c.c:1946:5
	b	.LBB19_2
.LBB19_2:                               @ =>This Inner Loop Header: Depth=1
.Ltmp466:
	.loc	7 1948 12                       @ ../Library/STM32F4xx_HAL_Driver/Src/stm32f4xx_hal_i2c.c:1948:12
	ldr	r0, [sp, #8]
	subs	r0, #1
	str	r0, [sp, #8]
.Ltmp467:
	.loc	7 1949 11                       @ ../Library/STM32F4xx_HAL_Driver/Src/stm32f4xx_hal_i2c.c:1949:11
	ldr	r0, [sp, #8]
.Ltmp468:
	.loc	7 1949 11 is_stmt 0             @ ../Library/STM32F4xx_HAL_Driver/Src/stm32f4xx_hal_i2c.c:1949:11
	cbnz	r0, .LBB19_6
	b	.LBB19_3
.LBB19_3:
.Ltmp469:
	.loc	7 1951 9 is_stmt 1              @ ../Library/STM32F4xx_HAL_Driver/Src/stm32f4xx_hal_i2c.c:1951:9
	ldr	r1, [sp, #24]
	movs	r0, #0
	.loc	7 1951 35 is_stmt 0             @ ../Library/STM32F4xx_HAL_Driver/Src/stm32f4xx_hal_i2c.c:1951:35
	str	r0, [r1, #48]
	.loc	7 1952 9 is_stmt 1              @ ../Library/STM32F4xx_HAL_Driver/Src/stm32f4xx_hal_i2c.c:1952:9
	ldr	r2, [sp, #24]
	movs	r1, #32
	.loc	7 1952 35 is_stmt 0             @ ../Library/STM32F4xx_HAL_Driver/Src/stm32f4xx_hal_i2c.c:1952:35
	strb.w	r1, [r2, #61]
	.loc	7 1953 9 is_stmt 1              @ ../Library/STM32F4xx_HAL_Driver/Src/stm32f4xx_hal_i2c.c:1953:9
	ldr	r1, [sp, #24]
	.loc	7 1953 35 is_stmt 0             @ ../Library/STM32F4xx_HAL_Driver/Src/stm32f4xx_hal_i2c.c:1953:35
	strb.w	r0, [r1, #62]
	.loc	7 1954 9 is_stmt 1              @ ../Library/STM32F4xx_HAL_Driver/Src/stm32f4xx_hal_i2c.c:1954:9
	ldr	r1, [sp, #24]
	.loc	7 1954 35 is_stmt 0             @ ../Library/STM32F4xx_HAL_Driver/Src/stm32f4xx_hal_i2c.c:1954:35
	ldr	r0, [r1, #64]
	orr	r0, r0, #32
	str	r0, [r1, #64]
	.loc	7 1957 9 is_stmt 1              @ ../Library/STM32F4xx_HAL_Driver/Src/stm32f4xx_hal_i2c.c:1957:9
	b	.LBB19_4
.LBB19_4:
.Ltmp470:
	.loc	7 1957 9 is_stmt 0              @ ../Library/STM32F4xx_HAL_Driver/Src/stm32f4xx_hal_i2c.c:1957:9
	ldr	r1, [sp, #24]
	movs	r0, #0
	strb.w	r0, [r1, #60]
	b	.LBB19_5
.Ltmp471:
.LBB19_5:
	.loc	7 0 9                           @ ../Library/STM32F4xx_HAL_Driver/Src/stm32f4xx_hal_i2c.c:0:9
	movs	r0, #1
	.loc	7 1959 9 is_stmt 1              @ ../Library/STM32F4xx_HAL_Driver/Src/stm32f4xx_hal_i2c.c:1959:9
	strb.w	r0, [sp, #31]
	b	.LBB19_34
.Ltmp472:
.LBB19_6:                               @   in Loop: Header=BB19_2 Depth=1
	.loc	7 1961 5                        @ ../Library/STM32F4xx_HAL_Driver/Src/stm32f4xx_hal_i2c.c:1961:5
	b	.LBB19_7
.Ltmp473:
.LBB19_7:                               @   in Loop: Header=BB19_2 Depth=1
	.loc	7 1962 12                       @ ../Library/STM32F4xx_HAL_Driver/Src/stm32f4xx_hal_i2c.c:1962:12
	ldr	r0, [sp, #24]
	ldr	r0, [r0]
	ldr	r0, [r0, #24]
	and	r1, r0, #2
	movs	r0, #0
.Ltmp474:
	.loc	7 1961 5                        @ ../Library/STM32F4xx_HAL_Driver/Src/stm32f4xx_hal_i2c.c:1961:5
	cmp.w	r0, r1, lsr #1
	bne	.LBB19_2
	b	.LBB19_8
.Ltmp475:
.LBB19_8:
	.loc	7 1965 5                        @ ../Library/STM32F4xx_HAL_Driver/Src/stm32f4xx_hal_i2c.c:1965:5
	b	.LBB19_9
.LBB19_9:
.Ltmp476:
	.loc	7 1965 5 is_stmt 0              @ ../Library/STM32F4xx_HAL_Driver/Src/stm32f4xx_hal_i2c.c:1965:5
	ldr	r0, [sp, #24]
	ldrb.w	r0, [r0, #60]
.Ltmp477:
	.loc	7 1965 5                        @ ../Library/STM32F4xx_HAL_Driver/Src/stm32f4xx_hal_i2c.c:1965:5
	cmp	r0, #1
	bne	.LBB19_11
	b	.LBB19_10
.LBB19_10:
	.loc	7 0 5                           @ ../Library/STM32F4xx_HAL_Driver/Src/stm32f4xx_hal_i2c.c:0:5
	movs	r0, #2
.Ltmp478:
	.loc	7 1965 5                        @ ../Library/STM32F4xx_HAL_Driver/Src/stm32f4xx_hal_i2c.c:1965:5
	strb.w	r0, [sp, #31]
	b	.LBB19_34
.Ltmp479:
.LBB19_11:
	.loc	7 1965 5                        @ ../Library/STM32F4xx_HAL_Driver/Src/stm32f4xx_hal_i2c.c:1965:5
	ldr	r1, [sp, #24]
	movs	r0, #1
	strb.w	r0, [r1, #60]
	b	.LBB19_12
.Ltmp480:
.LBB19_12:
	.loc	7 1965 5                        @ ../Library/STM32F4xx_HAL_Driver/Src/stm32f4xx_hal_i2c.c:1965:5
	b	.LBB19_13
.Ltmp481:
.LBB19_13:
	.loc	7 1968 10 is_stmt 1             @ ../Library/STM32F4xx_HAL_Driver/Src/stm32f4xx_hal_i2c.c:1968:10
	ldr	r0, [sp, #24]
	.loc	7 1968 16 is_stmt 0             @ ../Library/STM32F4xx_HAL_Driver/Src/stm32f4xx_hal_i2c.c:1968:16
	ldr	r0, [r0]
	.loc	7 1968 26                       @ ../Library/STM32F4xx_HAL_Driver/Src/stm32f4xx_hal_i2c.c:1968:26
	ldr	r0, [r0]
.Ltmp482:
	.loc	7 1968 9                        @ ../Library/STM32F4xx_HAL_Driver/Src/stm32f4xx_hal_i2c.c:1968:9
	lsls	r0, r0, #31
	cbnz	r0, .LBB19_15
	b	.LBB19_14
.LBB19_14:
.Ltmp483:
	.loc	7 1971 7 is_stmt 1              @ ../Library/STM32F4xx_HAL_Driver/Src/stm32f4xx_hal_i2c.c:1971:7
	ldr	r0, [sp, #24]
	ldr	r1, [r0]
	ldr	r0, [r1]
	orr	r0, r0, #1
	str	r0, [r1]
	.loc	7 1972 5                        @ ../Library/STM32F4xx_HAL_Driver/Src/stm32f4xx_hal_i2c.c:1972:5
	b	.LBB19_15
.Ltmp484:
.LBB19_15:
	.loc	7 1975 5                        @ ../Library/STM32F4xx_HAL_Driver/Src/stm32f4xx_hal_i2c.c:1975:5
	ldr	r0, [sp, #24]
	ldr	r1, [r0]
	ldr	r0, [r1]
	bic	r0, r0, #2048
	str	r0, [r1]
	.loc	7 1977 5                        @ ../Library/STM32F4xx_HAL_Driver/Src/stm32f4xx_hal_i2c.c:1977:5
	ldr	r1, [sp, #24]
	movs	r0, #33
	.loc	7 1977 21 is_stmt 0             @ ../Library/STM32F4xx_HAL_Driver/Src/stm32f4xx_hal_i2c.c:1977:21
	strb.w	r0, [r1, #61]
	.loc	7 1978 5 is_stmt 1              @ ../Library/STM32F4xx_HAL_Driver/Src/stm32f4xx_hal_i2c.c:1978:5
	ldr	r1, [sp, #24]
	movs	r0, #16
	.loc	7 1978 21 is_stmt 0             @ ../Library/STM32F4xx_HAL_Driver/Src/stm32f4xx_hal_i2c.c:1978:21
	strb.w	r0, [r1, #62]
	.loc	7 1979 5 is_stmt 1              @ ../Library/STM32F4xx_HAL_Driver/Src/stm32f4xx_hal_i2c.c:1979:5
	ldr	r1, [sp, #24]
	movs	r0, #0
	.loc	7 1979 21 is_stmt 0             @ ../Library/STM32F4xx_HAL_Driver/Src/stm32f4xx_hal_i2c.c:1979:21
	str	r0, [r1, #64]
	.loc	7 1982 25 is_stmt 1             @ ../Library/STM32F4xx_HAL_Driver/Src/stm32f4xx_hal_i2c.c:1982:25
	ldr	r0, [sp, #16]
	.loc	7 1982 5 is_stmt 0              @ ../Library/STM32F4xx_HAL_Driver/Src/stm32f4xx_hal_i2c.c:1982:5
	ldr	r1, [sp, #24]
	.loc	7 1982 23                       @ ../Library/STM32F4xx_HAL_Driver/Src/stm32f4xx_hal_i2c.c:1982:23
	str	r0, [r1, #36]
	.loc	7 1983 25 is_stmt 1             @ ../Library/STM32F4xx_HAL_Driver/Src/stm32f4xx_hal_i2c.c:1983:25
	ldrh.w	r0, [sp, #14]
	.loc	7 1983 5 is_stmt 0              @ ../Library/STM32F4xx_HAL_Driver/Src/stm32f4xx_hal_i2c.c:1983:5
	ldr	r1, [sp, #24]
	.loc	7 1983 23                       @ ../Library/STM32F4xx_HAL_Driver/Src/stm32f4xx_hal_i2c.c:1983:23
	strh	r0, [r1, #42]
	.loc	7 1984 25 is_stmt 1             @ ../Library/STM32F4xx_HAL_Driver/Src/stm32f4xx_hal_i2c.c:1984:25
	ldr	r0, [sp, #24]
	.loc	7 1984 31 is_stmt 0             @ ../Library/STM32F4xx_HAL_Driver/Src/stm32f4xx_hal_i2c.c:1984:31
	ldrh	r0, [r0, #42]
	.loc	7 1984 5                        @ ../Library/STM32F4xx_HAL_Driver/Src/stm32f4xx_hal_i2c.c:1984:5
	ldr	r1, [sp, #24]
	.loc	7 1984 23                       @ ../Library/STM32F4xx_HAL_Driver/Src/stm32f4xx_hal_i2c.c:1984:23
	strh	r0, [r1, #40]
	.loc	7 1985 5 is_stmt 1              @ ../Library/STM32F4xx_HAL_Driver/Src/stm32f4xx_hal_i2c.c:1985:5
	ldr	r1, [sp, #24]
	movs	r0, #0
	movt	r0, #65535
	.loc	7 1985 23 is_stmt 0             @ ../Library/STM32F4xx_HAL_Driver/Src/stm32f4xx_hal_i2c.c:1985:23
	str	r0, [r1, #44]
	.loc	7 1986 25 is_stmt 1             @ ../Library/STM32F4xx_HAL_Driver/Src/stm32f4xx_hal_i2c.c:1986:25
	ldrh.w	r0, [sp, #22]
	.loc	7 1986 5 is_stmt 0              @ ../Library/STM32F4xx_HAL_Driver/Src/stm32f4xx_hal_i2c.c:1986:5
	ldr	r1, [sp, #24]
	.loc	7 1986 23                       @ ../Library/STM32F4xx_HAL_Driver/Src/stm32f4xx_hal_i2c.c:1986:23
	str	r0, [r1, #68]
.Ltmp485:
	.loc	7 1988 9 is_stmt 1              @ ../Library/STM32F4xx_HAL_Driver/Src/stm32f4xx_hal_i2c.c:1988:9
	ldr	r0, [sp, #24]
	.loc	7 1988 15 is_stmt 0             @ ../Library/STM32F4xx_HAL_Driver/Src/stm32f4xx_hal_i2c.c:1988:15
	ldrh	r0, [r0, #40]
.Ltmp486:
	.loc	7 1988 9                        @ ../Library/STM32F4xx_HAL_Driver/Src/stm32f4xx_hal_i2c.c:1988:9
	cmp	r0, #0
	beq	.LBB19_29
	b	.LBB19_16
.LBB19_16:
.Ltmp487:
	.loc	7 1990 11 is_stmt 1             @ ../Library/STM32F4xx_HAL_Driver/Src/stm32f4xx_hal_i2c.c:1990:11
	ldr	r0, [sp, #24]
	.loc	7 1990 17 is_stmt 0             @ ../Library/STM32F4xx_HAL_Driver/Src/stm32f4xx_hal_i2c.c:1990:17
	ldr	r0, [r0, #52]
.Ltmp488:
	.loc	7 1990 11                       @ ../Library/STM32F4xx_HAL_Driver/Src/stm32f4xx_hal_i2c.c:1990:11
	cbz	r0, .LBB19_18
	b	.LBB19_17
.LBB19_17:
.Ltmp489:
	.loc	7 1993 9 is_stmt 1              @ ../Library/STM32F4xx_HAL_Driver/Src/stm32f4xx_hal_i2c.c:1993:9
	ldr	r0, [sp, #24]
	.loc	7 1993 15 is_stmt 0             @ ../Library/STM32F4xx_HAL_Driver/Src/stm32f4xx_hal_i2c.c:1993:15
	ldr	r1, [r0, #52]
	.loc	7 1993 40                       @ ../Library/STM32F4xx_HAL_Driver/Src/stm32f4xx_hal_i2c.c:1993:40
	movw	r0, :lower16:I2C_DMAXferCplt
	movt	r0, :upper16:I2C_DMAXferCplt
	str	r0, [r1, #60]
	.loc	7 1996 9 is_stmt 1              @ ../Library/STM32F4xx_HAL_Driver/Src/stm32f4xx_hal_i2c.c:1996:9
	ldr	r0, [sp, #24]
	.loc	7 1996 15 is_stmt 0             @ ../Library/STM32F4xx_HAL_Driver/Src/stm32f4xx_hal_i2c.c:1996:15
	ldr	r1, [r0, #52]
	.loc	7 1996 41                       @ ../Library/STM32F4xx_HAL_Driver/Src/stm32f4xx_hal_i2c.c:1996:41
	movw	r0, :lower16:I2C_DMAError
	movt	r0, :upper16:I2C_DMAError
	str	r0, [r1, #76]
	.loc	7 1999 9 is_stmt 1              @ ../Library/STM32F4xx_HAL_Driver/Src/stm32f4xx_hal_i2c.c:1999:9
	ldr	r0, [sp, #24]
	.loc	7 1999 15 is_stmt 0             @ ../Library/STM32F4xx_HAL_Driver/Src/stm32f4xx_hal_i2c.c:1999:15
	ldr	r1, [r0, #52]
	movs	r0, #0
	.loc	7 1999 44                       @ ../Library/STM32F4xx_HAL_Driver/Src/stm32f4xx_hal_i2c.c:1999:44
	str	r0, [r1, #64]
	.loc	7 2000 9 is_stmt 1              @ ../Library/STM32F4xx_HAL_Driver/Src/stm32f4xx_hal_i2c.c:2000:9
	ldr	r1, [sp, #24]
	.loc	7 2000 15 is_stmt 0             @ ../Library/STM32F4xx_HAL_Driver/Src/stm32f4xx_hal_i2c.c:2000:15
	ldr	r1, [r1, #52]
	.loc	7 2000 42                       @ ../Library/STM32F4xx_HAL_Driver/Src/stm32f4xx_hal_i2c.c:2000:42
	str	r0, [r1, #68]
	.loc	7 2001 9 is_stmt 1              @ ../Library/STM32F4xx_HAL_Driver/Src/stm32f4xx_hal_i2c.c:2001:9
	ldr	r1, [sp, #24]
	.loc	7 2001 15 is_stmt 0             @ ../Library/STM32F4xx_HAL_Driver/Src/stm32f4xx_hal_i2c.c:2001:15
	ldr	r1, [r1, #52]
	.loc	7 2001 46                       @ ../Library/STM32F4xx_HAL_Driver/Src/stm32f4xx_hal_i2c.c:2001:46
	str	r0, [r1, #72]
	.loc	7 2002 9 is_stmt 1              @ ../Library/STM32F4xx_HAL_Driver/Src/stm32f4xx_hal_i2c.c:2002:9
	ldr	r1, [sp, #24]
	.loc	7 2002 15 is_stmt 0             @ ../Library/STM32F4xx_HAL_Driver/Src/stm32f4xx_hal_i2c.c:2002:15
	ldr	r1, [r1, #52]
	.loc	7 2002 41                       @ ../Library/STM32F4xx_HAL_Driver/Src/stm32f4xx_hal_i2c.c:2002:41
	str	r0, [r1, #80]
	.loc	7 2005 42 is_stmt 1             @ ../Library/STM32F4xx_HAL_Driver/Src/stm32f4xx_hal_i2c.c:2005:42
	ldr	r3, [sp, #24]
	.loc	7 2005 99 is_stmt 0             @ ../Library/STM32F4xx_HAL_Driver/Src/stm32f4xx_hal_i2c.c:2005:99
	ldr	r2, [r3]
	.loc	7 2005 72                       @ ../Library/STM32F4xx_HAL_Driver/Src/stm32f4xx_hal_i2c.c:2005:72
	ldr	r1, [r3, #36]
	.loc	7 2005 48                       @ ../Library/STM32F4xx_HAL_Driver/Src/stm32f4xx_hal_i2c.c:2005:48
	ldr	r0, [r3, #52]
	.loc	7 2005 109                      @ ../Library/STM32F4xx_HAL_Driver/Src/stm32f4xx_hal_i2c.c:2005:109
	adds	r2, #16
	.loc	7 2005 119                      @ ../Library/STM32F4xx_HAL_Driver/Src/stm32f4xx_hal_i2c.c:2005:119
	ldrh	r3, [r3, #40]
	.loc	7 2005 25                       @ ../Library/STM32F4xx_HAL_Driver/Src/stm32f4xx_hal_i2c.c:2005:25
	bl	HAL_DMA_Start_IT
	.loc	7 2005 23                       @ ../Library/STM32F4xx_HAL_Driver/Src/stm32f4xx_hal_i2c.c:2005:23
	strb.w	r0, [sp, #7]
	.loc	7 2006 7 is_stmt 1              @ ../Library/STM32F4xx_HAL_Driver/Src/stm32f4xx_hal_i2c.c:2006:7
	b	.LBB19_21
.Ltmp490:
.LBB19_18:
	.loc	7 2010 9                        @ ../Library/STM32F4xx_HAL_Driver/Src/stm32f4xx_hal_i2c.c:2010:9
	ldr	r1, [sp, #24]
	movs	r0, #32
	.loc	7 2010 25 is_stmt 0             @ ../Library/STM32F4xx_HAL_Driver/Src/stm32f4xx_hal_i2c.c:2010:25
	strb.w	r0, [r1, #61]
	.loc	7 2011 9 is_stmt 1              @ ../Library/STM32F4xx_HAL_Driver/Src/stm32f4xx_hal_i2c.c:2011:9
	ldr	r1, [sp, #24]
	movs	r0, #0
	.loc	7 2011 25 is_stmt 0             @ ../Library/STM32F4xx_HAL_Driver/Src/stm32f4xx_hal_i2c.c:2011:25
	strb.w	r0, [r1, #62]
	.loc	7 2014 9 is_stmt 1              @ ../Library/STM32F4xx_HAL_Driver/Src/stm32f4xx_hal_i2c.c:2014:9
	ldr	r1, [sp, #24]
	.loc	7 2014 25 is_stmt 0             @ ../Library/STM32F4xx_HAL_Driver/Src/stm32f4xx_hal_i2c.c:2014:25
	ldr	r0, [r1, #64]
	orr	r0, r0, #128
	str	r0, [r1, #64]
	.loc	7 2017 9 is_stmt 1              @ ../Library/STM32F4xx_HAL_Driver/Src/stm32f4xx_hal_i2c.c:2017:9
	b	.LBB19_19
.LBB19_19:
.Ltmp491:
	.loc	7 2017 9 is_stmt 0              @ ../Library/STM32F4xx_HAL_Driver/Src/stm32f4xx_hal_i2c.c:2017:9
	ldr	r1, [sp, #24]
	movs	r0, #0
	strb.w	r0, [r1, #60]
	b	.LBB19_20
.Ltmp492:
.LBB19_20:
	.loc	7 0 9                           @ ../Library/STM32F4xx_HAL_Driver/Src/stm32f4xx_hal_i2c.c:0:9
	movs	r0, #1
	.loc	7 2019 9 is_stmt 1              @ ../Library/STM32F4xx_HAL_Driver/Src/stm32f4xx_hal_i2c.c:2019:9
	strb.w	r0, [sp, #31]
	b	.LBB19_34
.Ltmp493:
.LBB19_21:
	.loc	7 2022 11                       @ ../Library/STM32F4xx_HAL_Driver/Src/stm32f4xx_hal_i2c.c:2022:11
	ldrb.w	r0, [sp, #7]
.Ltmp494:
	.loc	7 2022 11 is_stmt 0             @ ../Library/STM32F4xx_HAL_Driver/Src/stm32f4xx_hal_i2c.c:2022:11
	cbnz	r0, .LBB19_25
	b	.LBB19_22
.LBB19_22:
.Ltmp495:
	.loc	7 2025 9 is_stmt 1              @ ../Library/STM32F4xx_HAL_Driver/Src/stm32f4xx_hal_i2c.c:2025:9
	b	.LBB19_23
.LBB19_23:
.Ltmp496:
	.loc	7 2025 9 is_stmt 0              @ ../Library/STM32F4xx_HAL_Driver/Src/stm32f4xx_hal_i2c.c:2025:9
	ldr	r1, [sp, #24]
	movs	r0, #0
	strb.w	r0, [r1, #60]
	b	.LBB19_24
.Ltmp497:
.LBB19_24:
	.loc	7 2032 9 is_stmt 1              @ ../Library/STM32F4xx_HAL_Driver/Src/stm32f4xx_hal_i2c.c:2032:9
	ldr	r0, [sp, #24]
	ldr	r1, [r0]
	ldr	r0, [r1, #4]
	orr	r0, r0, #768
	str	r0, [r1, #4]
	.loc	7 2035 9                        @ ../Library/STM32F4xx_HAL_Driver/Src/stm32f4xx_hal_i2c.c:2035:9
	ldr	r0, [sp, #24]
	ldr	r1, [r0]
	ldr	r0, [r1, #4]
	orr	r0, r0, #2048
	str	r0, [r1, #4]
	.loc	7 2038 9                        @ ../Library/STM32F4xx_HAL_Driver/Src/stm32f4xx_hal_i2c.c:2038:9
	ldr	r0, [sp, #24]
	ldr	r1, [r0]
	ldr	r0, [r1]
	orr	r0, r0, #1024
	str	r0, [r1]
	.loc	7 2041 9                        @ ../Library/STM32F4xx_HAL_Driver/Src/stm32f4xx_hal_i2c.c:2041:9
	ldr	r0, [sp, #24]
	ldr	r1, [r0]
	ldr	r0, [r1]
	orr	r0, r0, #256
	str	r0, [r1]
	.loc	7 2042 7                        @ ../Library/STM32F4xx_HAL_Driver/Src/stm32f4xx_hal_i2c.c:2042:7
	b	.LBB19_28
.Ltmp498:
.LBB19_25:
	.loc	7 2046 9                        @ ../Library/STM32F4xx_HAL_Driver/Src/stm32f4xx_hal_i2c.c:2046:9
	ldr	r1, [sp, #24]
	movs	r0, #32
	.loc	7 2046 25 is_stmt 0             @ ../Library/STM32F4xx_HAL_Driver/Src/stm32f4xx_hal_i2c.c:2046:25
	strb.w	r0, [r1, #61]
	.loc	7 2047 9 is_stmt 1              @ ../Library/STM32F4xx_HAL_Driver/Src/stm32f4xx_hal_i2c.c:2047:9
	ldr	r1, [sp, #24]
	movs	r0, #0
	.loc	7 2047 25 is_stmt 0             @ ../Library/STM32F4xx_HAL_Driver/Src/stm32f4xx_hal_i2c.c:2047:25
	strb.w	r0, [r1, #62]
	.loc	7 2050 9 is_stmt 1              @ ../Library/STM32F4xx_HAL_Driver/Src/stm32f4xx_hal_i2c.c:2050:9
	ldr	r1, [sp, #24]
	.loc	7 2050 25 is_stmt 0             @ ../Library/STM32F4xx_HAL_Driver/Src/stm32f4xx_hal_i2c.c:2050:25
	ldr	r0, [r1, #64]
	orr	r0, r0, #16
	str	r0, [r1, #64]
	.loc	7 2053 9 is_stmt 1              @ ../Library/STM32F4xx_HAL_Driver/Src/stm32f4xx_hal_i2c.c:2053:9
	b	.LBB19_26
.LBB19_26:
.Ltmp499:
	.loc	7 2053 9 is_stmt 0              @ ../Library/STM32F4xx_HAL_Driver/Src/stm32f4xx_hal_i2c.c:2053:9
	ldr	r1, [sp, #24]
	movs	r0, #0
	strb.w	r0, [r1, #60]
	b	.LBB19_27
.Ltmp500:
.LBB19_27:
	.loc	7 0 9                           @ ../Library/STM32F4xx_HAL_Driver/Src/stm32f4xx_hal_i2c.c:0:9
	movs	r0, #1
	.loc	7 2055 9 is_stmt 1              @ ../Library/STM32F4xx_HAL_Driver/Src/stm32f4xx_hal_i2c.c:2055:9
	strb.w	r0, [sp, #31]
	b	.LBB19_34
.Ltmp501:
.LBB19_28:
	.loc	7 2057 5                        @ ../Library/STM32F4xx_HAL_Driver/Src/stm32f4xx_hal_i2c.c:2057:5
	b	.LBB19_32
.Ltmp502:
.LBB19_29:
	.loc	7 2061 7                        @ ../Library/STM32F4xx_HAL_Driver/Src/stm32f4xx_hal_i2c.c:2061:7
	ldr	r0, [sp, #24]
	ldr	r1, [r0]
	ldr	r0, [r1]
	orr	r0, r0, #1024
	str	r0, [r1]
	.loc	7 2064 7                        @ ../Library/STM32F4xx_HAL_Driver/Src/stm32f4xx_hal_i2c.c:2064:7
	ldr	r0, [sp, #24]
	ldr	r1, [r0]
	ldr	r0, [r1]
	orr	r0, r0, #256
	str	r0, [r1]
	.loc	7 2067 7                        @ ../Library/STM32F4xx_HAL_Driver/Src/stm32f4xx_hal_i2c.c:2067:7
	b	.LBB19_30
.LBB19_30:
.Ltmp503:
	.loc	7 2067 7 is_stmt 0              @ ../Library/STM32F4xx_HAL_Driver/Src/stm32f4xx_hal_i2c.c:2067:7
	ldr	r1, [sp, #24]
	movs	r0, #0
	strb.w	r0, [r1, #60]
	b	.LBB19_31
.Ltmp504:
.LBB19_31:
	.loc	7 2074 7 is_stmt 1              @ ../Library/STM32F4xx_HAL_Driver/Src/stm32f4xx_hal_i2c.c:2074:7
	ldr	r0, [sp, #24]
	ldr	r1, [r0]
	ldr	r0, [r1, #4]
	orr	r0, r0, #1792
	str	r0, [r1, #4]
	b	.LBB19_32
.Ltmp505:
.LBB19_32:
	.loc	7 0 7 is_stmt 0                 @ ../Library/STM32F4xx_HAL_Driver/Src/stm32f4xx_hal_i2c.c:0:7
	movs	r0, #0
	.loc	7 2077 5 is_stmt 1              @ ../Library/STM32F4xx_HAL_Driver/Src/stm32f4xx_hal_i2c.c:2077:5
	strb.w	r0, [sp, #31]
	b	.LBB19_34
.Ltmp506:
.LBB19_33:
	.loc	7 0 5 is_stmt 0                 @ ../Library/STM32F4xx_HAL_Driver/Src/stm32f4xx_hal_i2c.c:0:5
	movs	r0, #2
.Ltmp507:
	.loc	7 2081 5 is_stmt 1              @ ../Library/STM32F4xx_HAL_Driver/Src/stm32f4xx_hal_i2c.c:2081:5
	strb.w	r0, [sp, #31]
	b	.LBB19_34
.Ltmp508:
.LBB19_34:
	.loc	7 2083 1                        @ ../Library/STM32F4xx_HAL_Driver/Src/stm32f4xx_hal_i2c.c:2083:1
	ldrb.w	r0, [sp, #31]
	add	sp, #32
	pop	{r7, pc}
.Ltmp509:
.Lfunc_end19:
	.size	HAL_I2C_Master_Transmit_DMA, .Lfunc_end19-HAL_I2C_Master_Transmit_DMA
	.cfi_endproc
	.cantunwind
	.fnend
                                        @ -- End function
	.section	.text.I2C_DMAXferCplt,"ax",%progbits
	.p2align	2                               @ -- Begin function I2C_DMAXferCplt
	.type	I2C_DMAXferCplt,%function
	.code	16                              @ @I2C_DMAXferCplt
	.thumb_func
I2C_DMAXferCplt:
.Lfunc_begin20:
	.loc	7 6914 0                        @ ../Library/STM32F4xx_HAL_Driver/Src/stm32f4xx_hal_i2c.c:6914:0
	.fnstart
	.cfi_startproc
@ %bb.0:
	.save	{r7, lr}
	push	{r7, lr}
	.cfi_def_cfa_offset 8
	.cfi_offset lr, -4
	.cfi_offset r7, -8
	.pad	#16
	sub	sp, #16
	.cfi_def_cfa_offset 24
	str	r0, [sp, #12]
.Ltmp510:
	.loc	7 6915 72 prologue_end          @ ../Library/STM32F4xx_HAL_Driver/Src/stm32f4xx_hal_i2c.c:6915:72
	ldr	r0, [sp, #12]
	.loc	7 6915 79 is_stmt 0             @ ../Library/STM32F4xx_HAL_Driver/Src/stm32f4xx_hal_i2c.c:6915:79
	ldr	r0, [r0, #56]
	.loc	7 6915 22                       @ ../Library/STM32F4xx_HAL_Driver/Src/stm32f4xx_hal_i2c.c:6915:22
	str	r0, [sp, #8]
	.loc	7 6918 39 is_stmt 1             @ ../Library/STM32F4xx_HAL_Driver/Src/stm32f4xx_hal_i2c.c:6918:39
	ldr	r0, [sp, #8]
	.loc	7 6918 45 is_stmt 0             @ ../Library/STM32F4xx_HAL_Driver/Src/stm32f4xx_hal_i2c.c:6918:45
	ldrb.w	r0, [r0, #61]
	.loc	7 6918 24                       @ ../Library/STM32F4xx_HAL_Driver/Src/stm32f4xx_hal_i2c.c:6918:24
	strb.w	r0, [sp, #7]
	.loc	7 6919 39 is_stmt 1             @ ../Library/STM32F4xx_HAL_Driver/Src/stm32f4xx_hal_i2c.c:6919:39
	ldr	r0, [sp, #8]
	.loc	7 6919 45 is_stmt 0             @ ../Library/STM32F4xx_HAL_Driver/Src/stm32f4xx_hal_i2c.c:6919:45
	ldrb.w	r0, [r0, #62]
	.loc	7 6919 23                       @ ../Library/STM32F4xx_HAL_Driver/Src/stm32f4xx_hal_i2c.c:6919:23
	strb.w	r0, [sp, #6]
	.loc	7 6920 39 is_stmt 1             @ ../Library/STM32F4xx_HAL_Driver/Src/stm32f4xx_hal_i2c.c:6920:39
	ldr	r0, [sp, #8]
	.loc	7 6920 45 is_stmt 0             @ ../Library/STM32F4xx_HAL_Driver/Src/stm32f4xx_hal_i2c.c:6920:45
	ldr	r0, [r0, #44]
	.loc	7 6920 12                       @ ../Library/STM32F4xx_HAL_Driver/Src/stm32f4xx_hal_i2c.c:6920:12
	str	r0, [sp]
	.loc	7 6923 3 is_stmt 1              @ ../Library/STM32F4xx_HAL_Driver/Src/stm32f4xx_hal_i2c.c:6923:3
	ldr	r0, [sp, #8]
	ldr	r1, [r0]
	ldr	r0, [r1, #4]
	bic	r0, r0, #768
	str	r0, [r1, #4]
.Ltmp511:
	.loc	7 6926 7                        @ ../Library/STM32F4xx_HAL_Driver/Src/stm32f4xx_hal_i2c.c:6926:7
	ldr	r0, [sp, #8]
	.loc	7 6926 13 is_stmt 0             @ ../Library/STM32F4xx_HAL_Driver/Src/stm32f4xx_hal_i2c.c:6926:13
	ldr	r0, [r0, #52]
.Ltmp512:
	.loc	7 6926 7                        @ ../Library/STM32F4xx_HAL_Driver/Src/stm32f4xx_hal_i2c.c:6926:7
	cbz	r0, .LBB20_2
	b	.LBB20_1
.LBB20_1:
.Ltmp513:
	.loc	7 6928 5 is_stmt 1              @ ../Library/STM32F4xx_HAL_Driver/Src/stm32f4xx_hal_i2c.c:6928:5
	ldr	r0, [sp, #8]
	.loc	7 6928 11 is_stmt 0             @ ../Library/STM32F4xx_HAL_Driver/Src/stm32f4xx_hal_i2c.c:6928:11
	ldr	r1, [r0, #52]
	movs	r0, #0
	.loc	7 6928 36                       @ ../Library/STM32F4xx_HAL_Driver/Src/stm32f4xx_hal_i2c.c:6928:36
	str	r0, [r1, #60]
	.loc	7 6929 3 is_stmt 1              @ ../Library/STM32F4xx_HAL_Driver/Src/stm32f4xx_hal_i2c.c:6929:3
	b	.LBB20_2
.Ltmp514:
.LBB20_2:
	.loc	7 6930 7                        @ ../Library/STM32F4xx_HAL_Driver/Src/stm32f4xx_hal_i2c.c:6930:7
	ldr	r0, [sp, #8]
	.loc	7 6930 13 is_stmt 0             @ ../Library/STM32F4xx_HAL_Driver/Src/stm32f4xx_hal_i2c.c:6930:13
	ldr	r0, [r0, #56]
.Ltmp515:
	.loc	7 6930 7                        @ ../Library/STM32F4xx_HAL_Driver/Src/stm32f4xx_hal_i2c.c:6930:7
	cbz	r0, .LBB20_4
	b	.LBB20_3
.LBB20_3:
.Ltmp516:
	.loc	7 6932 5 is_stmt 1              @ ../Library/STM32F4xx_HAL_Driver/Src/stm32f4xx_hal_i2c.c:6932:5
	ldr	r0, [sp, #8]
	.loc	7 6932 11 is_stmt 0             @ ../Library/STM32F4xx_HAL_Driver/Src/stm32f4xx_hal_i2c.c:6932:11
	ldr	r1, [r0, #56]
	movs	r0, #0
	.loc	7 6932 36                       @ ../Library/STM32F4xx_HAL_Driver/Src/stm32f4xx_hal_i2c.c:6932:36
	str	r0, [r1, #60]
	.loc	7 6933 3 is_stmt 1              @ ../Library/STM32F4xx_HAL_Driver/Src/stm32f4xx_hal_i2c.c:6933:3
	b	.LBB20_4
.Ltmp517:
.LBB20_4:
	.loc	7 6935 9                        @ ../Library/STM32F4xx_HAL_Driver/Src/stm32f4xx_hal_i2c.c:6935:9
	ldrb.w	r0, [sp, #7]
	.loc	7 6935 32 is_stmt 0             @ ../Library/STM32F4xx_HAL_Driver/Src/stm32f4xx_hal_i2c.c:6935:32
	and	r0, r0, #33
	.loc	7 6935 103                      @ ../Library/STM32F4xx_HAL_Driver/Src/stm32f4xx_hal_i2c.c:6935:103
	cmp	r0, #33
	beq	.LBB20_7
	b	.LBB20_5
.LBB20_5:
	.loc	7 6935 109                      @ ../Library/STM32F4xx_HAL_Driver/Src/stm32f4xx_hal_i2c.c:6935:109
	ldrb.w	r0, [sp, #7]
	.loc	7 6935 132                      @ ../Library/STM32F4xx_HAL_Driver/Src/stm32f4xx_hal_i2c.c:6935:132
	and	r0, r0, #34
	.loc	7 6935 203                      @ ../Library/STM32F4xx_HAL_Driver/Src/stm32f4xx_hal_i2c.c:6935:203
	cmp	r0, #34
	bne	.LBB20_14
	b	.LBB20_6
.LBB20_6:
	.loc	7 6935 207                      @ ../Library/STM32F4xx_HAL_Driver/Src/stm32f4xx_hal_i2c.c:6935:207
	ldrb.w	r0, [sp, #6]
.Ltmp518:
	.loc	7 6935 7                        @ ../Library/STM32F4xx_HAL_Driver/Src/stm32f4xx_hal_i2c.c:6935:7
	cmp	r0, #32
	bne	.LBB20_14
	b	.LBB20_7
.LBB20_7:
.Ltmp519:
	.loc	7 6938 5 is_stmt 1              @ ../Library/STM32F4xx_HAL_Driver/Src/stm32f4xx_hal_i2c.c:6938:5
	ldr	r0, [sp, #8]
	ldr	r1, [r0]
	ldr	r0, [r1, #4]
	bic	r0, r0, #2048
	str	r0, [r1, #4]
	.loc	7 6940 5                        @ ../Library/STM32F4xx_HAL_Driver/Src/stm32f4xx_hal_i2c.c:6940:5
	ldr	r1, [sp, #8]
	movs	r0, #0
	.loc	7 6940 21 is_stmt 0             @ ../Library/STM32F4xx_HAL_Driver/Src/stm32f4xx_hal_i2c.c:6940:21
	strh	r0, [r1, #42]
.Ltmp520:
	.loc	7 6942 9 is_stmt 1              @ ../Library/STM32F4xx_HAL_Driver/Src/stm32f4xx_hal_i2c.c:6942:9
	ldrb.w	r0, [sp, #7]
.Ltmp521:
	.loc	7 6942 9 is_stmt 0              @ ../Library/STM32F4xx_HAL_Driver/Src/stm32f4xx_hal_i2c.c:6942:9
	cmp	r0, #41
	bne	.LBB20_9
	b	.LBB20_8
.LBB20_8:
.Ltmp522:
	.loc	7 6945 7 is_stmt 1              @ ../Library/STM32F4xx_HAL_Driver/Src/stm32f4xx_hal_i2c.c:6945:7
	ldr	r1, [sp, #8]
	movs	r0, #33
	.loc	7 6945 27 is_stmt 0             @ ../Library/STM32F4xx_HAL_Driver/Src/stm32f4xx_hal_i2c.c:6945:27
	str	r0, [r1, #48]
	.loc	7 6946 7 is_stmt 1              @ ../Library/STM32F4xx_HAL_Driver/Src/stm32f4xx_hal_i2c.c:6946:7
	ldr	r1, [sp, #8]
	movs	r0, #40
	.loc	7 6946 19 is_stmt 0             @ ../Library/STM32F4xx_HAL_Driver/Src/stm32f4xx_hal_i2c.c:6946:19
	strb.w	r0, [r1, #61]
	.loc	7 6952 35 is_stmt 1             @ ../Library/STM32F4xx_HAL_Driver/Src/stm32f4xx_hal_i2c.c:6952:35
	ldr	r0, [sp, #8]
	.loc	7 6952 7 is_stmt 0              @ ../Library/STM32F4xx_HAL_Driver/Src/stm32f4xx_hal_i2c.c:6952:7
	bl	HAL_I2C_SlaveTxCpltCallback
	.loc	7 6954 5 is_stmt 1              @ ../Library/STM32F4xx_HAL_Driver/Src/stm32f4xx_hal_i2c.c:6954:5
	b	.LBB20_13
.Ltmp523:
.LBB20_9:
	.loc	7 6955 14                       @ ../Library/STM32F4xx_HAL_Driver/Src/stm32f4xx_hal_i2c.c:6955:14
	ldrb.w	r0, [sp, #7]
.Ltmp524:
	.loc	7 6955 14 is_stmt 0             @ ../Library/STM32F4xx_HAL_Driver/Src/stm32f4xx_hal_i2c.c:6955:14
	cmp	r0, #42
	bne	.LBB20_11
	b	.LBB20_10
.LBB20_10:
.Ltmp525:
	.loc	7 6958 7 is_stmt 1              @ ../Library/STM32F4xx_HAL_Driver/Src/stm32f4xx_hal_i2c.c:6958:7
	ldr	r1, [sp, #8]
	movs	r0, #34
	.loc	7 6958 27 is_stmt 0             @ ../Library/STM32F4xx_HAL_Driver/Src/stm32f4xx_hal_i2c.c:6958:27
	str	r0, [r1, #48]
	.loc	7 6959 7 is_stmt 1              @ ../Library/STM32F4xx_HAL_Driver/Src/stm32f4xx_hal_i2c.c:6959:7
	ldr	r1, [sp, #8]
	movs	r0, #40
	.loc	7 6959 19 is_stmt 0             @ ../Library/STM32F4xx_HAL_Driver/Src/stm32f4xx_hal_i2c.c:6959:19
	strb.w	r0, [r1, #61]
	.loc	7 6965 35 is_stmt 1             @ ../Library/STM32F4xx_HAL_Driver/Src/stm32f4xx_hal_i2c.c:6965:35
	ldr	r0, [sp, #8]
	.loc	7 6965 7 is_stmt 0              @ ../Library/STM32F4xx_HAL_Driver/Src/stm32f4xx_hal_i2c.c:6965:7
	bl	HAL_I2C_SlaveRxCpltCallback
	.loc	7 6967 5 is_stmt 1              @ ../Library/STM32F4xx_HAL_Driver/Src/stm32f4xx_hal_i2c.c:6967:5
	b	.LBB20_12
.Ltmp526:
.LBB20_11:
	.loc	7 0 5 is_stmt 0                 @ ../Library/STM32F4xx_HAL_Driver/Src/stm32f4xx_hal_i2c.c:0:5
	b	.LBB20_12
.LBB20_12:
	b	.LBB20_13
.LBB20_13:
	.loc	7 6974 5 is_stmt 1              @ ../Library/STM32F4xx_HAL_Driver/Src/stm32f4xx_hal_i2c.c:6974:5
	ldr	r0, [sp, #8]
	ldr	r1, [r0]
	ldr	r0, [r1, #4]
	orr	r0, r0, #768
	str	r0, [r1, #4]
	.loc	7 6975 3                        @ ../Library/STM32F4xx_HAL_Driver/Src/stm32f4xx_hal_i2c.c:6975:3
	b	.LBB20_31
.Ltmp527:
.LBB20_14:
	.loc	7 6977 12                       @ ../Library/STM32F4xx_HAL_Driver/Src/stm32f4xx_hal_i2c.c:6977:12
	ldr	r0, [sp, #8]
	.loc	7 6977 18 is_stmt 0             @ ../Library/STM32F4xx_HAL_Driver/Src/stm32f4xx_hal_i2c.c:6977:18
	ldrb.w	r0, [r0, #62]
.Ltmp528:
	.loc	7 6977 12                       @ ../Library/STM32F4xx_HAL_Driver/Src/stm32f4xx_hal_i2c.c:6977:12
	cmp	r0, #0
	beq	.LBB20_29
	b	.LBB20_15
.LBB20_15:
.Ltmp529:
	.loc	7 6979 9 is_stmt 1              @ ../Library/STM32F4xx_HAL_Driver/Src/stm32f4xx_hal_i2c.c:6979:9
	ldr	r0, [sp, #8]
	.loc	7 6979 15 is_stmt 0             @ ../Library/STM32F4xx_HAL_Driver/Src/stm32f4xx_hal_i2c.c:6979:15
	ldrh	r0, [r0, #42]
.Ltmp530:
	.loc	7 6979 9                        @ ../Library/STM32F4xx_HAL_Driver/Src/stm32f4xx_hal_i2c.c:6979:9
	cmp	r0, #1
	bne	.LBB20_17
	b	.LBB20_16
.LBB20_16:
.Ltmp531:
	.loc	7 6982 7 is_stmt 1              @ ../Library/STM32F4xx_HAL_Driver/Src/stm32f4xx_hal_i2c.c:6982:7
	ldr	r0, [sp, #8]
	ldr	r1, [r0]
	ldr	r0, [r1]
	bic	r0, r0, #1024
	str	r0, [r1]
	.loc	7 6983 5                        @ ../Library/STM32F4xx_HAL_Driver/Src/stm32f4xx_hal_i2c.c:6983:5
	b	.LBB20_17
.Ltmp532:
.LBB20_17:
	.loc	7 6986 5                        @ ../Library/STM32F4xx_HAL_Driver/Src/stm32f4xx_hal_i2c.c:6986:5
	ldr	r0, [sp, #8]
	ldr	r1, [r0]
	ldr	r0, [r1, #4]
	bic	r0, r0, #768
	str	r0, [r1, #4]
.Ltmp533:
	.loc	7 6989 10                       @ ../Library/STM32F4xx_HAL_Driver/Src/stm32f4xx_hal_i2c.c:6989:10
	ldr	r0, [sp]
	.loc	7 6989 53 is_stmt 0             @ ../Library/STM32F4xx_HAL_Driver/Src/stm32f4xx_hal_i2c.c:6989:53
	cmn.w	r0, #65536
	beq	.LBB20_21
	b	.LBB20_18
.LBB20_18:
	.loc	7 6989 57                       @ ../Library/STM32F4xx_HAL_Driver/Src/stm32f4xx_hal_i2c.c:6989:57
	ldr	r0, [sp]
	.loc	7 6989 105                      @ ../Library/STM32F4xx_HAL_Driver/Src/stm32f4xx_hal_i2c.c:6989:105
	cmp	r0, #8
	beq	.LBB20_21
	b	.LBB20_19
.LBB20_19:
	.loc	7 6989 109                      @ ../Library/STM32F4xx_HAL_Driver/Src/stm32f4xx_hal_i2c.c:6989:109
	ldr	r0, [sp]
	.loc	7 6989 157                      @ ../Library/STM32F4xx_HAL_Driver/Src/stm32f4xx_hal_i2c.c:6989:157
	cmp.w	r0, #-1442840576
	beq	.LBB20_21
	b	.LBB20_20
.LBB20_20:
	.loc	7 6989 161                      @ ../Library/STM32F4xx_HAL_Driver/Src/stm32f4xx_hal_i2c.c:6989:161
	ldr	r0, [sp]
.Ltmp534:
	.loc	7 6989 9                        @ ../Library/STM32F4xx_HAL_Driver/Src/stm32f4xx_hal_i2c.c:6989:9
	cmp	r0, #32
	bne	.LBB20_22
	b	.LBB20_21
.LBB20_21:
.Ltmp535:
	.loc	7 6992 7 is_stmt 1              @ ../Library/STM32F4xx_HAL_Driver/Src/stm32f4xx_hal_i2c.c:6992:7
	ldr	r0, [sp, #8]
	ldr	r1, [r0]
	ldr	r0, [r1]
	orr	r0, r0, #512
	str	r0, [r1]
	.loc	7 6993 5                        @ ../Library/STM32F4xx_HAL_Driver/Src/stm32f4xx_hal_i2c.c:6993:5
	b	.LBB20_22
.Ltmp536:
.LBB20_22:
	.loc	7 6996 5                        @ ../Library/STM32F4xx_HAL_Driver/Src/stm32f4xx_hal_i2c.c:6996:5
	ldr	r0, [sp, #8]
	ldr	r1, [r0]
	ldr	r0, [r1, #4]
	bic	r0, r0, #4096
	str	r0, [r1, #4]
	.loc	7 6999 5                        @ ../Library/STM32F4xx_HAL_Driver/Src/stm32f4xx_hal_i2c.c:6999:5
	ldr	r0, [sp, #8]
	ldr	r1, [r0]
	ldr	r0, [r1, #4]
	bic	r0, r0, #2048
	str	r0, [r1, #4]
	.loc	7 7001 5                        @ ../Library/STM32F4xx_HAL_Driver/Src/stm32f4xx_hal_i2c.c:7001:5
	ldr	r1, [sp, #8]
	movs	r0, #0
	.loc	7 7001 21 is_stmt 0             @ ../Library/STM32F4xx_HAL_Driver/Src/stm32f4xx_hal_i2c.c:7001:21
	strh	r0, [r1, #42]
.Ltmp537:
	.loc	7 7004 9 is_stmt 1              @ ../Library/STM32F4xx_HAL_Driver/Src/stm32f4xx_hal_i2c.c:7004:9
	ldr	r0, [sp, #8]
	.loc	7 7004 15 is_stmt 0             @ ../Library/STM32F4xx_HAL_Driver/Src/stm32f4xx_hal_i2c.c:7004:15
	ldr	r0, [r0, #64]
.Ltmp538:
	.loc	7 7004 9                        @ ../Library/STM32F4xx_HAL_Driver/Src/stm32f4xx_hal_i2c.c:7004:9
	cbz	r0, .LBB20_24
	b	.LBB20_23
.LBB20_23:
.Ltmp539:
	.loc	7 7009 29 is_stmt 1             @ ../Library/STM32F4xx_HAL_Driver/Src/stm32f4xx_hal_i2c.c:7009:29
	ldr	r0, [sp, #8]
	.loc	7 7009 7 is_stmt 0              @ ../Library/STM32F4xx_HAL_Driver/Src/stm32f4xx_hal_i2c.c:7009:7
	bl	HAL_I2C_ErrorCallback
	.loc	7 7011 5 is_stmt 1              @ ../Library/STM32F4xx_HAL_Driver/Src/stm32f4xx_hal_i2c.c:7011:5
	b	.LBB20_28
.Ltmp540:
.LBB20_24:
	.loc	7 7014 7                        @ ../Library/STM32F4xx_HAL_Driver/Src/stm32f4xx_hal_i2c.c:7014:7
	ldr	r1, [sp, #8]
	movs	r0, #32
	.loc	7 7014 19 is_stmt 0             @ ../Library/STM32F4xx_HAL_Driver/Src/stm32f4xx_hal_i2c.c:7014:19
	strb.w	r0, [r1, #61]
.Ltmp541:
	.loc	7 7016 11 is_stmt 1             @ ../Library/STM32F4xx_HAL_Driver/Src/stm32f4xx_hal_i2c.c:7016:11
	ldr	r0, [sp, #8]
	.loc	7 7016 17 is_stmt 0             @ ../Library/STM32F4xx_HAL_Driver/Src/stm32f4xx_hal_i2c.c:7016:17
	ldrb.w	r0, [r0, #62]
.Ltmp542:
	.loc	7 7016 11                       @ ../Library/STM32F4xx_HAL_Driver/Src/stm32f4xx_hal_i2c.c:7016:11
	cmp	r0, #64
	bne	.LBB20_26
	b	.LBB20_25
.LBB20_25:
.Ltmp543:
	.loc	7 7018 9 is_stmt 1              @ ../Library/STM32F4xx_HAL_Driver/Src/stm32f4xx_hal_i2c.c:7018:9
	ldr	r1, [sp, #8]
	movs	r0, #0
	.loc	7 7018 20 is_stmt 0             @ ../Library/STM32F4xx_HAL_Driver/Src/stm32f4xx_hal_i2c.c:7018:20
	strb.w	r0, [r1, #62]
	.loc	7 7019 9 is_stmt 1              @ ../Library/STM32F4xx_HAL_Driver/Src/stm32f4xx_hal_i2c.c:7019:9
	ldr	r1, [sp, #8]
	.loc	7 7019 29 is_stmt 0             @ ../Library/STM32F4xx_HAL_Driver/Src/stm32f4xx_hal_i2c.c:7019:29
	str	r0, [r1, #48]
	.loc	7 7024 35 is_stmt 1             @ ../Library/STM32F4xx_HAL_Driver/Src/stm32f4xx_hal_i2c.c:7024:35
	ldr	r0, [sp, #8]
	.loc	7 7024 9 is_stmt 0              @ ../Library/STM32F4xx_HAL_Driver/Src/stm32f4xx_hal_i2c.c:7024:9
	bl	HAL_I2C_MemRxCpltCallback
	.loc	7 7026 7 is_stmt 1              @ ../Library/STM32F4xx_HAL_Driver/Src/stm32f4xx_hal_i2c.c:7026:7
	b	.LBB20_27
.Ltmp544:
.LBB20_26:
	.loc	7 7029 9                        @ ../Library/STM32F4xx_HAL_Driver/Src/stm32f4xx_hal_i2c.c:7029:9
	ldr	r1, [sp, #8]
	movs	r0, #0
	.loc	7 7029 20 is_stmt 0             @ ../Library/STM32F4xx_HAL_Driver/Src/stm32f4xx_hal_i2c.c:7029:20
	strb.w	r0, [r1, #62]
	.loc	7 7030 9 is_stmt 1              @ ../Library/STM32F4xx_HAL_Driver/Src/stm32f4xx_hal_i2c.c:7030:9
	ldr	r1, [sp, #8]
	movs	r0, #18
	.loc	7 7030 29 is_stmt 0             @ ../Library/STM32F4xx_HAL_Driver/Src/stm32f4xx_hal_i2c.c:7030:29
	str	r0, [r1, #48]
	.loc	7 7035 38 is_stmt 1             @ ../Library/STM32F4xx_HAL_Driver/Src/stm32f4xx_hal_i2c.c:7035:38
	ldr	r0, [sp, #8]
	.loc	7 7035 9 is_stmt 0              @ ../Library/STM32F4xx_HAL_Driver/Src/stm32f4xx_hal_i2c.c:7035:9
	bl	HAL_I2C_MasterRxCpltCallback
	b	.LBB20_27
.Ltmp545:
.LBB20_27:
	.loc	7 0 9                           @ ../Library/STM32F4xx_HAL_Driver/Src/stm32f4xx_hal_i2c.c:0:9
	b	.LBB20_28
.LBB20_28:
	.loc	7 7039 3 is_stmt 1              @ ../Library/STM32F4xx_HAL_Driver/Src/stm32f4xx_hal_i2c.c:7039:3
	b	.LBB20_30
.Ltmp546:
.LBB20_29:
	.loc	7 0 3 is_stmt 0                 @ ../Library/STM32F4xx_HAL_Driver/Src/stm32f4xx_hal_i2c.c:0:3
	b	.LBB20_30
.LBB20_30:
	b	.LBB20_31
.LBB20_31:
	.loc	7 7044 1 is_stmt 1              @ ../Library/STM32F4xx_HAL_Driver/Src/stm32f4xx_hal_i2c.c:7044:1
	add	sp, #16
	pop	{r7, pc}
.Ltmp547:
.Lfunc_end20:
	.size	I2C_DMAXferCplt, .Lfunc_end20-I2C_DMAXferCplt
	.cfi_endproc
	.cantunwind
	.fnend
                                        @ -- End function
	.section	.text.I2C_DMAError,"ax",%progbits
	.p2align	2                               @ -- Begin function I2C_DMAError
	.type	I2C_DMAError,%function
	.code	16                              @ @I2C_DMAError
	.thumb_func
I2C_DMAError:
.Lfunc_begin21:
	.loc	7 7052 0                        @ ../Library/STM32F4xx_HAL_Driver/Src/stm32f4xx_hal_i2c.c:7052:0
	.fnstart
	.cfi_startproc
@ %bb.0:
	.save	{r7, lr}
	push	{r7, lr}
	.cfi_def_cfa_offset 8
	.cfi_offset lr, -4
	.cfi_offset r7, -8
	.pad	#8
	sub	sp, #8
	.cfi_def_cfa_offset 16
	str	r0, [sp, #4]
.Ltmp548:
	.loc	7 7053 72 prologue_end          @ ../Library/STM32F4xx_HAL_Driver/Src/stm32f4xx_hal_i2c.c:7053:72
	ldr	r0, [sp, #4]
	.loc	7 7053 79 is_stmt 0             @ ../Library/STM32F4xx_HAL_Driver/Src/stm32f4xx_hal_i2c.c:7053:79
	ldr	r0, [r0, #56]
	.loc	7 7053 22                       @ ../Library/STM32F4xx_HAL_Driver/Src/stm32f4xx_hal_i2c.c:7053:22
	str	r0, [sp]
.Ltmp549:
	.loc	7 7056 7 is_stmt 1              @ ../Library/STM32F4xx_HAL_Driver/Src/stm32f4xx_hal_i2c.c:7056:7
	ldr	r0, [sp]
	.loc	7 7056 13 is_stmt 0             @ ../Library/STM32F4xx_HAL_Driver/Src/stm32f4xx_hal_i2c.c:7056:13
	ldr	r0, [r0, #52]
.Ltmp550:
	.loc	7 7056 7                        @ ../Library/STM32F4xx_HAL_Driver/Src/stm32f4xx_hal_i2c.c:7056:7
	cbz	r0, .LBB21_2
	b	.LBB21_1
.LBB21_1:
.Ltmp551:
	.loc	7 7058 5 is_stmt 1              @ ../Library/STM32F4xx_HAL_Driver/Src/stm32f4xx_hal_i2c.c:7058:5
	ldr	r0, [sp]
	.loc	7 7058 11 is_stmt 0             @ ../Library/STM32F4xx_HAL_Driver/Src/stm32f4xx_hal_i2c.c:7058:11
	ldr	r1, [r0, #52]
	movs	r0, #0
	.loc	7 7058 36                       @ ../Library/STM32F4xx_HAL_Driver/Src/stm32f4xx_hal_i2c.c:7058:36
	str	r0, [r1, #60]
	.loc	7 7059 3 is_stmt 1              @ ../Library/STM32F4xx_HAL_Driver/Src/stm32f4xx_hal_i2c.c:7059:3
	b	.LBB21_2
.Ltmp552:
.LBB21_2:
	.loc	7 7060 7                        @ ../Library/STM32F4xx_HAL_Driver/Src/stm32f4xx_hal_i2c.c:7060:7
	ldr	r0, [sp]
	.loc	7 7060 13 is_stmt 0             @ ../Library/STM32F4xx_HAL_Driver/Src/stm32f4xx_hal_i2c.c:7060:13
	ldr	r0, [r0, #56]
.Ltmp553:
	.loc	7 7060 7                        @ ../Library/STM32F4xx_HAL_Driver/Src/stm32f4xx_hal_i2c.c:7060:7
	cbz	r0, .LBB21_4
	b	.LBB21_3
.LBB21_3:
.Ltmp554:
	.loc	7 7062 5 is_stmt 1              @ ../Library/STM32F4xx_HAL_Driver/Src/stm32f4xx_hal_i2c.c:7062:5
	ldr	r0, [sp]
	.loc	7 7062 11 is_stmt 0             @ ../Library/STM32F4xx_HAL_Driver/Src/stm32f4xx_hal_i2c.c:7062:11
	ldr	r1, [r0, #56]
	movs	r0, #0
	.loc	7 7062 36                       @ ../Library/STM32F4xx_HAL_Driver/Src/stm32f4xx_hal_i2c.c:7062:36
	str	r0, [r1, #60]
	.loc	7 7063 3 is_stmt 1              @ ../Library/STM32F4xx_HAL_Driver/Src/stm32f4xx_hal_i2c.c:7063:3
	b	.LBB21_4
.Ltmp555:
.LBB21_4:
	.loc	7 7066 24                       @ ../Library/STM32F4xx_HAL_Driver/Src/stm32f4xx_hal_i2c.c:7066:24
	ldr	r0, [sp, #4]
	.loc	7 7066 7 is_stmt 0              @ ../Library/STM32F4xx_HAL_Driver/Src/stm32f4xx_hal_i2c.c:7066:7
	bl	HAL_DMA_GetError
.Ltmp556:
	.loc	7 7066 7                        @ ../Library/STM32F4xx_HAL_Driver/Src/stm32f4xx_hal_i2c.c:7066:7
	cmp	r0, #2
	beq	.LBB21_6
	b	.LBB21_5
.LBB21_5:
.Ltmp557:
	.loc	7 7069 5 is_stmt 1              @ ../Library/STM32F4xx_HAL_Driver/Src/stm32f4xx_hal_i2c.c:7069:5
	ldr	r0, [sp]
	.loc	7 7069 11 is_stmt 0             @ ../Library/STM32F4xx_HAL_Driver/Src/stm32f4xx_hal_i2c.c:7069:11
	ldr	r1, [r0]
	.loc	7 7069 25                       @ ../Library/STM32F4xx_HAL_Driver/Src/stm32f4xx_hal_i2c.c:7069:25
	ldr	r0, [r1]
	bic	r0, r0, #1024
	str	r0, [r1]
	.loc	7 7071 5 is_stmt 1              @ ../Library/STM32F4xx_HAL_Driver/Src/stm32f4xx_hal_i2c.c:7071:5
	ldr	r1, [sp]
	movs	r0, #0
	.loc	7 7071 21 is_stmt 0             @ ../Library/STM32F4xx_HAL_Driver/Src/stm32f4xx_hal_i2c.c:7071:21
	strh	r0, [r1, #42]
	.loc	7 7073 5 is_stmt 1              @ ../Library/STM32F4xx_HAL_Driver/Src/stm32f4xx_hal_i2c.c:7073:5
	ldr	r2, [sp]
	movs	r1, #32
	.loc	7 7073 17 is_stmt 0             @ ../Library/STM32F4xx_HAL_Driver/Src/stm32f4xx_hal_i2c.c:7073:17
	strb.w	r1, [r2, #61]
	.loc	7 7074 5 is_stmt 1              @ ../Library/STM32F4xx_HAL_Driver/Src/stm32f4xx_hal_i2c.c:7074:5
	ldr	r1, [sp]
	.loc	7 7074 16 is_stmt 0             @ ../Library/STM32F4xx_HAL_Driver/Src/stm32f4xx_hal_i2c.c:7074:16
	strb.w	r0, [r1, #62]
	.loc	7 7076 5 is_stmt 1              @ ../Library/STM32F4xx_HAL_Driver/Src/stm32f4xx_hal_i2c.c:7076:5
	ldr	r1, [sp]
	.loc	7 7076 21 is_stmt 0             @ ../Library/STM32F4xx_HAL_Driver/Src/stm32f4xx_hal_i2c.c:7076:21
	ldr	r0, [r1, #64]
	orr	r0, r0, #16
	str	r0, [r1, #64]
	.loc	7 7081 27 is_stmt 1             @ ../Library/STM32F4xx_HAL_Driver/Src/stm32f4xx_hal_i2c.c:7081:27
	ldr	r0, [sp]
	.loc	7 7081 5 is_stmt 0              @ ../Library/STM32F4xx_HAL_Driver/Src/stm32f4xx_hal_i2c.c:7081:5
	bl	HAL_I2C_ErrorCallback
	.loc	7 7083 3 is_stmt 1              @ ../Library/STM32F4xx_HAL_Driver/Src/stm32f4xx_hal_i2c.c:7083:3
	b	.LBB21_6
.Ltmp558:
.LBB21_6:
	.loc	7 7084 1                        @ ../Library/STM32F4xx_HAL_Driver/Src/stm32f4xx_hal_i2c.c:7084:1
	add	sp, #8
	pop	{r7, pc}
.Ltmp559:
.Lfunc_end21:
	.size	I2C_DMAError, .Lfunc_end21-I2C_DMAError
	.cfi_endproc
	.cantunwind
	.fnend
                                        @ -- End function
	.section	.text.HAL_I2C_Master_Receive_DMA,"ax",%progbits
	.hidden	HAL_I2C_Master_Receive_DMA      @ -- Begin function HAL_I2C_Master_Receive_DMA
	.globl	HAL_I2C_Master_Receive_DMA
	.p2align	2
	.type	HAL_I2C_Master_Receive_DMA,%function
	.code	16                              @ @HAL_I2C_Master_Receive_DMA
	.thumb_func
HAL_I2C_Master_Receive_DMA:
.Lfunc_begin22:
	.loc	7 2096 0                        @ ../Library/STM32F4xx_HAL_Driver/Src/stm32f4xx_hal_i2c.c:2096:0
	.fnstart
	.cfi_startproc
@ %bb.0:
	.save	{r7, lr}
	push	{r7, lr}
	.cfi_def_cfa_offset 8
	.cfi_offset lr, -4
	.cfi_offset r7, -8
	.pad	#32
	sub	sp, #32
	.cfi_def_cfa_offset 40
                                        @ kill: def $r12 killed $r3
                                        @ kill: def $r12 killed $r1
	str	r0, [sp, #24]
	strh.w	r1, [sp, #22]
	str	r2, [sp, #16]
	strh.w	r3, [sp, #14]
	movs	r0, #0
.Ltmp560:
	.loc	7 2097 17 prologue_end          @ ../Library/STM32F4xx_HAL_Driver/Src/stm32f4xx_hal_i2c.c:2097:17
	str	r0, [sp, #8]
.Ltmp561:
	.loc	7 2100 7                        @ ../Library/STM32F4xx_HAL_Driver/Src/stm32f4xx_hal_i2c.c:2100:7
	ldr	r0, [sp, #24]
	.loc	7 2100 13 is_stmt 0             @ ../Library/STM32F4xx_HAL_Driver/Src/stm32f4xx_hal_i2c.c:2100:13
	ldrb.w	r0, [r0, #61]
.Ltmp562:
	.loc	7 2100 7                        @ ../Library/STM32F4xx_HAL_Driver/Src/stm32f4xx_hal_i2c.c:2100:7
	cmp	r0, #32
	bne.w	.LBB22_33
	b	.LBB22_1
.LBB22_1:
.Ltmp563:
	.loc	7 2103 38 is_stmt 1             @ ../Library/STM32F4xx_HAL_Driver/Src/stm32f4xx_hal_i2c.c:2103:38
	movw	r0, :lower16:SystemCoreClock
	movt	r0, :upper16:SystemCoreClock
	ldr	r0, [r0]
	movw	r1, #34079
	movt	r1, #20971
	.loc	7 2103 54 is_stmt 0             @ ../Library/STM32F4xx_HAL_Driver/Src/stm32f4xx_hal_i2c.c:2103:54
	umull	r1, r0, r0, r1
	lsrs	r0, r0, #3
	movw	r1, #19923
	movt	r1, #4194
	.loc	7 2103 60                       @ ../Library/STM32F4xx_HAL_Driver/Src/stm32f4xx_hal_i2c.c:2103:60
	umull	r1, r0, r0, r1
	lsrs	r0, r0, #6
	movs	r1, #25
	.loc	7 2103 35                       @ ../Library/STM32F4xx_HAL_Driver/Src/stm32f4xx_hal_i2c.c:2103:35
	muls	r0, r1, r0
	.loc	7 2103 11                       @ ../Library/STM32F4xx_HAL_Driver/Src/stm32f4xx_hal_i2c.c:2103:11
	str	r0, [sp, #8]
	.loc	7 2104 5 is_stmt 1              @ ../Library/STM32F4xx_HAL_Driver/Src/stm32f4xx_hal_i2c.c:2104:5
	b	.LBB22_2
.LBB22_2:                               @ =>This Inner Loop Header: Depth=1
.Ltmp564:
	.loc	7 2106 12                       @ ../Library/STM32F4xx_HAL_Driver/Src/stm32f4xx_hal_i2c.c:2106:12
	ldr	r0, [sp, #8]
	subs	r0, #1
	str	r0, [sp, #8]
.Ltmp565:
	.loc	7 2107 11                       @ ../Library/STM32F4xx_HAL_Driver/Src/stm32f4xx_hal_i2c.c:2107:11
	ldr	r0, [sp, #8]
.Ltmp566:
	.loc	7 2107 11 is_stmt 0             @ ../Library/STM32F4xx_HAL_Driver/Src/stm32f4xx_hal_i2c.c:2107:11
	cbnz	r0, .LBB22_6
	b	.LBB22_3
.LBB22_3:
.Ltmp567:
	.loc	7 2109 9 is_stmt 1              @ ../Library/STM32F4xx_HAL_Driver/Src/stm32f4xx_hal_i2c.c:2109:9
	ldr	r1, [sp, #24]
	movs	r0, #0
	.loc	7 2109 35 is_stmt 0             @ ../Library/STM32F4xx_HAL_Driver/Src/stm32f4xx_hal_i2c.c:2109:35
	str	r0, [r1, #48]
	.loc	7 2110 9 is_stmt 1              @ ../Library/STM32F4xx_HAL_Driver/Src/stm32f4xx_hal_i2c.c:2110:9
	ldr	r2, [sp, #24]
	movs	r1, #32
	.loc	7 2110 35 is_stmt 0             @ ../Library/STM32F4xx_HAL_Driver/Src/stm32f4xx_hal_i2c.c:2110:35
	strb.w	r1, [r2, #61]
	.loc	7 2111 9 is_stmt 1              @ ../Library/STM32F4xx_HAL_Driver/Src/stm32f4xx_hal_i2c.c:2111:9
	ldr	r1, [sp, #24]
	.loc	7 2111 35 is_stmt 0             @ ../Library/STM32F4xx_HAL_Driver/Src/stm32f4xx_hal_i2c.c:2111:35
	strb.w	r0, [r1, #62]
	.loc	7 2112 9 is_stmt 1              @ ../Library/STM32F4xx_HAL_Driver/Src/stm32f4xx_hal_i2c.c:2112:9
	ldr	r1, [sp, #24]
	.loc	7 2112 35 is_stmt 0             @ ../Library/STM32F4xx_HAL_Driver/Src/stm32f4xx_hal_i2c.c:2112:35
	ldr	r0, [r1, #64]
	orr	r0, r0, #32
	str	r0, [r1, #64]
	.loc	7 2115 9 is_stmt 1              @ ../Library/STM32F4xx_HAL_Driver/Src/stm32f4xx_hal_i2c.c:2115:9
	b	.LBB22_4
.LBB22_4:
.Ltmp568:
	.loc	7 2115 9 is_stmt 0              @ ../Library/STM32F4xx_HAL_Driver/Src/stm32f4xx_hal_i2c.c:2115:9
	ldr	r1, [sp, #24]
	movs	r0, #0
	strb.w	r0, [r1, #60]
	b	.LBB22_5
.Ltmp569:
.LBB22_5:
	.loc	7 0 9                           @ ../Library/STM32F4xx_HAL_Driver/Src/stm32f4xx_hal_i2c.c:0:9
	movs	r0, #1
