	.text
	.syntax unified
	.eabi_attribute	67, "2.09"	@ Tag_conformance
	.cpu	cortex-m4
	.eabi_attribute	6, 13	@ Tag_CPU_arch
	.eabi_attribute	7, 77	@ Tag_CPU_arch_profile
	.eabi_attribute	8, 0	@ Tag_ARM_ISA_use
	.eabi_attribute	9, 2	@ Tag_THUMB_ISA_use
	.fpu	fpv4-sp-d16
	.eabi_attribute	27, 1	@ Tag_ABI_HardFP_use
	.eabi_attribute	36, 1	@ Tag_FP_HP_extension
	.eabi_attribute	34, 1	@ Tag_CPU_unaligned_access
	.eabi_attribute	17, 1	@ Tag_ABI_PCS_GOT_use
	.eabi_attribute	20, 2	@ Tag_ABI_FP_denormal
	.eabi_attribute	21, 0	@ Tag_ABI_FP_exceptions
	.eabi_attribute	23, 1	@ Tag_ABI_FP_number_model
	.eabi_attribute	24, 1	@ Tag_ABI_align_needed
	.eabi_attribute	25, 1	@ Tag_ABI_align_preserved
	.eabi_attribute	28, 1	@ Tag_ABI_VFP_args
	.eabi_attribute	38, 1	@ Tag_ABI_FP_16bit_format
	.eabi_attribute	18, 2	@ Tag_ABI_PCS_wchar_t
	.eabi_attribute	26, 1	@ Tag_ABI_enum_size
	.eabi_attribute	14, 0	@ Tag_ABI_PCS_R9_use
	.file	"stm32f4xx_ll_utils.c"
	.file	1 "C:\\Users\\Hyacincher\\Desktop\\HyTelectrl\\Code\\Project" "../Library/CMSIS\\stm32f4xx.h"
	.file	2 "D:\\Keil MDK\\ARM\\ARMCLANG\\Bin\\..\\include" "stdint.h"
	.file	3 "C:\\Users\\Hyacincher\\Desktop\\HyTelectrl\\Code\\Project" "../Library/CMSIS/core_cm4.h"
	.file	4 "C:\\Users\\Hyacincher\\Desktop\\HyTelectrl\\Code\\Project" "../Library/CMSIS/stm32f429xx.h"
	.section	.text.LL_Init1msTick,"ax",%progbits
	.hidden	LL_Init1msTick                  @ -- Begin function LL_Init1msTick
	.globl	LL_Init1msTick
	.p2align	2
	.type	LL_Init1msTick,%function
	.code	16                              @ @LL_Init1msTick
	.thumb_func
LL_Init1msTick:
.Lfunc_begin0:
	.file	5 "C:\\Users\\Hyacincher\\Desktop\\HyTelectrl\\Code\\Project" "../Library/STM32F4xx_HAL_Driver/Src/stm32f4xx_ll_utils.c"
	.loc	5 259 0                         @ ../Library/STM32F4xx_HAL_Driver/Src/stm32f4xx_ll_utils.c:259:0
	.fnstart
	.cfi_sections .debug_frame
	.cfi_startproc
@ %bb.0:
	.save	{r7, lr}
	push	{r7, lr}
	.cfi_def_cfa_offset 8
	.cfi_offset lr, -4
	.cfi_offset r7, -8
	.pad	#8
	sub	sp, #8
	.cfi_def_cfa_offset 16
	str	r0, [sp, #4]
.Ltmp0:
	.loc	5 261 15 prologue_end           @ ../Library/STM32F4xx_HAL_Driver/Src/stm32f4xx_ll_utils.c:261:15
	ldr	r0, [sp, #4]
	mov.w	r1, #1000
	.loc	5 261 3 is_stmt 0               @ ../Library/STM32F4xx_HAL_Driver/Src/stm32f4xx_ll_utils.c:261:3
	bl	LL_InitTick
	.loc	5 262 1 is_stmt 1               @ ../Library/STM32F4xx_HAL_Driver/Src/stm32f4xx_ll_utils.c:262:1
	add	sp, #8
	pop	{r7, pc}
.Ltmp1:
.Lfunc_end0:
	.size	LL_Init1msTick, .Lfunc_end0-LL_Init1msTick
	.cfi_endproc
	.cantunwind
	.fnend
                                        @ -- End function
	.section	.text.LL_InitTick,"ax",%progbits
	.p2align	2                               @ -- Begin function LL_InitTick
	.type	LL_InitTick,%function
	.code	16                              @ @LL_InitTick
	.thumb_func
LL_InitTick:
.Lfunc_begin1:
	.file	6 "C:\\Users\\Hyacincher\\Desktop\\HyTelectrl\\Code\\Project" "../Library/STM32F4xx_HAL_Driver/Inc\\stm32f4xx_ll_utils.h"
	.loc	6 262 0                         @ ../Library/STM32F4xx_HAL_Driver/Inc\stm32f4xx_ll_utils.h:262:0
	.fnstart
	.cfi_startproc
@ %bb.0:
	.pad	#8
	sub	sp, #8
	.cfi_def_cfa_offset 8
	str	r0, [sp, #4]
	str	r1, [sp]
.Ltmp2:
	.loc	6 264 32 prologue_end           @ ../Library/STM32F4xx_HAL_Driver/Inc\stm32f4xx_ll_utils.h:264:32
	ldr	r0, [sp, #4]
	.loc	6 264 48 is_stmt 0              @ ../Library/STM32F4xx_HAL_Driver/Inc\stm32f4xx_ll_utils.h:264:48
	ldr	r1, [sp]
	.loc	6 264 46                        @ ../Library/STM32F4xx_HAL_Driver/Inc\stm32f4xx_ll_utils.h:264:46
	udiv	r0, r0, r1
	.loc	6 264 55                        @ ../Library/STM32F4xx_HAL_Driver/Inc\stm32f4xx_ll_utils.h:264:55
	subs	r0, #1
	movw	r1, #57364
	movt	r1, #57344
	.loc	6 264 18                        @ ../Library/STM32F4xx_HAL_Driver/Inc\stm32f4xx_ll_utils.h:264:18
	str	r0, [r1]
	movw	r1, #57368
	movt	r1, #57344
	movs	r0, #0
	.loc	6 265 18 is_stmt 1              @ ../Library/STM32F4xx_HAL_Driver/Inc\stm32f4xx_ll_utils.h:265:18
	str	r0, [r1]
	movw	r1, #57360
	movt	r1, #57344
	movs	r0, #5
	.loc	6 266 18                        @ ../Library/STM32F4xx_HAL_Driver/Inc\stm32f4xx_ll_utils.h:266:18
	str	r0, [r1]
	.loc	6 268 1                         @ ../Library/STM32F4xx_HAL_Driver/Inc\stm32f4xx_ll_utils.h:268:1
	add	sp, #8
	bx	lr
.Ltmp3:
.Lfunc_end1:
	.size	LL_InitTick, .Lfunc_end1-LL_InitTick
	.cfi_endproc
	.cantunwind
	.fnend
                                        @ -- End function
	.section	.text.LL_mDelay,"ax",%progbits
	.hidden	LL_mDelay                       @ -- Begin function LL_mDelay
	.globl	LL_mDelay
	.p2align	2
	.type	LL_mDelay,%function
	.code	16                              @ @LL_mDelay
	.thumb_func
LL_mDelay:
.Lfunc_begin2:
	.loc	5 275 0                         @ ../Library/STM32F4xx_HAL_Driver/Src/stm32f4xx_ll_utils.c:275:0
	.fnstart
	.cfi_startproc
@ %bb.0:
	.pad	#8
	sub	sp, #8
	.cfi_def_cfa_offset 8
	str	r0, [sp, #4]
	movw	r0, #57360
	movt	r0, #57344
.Ltmp4:
	.loc	5 276 33 prologue_end           @ ../Library/STM32F4xx_HAL_Driver/Src/stm32f4xx_ll_utils.c:276:33
	ldr	r0, [r0]
	.loc	5 276 18 is_stmt 0              @ ../Library/STM32F4xx_HAL_Driver/Src/stm32f4xx_ll_utils.c:276:18
	str	r0, [sp]
	.loc	5 278 10 is_stmt 1              @ ../Library/STM32F4xx_HAL_Driver/Src/stm32f4xx_ll_utils.c:278:10
	ldr	r0, [sp]
.Ltmp5:
	.loc	5 281 6                         @ ../Library/STM32F4xx_HAL_Driver/Src/stm32f4xx_ll_utils.c:281:6
	ldr	r0, [sp, #4]
.Ltmp6:
	.loc	5 281 6 is_stmt 0               @ ../Library/STM32F4xx_HAL_Driver/Src/stm32f4xx_ll_utils.c:281:6
	adds	r0, #1
	cbz	r0, .LBB2_2
	b	.LBB2_1
.LBB2_1:
.Ltmp7:
	.loc	5 283 10 is_stmt 1              @ ../Library/STM32F4xx_HAL_Driver/Src/stm32f4xx_ll_utils.c:283:10
	ldr	r0, [sp, #4]
	adds	r0, #1
	str	r0, [sp, #4]
	.loc	5 284 3                         @ ../Library/STM32F4xx_HAL_Driver/Src/stm32f4xx_ll_utils.c:284:3
	b	.LBB2_2
.Ltmp8:
.LBB2_2:
	.loc	5 286 3                         @ ../Library/STM32F4xx_HAL_Driver/Src/stm32f4xx_ll_utils.c:286:3
	b	.LBB2_3
.LBB2_3:                                @ =>This Inner Loop Header: Depth=1
	.loc	5 286 10 is_stmt 0              @ ../Library/STM32F4xx_HAL_Driver/Src/stm32f4xx_ll_utils.c:286:10
	ldr	r0, [sp, #4]
	.loc	5 286 3                         @ ../Library/STM32F4xx_HAL_Driver/Src/stm32f4xx_ll_utils.c:286:3
	cbz	r0, .LBB2_7
	b	.LBB2_4
.LBB2_4:                                @   in Loop: Header=BB2_3 Depth=1
	.loc	5 0 3                           @ ../Library/STM32F4xx_HAL_Driver/Src/stm32f4xx_ll_utils.c:0:3
	movw	r0, #57360
	movt	r0, #57344
.Ltmp9:
	.loc	5 288 18 is_stmt 1              @ ../Library/STM32F4xx_HAL_Driver/Src/stm32f4xx_ll_utils.c:288:18
	ldr	r0, [r0]
.Ltmp10:
	.loc	5 288 8 is_stmt 0               @ ../Library/STM32F4xx_HAL_Driver/Src/stm32f4xx_ll_utils.c:288:8
	lsls	r0, r0, #15
	cmp	r0, #0
	bpl	.LBB2_6
	b	.LBB2_5
.LBB2_5:                                @   in Loop: Header=BB2_3 Depth=1
.Ltmp11:
	.loc	5 290 12 is_stmt 1              @ ../Library/STM32F4xx_HAL_Driver/Src/stm32f4xx_ll_utils.c:290:12
	ldr	r0, [sp, #4]
	subs	r0, #1
	str	r0, [sp, #4]
	.loc	5 291 5                         @ ../Library/STM32F4xx_HAL_Driver/Src/stm32f4xx_ll_utils.c:291:5
	b	.LBB2_6
.Ltmp12:
.LBB2_6:                                @   in Loop: Header=BB2_3 Depth=1
	.loc	5 286 3                         @ ../Library/STM32F4xx_HAL_Driver/Src/stm32f4xx_ll_utils.c:286:3
	b	.LBB2_3
.LBB2_7:
	.loc	5 293 1                         @ ../Library/STM32F4xx_HAL_Driver/Src/stm32f4xx_ll_utils.c:293:1
	add	sp, #8
	bx	lr
.Ltmp13:
.Lfunc_end2:
	.size	LL_mDelay, .Lfunc_end2-LL_mDelay
	.cfi_endproc
	.cantunwind
	.fnend
                                        @ -- End function
	.section	.text.LL_SetSystemCoreClock,"ax",%progbits
	.hidden	LL_SetSystemCoreClock           @ -- Begin function LL_SetSystemCoreClock
	.globl	LL_SetSystemCoreClock
	.p2align	2
	.type	LL_SetSystemCoreClock,%function
	.code	16                              @ @LL_SetSystemCoreClock
	.thumb_func
LL_SetSystemCoreClock:
.Lfunc_begin3:
	.loc	5 325 0                         @ ../Library/STM32F4xx_HAL_Driver/Src/stm32f4xx_ll_utils.c:325:0
	.fnstart
	.cfi_startproc
@ %bb.0:
	.pad	#4
	sub	sp, #4
	.cfi_def_cfa_offset 4
	str	r0, [sp]
.Ltmp14:
	.loc	5 327 21 prologue_end           @ ../Library/STM32F4xx_HAL_Driver/Src/stm32f4xx_ll_utils.c:327:21
	ldr	r0, [sp]
	.loc	5 327 19 is_stmt 0              @ ../Library/STM32F4xx_HAL_Driver/Src/stm32f4xx_ll_utils.c:327:19
	movw	r1, :lower16:SystemCoreClock
	movt	r1, :upper16:SystemCoreClock
	str	r0, [r1]
	.loc	5 328 1 is_stmt 1               @ ../Library/STM32F4xx_HAL_Driver/Src/stm32f4xx_ll_utils.c:328:1
	add	sp, #4
	bx	lr
.Ltmp15:
.Lfunc_end3:
	.size	LL_SetSystemCoreClock, .Lfunc_end3-LL_SetSystemCoreClock
	.cfi_endproc
	.cantunwind
	.fnend
                                        @ -- End function
	.section	.text.LL_SetFlashLatency,"ax",%progbits
	.hidden	LL_SetFlashLatency              @ -- Begin function LL_SetFlashLatency
	.globl	LL_SetFlashLatency
	.p2align	2
	.type	LL_SetFlashLatency,%function
	.code	16                              @ @LL_SetFlashLatency
	.thumb_func
LL_SetFlashLatency:
.Lfunc_begin4:
	.loc	5 340 0                         @ ../Library/STM32F4xx_HAL_Driver/Src/stm32f4xx_ll_utils.c:340:0
	.fnstart
	.cfi_startproc
@ %bb.0:
	.save	{r7, lr}
	push	{r7, lr}
	.cfi_def_cfa_offset 8
	.cfi_offset lr, -4
	.cfi_offset r7, -8
	.pad	#24
	sub	sp, #24
	.cfi_def_cfa_offset 32
	str	r0, [sp, #20]
	movs	r0, #0
.Ltmp16:
	.loc	5 343 12 prologue_end           @ ../Library/STM32F4xx_HAL_Driver/Src/stm32f4xx_ll_utils.c:343:12
	str	r0, [sp, #8]
	.loc	5 344 15                        @ ../Library/STM32F4xx_HAL_Driver/Src/stm32f4xx_ll_utils.c:344:15
	strb.w	r0, [sp, #7]
.Ltmp17:
	.loc	5 348 6                         @ ../Library/STM32F4xx_HAL_Driver/Src/stm32f4xx_ll_utils.c:348:6
	ldr	r0, [sp, #20]
.Ltmp18:
	.loc	5 348 6 is_stmt 0               @ ../Library/STM32F4xx_HAL_Driver/Src/stm32f4xx_ll_utils.c:348:6
	cbnz	r0, .LBB4_2
	b	.LBB4_1
.LBB4_1:
	.loc	5 0 6                           @ ../Library/STM32F4xx_HAL_Driver/Src/stm32f4xx_ll_utils.c:0:6
	movs	r0, #1
.Ltmp19:
	.loc	5 350 12 is_stmt 1              @ ../Library/STM32F4xx_HAL_Driver/Src/stm32f4xx_ll_utils.c:350:12
	strb.w	r0, [sp, #7]
	.loc	5 351 3                         @ ../Library/STM32F4xx_HAL_Driver/Src/stm32f4xx_ll_utils.c:351:3
	b	.LBB4_59
.Ltmp20:
.LBB4_2:
	.loc	5 354 8                         @ ../Library/STM32F4xx_HAL_Driver/Src/stm32f4xx_ll_utils.c:354:8
	bl	LL_PWR_GetRegulVoltageScaling
.Ltmp21:
	.loc	5 354 8 is_stmt 0               @ ../Library/STM32F4xx_HAL_Driver/Src/stm32f4xx_ll_utils.c:354:8
	cmp.w	r0, #49152
	bne	.LBB4_20
	b	.LBB4_3
.LBB4_3:
.Ltmp22:
	.loc	5 357 11 is_stmt 1              @ ../Library/STM32F4xx_HAL_Driver/Src/stm32f4xx_ll_utils.c:357:11
	ldr	r0, [sp, #20]
	movw	r1, #53633
	movt	r1, #2288
	.loc	5 357 55 is_stmt 0              @ ../Library/STM32F4xx_HAL_Driver/Src/stm32f4xx_ll_utils.c:357:55
	cmp	r0, r1
	blo	.LBB4_6
	b	.LBB4_4
.LBB4_4:
	.loc	5 357 58                        @ ../Library/STM32F4xx_HAL_Driver/Src/stm32f4xx_ll_utils.c:357:58
	ldr	r0, [sp, #8]
.Ltmp23:
	.loc	5 357 10                        @ ../Library/STM32F4xx_HAL_Driver/Src/stm32f4xx_ll_utils.c:357:10
	cbnz	r0, .LBB4_6
	b	.LBB4_5
.LBB4_5:
	.loc	5 0 10                          @ ../Library/STM32F4xx_HAL_Driver/Src/stm32f4xx_ll_utils.c:0:10
	movs	r0, #5
.Ltmp24:
	.loc	5 359 17 is_stmt 1              @ ../Library/STM32F4xx_HAL_Driver/Src/stm32f4xx_ll_utils.c:359:17
	str	r0, [sp, #8]
	.loc	5 360 7                         @ ../Library/STM32F4xx_HAL_Driver/Src/stm32f4xx_ll_utils.c:360:7
	b	.LBB4_6
.Ltmp25:
.LBB4_6:
	.loc	5 363 11                        @ ../Library/STM32F4xx_HAL_Driver/Src/stm32f4xx_ll_utils.c:363:11
	ldr	r0, [sp, #20]
	movw	r1, #3585
	movt	r1, #1831
	.loc	5 363 55 is_stmt 0              @ ../Library/STM32F4xx_HAL_Driver/Src/stm32f4xx_ll_utils.c:363:55
	cmp	r0, r1
	blo	.LBB4_9
	b	.LBB4_7
.LBB4_7:
	.loc	5 363 58                        @ ../Library/STM32F4xx_HAL_Driver/Src/stm32f4xx_ll_utils.c:363:58
	ldr	r0, [sp, #8]
.Ltmp26:
	.loc	5 363 10                        @ ../Library/STM32F4xx_HAL_Driver/Src/stm32f4xx_ll_utils.c:363:10
	cbnz	r0, .LBB4_9
	b	.LBB4_8
.LBB4_8:
	.loc	5 0 10                          @ ../Library/STM32F4xx_HAL_Driver/Src/stm32f4xx_ll_utils.c:0:10
	movs	r0, #4
.Ltmp27:
	.loc	5 365 17 is_stmt 1              @ ../Library/STM32F4xx_HAL_Driver/Src/stm32f4xx_ll_utils.c:365:17
	str	r0, [sp, #8]
	.loc	5 366 7                         @ ../Library/STM32F4xx_HAL_Driver/Src/stm32f4xx_ll_utils.c:366:7
	b	.LBB4_9
.Ltmp28:
.LBB4_9:
	.loc	5 369 11                        @ ../Library/STM32F4xx_HAL_Driver/Src/stm32f4xx_ll_utils.c:369:11
	ldr	r0, [sp, #20]
	movw	r1, #19073
	movt	r1, #1373
	.loc	5 369 55 is_stmt 0              @ ../Library/STM32F4xx_HAL_Driver/Src/stm32f4xx_ll_utils.c:369:55
	cmp	r0, r1
	blo	.LBB4_12
	b	.LBB4_10
.LBB4_10:
	.loc	5 369 58                        @ ../Library/STM32F4xx_HAL_Driver/Src/stm32f4xx_ll_utils.c:369:58
	ldr	r0, [sp, #8]
.Ltmp29:
	.loc	5 369 10                        @ ../Library/STM32F4xx_HAL_Driver/Src/stm32f4xx_ll_utils.c:369:10
	cbnz	r0, .LBB4_12
	b	.LBB4_11
.LBB4_11:
	.loc	5 0 10                          @ ../Library/STM32F4xx_HAL_Driver/Src/stm32f4xx_ll_utils.c:0:10
	movs	r0, #3
.Ltmp30:
	.loc	5 371 17 is_stmt 1              @ ../Library/STM32F4xx_HAL_Driver/Src/stm32f4xx_ll_utils.c:371:17
	str	r0, [sp, #8]
	.loc	5 372 7                         @ ../Library/STM32F4xx_HAL_Driver/Src/stm32f4xx_ll_utils.c:372:7
	b	.LBB4_12
.Ltmp31:
.LBB4_12:
	.loc	5 375 11                        @ ../Library/STM32F4xx_HAL_Driver/Src/stm32f4xx_ll_utils.c:375:11
	ldr	r0, [sp, #20]
	movw	r1, #34561
	movt	r1, #915
	.loc	5 375 55 is_stmt 0              @ ../Library/STM32F4xx_HAL_Driver/Src/stm32f4xx_ll_utils.c:375:55
	cmp	r0, r1
	blo	.LBB4_15
	b	.LBB4_13
.LBB4_13:
	.loc	5 375 58                        @ ../Library/STM32F4xx_HAL_Driver/Src/stm32f4xx_ll_utils.c:375:58
	ldr	r0, [sp, #8]
.Ltmp32:
	.loc	5 375 10                        @ ../Library/STM32F4xx_HAL_Driver/Src/stm32f4xx_ll_utils.c:375:10
	cbnz	r0, .LBB4_15
	b	.LBB4_14
.LBB4_14:
	.loc	5 0 10                          @ ../Library/STM32F4xx_HAL_Driver/Src/stm32f4xx_ll_utils.c:0:10
	movs	r0, #2
.Ltmp33:
	.loc	5 377 17 is_stmt 1              @ ../Library/STM32F4xx_HAL_Driver/Src/stm32f4xx_ll_utils.c:377:17
	str	r0, [sp, #8]
	.loc	5 378 7                         @ ../Library/STM32F4xx_HAL_Driver/Src/stm32f4xx_ll_utils.c:378:7
	b	.LBB4_19
.Ltmp34:
.LBB4_15:
	.loc	5 381 13                        @ ../Library/STM32F4xx_HAL_Driver/Src/stm32f4xx_ll_utils.c:381:13
	ldr	r0, [sp, #20]
	movw	r1, #50049
	movt	r1, #457
	.loc	5 381 57 is_stmt 0              @ ../Library/STM32F4xx_HAL_Driver/Src/stm32f4xx_ll_utils.c:381:57
	cmp	r0, r1
	blo	.LBB4_18
	b	.LBB4_16
.LBB4_16:
	.loc	5 381 60                        @ ../Library/STM32F4xx_HAL_Driver/Src/stm32f4xx_ll_utils.c:381:60
	ldr	r0, [sp, #8]
.Ltmp35:
	.loc	5 381 12                        @ ../Library/STM32F4xx_HAL_Driver/Src/stm32f4xx_ll_utils.c:381:12
	cbnz	r0, .LBB4_18
	b	.LBB4_17
.LBB4_17:
	.loc	5 0 12                          @ ../Library/STM32F4xx_HAL_Driver/Src/stm32f4xx_ll_utils.c:0:12
	movs	r0, #1
.Ltmp36:
	.loc	5 383 19 is_stmt 1              @ ../Library/STM32F4xx_HAL_Driver/Src/stm32f4xx_ll_utils.c:383:19
	str	r0, [sp, #8]
	.loc	5 384 9                         @ ../Library/STM32F4xx_HAL_Driver/Src/stm32f4xx_ll_utils.c:384:9
	b	.LBB4_18
.Ltmp37:
.LBB4_18:
	.loc	5 0 9 is_stmt 0                 @ ../Library/STM32F4xx_HAL_Driver/Src/stm32f4xx_ll_utils.c:0:9
	b	.LBB4_19
.LBB4_19:
	.loc	5 387 5 is_stmt 1               @ ../Library/STM32F4xx_HAL_Driver/Src/stm32f4xx_ll_utils.c:387:5
	b	.LBB4_20
.Ltmp38:
.LBB4_20:
	.loc	5 388 8                         @ ../Library/STM32F4xx_HAL_Driver/Src/stm32f4xx_ll_utils.c:388:8
	bl	LL_PWR_GetRegulVoltageScaling
.Ltmp39:
	.loc	5 388 8 is_stmt 0               @ ../Library/STM32F4xx_HAL_Driver/Src/stm32f4xx_ll_utils.c:388:8
	cmp.w	r0, #32768
	bne	.LBB4_38
	b	.LBB4_21
.LBB4_21:
.Ltmp40:
	.loc	5 391 11 is_stmt 1              @ ../Library/STM32F4xx_HAL_Driver/Src/stm32f4xx_ll_utils.c:391:11
	ldr	r0, [sp, #20]
	movw	r1, #53633
	movt	r1, #2288
	.loc	5 391 55 is_stmt 0              @ ../Library/STM32F4xx_HAL_Driver/Src/stm32f4xx_ll_utils.c:391:55
	cmp	r0, r1
	blo	.LBB4_24
	b	.LBB4_22
.LBB4_22:
	.loc	5 391 58                        @ ../Library/STM32F4xx_HAL_Driver/Src/stm32f4xx_ll_utils.c:391:58
	ldr	r0, [sp, #8]
.Ltmp41:
	.loc	5 391 10                        @ ../Library/STM32F4xx_HAL_Driver/Src/stm32f4xx_ll_utils.c:391:10
	cbnz	r0, .LBB4_24
	b	.LBB4_23
.LBB4_23:
	.loc	5 0 10                          @ ../Library/STM32F4xx_HAL_Driver/Src/stm32f4xx_ll_utils.c:0:10
	movs	r0, #5
.Ltmp42:
	.loc	5 393 17 is_stmt 1              @ ../Library/STM32F4xx_HAL_Driver/Src/stm32f4xx_ll_utils.c:393:17
	str	r0, [sp, #8]
	.loc	5 394 7                         @ ../Library/STM32F4xx_HAL_Driver/Src/stm32f4xx_ll_utils.c:394:7
	b	.LBB4_24
.Ltmp43:
.LBB4_24:
	.loc	5 397 11                        @ ../Library/STM32F4xx_HAL_Driver/Src/stm32f4xx_ll_utils.c:397:11
	ldr	r0, [sp, #20]
	movw	r1, #6913
	movt	r1, #183
	.loc	5 397 55 is_stmt 0              @ ../Library/STM32F4xx_HAL_Driver/Src/stm32f4xx_ll_utils.c:397:55
	cmp	r0, r1
	blo	.LBB4_27
	b	.LBB4_25
.LBB4_25:
	.loc	5 397 58                        @ ../Library/STM32F4xx_HAL_Driver/Src/stm32f4xx_ll_utils.c:397:58
	ldr	r0, [sp, #8]
.Ltmp44:
	.loc	5 397 10                        @ ../Library/STM32F4xx_HAL_Driver/Src/stm32f4xx_ll_utils.c:397:10
	cbnz	r0, .LBB4_27
	b	.LBB4_26
.LBB4_26:
	.loc	5 0 10                          @ ../Library/STM32F4xx_HAL_Driver/Src/stm32f4xx_ll_utils.c:0:10
	movs	r0, #4
.Ltmp45:
	.loc	5 399 17 is_stmt 1              @ ../Library/STM32F4xx_HAL_Driver/Src/stm32f4xx_ll_utils.c:399:17
	str	r0, [sp, #8]
	.loc	5 400 7                         @ ../Library/STM32F4xx_HAL_Driver/Src/stm32f4xx_ll_utils.c:400:7
	b	.LBB4_27
.Ltmp46:
.LBB4_27:
	.loc	5 403 11                        @ ../Library/STM32F4xx_HAL_Driver/Src/stm32f4xx_ll_utils.c:403:11
	ldr	r0, [sp, #20]
	movw	r1, #19073
	movt	r1, #1373
	.loc	5 403 55 is_stmt 0              @ ../Library/STM32F4xx_HAL_Driver/Src/stm32f4xx_ll_utils.c:403:55
	cmp	r0, r1
	blo	.LBB4_30
	b	.LBB4_28
.LBB4_28:
	.loc	5 403 58                        @ ../Library/STM32F4xx_HAL_Driver/Src/stm32f4xx_ll_utils.c:403:58
	ldr	r0, [sp, #8]
.Ltmp47:
	.loc	5 403 10                        @ ../Library/STM32F4xx_HAL_Driver/Src/stm32f4xx_ll_utils.c:403:10
	cbnz	r0, .LBB4_30
	b	.LBB4_29
.LBB4_29:
	.loc	5 0 10                          @ ../Library/STM32F4xx_HAL_Driver/Src/stm32f4xx_ll_utils.c:0:10
	movs	r0, #3
.Ltmp48:
	.loc	5 405 17 is_stmt 1              @ ../Library/STM32F4xx_HAL_Driver/Src/stm32f4xx_ll_utils.c:405:17
	str	r0, [sp, #8]
	.loc	5 406 7                         @ ../Library/STM32F4xx_HAL_Driver/Src/stm32f4xx_ll_utils.c:406:7
	b	.LBB4_30
.Ltmp49:
.LBB4_30:
	.loc	5 408 11                        @ ../Library/STM32F4xx_HAL_Driver/Src/stm32f4xx_ll_utils.c:408:11
	ldr	r0, [sp, #20]
	movw	r1, #34561
	movt	r1, #915
	.loc	5 408 55 is_stmt 0              @ ../Library/STM32F4xx_HAL_Driver/Src/stm32f4xx_ll_utils.c:408:55
	cmp	r0, r1
	blo	.LBB4_33
	b	.LBB4_31
.LBB4_31:
	.loc	5 408 58                        @ ../Library/STM32F4xx_HAL_Driver/Src/stm32f4xx_ll_utils.c:408:58
	ldr	r0, [sp, #8]
.Ltmp50:
	.loc	5 408 10                        @ ../Library/STM32F4xx_HAL_Driver/Src/stm32f4xx_ll_utils.c:408:10
	cbnz	r0, .LBB4_33
	b	.LBB4_32
.LBB4_32:
	.loc	5 0 10                          @ ../Library/STM32F4xx_HAL_Driver/Src/stm32f4xx_ll_utils.c:0:10
	movs	r0, #2
.Ltmp51:
	.loc	5 410 17 is_stmt 1              @ ../Library/STM32F4xx_HAL_Driver/Src/stm32f4xx_ll_utils.c:410:17
	str	r0, [sp, #8]
	.loc	5 411 7                         @ ../Library/STM32F4xx_HAL_Driver/Src/stm32f4xx_ll_utils.c:411:7
	b	.LBB4_37
.Ltmp52:
.LBB4_33:
	.loc	5 414 13                        @ ../Library/STM32F4xx_HAL_Driver/Src/stm32f4xx_ll_utils.c:414:13
	ldr	r0, [sp, #20]
	movw	r1, #50049
	movt	r1, #457
	.loc	5 414 57 is_stmt 0              @ ../Library/STM32F4xx_HAL_Driver/Src/stm32f4xx_ll_utils.c:414:57
	cmp	r0, r1
	blo	.LBB4_36
	b	.LBB4_34
.LBB4_34:
	.loc	5 414 60                        @ ../Library/STM32F4xx_HAL_Driver/Src/stm32f4xx_ll_utils.c:414:60
	ldr	r0, [sp, #8]
.Ltmp53:
	.loc	5 414 12                        @ ../Library/STM32F4xx_HAL_Driver/Src/stm32f4xx_ll_utils.c:414:12
	cbnz	r0, .LBB4_36
	b	.LBB4_35
.LBB4_35:
	.loc	5 0 12                          @ ../Library/STM32F4xx_HAL_Driver/Src/stm32f4xx_ll_utils.c:0:12
	movs	r0, #1
.Ltmp54:
	.loc	5 416 19 is_stmt 1              @ ../Library/STM32F4xx_HAL_Driver/Src/stm32f4xx_ll_utils.c:416:19
	str	r0, [sp, #8]
	.loc	5 417 9                         @ ../Library/STM32F4xx_HAL_Driver/Src/stm32f4xx_ll_utils.c:417:9
	b	.LBB4_36
.Ltmp55:
.LBB4_36:
	.loc	5 0 9 is_stmt 0                 @ ../Library/STM32F4xx_HAL_Driver/Src/stm32f4xx_ll_utils.c:0:9
	b	.LBB4_37
.LBB4_37:
	.loc	5 419 5 is_stmt 1               @ ../Library/STM32F4xx_HAL_Driver/Src/stm32f4xx_ll_utils.c:419:5
	b	.LBB4_38
.Ltmp56:
.LBB4_38:
	.loc	5 421 8                         @ ../Library/STM32F4xx_HAL_Driver/Src/stm32f4xx_ll_utils.c:421:8
	bl	LL_PWR_GetRegulVoltageScaling
.Ltmp57:
	.loc	5 421 8 is_stmt 0               @ ../Library/STM32F4xx_HAL_Driver/Src/stm32f4xx_ll_utils.c:421:8
	cmp.w	r0, #16384
	bne	.LBB4_50
	b	.LBB4_39
.LBB4_39:
.Ltmp58:
	.loc	5 424 11 is_stmt 1              @ ../Library/STM32F4xx_HAL_Driver/Src/stm32f4xx_ll_utils.c:424:11
	ldr	r0, [sp, #20]
	movw	r1, #19073
	movt	r1, #1373
	.loc	5 424 55 is_stmt 0              @ ../Library/STM32F4xx_HAL_Driver/Src/stm32f4xx_ll_utils.c:424:55
	cmp	r0, r1
	blo	.LBB4_42
	b	.LBB4_40
.LBB4_40:
	.loc	5 424 58                        @ ../Library/STM32F4xx_HAL_Driver/Src/stm32f4xx_ll_utils.c:424:58
	ldr	r0, [sp, #8]
.Ltmp59:
	.loc	5 424 10                        @ ../Library/STM32F4xx_HAL_Driver/Src/stm32f4xx_ll_utils.c:424:10
	cbnz	r0, .LBB4_42
	b	.LBB4_41
.LBB4_41:
	.loc	5 0 10                          @ ../Library/STM32F4xx_HAL_Driver/Src/stm32f4xx_ll_utils.c:0:10
	movs	r0, #3
.Ltmp60:
	.loc	5 426 17 is_stmt 1              @ ../Library/STM32F4xx_HAL_Driver/Src/stm32f4xx_ll_utils.c:426:17
	str	r0, [sp, #8]
	.loc	5 427 7                         @ ../Library/STM32F4xx_HAL_Driver/Src/stm32f4xx_ll_utils.c:427:7
	b	.LBB4_42
.Ltmp61:
.LBB4_42:
	.loc	5 430 11                        @ ../Library/STM32F4xx_HAL_Driver/Src/stm32f4xx_ll_utils.c:430:11
	ldr	r0, [sp, #20]
	movw	r1, #34561
	movt	r1, #915
	.loc	5 430 55 is_stmt 0              @ ../Library/STM32F4xx_HAL_Driver/Src/stm32f4xx_ll_utils.c:430:55
	cmp	r0, r1
	blo	.LBB4_45
	b	.LBB4_43
.LBB4_43:
	.loc	5 430 58                        @ ../Library/STM32F4xx_HAL_Driver/Src/stm32f4xx_ll_utils.c:430:58
	ldr	r0, [sp, #8]
.Ltmp62:
	.loc	5 430 10                        @ ../Library/STM32F4xx_HAL_Driver/Src/stm32f4xx_ll_utils.c:430:10
	cbnz	r0, .LBB4_45
	b	.LBB4_44
.LBB4_44:
	.loc	5 0 10                          @ ../Library/STM32F4xx_HAL_Driver/Src/stm32f4xx_ll_utils.c:0:10
	movs	r0, #2
.Ltmp63:
	.loc	5 432 17 is_stmt 1              @ ../Library/STM32F4xx_HAL_Driver/Src/stm32f4xx_ll_utils.c:432:17
	str	r0, [sp, #8]
	.loc	5 433 7                         @ ../Library/STM32F4xx_HAL_Driver/Src/stm32f4xx_ll_utils.c:433:7
	b	.LBB4_49
.Ltmp64:
.LBB4_45:
	.loc	5 436 13                        @ ../Library/STM32F4xx_HAL_Driver/Src/stm32f4xx_ll_utils.c:436:13
	ldr	r0, [sp, #20]
	movw	r1, #50049
	movt	r1, #457
	.loc	5 436 57 is_stmt 0              @ ../Library/STM32F4xx_HAL_Driver/Src/stm32f4xx_ll_utils.c:436:57
	cmp	r0, r1
	blo	.LBB4_48
	b	.LBB4_46
.LBB4_46:
	.loc	5 436 60                        @ ../Library/STM32F4xx_HAL_Driver/Src/stm32f4xx_ll_utils.c:436:60
	ldr	r0, [sp, #8]
.Ltmp65:
	.loc	5 436 12                        @ ../Library/STM32F4xx_HAL_Driver/Src/stm32f4xx_ll_utils.c:436:12
	cbnz	r0, .LBB4_48
	b	.LBB4_47
.LBB4_47:
	.loc	5 0 12                          @ ../Library/STM32F4xx_HAL_Driver/Src/stm32f4xx_ll_utils.c:0:12
	movs	r0, #1
.Ltmp66:
	.loc	5 438 19 is_stmt 1              @ ../Library/STM32F4xx_HAL_Driver/Src/stm32f4xx_ll_utils.c:438:19
	str	r0, [sp, #8]
	.loc	5 439 9                         @ ../Library/STM32F4xx_HAL_Driver/Src/stm32f4xx_ll_utils.c:439:9
	b	.LBB4_48
.Ltmp67:
.LBB4_48:
	.loc	5 0 9 is_stmt 0                 @ ../Library/STM32F4xx_HAL_Driver/Src/stm32f4xx_ll_utils.c:0:9
	b	.LBB4_49
.LBB4_49:
	.loc	5 441 5 is_stmt 1               @ ../Library/STM32F4xx_HAL_Driver/Src/stm32f4xx_ll_utils.c:441:5
	b	.LBB4_50
.Ltmp68:
.LBB4_50:
	.loc	5 445 25                        @ ../Library/STM32F4xx_HAL_Driver/Src/stm32f4xx_ll_utils.c:445:25
	ldr	r0, [sp, #8]
	.loc	5 445 5 is_stmt 0               @ ../Library/STM32F4xx_HAL_Driver/Src/stm32f4xx_ll_utils.c:445:5
	bl	LL_FLASH_SetLatency
	movs	r0, #2
	.loc	5 448 13 is_stmt 1              @ ../Library/STM32F4xx_HAL_Driver/Src/stm32f4xx_ll_utils.c:448:13
	str	r0, [sp, #16]
	.loc	5 449 5                         @ ../Library/STM32F4xx_HAL_Driver/Src/stm32f4xx_ll_utils.c:449:5
	b	.LBB4_51
.LBB4_51:                               @ =>This Inner Loop Header: Depth=1
.Ltmp69:
	.loc	5 452 18                        @ ../Library/STM32F4xx_HAL_Driver/Src/stm32f4xx_ll_utils.c:452:18
	bl	LL_FLASH_GetLatency
	.loc	5 452 16 is_stmt 0              @ ../Library/STM32F4xx_HAL_Driver/Src/stm32f4xx_ll_utils.c:452:16
	str	r0, [sp, #12]
	.loc	5 453 12 is_stmt 1              @ ../Library/STM32F4xx_HAL_Driver/Src/stm32f4xx_ll_utils.c:453:12
	ldr	r0, [sp, #16]
	subs	r0, #1
	str	r0, [sp, #16]
	.loc	5 454 5                         @ ../Library/STM32F4xx_HAL_Driver/Src/stm32f4xx_ll_utils.c:454:5
	b	.LBB4_52
.Ltmp70:
.LBB4_52:                               @   in Loop: Header=BB4_51 Depth=1
	.loc	5 454 15 is_stmt 0              @ ../Library/STM32F4xx_HAL_Driver/Src/stm32f4xx_ll_utils.c:454:15
	ldr	r1, [sp, #12]
	.loc	5 454 29                        @ ../Library/STM32F4xx_HAL_Driver/Src/stm32f4xx_ll_utils.c:454:29
	ldr	r2, [sp, #8]
	movs	r0, #0
	.loc	5 454 38                        @ ../Library/STM32F4xx_HAL_Driver/Src/stm32f4xx_ll_utils.c:454:38
	cmp	r1, r2
	str	r0, [sp]                        @ 4-byte Spill
	beq	.LBB4_54
	b	.LBB4_53
.LBB4_53:                               @   in Loop: Header=BB4_51 Depth=1
	.loc	5 454 42                        @ ../Library/STM32F4xx_HAL_Driver/Src/stm32f4xx_ll_utils.c:454:42
	ldr	r0, [sp, #16]
	.loc	5 454 50                        @ ../Library/STM32F4xx_HAL_Driver/Src/stm32f4xx_ll_utils.c:454:50
	cmp	r0, #0
	it	ne
	movne	r0, #1
	str	r0, [sp]                        @ 4-byte Spill
	b	.LBB4_54
.LBB4_54:                               @   in Loop: Header=BB4_51 Depth=1
	.loc	5 0 0                           @ ../Library/STM32F4xx_HAL_Driver/Src/stm32f4xx_ll_utils.c:0:0
	ldr	r0, [sp]                        @ 4-byte Reload
.Ltmp71:
	.loc	5 454 5                         @ ../Library/STM32F4xx_HAL_Driver/Src/stm32f4xx_ll_utils.c:454:5
	lsls	r0, r0, #31
	cmp	r0, #0
	bne	.LBB4_51
	b	.LBB4_55
.Ltmp72:
.LBB4_55:
	.loc	5 456 8 is_stmt 1               @ ../Library/STM32F4xx_HAL_Driver/Src/stm32f4xx_ll_utils.c:456:8
	ldr	r0, [sp, #12]
	.loc	5 456 22 is_stmt 0              @ ../Library/STM32F4xx_HAL_Driver/Src/stm32f4xx_ll_utils.c:456:22
	ldr	r1, [sp, #8]
.Ltmp73:
	.loc	5 456 8                         @ ../Library/STM32F4xx_HAL_Driver/Src/stm32f4xx_ll_utils.c:456:8
	cmp	r0, r1
	beq	.LBB4_57
	b	.LBB4_56
.LBB4_56:
	.loc	5 0 8                           @ ../Library/STM32F4xx_HAL_Driver/Src/stm32f4xx_ll_utils.c:0:8
	movs	r0, #1
.Ltmp74:
	.loc	5 458 14 is_stmt 1              @ ../Library/STM32F4xx_HAL_Driver/Src/stm32f4xx_ll_utils.c:458:14
	strb.w	r0, [sp, #7]
	.loc	5 459 5                         @ ../Library/STM32F4xx_HAL_Driver/Src/stm32f4xx_ll_utils.c:459:5
	b	.LBB4_58
.Ltmp75:
.LBB4_57:
	.loc	5 0 5 is_stmt 0                 @ ../Library/STM32F4xx_HAL_Driver/Src/stm32f4xx_ll_utils.c:0:5
	movs	r0, #0
.Ltmp76:
	.loc	5 462 14 is_stmt 1              @ ../Library/STM32F4xx_HAL_Driver/Src/stm32f4xx_ll_utils.c:462:14
	strb.w	r0, [sp, #7]
	b	.LBB4_58
.Ltmp77:
.LBB4_58:
	.loc	5 0 14 is_stmt 0                @ ../Library/STM32F4xx_HAL_Driver/Src/stm32f4xx_ll_utils.c:0:14
	b	.LBB4_59
.LBB4_59:
	.loc	5 465 10 is_stmt 1              @ ../Library/STM32F4xx_HAL_Driver/Src/stm32f4xx_ll_utils.c:465:10
	ldrb.w	r0, [sp, #7]
	.loc	5 465 3 is_stmt 0               @ ../Library/STM32F4xx_HAL_Driver/Src/stm32f4xx_ll_utils.c:465:3
	add	sp, #24
	pop	{r7, pc}
.Ltmp78:
.Lfunc_end4:
	.size	LL_SetFlashLatency, .Lfunc_end4-LL_SetFlashLatency
	.cfi_endproc
	.cantunwind
	.fnend
                                        @ -- End function
	.section	.text.LL_PWR_GetRegulVoltageScaling,"ax",%progbits
	.p2align	2                               @ -- Begin function LL_PWR_GetRegulVoltageScaling
	.type	LL_PWR_GetRegulVoltageScaling,%function
	.code	16                              @ @LL_PWR_GetRegulVoltageScaling
	.thumb_func
LL_PWR_GetRegulVoltageScaling:
.Lfunc_begin5:
	.file	7 "C:\\Users\\Hyacincher\\Desktop\\HyTelectrl\\Code\\Project" "../Library/STM32F4xx_HAL_Driver/Inc\\stm32f4xx_ll_pwr.h"
	.loc	7 522 0 is_stmt 1               @ ../Library/STM32F4xx_HAL_Driver/Inc\stm32f4xx_ll_pwr.h:522:0
	.fnstart
	.cfi_startproc
@ %bb.0:
	movw	r0, #28672
	movt	r0, #16384
.Ltmp79:
	.loc	7 523 21 prologue_end           @ ../Library/STM32F4xx_HAL_Driver/Inc\stm32f4xx_ll_pwr.h:523:21
	ldr	r0, [r0]
	and	r0, r0, #49152
	.loc	7 523 3 is_stmt 0               @ ../Library/STM32F4xx_HAL_Driver/Inc\stm32f4xx_ll_pwr.h:523:3
	bx	lr
.Ltmp80:
.Lfunc_end5:
	.size	LL_PWR_GetRegulVoltageScaling, .Lfunc_end5-LL_PWR_GetRegulVoltageScaling
	.cfi_endproc
	.cantunwind
	.fnend
                                        @ -- End function
	.section	.text.LL_FLASH_SetLatency,"ax",%progbits
	.p2align	2                               @ -- Begin function LL_FLASH_SetLatency
	.type	LL_FLASH_SetLatency,%function
	.code	16                              @ @LL_FLASH_SetLatency
	.thumb_func
LL_FLASH_SetLatency:
.Lfunc_begin6:
	.file	8 "C:\\Users\\Hyacincher\\Desktop\\HyTelectrl\\Code\\Project" "../Library/STM32F4xx_HAL_Driver/Inc\\stm32f4xx_ll_system.h"
	.loc	8 1543 0 is_stmt 1              @ ../Library/STM32F4xx_HAL_Driver/Inc\stm32f4xx_ll_system.h:1543:0
	.fnstart
	.cfi_startproc
@ %bb.0:
	.pad	#4
	sub	sp, #4
	.cfi_def_cfa_offset 4
	str	r0, [sp]
	movw	r1, #15360
	movt	r1, #16386
.Ltmp81:
	.loc	8 1544 3 prologue_end           @ ../Library/STM32F4xx_HAL_Driver/Inc\stm32f4xx_ll_system.h:1544:3
	ldr	r0, [r1]
	bic	r0, r0, #15
	ldr	r2, [sp]
	orrs	r0, r2
	str	r0, [r1]
	.loc	8 1545 1                        @ ../Library/STM32F4xx_HAL_Driver/Inc\stm32f4xx_ll_system.h:1545:1
	add	sp, #4
	bx	lr
.Ltmp82:
.Lfunc_end6:
	.size	LL_FLASH_SetLatency, .Lfunc_end6-LL_FLASH_SetLatency
	.cfi_endproc
	.cantunwind
	.fnend
                                        @ -- End function
	.section	.text.LL_FLASH_GetLatency,"ax",%progbits
	.p2align	2                               @ -- Begin function LL_FLASH_GetLatency
	.type	LL_FLASH_GetLatency,%function
	.code	16                              @ @LL_FLASH_GetLatency
	.thumb_func
LL_FLASH_GetLatency:
.Lfunc_begin7:
	.loc	8 1569 0                        @ ../Library/STM32F4xx_HAL_Driver/Inc\stm32f4xx_ll_system.h:1569:0
	.fnstart
	.cfi_startproc
@ %bb.0:
	movw	r0, #15360
	movt	r0, #16386
.Ltmp83:
	.loc	8 1570 21 prologue_end          @ ../Library/STM32F4xx_HAL_Driver/Inc\stm32f4xx_ll_system.h:1570:21
	ldr	r0, [r0]
	and	r0, r0, #15
	.loc	8 1570 3 is_stmt 0              @ ../Library/STM32F4xx_HAL_Driver/Inc\stm32f4xx_ll_system.h:1570:3
	bx	lr
.Ltmp84:
.Lfunc_end7:
	.size	LL_FLASH_GetLatency, .Lfunc_end7-LL_FLASH_GetLatency
	.cfi_endproc
	.cantunwind
	.fnend
                                        @ -- End function
	.section	.text.LL_PLL_ConfigSystemClock_HSI,"ax",%progbits
	.hidden	LL_PLL_ConfigSystemClock_HSI    @ -- Begin function LL_PLL_ConfigSystemClock_HSI
	.globl	LL_PLL_ConfigSystemClock_HSI
	.p2align	2
	.type	LL_PLL_ConfigSystemClock_HSI,%function
	.code	16                              @ @LL_PLL_ConfigSystemClock_HSI
	.thumb_func
LL_PLL_ConfigSystemClock_HSI:
.Lfunc_begin8:
	.loc	5 486 0 is_stmt 1               @ ../Library/STM32F4xx_HAL_Driver/Src/stm32f4xx_ll_utils.c:486:0
	.fnstart
	.cfi_startproc
@ %bb.0:
	.save	{r7, lr}
	push	{r7, lr}
	.cfi_def_cfa_offset 8
	.cfi_offset lr, -4
	.cfi_offset r7, -8
	.pad	#16
	sub	sp, #16
	.cfi_def_cfa_offset 24
	str	r0, [sp, #12]
	str	r1, [sp, #8]
	movs	r0, #0
.Ltmp85:
	.loc	5 487 15 prologue_end           @ ../Library/STM32F4xx_HAL_Driver/Src/stm32f4xx_ll_utils.c:487:15
	strb.w	r0, [sp, #7]
	.loc	5 488 12                        @ ../Library/STM32F4xx_HAL_Driver/Src/stm32f4xx_ll_utils.c:488:12
	str	r0, [sp]
.Ltmp86:
	.loc	5 491 6                         @ ../Library/STM32F4xx_HAL_Driver/Src/stm32f4xx_ll_utils.c:491:6
	bl	UTILS_PLL_IsBusy
.Ltmp87:
	.loc	5 491 6 is_stmt 0               @ ../Library/STM32F4xx_HAL_Driver/Src/stm32f4xx_ll_utils.c:491:6
	cbnz	r0, .LBB8_7
	b	.LBB8_1
.LBB8_1:
.Ltmp88:
	.loc	5 494 54 is_stmt 1              @ ../Library/STM32F4xx_HAL_Driver/Src/stm32f4xx_ll_utils.c:494:54
	ldr	r1, [sp, #12]
	movw	r0, #9216
	movt	r0, #244
	.loc	5 494 15 is_stmt 0              @ ../Library/STM32F4xx_HAL_Driver/Src/stm32f4xx_ll_utils.c:494:15
	bl	UTILS_GetPLLOutputFrequency
	.loc	5 494 13                        @ ../Library/STM32F4xx_HAL_Driver/Src/stm32f4xx_ll_utils.c:494:13
	str	r0, [sp]
.Ltmp89:
	.loc	5 497 8 is_stmt 1               @ ../Library/STM32F4xx_HAL_Driver/Src/stm32f4xx_ll_utils.c:497:8
	bl	LL_RCC_HSI_IsReady
.Ltmp90:
	.loc	5 497 8 is_stmt 0               @ ../Library/STM32F4xx_HAL_Driver/Src/stm32f4xx_ll_utils.c:497:8
	cmp	r0, #1
	beq	.LBB8_6
	b	.LBB8_2
.LBB8_2:
.Ltmp91:
	.loc	5 499 7 is_stmt 1               @ ../Library/STM32F4xx_HAL_Driver/Src/stm32f4xx_ll_utils.c:499:7
	bl	LL_RCC_HSI_Enable
	.loc	5 500 7                         @ ../Library/STM32F4xx_HAL_Driver/Src/stm32f4xx_ll_utils.c:500:7
	b	.LBB8_3
.LBB8_3:                                @ =>This Inner Loop Header: Depth=1
	.loc	5 500 14 is_stmt 0              @ ../Library/STM32F4xx_HAL_Driver/Src/stm32f4xx_ll_utils.c:500:14
	bl	LL_RCC_HSI_IsReady
	.loc	5 500 7                         @ ../Library/STM32F4xx_HAL_Driver/Src/stm32f4xx_ll_utils.c:500:7
	cmp	r0, #1
	beq	.LBB8_5
	b	.LBB8_4
.LBB8_4:                                @   in Loop: Header=BB8_3 Depth=1
	b	.LBB8_3
.LBB8_5:
	.loc	5 504 5 is_stmt 1               @ ../Library/STM32F4xx_HAL_Driver/Src/stm32f4xx_ll_utils.c:504:5
	b	.LBB8_6
.Ltmp92:
.LBB8_6:
	.loc	5 507 55                        @ ../Library/STM32F4xx_HAL_Driver/Src/stm32f4xx_ll_utils.c:507:55
	ldr	r0, [sp, #12]
	.loc	5 507 76 is_stmt 0              @ ../Library/STM32F4xx_HAL_Driver/Src/stm32f4xx_ll_utils.c:507:76
	ldr	r1, [r0]
	.loc	5 507 103                       @ ../Library/STM32F4xx_HAL_Driver/Src/stm32f4xx_ll_utils.c:507:103
	ldr	r2, [r0, #4]
	.loc	5 508 54 is_stmt 1              @ ../Library/STM32F4xx_HAL_Driver/Src/stm32f4xx_ll_utils.c:508:54
	ldr	r3, [r0, #8]
	movs	r0, #0
	.loc	5 507 5                         @ ../Library/STM32F4xx_HAL_Driver/Src/stm32f4xx_ll_utils.c:507:5
	bl	LL_RCC_PLL_ConfigDomain_SYS
	.loc	5 511 45                        @ ../Library/STM32F4xx_HAL_Driver/Src/stm32f4xx_ll_utils.c:511:45
	ldr	r0, [sp]
	.loc	5 511 54 is_stmt 0              @ ../Library/STM32F4xx_HAL_Driver/Src/stm32f4xx_ll_utils.c:511:54
	ldr	r1, [sp, #8]
	.loc	5 511 14                        @ ../Library/STM32F4xx_HAL_Driver/Src/stm32f4xx_ll_utils.c:511:14
	bl	UTILS_EnablePLLAndSwitchSystem
	.loc	5 511 12                        @ ../Library/STM32F4xx_HAL_Driver/Src/stm32f4xx_ll_utils.c:511:12
	strb.w	r0, [sp, #7]
	.loc	5 512 3 is_stmt 1               @ ../Library/STM32F4xx_HAL_Driver/Src/stm32f4xx_ll_utils.c:512:3
	b	.LBB8_8
.Ltmp93:
.LBB8_7:
	.loc	5 0 3 is_stmt 0                 @ ../Library/STM32F4xx_HAL_Driver/Src/stm32f4xx_ll_utils.c:0:3
	movs	r0, #1
.Ltmp94:
	.loc	5 516 12 is_stmt 1              @ ../Library/STM32F4xx_HAL_Driver/Src/stm32f4xx_ll_utils.c:516:12
	strb.w	r0, [sp, #7]
	b	.LBB8_8
.Ltmp95:
.LBB8_8:
	.loc	5 519 10                        @ ../Library/STM32F4xx_HAL_Driver/Src/stm32f4xx_ll_utils.c:519:10
	ldrb.w	r0, [sp, #7]
	.loc	5 519 3 is_stmt 0               @ ../Library/STM32F4xx_HAL_Driver/Src/stm32f4xx_ll_utils.c:519:3
	add	sp, #16
	pop	{r7, pc}
.Ltmp96:
.Lfunc_end8:
	.size	LL_PLL_ConfigSystemClock_HSI, .Lfunc_end8-LL_PLL_ConfigSystemClock_HSI
	.cfi_endproc
	.cantunwind
	.fnend
                                        @ -- End function
	.section	.text.UTILS_PLL_IsBusy,"ax",%progbits
	.p2align	2                               @ -- Begin function UTILS_PLL_IsBusy
	.type	UTILS_PLL_IsBusy,%function
	.code	16                              @ @UTILS_PLL_IsBusy
	.thumb_func
UTILS_PLL_IsBusy:
.Lfunc_begin9:
	.loc	5 644 0 is_stmt 1               @ ../Library/STM32F4xx_HAL_Driver/Src/stm32f4xx_ll_utils.c:644:0
	.fnstart
	.cfi_startproc
@ %bb.0:
	.save	{r7, lr}
	push	{r7, lr}
	.cfi_def_cfa_offset 8
	.cfi_offset lr, -4
	.cfi_offset r7, -8
	.pad	#8
	sub	sp, #8
	.cfi_def_cfa_offset 16
	movs	r0, #0
.Ltmp97:
	.loc	5 645 15 prologue_end           @ ../Library/STM32F4xx_HAL_Driver/Src/stm32f4xx_ll_utils.c:645:15
	strb.w	r0, [sp, #7]
.Ltmp98:
	.loc	5 648 6                         @ ../Library/STM32F4xx_HAL_Driver/Src/stm32f4xx_ll_utils.c:648:6
	bl	LL_RCC_PLL_IsReady
.Ltmp99:
	.loc	5 648 6 is_stmt 0               @ ../Library/STM32F4xx_HAL_Driver/Src/stm32f4xx_ll_utils.c:648:6
	cbz	r0, .LBB9_2
	b	.LBB9_1
.LBB9_1:
	.loc	5 0 6                           @ ../Library/STM32F4xx_HAL_Driver/Src/stm32f4xx_ll_utils.c:0:6
	movs	r0, #1
.Ltmp100:
	.loc	5 651 12 is_stmt 1              @ ../Library/STM32F4xx_HAL_Driver/Src/stm32f4xx_ll_utils.c:651:12
	strb.w	r0, [sp, #7]
	.loc	5 652 3                         @ ../Library/STM32F4xx_HAL_Driver/Src/stm32f4xx_ll_utils.c:652:3
	b	.LBB9_2
.Ltmp101:
.LBB9_2:
	.loc	5 656 6                         @ ../Library/STM32F4xx_HAL_Driver/Src/stm32f4xx_ll_utils.c:656:6
	bl	LL_RCC_PLLSAI_IsReady
.Ltmp102:
	.loc	5 656 6 is_stmt 0               @ ../Library/STM32F4xx_HAL_Driver/Src/stm32f4xx_ll_utils.c:656:6
	cbz	r0, .LBB9_4
	b	.LBB9_3
.LBB9_3:
	.loc	5 0 6                           @ ../Library/STM32F4xx_HAL_Driver/Src/stm32f4xx_ll_utils.c:0:6
	movs	r0, #1
.Ltmp103:
	.loc	5 659 12 is_stmt 1              @ ../Library/STM32F4xx_HAL_Driver/Src/stm32f4xx_ll_utils.c:659:12
	strb.w	r0, [sp, #7]
	.loc	5 660 3                         @ ../Library/STM32F4xx_HAL_Driver/Src/stm32f4xx_ll_utils.c:660:3
	b	.LBB9_4
.Ltmp104:
.LBB9_4:
	.loc	5 664 6                         @ ../Library/STM32F4xx_HAL_Driver/Src/stm32f4xx_ll_utils.c:664:6
	bl	LL_RCC_PLLI2S_IsReady
.Ltmp105:
	.loc	5 664 6 is_stmt 0               @ ../Library/STM32F4xx_HAL_Driver/Src/stm32f4xx_ll_utils.c:664:6
	cbz	r0, .LBB9_6
	b	.LBB9_5
.LBB9_5:
	.loc	5 0 6                           @ ../Library/STM32F4xx_HAL_Driver/Src/stm32f4xx_ll_utils.c:0:6
	movs	r0, #1
.Ltmp106:
	.loc	5 667 12 is_stmt 1              @ ../Library/STM32F4xx_HAL_Driver/Src/stm32f4xx_ll_utils.c:667:12
	strb.w	r0, [sp, #7]
	.loc	5 668 3                         @ ../Library/STM32F4xx_HAL_Driver/Src/stm32f4xx_ll_utils.c:668:3
	b	.LBB9_6
.Ltmp107:
.LBB9_6:
	.loc	5 670 10                        @ ../Library/STM32F4xx_HAL_Driver/Src/stm32f4xx_ll_utils.c:670:10
	ldrb.w	r0, [sp, #7]
	.loc	5 670 3 is_stmt 0               @ ../Library/STM32F4xx_HAL_Driver/Src/stm32f4xx_ll_utils.c:670:3
	add	sp, #8
	pop	{r7, pc}
.Ltmp108:
.Lfunc_end9:
	.size	UTILS_PLL_IsBusy, .Lfunc_end9-UTILS_PLL_IsBusy
	.cfi_endproc
	.cantunwind
	.fnend
                                        @ -- End function
	.section	.text.UTILS_GetPLLOutputFrequency,"ax",%progbits
	.p2align	2                               @ -- Begin function UTILS_GetPLLOutputFrequency
	.type	UTILS_GetPLLOutputFrequency,%function
	.code	16                              @ @UTILS_GetPLLOutputFrequency
	.thumb_func
UTILS_GetPLLOutputFrequency:
.Lfunc_begin10:
	.loc	5 613 0 is_stmt 1               @ ../Library/STM32F4xx_HAL_Driver/Src/stm32f4xx_ll_utils.c:613:0
	.fnstart
	.cfi_startproc
@ %bb.0:
	.pad	#12
	sub	sp, #12
	.cfi_def_cfa_offset 12
	str	r0, [sp, #8]
	str	r1, [sp, #4]
	movs	r0, #0
.Ltmp109:
	.loc	5 614 12 prologue_end           @ ../Library/STM32F4xx_HAL_Driver/Src/stm32f4xx_ll_utils.c:614:12
	str	r0, [sp]
	.loc	5 623 13                        @ ../Library/STM32F4xx_HAL_Driver/Src/stm32f4xx_ll_utils.c:623:13
	ldr	r0, [sp, #8]
	.loc	5 623 35 is_stmt 0              @ ../Library/STM32F4xx_HAL_Driver/Src/stm32f4xx_ll_utils.c:623:35
	ldr	r1, [sp, #4]
	.loc	5 623 56                        @ ../Library/STM32F4xx_HAL_Driver/Src/stm32f4xx_ll_utils.c:623:56
	ldr	r1, [r1]
	.loc	5 623 61                        @ ../Library/STM32F4xx_HAL_Driver/Src/stm32f4xx_ll_utils.c:623:61
	and	r1, r1, #63
	.loc	5 623 32                        @ ../Library/STM32F4xx_HAL_Driver/Src/stm32f4xx_ll_utils.c:623:32
	udiv	r0, r0, r1
	.loc	5 623 11                        @ ../Library/STM32F4xx_HAL_Driver/Src/stm32f4xx_ll_utils.c:623:11
	str	r0, [sp]
	.loc	5 627 13 is_stmt 1              @ ../Library/STM32F4xx_HAL_Driver/Src/stm32f4xx_ll_utils.c:627:13
	ldr	r0, [sp]
	.loc	5 627 24 is_stmt 0              @ ../Library/STM32F4xx_HAL_Driver/Src/stm32f4xx_ll_utils.c:627:24
	ldr	r1, [sp, #4]
	.loc	5 627 45                        @ ../Library/STM32F4xx_HAL_Driver/Src/stm32f4xx_ll_utils.c:627:45
	ldr	r1, [r1, #4]
	.loc	5 627 50                        @ ../Library/STM32F4xx_HAL_Driver/Src/stm32f4xx_ll_utils.c:627:50
	bfc	r1, #9, #23
	.loc	5 627 21                        @ ../Library/STM32F4xx_HAL_Driver/Src/stm32f4xx_ll_utils.c:627:21
	muls	r0, r1, r0
	.loc	5 627 11                        @ ../Library/STM32F4xx_HAL_Driver/Src/stm32f4xx_ll_utils.c:627:11
	str	r0, [sp]
	.loc	5 631 13 is_stmt 1              @ ../Library/STM32F4xx_HAL_Driver/Src/stm32f4xx_ll_utils.c:631:13
	ldr	r0, [sp]
	.loc	5 631 26 is_stmt 0              @ ../Library/STM32F4xx_HAL_Driver/Src/stm32f4xx_ll_utils.c:631:26
	ldr	r1, [sp, #4]
	.loc	5 631 47                        @ ../Library/STM32F4xx_HAL_Driver/Src/stm32f4xx_ll_utils.c:631:47
	ldr	r1, [r1, #8]
	.loc	5 631 52                        @ ../Library/STM32F4xx_HAL_Driver/Src/stm32f4xx_ll_utils.c:631:52
	lsrs	r2, r1, #16
	movs	r1, #2
	.loc	5 631 82                        @ ../Library/STM32F4xx_HAL_Driver/Src/stm32f4xx_ll_utils.c:631:82
	add.w	r1, r1, r2, lsl #1
	.loc	5 631 21                        @ ../Library/STM32F4xx_HAL_Driver/Src/stm32f4xx_ll_utils.c:631:21
	udiv	r0, r0, r1
	.loc	5 631 11                        @ ../Library/STM32F4xx_HAL_Driver/Src/stm32f4xx_ll_utils.c:631:11
	str	r0, [sp]
	.loc	5 634 10 is_stmt 1              @ ../Library/STM32F4xx_HAL_Driver/Src/stm32f4xx_ll_utils.c:634:10
	ldr	r0, [sp]
	.loc	5 634 3 is_stmt 0               @ ../Library/STM32F4xx_HAL_Driver/Src/stm32f4xx_ll_utils.c:634:3
	add	sp, #12
	bx	lr
.Ltmp110:
.Lfunc_end10:
	.size	UTILS_GetPLLOutputFrequency, .Lfunc_end10-UTILS_GetPLLOutputFrequency
	.cfi_endproc
	.cantunwind
	.fnend
                                        @ -- End function
	.section	.text.LL_RCC_HSI_IsReady,"ax",%progbits
	.p2align	2                               @ -- Begin function LL_RCC_HSI_IsReady
	.type	LL_RCC_HSI_IsReady,%function
	.code	16                              @ @LL_RCC_HSI_IsReady
	.thumb_func
LL_RCC_HSI_IsReady:
.Lfunc_begin11:
	.file	9 "C:\\Users\\Hyacincher\\Desktop\\HyTelectrl\\Code\\Project" "../Library/STM32F4xx_HAL_Driver/Inc\\stm32f4xx_ll_rcc.h"
	.loc	9 3010 0 is_stmt 1              @ ../Library/STM32F4xx_HAL_Driver/Inc\stm32f4xx_ll_rcc.h:3010:0
	.fnstart
	.cfi_startproc
@ %bb.0:
	movw	r0, #14336
	movt	r0, #16386
.Ltmp111:
	.loc	9 3011 11 prologue_end          @ ../Library/STM32F4xx_HAL_Driver/Inc\stm32f4xx_ll_rcc.h:3011:11
	ldr	r0, [r0]
	.loc	9 3011 44 is_stmt 0             @ ../Library/STM32F4xx_HAL_Driver/Inc\stm32f4xx_ll_rcc.h:3011:44
	ubfx	r0, r0, #1, #1
	.loc	9 3011 3                        @ ../Library/STM32F4xx_HAL_Driver/Inc\stm32f4xx_ll_rcc.h:3011:3
	bx	lr
.Ltmp112:
.Lfunc_end11:
	.size	LL_RCC_HSI_IsReady, .Lfunc_end11-LL_RCC_HSI_IsReady
	.cfi_endproc
	.cantunwind
	.fnend
                                        @ -- End function
	.section	.text.LL_RCC_HSI_Enable,"ax",%progbits
	.p2align	2                               @ -- Begin function LL_RCC_HSI_Enable
	.type	LL_RCC_HSI_Enable,%function
	.code	16                              @ @LL_RCC_HSI_Enable
	.thumb_func
LL_RCC_HSI_Enable:
.Lfunc_begin12:
	.loc	9 2990 0 is_stmt 1              @ ../Library/STM32F4xx_HAL_Driver/Inc\stm32f4xx_ll_rcc.h:2990:0
	.fnstart
	.cfi_startproc
@ %bb.0:
	movw	r1, #14336
	movt	r1, #16386
.Ltmp113:
	.loc	9 2991 3 prologue_end           @ ../Library/STM32F4xx_HAL_Driver/Inc\stm32f4xx_ll_rcc.h:2991:3
	ldr	r0, [r1]
	orr	r0, r0, #1
	str	r0, [r1]
	.loc	9 2992 1                        @ ../Library/STM32F4xx_HAL_Driver/Inc\stm32f4xx_ll_rcc.h:2992:1
	bx	lr
.Ltmp114:
.Lfunc_end12:
	.size	LL_RCC_HSI_Enable, .Lfunc_end12-LL_RCC_HSI_Enable
	.cfi_endproc
	.cantunwind
	.fnend
                                        @ -- End function
	.section	.text.LL_RCC_PLL_ConfigDomain_SYS,"ax",%progbits
	.p2align	2                               @ -- Begin function LL_RCC_PLL_ConfigDomain_SYS
	.type	LL_RCC_PLL_ConfigDomain_SYS,%function
	.code	16                              @ @LL_RCC_PLL_ConfigDomain_SYS
	.thumb_func
LL_RCC_PLL_ConfigDomain_SYS:
.Lfunc_begin13:
	.loc	9 4307 0                        @ ../Library/STM32F4xx_HAL_Driver/Inc\stm32f4xx_ll_rcc.h:4307:0
	.fnstart
	.cfi_startproc
@ %bb.0:
	.pad	#16
	sub	sp, #16
	.cfi_def_cfa_offset 16
	str	r0, [sp, #12]
	str	r1, [sp, #8]
	str	r2, [sp, #4]
	str	r3, [sp]
	movw	r1, #14340
	movt	r1, #16386
.Ltmp115:
	.loc	9 4308 3 prologue_end           @ ../Library/STM32F4xx_HAL_Driver/Inc\stm32f4xx_ll_rcc.h:4308:3
	ldr	r0, [r1]
	movw	r2, #32768
	movt	r2, #65471
	ands	r0, r2
	ldr	r2, [sp, #12]
	ldr	r3, [sp, #8]
	orrs	r2, r3
	ldr	r3, [sp, #4]
	orr.w	r2, r2, r3, lsl #6
	orrs	r0, r2
	str	r0, [r1]
	.loc	9 4310 3                        @ ../Library/STM32F4xx_HAL_Driver/Inc\stm32f4xx_ll_rcc.h:4310:3
	ldr	r0, [r1]
	bic	r0, r0, #196608
	ldr	r2, [sp]
	orrs	r0, r2
	str	r0, [r1]
	.loc	9 4314 1                        @ ../Library/STM32F4xx_HAL_Driver/Inc\stm32f4xx_ll_rcc.h:4314:1
	add	sp, #16
	bx	lr
.Ltmp116:
.Lfunc_end13:
	.size	LL_RCC_PLL_ConfigDomain_SYS, .Lfunc_end13-LL_RCC_PLL_ConfigDomain_SYS
	.cfi_endproc
	.cantunwind
	.fnend
                                        @ -- End function
	.section	.text.UTILS_EnablePLLAndSwitchSystem,"ax",%progbits
	.p2align	2                               @ -- Begin function UTILS_EnablePLLAndSwitchSystem
	.type	UTILS_EnablePLLAndSwitchSystem,%function
	.code	16                              @ @UTILS_EnablePLLAndSwitchSystem
	.thumb_func
UTILS_EnablePLLAndSwitchSystem:
.Lfunc_begin14:
	.loc	5 683 0                         @ ../Library/STM32F4xx_HAL_Driver/Src/stm32f4xx_ll_utils.c:683:0
	.fnstart
	.cfi_startproc
@ %bb.0:
	.save	{r7, lr}
	push	{r7, lr}
	.cfi_def_cfa_offset 8
	.cfi_offset lr, -4
	.cfi_offset r7, -8
	.pad	#16
	sub	sp, #16
	.cfi_def_cfa_offset 24
	str	r0, [sp, #12]
	str	r1, [sp, #8]
	movs	r0, #0
.Ltmp117:
	.loc	5 684 15 prologue_end           @ ../Library/STM32F4xx_HAL_Driver/Src/stm32f4xx_ll_utils.c:684:15
	strb.w	r0, [sp, #7]
	.loc	5 685 12                        @ ../Library/STM32F4xx_HAL_Driver/Src/stm32f4xx_ll_utils.c:685:12
	str	r0, [sp]
	.loc	5 692 20                        @ ../Library/STM32F4xx_HAL_Driver/Src/stm32f4xx_ll_utils.c:692:20
	ldr	r0, [sp, #12]
	ldr	r1, [sp, #8]
	ldrb	r1, [r1]
	lsrs	r2, r1, #4
	movw	r1, :lower16:AHBPrescTable
	movt	r1, :upper16:AHBPrescTable
	ldrb	r1, [r1, r2]
	lsrs	r0, r1
	.loc	5 692 18 is_stmt 0              @ ../Library/STM32F4xx_HAL_Driver/Src/stm32f4xx_ll_utils.c:692:18
	str	r0, [sp]
.Ltmp118:
	.loc	5 695 6 is_stmt 1               @ ../Library/STM32F4xx_HAL_Driver/Src/stm32f4xx_ll_utils.c:695:6
	movw	r0, :lower16:SystemCoreClock
	movt	r0, :upper16:SystemCoreClock
	ldr	r0, [r0]
	.loc	5 695 24 is_stmt 0              @ ../Library/STM32F4xx_HAL_Driver/Src/stm32f4xx_ll_utils.c:695:24
	ldr	r1, [sp]
.Ltmp119:
	.loc	5 695 6                         @ ../Library/STM32F4xx_HAL_Driver/Src/stm32f4xx_ll_utils.c:695:6
	cmp	r0, r1
	bhs	.LBB14_2
	b	.LBB14_1
.LBB14_1:
.Ltmp120:
	.loc	5 698 33 is_stmt 1              @ ../Library/STM32F4xx_HAL_Driver/Src/stm32f4xx_ll_utils.c:698:33
	ldr	r0, [sp]
	.loc	5 698 14 is_stmt 0              @ ../Library/STM32F4xx_HAL_Driver/Src/stm32f4xx_ll_utils.c:698:14
	bl	LL_SetFlashLatency
	.loc	5 698 12                        @ ../Library/STM32F4xx_HAL_Driver/Src/stm32f4xx_ll_utils.c:698:12
	strb.w	r0, [sp, #7]
	.loc	5 699 3 is_stmt 1               @ ../Library/STM32F4xx_HAL_Driver/Src/stm32f4xx_ll_utils.c:699:3
	b	.LBB14_2
.Ltmp121:
.LBB14_2:
	.loc	5 702 6                         @ ../Library/STM32F4xx_HAL_Driver/Src/stm32f4xx_ll_utils.c:702:6
	ldrb.w	r0, [sp, #7]
.Ltmp122:
	.loc	5 702 6 is_stmt 0               @ ../Library/STM32F4xx_HAL_Driver/Src/stm32f4xx_ll_utils.c:702:6
	cbnz	r0, .LBB14_10
	b	.LBB14_3
.LBB14_3:
.Ltmp123:
	.loc	5 705 5 is_stmt 1               @ ../Library/STM32F4xx_HAL_Driver/Src/stm32f4xx_ll_utils.c:705:5
	bl	LL_RCC_PLL_Enable
	.loc	5 706 5                         @ ../Library/STM32F4xx_HAL_Driver/Src/stm32f4xx_ll_utils.c:706:5
	b	.LBB14_4
.LBB14_4:                               @ =>This Inner Loop Header: Depth=1
	.loc	5 706 12 is_stmt 0              @ ../Library/STM32F4xx_HAL_Driver/Src/stm32f4xx_ll_utils.c:706:12
	bl	LL_RCC_PLL_IsReady
	.loc	5 706 5                         @ ../Library/STM32F4xx_HAL_Driver/Src/stm32f4xx_ll_utils.c:706:5
	cmp	r0, #1
	beq	.LBB14_6
	b	.LBB14_5
.LBB14_5:                               @   in Loop: Header=BB14_4 Depth=1
	b	.LBB14_4
.LBB14_6:
	.loc	5 712 28 is_stmt 1              @ ../Library/STM32F4xx_HAL_Driver/Src/stm32f4xx_ll_utils.c:712:28
	ldr	r0, [sp, #8]
	.loc	5 712 49 is_stmt 0              @ ../Library/STM32F4xx_HAL_Driver/Src/stm32f4xx_ll_utils.c:712:49
	ldr	r0, [r0]
	.loc	5 712 5                         @ ../Library/STM32F4xx_HAL_Driver/Src/stm32f4xx_ll_utils.c:712:5
	bl	LL_RCC_SetAHBPrescaler
	movs	r0, #2
	.loc	5 713 5 is_stmt 1               @ ../Library/STM32F4xx_HAL_Driver/Src/stm32f4xx_ll_utils.c:713:5
	bl	LL_RCC_SetSysClkSource
	.loc	5 714 5                         @ ../Library/STM32F4xx_HAL_Driver/Src/stm32f4xx_ll_utils.c:714:5
	b	.LBB14_7
.LBB14_7:                               @ =>This Inner Loop Header: Depth=1
	.loc	5 714 12 is_stmt 0              @ ../Library/STM32F4xx_HAL_Driver/Src/stm32f4xx_ll_utils.c:714:12
	bl	LL_RCC_GetSysClkSource
	.loc	5 714 5                         @ ../Library/STM32F4xx_HAL_Driver/Src/stm32f4xx_ll_utils.c:714:5
	cmp	r0, #8
	beq	.LBB14_9
	b	.LBB14_8
.LBB14_8:                               @   in Loop: Header=BB14_7 Depth=1
	b	.LBB14_7
.LBB14_9:
	.loc	5 720 29 is_stmt 1              @ ../Library/STM32F4xx_HAL_Driver/Src/stm32f4xx_ll_utils.c:720:29
	ldr	r0, [sp, #8]
	.loc	5 720 50 is_stmt 0              @ ../Library/STM32F4xx_HAL_Driver/Src/stm32f4xx_ll_utils.c:720:50
	ldr	r0, [r0, #4]
	.loc	5 720 5                         @ ../Library/STM32F4xx_HAL_Driver/Src/stm32f4xx_ll_utils.c:720:5
	bl	LL_RCC_SetAPB1Prescaler
	.loc	5 721 29 is_stmt 1              @ ../Library/STM32F4xx_HAL_Driver/Src/stm32f4xx_ll_utils.c:721:29
	ldr	r0, [sp, #8]
	.loc	5 721 50 is_stmt 0              @ ../Library/STM32F4xx_HAL_Driver/Src/stm32f4xx_ll_utils.c:721:50
	ldr	r0, [r0, #8]
	.loc	5 721 5                         @ ../Library/STM32F4xx_HAL_Driver/Src/stm32f4xx_ll_utils.c:721:5
	bl	LL_RCC_SetAPB2Prescaler
	.loc	5 722 3 is_stmt 1               @ ../Library/STM32F4xx_HAL_Driver/Src/stm32f4xx_ll_utils.c:722:3
	b	.LBB14_10
.Ltmp124:
.LBB14_10:
	.loc	5 725 6                         @ ../Library/STM32F4xx_HAL_Driver/Src/stm32f4xx_ll_utils.c:725:6
	movw	r0, :lower16:SystemCoreClock
	movt	r0, :upper16:SystemCoreClock
	ldr	r0, [r0]
	.loc	5 725 24 is_stmt 0              @ ../Library/STM32F4xx_HAL_Driver/Src/stm32f4xx_ll_utils.c:725:24
	ldr	r1, [sp]
.Ltmp125:
	.loc	5 725 6                         @ ../Library/STM32F4xx_HAL_Driver/Src/stm32f4xx_ll_utils.c:725:6
	cmp	r0, r1
	bls	.LBB14_12
	b	.LBB14_11
.LBB14_11:
.Ltmp126:
	.loc	5 728 33 is_stmt 1              @ ../Library/STM32F4xx_HAL_Driver/Src/stm32f4xx_ll_utils.c:728:33
	ldr	r0, [sp]
	.loc	5 728 14 is_stmt 0              @ ../Library/STM32F4xx_HAL_Driver/Src/stm32f4xx_ll_utils.c:728:14
	bl	LL_SetFlashLatency
	.loc	5 728 12                        @ ../Library/STM32F4xx_HAL_Driver/Src/stm32f4xx_ll_utils.c:728:12
	strb.w	r0, [sp, #7]
	.loc	5 729 3 is_stmt 1               @ ../Library/STM32F4xx_HAL_Driver/Src/stm32f4xx_ll_utils.c:729:3
	b	.LBB14_12
.Ltmp127:
.LBB14_12:
	.loc	5 732 6                         @ ../Library/STM32F4xx_HAL_Driver/Src/stm32f4xx_ll_utils.c:732:6
	ldrb.w	r0, [sp, #7]
.Ltmp128:
	.loc	5 732 6 is_stmt 0               @ ../Library/STM32F4xx_HAL_Driver/Src/stm32f4xx_ll_utils.c:732:6
	cbnz	r0, .LBB14_14
	b	.LBB14_13
.LBB14_13:
.Ltmp129:
	.loc	5 734 27 is_stmt 1              @ ../Library/STM32F4xx_HAL_Driver/Src/stm32f4xx_ll_utils.c:734:27
	ldr	r0, [sp]
	.loc	5 734 5 is_stmt 0               @ ../Library/STM32F4xx_HAL_Driver/Src/stm32f4xx_ll_utils.c:734:5
	bl	LL_SetSystemCoreClock
	.loc	5 735 3 is_stmt 1               @ ../Library/STM32F4xx_HAL_Driver/Src/stm32f4xx_ll_utils.c:735:3
	b	.LBB14_14
.Ltmp130:
.LBB14_14:
	.loc	5 737 10                        @ ../Library/STM32F4xx_HAL_Driver/Src/stm32f4xx_ll_utils.c:737:10
	ldrb.w	r0, [sp, #7]
	.loc	5 737 3 is_stmt 0               @ ../Library/STM32F4xx_HAL_Driver/Src/stm32f4xx_ll_utils.c:737:3
	add	sp, #16
	pop	{r7, pc}
.Ltmp131:
.Lfunc_end14:
	.size	UTILS_EnablePLLAndSwitchSystem, .Lfunc_end14-UTILS_EnablePLLAndSwitchSystem
	.cfi_endproc
	.cantunwind
	.fnend
                                        @ -- End function
	.section	.text.LL_PLL_ConfigSystemClock_HSE,"ax",%progbits
	.hidden	LL_PLL_ConfigSystemClock_HSE    @ -- Begin function LL_PLL_ConfigSystemClock_HSE
	.globl	LL_PLL_ConfigSystemClock_HSE
	.p2align	2
	.type	LL_PLL_ConfigSystemClock_HSE,%function
	.code	16                              @ @LL_PLL_ConfigSystemClock_HSE
	.thumb_func
LL_PLL_ConfigSystemClock_HSE:
.Lfunc_begin15:
	.loc	5 543 0 is_stmt 1               @ ../Library/STM32F4xx_HAL_Driver/Src/stm32f4xx_ll_utils.c:543:0
	.fnstart
	.cfi_startproc
@ %bb.0:
	.save	{r7, lr}
	push	{r7, lr}
	.cfi_def_cfa_offset 8
	.cfi_offset lr, -4
	.cfi_offset r7, -8
	.pad	#24
	sub	sp, #24
	.cfi_def_cfa_offset 32
	str	r0, [sp, #20]
	str	r1, [sp, #16]
	str	r2, [sp, #12]
	str	r3, [sp, #8]
	movs	r0, #0
.Ltmp132:
	.loc	5 544 15 prologue_end           @ ../Library/STM32F4xx_HAL_Driver/Src/stm32f4xx_ll_utils.c:544:15
	strb.w	r0, [sp, #7]
	.loc	5 545 12                        @ ../Library/STM32F4xx_HAL_Driver/Src/stm32f4xx_ll_utils.c:545:12
	str	r0, [sp]
.Ltmp133:
	.loc	5 552 6                         @ ../Library/STM32F4xx_HAL_Driver/Src/stm32f4xx_ll_utils.c:552:6
	bl	UTILS_PLL_IsBusy
.Ltmp134:
	.loc	5 552 6 is_stmt 0               @ ../Library/STM32F4xx_HAL_Driver/Src/stm32f4xx_ll_utils.c:552:6
	cbnz	r0, .LBB15_10
	b	.LBB15_1
.LBB15_1:
.Ltmp135:
	.loc	5 555 43 is_stmt 1              @ ../Library/STM32F4xx_HAL_Driver/Src/stm32f4xx_ll_utils.c:555:43
	ldr	r0, [sp, #20]
	.loc	5 555 57 is_stmt 0              @ ../Library/STM32F4xx_HAL_Driver/Src/stm32f4xx_ll_utils.c:555:57
	ldr	r1, [sp, #12]
	.loc	5 555 15                        @ ../Library/STM32F4xx_HAL_Driver/Src/stm32f4xx_ll_utils.c:555:15
	bl	UTILS_GetPLLOutputFrequency
	.loc	5 555 13                        @ ../Library/STM32F4xx_HAL_Driver/Src/stm32f4xx_ll_utils.c:555:13
	str	r0, [sp]
.Ltmp136:
	.loc	5 558 8 is_stmt 1               @ ../Library/STM32F4xx_HAL_Driver/Src/stm32f4xx_ll_utils.c:558:8
	bl	LL_RCC_HSE_IsReady
.Ltmp137:
	.loc	5 558 8 is_stmt 0               @ ../Library/STM32F4xx_HAL_Driver/Src/stm32f4xx_ll_utils.c:558:8
	cmp	r0, #1
	beq	.LBB15_9
	b	.LBB15_2
.LBB15_2:
.Ltmp138:
	.loc	5 561 10 is_stmt 1              @ ../Library/STM32F4xx_HAL_Driver/Src/stm32f4xx_ll_utils.c:561:10
	ldr	r0, [sp, #16]
.Ltmp139:
	.loc	5 561 10 is_stmt 0              @ ../Library/STM32F4xx_HAL_Driver/Src/stm32f4xx_ll_utils.c:561:10
	cmp	r0, #1
	bne	.LBB15_4
	b	.LBB15_3
.LBB15_3:
.Ltmp140:
	.loc	5 563 9 is_stmt 1               @ ../Library/STM32F4xx_HAL_Driver/Src/stm32f4xx_ll_utils.c:563:9
	bl	LL_RCC_HSE_EnableBypass
	.loc	5 564 7                         @ ../Library/STM32F4xx_HAL_Driver/Src/stm32f4xx_ll_utils.c:564:7
	b	.LBB15_5
.Ltmp141:
.LBB15_4:
	.loc	5 567 9                         @ ../Library/STM32F4xx_HAL_Driver/Src/stm32f4xx_ll_utils.c:567:9
	bl	LL_RCC_HSE_DisableBypass
	b	.LBB15_5
.Ltmp142:
.LBB15_5:
	.loc	5 571 7                         @ ../Library/STM32F4xx_HAL_Driver/Src/stm32f4xx_ll_utils.c:571:7
	bl	LL_RCC_HSE_Enable
	.loc	5 572 7                         @ ../Library/STM32F4xx_HAL_Driver/Src/stm32f4xx_ll_utils.c:572:7
	b	.LBB15_6
.LBB15_6:                               @ =>This Inner Loop Header: Depth=1
	.loc	5 572 14 is_stmt 0              @ ../Library/STM32F4xx_HAL_Driver/Src/stm32f4xx_ll_utils.c:572:14
	bl	LL_RCC_HSE_IsReady
	.loc	5 572 7                         @ ../Library/STM32F4xx_HAL_Driver/Src/stm32f4xx_ll_utils.c:572:7
	cmp	r0, #1
	beq	.LBB15_8
	b	.LBB15_7
.LBB15_7:                               @   in Loop: Header=BB15_6 Depth=1
	b	.LBB15_6
.LBB15_8:
	.loc	5 576 5 is_stmt 1               @ ../Library/STM32F4xx_HAL_Driver/Src/stm32f4xx_ll_utils.c:576:5
	b	.LBB15_9
.Ltmp143:
.LBB15_9:
	.loc	5 579 55                        @ ../Library/STM32F4xx_HAL_Driver/Src/stm32f4xx_ll_utils.c:579:55
	ldr	r0, [sp, #12]
	.loc	5 579 76 is_stmt 0              @ ../Library/STM32F4xx_HAL_Driver/Src/stm32f4xx_ll_utils.c:579:76
	ldr	r1, [r0]
	.loc	5 579 103                       @ ../Library/STM32F4xx_HAL_Driver/Src/stm32f4xx_ll_utils.c:579:103
	ldr	r2, [r0, #4]
	.loc	5 580 54 is_stmt 1              @ ../Library/STM32F4xx_HAL_Driver/Src/stm32f4xx_ll_utils.c:580:54
	ldr	r3, [r0, #8]
	mov.w	r0, #4194304
	.loc	5 579 5                         @ ../Library/STM32F4xx_HAL_Driver/Src/stm32f4xx_ll_utils.c:579:5
	bl	LL_RCC_PLL_ConfigDomain_SYS
	.loc	5 583 45                        @ ../Library/STM32F4xx_HAL_Driver/Src/stm32f4xx_ll_utils.c:583:45
	ldr	r0, [sp]
	.loc	5 583 54 is_stmt 0              @ ../Library/STM32F4xx_HAL_Driver/Src/stm32f4xx_ll_utils.c:583:54
	ldr	r1, [sp, #8]
	.loc	5 583 14                        @ ../Library/STM32F4xx_HAL_Driver/Src/stm32f4xx_ll_utils.c:583:14
	bl	UTILS_EnablePLLAndSwitchSystem
	.loc	5 583 12                        @ ../Library/STM32F4xx_HAL_Driver/Src/stm32f4xx_ll_utils.c:583:12
	strb.w	r0, [sp, #7]
	.loc	5 584 3 is_stmt 1               @ ../Library/STM32F4xx_HAL_Driver/Src/stm32f4xx_ll_utils.c:584:3
	b	.LBB15_11
.Ltmp144:
.LBB15_10:
	.loc	5 0 3 is_stmt 0                 @ ../Library/STM32F4xx_HAL_Driver/Src/stm32f4xx_ll_utils.c:0:3
	movs	r0, #1
.Ltmp145:
	.loc	5 588 12 is_stmt 1              @ ../Library/STM32F4xx_HAL_Driver/Src/stm32f4xx_ll_utils.c:588:12
	strb.w	r0, [sp, #7]
	b	.LBB15_11
.Ltmp146:
.LBB15_11:
	.loc	5 591 10                        @ ../Library/STM32F4xx_HAL_Driver/Src/stm32f4xx_ll_utils.c:591:10
	ldrb.w	r0, [sp, #7]
	.loc	5 591 3 is_stmt 0               @ ../Library/STM32F4xx_HAL_Driver/Src/stm32f4xx_ll_utils.c:591:3
	add	sp, #24
	pop	{r7, pc}
.Ltmp147:
.Lfunc_end15:
	.size	LL_PLL_ConfigSystemClock_HSE, .Lfunc_end15-LL_PLL_ConfigSystemClock_HSE
	.cfi_endproc
	.cantunwind
	.fnend
                                        @ -- End function
	.section	.text.LL_RCC_HSE_IsReady,"ax",%progbits
	.p2align	2                               @ -- Begin function LL_RCC_HSE_IsReady
	.type	LL_RCC_HSE_IsReady,%function
	.code	16                              @ @LL_RCC_HSE_IsReady
	.thumb_func
LL_RCC_HSE_IsReady:
.Lfunc_begin16:
	.loc	9 2972 0 is_stmt 1              @ ../Library/STM32F4xx_HAL_Driver/Inc\stm32f4xx_ll_rcc.h:2972:0
	.fnstart
	.cfi_startproc
@ %bb.0:
	movw	r0, #14336
	movt	r0, #16386
.Ltmp148:
	.loc	9 2973 11 prologue_end          @ ../Library/STM32F4xx_HAL_Driver/Inc\stm32f4xx_ll_rcc.h:2973:11
	ldr	r0, [r0]
	.loc	9 2973 44 is_stmt 0             @ ../Library/STM32F4xx_HAL_Driver/Inc\stm32f4xx_ll_rcc.h:2973:44
	ubfx	r0, r0, #17, #1
	.loc	9 2973 3                        @ ../Library/STM32F4xx_HAL_Driver/Inc\stm32f4xx_ll_rcc.h:2973:3
	bx	lr
.Ltmp149:
.Lfunc_end16:
	.size	LL_RCC_HSE_IsReady, .Lfunc_end16-LL_RCC_HSE_IsReady
	.cfi_endproc
	.cantunwind
	.fnend
                                        @ -- End function
	.section	.text.LL_RCC_HSE_EnableBypass,"ax",%progbits
	.p2align	2                               @ -- Begin function LL_RCC_HSE_EnableBypass
	.type	LL_RCC_HSE_EnableBypass,%function
	.code	16                              @ @LL_RCC_HSE_EnableBypass
	.thumb_func
LL_RCC_HSE_EnableBypass:
.Lfunc_begin17:
	.loc	9 2932 0 is_stmt 1              @ ../Library/STM32F4xx_HAL_Driver/Inc\stm32f4xx_ll_rcc.h:2932:0
	.fnstart
	.cfi_startproc
@ %bb.0:
	movw	r1, #14336
	movt	r1, #16386
.Ltmp150:
	.loc	9 2933 3 prologue_end           @ ../Library/STM32F4xx_HAL_Driver/Inc\stm32f4xx_ll_rcc.h:2933:3
	ldr	r0, [r1]
	orr	r0, r0, #262144
	str	r0, [r1]
	.loc	9 2934 1                        @ ../Library/STM32F4xx_HAL_Driver/Inc\stm32f4xx_ll_rcc.h:2934:1
	bx	lr
.Ltmp151:
.Lfunc_end17:
	.size	LL_RCC_HSE_EnableBypass, .Lfunc_end17-LL_RCC_HSE_EnableBypass
	.cfi_endproc
	.cantunwind
	.fnend
                                        @ -- End function
	.section	.text.LL_RCC_HSE_DisableBypass,"ax",%progbits
	.p2align	2                               @ -- Begin function LL_RCC_HSE_DisableBypass
	.type	LL_RCC_HSE_DisableBypass,%function
	.code	16                              @ @LL_RCC_HSE_DisableBypass
	.thumb_func
LL_RCC_HSE_DisableBypass:
.Lfunc_begin18:
	.loc	9 2942 0                        @ ../Library/STM32F4xx_HAL_Driver/Inc\stm32f4xx_ll_rcc.h:2942:0
	.fnstart
	.cfi_startproc
@ %bb.0:
	movw	r1, #14336
	movt	r1, #16386
.Ltmp152:
	.loc	9 2943 3 prologue_end           @ ../Library/STM32F4xx_HAL_Driver/Inc\stm32f4xx_ll_rcc.h:2943:3
	ldr	r0, [r1]
	bic	r0, r0, #262144
	str	r0, [r1]
	.loc	9 2944 1                        @ ../Library/STM32F4xx_HAL_Driver/Inc\stm32f4xx_ll_rcc.h:2944:1
	bx	lr
.Ltmp153:
.Lfunc_end18:
	.size	LL_RCC_HSE_DisableBypass, .Lfunc_end18-LL_RCC_HSE_DisableBypass
	.cfi_endproc
	.cantunwind
	.fnend
                                        @ -- End function
	.section	.text.LL_RCC_HSE_Enable,"ax",%progbits
	.p2align	2                               @ -- Begin function LL_RCC_HSE_Enable
	.type	LL_RCC_HSE_Enable,%function
	.code	16                              @ @LL_RCC_HSE_Enable
	.thumb_func
LL_RCC_HSE_Enable:
.Lfunc_begin19:
	.loc	9 2952 0                        @ ../Library/STM32F4xx_HAL_Driver/Inc\stm32f4xx_ll_rcc.h:2952:0
	.fnstart
	.cfi_startproc
@ %bb.0:
	movw	r1, #14336
	movt	r1, #16386
.Ltmp154:
	.loc	9 2953 3 prologue_end           @ ../Library/STM32F4xx_HAL_Driver/Inc\stm32f4xx_ll_rcc.h:2953:3
	ldr	r0, [r1]
	orr	r0, r0, #65536
	str	r0, [r1]
	.loc	9 2954 1                        @ ../Library/STM32F4xx_HAL_Driver/Inc\stm32f4xx_ll_rcc.h:2954:1
	bx	lr
.Ltmp155:
.Lfunc_end19:
	.size	LL_RCC_HSE_Enable, .Lfunc_end19-LL_RCC_HSE_Enable
	.cfi_endproc
	.cantunwind
	.fnend
                                        @ -- End function
	.section	.text.LL_RCC_PLL_IsReady,"ax",%progbits
	.p2align	2                               @ -- Begin function LL_RCC_PLL_IsReady
	.type	LL_RCC_PLL_IsReady,%function
	.code	16                              @ @LL_RCC_PLL_IsReady
	.thumb_func
LL_RCC_PLL_IsReady:
.Lfunc_begin20:
	.loc	9 4208 0                        @ ../Library/STM32F4xx_HAL_Driver/Inc\stm32f4xx_ll_rcc.h:4208:0
	.fnstart
	.cfi_startproc
@ %bb.0:
	movw	r0, #14336
	movt	r0, #16386
.Ltmp156:
	.loc	9 4209 11 prologue_end          @ ../Library/STM32F4xx_HAL_Driver/Inc\stm32f4xx_ll_rcc.h:4209:11
	ldr	r0, [r0]
	.loc	9 4209 44 is_stmt 0             @ ../Library/STM32F4xx_HAL_Driver/Inc\stm32f4xx_ll_rcc.h:4209:44
	ubfx	r0, r0, #25, #1
	.loc	9 4209 3                        @ ../Library/STM32F4xx_HAL_Driver/Inc\stm32f4xx_ll_rcc.h:4209:3
	bx	lr
.Ltmp157:
.Lfunc_end20:
	.size	LL_RCC_PLL_IsReady, .Lfunc_end20-LL_RCC_PLL_IsReady
	.cfi_endproc
	.cantunwind
	.fnend
                                        @ -- End function
	.section	.text.LL_RCC_PLLSAI_IsReady,"ax",%progbits
	.p2align	2                               @ -- Begin function LL_RCC_PLLSAI_IsReady
	.type	LL_RCC_PLLSAI_IsReady,%function
	.code	16                              @ @LL_RCC_PLLSAI_IsReady
	.thumb_func
LL_RCC_PLLSAI_IsReady:
.Lfunc_begin21:
	.loc	9 5972 0 is_stmt 1              @ ../Library/STM32F4xx_HAL_Driver/Inc\stm32f4xx_ll_rcc.h:5972:0
	.fnstart
	.cfi_startproc
@ %bb.0:
	movw	r0, #14336
	movt	r0, #16386
.Ltmp158:
	.loc	9 5973 11 prologue_end          @ ../Library/STM32F4xx_HAL_Driver/Inc\stm32f4xx_ll_rcc.h:5973:11
	ldr	r0, [r0]
	.loc	9 5973 47 is_stmt 0             @ ../Library/STM32F4xx_HAL_Driver/Inc\stm32f4xx_ll_rcc.h:5973:47
	ubfx	r0, r0, #29, #1
	.loc	9 5973 3                        @ ../Library/STM32F4xx_HAL_Driver/Inc\stm32f4xx_ll_rcc.h:5973:3
	bx	lr
.Ltmp159:
.Lfunc_end21:
	.size	LL_RCC_PLLSAI_IsReady, .Lfunc_end21-LL_RCC_PLLSAI_IsReady
	.cfi_endproc
	.cantunwind
	.fnend
                                        @ -- End function
	.section	.text.LL_RCC_PLLI2S_IsReady,"ax",%progbits
	.p2align	2                               @ -- Begin function LL_RCC_PLLI2S_IsReady
	.type	LL_RCC_PLLI2S_IsReady,%function
	.code	16                              @ @LL_RCC_PLLI2S_IsReady
	.thumb_func
LL_RCC_PLLI2S_IsReady:
.Lfunc_begin22:
	.loc	9 5156 0 is_stmt 1              @ ../Library/STM32F4xx_HAL_Driver/Inc\stm32f4xx_ll_rcc.h:5156:0
	.fnstart
	.cfi_startproc
@ %bb.0:
	movw	r0, #14336
	movt	r0, #16386
.Ltmp160:
	.loc	9 5157 11 prologue_end          @ ../Library/STM32F4xx_HAL_Driver/Inc\stm32f4xx_ll_rcc.h:5157:11
	ldr	r0, [r0]
	.loc	9 5157 47 is_stmt 0             @ ../Library/STM32F4xx_HAL_Driver/Inc\stm32f4xx_ll_rcc.h:5157:47
	ubfx	r0, r0, #27, #1
	.loc	9 5157 3                        @ ../Library/STM32F4xx_HAL_Driver/Inc\stm32f4xx_ll_rcc.h:5157:3
	bx	lr
.Ltmp161:
.Lfunc_end22:
	.size	LL_RCC_PLLI2S_IsReady, .Lfunc_end22-LL_RCC_PLLI2S_IsReady
	.cfi_endproc
	.cantunwind
	.fnend
                                        @ -- End function
	.section	.text.LL_RCC_PLL_Enable,"ax",%progbits
	.p2align	2                               @ -- Begin function LL_RCC_PLL_Enable
	.type	LL_RCC_PLL_Enable,%function
	.code	16                              @ @LL_RCC_PLL_Enable
	.thumb_func
LL_RCC_PLL_Enable:
.Lfunc_begin23:
	.loc	9 4187 0 is_stmt 1              @ ../Library/STM32F4xx_HAL_Driver/Inc\stm32f4xx_ll_rcc.h:4187:0
	.fnstart
	.cfi_startproc
@ %bb.0:
	movw	r1, #14336
	movt	r1, #16386
.Ltmp162:
	.loc	9 4188 3 prologue_end           @ ../Library/STM32F4xx_HAL_Driver/Inc\stm32f4xx_ll_rcc.h:4188:3
	ldr	r0, [r1]
	orr	r0, r0, #16777216
	str	r0, [r1]
	.loc	9 4189 1                        @ ../Library/STM32F4xx_HAL_Driver/Inc\stm32f4xx_ll_rcc.h:4189:1
	bx	lr
.Ltmp163:
.Lfunc_end23:
	.size	LL_RCC_PLL_Enable, .Lfunc_end23-LL_RCC_PLL_Enable
	.cfi_endproc
	.cantunwind
	.fnend
                                        @ -- End function
	.section	.text.LL_RCC_SetAHBPrescaler,"ax",%progbits
	.p2align	2                               @ -- Begin function LL_RCC_SetAHBPrescaler
	.type	LL_RCC_SetAHBPrescaler,%function
	.code	16                              @ @LL_RCC_SetAHBPrescaler
	.thumb_func
LL_RCC_SetAHBPrescaler:
.Lfunc_begin24:
	.loc	9 3227 0                        @ ../Library/STM32F4xx_HAL_Driver/Inc\stm32f4xx_ll_rcc.h:3227:0
	.fnstart
	.cfi_startproc
@ %bb.0:
	.pad	#4
	sub	sp, #4
	.cfi_def_cfa_offset 4
	str	r0, [sp]
	movw	r1, #14344
	movt	r1, #16386
.Ltmp164:
	.loc	9 3228 3 prologue_end           @ ../Library/STM32F4xx_HAL_Driver/Inc\stm32f4xx_ll_rcc.h:3228:3
	ldr	r0, [r1]
	bic	r0, r0, #240
	ldr	r2, [sp]
	orrs	r0, r2
	str	r0, [r1]
	.loc	9 3229 1                        @ ../Library/STM32F4xx_HAL_Driver/Inc\stm32f4xx_ll_rcc.h:3229:1
	add	sp, #4
	bx	lr
.Ltmp165:
.Lfunc_end24:
	.size	LL_RCC_SetAHBPrescaler, .Lfunc_end24-LL_RCC_SetAHBPrescaler
	.cfi_endproc
	.cantunwind
	.fnend
                                        @ -- End function
	.section	.text.LL_RCC_SetSysClkSource,"ax",%progbits
	.p2align	2                               @ -- Begin function LL_RCC_SetSysClkSource
	.type	LL_RCC_SetSysClkSource,%function
	.code	16                              @ @LL_RCC_SetSysClkSource
	.thumb_func
LL_RCC_SetSysClkSource:
.Lfunc_begin25:
	.loc	9 3191 0                        @ ../Library/STM32F4xx_HAL_Driver/Inc\stm32f4xx_ll_rcc.h:3191:0
	.fnstart
	.cfi_startproc
@ %bb.0:
	.pad	#4
	sub	sp, #4
	.cfi_def_cfa_offset 4
	str	r0, [sp]
	movw	r1, #14344
	movt	r1, #16386
.Ltmp166:
	.loc	9 3192 3 prologue_end           @ ../Library/STM32F4xx_HAL_Driver/Inc\stm32f4xx_ll_rcc.h:3192:3
	ldr	r0, [r1]
	bic	r0, r0, #3
	ldr	r2, [sp]
	orrs	r0, r2
	str	r0, [r1]
	.loc	9 3193 1                        @ ../Library/STM32F4xx_HAL_Driver/Inc\stm32f4xx_ll_rcc.h:3193:1
	add	sp, #4
	bx	lr
.Ltmp167:
.Lfunc_end25:
	.size	LL_RCC_SetSysClkSource, .Lfunc_end25-LL_RCC_SetSysClkSource
	.cfi_endproc
	.cantunwind
	.fnend
                                        @ -- End function
	.section	.text.LL_RCC_GetSysClkSource,"ax",%progbits
	.p2align	2                               @ -- Begin function LL_RCC_GetSysClkSource
	.type	LL_RCC_GetSysClkSource,%function
	.code	16                              @ @LL_RCC_GetSysClkSource
	.thumb_func
LL_RCC_GetSysClkSource:
.Lfunc_begin26:
	.loc	9 3207 0                        @ ../Library/STM32F4xx_HAL_Driver/Inc\stm32f4xx_ll_rcc.h:3207:0
	.fnstart
	.cfi_startproc
@ %bb.0:
	movw	r0, #14344
	movt	r0, #16386
.Ltmp168:
	.loc	9 3208 21 prologue_end          @ ../Library/STM32F4xx_HAL_Driver/Inc\stm32f4xx_ll_rcc.h:3208:21
	ldr	r0, [r0]
	and	r0, r0, #12
	.loc	9 3208 3 is_stmt 0              @ ../Library/STM32F4xx_HAL_Driver/Inc\stm32f4xx_ll_rcc.h:3208:3
	bx	lr
.Ltmp169:
.Lfunc_end26:
	.size	LL_RCC_GetSysClkSource, .Lfunc_end26-LL_RCC_GetSysClkSource
	.cfi_endproc
	.cantunwind
	.fnend
                                        @ -- End function
	.section	.text.LL_RCC_SetAPB1Prescaler,"ax",%progbits
	.p2align	2                               @ -- Begin function LL_RCC_SetAPB1Prescaler
	.type	LL_RCC_SetAPB1Prescaler,%function
	.code	16                              @ @LL_RCC_SetAPB1Prescaler
	.thumb_func
LL_RCC_SetAPB1Prescaler:
.Lfunc_begin27:
	.loc	9 3243 0 is_stmt 1              @ ../Library/STM32F4xx_HAL_Driver/Inc\stm32f4xx_ll_rcc.h:3243:0
	.fnstart
	.cfi_startproc
@ %bb.0:
	.pad	#4
	sub	sp, #4
	.cfi_def_cfa_offset 4
	str	r0, [sp]
	movw	r1, #14344
	movt	r1, #16386
.Ltmp170:
	.loc	9 3244 3 prologue_end           @ ../Library/STM32F4xx_HAL_Driver/Inc\stm32f4xx_ll_rcc.h:3244:3
	ldr	r0, [r1]
	bic	r0, r0, #7168
	ldr	r2, [sp]
	orrs	r0, r2
	str	r0, [r1]
	.loc	9 3245 1                        @ ../Library/STM32F4xx_HAL_Driver/Inc\stm32f4xx_ll_rcc.h:3245:1
	add	sp, #4
	bx	lr
.Ltmp171:
.Lfunc_end27:
	.size	LL_RCC_SetAPB1Prescaler, .Lfunc_end27-LL_RCC_SetAPB1Prescaler
	.cfi_endproc
	.cantunwind
	.fnend
                                        @ -- End function
	.section	.text.LL_RCC_SetAPB2Prescaler,"ax",%progbits
	.p2align	2                               @ -- Begin function LL_RCC_SetAPB2Prescaler
	.type	LL_RCC_SetAPB2Prescaler,%function
	.code	16                              @ @LL_RCC_SetAPB2Prescaler
	.thumb_func
LL_RCC_SetAPB2Prescaler:
.Lfunc_begin28:
	.loc	9 3259 0                        @ ../Library/STM32F4xx_HAL_Driver/Inc\stm32f4xx_ll_rcc.h:3259:0
	.fnstart
	.cfi_startproc
@ %bb.0:
	.pad	#4
	sub	sp, #4
	.cfi_def_cfa_offset 4
	str	r0, [sp]
	movw	r1, #14344
	movt	r1, #16386
.Ltmp172:
	.loc	9 3260 3 prologue_end           @ ../Library/STM32F4xx_HAL_Driver/Inc\stm32f4xx_ll_rcc.h:3260:3
	ldr	r0, [r1]
	bic	r0, r0, #57344
	ldr	r2, [sp]
	orrs	r0, r2
	str	r0, [r1]
	.loc	9 3261 1                        @ ../Library/STM32F4xx_HAL_Driver/Inc\stm32f4xx_ll_rcc.h:3261:1
	add	sp, #4
	bx	lr
.Ltmp173:
.Lfunc_end28:
	.size	LL_RCC_SetAPB2Prescaler, .Lfunc_end28-LL_RCC_SetAPB2Prescaler
	.cfi_endproc
	.cantunwind
	.fnend
                                        @ -- End function
	.section	".note.GNU-stack","",%progbits
	.eabi_attribute	30, 6	@ Tag_ABI_optimization_goals
	.ARM_attribute	16, 1	@ Tag_AV_eba