	.text
	.syntax unified
	.eabi_attribute	67, "2.09"	@ Tag_conformance
	.cpu	cortex-m4
	.eabi_attribute	6, 13	@ Tag_CPU_arch
	.eabi_attribute	7, 77	@ Tag_CPU_arch_profile
	.eabi_attribute	8, 0	@ Tag_ARM_ISA_use
	.eabi_attribute	9, 2	@ Tag_THUMB_ISA_use
	.fpu	fpv4-sp-d16
	.eabi_attribute	27, 1	@ Tag_ABI_HardFP_use
	.eabi_attribute	36, 1	@ Tag_FP_HP_extension
	.eabi_attribute	34, 1	@ Tag_CPU_unaligned_access
	.eabi_attribute	17, 1	@ Tag_ABI_PCS_GOT_use
	.eabi_attribute	20, 2	@ Tag_ABI_FP_denormal
	.eabi_attribute	21, 0	@ Tag_ABI_FP_exceptions
	.eabi_attribute	23, 1	@ Tag_ABI_FP_number_model
	.eabi_attribute	24, 1	@ Tag_ABI_align_needed
	.eabi_attribute	25, 1	@ Tag_ABI_align_preserved
	.eabi_attribute	28, 1	@ Tag_ABI_VFP_args
	.eabi_attribute	38, 1	@ Tag_ABI_FP_16bit_format
	.eabi_attribute	18, 2	@ Tag_ABI_PCS_wchar_t
	.eabi_attribute	26, 1	@ Tag_ABI_enum_size
	.eabi_attribute	14, 0	@ Tag_ABI_PCS_R9_use
	.file	"stm32f4xx_hal_iwdg.c"
	.file	1 "C:\\Users\\Hyacincher\\Desktop\\HyTelectrl\\Code\\Project" "../Library/STM32F4xx_HAL_Driver/Inc/stm32f4xx_hal_def.h"
	.section	.text.HAL_IWDG_Init,"ax",%progbits
	.hidden	HAL_IWDG_Init                   @ -- Begin function HAL_IWDG_Init
	.globl	HAL_IWDG_Init
	.p2align	2
	.type	HAL_IWDG_Init,%function
	.code	16                              @ @HAL_IWDG_Init
	.thumb_func
HAL_IWDG_Init:
.Lfunc_begin0:
	.file	2 "C:\\Users\\Hyacincher\\Desktop\\HyTelectrl\\Code\\Project" "../Library/STM32F4xx_HAL_Driver/Src/stm32f4xx_hal_iwdg.c"
	.loc	2 165 0                         @ ../Library/STM32F4xx_HAL_Driver/Src/stm32f4xx_hal_iwdg.c:165:0
	.fnstart
	.cfi_sections .debug_frame
	.cfi_startproc
@ %bb.0:
	.save	{r7, lr}
	push	{r7, lr}
	.cfi_def_cfa_offset 8
	.cfi_offset lr, -4
	.cfi_offset r7, -8
	.pad	#16
	sub	sp, #16
	.cfi_def_cfa_offset 24
	str	r0, [sp, #8]
.Ltmp0:
	.loc	2 169 7 prologue_end            @ ../Library/STM32F4xx_HAL_Driver/Src/stm32f4xx_hal_iwdg.c:169:7
	ldr	r0, [sp, #8]
.Ltmp1:
	.loc	2 169 7 is_stmt 0               @ ../Library/STM32F4xx_HAL_Driver/Src/stm32f4xx_hal_iwdg.c:169:7
	cbnz	r0, .LBB0_2
	b	.LBB0_1
.LBB0_1:
	.loc	2 0 7                           @ ../Library/STM32F4xx_HAL_Driver/Src/stm32f4xx_hal_iwdg.c:0:7
	movs	r0, #1
.Ltmp2:
	.loc	2 171 5 is_stmt 1               @ ../Library/STM32F4xx_HAL_Driver/Src/stm32f4xx_hal_iwdg.c:171:5
	strb.w	r0, [sp, #15]
	b	.LBB0_10
.Ltmp3:
.LBB0_2:
	.loc	2 180 3                         @ ../Library/STM32F4xx_HAL_Driver/Src/stm32f4xx_hal_iwdg.c:180:3
	ldr	r0, [sp, #8]
	ldr	r1, [r0]
	movw	r0, #52428
	str	r0, [r1]
	.loc	2 184 3                         @ ../Library/STM32F4xx_HAL_Driver/Src/stm32f4xx_hal_iwdg.c:184:3
	ldr	r0, [sp, #8]
	ldr	r1, [r0]
	movw	r0, #21845
	str	r0, [r1]
	.loc	2 187 25                        @ ../Library/STM32F4xx_HAL_Driver/Src/stm32f4xx_hal_iwdg.c:187:25
	ldr	r0, [sp, #8]
	.loc	2 187 10 is_stmt 0              @ ../Library/STM32F4xx_HAL_Driver/Src/stm32f4xx_hal_iwdg.c:187:10
	ldr	r1, [r0]
	.loc	2 187 37                        @ ../Library/STM32F4xx_HAL_Driver/Src/stm32f4xx_hal_iwdg.c:187:37
	ldr	r0, [r0, #4]
	.loc	2 187 23                        @ ../Library/STM32F4xx_HAL_Driver/Src/stm32f4xx_hal_iwdg.c:187:23
	str	r0, [r1, #4]
	.loc	2 188 26 is_stmt 1              @ ../Library/STM32F4xx_HAL_Driver/Src/stm32f4xx_hal_iwdg.c:188:26
	ldr	r0, [sp, #8]
	.loc	2 188 10 is_stmt 0              @ ../Library/STM32F4xx_HAL_Driver/Src/stm32f4xx_hal_iwdg.c:188:10
	ldr	r1, [r0]
	.loc	2 188 38                        @ ../Library/STM32F4xx_HAL_Driver/Src/stm32f4xx_hal_iwdg.c:188:38
	ldr	r0, [r0, #8]
	.loc	2 188 24                        @ ../Library/STM32F4xx_HAL_Driver/Src/stm32f4xx_hal_iwdg.c:188:24
	str	r0, [r1, #8]
	.loc	2 191 15 is_stmt 1              @ ../Library/STM32F4xx_HAL_Driver/Src/stm32f4xx_hal_iwdg.c:191:15
	bl	HAL_GetTick
	.loc	2 191 13 is_stmt 0              @ ../Library/STM32F4xx_HAL_Driver/Src/stm32f4xx_hal_iwdg.c:191:13
	str	r0, [sp, #4]
	.loc	2 194 3 is_stmt 1               @ ../Library/STM32F4xx_HAL_Driver/Src/stm32f4xx_hal_iwdg.c:194:3
	b	.LBB0_3
.LBB0_3:                                @ =>This Inner Loop Header: Depth=1
	.loc	2 194 11 is_stmt 0              @ ../Library/STM32F4xx_HAL_Driver/Src/stm32f4xx_hal_iwdg.c:194:11
	ldr	r0, [sp, #8]
	.loc	2 194 18                        @ ../Library/STM32F4xx_HAL_Driver/Src/stm32f4xx_hal_iwdg.c:194:18
	ldr	r0, [r0]
	.loc	2 194 28                        @ ../Library/STM32F4xx_HAL_Driver/Src/stm32f4xx_hal_iwdg.c:194:28
	ldr	r0, [r0, #12]
	.loc	2 194 3                         @ ../Library/STM32F4xx_HAL_Driver/Src/stm32f4xx_hal_iwdg.c:194:3
	lsls	r0, r0, #30
	cbz	r0, .LBB0_9
	b	.LBB0_4
.LBB0_4:                                @   in Loop: Header=BB0_3 Depth=1
.Ltmp4:
	.loc	2 196 10 is_stmt 1              @ ../Library/STM32F4xx_HAL_Driver/Src/stm32f4xx_hal_iwdg.c:196:10
	bl	HAL_GetTick
	.loc	2 196 26 is_stmt 0              @ ../Library/STM32F4xx_HAL_Driver/Src/stm32f4xx_hal_iwdg.c:196:26
	ldr	r1, [sp, #4]
	.loc	2 196 24                        @ ../Library/STM32F4xx_HAL_Driver/Src/stm32f4xx_hal_iwdg.c:196:24
	subs	r0, r0, r1
.Ltmp5:
	.loc	2 196 9                         @ ../Library/STM32F4xx_HAL_Driver/Src/stm32f4xx_hal_iwdg.c:196:9
	cmp	r0, #50
	blo	.LBB0_8
	b	.LBB0_5
.LBB0_5:                                @   in Loop: Header=BB0_3 Depth=1
.Ltmp6:
	.loc	2 198 12 is_stmt 1              @ ../Library/STM32F4xx_HAL_Driver/Src/stm32f4xx_hal_iwdg.c:198:12
	ldr	r0, [sp, #8]
	.loc	2 198 19 is_stmt 0              @ ../Library/STM32F4xx_HAL_Driver/Src/stm32f4xx_hal_iwdg.c:198:19
	ldr	r0, [r0]
	.loc	2 198 29                        @ ../Library/STM32F4xx_HAL_Driver/Src/stm32f4xx_hal_iwdg.c:198:29
	ldr	r0, [r0, #12]
.Ltmp7:
	.loc	2 198 11                        @ ../Library/STM32F4xx_HAL_Driver/Src/stm32f4xx_hal_iwdg.c:198:11
	lsls	r0, r0, #30
	cbz	r0, .LBB0_7
	b	.LBB0_6
.LBB0_6:
	.loc	2 0 11                          @ ../Library/STM32F4xx_HAL_Driver/Src/stm32f4xx_hal_iwdg.c:0:11
	movs	r0, #3
.Ltmp8:
	.loc	2 200 9 is_stmt 1               @ ../Library/STM32F4xx_HAL_Driver/Src/stm32f4xx_hal_iwdg.c:200:9
	strb.w	r0, [sp, #15]
	b	.LBB0_10
.Ltmp9:
.LBB0_7:                                @   in Loop: Header=BB0_3 Depth=1
	.loc	2 202 5                         @ ../Library/STM32F4xx_HAL_Driver/Src/stm32f4xx_hal_iwdg.c:202:5
	b	.LBB0_8
.Ltmp10:
.LBB0_8:                                @   in Loop: Header=BB0_3 Depth=1
	.loc	2 194 3                         @ ../Library/STM32F4xx_HAL_Driver/Src/stm32f4xx_hal_iwdg.c:194:3
	b	.LBB0_3
.LBB0_9:
	.loc	2 206 3                         @ ../Library/STM32F4xx_HAL_Driver/Src/stm32f4xx_hal_iwdg.c:206:3
	ldr	r0, [sp, #8]
	ldr	r1, [r0]
	movw	r0, #43690
	str	r0, [r1]
	movs	r0, #0
	.loc	2 209 3                         @ ../Library/STM32F4xx_HAL_Driver/Src/stm32f4xx_hal_iwdg.c:209:3
	strb.w	r0, [sp, #15]
	b	.LBB0_10
.LBB0_10:
	.loc	2 210 1                         @ ../Library/STM32F4xx_HAL_Driver/Src/stm32f4xx_hal_iwdg.c:210:1
	ldrb.w	r0, [sp, #15]
	add	sp, #16
	pop	{r7, pc}
.Ltmp11:
.Lfunc_end0:
	.size	HAL_IWDG_Init, .Lfunc_end0-HAL_IWDG_Init
	.cfi_endproc
	.cantunwind
	.fnend
                                        @ -- End function
	.section	.text.HAL_IWDG_Refresh,"ax",%progbits
	.hidden	HAL_IWDG_Refresh                @ -- Begin function HAL_IWDG_Refresh
	.globl	HAL_IWDG_Refresh
	.p2align	2
	.type	HAL_IWDG_Refresh,%function
	.code	16                              @ @HAL_IWDG_Refresh
	.thumb_func
HAL_IWDG_Refresh:
.Lfunc_begin1:
	.loc	2 239 0                         @ ../Library/STM32F4xx_HAL_Driver/Src/stm32f4xx_hal_iwdg.c:239:0
	.fnstart
	.cfi_startproc
@ %bb.0:
	.pad	#4
	sub	sp, #4
	.cfi_def_cfa_offset 4
	str	r0, [sp]
.Ltmp12:
	.loc	2 241 3 prologue_end            @ ../Library/STM32F4xx_HAL_Driver/Src/stm32f4xx_hal_iwdg.c:241:3
	ldr	r0, [sp]
	ldr	r1, [r0]
	movw	r0, #43690
	str	r0, [r1]
	movs	r0, #0
	.loc	2 244 3                         @ ../Library/STM32F4xx_HAL_Driver/Src/stm32f4xx_hal_iwdg.c:244:3
	add	sp, #4
	bx	lr
.Ltmp13:
.Lfunc_end1:
	.size	HAL_IWDG_Refresh, .Lfunc_end1-HAL_IWDG_Refresh
	.cfi_endproc
	.cantunwind
	.fnend
                                        @ -- End function
	.file	3 "D:\\Keil MDK\\ARM\\ARMCLANG\\Bin\\..\\include" "stdint.h"
	.file	4 "C:\\Users\\Hyacincher\\Desktop\\HyTelectrl\\Code\\Project" "../Library/CMSIS/stm32f429xx.h"
	.file	5 "C:\\Users\\Hyacincher\\Desktop\\HyTelectrl\\Code\\Project" "../Library/STM32F4xx_HAL_Driver/Inc\\stm32f4xx_hal_iwdg.h"
	.section	".note.GNU-stack","",%progbits
	.eabi_attribute	30, 6	@ Tag_ABI_optimization_goals
	.ARM_attribute	16, 1	@ Tag_AV_eba