	.text
	.syntax unified
	.eabi_attribute	67, "2.09"	@ Tag_conformance
	.cpu	cortex-m4
	.eabi_attribute	6, 13	@ Tag_CPU_arch
	.eabi_attribute	7, 77	@ Tag_CPU_arch_profile
	.eabi_attribute	8, 0	@ Tag_ARM_ISA_use
	.eabi_attribute	9, 2	@ Tag_THUMB_ISA_use
	.fpu	fpv4-sp-d16
	.eabi_attribute	27, 1	@ Tag_ABI_HardFP_use
	.eabi_attribute	36, 1	@ Tag_FP_HP_extension
	.eabi_attribute	34, 1	@ Tag_CPU_unaligned_access
	.eabi_attribute	17, 1	@ Tag_ABI_PCS_GOT_use
	.eabi_attribute	20, 2	@ Tag_ABI_FP_denormal
	.eabi_attribute	21, 0	@ Tag_ABI_FP_exceptions
	.eabi_attribute	23, 1	@ Tag_ABI_FP_number_model
	.eabi_attribute	24, 1	@ Tag_ABI_align_needed
	.eabi_attribute	25, 1	@ Tag_ABI_align_preserved
	.eabi_attribute	28, 1	@ Tag_ABI_VFP_args
	.eabi_attribute	38, 1	@ Tag_ABI_FP_16bit_format
	.eabi_attribute	18, 2	@ Tag_ABI_PCS_wchar_t
	.eabi_attribute	26, 1	@ Tag_ABI_enum_size
	.eabi_attribute	14, 0	@ Tag_ABI_PCS_R9_use
	.file	"stm32f4xx_ll_fmc.c"
	.file	1 "C:\\Users\\Hyacincher\\Desktop\\HyTelectrl\\Code\\Project" "../Library/STM32F4xx_HAL_Driver/Inc/stm32f4xx_hal_def.h"
	.file	2 "C:\\Users\\Hyacincher\\Desktop\\HyTelectrl\\Code\\Project" "../Library/CMSIS\\stm32f4xx.h"
	.file	3 "D:\\Keil MDK\\ARM\\ARMCLANG\\Bin\\..\\include" "stdint.h"
	.section	.text.FMC_NORSRAM_Init,"ax",%progbits
	.hidden	FMC_NORSRAM_Init                @ -- Begin function FMC_NORSRAM_Init
	.globl	FMC_NORSRAM_Init
	.p2align	2
	.type	FMC_NORSRAM_Init,%function
	.code	16                              @ @FMC_NORSRAM_Init
	.thumb_func
FMC_NORSRAM_Init:
.Lfunc_begin0:
	.file	4 "C:\\Users\\Hyacincher\\Desktop\\HyTelectrl\\Code\\Project" "../Library/STM32F4xx_HAL_Driver/Src/stm32f4xx_ll_fmc.c"
	.loc	4 134 0                         @ ../Library/STM32F4xx_HAL_Driver/Src/stm32f4xx_ll_fmc.c:134:0
	.fnstart
	.cfi_sections .debug_frame
	.cfi_startproc
@ %bb.0:
	.pad	#16
	sub	sp, #16
	.cfi_def_cfa_offset 16
	str	r0, [sp, #12]
	str	r1, [sp, #8]
	movs	r0, #0
.Ltmp0:
	.loc	4 135 12 prologue_end           @ ../Library/STM32F4xx_HAL_Driver/Src/stm32f4xx_ll_fmc.c:135:12
	str	r0, [sp, #4]
	.loc	4 161 10                        @ ../Library/STM32F4xx_HAL_Driver/Src/stm32f4xx_ll_fmc.c:161:10
	ldr	r0, [sp, #12]
	.loc	4 161 23 is_stmt 0              @ ../Library/STM32F4xx_HAL_Driver/Src/stm32f4xx_ll_fmc.c:161:23
	ldr	r1, [sp, #8]
	.loc	4 161 29                        @ ../Library/STM32F4xx_HAL_Driver/Src/stm32f4xx_ll_fmc.c:161:29
	ldr	r1, [r1]
	.loc	4 161 10                        @ ../Library/STM32F4xx_HAL_Driver/Src/stm32f4xx_ll_fmc.c:161:10
	ldr.w	r0, [r0, r1, lsl #2]
	.loc	4 161 8                         @ ../Library/STM32F4xx_HAL_Driver/Src/stm32f4xx_ll_fmc.c:161:8
	str	r0, [sp, #4]
	.loc	4 166 8 is_stmt 1               @ ../Library/STM32F4xx_HAL_Driver/Src/stm32f4xx_ll_fmc.c:166:8
	ldr	r0, [sp, #4]
	movs	r1, #128
	movt	r1, #65504
	ands	r0, r1
	str	r0, [sp, #4]
	.loc	4 174 22                        @ ../Library/STM32F4xx_HAL_Driver/Src/stm32f4xx_ll_fmc.c:174:22
	ldr	r1, [sp, #8]
	.loc	4 174 28 is_stmt 0              @ ../Library/STM32F4xx_HAL_Driver/Src/stm32f4xx_ll_fmc.c:174:28
	str	r1, [sp]                        @ 4-byte Spill
	ldr	r0, [r1, #4]
	.loc	4 175 27 is_stmt 1              @ ../Library/STM32F4xx_HAL_Driver/Src/stm32f4xx_ll_fmc.c:175:27
	ldr.w	r12, [r1, #8]
	.loc	4 176 27                        @ ../Library/STM32F4xx_HAL_Driver/Src/stm32f4xx_ll_fmc.c:176:27
	ldr	r3, [r1, #12]
	.loc	4 177 27                        @ ../Library/STM32F4xx_HAL_Driver/Src/stm32f4xx_ll_fmc.c:177:27
	ldr	r2, [r1, #16]
	.loc	4 174 49                        @ ../Library/STM32F4xx_HAL_Driver/Src/stm32f4xx_ll_fmc.c:174:49
	orr.w	r0, r0, r12
	.loc	4 175 48                        @ ../Library/STM32F4xx_HAL_Driver/Src/stm32f4xx_ll_fmc.c:175:48
	orrs	r0, r3
	.loc	4 176 48                        @ ../Library/STM32F4xx_HAL_Driver/Src/stm32f4xx_ll_fmc.c:176:48
	orrs	r0, r2
	.loc	4 178 27                        @ ../Library/STM32F4xx_HAL_Driver/Src/stm32f4xx_ll_fmc.c:178:27
	ldr	r2, [r1, #20]
	.loc	4 177 48                        @ ../Library/STM32F4xx_HAL_Driver/Src/stm32f4xx_ll_fmc.c:177:48
	orrs	r0, r2
	.loc	4 179 27                        @ ../Library/STM32F4xx_HAL_Driver/Src/stm32f4xx_ll_fmc.c:179:27
	ldr	r2, [r1, #24]
	.loc	4 178 48                        @ ../Library/STM32F4xx_HAL_Driver/Src/stm32f4xx_ll_fmc.c:178:48
	orrs	r0, r2
	.loc	4 180 27                        @ ../Library/STM32F4xx_HAL_Driver/Src/stm32f4xx_ll_fmc.c:180:27
	ldr	r2, [r1, #28]
	.loc	4 179 48                        @ ../Library/STM32F4xx_HAL_Driver/Src/stm32f4xx_ll_fmc.c:179:48
	orrs	r0, r2
	.loc	4 181 27                        @ ../Library/STM32F4xx_HAL_Driver/Src/stm32f4xx_ll_fmc.c:181:27
	ldr	r2, [r1, #32]
	.loc	4 180 48                        @ ../Library/STM32F4xx_HAL_Driver/Src/stm32f4xx_ll_fmc.c:180:48
	orrs	r0, r2
	.loc	4 182 27                        @ ../Library/STM32F4xx_HAL_Driver/Src/stm32f4xx_ll_fmc.c:182:27
	ldr	r2, [r1, #36]
	.loc	4 181 48                        @ ../Library/STM32F4xx_HAL_Driver/Src/stm32f4xx_ll_fmc.c:181:48
	orrs	r0, r2
	.loc	4 183 27                        @ ../Library/STM32F4xx_HAL_Driver/Src/stm32f4xx_ll_fmc.c:183:27
	ldr	r2, [r1, #40]
	.loc	4 182 48                        @ ../Library/STM32F4xx_HAL_Driver/Src/stm32f4xx_ll_fmc.c:182:48
	orrs	r0, r2
	.loc	4 184 27                        @ ../Library/STM32F4xx_HAL_Driver/Src/stm32f4xx_ll_fmc.c:184:27
	ldr	r2, [r1, #44]
	.loc	4 183 48                        @ ../Library/STM32F4xx_HAL_Driver/Src/stm32f4xx_ll_fmc.c:183:48
	orrs	r0, r2
	.loc	4 185 27                        @ ../Library/STM32F4xx_HAL_Driver/Src/stm32f4xx_ll_fmc.c:185:27
	ldr	r2, [r1, #60]
	.loc	4 184 48                        @ ../Library/STM32F4xx_HAL_Driver/Src/stm32f4xx_ll_fmc.c:184:48
	orrs	r0, r2
	.loc	4 186 27                        @ ../Library/STM32F4xx_HAL_Driver/Src/stm32f4xx_ll_fmc.c:186:27
	ldr	r2, [r1, #48]
	.loc	4 185 48                        @ ../Library/STM32F4xx_HAL_Driver/Src/stm32f4xx_ll_fmc.c:185:48
	orrs	r0, r2
	.loc	4 187 27                        @ ../Library/STM32F4xx_HAL_Driver/Src/stm32f4xx_ll_fmc.c:187:27
	ldr	r1, [r1, #52]
	.loc	4 186 48                        @ ../Library/STM32F4xx_HAL_Driver/Src/stm32f4xx_ll_fmc.c:186:48
	orrs	r1, r0
	.loc	4 174 8                         @ ../Library/STM32F4xx_HAL_Driver/Src/stm32f4xx_ll_fmc.c:174:8
	ldr	r0, [sp, #4]
	orrs	r0, r1
	str	r0, [sp, #4]
.Ltmp1:
	.loc	4 215 6                         @ ../Library/STM32F4xx_HAL_Driver/Src/stm32f4xx_ll_fmc.c:215:6
	ldr	r0, [sp, #8]
	.loc	4 215 12 is_stmt 0              @ ../Library/STM32F4xx_HAL_Driver/Src/stm32f4xx_ll_fmc.c:215:12
	ldr	r0, [r0, #8]
.Ltmp2:
	.loc	4 215 6                         @ ../Library/STM32F4xx_HAL_Driver/Src/stm32f4xx_ll_fmc.c:215:6
	cmp	r0, #8
	bne	.LBB0_2
	b	.LBB0_1
.LBB0_1:
.Ltmp3:
	.loc	4 217 10 is_stmt 1              @ ../Library/STM32F4xx_HAL_Driver/Src/stm32f4xx_ll_fmc.c:217:10
	ldr	r0, [sp, #4]
	orr	r0, r0, #64
	str	r0, [sp, #4]
	.loc	4 218 3                         @ ../Library/STM32F4xx_HAL_Driver/Src/stm32f4xx_ll_fmc.c:218:3
	b	.LBB0_2
.Ltmp4:
.LBB0_2:
	.loc	4 220 32                        @ ../Library/STM32F4xx_HAL_Driver/Src/stm32f4xx_ll_fmc.c:220:32
	ldr	r0, [sp, #4]
	.loc	4 220 3 is_stmt 0               @ ../Library/STM32F4xx_HAL_Driver/Src/stm32f4xx_ll_fmc.c:220:3
	ldr	r1, [sp, #12]
	.loc	4 220 16                        @ ../Library/STM32F4xx_HAL_Driver/Src/stm32f4xx_ll_fmc.c:220:16
	ldr	r2, [sp, #8]
	.loc	4 220 22                        @ ../Library/STM32F4xx_HAL_Driver/Src/stm32f4xx_ll_fmc.c:220:22
	ldr	r2, [r2]
	.loc	4 220 30                        @ ../Library/STM32F4xx_HAL_Driver/Src/stm32f4xx_ll_fmc.c:220:30
	str.w	r0, [r1, r2, lsl #2]
.Ltmp5:
	.loc	4 223 7 is_stmt 1               @ ../Library/STM32F4xx_HAL_Driver/Src/stm32f4xx_ll_fmc.c:223:7
	ldr	r0, [sp, #8]
	.loc	4 223 13 is_stmt 0              @ ../Library/STM32F4xx_HAL_Driver/Src/stm32f4xx_ll_fmc.c:223:13
	ldr	r0, [r0, #52]
	.loc	4 223 65                        @ ../Library/STM32F4xx_HAL_Driver/Src/stm32f4xx_ll_fmc.c:223:65
	cmp.w	r0, #1048576
	bne	.LBB0_5
	b	.LBB0_3
.LBB0_3:
	.loc	4 223 69                        @ ../Library/STM32F4xx_HAL_Driver/Src/stm32f4xx_ll_fmc.c:223:69
	ldr	r0, [sp, #8]
	.loc	4 223 75                        @ ../Library/STM32F4xx_HAL_Driver/Src/stm32f4xx_ll_fmc.c:223:75
	ldr	r0, [r0]
.Ltmp6:
	.loc	4 223 6                         @ ../Library/STM32F4xx_HAL_Driver/Src/stm32f4xx_ll_fmc.c:223:6
	cbz	r0, .LBB0_5
	b	.LBB0_4
.LBB0_4:
.Ltmp7:
	.loc	4 225 51 is_stmt 1              @ ../Library/STM32F4xx_HAL_Driver/Src/stm32f4xx_ll_fmc.c:225:51
	ldr	r0, [sp, #8]
	.loc	4 225 57 is_stmt 0              @ ../Library/STM32F4xx_HAL_Driver/Src/stm32f4xx_ll_fmc.c:225:57
	ldr	r2, [r0, #52]
	.loc	4 225 5                         @ ../Library/STM32F4xx_HAL_Driver/Src/stm32f4xx_ll_fmc.c:225:5
	ldr	r1, [sp, #12]
	.loc	4 225 37                        @ ../Library/STM32F4xx_HAL_Driver/Src/stm32f4xx_ll_fmc.c:225:37
	ldr	r0, [r1]
	orrs	r0, r2
	str	r0, [r1]
	.loc	4 226 3 is_stmt 1               @ ../Library/STM32F4xx_HAL_Driver/Src/stm32f4xx_ll_fmc.c:226:3
	b	.LBB0_5
.Ltmp8:
.LBB0_5:
	.loc	4 0 3 is_stmt 0                 @ ../Library/STM32F4xx_HAL_Driver/Src/stm32f4xx_ll_fmc.c:0:3
	movs	r0, #0
	.loc	4 235 3 is_stmt 1               @ ../Library/STM32F4xx_HAL_Driver/Src/stm32f4xx_ll_fmc.c:235:3
	add	sp, #16
	bx	lr
.Ltmp9:
.Lfunc_end0:
	.size	FMC_NORSRAM_Init, .Lfunc_end0-FMC_NORSRAM_Init
	.cfi_endproc
	.cantunwind
	.fnend
                                        @ -- End function
	.section	.text.FMC_NORSRAM_DeInit,"ax",%progbits
	.hidden	FMC_NORSRAM_DeInit              @ -- Begin function FMC_NORSRAM_DeInit
	.globl	FMC_NORSRAM_DeInit
	.p2align	2
	.type	FMC_NORSRAM_DeInit,%function
	.code	16                              @ @FMC_NORSRAM_DeInit
	.thumb_func
FMC_NORSRAM_DeInit:
.Lfunc_begin1:
	.loc	4 246 0                         @ ../Library/STM32F4xx_HAL_Driver/Src/stm32f4xx_ll_fmc.c:246:0
	.fnstart
	.cfi_startproc
@ %bb.0:
	.pad	#12
	sub	sp, #12
	.cfi_def_cfa_offset 12
	str	r0, [sp, #8]
	str	r1, [sp, #4]
	str	r2, [sp]
.Ltmp10:
	.loc	4 253 3 prologue_end            @ ../Library/STM32F4xx_HAL_Driver/Src/stm32f4xx_ll_fmc.c:253:3
	ldr	r1, [sp, #8]
	ldr	r2, [sp]
	ldr.w	r0, [r1, r2, lsl #2]
	bic	r0, r0, #1
	str.w	r0, [r1, r2, lsl #2]
.Ltmp11:
	.loc	4 257 6                         @ ../Library/STM32F4xx_HAL_Driver/Src/stm32f4xx_ll_fmc.c:257:6
	ldr	r0, [sp]
.Ltmp12:
	.loc	4 257 6 is_stmt 0               @ ../Library/STM32F4xx_HAL_Driver/Src/stm32f4xx_ll_fmc.c:257:6
	cbnz	r0, .LBB1_2
	b	.LBB1_1
.LBB1_1:
.Ltmp13:
	.loc	4 259 5 is_stmt 1               @ ../Library/STM32F4xx_HAL_Driver/Src/stm32f4xx_ll_fmc.c:259:5
	ldr	r1, [sp, #8]
	.loc	4 259 18 is_stmt 0              @ ../Library/STM32F4xx_HAL_Driver/Src/stm32f4xx_ll_fmc.c:259:18
	ldr	r2, [sp]
	movw	r0, #12507
	.loc	4 259 24                        @ ../Library/STM32F4xx_HAL_Driver/Src/stm32f4xx_ll_fmc.c:259:24
	str.w	r0, [r1, r2, lsl #2]
	.loc	4 260 3 is_stmt 1               @ ../Library/STM32F4xx_HAL_Driver/Src/stm32f4xx_ll_fmc.c:260:3
	b	.LBB1_3
.Ltmp14:
.LBB1_2:
	.loc	4 264 5                         @ ../Library/STM32F4xx_HAL_Driver/Src/stm32f4xx_ll_fmc.c:264:5
	ldr	r1, [sp, #8]
	.loc	4 264 18 is_stmt 0              @ ../Library/STM32F4xx_HAL_Driver/Src/stm32f4xx_ll_fmc.c:264:18
	ldr	r2, [sp]
	movw	r0, #12498
	.loc	4 264 24                        @ ../Library/STM32F4xx_HAL_Driver/Src/stm32f4xx_ll_fmc.c:264:24
	str.w	r0, [r1, r2, lsl #2]
	b	.LBB1_3
.Ltmp15:
.LBB1_3:
	.loc	4 267 3 is_stmt 1               @ ../Library/STM32F4xx_HAL_Driver/Src/stm32f4xx_ll_fmc.c:267:3
	ldr	r0, [sp, #8]
	.loc	4 267 16 is_stmt 0              @ ../Library/STM32F4xx_HAL_Driver/Src/stm32f4xx_ll_fmc.c:267:16
	ldr	r1, [sp]
	.loc	4 267 3                         @ ../Library/STM32F4xx_HAL_Driver/Src/stm32f4xx_ll_fmc.c:267:3
	add.w	r1, r0, r1, lsl #2
	mvn	r0, #-268435456
	.loc	4 267 27                        @ ../Library/STM32F4xx_HAL_Driver/Src/stm32f4xx_ll_fmc.c:267:27
	str	r0, [r1, #4]
	.loc	4 268 3 is_stmt 1               @ ../Library/STM32F4xx_HAL_Driver/Src/stm32f4xx_ll_fmc.c:268:3
	ldr	r1, [sp, #4]
	.loc	4 268 18 is_stmt 0              @ ../Library/STM32F4xx_HAL_Driver/Src/stm32f4xx_ll_fmc.c:268:18
	ldr	r2, [sp]
	.loc	4 268 27                        @ ../Library/STM32F4xx_HAL_Driver/Src/stm32f4xx_ll_fmc.c:268:27
	str.w	r0, [r1, r2, lsl #2]
	movs	r0, #0
	.loc	4 270 3 is_stmt 1               @ ../Library/STM32F4xx_HAL_Driver/Src/stm32f4xx_ll_fmc.c:270:3
	add	sp, #12
	bx	lr
.Ltmp16:
.Lfunc_end1:
	.size	FMC_NORSRAM_DeInit, .Lfunc_end1-FMC_NORSRAM_DeInit
	.cfi_endproc
	.cantunwind
	.fnend
                                        @ -- End function
	.section	.text.FMC_NORSRAM_Timing_Init,"ax",%progbits
	.hidden	FMC_NORSRAM_Timing_Init         @ -- Begin function FMC_NORSRAM_Timing_Init
	.globl	FMC_NORSRAM_Timing_Init
	.p2align	2
	.type	FMC_NORSRAM_Timing_Init,%function
	.code	16                              @ @FMC_NORSRAM_Timing_Init
	.thumb_func
FMC_NORSRAM_Timing_Init:
.Lfunc_begin2:
	.loc	4 282 0                         @ ../Library/STM32F4xx_HAL_Driver/Src/stm32f4xx_ll_fmc.c:282:0
	.fnstart
	.cfi_startproc
@ %bb.0:
	.pad	#16
	sub	sp, #16
	.cfi_def_cfa_offset 16
	str	r0, [sp, #12]
	str	r1, [sp, #8]
	str	r2, [sp, #4]
	movs	r0, #0
.Ltmp17:
	.loc	4 283 12 prologue_end           @ ../Library/STM32F4xx_HAL_Driver/Src/stm32f4xx_ll_fmc.c:283:12
	str	r0, [sp]
	.loc	4 297 10                        @ ../Library/STM32F4xx_HAL_Driver/Src/stm32f4xx_ll_fmc.c:297:10
	ldr	r0, [sp, #12]
	.loc	4 297 23 is_stmt 0              @ ../Library/STM32F4xx_HAL_Driver/Src/stm32f4xx_ll_fmc.c:297:23
	ldr	r1, [sp, #4]
	.loc	4 297 10                        @ ../Library/STM32F4xx_HAL_Driver/Src/stm32f4xx_ll_fmc.c:297:10
	add.w	r0, r0, r1, lsl #2
	ldr	r0, [r0, #4]
	.loc	4 297 8                         @ ../Library/STM32F4xx_HAL_Driver/Src/stm32f4xx_ll_fmc.c:297:8
	str	r0, [sp]
	.loc	4 300 8 is_stmt 1               @ ../Library/STM32F4xx_HAL_Driver/Src/stm32f4xx_ll_fmc.c:300:8
	ldr	r0, [sp]
	and	r0, r0, #-1073741824
	str	r0, [sp]
	.loc	4 305 22                        @ ../Library/STM32F4xx_HAL_Driver/Src/stm32f4xx_ll_fmc.c:305:22
	ldr	r1, [sp, #8]
	.loc	4 305 30 is_stmt 0              @ ../Library/STM32F4xx_HAL_Driver/Src/stm32f4xx_ll_fmc.c:305:30
	ldr	r0, [r1]
	.loc	4 306 31 is_stmt 1              @ ../Library/STM32F4xx_HAL_Driver/Src/stm32f4xx_ll_fmc.c:306:31
	ldr.w	r12, [r1, #4]
	.loc	4 307 31                        @ ../Library/STM32F4xx_HAL_Driver/Src/stm32f4xx_ll_fmc.c:307:31
	ldr	r3, [r1, #8]
	.loc	4 308 31                        @ ../Library/STM32F4xx_HAL_Driver/Src/stm32f4xx_ll_fmc.c:308:31
	ldr	r2, [r1, #12]
	.loc	4 305 65                        @ ../Library/STM32F4xx_HAL_Driver/Src/stm32f4xx_ll_fmc.c:305:65
	orr.w	r0, r0, r12, lsl #4
	.loc	4 306 65                        @ ../Library/STM32F4xx_HAL_Driver/Src/stm32f4xx_ll_fmc.c:306:65
	orr.w	r0, r0, r3, lsl #8
	.loc	4 307 65                        @ ../Library/STM32F4xx_HAL_Driver/Src/stm32f4xx_ll_fmc.c:307:65
	orr.w	r0, r0, r2, lsl #16
	.loc	4 309 32                        @ ../Library/STM32F4xx_HAL_Driver/Src/stm32f4xx_ll_fmc.c:309:32
	ldr	r3, [r1, #16]
	movs	r2, #0
	movt	r2, #65520
	.loc	4 309 51 is_stmt 0              @ ../Library/STM32F4xx_HAL_Driver/Src/stm32f4xx_ll_fmc.c:309:51
	add.w	r2, r2, r3, lsl #20
	.loc	4 308 65 is_stmt 1              @ ../Library/STM32F4xx_HAL_Driver/Src/stm32f4xx_ll_fmc.c:308:65
	orrs	r0, r2
	.loc	4 310 32                        @ ../Library/STM32F4xx_HAL_Driver/Src/stm32f4xx_ll_fmc.c:310:32
	ldr	r2, [r1, #20]
	.loc	4 310 51 is_stmt 0              @ ../Library/STM32F4xx_HAL_Driver/Src/stm32f4xx_ll_fmc.c:310:51
	adds	r2, #254
	.loc	4 309 67 is_stmt 1              @ ../Library/STM32F4xx_HAL_Driver/Src/stm32f4xx_ll_fmc.c:309:67
	orr.w	r0, r0, r2, lsl #24
	.loc	4 311 30                        @ ../Library/STM32F4xx_HAL_Driver/Src/stm32f4xx_ll_fmc.c:311:30
	ldr	r1, [r1, #24]
	.loc	4 310 67                        @ ../Library/STM32F4xx_HAL_Driver/Src/stm32f4xx_ll_fmc.c:310:67
	orrs	r1, r0
	.loc	4 305 8                         @ ../Library/STM32F4xx_HAL_Driver/Src/stm32f4xx_ll_fmc.c:305:8
	ldr	r0, [sp]
	orrs	r0, r1
	str	r0, [sp]
	.loc	4 313 29                        @ ../Library/STM32F4xx_HAL_Driver/Src/stm32f4xx_ll_fmc.c:313:29
	ldr	r0, [sp]
	.loc	4 313 3 is_stmt 0               @ ../Library/STM32F4xx_HAL_Driver/Src/stm32f4xx_ll_fmc.c:313:3
	ldr	r1, [sp, #12]
	.loc	4 313 16                        @ ../Library/STM32F4xx_HAL_Driver/Src/stm32f4xx_ll_fmc.c:313:16
	ldr	r2, [sp, #4]
	.loc	4 313 3                         @ ../Library/STM32F4xx_HAL_Driver/Src/stm32f4xx_ll_fmc.c:313:3
	add.w	r1, r1, r2, lsl #2
	.loc	4 313 27                        @ ../Library/STM32F4xx_HAL_Driver/Src/stm32f4xx_ll_fmc.c:313:27
	str	r0, [r1, #4]
.Ltmp18:
	.loc	4 316 6 is_stmt 1               @ ../Library/STM32F4xx_HAL_Driver/Src/stm32f4xx_ll_fmc.c:316:6
	ldr	r0, [sp, #12]
	ldr	r0, [r0]
.Ltmp19:
	.loc	4 316 6 is_stmt 0               @ ../Library/STM32F4xx_HAL_Driver/Src/stm32f4xx_ll_fmc.c:316:6
	lsls	r0, r0, #11
	cmp	r0, #0
	bpl	.LBB2_2
	b	.LBB2_1
.LBB2_1:
.Ltmp20:
	.loc	4 318 23 is_stmt 1              @ ../Library/STM32F4xx_HAL_Driver/Src/stm32f4xx_ll_fmc.c:318:23
	ldr	r0, [sp, #12]
	ldr	r0, [r0, #4]
	.loc	4 318 60 is_stmt 0              @ ../Library/STM32F4xx_HAL_Driver/Src/stm32f4xx_ll_fmc.c:318:60
	bic	r0, r0, #15728640
	.loc	4 318 10                        @ ../Library/STM32F4xx_HAL_Driver/Src/stm32f4xx_ll_fmc.c:318:10
	str	r0, [sp]
	.loc	4 319 26 is_stmt 1              @ ../Library/STM32F4xx_HAL_Driver/Src/stm32f4xx_ll_fmc.c:319:26
	ldr	r0, [sp, #8]
	.loc	4 319 34 is_stmt 0              @ ../Library/STM32F4xx_HAL_Driver/Src/stm32f4xx_ll_fmc.c:319:34
	ldr	r1, [r0, #16]
	movs	r0, #0
	movt	r0, #65520
	.loc	4 319 53                        @ ../Library/STM32F4xx_HAL_Driver/Src/stm32f4xx_ll_fmc.c:319:53
	add.w	r1, r0, r1, lsl #20
	.loc	4 319 10                        @ ../Library/STM32F4xx_HAL_Driver/Src/stm32f4xx_ll_fmc.c:319:10
	ldr	r0, [sp]
	orrs	r0, r1
	str	r0, [sp]
	.loc	4 320 44 is_stmt 1              @ ../Library/STM32F4xx_HAL_Driver/Src/stm32f4xx_ll_fmc.c:320:44
	ldr	r0, [sp]
	.loc	4 320 5 is_stmt 0               @ ../Library/STM32F4xx_HAL_Driver/Src/stm32f4xx_ll_fmc.c:320:5
	ldr	r1, [sp, #12]
	.loc	4 320 42                        @ ../Library/STM32F4xx_HAL_Driver/Src/stm32f4xx_ll_fmc.c:320:42
	str	r0, [r1, #4]
	.loc	4 321 3 is_stmt 1               @ ../Library/STM32F4xx_HAL_Driver/Src/stm32f4xx_ll_fmc.c:321:3
	b	.LBB2_2
.Ltmp21:
.LBB2_2:
	.loc	4 0 3 is_stmt 0                 @ ../Library/STM32F4xx_HAL_Driver/Src/stm32f4xx_ll_fmc.c:0:3
	movs	r0, #0
	.loc	4 323 3 is_stmt 1               @ ../Library/STM32F4xx_HAL_Driver/Src/stm32f4xx_ll_fmc.c:323:3
	add	sp, #16
	bx	lr
.Ltmp22:
.Lfunc_end2:
	.size	FMC_NORSRAM_Timing_Init, .Lfunc_end2-FMC_NORSRAM_Timing_Init
	.cfi_endproc
	.cantunwind
	.fnend
                                        @ -- End function
	.section	.text.FMC_NORSRAM_Extended_Timing_Init,"ax",%progbits
	.hidden	FMC_NORSRAM_Extended_Timing_Init @ -- Begin function FMC_NORSRAM_Extended_Timing_Init
	.globl	FMC_NORSRAM_Extended_Timing_Init
	.p2align	2
	.type	FMC_NORSRAM_Extended_Timing_Init,%function
	.code	16                              @ @FMC_NORSRAM_Extended_Timing_Init
	.thumb_func
FMC_NORSRAM_Extended_Timing_Init:
.Lfunc_begin3:
	.loc	4 335 0                         @ ../Library/STM32F4xx_HAL_Driver/Src/stm32f4xx_ll_fmc.c:335:0
	.fnstart
	.cfi_startproc
@ %bb.0:
	.pad	#20
	sub	sp, #20
	.cfi_def_cfa_offset 20
	str	r0, [sp, #16]
	str	r1, [sp, #12]
	str	r2, [sp, #8]
	str	r3, [sp, #4]
	movs	r0, #0
.Ltmp23:
	.loc	4 336 12 prologue_end           @ ../Library/STM32F4xx_HAL_Driver/Src/stm32f4xx_ll_fmc.c:336:12
	str	r0, [sp]
.Ltmp24:
	.loc	4 342 6                         @ ../Library/STM32F4xx_HAL_Driver/Src/stm32f4xx_ll_fmc.c:342:6
	ldr	r0, [sp, #4]
.Ltmp25:
	.loc	4 342 6 is_stmt 0               @ ../Library/STM32F4xx_HAL_Driver/Src/stm32f4xx_ll_fmc.c:342:6
	cmp.w	r0, #16384
	bne	.LBB3_2
	b	.LBB3_1
.LBB3_1:
.Ltmp26:
	.loc	4 354 12 is_stmt 1              @ ../Library/STM32F4xx_HAL_Driver/Src/stm32f4xx_ll_fmc.c:354:12
	ldr	r0, [sp, #16]
	.loc	4 354 25 is_stmt 0              @ ../Library/STM32F4xx_HAL_Driver/Src/stm32f4xx_ll_fmc.c:354:25
	ldr	r1, [sp, #8]
	.loc	4 354 12                        @ ../Library/STM32F4xx_HAL_Driver/Src/stm32f4xx_ll_fmc.c:354:12
	ldr.w	r0, [r0, r1, lsl #2]
	.loc	4 354 10                        @ ../Library/STM32F4xx_HAL_Driver/Src/stm32f4xx_ll_fmc.c:354:10
	str	r0, [sp]
	.loc	4 357 10 is_stmt 1              @ ../Library/STM32F4xx_HAL_Driver/Src/stm32f4xx_ll_fmc.c:357:10
	ldr	r0, [sp]
	movs	r1, #0
	movt	r1, #53232
	ands	r0, r1
	str	r0, [sp]
	.loc	4 360 24                        @ ../Library/STM32F4xx_HAL_Driver/Src/stm32f4xx_ll_fmc.c:360:24
	ldr	r1, [sp, #12]
	.loc	4 360 32 is_stmt 0              @ ../Library/STM32F4xx_HAL_Driver/Src/stm32f4xx_ll_fmc.c:360:32
	ldr	r0, [r1]
	.loc	4 361 33 is_stmt 1              @ ../Library/STM32F4xx_HAL_Driver/Src/stm32f4xx_ll_fmc.c:361:33
	ldr.w	r12, [r1, #4]
	.loc	4 362 33                        @ ../Library/STM32F4xx_HAL_Driver/Src/stm32f4xx_ll_fmc.c:362:33
	ldr	r3, [r1, #8]
	.loc	4 363 33                        @ ../Library/STM32F4xx_HAL_Driver/Src/stm32f4xx_ll_fmc.c:363:33
	ldr	r2, [r1, #12]
	.loc	4 360 66                        @ ../Library/STM32F4xx_HAL_Driver/Src/stm32f4xx_ll_fmc.c:360:66
	orr.w	r0, r0, r12, lsl #4
	.loc	4 361 66                        @ ../Library/STM32F4xx_HAL_Driver/Src/stm32f4xx_ll_fmc.c:361:66
	orr.w	r0, r0, r3, lsl #8
	.loc	4 362 66                        @ ../Library/STM32F4xx_HAL_Driver/Src/stm32f4xx_ll_fmc.c:362:66
	orr.w	r0, r0, r2, lsl #16
	.loc	4 364 32                        @ ../Library/STM32F4xx_HAL_Driver/Src/stm32f4xx_ll_fmc.c:364:32
	ldr	r1, [r1, #24]
	.loc	4 363 66                        @ ../Library/STM32F4xx_HAL_Driver/Src/stm32f4xx_ll_fmc.c:363:66
	orrs	r1, r0
	.loc	4 360 10                        @ ../Library/STM32F4xx_HAL_Driver/Src/stm32f4xx_ll_fmc.c:360:10
	ldr	r0, [sp]
	orrs	r0, r1
	str	r0, [sp]
	.loc	4 366 26                        @ ../Library/STM32F4xx_HAL_Driver/Src/stm32f4xx_ll_fmc.c:366:26
	ldr	r0, [sp]
	.loc	4 366 5 is_stmt 0               @ ../Library/STM32F4xx_HAL_Driver/Src/stm32f4xx_ll_fmc.c:366:5
	ldr	r1, [sp, #16]
	.loc	4 366 18                        @ ../Library/STM32F4xx_HAL_Driver/Src/stm32f4xx_ll_fmc.c:366:18
	ldr	r2, [sp, #8]
	.loc	4 366 24                        @ ../Library/STM32F4xx_HAL_Driver/Src/stm32f4xx_ll_fmc.c:366:24
	str.w	r0, [r1, r2, lsl #2]
	.loc	4 367 3 is_stmt 1               @ ../Library/STM32F4xx_HAL_Driver/Src/stm32f4xx_ll_fmc.c:367:3
	b	.LBB3_3
.Ltmp27:
.LBB3_2:
	.loc	4 370 5                         @ ../Library/STM32F4xx_HAL_Driver/Src/stm32f4xx_ll_fmc.c:370:5
	ldr	r1, [sp, #16]
	.loc	4 370 18 is_stmt 0              @ ../Library/STM32F4xx_HAL_Driver/Src/stm32f4xx_ll_fmc.c:370:18
	ldr	r2, [sp, #8]
	mvn	r0, #-268435456
	.loc	4 370 24                        @ ../Library/STM32F4xx_HAL_Driver/Src/stm32f4xx_ll_fmc.c:370:24
	str.w	r0, [r1, r2, lsl #2]
	b	.LBB3_3
.Ltmp28:
.LBB3_3:
	.loc	4 0 24                          @ ../Library/STM32F4xx_HAL_Driver/Src/stm32f4xx_ll_fmc.c:0:24
	movs	r0, #0
	.loc	4 373 3 is_stmt 1               @ ../Library/STM32F4xx_HAL_Driver/Src/stm32f4xx_ll_fmc.c:373:3
	add	sp, #20
	bx	lr
.Ltmp29:
.Lfunc_end3:
	.size	FMC_NORSRAM_Extended_Timing_Init, .Lfunc_end3-FMC_NORSRAM_Extended_Timing_Init
	.cfi_endproc
	.cantunwind
	.fnend
                                        @ -- End function
	.section	.text.FMC_NORSRAM_WriteOperation_Enable,"ax",%progbits
	.hidden	FMC_NORSRAM_WriteOperation_Enable @ -- Begin function FMC_NORSRAM_WriteOperation_Enable
	.globl	FMC_NORSRAM_WriteOperation_Enable
	.p2align	2
	.type	FMC_NORSRAM_WriteOperation_Enable,%function
	.code	16                              @ @FMC_NORSRAM_WriteOperation_Enable
	.thumb_func
FMC_NORSRAM_WriteOperation_Enable:
.Lfunc_begin4:
	.loc	4 400 0                         @ ../Library/STM32F4xx_HAL_Driver/Src/stm32f4xx_ll_fmc.c:400:0
	.fnstart
	.cfi_startproc
@ %bb.0:
	.pad	#8
	sub	sp, #8
	.cfi_def_cfa_offset 8
	str	r0, [sp, #4]
	str	r1, [sp]
.Ltmp30:
	.loc	4 406 3 prologue_end            @ ../Library/STM32F4xx_HAL_Driver/Src/stm32f4xx_ll_fmc.c:406:3
	ldr	r1, [sp, #4]
	.loc	4 406 16 is_stmt 0              @ ../Library/STM32F4xx_HAL_Driver/Src/stm32f4xx_ll_fmc.c:406:16
	ldr	r2, [sp]
	.loc	4 406 22                        @ ../Library/STM32F4xx_HAL_Driver/Src/stm32f4xx_ll_fmc.c:406:22
	ldr.w	r0, [r1, r2, lsl #2]
	orr	r0, r0, #4096
	str.w	r0, [r1, r2, lsl #2]
	movs	r0, #0
	.loc	4 408 3 is_stmt 1               @ ../Library/STM32F4xx_HAL_Driver/Src/stm32f4xx_ll_fmc.c:408:3
	add	sp, #8
	bx	lr
.Ltmp31:
.Lfunc_end4:
	.size	FMC_NORSRAM_WriteOperation_Enable, .Lfunc_end4-FMC_NORSRAM_WriteOperation_Enable
	.cfi_endproc
	.cantunwind
	.fnend
                                        @ -- End function
	.section	.text.FMC_NORSRAM_WriteOperation_Disable,"ax",%progbits
	.hidden	FMC_NORSRAM_WriteOperation_Disable @ -- Begin function FMC_NORSRAM_WriteOperation_Disable
	.globl	FMC_NORSRAM_WriteOperation_Disable
	.p2align	2
	.type	FMC_NORSRAM_WriteOperation_Disable,%function
	.code	16                              @ @FMC_NORSRAM_WriteOperation_Disable
	.thumb_func
FMC_NORSRAM_WriteOperation_Disable:
.Lfunc_begin5:
	.loc	4 418 0                         @ ../Library/STM32F4xx_HAL_Driver/Src/stm32f4xx_ll_fmc.c:418:0
	.fnstart
	.cfi_startproc
@ %bb.0:
	.pad	#8
	sub	sp, #8
	.cfi_def_cfa_offset 8
	str	r0, [sp, #4]
	str	r1, [sp]
.Ltmp32:
	.loc	4 424 3 prologue_end            @ ../Library/STM32F4xx_HAL_Driver/Src/stm32f4xx_ll_fmc.c:424:3
	ldr	r1, [sp, #4]
	.loc	4 424 16 is_stmt 0              @ ../Library/STM32F4xx_HAL_Driver/Src/stm32f4xx_ll_fmc.c:424:16
	ldr	r2, [sp]
	.loc	4 424 22                        @ ../Library/STM32F4xx_HAL_Driver/Src/stm32f4xx_ll_fmc.c:424:22
	ldr.w	r0, [r1, r2, lsl #2]
	bic	r0, r0, #4096
	str.w	r0, [r1, r2, lsl #2]
	movs	r0, #0
	.loc	4 426 3 is_stmt 1               @ ../Library/STM32F4xx_HAL_Driver/Src/stm32f4xx_ll_fmc.c:426:3
	add	sp, #8
	bx	lr
.Ltmp33:
.Lfunc_end5:
	.size	FMC_NORSRAM_WriteOperation_Disable, .Lfunc_end5-FMC_NORSRAM_WriteOperation_Disable
	.cfi_endproc
	.cantunwind
	.fnend
                                        @ -- End function
	.section	.text.FMC_NAND_Init,"ax",%progbits
	.hidden	FMC_NAND_Init                   @ -- Begin function FMC_NAND_Init
	.globl	FMC_NAND_Init
	.p2align	2
	.type	FMC_NAND_Init,%function
	.code	16                              @ @FMC_NAND_Init
	.thumb_func
FMC_NAND_Init:
.Lfunc_begin6:
	.loc	4 755 0                         @ ../Library/STM32F4xx_HAL_Driver/Src/stm32f4xx_ll_fmc.c:755:0
	.fnstart
	.cfi_startproc
@ %bb.0:
	.pad	#12
	sub	sp, #12
	.cfi_def_cfa_offset 12
	str	r0, [sp, #8]
	str	r1, [sp, #4]
	movs	r0, #0
.Ltmp34:
	.loc	4 756 12 prologue_end           @ ../Library/STM32F4xx_HAL_Driver/Src/stm32f4xx_ll_fmc.c:756:12
	str	r0, [sp]
.Ltmp35:
	.loc	4 768 6                         @ ../Library/STM32F4xx_HAL_Driver/Src/stm32f4xx_ll_fmc.c:768:6
	ldr	r0, [sp, #4]
	.loc	4 768 12 is_stmt 0              @ ../Library/STM32F4xx_HAL_Driver/Src/stm32f4xx_ll_fmc.c:768:12
	ldr	r0, [r0]
.Ltmp36:
	.loc	4 768 6                         @ ../Library/STM32F4xx_HAL_Driver/Src/stm32f4xx_ll_fmc.c:768:6
	cmp	r0, #16
	bne	.LBB6_2
	b	.LBB6_1
.LBB6_1:
.Ltmp37:
	.loc	4 771 12 is_stmt 1              @ ../Library/STM32F4xx_HAL_Driver/Src/stm32f4xx_ll_fmc.c:771:12
	ldr	r0, [sp, #8]
	.loc	4 771 20 is_stmt 0              @ ../Library/STM32F4xx_HAL_Driver/Src/stm32f4xx_ll_fmc.c:771:20
	ldr	r0, [r0]
	.loc	4 771 10                        @ ../Library/STM32F4xx_HAL_Driver/Src/stm32f4xx_ll_fmc.c:771:10
	str	r0, [sp]
	.loc	4 772 3 is_stmt 1               @ ../Library/STM32F4xx_HAL_Driver/Src/stm32f4xx_ll_fmc.c:772:3
	b	.LBB6_3
.Ltmp38:
.LBB6_2:
	.loc	4 776 12                        @ ../Library/STM32F4xx_HAL_Driver/Src/stm32f4xx_ll_fmc.c:776:12
	ldr	r0, [sp, #8]
	.loc	4 776 20 is_stmt 0              @ ../Library/STM32F4xx_HAL_Driver/Src/stm32f4xx_ll_fmc.c:776:20
	ldr	r0, [r0, #32]
	.loc	4 776 10                        @ ../Library/STM32F4xx_HAL_Driver/Src/stm32f4xx_ll_fmc.c:776:10
	str	r0, [sp]
	b	.LBB6_3
.Ltmp39:
.LBB6_3:
	.loc	4 780 8 is_stmt 1               @ ../Library/STM32F4xx_HAL_Driver/Src/stm32f4xx_ll_fmc.c:780:8
	ldr	r0, [sp]
	movw	r1, #385
	movt	r1, #65520
	ands	r0, r1
	str	r0, [sp]
	.loc	4 785 22                        @ ../Library/STM32F4xx_HAL_Driver/Src/stm32f4xx_ll_fmc.c:785:22
	ldr	r1, [sp, #4]
	.loc	4 785 28 is_stmt 0              @ ../Library/STM32F4xx_HAL_Driver/Src/stm32f4xx_ll_fmc.c:785:28
	ldr	r0, [r1, #4]
	.loc	4 787 28 is_stmt 1              @ ../Library/STM32F4xx_HAL_Driver/Src/stm32f4xx_ll_fmc.c:787:28
	ldr.w	r12, [r1, #8]
	.loc	4 788 28                        @ ../Library/STM32F4xx_HAL_Driver/Src/stm32f4xx_ll_fmc.c:788:28
	ldr	r3, [r1, #12]
	.loc	4 789 28                        @ ../Library/STM32F4xx_HAL_Driver/Src/stm32f4xx_ll_fmc.c:789:28
	ldr	r2, [r1, #16]
	.loc	4 785 56                        @ ../Library/STM32F4xx_HAL_Driver/Src/stm32f4xx_ll_fmc.c:785:56
	orr.w	r0, r0, r12
	.loc	4 786 56                        @ ../Library/STM32F4xx_HAL_Driver/Src/stm32f4xx_ll_fmc.c:786:56
	orrs	r0, r3
	.loc	4 787 56                        @ ../Library/STM32F4xx_HAL_Driver/Src/stm32f4xx_ll_fmc.c:787:56
	orrs	r0, r2
	.loc	4 790 30                        @ ../Library/STM32F4xx_HAL_Driver/Src/stm32f4xx_ll_fmc.c:790:30
	ldr	r2, [r1, #20]
	.loc	4 788 56                        @ ../Library/STM32F4xx_HAL_Driver/Src/stm32f4xx_ll_fmc.c:788:56
	orr.w	r0, r0, r2, lsl #9
	.loc	4 791 30                        @ ../Library/STM32F4xx_HAL_Driver/Src/stm32f4xx_ll_fmc.c:791:30
	ldr	r1, [r1, #24]
	.loc	4 789 56                        @ ../Library/STM32F4xx_HAL_Driver/Src/stm32f4xx_ll_fmc.c:789:56
	orr.w	r0, r0, r1, lsl #13
	.loc	4 785 8                         @ ../Library/STM32F4xx_HAL_Driver/Src/stm32f4xx_ll_fmc.c:785:8
	ldr	r1, [sp]
	.loc	4 790 56                        @ ../Library/STM32F4xx_HAL_Driver/Src/stm32f4xx_ll_fmc.c:790:56
	orrs	r0, r1
	.loc	4 785 8                         @ ../Library/STM32F4xx_HAL_Driver/Src/stm32f4xx_ll_fmc.c:785:8
	orr	r0, r0, #8
	str	r0, [sp]
.Ltmp40:
	.loc	4 793 6                         @ ../Library/STM32F4xx_HAL_Driver/Src/stm32f4xx_ll_fmc.c:793:6
	ldr	r0, [sp, #4]
	.loc	4 793 12 is_stmt 0              @ ../Library/STM32F4xx_HAL_Driver/Src/stm32f4xx_ll_fmc.c:793:12
	ldr	r0, [r0]
.Ltmp41:
	.loc	4 793 6                         @ ../Library/STM32F4xx_HAL_Driver/Src/stm32f4xx_ll_fmc.c:793:6
	cmp	r0, #16
	bne	.LBB6_5
	b	.LBB6_4
.LBB6_4:
.Ltmp42:
	.loc	4 796 21 is_stmt 1              @ ../Library/STM32F4xx_HAL_Driver/Src/stm32f4xx_ll_fmc.c:796:21
	ldr	r0, [sp]
	.loc	4 796 5 is_stmt 0               @ ../Library/STM32F4xx_HAL_Driver/Src/stm32f4xx_ll_fmc.c:796:5
	ldr	r1, [sp, #8]
	.loc	4 796 19                        @ ../Library/STM32F4xx_HAL_Driver/Src/stm32f4xx_ll_fmc.c:796:19
	str	r0, [r1]
	.loc	4 797 3 is_stmt 1               @ ../Library/STM32F4xx_HAL_Driver/Src/stm32f4xx_ll_fmc.c:797:3
	b	.LBB6_6
.Ltmp43:
.LBB6_5:
	.loc	4 801 21                        @ ../Library/STM32F4xx_HAL_Driver/Src/stm32f4xx_ll_fmc.c:801:21
	ldr	r0, [sp]
	.loc	4 801 5 is_stmt 0               @ ../Library/STM32F4xx_HAL_Driver/Src/stm32f4xx_ll_fmc.c:801:5
	ldr	r1, [sp, #8]
	.loc	4 801 19                        @ ../Library/STM32F4xx_HAL_Driver/Src/stm32f4xx_ll_fmc.c:801:19
	str	r0, [r1, #32]
	b	.LBB6_6
.Ltmp44:
.LBB6_6:
	.loc	4 0 19                          @ ../Library/STM32F4xx_HAL_Driver/Src/stm32f4xx_ll_fmc.c:0:19
	movs	r0, #0
	.loc	4 804 3 is_stmt 1               @ ../Library/STM32F4xx_HAL_Driver/Src/stm32f4xx_ll_fmc.c:804:3
	add	sp, #12
	bx	lr
.Ltmp45:
.Lfunc_end6:
	.size	FMC_NAND_Init, .Lfunc_end6-FMC_NAND_Init
	.cfi_endproc
	.cantunwind
	.fnend
                                        @ -- End function
	.section	.text.FMC_NAND_CommonSpace_Timing_Init,"ax",%progbits
	.hidden	FMC_NAND_CommonSpace_Timing_Init @ -- Begin function FMC_NAND_CommonSpace_Timing_Init
	.globl	FMC_NAND_CommonSpace_Timing_Init
	.p2align	2
	.type	FMC_NAND_CommonSpace_Timing_Init,%function
	.code	16                              @ @FMC_NAND_CommonSpace_Timing_Init
	.thumb_func
FMC_NAND_CommonSpace_Timing_Init:
.Lfunc_begin7:
	.loc	4 817 0                         @ ../Library/STM32F4xx_HAL_Driver/Src/stm32f4xx_ll_fmc.c:817:0
	.fnstart
	.cfi_startproc
@ %bb.0:
	.pad	#16
	sub	sp, #16
	.cfi_def_cfa_offset 16
	str	r0, [sp, #12]
	str	r1, [sp, #8]
	str	r2, [sp, #4]
	movs	r0, #0
.Ltmp46:
	.loc	4 818 12 prologue_end           @ ../Library/STM32F4xx_HAL_Driver/Src/stm32f4xx_ll_fmc.c:818:12
	str	r0, [sp]
.Ltmp47:
	.loc	4 828 6                         @ ../Library/STM32F4xx_HAL_Driver/Src/stm32f4xx_ll_fmc.c:828:6
	ldr	r0, [sp, #4]
.Ltmp48:
	.loc	4 828 6 is_stmt 0               @ ../Library/STM32F4xx_HAL_Driver/Src/stm32f4xx_ll_fmc.c:828:6
	cmp	r0, #16
	bne	.LBB7_2
	b	.LBB7_1
.LBB7_1:
.Ltmp49:
	.loc	4 831 12 is_stmt 1              @ ../Library/STM32F4xx_HAL_Driver/Src/stm32f4xx_ll_fmc.c:831:12
	ldr	r0, [sp, #12]
	.loc	4 831 20 is_stmt 0              @ ../Library/STM32F4xx_HAL_Driver/Src/stm32f4xx_ll_fmc.c:831:20
	ldr	r0, [r0, #8]
	.loc	4 831 10                        @ ../Library/STM32F4xx_HAL_Driver/Src/stm32f4xx_ll_fmc.c:831:10
	str	r0, [sp]
	.loc	4 832 3 is_stmt 1               @ ../Library/STM32F4xx_HAL_Driver/Src/stm32f4xx_ll_fmc.c:832:3
	b	.LBB7_3
.Ltmp50:
.LBB7_2:
	.loc	4 836 12                        @ ../Library/STM32F4xx_HAL_Driver/Src/stm32f4xx_ll_fmc.c:836:12
	ldr	r0, [sp, #12]
	.loc	4 836 20 is_stmt 0              @ ../Library/STM32F4xx_HAL_Driver/Src/stm32f4xx_ll_fmc.c:836:20
	ldr	r0, [r0, #40]
	.loc	4 836 10                        @ ../Library/STM32F4xx_HAL_Driver/Src/stm32f4xx_ll_fmc.c:836:10
	str	r0, [sp]
	b	.LBB7_3
.Ltmp51:
.LBB7_3:
	.loc	4 0 10                          @ ../Library/STM32F4xx_HAL_Driver/Src/stm32f4xx_ll_fmc.c:0:10
	movs	r0, #0
	.loc	4 840 8 is_stmt 1               @ ../Library/STM32F4xx_HAL_Driver/Src/stm32f4xx_ll_fmc.c:840:8
	str	r0, [sp]
	.loc	4 844 22                        @ ../Library/STM32F4xx_HAL_Driver/Src/stm32f4xx_ll_fmc.c:844:22
	ldr	r1, [sp, #8]
	.loc	4 844 30 is_stmt 0              @ ../Library/STM32F4xx_HAL_Driver/Src/stm32f4xx_ll_fmc.c:844:30
	ldr	r0, [r1]
	.loc	4 845 34 is_stmt 1              @ ../Library/STM32F4xx_HAL_Driver/Src/stm32f4xx_ll_fmc.c:845:34
	ldr	r3, [r1, #4]
	.loc	4 846 34                        @ ../Library/STM32F4xx_HAL_Driver/Src/stm32f4xx_ll_fmc.c:846:34
	ldr	r2, [r1, #8]
	.loc	4 847 34                        @ ../Library/STM32F4xx_HAL_Driver/Src/stm32f4xx_ll_fmc.c:847:34
	ldr	r1, [r1, #12]
	.loc	4 844 60                        @ ../Library/STM32F4xx_HAL_Driver/Src/stm32f4xx_ll_fmc.c:844:60
	orr.w	r0, r0, r3, lsl #8
	.loc	4 845 60                        @ ../Library/STM32F4xx_HAL_Driver/Src/stm32f4xx_ll_fmc.c:845:60
	orr.w	r0, r0, r2, lsl #16
	.loc	4 846 60                        @ ../Library/STM32F4xx_HAL_Driver/Src/stm32f4xx_ll_fmc.c:846:60
	orr.w	r1, r0, r1, lsl #24
	.loc	4 844 8                         @ ../Library/STM32F4xx_HAL_Driver/Src/stm32f4xx_ll_fmc.c:844:8
	ldr	r0, [sp]
	orrs	r0, r1
	str	r0, [sp]
.Ltmp52:
	.loc	4 850 6                         @ ../Library/STM32F4xx_HAL_Driver/Src/stm32f4xx_ll_fmc.c:850:6
	ldr	r0, [sp, #4]
.Ltmp53:
	.loc	4 850 6 is_stmt 0               @ ../Library/STM32F4xx_HAL_Driver/Src/stm32f4xx_ll_fmc.c:850:6
	cmp	r0, #16
	bne	.LBB7_5
	b	.LBB7_4
.LBB7_4:
.Ltmp54:
	.loc	4 853 21 is_stmt 1              @ ../Library/STM32F4xx_HAL_Driver/Src/stm32f4xx_ll_fmc.c:853:21
	ldr	r0, [sp]
	.loc	4 853 5 is_stmt 0               @ ../Library/STM32F4xx_HAL_Driver/Src/stm32f4xx_ll_fmc.c:853:5
	ldr	r1, [sp, #12]
	.loc	4 853 19                        @ ../Library/STM32F4xx_HAL_Driver/Src/stm32f4xx_ll_fmc.c:853:19
	str	r0, [r1, #8]
	.loc	4 854 3 is_stmt 1               @ ../Library/STM32F4xx_HAL_Driver/Src/stm32f4xx_ll_fmc.c:854:3
	b	.LBB7_6
.Ltmp55:
.LBB7_5:
	.loc	4 858 21                        @ ../Library/STM32F4xx_HAL_Driver/Src/stm32f4xx_ll_fmc.c:858:21
	ldr	r0, [sp]
	.loc	4 858 5 is_stmt 0               @ ../Library/STM32F4xx_HAL_Driver/Src/stm32f4xx_ll_fmc.c:858:5
	ldr	r1, [sp, #12]
	.loc	4 858 19                        @ ../Library/STM32F4xx_HAL_Driver/Src/stm32f4xx_ll_fmc.c:858:19
	str	r0, [r1, #40]
	b	.LBB7_6
.Ltmp56:
.LBB7_6:
	.loc	4 0 19                          @ ../Library/STM32F4xx_HAL_Driver/Src/stm32f4xx_ll_fmc.c:0:19
	movs	r0, #0
	.loc	4 861 3 is_stmt 1               @ ../Library/STM32F4xx_HAL_Driver/Src/stm32f4xx_ll_fmc.c:861:3
	add	sp, #16
	bx	lr
.Ltmp57:
.Lfunc_end7:
	.size	FMC_NAND_CommonSpace_Timing_Init, .Lfunc_end7-FMC_NAND_CommonSpace_Timing_Init
	.cfi_endproc
	.cantunwind
	.fnend
                                        @ -- End function
	.section	.text.FMC_NAND_AttributeSpace_Timing_Init,"ax",%progbits
	.hidden	FMC_NAND_AttributeSpace_Timing_Init @ -- Begin function FMC_NAND_AttributeSpace_Timing_Init
	.globl	FMC_NAND_AttributeSpace_Timing_Init
	.p2align	2
	.type	FMC_NAND_AttributeSpace_Timing_Init,%function
	.code	16                              @ @FMC_NAND_AttributeSpace_Timing_Init
	.thumb_func
FMC_NAND_AttributeSpace_Timing_Init:
.Lfunc_begin8:
	.loc	4 873 0                         @ ../Library/STM32F4xx_HAL_Driver/Src/stm32f4xx_ll_fmc.c:873:0
	.fnstart
	.cfi_startproc
@ %bb.0:
	.pad	#16
	sub	sp, #16
	.cfi_def_cfa_offset 16
	str	r0, [sp, #12]
	str	r1, [sp, #8]
	str	r2, [sp, #4]
	movs	r0, #0
.Ltmp58:
	.loc	4 874 12 prologue_end           @ ../Library/STM32F4xx_HAL_Driver/Src/stm32f4xx_ll_fmc.c:874:12
	str	r0, [sp]
.Ltmp59:
	.loc	4 884 6                         @ ../Library/STM32F4xx_HAL_Driver/Src/stm32f4xx_ll_fmc.c:884:6
	ldr	r0, [sp, #4]
.Ltmp60:
	.loc	4 884 6 is_stmt 0               @ ../Library/STM32F4xx_HAL_Driver/Src/stm32f4xx_ll_fmc.c:884:6
	cmp	r0, #16
	bne	.LBB8_2
	b	.LBB8_1
.LBB8_1:
.Ltmp61:
	.loc	4 887 12 is_stmt 1              @ ../Library/STM32F4xx_HAL_Driver/Src/stm32f4xx_ll_fmc.c:887:12
	ldr	r0, [sp, #12]
	.loc	4 887 20 is_stmt 0              @ ../Library/STM32F4xx_HAL_Driver/Src/stm32f4xx_ll_fmc.c:887:20
	ldr	r0, [r0, #12]
	.loc	4 887 10                        @ ../Library/STM32F4xx_HAL_Driver/Src/stm32f4xx_ll_fmc.c:887:10
	str	r0, [sp]
	.loc	4 888 3 is_stmt 1               @ ../Library/STM32F4xx_HAL_Driver/Src/stm32f4xx_ll_fmc.c:888:3
	b	.LBB8_3
.Ltmp62:
.LBB8_2:
	.loc	4 892 12                        @ ../Library/STM32F4xx_HAL_Driver/Src/stm32f4xx_ll_fmc.c:892:12
	ldr	r0, [sp, #12]
	.loc	4 892 20 is_stmt 0              @ ../Library/STM32F4xx_HAL_Driver/Src/stm32f4xx_ll_fmc.c:892:20
	ldr	r0, [r0, #44]
	.loc	4 892 10                        @ ../Library/STM32F4xx_HAL_Driver/Src/stm32f4xx_ll_fmc.c:892:10
	str	r0, [sp]
	b	.LBB8_3
.Ltmp63:
.LBB8_3:
	.loc	4 0 10                          @ ../Library/STM32F4xx_HAL_Driver/Src/stm32f4xx_ll_fmc.c:0:10
	movs	r0, #0
	.loc	4 896 8 is_stmt 1               @ ../Library/STM32F4xx_HAL_Driver/Src/stm32f4xx_ll_fmc.c:896:8
	str	r0, [sp]
	.loc	4 900 22                        @ ../Library/STM32F4xx_HAL_Driver/Src/stm32f4xx_ll_fmc.c:900:22
	ldr	r1, [sp, #8]
	.loc	4 900 30 is_stmt 0              @ ../Library/STM32F4xx_HAL_Driver/Src/stm32f4xx_ll_fmc.c:900:30
	ldr	r0, [r1]
	.loc	4 901 30 is_stmt 1              @ ../Library/STM32F4xx_HAL_Driver/Src/stm32f4xx_ll_fmc.c:901:30
	ldr	r3, [r1, #4]
	.loc	4 902 30                        @ ../Library/STM32F4xx_HAL_Driver/Src/stm32f4xx_ll_fmc.c:902:30
	ldr	r2, [r1, #8]
	.loc	4 903 30                        @ ../Library/STM32F4xx_HAL_Driver/Src/stm32f4xx_ll_fmc.c:903:30
	ldr	r1, [r1, #12]
	.loc	4 900 57                        @ ../Library/STM32F4xx_HAL_Driver/Src/stm32f4xx_ll_fmc.c:900:57
	orr.w	r0, r0, r3, lsl #8
	.loc	4 901 57                        @ ../Library/STM32F4xx_HAL_Driver/Src/stm32f4xx_ll_fmc.c:901:57
	orr.w	r0, r0, r2, lsl #16
	.loc	4 902 57                        @ ../Library/STM32F4xx_HAL_Driver/Src/stm32f4xx_ll_fmc.c:902:57
	orr.w	r1, r0, r1, lsl #24
	.loc	4 900 8                         @ ../Library/STM32F4xx_HAL_Driver/Src/stm32f4xx_ll_fmc.c:900:8
	ldr	r0, [sp]
	orrs	r0, r1
	str	r0, [sp]
.Ltmp64:
	.loc	4 905 6                         @ ../Library/STM32F4xx_HAL_Driver/Src/stm32f4xx_ll_fmc.c:905:6
	ldr	r0, [sp, #4]
.Ltmp65:
	.loc	4 905 6 is_stmt 0               @ ../Library/STM32F4xx_HAL_Driver/Src/stm32f4xx_ll_fmc.c:905:6
	cmp	r0, #16
	bne	.LBB8_5
	b	.LBB8_4
.LBB8_4:
.Ltmp66:
	.loc	4 908 21 is_stmt 1              @ ../Library/STM32F4xx_HAL_Driver/Src/stm32f4xx_ll_fmc.c:908:21
	ldr	r0, [sp]
	.loc	4 908 5 is_stmt 0               @ ../Library/STM32F4xx_HAL_Driver/Src/stm32f4xx_ll_fmc.c:908:5
	ldr	r1, [sp, #12]
	.loc	4 908 19                        @ ../Library/STM32F4xx_HAL_Driver/Src/stm32f4xx_ll_fmc.c:908:19
	str	r0, [r1, #12]
	.loc	4 909 3 is_stmt 1               @ ../Library/STM32F4xx_HAL_Driver/Src/stm32f4xx_ll_fmc.c:909:3
	b	.LBB8_6
.Ltmp67:
.LBB8_5:
	.loc	4 913 21                        @ ../Library/STM32F4xx_HAL_Driver/Src/stm32f4xx_ll_fmc.c:913:21
	ldr	r0, [sp]
	.loc	4 913 5 is_stmt 0               @ ../Library/STM32F4xx_HAL_Driver/Src/stm32f4xx_ll_fmc.c:913:5
	ldr	r1, [sp, #12]
	.loc	4 913 19                        @ ../Library/STM32F4xx_HAL_Driver/Src/stm32f4xx_ll_fmc.c:913:19
	str	r0, [r1, #44]
	b	.LBB8_6
.Ltmp68:
.LBB8_6:
	.loc	4 0 19                          @ ../Library/STM32F4xx_HAL_Driver/Src/stm32f4xx_ll_fmc.c:0:19
	movs	r0, #0
	.loc	4 916 3 is_stmt 1               @ ../Library/STM32F4xx_HAL_Driver/Src/stm32f4xx_ll_fmc.c:916:3
	add	sp, #16
	bx	lr
.Ltmp69:
.Lfunc_end8:
	.size	FMC_NAND_AttributeSpace_Timing_Init, .Lfunc_end8-FMC_NAND_AttributeSpace_Timing_Init
	.cfi_endproc
	.cantunwind
	.fnend
                                        @ -- End function
	.section	.text.FMC_NAND_DeInit,"ax",%progbits
	.hidden	FMC_NAND_DeInit                 @ -- Begin function FMC_NAND_DeInit
	.globl	FMC_NAND_DeInit
	.p2align	2
	.type	FMC_NAND_DeInit,%function
	.code	16                              @ @FMC_NAND_DeInit
	.thumb_func
FMC_NAND_DeInit:
.Lfunc_begin9:
	.loc	4 926 0                         @ ../Library/STM32F4xx_HAL_Driver/Src/stm32f4xx_ll_fmc.c:926:0
	.fnstart
	.cfi_startproc
@ %bb.0:
	.pad	#8
	sub	sp, #8
	.cfi_def_cfa_offset 8
	str	r0, [sp, #4]
	str	r1, [sp]
.Ltmp70:
	.loc	4 932 3 prologue_end            @ ../Library/STM32F4xx_HAL_Driver/Src/stm32f4xx_ll_fmc.c:932:3
	ldr	r0, [sp]
	cmp	r0, #16
	bne	.LBB9_2
	b	.LBB9_1
.LBB9_1:
	ldr	r1, [sp, #4]
	ldr	r0, [r1]
	bic	r0, r0, #4
                                        @ kill: def $r2 killed $r0
	str	r0, [r1]
	b	.LBB9_3
.LBB9_2:
	ldr	r1, [sp, #4]
	ldr	r0, [r1, #32]
	bic	r0, r0, #4
                                        @ kill: def $r2 killed $r0
	str	r0, [r1, #32]
	b	.LBB9_3
.LBB9_3:
.Ltmp71:
	.loc	4 935 6                         @ ../Library/STM32F4xx_HAL_Driver/Src/stm32f4xx_ll_fmc.c:935:6
	ldr	r0, [sp]
.Ltmp72:
	.loc	4 935 6 is_stmt 0               @ ../Library/STM32F4xx_HAL_Driver/Src/stm32f4xx_ll_fmc.c:935:6
	cmp	r0, #16
	bne	.LBB9_5
	b	.LBB9_4
.LBB9_4:
.Ltmp73:
	.loc	4 938 5 is_stmt 1               @ ../Library/STM32F4xx_HAL_Driver/Src/stm32f4xx_ll_fmc.c:938:5
	ldr	r1, [sp, #4]
	movs	r0, #24
	.loc	4 938 19 is_stmt 0              @ ../Library/STM32F4xx_HAL_Driver/Src/stm32f4xx_ll_fmc.c:938:19
	str	r0, [r1]
	.loc	4 939 5 is_stmt 1               @ ../Library/STM32F4xx_HAL_Driver/Src/stm32f4xx_ll_fmc.c:939:5
	ldr	r1, [sp, #4]
	movs	r0, #64
	.loc	4 939 19 is_stmt 0              @ ../Library/STM32F4xx_HAL_Driver/Src/stm32f4xx_ll_fmc.c:939:19
	str	r0, [r1, #4]
	.loc	4 940 5 is_stmt 1               @ ../Library/STM32F4xx_HAL_Driver/Src/stm32f4xx_ll_fmc.c:940:5
	ldr	r1, [sp, #4]
	mov.w	r0, #-50529028
	.loc	4 940 19 is_stmt 0              @ ../Library/STM32F4xx_HAL_Driver/Src/stm32f4xx_ll_fmc.c:940:19
	str	r0, [r1, #8]
	.loc	4 941 5 is_stmt 1               @ ../Library/STM32F4xx_HAL_Driver/Src/stm32f4xx_ll_fmc.c:941:5
	ldr	r1, [sp, #4]
	.loc	4 941 19 is_stmt 0              @ ../Library/STM32F4xx_HAL_Driver/Src/stm32f4xx_ll_fmc.c:941:19
	str	r0, [r1, #12]
	.loc	4 942 3 is_stmt 1               @ ../Library/STM32F4xx_HAL_Driver/Src/stm32f4xx_ll_fmc.c:942:3
	b	.LBB9_6
.Ltmp74:
.LBB9_5:
	.loc	4 947 5                         @ ../Library/STM32F4xx_HAL_Driver/Src/stm32f4xx_ll_fmc.c:947:5
	ldr	r1, [sp, #4]
	movs	r0, #24
	.loc	4 947 19 is_stmt 0              @ ../Library/STM32F4xx_HAL_Driver/Src/stm32f4xx_ll_fmc.c:947:19
	str	r0, [r1, #32]
	.loc	4 948 5 is_stmt 1               @ ../Library/STM32F4xx_HAL_Driver/Src/stm32f4xx_ll_fmc.c:948:5
	ldr	r1, [sp, #4]
	movs	r0, #64
	.loc	4 948 19 is_stmt 0              @ ../Library/STM32F4xx_HAL_Driver/Src/stm32f4xx_ll_fmc.c:948:19
	str	r0, [r1, #36]
	.loc	4 949 5 is_stmt 1               @ ../Library/STM32F4xx_HAL_Driver/Src/stm32f4xx_ll_fmc.c:949:5
	ldr	r1, [sp, #4]
	mov.w	r0, #-50529028
	.loc	4 949 19 is_stmt 0              @ ../Library/STM32F4xx_HAL_Driver/Src/stm32f4xx_ll_fmc.c:949:19
	str	r0, [r1, #40]
	.loc	4 950 5 is_stmt 1               @ ../Library/STM32F4xx_HAL_Driver/Src/stm32f4xx_ll_fmc.c:950:5
	ldr	r1, [sp, #4]
	.loc	4 950 19 is_stmt 0              @ ../Library/STM32F4xx_HAL_Driver/Src/stm32f4xx_ll_fmc.c:950:19
	str	r0, [r1, #44]
	b	.LBB9_6
.Ltmp75:
.LBB9_6:
	.loc	4 0 19                          @ ../Library/STM32F4xx_HAL_Driver/Src/stm32f4xx_ll_fmc.c:0:19
	movs	r0, #0
	.loc	4 953 3 is_stmt 1               @ ../Library/STM32F4xx_HAL_Driver/Src/stm32f4xx_ll_fmc.c:953:3
	add	sp, #8
	bx	lr
.Ltmp76:
.Lfunc_end9:
	.size	FMC_NAND_DeInit, .Lfunc_end9-FMC_NAND_DeInit
	.cfi_endproc
	.cantunwind
	.fnend
                                        @ -- End function
	.section	.text.FMC_NAND_ECC_Enable,"ax",%progbits
	.hidden	FMC_NAND_ECC_Enable             @ -- Begin function FMC_NAND_ECC_Enable
	.globl	FMC_NAND_ECC_Enable
	.p2align	2
	.type	FMC_NAND_ECC_Enable,%function
	.code	16                              @ @FMC_NAND_ECC_Enable
	.thumb_func
FMC_NAND_ECC_Enable:
.Lfunc_begin10:
	.loc	4 981 0                         @ ../Library/STM32F4xx_HAL_Driver/Src/stm32f4xx_ll_fmc.c:981:0
	.fnstart
	.cfi_startproc
@ %bb.0:
	.pad	#8
	sub	sp, #8
	.cfi_def_cfa_offset 8
	str	r0, [sp, #4]
	str	r1, [sp]
.Ltmp77:
	.loc	4 987 6 prologue_end            @ ../Library/STM32F4xx_HAL_Driver/Src/stm32f4xx_ll_fmc.c:987:6
	ldr	r0, [sp]
.Ltmp78:
	.loc	4 987 6 is_stmt 0               @ ../Library/STM32F4xx_HAL_Driver/Src/stm32f4xx_ll_fmc.c:987:6
	cmp	r0, #16
	bne	.LBB10_2
	b	.LBB10_1
.LBB10_1:
.Ltmp79:
	.loc	4 989 5 is_stmt 1               @ ../Library/STM32F4xx_HAL_Driver/Src/stm32f4xx_ll_fmc.c:989:5
	ldr	r1, [sp, #4]
	.loc	4 989 18 is_stmt 0              @ ../Library/STM32F4xx_HAL_Driver/Src/stm32f4xx_ll_fmc.c:989:18
	ldr	r0, [r1]
	orr	r0, r0, #64
	str	r0, [r1]
	.loc	4 990 3 is_stmt 1               @ ../Library/STM32F4xx_HAL_Driver/Src/stm32f4xx_ll_fmc.c:990:3
	b	.LBB10_3
.Ltmp80:
.LBB10_2:
	.loc	4 993 5                         @ ../Library/STM32F4xx_HAL_Driver/Src/stm32f4xx_ll_fmc.c:993:5
	ldr	r1, [sp, #4]
	.loc	4 993 18 is_stmt 0              @ ../Library/STM32F4xx_HAL_Driver/Src/stm32f4xx_ll_fmc.c:993:18
	ldr	r0, [r1, #32]
	orr	r0, r0, #64
	str	r0, [r1, #32]
	b	.LBB10_3
.Ltmp81:
.LBB10_3:
	.loc	4 0 18                          @ ../Library/STM32F4xx_HAL_Driver/Src/stm32f4xx_ll_fmc.c:0:18
	movs	r0, #0
	.loc	4 996 3 is_stmt 1               @ ../Library/STM32F4xx_HAL_Driver/Src/stm32f4xx_ll_fmc.c:996:3
	add	sp, #8
	bx	lr
.Ltmp82:
.Lfunc_end10:
	.size	FMC_NAND_ECC_Enable, .Lfunc_end10-FMC_NAND_ECC_Enable
	.cfi_endproc
	.cantunwind
	.fnend
                                        @ -- End function
	.section	.text.FMC_NAND_ECC_Disable,"ax",%progbits
	.hidden	FMC_NAND_ECC_Disable            @ -- Begin function FMC_NAND_ECC_Disable
	.globl	FMC_NAND_ECC_Disable
	.p2align	2
	.type	FMC_NAND_ECC_Disable,%function
	.code	16                              @ @FMC_NAND_ECC_Disable
	.thumb_func
FMC_NAND_ECC_Disable:
.Lfunc_begin11:
	.loc	4 1006 0                        @ ../Library/STM32F4xx_HAL_Driver/Src/stm32f4xx_ll_fmc.c:1006:0
	.fnstart
	.cfi_startproc
@ %bb.0:
	.pad	#8
	sub	sp, #8
	.cfi_def_cfa_offset 8
	str	r0, [sp, #4]
	str	r1, [sp]
.Ltmp83:
	.loc	4 1012 6 prologue_end           @ ../Library/STM32F4xx_HAL_Driver/Src/stm32f4xx_ll_fmc.c:1012:6
	ldr	r0, [sp]
.Ltmp84:
	.loc	4 1012 6 is_stmt 0              @ ../Library/STM32F4xx_HAL_Driver/Src/stm32f4xx_ll_fmc.c:1012:6
	cmp	r0, #16
	bne	.LBB11_2
	b	.LBB11_1
.LBB11_1:
.Ltmp85:
	.loc	4 1014 5 is_stmt 1              @ ../Library/STM32F4xx_HAL_Driver/Src/stm32f4xx_ll_fmc.c:1014:5
	ldr	r1, [sp, #4]
	.loc	4 1014 18 is_stmt 0             @ ../Library/STM32F4xx_HAL_Driver/Src/stm32f4xx_ll_fmc.c:1014:18
	ldr	r0, [r1]
	bic	r0, r0, #64
	str	r0, [r1]
	.loc	4 1015 3 is_stmt 1              @ ../Library/STM32F4xx_HAL_Driver/Src/stm32f4xx_ll_fmc.c:1015:3
	b	.LBB11_3
.Ltmp86:
.LBB11_2:
	.loc	4 1018 5                        @ ../Library/STM32F4xx_HAL_Driver/Src/stm32f4xx_ll_fmc.c:1018:5
	ldr	r1, [sp, #4]
	.loc	4 1018 18 is_stmt 0             @ ../Library/STM32F4xx_HAL_Driver/Src/stm32f4xx_ll_fmc.c:1018:18
	ldr	r0, [r1, #32]
	bic	r0, r0, #64
	str	r0, [r1, #32]
	b	.LBB11_3
.Ltmp87:
.LBB11_3:
	.loc	4 0 18                          @ ../Library/STM32F4xx_HAL_Driver/Src/stm32f4xx_ll_fmc.c:0:18
	movs	r0, #0
	.loc	4 1021 3 is_stmt 1              @ ../Library/STM32F4xx_HAL_Driver/Src/stm32f4xx_ll_fmc.c:1021:3
	add	sp, #8
	bx	lr
.Ltmp88:
.Lfunc_end11:
	.size	FMC_NAND_ECC_Disable, .Lfunc_end11-FMC_NAND_ECC_Disable
	.cfi_endproc
	.cantunwind
	.fnend
                                        @ -- End function
	.section	.text.FMC_NAND_GetECC,"ax",%progbits
	.hidden	FMC_NAND_GetECC                 @ -- Begin function FMC_NAND_GetECC
	.globl	FMC_NAND_GetECC
	.p2align	2
	.type	FMC_NAND_GetECC,%function
	.code	16                              @ @FMC_NAND_GetECC
	.thumb_func
FMC_NAND_GetECC:
.Lfunc_begin12:
	.loc	4 1033 0                        @ ../Library/STM32F4xx_HAL_Driver/Src/stm32f4xx_ll_fmc.c:1033:0
	.fnstart
	.cfi_startproc
@ %bb.0:
	.save	{r7, lr}
	push	{r7, lr}
	.cfi_def_cfa_offset 8
	.cfi_offset lr, -4
	.cfi_offset r7, -8
	.pad	#32
	sub	sp, #32
	.cfi_def_cfa_offset 40
	str	r0, [sp, #24]
	str	r1, [sp, #20]
	str	r2, [sp, #16]
	str	r3, [sp, #12]
	movs	r0, #0
.Ltmp89:
	.loc	4 1034 12 prologue_end          @ ../Library/STM32F4xx_HAL_Driver/Src/stm32f4xx_ll_fmc.c:1034:12
	str	r0, [sp, #8]
	.loc	4 1041 15                       @ ../Library/STM32F4xx_HAL_Driver/Src/stm32f4xx_ll_fmc.c:1041:15
	bl	HAL_GetTick
	.loc	4 1041 13 is_stmt 0             @ ../Library/STM32F4xx_HAL_Driver/Src/stm32f4xx_ll_fmc.c:1041:13
	str	r0, [sp, #8]
	.loc	4 1044 3 is_stmt 1              @ ../Library/STM32F4xx_HAL_Driver/Src/stm32f4xx_ll_fmc.c:1044:3
	b	.LBB12_1
.LBB12_1:                               @ =>This Inner Loop Header: Depth=1
	.loc	4 1044 9 is_stmt 0              @ ../Library/STM32F4xx_HAL_Driver/Src/stm32f4xx_ll_fmc.c:1044:9
	ldr	r0, [sp, #16]
	cmp	r0, #16
	bne	.LBB12_3
	b	.LBB12_2
.LBB12_2:                               @   in Loop: Header=BB12_1 Depth=1
	ldr	r0, [sp, #24]
	ldr	r0, [r0, #4]
	ubfx	r0, r0, #6, #1
	str	r0, [sp, #4]                    @ 4-byte Spill
	b	.LBB12_4
.LBB12_3:                               @   in Loop: Header=BB12_1 Depth=1
	ldr	r0, [sp, #24]
	ldr	r0, [r0, #36]
	ubfx	r0, r0, #6, #1
	str	r0, [sp, #4]                    @ 4-byte Spill
	b	.LBB12_4
.LBB12_4:                               @   in Loop: Header=BB12_1 Depth=1
	ldr	r0, [sp, #4]                    @ 4-byte Reload
	.loc	4 1044 3                        @ ../Library/STM32F4xx_HAL_Driver/Src/stm32f4xx_ll_fmc.c:1044:3
	cbnz	r0, .LBB12_11
	b	.LBB12_5
.LBB12_5:                               @   in Loop: Header=BB12_1 Depth=1
.Ltmp90:
	.loc	4 1047 8 is_stmt 1              @ ../Library/STM32F4xx_HAL_Driver/Src/stm32f4xx_ll_fmc.c:1047:8
	ldr	r0, [sp, #12]
.Ltmp91:
	.loc	4 1047 8 is_stmt 0              @ ../Library/STM32F4xx_HAL_Driver/Src/stm32f4xx_ll_fmc.c:1047:8
	adds	r0, #1
	cbz	r0, .LBB12_10
	b	.LBB12_6
.LBB12_6:                               @   in Loop: Header=BB12_1 Depth=1
.Ltmp92:
	.loc	4 1049 11 is_stmt 1             @ ../Library/STM32F4xx_HAL_Driver/Src/stm32f4xx_ll_fmc.c:1049:11
	ldr	r0, [sp, #12]
	.loc	4 1049 25 is_stmt 0             @ ../Library/STM32F4xx_HAL_Driver/Src/stm32f4xx_ll_fmc.c:1049:25
	cbz	r0, .LBB12_8
	b	.LBB12_7
.LBB12_7:                               @   in Loop: Header=BB12_1 Depth=1
	.loc	4 1049 29                       @ ../Library/STM32F4xx_HAL_Driver/Src/stm32f4xx_ll_fmc.c:1049:29
	bl	HAL_GetTick
	.loc	4 1049 45                       @ ../Library/STM32F4xx_HAL_Driver/Src/stm32f4xx_ll_fmc.c:1049:45
	ldr	r1, [sp, #8]
	.loc	4 1049 43                       @ ../Library/STM32F4xx_HAL_Driver/Src/stm32f4xx_ll_fmc.c:1049:43
	subs	r0, r0, r1
	.loc	4 1049 59                       @ ../Library/STM32F4xx_HAL_Driver/Src/stm32f4xx_ll_fmc.c:1049:59
	ldr	r1, [sp, #12]
.Ltmp93:
	.loc	4 1049 10                       @ ../Library/STM32F4xx_HAL_Driver/Src/stm32f4xx_ll_fmc.c:1049:10
	cmp	r0, r1
	bls	.LBB12_9
	b	.LBB12_8
.LBB12_8:
	.loc	4 0 10                          @ ../Library/STM32F4xx_HAL_Driver/Src/stm32f4xx_ll_fmc.c:0:10
	movs	r0, #3
.Ltmp94:
	.loc	4 1051 9 is_stmt 1              @ ../Library/STM32F4xx_HAL_Driver/Src/stm32f4xx_ll_fmc.c:1051:9
	strb.w	r0, [sp, #31]
	b	.LBB12_15
.Ltmp95:
.LBB12_9:                               @   in Loop: Header=BB12_1 Depth=1
	.loc	4 1053 5                        @ ../Library/STM32F4xx_HAL_Driver/Src/stm32f4xx_ll_fmc.c:1053:5
	b	.LBB12_10
.Ltmp96:
.LBB12_10:                              @   in Loop: Header=BB12_1 Depth=1
	.loc	4 1044 3                        @ ../Library/STM32F4xx_HAL_Driver/Src/stm32f4xx_ll_fmc.c:1044:3
	b	.LBB12_1
.LBB12_11:
.Ltmp97:
	.loc	4 1056 6                        @ ../Library/STM32F4xx_HAL_Driver/Src/stm32f4xx_ll_fmc.c:1056:6
	ldr	r0, [sp, #16]
.Ltmp98:
	.loc	4 1056 6 is_stmt 0              @ ../Library/STM32F4xx_HAL_Driver/Src/stm32f4xx_ll_fmc.c:1056:6
	cmp	r0, #16
	bne	.LBB12_13
	b	.LBB12_12
.LBB12_12:
.Ltmp99:
	.loc	4 1059 25 is_stmt 1             @ ../Library/STM32F4xx_HAL_Driver/Src/stm32f4xx_ll_fmc.c:1059:25
	ldr	r0, [sp, #24]
	.loc	4 1059 33 is_stmt 0             @ ../Library/STM32F4xx_HAL_Driver/Src/stm32f4xx_ll_fmc.c:1059:33
	ldr	r0, [r0, #20]
	.loc	4 1059 6                        @ ../Library/STM32F4xx_HAL_Driver/Src/stm32f4xx_ll_fmc.c:1059:6
	ldr	r1, [sp, #20]
	.loc	4 1059 13                       @ ../Library/STM32F4xx_HAL_Driver/Src/stm32f4xx_ll_fmc.c:1059:13
	str	r0, [r1]
	.loc	4 1060 3 is_stmt 1              @ ../Library/STM32F4xx_HAL_Driver/Src/stm32f4xx_ll_fmc.c:1060:3
	b	.LBB12_14
.Ltmp100:
.LBB12_13:
	.loc	4 1064 25                       @ ../Library/STM32F4xx_HAL_Driver/Src/stm32f4xx_ll_fmc.c:1064:25
	ldr	r0, [sp, #24]
	.loc	4 1064 33 is_stmt 0             @ ../Library/STM32F4xx_HAL_Driver/Src/stm32f4xx_ll_fmc.c:1064:33
	ldr	r0, [r0, #52]
	.loc	4 1064 6                        @ ../Library/STM32F4xx_HAL_Driver/Src/stm32f4xx_ll_fmc.c:1064:6
	ldr	r1, [sp, #20]
	.loc	4 1064 13                       @ ../Library/STM32F4xx_HAL_Driver/Src/stm32f4xx_ll_fmc.c:1064:13
	str	r0, [r1]
	b	.LBB12_14
.Ltmp101:
.LBB12_14:
	.loc	4 0 13                          @ ../Library/STM32F4xx_HAL_Driver/Src/stm32f4xx_ll_fmc.c:0:13
	movs	r0, #0
	.loc	4 1067 3 is_stmt 1              @ ../Library/STM32F4xx_HAL_Driver/Src/stm32f4xx_ll_fmc.c:1067:3
	strb.w	r0, [sp, #31]
	b	.LBB12_15
.LBB12_15:
	.loc	4 1068 1                        @ ../Library/STM32F4xx_HAL_Driver/Src/stm32f4xx_ll_fmc.c:1068:1
	ldrb.w	r0, [sp, #31]
	add	sp, #32
	pop	{r7, pc}
.Ltmp102:
.Lfunc_end12:
	.size	FMC_NAND_GetECC, .Lfunc_end12-FMC_NAND_GetECC
	.cfi_endproc
	.cantunwind
	.fnend
                                        @ -- End function
	.section	.text.FMC_PCCARD_Init,"ax",%progbits
	.hidden	FMC_PCCARD_Init                 @ -- Begin function FMC_PCCARD_Init
	.globl	FMC_PCCARD_Init
	.p2align	2
	.type	FMC_PCCARD_Init,%function
	.code	16                              @ @FMC_PCCARD_Init
	.thumb_func
FMC_PCCARD_Init:
.Lfunc_begin13:
	.loc	4 1128 0                        @ ../Library/STM32F4xx_HAL_Driver/Src/stm32f4xx_ll_fmc.c:1128:0
	.fnstart
	.cfi_startproc
@ %bb.0:
	.pad	#12
	sub	sp, #12
	.cfi_def_cfa_offset 12
	str	r0, [sp, #8]
	str	r1, [sp, #4]
	movs	r0, #0
.Ltmp103:
	.loc	4 1129 12 prologue_end          @ ../Library/STM32F4xx_HAL_Driver/Src/stm32f4xx_ll_fmc.c:1129:12
	str	r0, [sp]
	.loc	4 1138 10                       @ ../Library/STM32F4xx_HAL_Driver/Src/stm32f4xx_ll_fmc.c:1138:10
	ldr	r1, [sp, #8]
	.loc	4 1138 18 is_stmt 0             @ ../Library/STM32F4xx_HAL_Driver/Src/stm32f4xx_ll_fmc.c:1138:18
	ldr	r1, [r1]
	.loc	4 1138 8                        @ ../Library/STM32F4xx_HAL_Driver/Src/stm32f4xx_ll_fmc.c:1138:8
	str	r1, [sp]
	.loc	4 1141 8 is_stmt 1              @ ../Library/STM32F4xx_HAL_Driver/Src/stm32f4xx_ll_fmc.c:1141:8
	ldr	r1, [sp]
	movw	r2, #453
	movt	r2, #65534
	ands	r1, r2
	str	r1, [sp]
	.loc	4 1145 22                       @ ../Library/STM32F4xx_HAL_Driver/Src/stm32f4xx_ll_fmc.c:1145:22
	ldr	r2, [sp, #4]
	.loc	4 1145 28 is_stmt 0             @ ../Library/STM32F4xx_HAL_Driver/Src/stm32f4xx_ll_fmc.c:1145:28
	ldr	r1, [r2]
	.loc	4 1147 28 is_stmt 1             @ ../Library/STM32F4xx_HAL_Driver/Src/stm32f4xx_ll_fmc.c:1147:28
	ldr	r3, [r2, #4]
	.loc	4 1148 28                       @ ../Library/STM32F4xx_HAL_Driver/Src/stm32f4xx_ll_fmc.c:1148:28
	ldr	r2, [r2, #8]
	.loc	4 1145 53                       @ ../Library/STM32F4xx_HAL_Driver/Src/stm32f4xx_ll_fmc.c:1145:53
	orr.w	r1, r1, r3, lsl #9
	.loc	4 1146 53                       @ ../Library/STM32F4xx_HAL_Driver/Src/stm32f4xx_ll_fmc.c:1146:53
	orr.w	r1, r1, r2, lsl #13
	.loc	4 1145 8                        @ ../Library/STM32F4xx_HAL_Driver/Src/stm32f4xx_ll_fmc.c:1145:8
	ldr	r2, [sp]
	.loc	4 1147 53                       @ ../Library/STM32F4xx_HAL_Driver/Src/stm32f4xx_ll_fmc.c:1147:53
	orrs	r1, r2
	.loc	4 1145 8                        @ ../Library/STM32F4xx_HAL_Driver/Src/stm32f4xx_ll_fmc.c:1145:8
	orr	r1, r1, #16
	str	r1, [sp]
	.loc	4 1150 18                       @ ../Library/STM32F4xx_HAL_Driver/Src/stm32f4xx_ll_fmc.c:1150:18
	ldr	r1, [sp]
	.loc	4 1150 3 is_stmt 0              @ ../Library/STM32F4xx_HAL_Driver/Src/stm32f4xx_ll_fmc.c:1150:3
	ldr	r2, [sp, #8]
	.loc	4 1150 16                       @ ../Library/STM32F4xx_HAL_Driver/Src/stm32f4xx_ll_fmc.c:1150:16
	str	r1, [r2]
	.loc	4 1152 3 is_stmt 1              @ ../Library/STM32F4xx_HAL_Driver/Src/stm32f4xx_ll_fmc.c:1152:3
	add	sp, #12
	bx	lr
.Ltmp104:
.Lfunc_end13:
	.size	FMC_PCCARD_Init, .Lfunc_end13-FMC_PCCARD_Init
	.cfi_endproc
	.cantunwind
	.fnend
                                        @ -- End function
	.section	.text.FMC_PCCARD_CommonSpace_Timing_Init,"ax",%progbits
	.hidden	FMC_PCCARD_CommonSpace_Timing_Init @ -- Begin function FMC_PCCARD_CommonSpace_Timing_Init
	.globl	FMC_PCCARD_CommonSpace_Timing_Init
	.p2align	2
	.type	FMC_PCCARD_CommonSpace_Timing_Init,%function
	.code	16                              @ @FMC_PCCARD_CommonSpace_Timing_Init
	.thumb_func
FMC_PCCARD_CommonSpace_Timing_Init:
.Lfunc_begin14:
	.loc	4 1163 0                        @ ../Library/STM32F4xx_HAL_Driver/Src/stm32f4xx_ll_fmc.c:1163:0
	.fnstart
	.cfi_startproc
@ %bb.0:
	.pad	#12
	sub	sp, #12
	.cfi_def_cfa_offset 12
	str	r0, [sp, #8]
	str	r1, [sp, #4]
	movs	r0, #0
.Ltmp105:
	.loc	4 1164 12 prologue_end          @ ../Library/STM32F4xx_HAL_Driver/Src/stm32f4xx_ll_fmc.c:1164:12
	str	r0, [sp]
	.loc	4 1174 10                       @ ../Library/STM32F4xx_HAL_Driver/Src/stm32f4xx_ll_fmc.c:1174:10
	ldr	r1, [sp, #8]
	.loc	4 1174 18 is_stmt 0             @ ../Library/STM32F4xx_HAL_Driver/Src/stm32f4xx_ll_fmc.c:1174:18
	ldr	r1, [r1, #8]
	.loc	4 1174 8                        @ ../Library/STM32F4xx_HAL_Driver/Src/stm32f4xx_ll_fmc.c:1174:8
	str	r1, [sp]
	.loc	4 1177 8 is_stmt 1              @ ../Library/STM32F4xx_HAL_Driver/Src/stm32f4xx_ll_fmc.c:1177:8
	str	r0, [sp]
	.loc	4 1180 22                       @ ../Library/STM32F4xx_HAL_Driver/Src/stm32f4xx_ll_fmc.c:1180:22
	ldr	r2, [sp, #4]
	.loc	4 1180 30 is_stmt 0             @ ../Library/STM32F4xx_HAL_Driver/Src/stm32f4xx_ll_fmc.c:1180:30
	ldr	r1, [r2]
	.loc	4 1181 31 is_stmt 1             @ ../Library/STM32F4xx_HAL_Driver/Src/stm32f4xx_ll_fmc.c:1181:31
	ldr.w	r12, [r2, #4]
	.loc	4 1182 31                       @ ../Library/STM32F4xx_HAL_Driver/Src/stm32f4xx_ll_fmc.c:1182:31
	ldr	r3, [r2, #8]
	.loc	4 1183 31                       @ ../Library/STM32F4xx_HAL_Driver/Src/stm32f4xx_ll_fmc.c:1183:31
	ldr	r2, [r2, #12]
	.loc	4 1180 57                       @ ../Library/STM32F4xx_HAL_Driver/Src/stm32f4xx_ll_fmc.c:1180:57
	orr.w	r1, r1, r12, lsl #8
	.loc	4 1181 57                       @ ../Library/STM32F4xx_HAL_Driver/Src/stm32f4xx_ll_fmc.c:1181:57
	orr.w	r1, r1, r3, lsl #16
	.loc	4 1182 57                       @ ../Library/STM32F4xx_HAL_Driver/Src/stm32f4xx_ll_fmc.c:1182:57
	orr.w	r2, r1, r2, lsl #24
	.loc	4 1180 8                        @ ../Library/STM32F4xx_HAL_Driver/Src/stm32f4xx_ll_fmc.c:1180:8
	ldr	r1, [sp]
	orrs	r1, r2
	str	r1, [sp]
	.loc	4 1185 19                       @ ../Library/STM32F4xx_HAL_Driver/Src/stm32f4xx_ll_fmc.c:1185:19
	ldr	r1, [sp]
	.loc	4 1185 3 is_stmt 0              @ ../Library/STM32F4xx_HAL_Driver/Src/stm32f4xx_ll_fmc.c:1185:3
	ldr	r2, [sp, #8]
	.loc	4 1185 17                       @ ../Library/STM32F4xx_HAL_Driver/Src/stm32f4xx_ll_fmc.c:1185:17
	str	r1, [r2, #8]
	.loc	4 1187 3 is_stmt 1              @ ../Library/STM32F4xx_HAL_Driver/Src/stm32f4xx_ll_fmc.c:1187:3
	add	sp, #12
	bx	lr
.Ltmp106:
.Lfunc_end14:
	.size	FMC_PCCARD_CommonSpace_Timing_Init, .Lfunc_end14-FMC_PCCARD_CommonSpace_Timing_Init
	.cfi_endproc
	.cantunwind
	.fnend
                                        @ -- End function
	.section	.text.FMC_PCCARD_AttributeSpace_Timing_Init,"ax",%progbits
	.hidden	FMC_PCCARD_AttributeSpace_Timing_Init @ -- Begin function FMC_PCCARD_AttributeSpace_Timing_Init
	.globl	FMC_PCCARD_AttributeSpace_Timing_Init
	.p2align	2
	.type	FMC_PCCARD_AttributeSpace_Timing_Init,%function
	.code	16                              @ @FMC_PCCARD_AttributeSpace_Timing_Init
	.thumb_func
FMC_PCCARD_AttributeSpace_Timing_Init:
.Lfunc_begin15:
	.loc	4 1198 0                        @ ../Library/STM32F4xx_HAL_Driver/Src/stm32f4xx_ll_fmc.c:1198:0
	.fnstart
	.cfi_startproc
@ %bb.0:
	.pad	#12
	sub	sp, #12
	.cfi_def_cfa_offset 12
	str	r0, [sp, #8]
	str	r1, [sp, #4]
	movs	r0, #0
.Ltmp107:
	.loc	4 1199 12 prologue_end          @ ../Library/STM32F4xx_HAL_Driver/Src/stm32f4xx_ll_fmc.c:1199:12
	str	r0, [sp]
	.loc	4 1209 10                       @ ../Library/STM32F4xx_HAL_Driver/Src/stm32f4xx_ll_fmc.c:1209:10
	ldr	r1, [sp, #8]
	.loc	4 1209 18 is_stmt 0             @ ../Library/STM32F4xx_HAL_Driver/Src/stm32f4xx_ll_fmc.c:1209:18
	ldr	r1, [r1, #12]
	.loc	4 1209 8                        @ ../Library/STM32F4xx_HAL_Driver/Src/stm32f4xx_ll_fmc.c:1209:8
	str	r1, [sp]
	.loc	4 1212 8 is_stmt 1              @ ../Library/STM32F4xx_HAL_Driver/Src/stm32f4xx_ll_fmc.c:1212:8
	str	r0, [sp]
	.loc	4 1216 22                       @ ../Library/STM32F4xx_HAL_Driver/Src/stm32f4xx_ll_fmc.c:1216:22
	ldr	r2, [sp, #4]
	.loc	4 1216 30 is_stmt 0             @ ../Library/STM32F4xx_HAL_Driver/Src/stm32f4xx_ll_fmc.c:1216:30
	ldr	r1, [r2]
	.loc	4 1217 30 is_stmt 1             @ ../Library/STM32F4xx_HAL_Driver/Src/stm32f4xx_ll_fmc.c:1217:30
	ldr.w	r12, [r2, #4]
	.loc	4 1218 30                       @ ../Library/STM32F4xx_HAL_Driver/Src/stm32f4xx_ll_fmc.c:1218:30
	ldr	r3, [r2, #8]
	.loc	4 1219 30                       @ ../Library/STM32F4xx_HAL_Driver/Src/stm32f4xx_ll_fmc.c:1219:30
	ldr	r2, [r2, #12]
	.loc	4 1216 56                       @ ../Library/STM32F4xx_HAL_Driver/Src/stm32f4xx_ll_fmc.c:1216:56
	orr.w	r1, r1, r12, lsl #8
	.loc	4 1217 56                       @ ../Library/STM32F4xx_HAL_Driver/Src/stm32f4xx_ll_fmc.c:1217:56
	orr.w	r1, r1, r3, lsl #16
	.loc	4 1218 56                       @ ../Library/STM32F4xx_HAL_Driver/Src/stm32f4xx_ll_fmc.c:1218:56
	orr.w	r2, r1, r2, lsl #24
	.loc	4 1216 8                        @ ../Library/STM32F4xx_HAL_Driver/Src/stm32f4xx_ll_fmc.c:1216:8
	ldr	r1, [sp]
	orrs	r1, r2
	str	r1, [sp]
	.loc	4 1220 19                       @ ../Library/STM32F4xx_HAL_Driver/Src/stm32f4xx_ll_fmc.c:1220:19
	ldr	r1, [sp]
	.loc	4 1220 3 is_stmt 0              @ ../Library/STM32F4xx_HAL_Driver/Src/stm32f4xx_ll_fmc.c:1220:3
	ldr	r2, [sp, #8]
	.loc	4 1220 17                       @ ../Library/STM32F4xx_HAL_Driver/Src/stm32f4xx_ll_fmc.c:1220:17
	str	r1, [r2, #12]
	.loc	4 1222 3 is_stmt 1              @ ../Library/STM32F4xx_HAL_Driver/Src/stm32f4xx_ll_fmc.c:1222:3
	add	sp, #12
	bx	lr
.Ltmp108:
.Lfunc_end15:
	.size	FMC_PCCARD_AttributeSpace_Timing_Init, .Lfunc_end15-FMC_PCCARD_AttributeSpace_Timing_Init
	.cfi_endproc
	.cantunwind
	.fnend
                                        @ -- End function
	.section	.text.FMC_PCCARD_IOSpace_Timing_Init,"ax",%progbits
	.hidden	FMC_PCCARD_IOSpace_Timing_Init  @ -- Begin function FMC_PCCARD_IOSpace_Timing_Init
	.globl	FMC_PCCARD_IOSpace_Timing_Init
	.p2align	2
	.type	FMC_PCCARD_IOSpace_Timing_Init,%function
	.code	16                              @ @FMC_PCCARD_IOSpace_Timing_Init
	.thumb_func
FMC_PCCARD_IOSpace_Timing_Init:
.Lfunc_begin16:
	.loc	4 1233 0                        @ ../Library/STM32F4xx_HAL_Driver/Src/stm32f4xx_ll_fmc.c:1233:0
	.fnstart
	.cfi_startproc
@ %bb.0:
	.pad	#12
	sub	sp, #12
	.cfi_def_cfa_offset 12
	str	r0, [sp, #8]
	str	r1, [sp, #4]
	movs	r0, #0
.Ltmp109:
	.loc	4 1234 12 prologue_end          @ ../Library/STM32F4xx_HAL_Driver/Src/stm32f4xx_ll_fmc.c:1234:12
	str	r0, [sp]
	.loc	4 1244 10                       @ ../Library/STM32F4xx_HAL_Driver/Src/stm32f4xx_ll_fmc.c:1244:10
	ldr	r1, [sp, #8]
	.loc	4 1244 18 is_stmt 0             @ ../Library/STM32F4xx_HAL_Driver/Src/stm32f4xx_ll_fmc.c:1244:18
	ldr	r1, [r1, #16]
	.loc	4 1244 8                        @ ../Library/STM32F4xx_HAL_Driver/Src/stm32f4xx_ll_fmc.c:1244:8
	str	r1, [sp]
	.loc	4 1247 8 is_stmt 1              @ ../Library/STM32F4xx_HAL_Driver/Src/stm32f4xx_ll_fmc.c:1247:8
	str	r0, [sp]
	.loc	4 1251 22                       @ ../Library/STM32F4xx_HAL_Driver/Src/stm32f4xx_ll_fmc.c:1251:22
	ldr	r2, [sp, #4]
	.loc	4 1251 30 is_stmt 0             @ ../Library/STM32F4xx_HAL_Driver/Src/stm32f4xx_ll_fmc.c:1251:30
	ldr	r1, [r2]
	.loc	4 1252 32 is_stmt 1             @ ../Library/STM32F4xx_HAL_Driver/Src/stm32f4xx_ll_fmc.c:1252:32
	ldr.w	r12, [r2, #4]
	.loc	4 1253 32                       @ ../Library/STM32F4xx_HAL_Driver/Src/stm32f4xx_ll_fmc.c:1253:32
	ldr	r3, [r2, #8]
	.loc	4 1254 32                       @ ../Library/STM32F4xx_HAL_Driver/Src/stm32f4xx_ll_fmc.c:1254:32
	ldr	r2, [r2, #12]
	.loc	4 1251 58                       @ ../Library/STM32F4xx_HAL_Driver/Src/stm32f4xx_ll_fmc.c:1251:58
	orr.w	r1, r1, r12, lsl #8
	.loc	4 1252 58                       @ ../Library/STM32F4xx_HAL_Driver/Src/stm32f4xx_ll_fmc.c:1252:58
	orr.w	r1, r1, r3, lsl #16
	.loc	4 1253 58                       @ ../Library/STM32F4xx_HAL_Driver/Src/stm32f4xx_ll_fmc.c:1253:58
	orr.w	r2, r1, r2, lsl #24
	.loc	4 1251 8                        @ ../Library/STM32F4xx_HAL_Driver/Src/stm32f4xx_ll_fmc.c:1251:8
	ldr	r1, [sp]
	orrs	r1, r2
	str	r1, [sp]
	.loc	4 1256 18                       @ ../Library/STM32F4xx_HAL_Driver/Src/stm32f4xx_ll_fmc.c:1256:18
	ldr	r1, [sp]
	.loc	4 1256 3 is_stmt 0              @ ../Library/STM32F4xx_HAL_Driver/Src/stm32f4xx_ll_fmc.c:1256:3
	ldr	r2, [sp, #8]
	.loc	4 1256 16                       @ ../Library/STM32F4xx_HAL_Driver/Src/stm32f4xx_ll_fmc.c:1256:16
	str	r1, [r2, #16]
	.loc	4 1258 3 is_stmt 1              @ ../Library/STM32F4xx_HAL_Driver/Src/stm32f4xx_ll_fmc.c:1258:3
	add	sp, #12
	bx	lr
.Ltmp110:
.Lfunc_end16:
	.size	FMC_PCCARD_IOSpace_Timing_Init, .Lfunc_end16-FMC_PCCARD_IOSpace_Timing_Init
	.cfi_endproc
	.cantunwind
	.fnend
                                        @ -- End function
	.section	.text.FMC_PCCARD_DeInit,"ax",%progbits
	.hidden	FMC_PCCARD_DeInit               @ -- Begin function FMC_PCCARD_DeInit
	.globl	FMC_PCCARD_DeInit
	.p2align	2
	.type	FMC_PCCARD_DeInit,%function
	.code	16                              @ @FMC_PCCARD_DeInit
	.thumb_func
FMC_PCCARD_DeInit:
.Lfunc_begin17:
	.loc	4 1267 0                        @ ../Library/STM32F4xx_HAL_Driver/Src/stm32f4xx_ll_fmc.c:1267:0
	.fnstart
	.cfi_startproc
@ %bb.0:
	.pad	#4
	sub	sp, #4
	.cfi_def_cfa_offset 4
	str	r0, [sp]
.Ltmp111:
	.loc	4 1272 3 prologue_end           @ ../Library/STM32F4xx_HAL_Driver/Src/stm32f4xx_ll_fmc.c:1272:3
	ldr	r1, [sp]
	ldr	r0, [r1]
	bic	r0, r0, #4
	str	r0, [r1]
	.loc	4 1275 3                        @ ../Library/STM32F4xx_HAL_Driver/Src/stm32f4xx_ll_fmc.c:1275:3
	ldr	r1, [sp]
	movs	r0, #24
	.loc	4 1275 19 is_stmt 0             @ ../Library/STM32F4xx_HAL_Driver/Src/stm32f4xx_ll_fmc.c:1275:19
	str	r0, [r1]
	.loc	4 1276 3 is_stmt 1              @ ../Library/STM32F4xx_HAL_Driver/Src/stm32f4xx_ll_fmc.c:1276:3
	ldr	r1, [sp]
	movs	r0, #0
	.loc	4 1276 19 is_stmt 0             @ ../Library/STM32F4xx_HAL_Driver/Src/stm32f4xx_ll_fmc.c:1276:19
	str	r0, [r1, #4]
	.loc	4 1277 3 is_stmt 1              @ ../Library/STM32F4xx_HAL_Driver/Src/stm32f4xx_ll_fmc.c:1277:3
	ldr	r2, [sp]
	mov.w	r1, #-50529028
	.loc	4 1277 19 is_stmt 0             @ ../Library/STM32F4xx_HAL_Driver/Src/stm32f4xx_ll_fmc.c:1277:19
	str	r1, [r2, #8]
	.loc	4 1278 3 is_stmt 1              @ ../Library/STM32F4xx_HAL_Driver/Src/stm32f4xx_ll_fmc.c:1278:3
	ldr	r2, [sp]
	.loc	4 1278 19 is_stmt 0             @ ../Library/STM32F4xx_HAL_Driver/Src/stm32f4xx_ll_fmc.c:1278:19
	str	r1, [r2, #12]
	.loc	4 1279 3 is_stmt 1              @ ../Library/STM32F4xx_HAL_Driver/Src/stm32f4xx_ll_fmc.c:1279:3
	ldr	r2, [sp]
	.loc	4 1279 19 is_stmt 0             @ ../Library/STM32F4xx_HAL_Driver/Src/stm32f4xx_ll_fmc.c:1279:19
	str	r1, [r2, #16]
	.loc	4 1281 3 is_stmt 1              @ ../Library/STM32F4xx_HAL_Driver/Src/stm32f4xx_ll_fmc.c:1281:3
	add	sp, #4
	bx	lr
.Ltmp112:
.Lfunc_end17:
	.size	FMC_PCCARD_DeInit, .Lfunc_end17-FMC_PCCARD_DeInit
	.cfi_endproc
	.cantunwind
	.fnend
                                        @ -- End function
	.section	.text.FMC_SDRAM_Init,"ax",%progbits
	.hidden	FMC_SDRAM_Init                  @ -- Begin function FMC_SDRAM_Init
	.globl	FMC_SDRAM_Init
	.p2align	2
	.type	FMC_SDRAM_Init,%function
	.code	16                              @ @FMC_SDRAM_Init
	.thumb_func
FMC_SDRAM_Init:
.Lfunc_begin18:
	.loc	4 1337 0                        @ ../Library/STM32F4xx_HAL_Driver/Src/stm32f4xx_ll_fmc.c:1337:0
	.fnstart
	.cfi_startproc
@ %bb.0:
	.pad	#20
	sub	sp, #20
	.cfi_def_cfa_offset 20
	str	r0, [sp, #16]
	str	r1, [sp, #12]
	movs	r0, #0
.Ltmp113:
	.loc	4 1338 12 prologue_end          @ ../Library/STM32F4xx_HAL_Driver/Src/stm32f4xx_ll_fmc.c:1338:12
	str	r0, [sp, #8]
	.loc	4 1339 12                       @ ../Library/STM32F4xx_HAL_Driver/Src/stm32f4xx_ll_fmc.c:1339:12
	str	r0, [sp, #4]
.Ltmp114:
	.loc	4 1355 7                        @ ../Library/STM32F4xx_HAL_Driver/Src/stm32f4xx_ll_fmc.c:1355:7
	ldr	r0, [sp, #12]
	.loc	4 1355 13 is_stmt 0             @ ../Library/STM32F4xx_HAL_Driver/Src/stm32f4xx_ll_fmc.c:1355:13
	ldr	r0, [r0]
.Ltmp115:
	.loc	4 1355 7                        @ ../Library/STM32F4xx_HAL_Driver/Src/stm32f4xx_ll_fmc.c:1355:7
	cmp	r0, #1
	beq	.LBB18_2
	b	.LBB18_1
.LBB18_1:
.Ltmp116:
	.loc	4 1357 13 is_stmt 1             @ ../Library/STM32F4xx_HAL_Driver/Src/stm32f4xx_ll_fmc.c:1357:13
	ldr	r0, [sp, #16]
	ldr	r0, [r0]
	.loc	4 1357 11 is_stmt 0             @ ../Library/STM32F4xx_HAL_Driver/Src/stm32f4xx_ll_fmc.c:1357:11
	str	r0, [sp, #8]
	.loc	4 1360 11 is_stmt 1             @ ../Library/STM32F4xx_HAL_Driver/Src/stm32f4xx_ll_fmc.c:1360:11
	ldr	r0, [sp, #8]
	movw	r1, #32767
	bics	r0, r1
	str	r0, [sp, #8]
	.loc	4 1365 25                       @ ../Library/STM32F4xx_HAL_Driver/Src/stm32f4xx_ll_fmc.c:1365:25
	ldr	r1, [sp, #12]
	.loc	4 1365 31 is_stmt 0             @ ../Library/STM32F4xx_HAL_Driver/Src/stm32f4xx_ll_fmc.c:1365:31
	str	r1, [sp]                        @ 4-byte Spill
	ldr	r0, [r1, #4]
	.loc	4 1366 54 is_stmt 1             @ ../Library/STM32F4xx_HAL_Driver/Src/stm32f4xx_ll_fmc.c:1366:54
	ldr.w	r12, [r1, #8]
	.loc	4 1367 54                       @ ../Library/STM32F4xx_HAL_Driver/Src/stm32f4xx_ll_fmc.c:1367:54
	ldr	r3, [r1, #12]
	.loc	4 1368 54                       @ ../Library/STM32F4xx_HAL_Driver/Src/stm32f4xx_ll_fmc.c:1368:54
	ldr	r2, [r1, #16]
	.loc	4 1365 50                       @ ../Library/STM32F4xx_HAL_Driver/Src/stm32f4xx_ll_fmc.c:1365:50
	orr.w	r0, r0, r12
	.loc	4 1366 73                       @ ../Library/STM32F4xx_HAL_Driver/Src/stm32f4xx_ll_fmc.c:1366:73
	orrs	r0, r3
	.loc	4 1367 73                       @ ../Library/STM32F4xx_HAL_Driver/Src/stm32f4xx_ll_fmc.c:1367:73
	orrs	r0, r2
	.loc	4 1369 54                       @ ../Library/STM32F4xx_HAL_Driver/Src/stm32f4xx_ll_fmc.c:1369:54
	ldr	r2, [r1, #20]
	.loc	4 1368 73                       @ ../Library/STM32F4xx_HAL_Driver/Src/stm32f4xx_ll_fmc.c:1368:73
	orrs	r0, r2
	.loc	4 1370 54                       @ ../Library/STM32F4xx_HAL_Driver/Src/stm32f4xx_ll_fmc.c:1370:54
	ldr	r2, [r1, #24]
	.loc	4 1369 73                       @ ../Library/STM32F4xx_HAL_Driver/Src/stm32f4xx_ll_fmc.c:1369:73
	orrs	r0, r2
	.loc	4 1371 54                       @ ../Library/STM32F4xx_HAL_Driver/Src/stm32f4xx_ll_fmc.c:1371:54
	ldr	r2, [r1, #28]
	.loc	4 1370 73                       @ ../Library/STM32F4xx_HAL_Driver/Src/stm32f4xx_ll_fmc.c:1370:73
	orrs	r0, r2
	.loc	4 1372 54                       @ ../Library/STM32F4xx_HAL_Driver/Src/stm32f4xx_ll_fmc.c:1372:54
	ldr	r2, [r1, #32]
	.loc	4 1371 73                       @ ../Library/STM32F4xx_HAL_Driver/Src/stm32f4xx_ll_fmc.c:1371:73
	orrs	r0, r2
	.loc	4 1373 54                       @ ../Library/STM32F4xx_HAL_Driver/Src/stm32f4xx_ll_fmc.c:1373:54
	ldr	r1, [r1, #36]
	.loc	4 1372 73                       @ ../Library/STM32F4xx_HAL_Driver/Src/stm32f4xx_ll_fmc.c:1372:73
	orrs	r1, r0
	.loc	4 1365 11                       @ ../Library/STM32F4xx_HAL_Driver/Src/stm32f4xx_ll_fmc.c:1365:11
	ldr	r0, [sp, #8]
	orrs	r0, r1
	str	r0, [sp, #8]
	.loc	4 1375 37                       @ ../Library/STM32F4xx_HAL_Driver/Src/stm32f4xx_ll_fmc.c:1375:37
	ldr	r0, [sp, #8]
	.loc	4 1375 5 is_stmt 0              @ ../Library/STM32F4xx_HAL_Driver/Src/stm32f4xx_ll_fmc.c:1375:5
	ldr	r1, [sp, #16]
	.loc	4 1375 35                       @ ../Library/STM32F4xx_HAL_Driver/Src/stm32f4xx_ll_fmc.c:1375:35
	str	r0, [r1]
	.loc	4 1376 3 is_stmt 1              @ ../Library/STM32F4xx_HAL_Driver/Src/stm32f4xx_ll_fmc.c:1376:3
	b	.LBB18_3
.Ltmp117:
.LBB18_2:
	.loc	4 1379 13                       @ ../Library/STM32F4xx_HAL_Driver/Src/stm32f4xx_ll_fmc.c:1379:13
	ldr	r0, [sp, #16]
	ldr	r0, [r0]
	.loc	4 1379 11 is_stmt 0             @ ../Library/STM32F4xx_HAL_Driver/Src/stm32f4xx_ll_fmc.c:1379:11
	str	r0, [sp, #8]
	.loc	4 1382 11 is_stmt 1             @ ../Library/STM32F4xx_HAL_Driver/Src/stm32f4xx_ll_fmc.c:1382:11
	ldr	r0, [sp, #8]
	bic	r0, r0, #31744
	str	r0, [sp, #8]
	.loc	4 1384 25                       @ ../Library/STM32F4xx_HAL_Driver/Src/stm32f4xx_ll_fmc.c:1384:25
	ldr	r1, [sp, #12]
	.loc	4 1384 31 is_stmt 0             @ ../Library/STM32F4xx_HAL_Driver/Src/stm32f4xx_ll_fmc.c:1384:31
	ldr	r0, [r1, #28]
	.loc	4 1385 31 is_stmt 1             @ ../Library/STM32F4xx_HAL_Driver/Src/stm32f4xx_ll_fmc.c:1385:31
	ldr	r2, [r1, #32]
	.loc	4 1386 31                       @ ../Library/STM32F4xx_HAL_Driver/Src/stm32f4xx_ll_fmc.c:1386:31
	ldr	r1, [r1, #36]
	.loc	4 1384 50                       @ ../Library/STM32F4xx_HAL_Driver/Src/stm32f4xx_ll_fmc.c:1384:50
	orrs	r0, r2
	.loc	4 1385 50                       @ ../Library/STM32F4xx_HAL_Driver/Src/stm32f4xx_ll_fmc.c:1385:50
	orrs	r1, r0
	.loc	4 1384 11                       @ ../Library/STM32F4xx_HAL_Driver/Src/stm32f4xx_ll_fmc.c:1384:11
	ldr	r0, [sp, #8]
	orrs	r0, r1
	str	r0, [sp, #8]
	.loc	4 1388 13                       @ ../Library/STM32F4xx_HAL_Driver/Src/stm32f4xx_ll_fmc.c:1388:13
	ldr	r0, [sp, #16]
	ldr	r0, [r0, #4]
	.loc	4 1388 11 is_stmt 0             @ ../Library/STM32F4xx_HAL_Driver/Src/stm32f4xx_ll_fmc.c:1388:11
	str	r0, [sp, #4]
	.loc	4 1391 11 is_stmt 1             @ ../Library/STM32F4xx_HAL_Driver/Src/stm32f4xx_ll_fmc.c:1391:11
	ldr	r0, [sp, #4]
	movw	r1, #32767
	bics	r0, r1
	str	r0, [sp, #4]
	.loc	4 1395 25                       @ ../Library/STM32F4xx_HAL_Driver/Src/stm32f4xx_ll_fmc.c:1395:25
	ldr	r1, [sp, #12]
	.loc	4 1395 31 is_stmt 0             @ ../Library/STM32F4xx_HAL_Driver/Src/stm32f4xx_ll_fmc.c:1395:31
	ldr	r0, [r1, #4]
	.loc	4 1396 30 is_stmt 1             @ ../Library/STM32F4xx_HAL_Driver/Src/stm32f4xx_ll_fmc.c:1396:30
	ldr.w	r12, [r1, #8]
	.loc	4 1397 30                       @ ../Library/STM32F4xx_HAL_Driver/Src/stm32f4xx_ll_fmc.c:1397:30
	ldr	r3, [r1, #12]
	.loc	4 1398 30                       @ ../Library/STM32F4xx_HAL_Driver/Src/stm32f4xx_ll_fmc.c:1398:30
	ldr	r2, [r1, #16]
	.loc	4 1395 50                       @ ../Library/STM32F4xx_HAL_Driver/Src/stm32f4xx_ll_fmc.c:1395:50
	orr.w	r0, r0, r12
	.loc	4 1396 49                       @ ../Library/STM32F4xx_HAL_Driver/Src/stm32f4xx_ll_fmc.c:1396:49
	orrs	r0, r3
	.loc	4 1397 49                       @ ../Library/STM32F4xx_HAL_Driver/Src/stm32f4xx_ll_fmc.c:1397:49
	orrs	r0, r2
	.loc	4 1399 30                       @ ../Library/STM32F4xx_HAL_Driver/Src/stm32f4xx_ll_fmc.c:1399:30
	ldr	r2, [r1, #20]
	.loc	4 1398 49                       @ ../Library/STM32F4xx_HAL_Driver/Src/stm32f4xx_ll_fmc.c:1398:49
	orrs	r0, r2
	.loc	4 1400 30                       @ ../Library/STM32F4xx_HAL_Driver/Src/stm32f4xx_ll_fmc.c:1400:30
	ldr	r1, [r1, #24]
	.loc	4 1399 49                       @ ../Library/STM32F4xx_HAL_Driver/Src/stm32f4xx_ll_fmc.c:1399:49
	orrs	r1, r0
	.loc	4 1395 11                       @ ../Library/STM32F4xx_HAL_Driver/Src/stm32f4xx_ll_fmc.c:1395:11
	ldr	r0, [sp, #4]
	orrs	r0, r1
	str	r0, [sp, #4]
	.loc	4 1402 37                       @ ../Library/STM32F4xx_HAL_Driver/Src/stm32f4xx_ll_fmc.c:1402:37
	ldr	r0, [sp, #8]
	.loc	4 1402 5 is_stmt 0              @ ../Library/STM32F4xx_HAL_Driver/Src/stm32f4xx_ll_fmc.c:1402:5
	ldr	r1, [sp, #16]
	.loc	4 1402 35                       @ ../Library/STM32F4xx_HAL_Driver/Src/stm32f4xx_ll_fmc.c:1402:35
	str	r0, [r1]
	.loc	4 1403 37 is_stmt 1             @ ../Library/STM32F4xx_HAL_Driver/Src/stm32f4xx_ll_fmc.c:1403:37
	ldr	r0, [sp, #4]
	.loc	4 1403 5 is_stmt 0              @ ../Library/STM32F4xx_HAL_Driver/Src/stm32f4xx_ll_fmc.c:1403:5
	ldr	r1, [sp, #16]
	.loc	4 1403 35                       @ ../Library/STM32F4xx_HAL_Driver/Src/stm32f4xx_ll_fmc.c:1403:35
	str	r0, [r1, #4]
	b	.LBB18_3
.Ltmp118:
.LBB18_3:
	.loc	4 0 35                          @ ../Library/STM32F4xx_HAL_Driver/Src/stm32f4xx_ll_fmc.c:0:35
	movs	r0, #0
	.loc	4 1406 3 is_stmt 1              @ ../Library/STM32F4xx_HAL_Driver/Src/stm32f4xx_ll_fmc.c:1406:3
	add	sp, #20
	bx	lr
.Ltmp119:
.Lfunc_end18:
	.size	FMC_SDRAM_Init, .Lfunc_end18-FMC_SDRAM_Init
	.cfi_endproc
	.cantunwind
	.fnend
                                        @ -- End function
	.section	.text.FMC_SDRAM_Timing_Init,"ax",%progbits
	.hidden	FMC_SDRAM_Timing_Init           @ -- Begin function FMC_SDRAM_Timing_Init
	.globl	FMC_SDRAM_Timing_Init
	.p2align	2
	.type	FMC_SDRAM_Timing_Init,%function
	.code	16                              @ @FMC_SDRAM_Timing_Init
	.thumb_func
FMC_SDRAM_Timing_Init:
.Lfunc_begin19:
	.loc	4 1418 0                        @ ../Library/STM32F4xx_HAL_Driver/Src/stm32f4xx_ll_fmc.c:1418:0
	.fnstart
	.cfi_startproc
@ %bb.0:
	.save	{r7, lr}
	push	{r7, lr}
	.cfi_def_cfa_offset 8
	.cfi_offset lr, -4
	.cfi_offset r7, -8
	.pad	#20
	sub	sp, #20
	.cfi_def_cfa_offset 28
	str	r0, [sp, #16]
	str	r1, [sp, #12]
	str	r2, [sp, #8]
	movs	r0, #0
.Ltmp120:
	.loc	4 1419 12 prologue_end          @ ../Library/STM32F4xx_HAL_Driver/Src/stm32f4xx_ll_fmc.c:1419:12
	str	r0, [sp, #4]
	.loc	4 1420 12                       @ ../Library/STM32F4xx_HAL_Driver/Src/stm32f4xx_ll_fmc.c:1420:12
	str	r0, [sp]
.Ltmp121:
	.loc	4 1434 7                        @ ../Library/STM32F4xx_HAL_Driver/Src/stm32f4xx_ll_fmc.c:1434:7
	ldr	r0, [sp, #8]
.Ltmp122:
	.loc	4 1434 7 is_stmt 0              @ ../Library/STM32F4xx_HAL_Driver/Src/stm32f4xx_ll_fmc.c:1434:7
	cmp	r0, #1
	beq	.LBB19_2
	b	.LBB19_1
.LBB19_1:
.Ltmp123:
	.loc	4 1436 13 is_stmt 1             @ ../Library/STM32F4xx_HAL_Driver/Src/stm32f4xx_ll_fmc.c:1436:13
	ldr	r0, [sp, #16]
	ldr	r0, [r0, #8]
	.loc	4 1436 11 is_stmt 0             @ ../Library/STM32F4xx_HAL_Driver/Src/stm32f4xx_ll_fmc.c:1436:11
	str	r0, [sp, #4]
	.loc	4 1439 11 is_stmt 1             @ ../Library/STM32F4xx_HAL_Driver/Src/stm32f4xx_ll_fmc.c:1439:11
	ldr	r0, [sp, #4]
	and	r0, r0, #-268435456
	str	r0, [sp, #4]
	.loc	4 1443 27                       @ ../Library/STM32F4xx_HAL_Driver/Src/stm32f4xx_ll_fmc.c:1443:27
	ldr	r1, [sp, #12]
	.loc	4 1443 35 is_stmt 0             @ ../Library/STM32F4xx_HAL_Driver/Src/stm32f4xx_ll_fmc.c:1443:35
	ldr	r0, [r1]
	.loc	4 1444 35 is_stmt 1             @ ../Library/STM32F4xx_HAL_Driver/Src/stm32f4xx_ll_fmc.c:1444:35
	ldr.w	lr, [r1, #4]
	.loc	4 1445 35                       @ ../Library/STM32F4xx_HAL_Driver/Src/stm32f4xx_ll_fmc.c:1445:35
	ldr.w	r12, [r1, #8]
	.loc	4 1446 35                       @ ../Library/STM32F4xx_HAL_Driver/Src/stm32f4xx_ll_fmc.c:1446:35
	ldr	r3, [r1, #12]
	.loc	4 1443 53                       @ ../Library/STM32F4xx_HAL_Driver/Src/stm32f4xx_ll_fmc.c:1443:53
	subs	r0, #1
	mvn	r2, #15
	.loc	4 1444 61                       @ ../Library/STM32F4xx_HAL_Driver/Src/stm32f4xx_ll_fmc.c:1444:61
	add.w	r2, r2, lr, lsl #4
	.loc	4 1443 68                       @ ../Library/STM32F4xx_HAL_Driver/Src/stm32f4xx_ll_fmc.c:1443:68
	orrs	r0, r2
	mvn	r2, #255
	.loc	4 1445 56                       @ ../Library/STM32F4xx_HAL_Driver/Src/stm32f4xx_ll_fmc.c:1445:56
	add.w	r2, r2, r12, lsl #8
	.loc	4 1444 68                       @ ../Library/STM32F4xx_HAL_Driver/Src/stm32f4xx_ll_fmc.c:1444:68
	orrs	r0, r2
	movw	r2, #61440
	movt	r2, #65535
	.loc	4 1446 54                       @ ../Library/STM32F4xx_HAL_Driver/Src/stm32f4xx_ll_fmc.c:1446:54
	add.w	r2, r2, r3, lsl #12
	.loc	4 1445 68                       @ ../Library/STM32F4xx_HAL_Driver/Src/stm32f4xx_ll_fmc.c:1445:68
	orrs	r0, r2
	.loc	4 1447 35                       @ ../Library/STM32F4xx_HAL_Driver/Src/stm32f4xx_ll_fmc.c:1447:35
	ldr	r3, [r1, #16]
	movs	r2, #0
	movt	r2, #65535
	.loc	4 1447 58 is_stmt 0             @ ../Library/STM32F4xx_HAL_Driver/Src/stm32f4xx_ll_fmc.c:1447:58
	add.w	r2, r2, r3, lsl #16
	.loc	4 1446 68 is_stmt 1             @ ../Library/STM32F4xx_HAL_Driver/Src/stm32f4xx_ll_fmc.c:1446:68
	orrs	r0, r2
	.loc	4 1448 35                       @ ../Library/STM32F4xx_HAL_Driver/Src/stm32f4xx_ll_fmc.c:1448:35
	ldr	r3, [r1, #20]
	movs	r2, #0
	movt	r2, #65520
	.loc	4 1448 48 is_stmt 0             @ ../Library/STM32F4xx_HAL_Driver/Src/stm32f4xx_ll_fmc.c:1448:48
	add.w	r2, r2, r3, lsl #20
	.loc	4 1447 68 is_stmt 1             @ ../Library/STM32F4xx_HAL_Driver/Src/stm32f4xx_ll_fmc.c:1447:68
	orrs	r0, r2
	.loc	4 1449 35                       @ ../Library/STM32F4xx_HAL_Driver/Src/stm32f4xx_ll_fmc.c:1449:35
	ldr	r1, [r1, #24]
	.loc	4 1449 49 is_stmt 0             @ ../Library/STM32F4xx_HAL_Driver/Src/stm32f4xx_ll_fmc.c:1449:49
	subs	r1, #1
	.loc	4 1448 68 is_stmt 1             @ ../Library/STM32F4xx_HAL_Driver/Src/stm32f4xx_ll_fmc.c:1448:68
	orr.w	r1, r0, r1, lsl #24
	.loc	4 1443 11                       @ ../Library/STM32F4xx_HAL_Driver/Src/stm32f4xx_ll_fmc.c:1443:11
	ldr	r0, [sp, #4]
	orrs	r0, r1
	str	r0, [sp, #4]
	.loc	4 1450 37                       @ ../Library/STM32F4xx_HAL_Driver/Src/stm32f4xx_ll_fmc.c:1450:37
	ldr	r0, [sp, #4]
	.loc	4 1450 5 is_stmt 0              @ ../Library/STM32F4xx_HAL_Driver/Src/stm32f4xx_ll_fmc.c:1450:5
	ldr	r1, [sp, #16]
	.loc	4 1450 35                       @ ../Library/STM32F4xx_HAL_Driver/Src/stm32f4xx_ll_fmc.c:1450:35
	str	r0, [r1, #8]
	.loc	4 1451 3 is_stmt 1              @ ../Library/STM32F4xx_HAL_Driver/Src/stm32f4xx_ll_fmc.c:1451:3
	b	.LBB19_3
.Ltmp124:
.LBB19_2:
	.loc	4 1454 13                       @ ../Library/STM32F4xx_HAL_Driver/Src/stm32f4xx_ll_fmc.c:1454:13
	ldr	r0, [sp, #16]
	ldr	r0, [r0, #8]
	.loc	4 1454 11 is_stmt 0             @ ../Library/STM32F4xx_HAL_Driver/Src/stm32f4xx_ll_fmc.c:1454:11
	str	r0, [sp, #4]
	.loc	4 1457 11 is_stmt 1             @ ../Library/STM32F4xx_HAL_Driver/Src/stm32f4xx_ll_fmc.c:1457:11
	ldr	r0, [sp, #4]
	movw	r1, #4095
	movt	r1, #65295
	ands	r0, r1
	str	r0, [sp, #4]
	.loc	4 1459 28                       @ ../Library/STM32F4xx_HAL_Driver/Src/stm32f4xx_ll_fmc.c:1459:28
	ldr	r0, [sp, #12]
	.loc	4 1459 36 is_stmt 0             @ ../Library/STM32F4xx_HAL_Driver/Src/stm32f4xx_ll_fmc.c:1459:36
	ldr	r1, [r0, #12]
	.loc	4 1460 36 is_stmt 1             @ ../Library/STM32F4xx_HAL_Driver/Src/stm32f4xx_ll_fmc.c:1460:36
	ldr	r2, [r0, #20]
	movw	r0, #61440
	movt	r0, #65535
	.loc	4 1459 55                       @ ../Library/STM32F4xx_HAL_Driver/Src/stm32f4xx_ll_fmc.c:1459:55
	add.w	r0, r0, r1, lsl #12
	movs	r1, #0
	movt	r1, #65520
	.loc	4 1460 49                       @ ../Library/STM32F4xx_HAL_Driver/Src/stm32f4xx_ll_fmc.c:1460:49
	add.w	r1, r1, r2, lsl #20
	.loc	4 1459 69                       @ ../Library/STM32F4xx_HAL_Driver/Src/stm32f4xx_ll_fmc.c:1459:69
	orrs	r1, r0
	.loc	4 1459 11 is_stmt 0             @ ../Library/STM32F4xx_HAL_Driver/Src/stm32f4xx_ll_fmc.c:1459:11
	ldr	r0, [sp, #4]
	orrs	r0, r1
	str	r0, [sp, #4]
	.loc	4 1462 13 is_stmt 1             @ ../Library/STM32F4xx_HAL_Driver/Src/stm32f4xx_ll_fmc.c:1462:13
	ldr	r0, [sp, #16]
	ldr	r0, [r0, #12]
	.loc	4 1462 11 is_stmt 0             @ ../Library/STM32F4xx_HAL_Driver/Src/stm32f4xx_ll_fmc.c:1462:11
	str	r0, [sp]
	.loc	4 1465 11 is_stmt 1             @ ../Library/STM32F4xx_HAL_Driver/Src/stm32f4xx_ll_fmc.c:1465:11
	ldr	r0, [sp]
	and	r0, r0, #-268435456
	str	r0, [sp]
	.loc	4 1469 28                       @ ../Library/STM32F4xx_HAL_Driver/Src/stm32f4xx_ll_fmc.c:1469:28
	ldr	r1, [sp, #12]
	.loc	4 1469 36 is_stmt 0             @ ../Library/STM32F4xx_HAL_Driver/Src/stm32f4xx_ll_fmc.c:1469:36
	ldr	r0, [r1]
	.loc	4 1470 35 is_stmt 1             @ ../Library/STM32F4xx_HAL_Driver/Src/stm32f4xx_ll_fmc.c:1470:35
	ldr.w	lr, [r1, #4]
	.loc	4 1471 35                       @ ../Library/STM32F4xx_HAL_Driver/Src/stm32f4xx_ll_fmc.c:1471:35
	ldr.w	r12, [r1, #8]
	.loc	4 1472 35                       @ ../Library/STM32F4xx_HAL_Driver/Src/stm32f4xx_ll_fmc.c:1472:35
	ldr	r3, [r1, #16]
	.loc	4 1469 54                       @ ../Library/STM32F4xx_HAL_Driver/Src/stm32f4xx_ll_fmc.c:1469:54
	subs	r0, #1
	mvn	r2, #15
	.loc	4 1470 61                       @ ../Library/STM32F4xx_HAL_Driver/Src/stm32f4xx_ll_fmc.c:1470:61
	add.w	r2, r2, lr, lsl #4
	.loc	4 1469 69                       @ ../Library/STM32F4xx_HAL_Driver/Src/stm32f4xx_ll_fmc.c:1469:69
	orrs	r0, r2
	mvn	r2, #255
	.loc	4 1471 56                       @ ../Library/STM32F4xx_HAL_Driver/Src/stm32f4xx_ll_fmc.c:1471:56
	add.w	r2, r2, r12, lsl #8
	.loc	4 1470 69                       @ ../Library/STM32F4xx_HAL_Driver/Src/stm32f4xx_ll_fmc.c:1470:69
	orrs	r0, r2
	movs	r2, #0
	movt	r2, #65535
	.loc	4 1472 58                       @ ../Library/STM32F4xx_HAL_Driver/Src/stm32f4xx_ll_fmc.c:1472:58
	add.w	r2, r2, r3, lsl #16
	.loc	4 1471 69                       @ ../Library/STM32F4xx_HAL_Driver/Src/stm32f4xx_ll_fmc.c:1471:69
	orrs	r0, r2
	.loc	4 1473 35                       @ ../Library/STM32F4xx_HAL_Driver/Src/stm32f4xx_ll_fmc.c:1473:35
	ldr	r1, [r1, #24]
	.loc	4 1473 49 is_stmt 0             @ ../Library/STM32F4xx_HAL_Driver/Src/stm32f4xx_ll_fmc.c:1473:49
	subs	r1, #1
	.loc	4 1472 69 is_stmt 1             @ ../Library/STM32F4xx_HAL_Driver/Src/stm32f4xx_ll_fmc.c:1472:69
	orr.w	r1, r0, r1, lsl #24
	.loc	4 1469 11                       @ ../Library/STM32F4xx_HAL_Driver/Src/stm32f4xx_ll_fmc.c:1469:11
	ldr	r0, [sp]
	orrs	r0, r1
	str	r0, [sp]
	.loc	4 1475 37                       @ ../Library/STM32F4xx_HAL_Driver/Src/stm32f4xx_ll_fmc.c:1475:37
	ldr	r0, [sp, #4]
	.loc	4 1475 5 is_stmt 0              @ ../Library/STM32F4xx_HAL_Driver/Src/stm32f4xx_ll_fmc.c:1475:5
	ldr	r1, [sp, #16]
	.loc	4 1475 35                       @ ../Library/STM32F4xx_HAL_Driver/Src/stm32f4xx_ll_fmc.c:1475:35
	str	r0, [r1, #8]
	.loc	4 1476 37 is_stmt 1             @ ../Library/STM32F4xx_HAL_Driver/Src/stm32f4xx_ll_fmc.c:1476:37
	ldr	r0, [sp]
	.loc	4 1476 5 is_stmt 0              @ ../Library/STM32F4xx_HAL_Driver/Src/stm32f4xx_ll_fmc.c:1476:5
	ldr	r1, [sp, #16]
	.loc	4 1476 35                       @ ../Library/STM32F4xx_HAL_Driver/Src/stm32f4xx_ll_fmc.c:1476:35
	str	r0, [r1, #12]
	b	.LBB19_3
.Ltmp125:
.LBB19_3:
	.loc	4 0 35                          @ ../Library/STM32F4xx_HAL_Driver/Src/stm32f4xx_ll_fmc.c:0:35
	movs	r0, #0
	.loc	4 1478 3 is_stmt 1              @ ../Library/STM32F4xx_HAL_Driver/Src/stm32f4xx_ll_fmc.c:1478:3
	add	sp, #20
	pop	{r7, pc}
.Ltmp126:
.Lfunc_end19:
	.size	FMC_SDRAM_Timing_Init, .Lfunc_end19-FMC_SDRAM_Timing_Init
	.cfi_endproc
	.cantunwind
	.fnend
                                        @ -- End function
	.section	.text.FMC_SDRAM_DeInit,"ax",%progbits
	.hidden	FMC_SDRAM_DeInit                @ -- Begin function FMC_SDRAM_DeInit
	.globl	FMC_SDRAM_DeInit
	.p2align	2
	.type	FMC_SDRAM_DeInit,%function
	.code	16                              @ @FMC_SDRAM_DeInit
	.thumb_func
FMC_SDRAM_DeInit:
.Lfunc_begin20:
	.loc	4 1487 0                        @ ../Library/STM32F4xx_HAL_Driver/Src/stm32f4xx_ll_fmc.c:1487:0
	.fnstart
	.cfi_startproc
@ %bb.0:
	.pad	#8
	sub	sp, #8
	.cfi_def_cfa_offset 8
	str	r0, [sp, #4]
	str	r1, [sp]
.Ltmp127:
	.loc	4 1493 3 prologue_end           @ ../Library/STM32F4xx_HAL_Driver/Src/stm32f4xx_ll_fmc.c:1493:3
	ldr	r1, [sp, #4]
	.loc	4 1493 16 is_stmt 0             @ ../Library/STM32F4xx_HAL_Driver/Src/stm32f4xx_ll_fmc.c:1493:16
	ldr	r2, [sp]
	mov.w	r0, #720
	.loc	4 1493 22                       @ ../Library/STM32F4xx_HAL_Driver/Src/stm32f4xx_ll_fmc.c:1493:22
	str.w	r0, [r1, r2, lsl #2]
	.loc	4 1494 3 is_stmt 1              @ ../Library/STM32F4xx_HAL_Driver/Src/stm32f4xx_ll_fmc.c:1494:3
	ldr	r0, [sp, #4]
	.loc	4 1494 16 is_stmt 0             @ ../Library/STM32F4xx_HAL_Driver/Src/stm32f4xx_ll_fmc.c:1494:16
	ldr	r1, [sp]
	.loc	4 1494 11                       @ ../Library/STM32F4xx_HAL_Driver/Src/stm32f4xx_ll_fmc.c:1494:11
	add.w	r1, r0, r1, lsl #2
	mvn	r0, #-268435456
	.loc	4 1494 22                       @ ../Library/STM32F4xx_HAL_Driver/Src/stm32f4xx_ll_fmc.c:1494:22
	str	r0, [r1, #8]
	.loc	4 1495 3 is_stmt 1              @ ../Library/STM32F4xx_HAL_Driver/Src/stm32f4xx_ll_fmc.c:1495:3
	ldr	r1, [sp, #4]
	movs	r0, #0
	.loc	4 1495 22 is_stmt 0             @ ../Library/STM32F4xx_HAL_Driver/Src/stm32f4xx_ll_fmc.c:1495:22
	str	r0, [r1, #16]
	.loc	4 1496 3 is_stmt 1              @ ../Library/STM32F4xx_HAL_Driver/Src/stm32f4xx_ll_fmc.c:1496:3
	ldr	r1, [sp, #4]
	.loc	4 1496 22 is_stmt 0             @ ../Library/STM32F4xx_HAL_Driver/Src/stm32f4xx_ll_fmc.c:1496:22
	str	r0, [r1, #20]
	.loc	4 1497 3 is_stmt 1              @ ../Library/STM32F4xx_HAL_Driver/Src/stm32f4xx_ll_fmc.c:1497:3
	ldr	r1, [sp, #4]
	.loc	4 1497 22 is_stmt 0             @ ../Library/STM32F4xx_HAL_Driver/Src/stm32f4xx_ll_fmc.c:1497:22
	str	r0, [r1, #24]
	.loc	4 1499 3 is_stmt 1              @ ../Library/STM32F4xx_HAL_Driver/Src/stm32f4xx_ll_fmc.c:1499:3
	add	sp, #8
	bx	lr
.Ltmp128:
.Lfunc_end20:
	.size	FMC_SDRAM_DeInit, .Lfunc_end20-FMC_SDRAM_DeInit
	.cfi_endproc
	.cantunwind
	.fnend
                                        @ -- End function
	.section	.text.FMC_SDRAM_WriteProtection_Enable,"ax",%progbits
	.hidden	FMC_SDRAM_WriteProtection_Enable @ -- Begin function FMC_SDRAM_WriteProtection_Enable
	.globl	FMC_SDRAM_WriteProtection_Enable
	.p2align	2
	.type	FMC_SDRAM_WriteProtection_Enable,%function
	.code	16                              @ @FMC_SDRAM_WriteProtection_Enable
	.thumb_func
FMC_SDRAM_WriteProtection_Enable:
.Lfunc_begin21:
	.loc	4 1527 0                        @ ../Library/STM32F4xx_HAL_Driver/Src/stm32f4xx_ll_fmc.c:1527:0
	.fnstart
	.cfi_startproc
@ %bb.0:
	.pad	#8
	sub	sp, #8
	.cfi_def_cfa_offset 8
	str	r0, [sp, #4]
	str	r1, [sp]
.Ltmp129:
	.loc	4 1533 3 prologue_end           @ ../Library/STM32F4xx_HAL_Driver/Src/stm32f4xx_ll_fmc.c:1533:3
	ldr	r1, [sp, #4]
	.loc	4 1533 16 is_stmt 0             @ ../Library/STM32F4xx_HAL_Driver/Src/stm32f4xx_ll_fmc.c:1533:16
	ldr	r2, [sp]
	.loc	4 1533 22                       @ ../Library/STM32F4xx_HAL_Driver/Src/stm32f4xx_ll_fmc.c:1533:22
	ldr.w	r0, [r1, r2, lsl #2]
	orr	r0, r0, #512
	str.w	r0, [r1, r2, lsl #2]
	movs	r0, #0
	.loc	4 1535 3 is_stmt 1              @ ../Library/STM32F4xx_HAL_Driver/Src/stm32f4xx_ll_fmc.c:1535:3
	add	sp, #8
	bx	lr
.Ltmp130:
.Lfunc_end21:
	.size	FMC_SDRAM_WriteProtection_Enable, .Lfunc_end21-FMC_SDRAM_WriteProtection_Enable
	.cfi_endproc
	.cantunwind
	.fnend
                                        @ -- End function
	.section	.text.FMC_SDRAM_WriteProtection_Disable,"ax",%progbits
	.hidden	FMC_SDRAM_WriteProtection_Disable @ -- Begin function FMC_SDRAM_WriteProtection_Disable
	.globl	FMC_SDRAM_WriteProtection_Disable
	.p2align	2
	.type	FMC_SDRAM_WriteProtection_Disable,%function
	.code	16                              @ @FMC_SDRAM_WriteProtection_Disable
	.thumb_func
FMC_SDRAM_WriteProtection_Disable:
.Lfunc_begin22:
	.loc	4 1544 0                        @ ../Library/STM32F4xx_HAL_Driver/Src/stm32f4xx_ll_fmc.c:1544:0
	.fnstart
	.cfi_startproc
@ %bb.0:
	.pad	#8
	sub	sp, #8
	.cfi_def_cfa_offset 8
	str	r0, [sp, #4]
	str	r1, [sp]
.Ltmp131:
	.loc	4 1550 3 prologue_end           @ ../Library/STM32F4xx_HAL_Driver/Src/stm32f4xx_ll_fmc.c:1550:3
	ldr	r1, [sp, #4]
	.loc	4 1550 16 is_stmt 0             @ ../Library/STM32F4xx_HAL_Driver/Src/stm32f4xx_ll_fmc.c:1550:16
	ldr	r2, [sp]
	.loc	4 1550 22                       @ ../Library/STM32F4xx_HAL_Driver/Src/stm32f4xx_ll_fmc.c:1550:22
	ldr.w	r0, [r1, r2, lsl #2]
	bic	r0, r0, #512
	str.w	r0, [r1, r2, lsl #2]
	movs	r0, #0
	.loc	4 1552 3 is_stmt 1              @ ../Library/STM32F4xx_HAL_Driver/Src/stm32f4xx_ll_fmc.c:1552:3
	add	sp, #8
	bx	lr
.Ltmp132:
.Lfunc_end22:
	.size	FMC_SDRAM_WriteProtection_Disable, .Lfunc_end22-FMC_SDRAM_WriteProtection_Disable
	.cfi_endproc
	.cantunwind
	.fnend
                                        @ -- End function
	.section	.text.FMC_SDRAM_SendCommand,"ax",%progbits
	.hidden	FMC_SDRAM_SendCommand           @ -- Begin function FMC_SDRAM_SendCommand
	.globl	FMC_SDRAM_SendCommand
	.p2align	2
	.type	FMC_SDRAM_SendCommand,%function
	.code	16                              @ @FMC_SDRAM_SendCommand
	.thumb_func
FMC_SDRAM_SendCommand:
.Lfunc_begin23:
	.loc	4 1564 0                        @ ../Library/STM32F4xx_HAL_Driver/Src/stm32f4xx_ll_fmc.c:1564:0
	.fnstart
	.cfi_startproc
@ %bb.0:
	.save	{r7, lr}
	push	{r7, lr}
	.cfi_def_cfa_offset 8
	.cfi_offset lr, -4
	.cfi_offset r7, -8
	.pad	#24
	sub	sp, #24
	.cfi_def_cfa_offset 32
	str	r0, [sp, #16]
	str	r1, [sp, #12]
	str	r2, [sp, #8]
	movs	r0, #0
.Ltmp133:
	.loc	4 1565 17 prologue_end          @ ../Library/STM32F4xx_HAL_Driver/Src/stm32f4xx_ll_fmc.c:1565:17
	str	r0, [sp, #4]
	.loc	4 1566 12                       @ ../Library/STM32F4xx_HAL_Driver/Src/stm32f4xx_ll_fmc.c:1566:12
	str	r0, [sp]
	.loc	4 1576 22                       @ ../Library/STM32F4xx_HAL_Driver/Src/stm32f4xx_ll_fmc.c:1576:22
	ldr	r1, [sp, #12]
	.loc	4 1576 31 is_stmt 0             @ ../Library/STM32F4xx_HAL_Driver/Src/stm32f4xx_ll_fmc.c:1576:31
	ldr	r0, [r1]
	.loc	4 1577 31 is_stmt 1             @ ../Library/STM32F4xx_HAL_Driver/Src/stm32f4xx_ll_fmc.c:1577:31
	ldr	r2, [r1, #4]
	.loc	4 1578 33                       @ ../Library/STM32F4xx_HAL_Driver/Src/stm32f4xx_ll_fmc.c:1578:33
	ldr	r3, [r1, #8]
	.loc	4 1579 32                       @ ../Library/STM32F4xx_HAL_Driver/Src/stm32f4xx_ll_fmc.c:1579:32
	ldr	r1, [r1, #12]
	.loc	4 1576 61                       @ ../Library/STM32F4xx_HAL_Driver/Src/stm32f4xx_ll_fmc.c:1576:61
	orrs	r0, r2
	mvn	r2, #31
	.loc	4 1578 56                       @ ../Library/STM32F4xx_HAL_Driver/Src/stm32f4xx_ll_fmc.c:1578:56
	add.w	r2, r2, r3, lsl #5
	.loc	4 1577 61                       @ ../Library/STM32F4xx_HAL_Driver/Src/stm32f4xx_ll_fmc.c:1577:61
	orrs	r0, r2
	.loc	4 1578 63                       @ ../Library/STM32F4xx_HAL_Driver/Src/stm32f4xx_ll_fmc.c:1578:63
	orr.w	r0, r0, r1, lsl #9
	.loc	4 1576 8                        @ ../Library/STM32F4xx_HAL_Driver/Src/stm32f4xx_ll_fmc.c:1576:8
	str	r0, [sp, #4]
	.loc	4 1582 19                       @ ../Library/STM32F4xx_HAL_Driver/Src/stm32f4xx_ll_fmc.c:1582:19
	ldr	r0, [sp, #4]
	.loc	4 1582 3 is_stmt 0              @ ../Library/STM32F4xx_HAL_Driver/Src/stm32f4xx_ll_fmc.c:1582:3
	ldr	r1, [sp, #16]
	.loc	4 1582 17                       @ ../Library/STM32F4xx_HAL_Driver/Src/stm32f4xx_ll_fmc.c:1582:17
	str	r0, [r1, #16]
	.loc	4 1585 15 is_stmt 1             @ ../Library/STM32F4xx_HAL_Driver/Src/stm32f4xx_ll_fmc.c:1585:15
	bl	HAL_GetTick
	.loc	4 1585 13 is_stmt 0             @ ../Library/STM32F4xx_HAL_Driver/Src/stm32f4xx_ll_fmc.c:1585:13
	str	r0, [sp]
	.loc	4 1588 3 is_stmt 1              @ ../Library/STM32F4xx_HAL_Driver/Src/stm32f4xx_ll_fmc.c:1588:3
	b	.LBB23_1
.LBB23_1:                               @ =>This Inner Loop Header: Depth=1
	.loc	4 1588 9 is_stmt 0              @ ../Library/STM32F4xx_HAL_Driver/Src/stm32f4xx_ll_fmc.c:1588:9
	ldr	r0, [sp, #16]
	ldr	r0, [r0, #24]
	.loc	4 1588 3                        @ ../Library/STM32F4xx_HAL_Driver/Src/stm32f4xx_ll_fmc.c:1588:3
	lsls	r0, r0, #26
	cmp	r0, #0
	bpl	.LBB23_8
	b	.LBB23_2
.LBB23_2:                               @   in Loop: Header=BB23_1 Depth=1
.Ltmp134:
	.loc	4 1591 8 is_stmt 1              @ ../Library/STM32F4xx_HAL_Driver/Src/stm32f4xx_ll_fmc.c:1591:8
	ldr	r0, [sp, #8]
.Ltmp135:
	.loc	4 1591 8 is_stmt 0              @ ../Library/STM32F4xx_HAL_Driver/Src/stm32f4xx_ll_fmc.c:1591:8
	adds	r0, #1
	cbz	r0, .LBB23_7
	b	.LBB23_3
.LBB23_3:                               @   in Loop: Header=BB23_1 Depth=1
.Ltmp136:
	.loc	4 1593 11 is_stmt 1             @ ../Library/STM32F4xx_HAL_Driver/Src/stm32f4xx_ll_fmc.c:1593:11
	ldr	r0, [sp, #8]
	.loc	4 1593 25 is_stmt 0             @ ../Library/STM32F4xx_HAL_Driver/Src/stm32f4xx_ll_fmc.c:1593:25
	cbz	r0, .LBB23_5
	b	.LBB23_4
.LBB23_4:                               @   in Loop: Header=BB23_1 Depth=1
	.loc	4 1593 29                       @ ../Library/STM32F4xx_HAL_Driver/Src/stm32f4xx_ll_fmc.c:1593:29
	bl	HAL_GetTick
	.loc	4 1593 45                       @ ../Library/STM32F4xx_HAL_Driver/Src/stm32f4xx_ll_fmc.c:1593:45
	ldr	r1, [sp]
	.loc	4 1593 43                       @ ../Library/STM32F4xx_HAL_Driver/Src/stm32f4xx_ll_fmc.c:1593:43
	subs	r0, r0, r1
	.loc	4 1593 59                       @ ../Library/STM32F4xx_HAL_Driver/Src/stm32f4xx_ll_fmc.c:1593:59
	ldr	r1, [sp, #8]
.Ltmp137:
	.loc	4 1593 10                       @ ../Library/STM32F4xx_HAL_Driver/Src/stm32f4xx_ll_fmc.c:1593:10
	cmp	r0, r1
	bls	.LBB23_6
	b	.LBB23_5
.LBB23_5:
	.loc	4 0 10                          @ ../Library/STM32F4xx_HAL_Driver/Src/stm32f4xx_ll_fmc.c:0:10
	movs	r0, #3
.Ltmp138:
	.loc	4 1595 9 is_stmt 1              @ ../Library/STM32F4xx_HAL_Driver/Src/stm32f4xx_ll_fmc.c:1595:9
	strb.w	r0, [sp, #23]
	b	.LBB23_9
.Ltmp139:
.LBB23_6:                               @   in Loop: Header=BB23_1 Depth=1
	.loc	4 1597 5                        @ ../Library/STM32F4xx_HAL_Driver/Src/stm32f4xx_ll_fmc.c:1597:5
	b	.LBB23_7
.Ltmp140:
.LBB23_7:                               @   in Loop: Header=BB23_1 Depth=1
	.loc	4 1588 3                        @ ../Library/STM32F4xx_HAL_Driver/Src/stm32f4xx_ll_fmc.c:1588:3
	b	.LBB23_1
.LBB23_8:
	.loc	4 0 3 is_stmt 0                 @ ../Library/STM32F4xx_HAL_Driver/Src/stm32f4xx_ll_fmc.c:0:3
	movs	r0, #0
	.loc	4 1600 3 is_stmt 1              @ ../Library/STM32F4xx_HAL_Driver/Src/stm32f4xx_ll_fmc.c:1600:3
	strb.w	r0, [sp, #23]
	b	.LBB23_9
.LBB23_9:
	.loc	4 1601 1                        @ ../Library/STM32F4xx_HAL_Driver/Src/stm32f4xx_ll_fmc.c:1601:1
	ldrb.w	r0, [sp, #23]
	add	sp, #24
	pop	{r7, pc}
.Ltmp141:
.Lfunc_end23:
	.size	FMC_SDRAM_SendCommand, .Lfunc_end23-FMC_SDRAM_SendCommand
	.cfi_endproc
	.cantunwind
	.fnend
                                        @ -- End function
	.section	.text.FMC_SDRAM_ProgramRefreshRate,"ax",%progbits
	.hidden	FMC_SDRAM_ProgramRefreshRate    @ -- Begin function FMC_SDRAM_ProgramRefreshRate
	.globl	FMC_SDRAM_ProgramRefreshRate
	.p2align	2
	.type	FMC_SDRAM_ProgramRefreshRate,%function
	.code	16                              @ @FMC_SDRAM_ProgramRefreshRate
	.thumb_func
FMC_SDRAM_ProgramRefreshRate:
.Lfunc_begin24:
	.loc	4 1610 0                        @ ../Library/STM32F4xx_HAL_Driver/Src/stm32f4xx_ll_fmc.c:1610:0
	.fnstart
	.cfi_startproc
@ %bb.0:
	.pad	#8
	sub	sp, #8
	.cfi_def_cfa_offset 8
	str	r0, [sp, #4]
	str	r1, [sp]
.Ltmp142:
	.loc	4 1616 21 prologue_end          @ ../Library/STM32F4xx_HAL_Driver/Src/stm32f4xx_ll_fmc.c:1616:21
	ldr	r2, [sp]
	.loc	4 1616 3 is_stmt 0              @ ../Library/STM32F4xx_HAL_Driver/Src/stm32f4xx_ll_fmc.c:1616:3
	ldr	r1, [sp, #4]
	.loc	4 1616 17                       @ ../Library/STM32F4xx_HAL_Driver/Src/stm32f4xx_ll_fmc.c:1616:17
	ldr	r0, [r1, #20]
	orr.w	r0, r0, r2, lsl #1
	str	r0, [r1, #20]
	movs	r0, #0
	.loc	4 1618 3 is_stmt 1              @ ../Library/STM32F4xx_HAL_Driver/Src/stm32f4xx_ll_fmc.c:1618:3
	add	sp, #8
	bx	lr
.Ltmp143:
.Lfunc_end24:
	.size	FMC_SDRAM_ProgramRefreshRate, .Lfunc_end24-FMC_SDRAM_ProgramRefreshRate
	.cfi_endproc
	.cantunwind
	.fnend
                                        @ -- End function
	.section	.text.FMC_SDRAM_SetAutoRefreshNumber,"ax",%progbits
	.hidden	FMC_SDRAM_SetAutoRefreshNumber  @ -- Begin function FMC_SDRAM_SetAutoRefreshNumber
	.globl	FMC_SDRAM_SetAutoRefreshNumber
	.p2align	2
	.type	FMC_SDRAM_SetAutoRefreshNumber,%function
	.code	16                              @ @FMC_SDRAM_SetAutoRefreshNumber
	.thumb_func
FMC_SDRAM_SetAutoRefreshNumber:
.Lfunc_begin25:
	.loc	4 1628 0                        @ ../Library/STM32F4xx_HAL_Driver/Src/stm32f4xx_ll_fmc.c:1628:0
	.fnstart
	.cfi_startproc
@ %bb.0:
	.pad	#8
	sub	sp, #8
	.cfi_def_cfa_offset 8
	str	r0, [sp, #4]
	str	r1, [sp]
.Ltmp144:
	.loc	4 1634 21 prologue_end          @ ../Library/STM32F4xx_HAL_Driver/Src/stm32f4xx_ll_fmc.c:1634:21
	ldr	r2, [sp]
	.loc	4 1634 3 is_stmt 0              @ ../Library/STM32F4xx_HAL_Driver/Src/stm32f4xx_ll_fmc.c:1634:3
	ldr	r1, [sp, #4]
	.loc	4 1634 17                       @ ../Library/STM32F4xx_HAL_Driver/Src/stm32f4xx_ll_fmc.c:1634:17
	ldr	r0, [r1, #16]
	orr.w	r0, r0, r2, lsl #5
	str	r0, [r1, #16]
	movs	r0, #0
	.loc	4 1636 3 is_stmt 1              @ ../Library/STM32F4xx_HAL_Driver/Src/stm32f4xx_ll_fmc.c:1636:3
	add	sp, #8
	bx	lr
.Ltmp145:
.Lfunc_end25:
	.size	FMC_SDRAM_SetAutoRefreshNumber, .Lfunc_end25-FMC_SDRAM_SetAutoRefreshNumber
	.cfi_endproc
	.cantunwind
	.fnend
                                        @ -- End function
	.section	.text.FMC_SDRAM_GetModeStatus,"ax",%progbits
	.hidden	FMC_SDRAM_GetModeStatus         @ -- Begin function FMC_SDRAM_GetModeStatus
	.globl	FMC_SDRAM_GetModeStatus
	.p2align	2
	.type	FMC_SDRAM_GetModeStatus,%function
	.code	16                              @ @FMC_SDRAM_GetModeStatus
	.thumb_func
FMC_SDRAM_GetModeStatus:
.Lfunc_begin26:
	.loc	4 1649 0                        @ ../Library/STM32F4xx_HAL_Driver/Src/stm32f4xx_ll_fmc.c:1649:0
	.fnstart
	.cfi_startproc
@ %bb.0:
	.pad	#12
	sub	sp, #12
	.cfi_def_cfa_offset 12
	str	r0, [sp, #8]
	str	r1, [sp, #4]
	movs	r0, #0
.Ltmp146:
	.loc	4 1650 12 prologue_end          @ ../Library/STM32F4xx_HAL_Driver/Src/stm32f4xx_ll_fmc.c:1650:12
	str	r0, [sp]
.Ltmp147:
	.loc	4 1657 6                        @ ../Library/STM32F4xx_HAL_Driver/Src/stm32f4xx_ll_fmc.c:1657:6
	ldr	r0, [sp, #4]
.Ltmp148:
	.loc	4 1657 6 is_stmt 0              @ ../Library/STM32F4xx_HAL_Driver/Src/stm32f4xx_ll_fmc.c:1657:6
	cbnz	r0, .LBB26_2
	b	.LBB26_1
.LBB26_1:
.Ltmp149:
	.loc	4 1659 25 is_stmt 1             @ ../Library/STM32F4xx_HAL_Driver/Src/stm32f4xx_ll_fmc.c:1659:25
	ldr	r0, [sp, #8]
	.loc	4 1659 33 is_stmt 0             @ ../Library/STM32F4xx_HAL_Driver/Src/stm32f4xx_ll_fmc.c:1659:33
	ldr	r0, [r0, #24]
	.loc	4 1659 38                       @ ../Library/STM32F4xx_HAL_Driver/Src/stm32f4xx_ll_fmc.c:1659:38
	and	r0, r0, #6
	.loc	4 1659 12                       @ ../Library/STM32F4xx_HAL_Driver/Src/stm32f4xx_ll_fmc.c:1659:12
	str	r0, [sp]
	.loc	4 1660 3 is_stmt 1              @ ../Library/STM32F4xx_HAL_Driver/Src/stm32f4xx_ll_fmc.c:1660:3
	b	.LBB26_3
.Ltmp150:
.LBB26_2:
	.loc	4 1663 26                       @ ../Library/STM32F4xx_HAL_Driver/Src/stm32f4xx_ll_fmc.c:1663:26
	ldr	r0, [sp, #8]
	.loc	4 1663 34 is_stmt 0             @ ../Library/STM32F4xx_HAL_Driver/Src/stm32f4xx_ll_fmc.c:1663:34
	ldr	r0, [r0, #24]
	.loc	4 1663 39                       @ ../Library/STM32F4xx_HAL_Driver/Src/stm32f4xx_ll_fmc.c:1663:39
	and	r0, r0, #24
	.loc	4 1663 58                       @ ../Library/STM32F4xx_HAL_Driver/Src/stm32f4xx_ll_fmc.c:1663:58
	lsrs	r0, r0, #2
	.loc	4 1663 12                       @ ../Library/STM32F4xx_HAL_Driver/Src/stm32f4xx_ll_fmc.c:1663:12
	str	r0, [sp]
	b	.LBB26_3
.Ltmp151:
.LBB26_3:
	.loc	4 1667 10 is_stmt 1             @ ../Library/STM32F4xx_HAL_Driver/Src/stm32f4xx_ll_fmc.c:1667:10
	ldr	r0, [sp]
	.loc	4 1667 3 is_stmt 0              @ ../Library/STM32F4xx_HAL_Driver/Src/stm32f4xx_ll_fmc.c:1667:3
	add	sp, #12
	bx	lr
.Ltmp152:
.Lfunc_end26:
	.size	FMC_SDRAM_GetModeStatus, .Lfunc_end26-FMC_SDRAM_GetModeStatus
	.cfi_endproc
	.cantunwind
	.fnend
                                        @ -- End function
	.file	5 "C:\\Users\\Hyacincher\\Desktop\\HyTelectrl\\Code\\Project" "../Library/CMSIS/stm32f429xx.h"
	.file	6 "C:\\Users\\Hyacincher\\Desktop\\HyTelectrl\\Code\\Project" "../Library/STM32F4xx_HAL_Driver/Inc/stm32f4xx_ll_fmc.h"
	.section	".note.GNU-stack","",%progbits
	.eabi_attribute	30, 6	@ Tag_ABI_optimization_goals
	.ARM_attribute	16, 1	@ Tag_AV_eba